   1              		.file	"testBinIO.cpp"
   2              		.text
   3              		.section	.text._ZN23TestBinIO_testWriteFileD2Ev,"axG",@progbits,_ZN23TestBinIO_testWriteFileD5Ev,c
   4              		.align 2
   5              		.p2align 4
   6              		.weak	_ZN23TestBinIO_testWriteFileD2Ev
   8              	_ZN23TestBinIO_testWriteFileD2Ev:
   9              	.LFB1445:
  10              		.cfi_startproc
  11 0000 F30F1EFA 		endbr64
  12 0004 488D0500 		leaq	16+_ZTV23TestBinIO_testWriteFile(%rip), %rax
  12      000000
  13 000b 488907   		movq	%rax, (%rdi)
  14 000e E9000000 		jmp	_ZN8UnitTest4TestD2Ev@PLT
  14      00
  15              		.cfi_endproc
  16              	.LFE1445:
  18              		.weak	_ZN23TestBinIO_testWriteFileD1Ev
  19              		.set	_ZN23TestBinIO_testWriteFileD1Ev,_ZN23TestBinIO_testWriteFileD2Ev
  20              		.section	.text._ZN23TestBinIO_testWriteFileD0Ev,"axG",@progbits,_ZN23TestBinIO_testWriteFileD5Ev,c
  21              		.align 2
  22              		.p2align 4
  23              		.weak	_ZN23TestBinIO_testWriteFileD0Ev
  25              	_ZN23TestBinIO_testWriteFileD0Ev:
  26              	.LFB1447:
  27              		.cfi_startproc
  28              		.cfi_personality 0x9b,DW.ref.__gxx_personality_v0
  29              		.cfi_lsda 0x1b,.LLSDA1447
  30 0000 F30F1EFA 		endbr64
  31 0004 4154     		pushq	%r12
  32              		.cfi_def_cfa_offset 16
  33              		.cfi_offset 12, -16
  34 0006 488D0500 		leaq	16+_ZTV23TestBinIO_testWriteFile(%rip), %rax
  34      000000
  35 000d 55       		pushq	%rbp
  36              		.cfi_def_cfa_offset 24
  37              		.cfi_offset 6, -24
  38 000e 4889FD   		movq	%rdi, %rbp
  39 0011 4883EC08 		subq	$8, %rsp
  40              		.cfi_def_cfa_offset 32
  41 0015 488907   		movq	%rax, (%rdi)
  42              	.LEHB0:
  43 0018 E8000000 		call	_ZN8UnitTest4TestD2Ev@PLT
  43      00
  44              	.LEHE0:
  45 001d 4883C408 		addq	$8, %rsp
  46              		.cfi_remember_state
  47              		.cfi_def_cfa_offset 24
  48 0021 4889EF   		movq	%rbp, %rdi
  49 0024 5D       		popq	%rbp
  50              		.cfi_def_cfa_offset 16
  51 0025 415C     		popq	%r12
  52              		.cfi_def_cfa_offset 8
  53 0027 E9000000 		jmp	_ZdlPv@PLT
  53      00
  54              	.L5:
  55              		.cfi_restore_state
  56 002c F30F1EFA 		endbr64
  57 0030 4989C4   		movq	%rax, %r12
  58              	.L4:
  59 0033 4889EF   		movq	%rbp, %rdi
  60 0036 E8000000 		call	_ZdlPv@PLT
  60      00
  61 003b 4C89E7   		movq	%r12, %rdi
  62              	.LEHB1:
  63 003e E8000000 		call	_Unwind_Resume@PLT
  63      00
  64              	.LEHE1:
  65              		.cfi_endproc
  66              	.LFE1447:
  67              		.globl	__gxx_personality_v0
  68              		.section	.gcc_except_table._ZN23TestBinIO_testWriteFileD0Ev,"aG",@progbits,_ZN23TestBinIO_testWrit
  69              	.LLSDA1447:
  70 0000 FF       		.byte	0xff
  71 0001 FF       		.byte	0xff
  72 0002 01       		.byte	0x1
  73 0003 08       		.uleb128 .LLSDACSE1447-.LLSDACSB1447
  74              	.LLSDACSB1447:
  75 0004 18       		.uleb128 .LEHB0-.LFB1447
  76 0005 05       		.uleb128 .LEHE0-.LEHB0
  77 0006 2C       		.uleb128 .L5-.LFB1447
  78 0007 00       		.uleb128 0
  79 0008 3E       		.uleb128 .LEHB1-.LFB1447
  80 0009 05       		.uleb128 .LEHE1-.LEHB1
  81 000a 00       		.uleb128 0
  82 000b 00       		.uleb128 0
  83              	.LLSDACSE1447:
  84              		.section	.text._ZN23TestBinIO_testWriteFileD0Ev,"axG",@progbits,_ZN23TestBinIO_testWriteFileD5Ev,c
  86              		.section	.text._ZN30TestBinIO_testReadExistingFileD2Ev,"axG",@progbits,_ZN30TestBinIO_testReadExis
  87              		.align 2
  88              		.p2align 4
  89              		.weak	_ZN30TestBinIO_testReadExistingFileD2Ev
  91              	_ZN30TestBinIO_testReadExistingFileD2Ev:
  92              	.LFB1449:
  93              		.cfi_startproc
  94 0000 F30F1EFA 		endbr64
  95 0004 488D0500 		leaq	16+_ZTV30TestBinIO_testReadExistingFile(%rip), %rax
  95      000000
  96 000b 488907   		movq	%rax, (%rdi)
  97 000e E9000000 		jmp	_ZN8UnitTest4TestD2Ev@PLT
  97      00
  98              		.cfi_endproc
  99              	.LFE1449:
 101              		.weak	_ZN30TestBinIO_testReadExistingFileD1Ev
 102              		.set	_ZN30TestBinIO_testReadExistingFileD1Ev,_ZN30TestBinIO_testReadExistingFileD2Ev
 103              		.section	.text._ZN30TestBinIO_testReadExistingFileD0Ev,"axG",@progbits,_ZN30TestBinIO_testReadExis
 104              		.align 2
 105              		.p2align 4
 106              		.weak	_ZN30TestBinIO_testReadExistingFileD0Ev
 108              	_ZN30TestBinIO_testReadExistingFileD0Ev:
 109              	.LFB1451:
 110              		.cfi_startproc
 111              		.cfi_personality 0x9b,DW.ref.__gxx_personality_v0
 112              		.cfi_lsda 0x1b,.LLSDA1451
 113 0000 F30F1EFA 		endbr64
 114 0004 4154     		pushq	%r12
 115              		.cfi_def_cfa_offset 16
 116              		.cfi_offset 12, -16
 117 0006 488D0500 		leaq	16+_ZTV30TestBinIO_testReadExistingFile(%rip), %rax
 117      000000
 118 000d 55       		pushq	%rbp
 119              		.cfi_def_cfa_offset 24
 120              		.cfi_offset 6, -24
 121 000e 4889FD   		movq	%rdi, %rbp
 122 0011 4883EC08 		subq	$8, %rsp
 123              		.cfi_def_cfa_offset 32
 124 0015 488907   		movq	%rax, (%rdi)
 125              	.LEHB2:
 126 0018 E8000000 		call	_ZN8UnitTest4TestD2Ev@PLT
 126      00
 127              	.LEHE2:
 128 001d 4883C408 		addq	$8, %rsp
 129              		.cfi_remember_state
 130              		.cfi_def_cfa_offset 24
 131 0021 4889EF   		movq	%rbp, %rdi
 132 0024 5D       		popq	%rbp
 133              		.cfi_def_cfa_offset 16
 134 0025 415C     		popq	%r12
 135              		.cfi_def_cfa_offset 8
 136 0027 E9000000 		jmp	_ZdlPv@PLT
 136      00
 137              	.L10:
 138              		.cfi_restore_state
 139 002c F30F1EFA 		endbr64
 140 0030 4989C4   		movq	%rax, %r12
 141              	.L9:
 142 0033 4889EF   		movq	%rbp, %rdi
 143 0036 E8000000 		call	_ZdlPv@PLT
 143      00
 144 003b 4C89E7   		movq	%r12, %rdi
 145              	.LEHB3:
 146 003e E8000000 		call	_Unwind_Resume@PLT
 146      00
 147              	.LEHE3:
 148              		.cfi_endproc
 149              	.LFE1451:
 150              		.section	.gcc_except_table._ZN30TestBinIO_testReadExistingFileD0Ev,"aG",@progbits,_ZN30TestBinIO_t
 151              	.LLSDA1451:
 152 0000 FF       		.byte	0xff
 153 0001 FF       		.byte	0xff
 154 0002 01       		.byte	0x1
 155 0003 08       		.uleb128 .LLSDACSE1451-.LLSDACSB1451
 156              	.LLSDACSB1451:
 157 0004 18       		.uleb128 .LEHB2-.LFB1451
 158 0005 05       		.uleb128 .LEHE2-.LEHB2
 159 0006 2C       		.uleb128 .L10-.LFB1451
 160 0007 00       		.uleb128 0
 161 0008 3E       		.uleb128 .LEHB3-.LFB1451
 162 0009 05       		.uleb128 .LEHE3-.LEHB3
 163 000a 00       		.uleb128 0
 164 000b 00       		.uleb128 0
 165              	.LLSDACSE1451:
 166              		.section	.text._ZN30TestBinIO_testReadExistingFileD0Ev,"axG",@progbits,_ZN30TestBinIO_testReadExis
 168              		.section	.text._ZN33TestBinIO_testReadNonExistentFileD2Ev,"axG",@progbits,_ZN33TestBinIO_testReadN
 169              		.align 2
 170              		.p2align 4
 171              		.weak	_ZN33TestBinIO_testReadNonExistentFileD2Ev
 173              	_ZN33TestBinIO_testReadNonExistentFileD2Ev:
 174              	.LFB1453:
 175              		.cfi_startproc
 176 0000 F30F1EFA 		endbr64
 177 0004 488D0500 		leaq	16+_ZTV33TestBinIO_testReadNonExistentFile(%rip), %rax
 177      000000
 178 000b 488907   		movq	%rax, (%rdi)
 179 000e E9000000 		jmp	_ZN8UnitTest4TestD2Ev@PLT
 179      00
 180              		.cfi_endproc
 181              	.LFE1453:
 183              		.weak	_ZN33TestBinIO_testReadNonExistentFileD1Ev
 184              		.set	_ZN33TestBinIO_testReadNonExistentFileD1Ev,_ZN33TestBinIO_testReadNonExistentFileD2Ev
 185              		.section	.text._ZN33TestBinIO_testReadNonExistentFileD0Ev,"axG",@progbits,_ZN33TestBinIO_testReadN
 186              		.align 2
 187              		.p2align 4
 188              		.weak	_ZN33TestBinIO_testReadNonExistentFileD0Ev
 190              	_ZN33TestBinIO_testReadNonExistentFileD0Ev:
 191              	.LFB1455:
 192              		.cfi_startproc
 193              		.cfi_personality 0x9b,DW.ref.__gxx_personality_v0
 194              		.cfi_lsda 0x1b,.LLSDA1455
 195 0000 F30F1EFA 		endbr64
 196 0004 4154     		pushq	%r12
 197              		.cfi_def_cfa_offset 16
 198              		.cfi_offset 12, -16
 199 0006 488D0500 		leaq	16+_ZTV33TestBinIO_testReadNonExistentFile(%rip), %rax
 199      000000
 200 000d 55       		pushq	%rbp
 201              		.cfi_def_cfa_offset 24
 202              		.cfi_offset 6, -24
 203 000e 4889FD   		movq	%rdi, %rbp
 204 0011 4883EC08 		subq	$8, %rsp
 205              		.cfi_def_cfa_offset 32
 206 0015 488907   		movq	%rax, (%rdi)
 207              	.LEHB4:
 208 0018 E8000000 		call	_ZN8UnitTest4TestD2Ev@PLT
 208      00
 209              	.LEHE4:
 210 001d 4883C408 		addq	$8, %rsp
 211              		.cfi_remember_state
 212              		.cfi_def_cfa_offset 24
 213 0021 4889EF   		movq	%rbp, %rdi
 214 0024 5D       		popq	%rbp
 215              		.cfi_def_cfa_offset 16
 216 0025 415C     		popq	%r12
 217              		.cfi_def_cfa_offset 8
 218 0027 E9000000 		jmp	_ZdlPv@PLT
 218      00
 219              	.L15:
 220              		.cfi_restore_state
 221 002c F30F1EFA 		endbr64
 222 0030 4989C4   		movq	%rax, %r12
 223              	.L14:
 224 0033 4889EF   		movq	%rbp, %rdi
 225 0036 E8000000 		call	_ZdlPv@PLT
 225      00
 226 003b 4C89E7   		movq	%r12, %rdi
 227              	.LEHB5:
 228 003e E8000000 		call	_Unwind_Resume@PLT
 228      00
 229              	.LEHE5:
 230              		.cfi_endproc
 231              	.LFE1455:
 232              		.section	.gcc_except_table._ZN33TestBinIO_testReadNonExistentFileD0Ev,"aG",@progbits,_ZN33TestBinI
 233              	.LLSDA1455:
 234 0000 FF       		.byte	0xff
 235 0001 FF       		.byte	0xff
 236 0002 01       		.byte	0x1
 237 0003 08       		.uleb128 .LLSDACSE1455-.LLSDACSB1455
 238              	.LLSDACSB1455:
 239 0004 18       		.uleb128 .LEHB4-.LFB1455
 240 0005 05       		.uleb128 .LEHE4-.LEHB4
 241 0006 2C       		.uleb128 .L15-.LFB1455
 242 0007 00       		.uleb128 0
 243 0008 3E       		.uleb128 .LEHB5-.LFB1455
 244 0009 05       		.uleb128 .LEHE5-.LEHB5
 245 000a 00       		.uleb128 0
 246 000b 00       		.uleb128 0
 247              	.LLSDACSE1455:
 248              		.section	.text._ZN33TestBinIO_testReadNonExistentFileD0Ev,"axG",@progbits,_ZN33TestBinIO_testReadN
 250              		.section	.text._ZN8UnitTest15MemoryOutStreamD1Ev,"axG",@progbits,_ZN8UnitTest15MemoryOutStreamD1Ev
 251              		.align 2
 252              		.p2align 4
 253              		.weak	_ZN8UnitTest15MemoryOutStreamD1Ev
 255              	_ZN8UnitTest15MemoryOutStreamD1Ev:
 256              	.LFB1349:
 257              		.cfi_startproc
 258 0000 F30F1EFA 		endbr64
 259 0004 55       		pushq	%rbp
 260              		.cfi_def_cfa_offset 16
 261              		.cfi_offset 6, -16
 262 0005 488D0500 		leaq	24+_ZTVN8UnitTest15MemoryOutStreamE(%rip), %rax
 262      000000
 263 000c 53       		pushq	%rbx
 264              		.cfi_def_cfa_offset 24
 265              		.cfi_offset 3, -24
 266 000d 4889FB   		movq	%rdi, %rbx
 267 0010 4883EC08 		subq	$8, %rsp
 268              		.cfi_def_cfa_offset 32
 269 0014 488907   		movq	%rax, (%rdi)
 270 0017 4883C028 		addq	$40, %rax
 271 001b 48898790 		movq	%rax, 144(%rdi)
 271      000000
 272 0022 488B7F70 		movq	112(%rdi), %rdi
 273 0026 488D8380 		leaq	128(%rbx), %rax
 273      000000
 274 002d 4839C7   		cmpq	%rax, %rdi
 275 0030 7405     		je	.L18
 276 0032 E8000000 		call	_ZdlPv@PLT
 276      00
 277              	.L18:
 278 0037 488D0500 		leaq	64+_ZTCN8UnitTest15MemoryOutStreamE0_NSt7__cxx1119basic_ostringstreamIcSt11char_traitsIcESaIc
 278      000000
 279 003e 488D1500 		leaq	24+_ZTCN8UnitTest15MemoryOutStreamE0_NSt7__cxx1119basic_ostringstreamIcSt11char_traitsIcESaIc
 279      000000
 280 0045 488B7B50 		movq	80(%rbx), %rdi
 281 0049 48898390 		movq	%rax, 144(%rbx)
 281      000000
 282 0050 488D0500 		leaq	16+_ZTVNSt7__cxx1115basic_stringbufIcSt11char_traitsIcESaIcEEE(%rip), %rax
 282      000000
 283 0057 66480F6E 		movq	%rdx, %xmm0
 283      C2
 284 005c 488DAB90 		leaq	144(%rbx), %rbp
 284      000000
 285 0063 66480F6E 		movq	%rax, %xmm1
 285      C8
 286 0068 488D4360 		leaq	96(%rbx), %rax
 287 006c 660F6CC1 		punpcklqdq	%xmm1, %xmm0
 288 0070 0F1103   		movups	%xmm0, (%rbx)
 289 0073 4839C7   		cmpq	%rax, %rdi
 290 0076 7405     		je	.L19
 291 0078 E8000000 		call	_ZdlPv@PLT
 291      00
 292              	.L19:
 293 007d 488D0500 		leaq	16+_ZTVSt15basic_streambufIcSt11char_traitsIcEE(%rip), %rax
 293      000000
 294 0084 488D7B40 		leaq	64(%rbx), %rdi
 295 0088 48894308 		movq	%rax, 8(%rbx)
 296 008c E8000000 		call	_ZNSt6localeD1Ev@PLT
 296      00
 297 0091 488D0500 		leaq	24+_ZTCN8UnitTest15MemoryOutStreamE0_So(%rip), %rax
 297      000000
 298 0098 4889EF   		movq	%rbp, %rdi
 299 009b 488903   		movq	%rax, (%rbx)
 300 009e 488D0500 		leaq	16+_ZTVSt9basic_iosIcSt11char_traitsIcEE(%rip), %rax
 300      000000
 301 00a5 48898390 		movq	%rax, 144(%rbx)
 301      000000
 302 00ac 4883C408 		addq	$8, %rsp
 303              		.cfi_def_cfa_offset 24
 304 00b0 5B       		popq	%rbx
 305              		.cfi_def_cfa_offset 16
 306 00b1 5D       		popq	%rbp
 307              		.cfi_def_cfa_offset 8
 308 00b2 E9000000 		jmp	_ZNSt8ios_baseD2Ev@PLT
 308      00
 309              		.cfi_endproc
 310              	.LFE1349:
 312 00b7 660F1F84 		.p2align 4
 312      00000000 
 312      00
 313              		.weak	_ZTv0_n24_N8UnitTest15MemoryOutStreamD1Ev
 315              	_ZTv0_n24_N8UnitTest15MemoryOutStreamD1Ev:
 316              	.LFB1464:
 317              		.cfi_startproc
 318 00c0 F30F1EFA 		endbr64
 319 00c4 55       		pushq	%rbp
 320              		.cfi_def_cfa_offset 16
 321              		.cfi_offset 6, -16
 322 00c5 53       		pushq	%rbx
 323              		.cfi_def_cfa_offset 24
 324              		.cfi_offset 3, -24
 325 00c6 4889FB   		movq	%rdi, %rbx
 326 00c9 4883EC08 		subq	$8, %rsp
 327              		.cfi_def_cfa_offset 32
 328 00cd 488B07   		movq	(%rdi), %rax
 329 00d0 480358E8 		addq	-24(%rax), %rbx
 330 00d4 488D0500 		leaq	24+_ZTVN8UnitTest15MemoryOutStreamE(%rip), %rax
 330      000000
 331 00db 488903   		movq	%rax, (%rbx)
 332 00de 488B7B70 		movq	112(%rbx), %rdi
 333 00e2 4883C028 		addq	$40, %rax
 334 00e6 48898390 		movq	%rax, 144(%rbx)
 334      000000
 335 00ed 488D8380 		leaq	128(%rbx), %rax
 335      000000
 336 00f4 4839C7   		cmpq	%rax, %rdi
 337 00f7 7405     		je	.L22
 338 00f9 E8000000 		call	_ZdlPv@PLT
 338      00
 339              	.L22:
 340 00fe 488D0500 		leaq	64+_ZTCN8UnitTest15MemoryOutStreamE0_NSt7__cxx1119basic_ostringstreamIcSt11char_traitsIcESaIc
 340      000000
 341 0105 488D1500 		leaq	24+_ZTCN8UnitTest15MemoryOutStreamE0_NSt7__cxx1119basic_ostringstreamIcSt11char_traitsIcESaIc
 341      000000
 342 010c 488B7B50 		movq	80(%rbx), %rdi
 343 0110 48898390 		movq	%rax, 144(%rbx)
 343      000000
 344 0117 488D0500 		leaq	16+_ZTVNSt7__cxx1115basic_stringbufIcSt11char_traitsIcESaIcEEE(%rip), %rax
 344      000000
 345 011e 66480F6E 		movq	%rdx, %xmm0
 345      C2
 346 0123 488DAB90 		leaq	144(%rbx), %rbp
 346      000000
 347 012a 66480F6E 		movq	%rax, %xmm1
 347      C8
 348 012f 488D4360 		leaq	96(%rbx), %rax
 349 0133 660F6CC1 		punpcklqdq	%xmm1, %xmm0
 350 0137 0F1103   		movups	%xmm0, (%rbx)
 351 013a 4839C7   		cmpq	%rax, %rdi
 352 013d 7405     		je	.L23
 353 013f E8000000 		call	_ZdlPv@PLT
 353      00
 354              	.L23:
 355 0144 488D0500 		leaq	16+_ZTVSt15basic_streambufIcSt11char_traitsIcEE(%rip), %rax
 355      000000
 356 014b 488D7B40 		leaq	64(%rbx), %rdi
 357 014f 48894308 		movq	%rax, 8(%rbx)
 358 0153 E8000000 		call	_ZNSt6localeD1Ev@PLT
 358      00
 359 0158 488D0500 		leaq	24+_ZTCN8UnitTest15MemoryOutStreamE0_So(%rip), %rax
 359      000000
 360 015f 4889EF   		movq	%rbp, %rdi
 361 0162 488903   		movq	%rax, (%rbx)
 362 0165 488D0500 		leaq	16+_ZTVSt9basic_iosIcSt11char_traitsIcEE(%rip), %rax
 362      000000
 363 016c 48898390 		movq	%rax, 144(%rbx)
 363      000000
 364 0173 4883C408 		addq	$8, %rsp
 365              		.cfi_def_cfa_offset 24
 366 0177 5B       		popq	%rbx
 367              		.cfi_def_cfa_offset 16
 368 0178 5D       		popq	%rbp
 369              		.cfi_def_cfa_offset 8
 370 0179 E9000000 		jmp	_ZNSt8ios_baseD2Ev@PLT
 370      00
 371              		.cfi_endproc
 372              	.LFE1464:
 374              		.section	.text._ZN8UnitTest15MemoryOutStreamD0Ev,"axG",@progbits,_ZN8UnitTest15MemoryOutStreamD0Ev
 375              		.align 2
 376              		.p2align 4
 377              		.weak	_ZN8UnitTest15MemoryOutStreamD0Ev
 379              	_ZN8UnitTest15MemoryOutStreamD0Ev:
 380              	.LFB1350:
 381              		.cfi_startproc
 382              		.cfi_personality 0x9b,DW.ref.__gxx_personality_v0
 383              		.cfi_lsda 0x1b,.LLSDA1350
 384 0000 F30F1EFA 		endbr64
 385 0004 4154     		pushq	%r12
 386              		.cfi_def_cfa_offset 16
 387              		.cfi_offset 12, -16
 388 0006 488D0500 		leaq	24+_ZTVN8UnitTest15MemoryOutStreamE(%rip), %rax
 388      000000
 389 000d 55       		pushq	%rbp
 390              		.cfi_def_cfa_offset 24
 391              		.cfi_offset 6, -24
 392 000e 4889FD   		movq	%rdi, %rbp
 393 0011 4883EC08 		subq	$8, %rsp
 394              		.cfi_def_cfa_offset 32
 395 0015 488907   		movq	%rax, (%rdi)
 396 0018 4883C028 		addq	$40, %rax
 397 001c 48898790 		movq	%rax, 144(%rdi)
 397      000000
 398 0023 488B7F70 		movq	112(%rdi), %rdi
 399 0027 488D8580 		leaq	128(%rbp), %rax
 399      000000
 400 002e 4839C7   		cmpq	%rax, %rdi
 401 0031 7405     		je	.L26
 402 0033 E8000000 		call	_ZdlPv@PLT
 402      00
 403              	.L26:
 404 0038 488D0500 		leaq	64+_ZTCN8UnitTest15MemoryOutStreamE0_NSt7__cxx1119basic_ostringstreamIcSt11char_traitsIcESaIc
 404      000000
 405 003f 488D1500 		leaq	24+_ZTCN8UnitTest15MemoryOutStreamE0_NSt7__cxx1119basic_ostringstreamIcSt11char_traitsIcESaIc
 405      000000
 406 0046 488B7D50 		movq	80(%rbp), %rdi
 407 004a 48898590 		movq	%rax, 144(%rbp)
 407      000000
 408 0051 488D0500 		leaq	16+_ZTVNSt7__cxx1115basic_stringbufIcSt11char_traitsIcESaIcEEE(%rip), %rax
 408      000000
 409 0058 66480F6E 		movq	%rdx, %xmm0
 409      C2
 410 005d 4C8DA590 		leaq	144(%rbp), %r12
 410      000000
 411 0064 66480F6E 		movq	%rax, %xmm1
 411      C8
 412 0069 488D4560 		leaq	96(%rbp), %rax
 413 006d 660F6CC1 		punpcklqdq	%xmm1, %xmm0
 414 0071 0F114500 		movups	%xmm0, 0(%rbp)
 415 0075 4839C7   		cmpq	%rax, %rdi
 416 0078 7405     		je	.L27
 417 007a E8000000 		call	_ZdlPv@PLT
 417      00
 418              	.L27:
 419 007f 488D0500 		leaq	16+_ZTVSt15basic_streambufIcSt11char_traitsIcEE(%rip), %rax
 419      000000
 420 0086 488D7D40 		leaq	64(%rbp), %rdi
 421 008a 48894508 		movq	%rax, 8(%rbp)
 422 008e E8000000 		call	_ZNSt6localeD1Ev@PLT
 422      00
 423 0093 488D0500 		leaq	24+_ZTCN8UnitTest15MemoryOutStreamE0_So(%rip), %rax
 423      000000
 424 009a 4C89E7   		movq	%r12, %rdi
 425 009d 48894500 		movq	%rax, 0(%rbp)
 426 00a1 488D0500 		leaq	16+_ZTVSt9basic_iosIcSt11char_traitsIcEE(%rip), %rax
 426      000000
 427 00a8 48898590 		movq	%rax, 144(%rbp)
 427      000000
 428              	.LEHB6:
 429 00af E8000000 		call	_ZNSt8ios_baseD2Ev@PLT
 429      00
 430              	.LEHE6:
 431 00b4 4883C408 		addq	$8, %rsp
 432              		.cfi_remember_state
 433              		.cfi_def_cfa_offset 24
 434 00b8 4889EF   		movq	%rbp, %rdi
 435 00bb 5D       		popq	%rbp
 436              		.cfi_def_cfa_offset 16
 437 00bc 415C     		popq	%r12
 438              		.cfi_def_cfa_offset 8
 439 00be E9000000 		jmp	_ZdlPv@PLT
 439      00
 440              	.L29:
 441              		.cfi_restore_state
 442 00c3 F30F1EFA 		endbr64
 443 00c7 4989C4   		movq	%rax, %r12
 444              	.L28:
 445 00ca 4889EF   		movq	%rbp, %rdi
 446 00cd E8000000 		call	_ZdlPv@PLT
 446      00
 447 00d2 4C89E7   		movq	%r12, %rdi
 448              	.LEHB7:
 449 00d5 E8000000 		call	_Unwind_Resume@PLT
 449      00
 450              	.LEHE7:
 451              		.cfi_endproc
 452              	.LFE1350:
 453              		.section	.gcc_except_table._ZN8UnitTest15MemoryOutStreamD0Ev,"aG",@progbits,_ZN8UnitTest15MemoryOu
 454              	.LLSDA1350:
 455 0000 FF       		.byte	0xff
 456 0001 FF       		.byte	0xff
 457 0002 01       		.byte	0x1
 458 0003 0B       		.uleb128 .LLSDACSE1350-.LLSDACSB1350
 459              	.LLSDACSB1350:
 460 0004 AF01     		.uleb128 .LEHB6-.LFB1350
 461 0006 05       		.uleb128 .LEHE6-.LEHB6
 462 0007 C301     		.uleb128 .L29-.LFB1350
 463 0009 00       		.uleb128 0
 464 000a D501     		.uleb128 .LEHB7-.LFB1350
 465 000c 05       		.uleb128 .LEHE7-.LEHB7
 466 000d 00       		.uleb128 0
 467 000e 00       		.uleb128 0
 468              	.LLSDACSE1350:
 469              		.section	.text._ZN8UnitTest15MemoryOutStreamD0Ev,"axG",@progbits,_ZN8UnitTest15MemoryOutStreamD0Ev
 471 00da 660F1F44 		.p2align 4
 471      0000
 472              		.weak	_ZTv0_n24_N8UnitTest15MemoryOutStreamD0Ev
 474              	_ZTv0_n24_N8UnitTest15MemoryOutStreamD0Ev:
 475              	.LFB1463:
 476              		.cfi_startproc
 477              		.cfi_personality 0x9b,DW.ref.__gxx_personality_v0
 478              		.cfi_lsda 0x1b,.LLSDA1463
 479 00e0 F30F1EFA 		endbr64
 480 00e4 4154     		pushq	%r12
 481              		.cfi_def_cfa_offset 16
 482              		.cfi_offset 12, -16
 483 00e6 55       		pushq	%rbp
 484              		.cfi_def_cfa_offset 24
 485              		.cfi_offset 6, -24
 486 00e7 4889FD   		movq	%rdi, %rbp
 487 00ea 4883EC08 		subq	$8, %rsp
 488              		.cfi_def_cfa_offset 32
 489 00ee 488B07   		movq	(%rdi), %rax
 490 00f1 480368E8 		addq	-24(%rax), %rbp
 491 00f5 488D0500 		leaq	24+_ZTVN8UnitTest15MemoryOutStreamE(%rip), %rax
 491      000000
 492 00fc 48894500 		movq	%rax, 0(%rbp)
 493 0100 488B7D70 		movq	112(%rbp), %rdi
 494 0104 4883C028 		addq	$40, %rax
 495 0108 48898590 		movq	%rax, 144(%rbp)
 495      000000
 496 010f 488D8580 		leaq	128(%rbp), %rax
 496      000000
 497 0116 4839C7   		cmpq	%rax, %rdi
 498 0119 7405     		je	.L32
 499 011b E8000000 		call	_ZdlPv@PLT
 499      00
 500              	.L32:
 501 0120 488D0500 		leaq	64+_ZTCN8UnitTest15MemoryOutStreamE0_NSt7__cxx1119basic_ostringstreamIcSt11char_traitsIcESaIc
 501      000000
 502 0127 488D1500 		leaq	24+_ZTCN8UnitTest15MemoryOutStreamE0_NSt7__cxx1119basic_ostringstreamIcSt11char_traitsIcESaIc
 502      000000
 503 012e 488B7D50 		movq	80(%rbp), %rdi
 504 0132 48898590 		movq	%rax, 144(%rbp)
 504      000000
 505 0139 488D0500 		leaq	16+_ZTVNSt7__cxx1115basic_stringbufIcSt11char_traitsIcESaIcEEE(%rip), %rax
 505      000000
 506 0140 66480F6E 		movq	%rdx, %xmm0
 506      C2
 507 0145 4C8DA590 		leaq	144(%rbp), %r12
 507      000000
 508 014c 66480F6E 		movq	%rax, %xmm1
 508      C8
 509 0151 488D4560 		leaq	96(%rbp), %rax
 510 0155 660F6CC1 		punpcklqdq	%xmm1, %xmm0
 511 0159 0F114500 		movups	%xmm0, 0(%rbp)
 512 015d 4839C7   		cmpq	%rax, %rdi
 513 0160 7405     		je	.L33
 514 0162 E8000000 		call	_ZdlPv@PLT
 514      00
 515              	.L33:
 516 0167 488D0500 		leaq	16+_ZTVSt15basic_streambufIcSt11char_traitsIcEE(%rip), %rax
 516      000000
 517 016e 488D7D40 		leaq	64(%rbp), %rdi
 518 0172 48894508 		movq	%rax, 8(%rbp)
 519 0176 E8000000 		call	_ZNSt6localeD1Ev@PLT
 519      00
 520 017b 488D0500 		leaq	24+_ZTCN8UnitTest15MemoryOutStreamE0_So(%rip), %rax
 520      000000
 521 0182 4C89E7   		movq	%r12, %rdi
 522 0185 48894500 		movq	%rax, 0(%rbp)
 523 0189 488D0500 		leaq	16+_ZTVSt9basic_iosIcSt11char_traitsIcEE(%rip), %rax
 523      000000
 524 0190 48898590 		movq	%rax, 144(%rbp)
 524      000000
 525              	.LEHB8:
 526 0197 E8000000 		call	_ZNSt8ios_baseD2Ev@PLT
 526      00
 527              	.LEHE8:
 528 019c 4883C408 		addq	$8, %rsp
 529              		.cfi_remember_state
 530              		.cfi_def_cfa_offset 24
 531 01a0 4889EF   		movq	%rbp, %rdi
 532 01a3 5D       		popq	%rbp
 533              		.cfi_def_cfa_offset 16
 534 01a4 415C     		popq	%r12
 535              		.cfi_def_cfa_offset 8
 536 01a6 E9000000 		jmp	_ZdlPv@PLT
 536      00
 537              	.L35:
 538              		.cfi_restore_state
 539 01ab F30F1EFA 		endbr64
 540 01af 4989C4   		movq	%rax, %r12
 541              	.L34:
 542 01b2 4889EF   		movq	%rbp, %rdi
 543 01b5 E8000000 		call	_ZdlPv@PLT
 543      00
 544 01ba 4C89E7   		movq	%r12, %rdi
 545              	.LEHB9:
 546 01bd E8000000 		call	_Unwind_Resume@PLT
 546      00
 547              	.LEHE9:
 548              		.cfi_endproc
 549              	.LFE1463:
 550              		.section	.gcc_except_table._ZTv0_n24_N8UnitTest15MemoryOutStreamD0Ev,"aG",@progbits,_ZN8UnitTest15
 551              	.LLSDA1463:
 552 0000 FF       		.byte	0xff
 553 0001 FF       		.byte	0xff
 554 0002 01       		.byte	0x1
 555 0003 0B       		.uleb128 .LLSDACSE1463-.LLSDACSB1463
 556              	.LLSDACSB1463:
 557 0004 B701     		.uleb128 .LEHB8-.LFB1463
 558 0006 05       		.uleb128 .LEHE8-.LEHB8
 559 0007 CB01     		.uleb128 .L35-.LFB1463
 560 0009 00       		.uleb128 0
 561 000a DD01     		.uleb128 .LEHB9-.LFB1463
 562 000c 05       		.uleb128 .LEHE9-.LEHB9
 563 000d 00       		.uleb128 0
 564 000e 00       		.uleb128 0
 565              	.LLSDACSE1463:
 566              		.section	.text._ZN8UnitTest15MemoryOutStreamD0Ev,"axG",@progbits,_ZN8UnitTest15MemoryOutStreamD0Ev
 568              		.section	.text._ZNSt7__cxx1115basic_stringbufIcSt11char_traitsIcESaIcEED2Ev,"axG",@progbits,_ZNSt7
 569              		.align 2
 570              		.p2align 4
 571              		.weak	_ZNSt7__cxx1115basic_stringbufIcSt11char_traitsIcESaIcEED2Ev
 573              	_ZNSt7__cxx1115basic_stringbufIcSt11char_traitsIcESaIcEED2Ev:
 574              	.LFB1328:
 575              		.cfi_startproc
 576 0000 F30F1EFA 		endbr64
 577 0004 488D0500 		leaq	16+_ZTVNSt7__cxx1115basic_stringbufIcSt11char_traitsIcESaIcEEE(%rip), %rax
 577      000000
 578 000b 53       		pushq	%rbx
 579              		.cfi_def_cfa_offset 16
 580              		.cfi_offset 3, -16
 581 000c 4889FB   		movq	%rdi, %rbx
 582 000f 488907   		movq	%rax, (%rdi)
 583 0012 488B7F48 		movq	72(%rdi), %rdi
 584 0016 488D4358 		leaq	88(%rbx), %rax
 585 001a 4839C7   		cmpq	%rax, %rdi
 586 001d 7405     		je	.L38
 587 001f E8000000 		call	_ZdlPv@PLT
 587      00
 588              	.L38:
 589 0024 488D0500 		leaq	16+_ZTVSt15basic_streambufIcSt11char_traitsIcEE(%rip), %rax
 589      000000
 590 002b 488D7B38 		leaq	56(%rbx), %rdi
 591 002f 488903   		movq	%rax, (%rbx)
 592 0032 5B       		popq	%rbx
 593              		.cfi_def_cfa_offset 8
 594 0033 E9000000 		jmp	_ZNSt6localeD1Ev@PLT
 594      00
 595              		.cfi_endproc
 596              	.LFE1328:
 598              		.weak	_ZNSt7__cxx1115basic_stringbufIcSt11char_traitsIcESaIcEED1Ev
 599              		.set	_ZNSt7__cxx1115basic_stringbufIcSt11char_traitsIcESaIcEED1Ev,_ZNSt7__cxx1115basic_stringbufIc
 600              		.section	.text._ZNSt7__cxx1115basic_stringbufIcSt11char_traitsIcESaIcEED0Ev,"axG",@progbits,_ZNSt7
 601              		.align 2
 602              		.p2align 4
 603              		.weak	_ZNSt7__cxx1115basic_stringbufIcSt11char_traitsIcESaIcEED0Ev
 605              	_ZNSt7__cxx1115basic_stringbufIcSt11char_traitsIcESaIcEED0Ev:
 606              	.LFB1330:
 607              		.cfi_startproc
 608 0000 F30F1EFA 		endbr64
 609 0004 488D0500 		leaq	16+_ZTVNSt7__cxx1115basic_stringbufIcSt11char_traitsIcESaIcEEE(%rip), %rax
 609      000000
 610 000b 55       		pushq	%rbp
 611              		.cfi_def_cfa_offset 16
 612              		.cfi_offset 6, -16
 613 000c 4889FD   		movq	%rdi, %rbp
 614 000f 488907   		movq	%rax, (%rdi)
 615 0012 488B7F48 		movq	72(%rdi), %rdi
 616 0016 488D4558 		leaq	88(%rbp), %rax
 617 001a 4839C7   		cmpq	%rax, %rdi
 618 001d 7405     		je	.L41
 619 001f E8000000 		call	_ZdlPv@PLT
 619      00
 620              	.L41:
 621 0024 488D0500 		leaq	16+_ZTVSt15basic_streambufIcSt11char_traitsIcEE(%rip), %rax
 621      000000
 622 002b 488D7D38 		leaq	56(%rbp), %rdi
 623 002f 48894500 		movq	%rax, 0(%rbp)
 624 0033 E8000000 		call	_ZNSt6localeD1Ev@PLT
 624      00
 625 0038 4889EF   		movq	%rbp, %rdi
 626 003b 5D       		popq	%rbp
 627              		.cfi_def_cfa_offset 8
 628 003c E9000000 		jmp	_ZdlPv@PLT
 628      00
 629              		.cfi_endproc
 630              	.LFE1330:
 632              		.section	.rodata._ZN8UnitTest10CheckEqualI12BufferStatusS1_EEvRNS_11TestResultsERKT_RKT0_RKNS_11Te
 633              	.LC0:
 634 0000 45787065 		.string	"Expected "
 634      63746564 
 634      2000
 635              	.LC1:
 636 000a 20627574 		.string	" but was "
 636      20776173 
 636      2000
 637              		.section	.text._ZN8UnitTest10CheckEqualI12BufferStatusS1_EEvRNS_11TestResultsERKT_RKT0_RKNS_11Test
 638              		.p2align 4
 639              		.weak	_ZN8UnitTest10CheckEqualI12BufferStatusS1_EEvRNS_11TestResultsERKT_RKT0_RKNS_11TestDetailsE
 641              	_ZN8UnitTest10CheckEqualI12BufferStatusS1_EEvRNS_11TestResultsERKT_RKT0_RKNS_11TestDetailsE:
 642              	.LFB1346:
 643              		.cfi_startproc
 644              		.cfi_personality 0x9b,DW.ref.__gxx_personality_v0
 645              		.cfi_lsda 0x1b,.LLSDA1346
 646 0000 F30F1EFA 		endbr64
 647 0004 4157     		pushq	%r15
 648              		.cfi_def_cfa_offset 16
 649              		.cfi_offset 15, -16
 650 0006 4156     		pushq	%r14
 651              		.cfi_def_cfa_offset 24
 652              		.cfi_offset 14, -24
 653 0008 4155     		pushq	%r13
 654              		.cfi_def_cfa_offset 32
 655              		.cfi_offset 13, -32
 656 000a 4154     		pushq	%r12
 657              		.cfi_def_cfa_offset 40
 658              		.cfi_offset 12, -40
 659 000c 55       		pushq	%rbp
 660              		.cfi_def_cfa_offset 48
 661              		.cfi_offset 6, -48
 662 000d 53       		pushq	%rbx
 663              		.cfi_def_cfa_offset 56
 664              		.cfi_offset 3, -56
 665 000e 4881ECD8 		subq	$472, %rsp
 665      010000
 666              		.cfi_def_cfa_offset 528
 667 0015 F30F7E0D 		movq	.LC2(%rip), %xmm1
 667      00000000 
 668 001d 48897C24 		movq	%rdi, 16(%rsp)
 668      10
 669 0022 48894C24 		movq	%rcx, 24(%rsp)
 669      18
 670 0027 0F160D00 		movhps	.LC3(%rip), %xmm1
 670      000000
 671 002e 64488B04 		movq	%fs:40, %rax
 671      25280000 
 671      00
 672 0037 48898424 		movq	%rax, 456(%rsp)
 672      C8010000 
 673 003f 31C0     		xorl	%eax, %eax
 674 0041 8B02     		movl	(%rdx), %eax
 675 0043 0F290C24 		movaps	%xmm1, (%rsp)
 676 0047 3906     		cmpl	%eax, (%rsi)
 677 0049 752D     		jne	.L59
 678              	.L43:
 679 004b 488B8424 		movq	456(%rsp), %rax
 679      C8010000 
 680 0053 64482B04 		subq	%fs:40, %rax
 680      25280000 
 680      00
 681 005c 0F854B02 		jne	.L60
 681      0000
 682 0062 4881C4D8 		addq	$472, %rsp
 682      010000
 683              		.cfi_remember_state
 684              		.cfi_def_cfa_offset 56
 685 0069 5B       		popq	%rbx
 686              		.cfi_def_cfa_offset 48
 687 006a 5D       		popq	%rbp
 688              		.cfi_def_cfa_offset 40
 689 006b 415C     		popq	%r12
 690              		.cfi_def_cfa_offset 32
 691 006d 415D     		popq	%r13
 692              		.cfi_def_cfa_offset 24
 693 006f 415E     		popq	%r14
 694              		.cfi_def_cfa_offset 16
 695 0071 415F     		popq	%r15
 696              		.cfi_def_cfa_offset 8
 697 0073 C3       		ret
 698              		.p2align 4,,10
 699 0074 0F1F4000 		.p2align 3
 700              	.L59:
 701              		.cfi_restore_state
 702 0078 4C8DAC24 		leaq	192(%rsp), %r13
 702      C0000000 
 703 0080 4889F5   		movq	%rsi, %rbp
 704 0083 4889D3   		movq	%rdx, %rbx
 705 0086 4C89EF   		movq	%r13, %rdi
 706 0089 E8000000 		call	_ZNSt8ios_baseC2Ev@PLT
 706      00
 707 008e 31C0     		xorl	%eax, %eax
 708 0090 660FEFC0 		pxor	%xmm0, %xmm0
 709 0094 31F6     		xorl	%esi, %esi
 710 0096 66898424 		movw	%ax, 416(%rsp)
 710      A0010000 
 711 009e 488D0500 		leaq	24+_ZTCN8UnitTest15MemoryOutStreamE0_So(%rip), %rax
 711      000000
 712 00a5 4C89EF   		movq	%r13, %rdi
 713 00a8 48894424 		movq	%rax, 48(%rsp)
 713      30
 714 00ad 4883C028 		addq	$40, %rax
 715 00b1 48C78424 		movq	$0, 408(%rsp)
 715      98010000 
 715      00000000 
 716 00bd 48898424 		movq	%rax, 192(%rsp)
 716      C0000000 
 717 00c5 0F118424 		movups	%xmm0, 424(%rsp)
 717      A8010000 
 718 00cd 0F118424 		movups	%xmm0, 440(%rsp)
 718      B8010000 
 719              	.LEHB10:
 720 00d5 E8000000 		call	_ZNSt9basic_iosIcSt11char_traitsIcEE4initEPSt15basic_streambufIcS1_E@PLT
 720      00
 721              	.LEHE10:
 722 00da 660F6F0C 		movdqa	(%rsp), %xmm1
 722      24
 723 00df 4C8D7424 		leaq	112(%rsp), %r14
 723      70
 724 00e4 660FEFC0 		pxor	%xmm0, %xmm0
 725 00e8 488D0500 		leaq	64+_ZTCN8UnitTest15MemoryOutStreamE0_NSt7__cxx1119basic_ostringstreamIcSt11char_traitsIcESaIc
 725      000000
 726 00ef 4C89F7   		movq	%r14, %rdi
 727 00f2 0F294424 		movaps	%xmm0, 64(%rsp)
 727      40
 728 00f7 4C8D6424 		leaq	48(%rsp), %r12
 728      30
 729 00fc 4C8D7C24 		leaq	56(%rsp), %r15
 729      38
 730 0101 48898424 		movq	%rax, 192(%rsp)
 730      C0000000 
 731 0109 0F294C24 		movaps	%xmm1, 48(%rsp)
 731      30
 732 010e 0F294424 		movaps	%xmm0, 80(%rsp)
 732      50
 733 0113 0F294424 		movaps	%xmm0, 96(%rsp)
 733      60
 734 0118 E8000000 		call	_ZNSt6localeC1Ev@PLT
 734      00
 735 011d 488D0500 		leaq	16+_ZTVNSt7__cxx1115basic_stringbufIcSt11char_traitsIcESaIcEEE(%rip), %rax
 735      000000
 736 0124 4C89FE   		movq	%r15, %rsi
 737 0127 48C78424 		movq	$0, 136(%rsp)
 737      88000000 
 737      00000000 
 738 0133 48894424 		movq	%rax, 56(%rsp)
 738      38
 739 0138 488D8424 		leaq	144(%rsp), %rax
 739      90000000 
 740 0140 48894424 		movq	%rax, 32(%rsp)
 740      20
 741 0145 48898424 		movq	%rax, 128(%rsp)
 741      80000000 
 742 014d 488B4424 		movq	48(%rsp), %rax
 742      30
 743 0152 C6842490 		movb	$0, 144(%rsp)
 743      00000000 
 744 015a 488B78E8 		movq	-24(%rax), %rdi
 745 015e C7442478 		movl	$16, 120(%rsp)
 745      10000000 
 746 0166 4C01E7   		addq	%r12, %rdi
 747              	.LEHB11:
 748 0169 E8000000 		call	_ZNSt9basic_iosIcSt11char_traitsIcEE4initEPSt15basic_streambufIcS1_E@PLT
 748      00
 749              	.LEHE11:
 750 016e 4C8D3D00 		leaq	24+_ZTVN8UnitTest15MemoryOutStreamE(%rip), %r15
 750      000000
 751 0175 BA090000 		movl	$9, %edx
 751      00
 752 017a 4C89E7   		movq	%r12, %rdi
 753 017d 48C78424 		movq	$0, 168(%rsp)
 753      A8000000 
 753      00000000 
 754 0189 498D4728 		leaq	40(%r15), %rax
 755 018d 488D3500 		leaq	.LC0(%rip), %rsi
 755      000000
 756 0194 4C897C24 		movq	%r15, 48(%rsp)
 756      30
 757 0199 48898424 		movq	%rax, 192(%rsp)
 757      C0000000 
 758 01a1 488D8424 		leaq	176(%rsp), %rax
 758      B0000000 
 759 01a9 48894424 		movq	%rax, 40(%rsp)
 759      28
 760 01ae 48898424 		movq	%rax, 160(%rsp)
 760      A0000000 
 761 01b6 C68424B0 		movb	$0, 176(%rsp)
 761      00000000 
 762              	.LEHB12:
 763 01be E8000000 		call	_ZSt16__ostream_insertIcSt11char_traitsIcEERSt13basic_ostreamIT_T0_ES6_PKS3_l@PLT
 763      00
 764 01c3 8B7500   		movl	0(%rbp), %esi
 765 01c6 4C89E7   		movq	%r12, %rdi
 766 01c9 E8000000 		call	_ZNSolsEi@PLT
 766      00
 767 01ce BA090000 		movl	$9, %edx
 767      00
 768 01d3 488D3500 		leaq	.LC1(%rip), %rsi
 768      000000
 769 01da 4889C7   		movq	%rax, %rdi
 770 01dd 4889C5   		movq	%rax, %rbp
 771 01e0 E8000000 		call	_ZSt16__ostream_insertIcSt11char_traitsIcEERSt13basic_ostreamIT_T0_ES6_PKS3_l@PLT
 771      00
 772 01e5 8B33     		movl	(%rbx), %esi
 773 01e7 4889EF   		movq	%rbp, %rdi
 774 01ea E8000000 		call	_ZNSolsEi@PLT
 774      00
 775 01ef 4C89E7   		movq	%r12, %rdi
 776 01f2 E8000000 		call	_ZNK8UnitTest15MemoryOutStream7GetTextEv@PLT
 776      00
 777 01f7 488B7424 		movq	24(%rsp), %rsi
 777      18
 778 01fc 488B7C24 		movq	16(%rsp), %rdi
 778      10
 779 0201 4889C2   		movq	%rax, %rdx
 780 0204 F30F7E15 		movq	.LC2(%rip), %xmm2
 780      00000000 
 781 020c 0F161500 		movhps	.LC4(%rip), %xmm2
 781      000000
 782 0213 0F291424 		movaps	%xmm2, (%rsp)
 783 0217 E8000000 		call	_ZN8UnitTest11TestResults13OnTestFailureERKNS_11TestDetailsEPKc@PLT
 783      00
 784              	.LEHE12:
 785 021c 488D0500 		leaq	64+_ZTVN8UnitTest15MemoryOutStreamE(%rip), %rax
 785      000000
 786 0223 4C897C24 		movq	%r15, 48(%rsp)
 786      30
 787 0228 488BBC24 		movq	160(%rsp), %rdi
 787      A0000000 
 788 0230 48898424 		movq	%rax, 192(%rsp)
 788      C0000000 
 789 0238 483B7C24 		cmpq	40(%rsp), %rdi
 789      28
 790 023d 7405     		je	.L49
 791 023f E8000000 		call	_ZdlPv@PLT
 791      00
 792              	.L49:
 793 0244 660F6F1C 		movdqa	(%rsp), %xmm3
 793      24
 794 0249 488D0500 		leaq	64+_ZTCN8UnitTest15MemoryOutStreamE0_NSt7__cxx1119basic_ostringstreamIcSt11char_traitsIcESaIc
 794      000000
 795 0250 488BBC24 		movq	128(%rsp), %rdi
 795      80000000 
 796 0258 48898424 		movq	%rax, 192(%rsp)
 796      C0000000 
 797 0260 0F295C24 		movaps	%xmm3, 48(%rsp)
 797      30
 798 0265 483B7C24 		cmpq	32(%rsp), %rdi
 798      20
 799 026a 7405     		je	.L50
 800 026c E8000000 		call	_ZdlPv@PLT
 800      00
 801              	.L50:
 802 0271 488D0500 		leaq	16+_ZTVSt15basic_streambufIcSt11char_traitsIcEE(%rip), %rax
 802      000000
 803 0278 4C89F7   		movq	%r14, %rdi
 804 027b 48894424 		movq	%rax, 56(%rsp)
 804      38
 805 0280 E8000000 		call	_ZNSt6localeD1Ev@PLT
 805      00
 806 0285 488D0500 		leaq	24+_ZTCN8UnitTest15MemoryOutStreamE0_So(%rip), %rax
 806      000000
 807 028c 4C89EF   		movq	%r13, %rdi
 808 028f 48894424 		movq	%rax, 48(%rsp)
 808      30
 809 0294 488D0500 		leaq	16+_ZTVSt9basic_iosIcSt11char_traitsIcEE(%rip), %rax
 809      000000
 810 029b 48898424 		movq	%rax, 192(%rsp)
 810      C0000000 
 811              	.LEHB13:
 812 02a3 E8000000 		call	_ZNSt8ios_baseD2Ev@PLT
 812      00
 813              	.LEHE13:
 814 02a8 E99EFDFF 		jmp	.L43
 814      FF
 815              	.L60:
 816 02ad E8000000 		call	__stack_chk_fail@PLT
 816      00
 817              	.L54:
 818 02b2 F30F1EFA 		endbr64
 819 02b6 4889C5   		movq	%rax, %rbp
 820 02b9 EB26     		jmp	.L47
 821              	.L55:
 822 02bb F30F1EFA 		endbr64
 823 02bf 4889C5   		movq	%rax, %rbp
 824 02c2 EB09     		jmp	.L46
 825              	.L53:
 826 02c4 F30F1EFA 		endbr64
 827 02c8 4889C5   		movq	%rax, %rbp
 828 02cb EB33     		jmp	.L51
 829              	.L46:
 830 02cd 4C89FF   		movq	%r15, %rdi
 831 02d0 E8000000 		call	_ZNSt7__cxx1115basic_stringbufIcSt11char_traitsIcESaIcEED1Ev
 831      00
 832 02d5 488D0500 		leaq	24+_ZTCN8UnitTest15MemoryOutStreamE0_So(%rip), %rax
 832      000000
 833 02dc 48894424 		movq	%rax, 48(%rsp)
 833      30
 834              	.L47:
 835 02e1 488D0500 		leaq	16+_ZTVSt9basic_iosIcSt11char_traitsIcEE(%rip), %rax
 835      000000
 836 02e8 4C89EF   		movq	%r13, %rdi
 837 02eb 48898424 		movq	%rax, 192(%rsp)
 837      C0000000 
 838 02f3 E8000000 		call	_ZNSt8ios_baseD2Ev@PLT
 838      00
 839 02f8 4889EF   		movq	%rbp, %rdi
 840              	.LEHB14:
 841 02fb E8000000 		call	_Unwind_Resume@PLT
 841      00
 842              	.LEHE14:
 843              	.L51:
 844 0300 4C89E7   		movq	%r12, %rdi
 845 0303 E8000000 		call	_ZN8UnitTest15MemoryOutStreamD1Ev
 845      00
 846 0308 4889EF   		movq	%rbp, %rdi
 847              	.LEHB15:
 848 030b E8000000 		call	_Unwind_Resume@PLT
 848      00
 849              	.LEHE15:
 850              		.cfi_endproc
 851              	.LFE1346:
 852              		.section	.gcc_except_table._ZN8UnitTest10CheckEqualI12BufferStatusS1_EEvRNS_11TestResultsERKT_RKT0
 853              	.LLSDA1346:
 854 0000 FF       		.byte	0xff
 855 0001 FF       		.byte	0xff
 856 0002 01       		.byte	0x1
 857 0003 21       		.uleb128 .LLSDACSE1346-.LLSDACSB1346
 858              	.LLSDACSB1346:
 859 0004 D501     		.uleb128 .LEHB10-.LFB1346
 860 0006 05       		.uleb128 .LEHE10-.LEHB10
 861 0007 B205     		.uleb128 .L54-.LFB1346
 862 0009 00       		.uleb128 0
 863 000a E902     		.uleb128 .LEHB11-.LFB1346
 864 000c 05       		.uleb128 .LEHE11-.LEHB11
 865 000d BB05     		.uleb128 .L55-.LFB1346
 866 000f 00       		.uleb128 0
 867 0010 BE03     		.uleb128 .LEHB12-.LFB1346
 868 0012 5E       		.uleb128 .LEHE12-.LEHB12
 869 0013 C405     		.uleb128 .L53-.LFB1346
 870 0015 00       		.uleb128 0
 871 0016 A305     		.uleb128 .LEHB13-.LFB1346
 872 0018 05       		.uleb128 .LEHE13-.LEHB13
 873 0019 00       		.uleb128 0
 874 001a 00       		.uleb128 0
 875 001b FB05     		.uleb128 .LEHB14-.LFB1346
 876 001d 05       		.uleb128 .LEHE14-.LEHB14
 877 001e 00       		.uleb128 0
 878 001f 00       		.uleb128 0
 879 0020 8B06     		.uleb128 .LEHB15-.LFB1346
 880 0022 05       		.uleb128 .LEHE15-.LEHB15
 881 0023 00       		.uleb128 0
 882 0024 00       		.uleb128 0
 883              	.LLSDACSE1346:
 884              		.section	.text._ZN8UnitTest10CheckEqualI12BufferStatusS1_EEvRNS_11TestResultsERKT_RKT0_RKNS_11Test
 886              		.section	.rodata.str1.1,"aMS",@progbits,1
 887              	.LC5:
 888 0000 6E6F6E45 		.string	"nonExistentFile.bin"
 888      78697374 
 888      656E7446 
 888      696C652E 
 888      62696E00 
 889              		.section	.rodata.str1.8,"aMS",@progbits,1
 890              		.align 8
 891              	.LC6:
 892 0000 556E6861 		.string	"Unhandled exception in CHECK_EQUAL(BUF_SUCCESS, status)"
 892      6E646C65 
 892      64206578 
 892      63657074 
 892      696F6E20 
 893              		.align 8
 894              	.LC7:
 895 0038 556E6861 		.string	"Unhandled exception in CHECK_EQUAL(BUF_FOPEN, status)"
 895      6E646C65 
 895      64206578 
 895      63657074 
 895      696F6E20 
 896              		.section	.text.unlikely,"ax",@progbits
 897              		.align 2
 898              	.LCOLDB8:
 899              		.text
 900              	.LHOTB8:
 901              		.align 2
 902              		.p2align 4
 903              		.globl	_ZNK33TestBinIO_testReadNonExistentFile7RunImplEv
 905              	_ZNK33TestBinIO_testReadNonExistentFile7RunImplEv:
 906              	.LFB1310:
 907              		.cfi_startproc
 908              		.cfi_personality 0x9b,DW.ref.__gxx_personality_v0
 909              		.cfi_lsda 0x1b,.LLSDA1310
 910 0000 F30F1EFA 		endbr64
 911 0004 4155     		pushq	%r13
 912              		.cfi_def_cfa_offset 16
 913              		.cfi_offset 13, -16
 914 0006 31C9     		xorl	%ecx, %ecx
 915 0008 31D2     		xorl	%edx, %edx
 916 000a BE080000 		movl	$8, %esi
 916      00
 917 000f 4154     		pushq	%r12
 918              		.cfi_def_cfa_offset 24
 919              		.cfi_offset 12, -24
 920 0011 55       		pushq	%rbp
 921              		.cfi_def_cfa_offset 32
 922              		.cfi_offset 6, -32
 923 0012 4883EC60 		subq	$96, %rsp
 924              		.cfi_def_cfa_offset 128
 925 0016 64488B04 		movq	%fs:40, %rax
 925      25280000 
 925      00
 926 001f 48894424 		movq	%rax, 88(%rsp)
 926      58
 927 0024 31C0     		xorl	%eax, %eax
 928 0026 4C8D6424 		leaq	16(%rsp), %r12
 928      10
 929 002b 4C89E7   		movq	%r12, %rdi
 930              	.LEHB16:
 931 002e E8000000 		call	bufInitialise@PLT
 931      00
 932              	.LEHE16:
 933 0033 89442408 		movl	%eax, 8(%rsp)
 934              	.LEHB17:
 935 0037 E8000000 		call	_ZN8UnitTest11CurrentTest7DetailsEv@PLT
 935      00
 936 003c 488D6C24 		leaq	48(%rsp), %rbp
 936      30
 937 0041 488B30   		movq	(%rax), %rsi
 938 0044 BA1B0000 		movl	$27, %edx
 938      00
 939 0049 4889EF   		movq	%rbp, %rdi
 940 004c E8000000 		call	_ZN8UnitTest11TestDetailsC1ERKS0_i@PLT
 940      00
 941 0051 C744240C 		movl	$0, 12(%rsp)
 941      00000000 
 942 0059 E8000000 		call	_ZN8UnitTest11CurrentTest7ResultsEv@PLT
 942      00
 943 005e 488B38   		movq	(%rax), %rdi
 944 0061 488D5424 		leaq	8(%rsp), %rdx
 944      08
 945 0066 488D7424 		leaq	12(%rsp), %rsi
 945      0C
 946 006b 4889E9   		movq	%rbp, %rcx
 947 006e E8000000 		call	_ZN8UnitTest10CheckEqualI12BufferStatusS1_EEvRNS_11TestResultsERKT_RKT0_RKNS_11TestDetailsE
 947      00
 948              	.LEHE17:
 949              	.L63:
 950 0073 31D2     		xorl	%edx, %edx
 951 0075 488D3500 		leaq	.LC5(%rip), %rsi
 951      000000
 952 007c 4C89E7   		movq	%r12, %rdi
 953              	.LEHB18:
 954 007f E8000000 		call	bufAppendFromBinaryFile@PLT
 954      00
 955              	.LEHE18:
 956 0084 89442408 		movl	%eax, 8(%rsp)
 957              	.LEHB19:
 958 0088 E8000000 		call	_ZN8UnitTest11CurrentTest7DetailsEv@PLT
 958      00
 959 008d 488B30   		movq	(%rax), %rsi
 960 0090 BA1D0000 		movl	$29, %edx
 960      00
 961 0095 4889EF   		movq	%rbp, %rdi
 962 0098 E8000000 		call	_ZN8UnitTest11TestDetailsC1ERKS0_i@PLT
 962      00
 963 009d C744240C 		movl	$2, 12(%rsp)
 963      02000000 
 964 00a5 E8000000 		call	_ZN8UnitTest11CurrentTest7ResultsEv@PLT
 964      00
 965 00aa 488B38   		movq	(%rax), %rdi
 966 00ad 488D5424 		leaq	8(%rsp), %rdx
 966      08
 967 00b2 488D7424 		leaq	12(%rsp), %rsi
 967      0C
 968 00b7 4889E9   		movq	%rbp, %rcx
 969 00ba E8000000 		call	_ZN8UnitTest10CheckEqualI12BufferStatusS1_EEvRNS_11TestResultsERKT_RKT0_RKNS_11TestDetailsE
 969      00
 970              	.LEHE19:
 971              	.L66:
 972 00bf 4C89E7   		movq	%r12, %rdi
 973              	.LEHB20:
 974 00c2 E8000000 		call	bufDestroy@PLT
 974      00
 975              	.LEHE20:
 976 00c7 488B4424 		movq	88(%rsp), %rax
 976      58
 977 00cc 64482B04 		subq	%fs:40, %rax
 977      25280000 
 977      00
 978 00d5 750A     		jne	.L75
 979 00d7 4883C460 		addq	$96, %rsp
 980              		.cfi_remember_state
 981              		.cfi_def_cfa_offset 32
 982 00db 5D       		popq	%rbp
 983              		.cfi_def_cfa_offset 24
 984 00dc 415C     		popq	%r12
 985              		.cfi_def_cfa_offset 16
 986 00de 415D     		popq	%r13
 987              		.cfi_def_cfa_offset 8
 988 00e0 C3       		ret
 989              	.L75:
 990              		.cfi_restore_state
 991 00e1 E8000000 		call	__stack_chk_fail@PLT
 991      00
 992              	.L71:
 993 00e6 F30F1EFA 		endbr64
 994 00ea 4889C7   		movq	%rax, %rdi
 995 00ed E9000000 		jmp	.L65
 995      00
 996              	.L69:
 997 00f2 F30F1EFA 		endbr64
 998 00f6 4889C7   		movq	%rax, %rdi
 999 00f9 E9000000 		jmp	.L62
 999      00
 1000              		.section	.gcc_except_table,"a",@progbits
 1001              		.align 4
 1002              	.LLSDA1310:
 1003 0000 FF       		.byte	0xff
 1004 0001 9B       		.byte	0x9b
 1005 0002 21       		.uleb128 .LLSDATT1310-.LLSDATTD1310
 1006              	.LLSDATTD1310:
 1007 0003 01       		.byte	0x1
 1008 0004 18       		.uleb128 .LLSDACSE1310-.LLSDACSB1310
 1009              	.LLSDACSB1310:
 1010 0005 2E       		.uleb128 .LEHB16-.LFB1310
 1011 0006 05       		.uleb128 .LEHE16-.LEHB16
 1012 0007 00       		.uleb128 0
 1013 0008 00       		.uleb128 0
 1014 0009 37       		.uleb128 .LEHB17-.LFB1310
 1015 000a 3C       		.uleb128 .LEHE17-.LEHB17
 1016 000b F201     		.uleb128 .L69-.LFB1310
 1017 000d 01       		.uleb128 0x1
 1018 000e 7F       		.uleb128 .LEHB18-.LFB1310
 1019 000f 05       		.uleb128 .LEHE18-.LEHB18
 1020 0010 00       		.uleb128 0
 1021 0011 00       		.uleb128 0
 1022 0012 8801     		.uleb128 .LEHB19-.LFB1310
 1023 0014 37       		.uleb128 .LEHE19-.LEHB19
 1024 0015 E601     		.uleb128 .L71-.LFB1310
 1025 0017 01       		.uleb128 0x1
 1026 0018 C201     		.uleb128 .LEHB20-.LFB1310
 1027 001a 05       		.uleb128 .LEHE20-.LEHB20
 1028 001b 00       		.uleb128 0
 1029 001c 00       		.uleb128 0
 1030              	.LLSDACSE1310:
 1031 001d 01       		.byte	0x1
 1032 001e 00       		.byte	0
 1033 001f 00       		.align 4
 1034 0020 00000000 		.long	0
 1035              	
 1036              	.LLSDATT1310:
 1037              		.text
 1038              		.cfi_endproc
 1039              		.section	.text.unlikely
 1040              		.cfi_startproc
 1041              		.cfi_personality 0x9b,DW.ref.__gxx_personality_v0
 1042              		.cfi_lsda 0x1b,.LLSDAC1310
 1044              	_ZNK33TestBinIO_testReadNonExistentFile7RunImplEv.cold:
 1045              	.LFSB1310:
 1046              	.L65:
 1047              		.cfi_def_cfa_offset 128
 1048              		.cfi_offset 6, -32
 1049              		.cfi_offset 12, -24
 1050              		.cfi_offset 13, -16
 1051 0000 E8000000 		call	__cxa_begin_catch@PLT
 1051      00
 1052              	.LEHB21:
 1053 0005 E8000000 		call	_ZN8UnitTest11CurrentTest7ResultsEv@PLT
 1053      00
 1054 000a 4C8B28   		movq	(%rax), %r13
 1055 000d E8000000 		call	_ZN8UnitTest11CurrentTest7DetailsEv@PLT
 1055      00
 1056 0012 488B30   		movq	(%rax), %rsi
 1057 0015 BA1D0000 		movl	$29, %edx
 1057      00
 1058 001a 4889EF   		movq	%rbp, %rdi
 1059 001d E8000000 		call	_ZN8UnitTest11TestDetailsC1ERKS0_i@PLT
 1059      00
 1060 0022 488D1500 		leaq	.LC7(%rip), %rdx
 1060      000000
 1061 0029 4889EE   		movq	%rbp, %rsi
 1062 002c 4C89EF   		movq	%r13, %rdi
 1063 002f E8000000 		call	_ZN8UnitTest11TestResults13OnTestFailureERKNS_11TestDetailsEPKc@PLT
 1063      00
 1064              	.LEHE21:
 1065              	.LEHB22:
 1066 0034 E8000000 		call	__cxa_end_catch@PLT
 1066      00
 1067              	.LEHE22:
 1068 0039 E9000000 		jmp	.L66
 1068      00
 1069              	.L62:
 1070 003e E8000000 		call	__cxa_begin_catch@PLT
 1070      00
 1071              	.LEHB23:
 1072 0043 E8000000 		call	_ZN8UnitTest11CurrentTest7ResultsEv@PLT
 1072      00
 1073 0048 4C8B28   		movq	(%rax), %r13
 1074 004b E8000000 		call	_ZN8UnitTest11CurrentTest7DetailsEv@PLT
 1074      00
 1075 0050 488D6C24 		leaq	48(%rsp), %rbp
 1075      30
 1076 0055 488B30   		movq	(%rax), %rsi
 1077 0058 BA1B0000 		movl	$27, %edx
 1077      00
 1078 005d 4889EF   		movq	%rbp, %rdi
 1079 0060 E8000000 		call	_ZN8UnitTest11TestDetailsC1ERKS0_i@PLT
 1079      00
 1080 0065 488D1500 		leaq	.LC6(%rip), %rdx
 1080      000000
 1081 006c 4889EE   		movq	%rbp, %rsi
 1082 006f 4C89EF   		movq	%r13, %rdi
 1083 0072 E8000000 		call	_ZN8UnitTest11TestResults13OnTestFailureERKNS_11TestDetailsEPKc@PLT
 1083      00
 1084              	.LEHE23:
 1085              	.LEHB24:
 1086 0077 E8000000 		call	__cxa_end_catch@PLT
 1086      00
 1087              	.LEHE24:
 1088 007c E9000000 		jmp	.L63
 1088      00
 1089              	.L72:
 1090 0081 F30F1EFA 		endbr64
 1091 0085 4889C5   		movq	%rax, %rbp
 1092 0088 E8000000 		call	__cxa_end_catch@PLT
 1092      00
 1093 008d 4889EF   		movq	%rbp, %rdi
 1094              	.LEHB25:
 1095 0090 E8000000 		call	_Unwind_Resume@PLT
 1095      00
 1096              	.LEHE25:
 1097              	.L70:
 1098 0095 F30F1EFA 		endbr64
 1099 0099 4889C5   		movq	%rax, %rbp
 1100 009c E8000000 		call	__cxa_end_catch@PLT
 1100      00
 1101 00a1 4889EF   		movq	%rbp, %rdi
 1102              	.LEHB26:
 1103 00a4 E8000000 		call	_Unwind_Resume@PLT
 1103      00
 1104              	.LEHE26:
 1105              		.cfi_endproc
 1106              	.LFE1310:
 1107              		.section	.gcc_except_table
 1108              		.align 4
 1109              	.LLSDAC1310:
 1110 0024 FF       		.byte	0xff
 1111 0025 9B       		.byte	0x9b
 1112 0026 25       		.uleb128 .LLSDATTC1310-.LLSDATTDC1310
 1113              	.LLSDATTDC1310:
 1114 0027 01       		.byte	0x1
 1115 0028 1C       		.uleb128 .LLSDACSEC1310-.LLSDACSBC1310
 1116              	.LLSDACSBC1310:
 1117 0029 05       		.uleb128 .LEHB21-.LCOLDB8
 1118 002a 2F       		.uleb128 .LEHE21-.LEHB21
 1119 002b 8101     		.uleb128 .L72-.LCOLDB8
 1120 002d 00       		.uleb128 0
 1121 002e 34       		.uleb128 .LEHB22-.LCOLDB8
 1122 002f 05       		.uleb128 .LEHE22-.LEHB22
 1123 0030 00       		.uleb128 0
 1124 0031 00       		.uleb128 0
 1125 0032 43       		.uleb128 .LEHB23-.LCOLDB8
 1126 0033 34       		.uleb128 .LEHE23-.LEHB23
 1127 0034 9501     		.uleb128 .L70-.LCOLDB8
 1128 0036 00       		.uleb128 0
 1129 0037 77       		.uleb128 .LEHB24-.LCOLDB8
 1130 0038 05       		.uleb128 .LEHE24-.LEHB24
 1131 0039 00       		.uleb128 0
 1132 003a 00       		.uleb128 0
 1133 003b 9001     		.uleb128 .LEHB25-.LCOLDB8
 1134 003d 05       		.uleb128 .LEHE25-.LEHB25
 1135 003e 00       		.uleb128 0
 1136 003f 00       		.uleb128 0
 1137 0040 A401     		.uleb128 .LEHB26-.LCOLDB8
 1138 0042 05       		.uleb128 .LEHE26-.LEHB26
 1139 0043 00       		.uleb128 0
 1140 0044 00       		.uleb128 0
 1141              	.LLSDACSEC1310:
 1142 0045 01       		.byte	0x1
 1143 0046 00       		.byte	0
 1144 0047 00       		.align 4
 1145 0048 00000000 		.long	0
 1146              	
 1147              	.LLSDATTC1310:
 1148              		.section	.text.unlikely
 1149              		.text
 1151              		.section	.text.unlikely
 1153              	.LCOLDE8:
 1154              		.text
 1155              	.LHOTE8:
 1156              		.section	.text._ZN8UnitTest10CheckEqualImmEEvRNS_11TestResultsERKT_RKT0_RKNS_11TestDetailsE,"axG",
 1157              		.p2align 4
 1158              		.weak	_ZN8UnitTest10CheckEqualImmEEvRNS_11TestResultsERKT_RKT0_RKNS_11TestDetailsE
 1160              	_ZN8UnitTest10CheckEqualImmEEvRNS_11TestResultsERKT_RKT0_RKNS_11TestDetailsE:
 1161              	.LFB1361:
 1162              		.cfi_startproc
 1163              		.cfi_personality 0x9b,DW.ref.__gxx_personality_v0
 1164              		.cfi_lsda 0x1b,.LLSDA1361
 1165 0000 F30F1EFA 		endbr64
 1166 0004 4157     		pushq	%r15
 1167              		.cfi_def_cfa_offset 16
 1168              		.cfi_offset 15, -16
 1169 0006 4156     		pushq	%r14
 1170              		.cfi_def_cfa_offset 24
 1171              		.cfi_offset 14, -24
 1172 0008 4155     		pushq	%r13
 1173              		.cfi_def_cfa_offset 32
 1174              		.cfi_offset 13, -32
 1175 000a 4154     		pushq	%r12
 1176              		.cfi_def_cfa_offset 40
 1177              		.cfi_offset 12, -40
 1178 000c 55       		pushq	%rbp
 1179              		.cfi_def_cfa_offset 48
 1180              		.cfi_offset 6, -48
 1181 000d 53       		pushq	%rbx
 1182              		.cfi_def_cfa_offset 56
 1183              		.cfi_offset 3, -56
 1184 000e 4881ECD8 		subq	$472, %rsp
 1184      010000
 1185              		.cfi_def_cfa_offset 528
 1186 0015 F30F7E0D 		movq	.LC2(%rip), %xmm1
 1186      00000000 
 1187 001d 48897C24 		movq	%rdi, 16(%rsp)
 1187      10
 1188 0022 48894C24 		movq	%rcx, 24(%rsp)
 1188      18
 1189 0027 0F160D00 		movhps	.LC3(%rip), %xmm1
 1189      000000
 1190 002e 64488B04 		movq	%fs:40, %rax
 1190      25280000 
 1190      00
 1191 0037 48898424 		movq	%rax, 456(%rsp)
 1191      C8010000 
 1192 003f 31C0     		xorl	%eax, %eax
 1193 0041 488B02   		movq	(%rdx), %rax
 1194 0044 0F290C24 		movaps	%xmm1, (%rsp)
 1195 0048 483906   		cmpq	%rax, (%rsi)
 1196 004b 7533     		jne	.L92
 1197              	.L76:
 1198 004d 488B8424 		movq	456(%rsp), %rax
 1198      C8010000 
 1199 0055 64482B04 		subq	%fs:40, %rax
 1199      25280000 
 1199      00
 1200 005e 0F855302 		jne	.L93
 1200      0000
 1201 0064 4881C4D8 		addq	$472, %rsp
 1201      010000
 1202              		.cfi_remember_state
 1203              		.cfi_def_cfa_offset 56
 1204 006b 5B       		popq	%rbx
 1205              		.cfi_def_cfa_offset 48
 1206 006c 5D       		popq	%rbp
 1207              		.cfi_def_cfa_offset 40
 1208 006d 415C     		popq	%r12
 1209              		.cfi_def_cfa_offset 32
 1210 006f 415D     		popq	%r13
 1211              		.cfi_def_cfa_offset 24
 1212 0071 415E     		popq	%r14
 1213              		.cfi_def_cfa_offset 16
 1214 0073 415F     		popq	%r15
 1215              		.cfi_def_cfa_offset 8
 1216 0075 C3       		ret
 1217 0076 662E0F1F 		.p2align 4,,10
 1217      84000000 
 1217      0000
 1218              		.p2align 3
 1219              	.L92:
 1220              		.cfi_restore_state
 1221 0080 4C8DAC24 		leaq	192(%rsp), %r13
 1221      C0000000 
 1222 0088 4889F5   		movq	%rsi, %rbp
 1223 008b 4889D3   		movq	%rdx, %rbx
 1224 008e 4C89EF   		movq	%r13, %rdi
 1225 0091 E8000000 		call	_ZNSt8ios_baseC2Ev@PLT
 1225      00
 1226 0096 31C0     		xorl	%eax, %eax
 1227 0098 660FEFC0 		pxor	%xmm0, %xmm0
 1228 009c 31F6     		xorl	%esi, %esi
 1229 009e 66898424 		movw	%ax, 416(%rsp)
 1229      A0010000 
 1230 00a6 488D0500 		leaq	24+_ZTCN8UnitTest15MemoryOutStreamE0_So(%rip), %rax
 1230      000000
 1231 00ad 4C89EF   		movq	%r13, %rdi
 1232 00b0 48894424 		movq	%rax, 48(%rsp)
 1232      30
 1233 00b5 4883C028 		addq	$40, %rax
 1234 00b9 48C78424 		movq	$0, 408(%rsp)
 1234      98010000 
 1234      00000000 
 1235 00c5 48898424 		movq	%rax, 192(%rsp)
 1235      C0000000 
 1236 00cd 0F118424 		movups	%xmm0, 424(%rsp)
 1236      A8010000 
 1237 00d5 0F118424 		movups	%xmm0, 440(%rsp)
 1237      B8010000 
 1238              	.LEHB27:
 1239 00dd E8000000 		call	_ZNSt9basic_iosIcSt11char_traitsIcEE4initEPSt15basic_streambufIcS1_E@PLT
 1239      00
 1240              	.LEHE27:
 1241 00e2 660F6F0C 		movdqa	(%rsp), %xmm1
 1241      24
 1242 00e7 4C8D7424 		leaq	112(%rsp), %r14
 1242      70
 1243 00ec 660FEFC0 		pxor	%xmm0, %xmm0
 1244 00f0 488D0500 		leaq	64+_ZTCN8UnitTest15MemoryOutStreamE0_NSt7__cxx1119basic_ostringstreamIcSt11char_traitsIcESaIc
 1244      000000
 1245 00f7 4C89F7   		movq	%r14, %rdi
 1246 00fa 0F294424 		movaps	%xmm0, 64(%rsp)
 1246      40
 1247 00ff 4C8D6424 		leaq	48(%rsp), %r12
 1247      30
 1248 0104 4C8D7C24 		leaq	56(%rsp), %r15
 1248      38
 1249 0109 48898424 		movq	%rax, 192(%rsp)
 1249      C0000000 
 1250 0111 0F294C24 		movaps	%xmm1, 48(%rsp)
 1250      30
 1251 0116 0F294424 		movaps	%xmm0, 80(%rsp)
 1251      50
 1252 011b 0F294424 		movaps	%xmm0, 96(%rsp)
 1252      60
 1253 0120 E8000000 		call	_ZNSt6localeC1Ev@PLT
 1253      00
 1254 0125 488D0500 		leaq	16+_ZTVNSt7__cxx1115basic_stringbufIcSt11char_traitsIcESaIcEEE(%rip), %rax
 1254      000000
 1255 012c 4C89FE   		movq	%r15, %rsi
 1256 012f 48C78424 		movq	$0, 136(%rsp)
 1256      88000000 
 1256      00000000 
 1257 013b 48894424 		movq	%rax, 56(%rsp)
 1257      38
 1258 0140 488D8424 		leaq	144(%rsp), %rax
 1258      90000000 
 1259 0148 48894424 		movq	%rax, 32(%rsp)
 1259      20
 1260 014d 48898424 		movq	%rax, 128(%rsp)
 1260      80000000 
 1261 0155 488B4424 		movq	48(%rsp), %rax
 1261      30
 1262 015a C6842490 		movb	$0, 144(%rsp)
 1262      00000000 
 1263 0162 488B78E8 		movq	-24(%rax), %rdi
 1264 0166 C7442478 		movl	$16, 120(%rsp)
 1264      10000000 
 1265 016e 4C01E7   		addq	%r12, %rdi
 1266              	.LEHB28:
 1267 0171 E8000000 		call	_ZNSt9basic_iosIcSt11char_traitsIcEE4initEPSt15basic_streambufIcS1_E@PLT
 1267      00
 1268              	.LEHE28:
 1269 0176 4C8D3D00 		leaq	24+_ZTVN8UnitTest15MemoryOutStreamE(%rip), %r15
 1269      000000
 1270 017d BA090000 		movl	$9, %edx
 1270      00
 1271 0182 4C89E7   		movq	%r12, %rdi
 1272 0185 48C78424 		movq	$0, 168(%rsp)
 1272      A8000000 
 1272      00000000 
 1273 0191 498D4728 		leaq	40(%r15), %rax
 1274 0195 488D3500 		leaq	.LC0(%rip), %rsi
 1274      000000
 1275 019c 4C897C24 		movq	%r15, 48(%rsp)
 1275      30
 1276 01a1 48898424 		movq	%rax, 192(%rsp)
 1276      C0000000 
 1277 01a9 488D8424 		leaq	176(%rsp), %rax
 1277      B0000000 
 1278 01b1 48894424 		movq	%rax, 40(%rsp)
 1278      28
 1279 01b6 48898424 		movq	%rax, 160(%rsp)
 1279      A0000000 
 1280 01be C68424B0 		movb	$0, 176(%rsp)
 1280      00000000 
 1281              	.LEHB29:
 1282 01c6 E8000000 		call	_ZSt16__ostream_insertIcSt11char_traitsIcEERSt13basic_ostreamIT_T0_ES6_PKS3_l@PLT
 1282      00
 1283 01cb 488B7500 		movq	0(%rbp), %rsi
 1284 01cf 4C89E7   		movq	%r12, %rdi
 1285 01d2 E8000000 		call	_ZNSo9_M_insertImEERSoT_@PLT
 1285      00
 1286 01d7 BA090000 		movl	$9, %edx
 1286      00
 1287 01dc 488D3500 		leaq	.LC1(%rip), %rsi
 1287      000000
 1288 01e3 4889C7   		movq	%rax, %rdi
 1289 01e6 4889C5   		movq	%rax, %rbp
 1290 01e9 E8000000 		call	_ZSt16__ostream_insertIcSt11char_traitsIcEERSt13basic_ostreamIT_T0_ES6_PKS3_l@PLT
 1290      00
 1291 01ee 488B33   		movq	(%rbx), %rsi
 1292 01f1 4889EF   		movq	%rbp, %rdi
 1293 01f4 E8000000 		call	_ZNSo9_M_insertImEERSoT_@PLT
 1293      00
 1294 01f9 4C89E7   		movq	%r12, %rdi
 1295 01fc E8000000 		call	_ZNK8UnitTest15MemoryOutStream7GetTextEv@PLT
 1295      00
 1296 0201 488B7424 		movq	24(%rsp), %rsi
 1296      18
 1297 0206 488B7C24 		movq	16(%rsp), %rdi
 1297      10
 1298 020b 4889C2   		movq	%rax, %rdx
 1299 020e F30F7E15 		movq	.LC2(%rip), %xmm2
 1299      00000000 
 1300 0216 0F161500 		movhps	.LC4(%rip), %xmm2
 1300      000000
 1301 021d 0F291424 		movaps	%xmm2, (%rsp)
 1302 0221 E8000000 		call	_ZN8UnitTest11TestResults13OnTestFailureERKNS_11TestDetailsEPKc@PLT
 1302      00
 1303              	.LEHE29:
 1304 0226 488D0500 		leaq	64+_ZTVN8UnitTest15MemoryOutStreamE(%rip), %rax
 1304      000000
 1305 022d 4C897C24 		movq	%r15, 48(%rsp)
 1305      30
 1306 0232 488BBC24 		movq	160(%rsp), %rdi
 1306      A0000000 
 1307 023a 48898424 		movq	%rax, 192(%rsp)
 1307      C0000000 
 1308 0242 483B7C24 		cmpq	40(%rsp), %rdi
 1308      28
 1309 0247 7405     		je	.L82
 1310 0249 E8000000 		call	_ZdlPv@PLT
 1310      00
 1311              	.L82:
 1312 024e 660F6F1C 		movdqa	(%rsp), %xmm3
 1312      24
 1313 0253 488D0500 		leaq	64+_ZTCN8UnitTest15MemoryOutStreamE0_NSt7__cxx1119basic_ostringstreamIcSt11char_traitsIcESaIc
 1313      000000
 1314 025a 488BBC24 		movq	128(%rsp), %rdi
 1314      80000000 
 1315 0262 48898424 		movq	%rax, 192(%rsp)
 1315      C0000000 
 1316 026a 0F295C24 		movaps	%xmm3, 48(%rsp)
 1316      30
 1317 026f 483B7C24 		cmpq	32(%rsp), %rdi
 1317      20
 1318 0274 7405     		je	.L83
 1319 0276 E8000000 		call	_ZdlPv@PLT
 1319      00
 1320              	.L83:
 1321 027b 488D0500 		leaq	16+_ZTVSt15basic_streambufIcSt11char_traitsIcEE(%rip), %rax
 1321      000000
 1322 0282 4C89F7   		movq	%r14, %rdi
 1323 0285 48894424 		movq	%rax, 56(%rsp)
 1323      38
 1324 028a E8000000 		call	_ZNSt6localeD1Ev@PLT
 1324      00
 1325 028f 488D0500 		leaq	24+_ZTCN8UnitTest15MemoryOutStreamE0_So(%rip), %rax
 1325      000000
 1326 0296 4C89EF   		movq	%r13, %rdi
 1327 0299 48894424 		movq	%rax, 48(%rsp)
 1327      30
 1328 029e 488D0500 		leaq	16+_ZTVSt9basic_iosIcSt11char_traitsIcEE(%rip), %rax
 1328      000000
 1329 02a5 48898424 		movq	%rax, 192(%rsp)
 1329      C0000000 
 1330              	.LEHB30:
 1331 02ad E8000000 		call	_ZNSt8ios_baseD2Ev@PLT
 1331      00
 1332              	.LEHE30:
 1333 02b2 E996FDFF 		jmp	.L76
 1333      FF
 1334              	.L93:
 1335 02b7 E8000000 		call	__stack_chk_fail@PLT
 1335      00
 1336              	.L87:
 1337 02bc F30F1EFA 		endbr64
 1338 02c0 4889C5   		movq	%rax, %rbp
 1339 02c3 EB26     		jmp	.L80
 1340              	.L88:
 1341 02c5 F30F1EFA 		endbr64
 1342 02c9 4889C5   		movq	%rax, %rbp
 1343 02cc EB09     		jmp	.L79
 1344              	.L86:
 1345 02ce F30F1EFA 		endbr64
 1346 02d2 4889C5   		movq	%rax, %rbp
 1347 02d5 EB33     		jmp	.L84
 1348              	.L79:
 1349 02d7 4C89FF   		movq	%r15, %rdi
 1350 02da E8000000 		call	_ZNSt7__cxx1115basic_stringbufIcSt11char_traitsIcESaIcEED1Ev
 1350      00
 1351 02df 488D0500 		leaq	24+_ZTCN8UnitTest15MemoryOutStreamE0_So(%rip), %rax
 1351      000000
 1352 02e6 48894424 		movq	%rax, 48(%rsp)
 1352      30
 1353              	.L80:
 1354 02eb 488D0500 		leaq	16+_ZTVSt9basic_iosIcSt11char_traitsIcEE(%rip), %rax
 1354      000000
 1355 02f2 4C89EF   		movq	%r13, %rdi
 1356 02f5 48898424 		movq	%rax, 192(%rsp)
 1356      C0000000 
 1357 02fd E8000000 		call	_ZNSt8ios_baseD2Ev@PLT
 1357      00
 1358 0302 4889EF   		movq	%rbp, %rdi
 1359              	.LEHB31:
 1360 0305 E8000000 		call	_Unwind_Resume@PLT
 1360      00
 1361              	.LEHE31:
 1362              	.L84:
 1363 030a 4C89E7   		movq	%r12, %rdi
 1364 030d E8000000 		call	_ZN8UnitTest15MemoryOutStreamD1Ev
 1364      00
 1365 0312 4889EF   		movq	%rbp, %rdi
 1366              	.LEHB32:
 1367 0315 E8000000 		call	_Unwind_Resume@PLT
 1367      00
 1368              	.LEHE32:
 1369              		.cfi_endproc
 1370              	.LFE1361:
 1371              		.section	.gcc_except_table
 1372              	.LLSDA1361:
 1373 004c FF       		.byte	0xff
 1374 004d FF       		.byte	0xff
 1375 004e 01       		.byte	0x1
 1376 004f 21       		.uleb128 .LLSDACSE1361-.LLSDACSB1361
 1377              	.LLSDACSB1361:
 1378 0050 DD01     		.uleb128 .LEHB27-.LFB1361
 1379 0052 05       		.uleb128 .LEHE27-.LEHB27
 1380 0053 BC05     		.uleb128 .L87-.LFB1361
 1381 0055 00       		.uleb128 0
 1382 0056 F102     		.uleb128 .LEHB28-.LFB1361
 1383 0058 05       		.uleb128 .LEHE28-.LEHB28
 1384 0059 C505     		.uleb128 .L88-.LFB1361
 1385 005b 00       		.uleb128 0
 1386 005c C603     		.uleb128 .LEHB29-.LFB1361
 1387 005e 60       		.uleb128 .LEHE29-.LEHB29
 1388 005f CE05     		.uleb128 .L86-.LFB1361
 1389 0061 00       		.uleb128 0
 1390 0062 AD05     		.uleb128 .LEHB30-.LFB1361
 1391 0064 05       		.uleb128 .LEHE30-.LEHB30
 1392 0065 00       		.uleb128 0
 1393 0066 00       		.uleb128 0
 1394 0067 8506     		.uleb128 .LEHB31-.LFB1361
 1395 0069 05       		.uleb128 .LEHE31-.LEHB31
 1396 006a 00       		.uleb128 0
 1397 006b 00       		.uleb128 0
 1398 006c 9506     		.uleb128 .LEHB32-.LFB1361
 1399 006e 05       		.uleb128 .LEHE32-.LEHB32
 1400 006f 00       		.uleb128 0
 1401 0070 00       		.uleb128 0
 1402              	.LLSDACSE1361:
 1403              		.section	.text._ZN8UnitTest10CheckEqualImmEEvRNS_11TestResultsERKT_RKT0_RKNS_11TestDetailsE,"axG",
 1405              		.section	.rodata._ZN8UnitTest15CheckArrayEqualIPKcPhEEvRNS_11TestResultsERKT_RKT0_iRKNS_11TestDeta
 1406              	.LC9:
 1407 0000 45787065 		.string	"Expected [ "
 1407      63746564 
 1407      205B2000 
 1408              	.LC10:
 1409 000c 2000     		.string	" "
 1410              	.LC11:
 1411 000e 5D206275 		.string	"] but was [ "
 1411      74207761 
 1411      73205B20 
 1411      00
 1412              	.LC12:
 1413 001b 5D00     		.string	"]"
 1414              		.section	.text._ZN8UnitTest15CheckArrayEqualIPKcPhEEvRNS_11TestResultsERKT_RKT0_iRKNS_11TestDetail
 1415              		.p2align 4
 1416              		.weak	_ZN8UnitTest15CheckArrayEqualIPKcPhEEvRNS_11TestResultsERKT_RKT0_iRKNS_11TestDetailsE
 1418              	_ZN8UnitTest15CheckArrayEqualIPKcPhEEvRNS_11TestResultsERKT_RKT0_iRKNS_11TestDetailsE:
 1419              	.LFB1362:
 1420              		.cfi_startproc
 1421              		.cfi_personality 0x9b,DW.ref.__gxx_personality_v0
 1422              		.cfi_lsda 0x1b,.LLSDA1362
 1423 0000 F30F1EFA 		endbr64
 1424 0004 4157     		pushq	%r15
 1425              		.cfi_def_cfa_offset 16
 1426              		.cfi_offset 15, -16
 1427 0006 4156     		pushq	%r14
 1428              		.cfi_def_cfa_offset 24
 1429              		.cfi_offset 14, -24
 1430 0008 4155     		pushq	%r13
 1431              		.cfi_def_cfa_offset 32
 1432              		.cfi_offset 13, -32
 1433 000a 4154     		pushq	%r12
 1434              		.cfi_def_cfa_offset 40
 1435              		.cfi_offset 12, -40
 1436 000c 55       		pushq	%rbp
 1437              		.cfi_def_cfa_offset 48
 1438              		.cfi_offset 6, -48
 1439 000d 53       		pushq	%rbx
 1440              		.cfi_def_cfa_offset 56
 1441              		.cfi_offset 3, -56
 1442 000e 4881ECF8 		subq	$504, %rsp
 1442      010000
 1443              		.cfi_def_cfa_offset 560
 1444 0015 F30F7E0D 		movq	.LC2(%rip), %xmm1
 1444      00000000 
 1445 001d 48897C24 		movq	%rdi, 16(%rsp)
 1445      10
 1446 0022 4C894424 		movq	%r8, 24(%rsp)
 1446      18
 1447 0027 0F160D00 		movhps	.LC3(%rip), %xmm1
 1447      000000
 1448 002e 64488B04 		movq	%fs:40, %rax
 1448      25280000 
 1448      00
 1449 0037 48898424 		movq	%rax, 488(%rsp)
 1449      E8010000 
 1450 003f 31C0     		xorl	%eax, %eax
 1451 0041 0F290C24 		movaps	%xmm1, (%rsp)
 1452 0045 85C9     		testl	%ecx, %ecx
 1453 0047 7E34     		jle	.L94
 1454 0049 4C8B06   		movq	(%rsi), %r8
 1455 004c 488B3A   		movq	(%rdx), %rdi
 1456 004f 4989D7   		movq	%rdx, %r15
 1457 0052 4989F5   		movq	%rsi, %r13
 1458 0055 4863D9   		movslq	%ecx, %rbx
 1459 0058 BA010000 		movl	$1, %edx
 1459      00
 1460 005d 0F1F00   		.p2align 4,,10
 1461              		.p2align 3
 1462              	.L96:
 1463 0060 0FB60C07 		movzbl	(%rdi,%rax), %ecx
 1464 0064 410FBE34 		movsbl	(%r8,%rax), %esi
 1464      00
 1465 0069 39CE     		cmpl	%ecx, %esi
 1466 006b 0F94C1   		sete	%cl
 1467 006e 4883C001 		addq	$1, %rax
 1468 0072 21CA     		andl	%ecx, %edx
 1469 0074 4839C3   		cmpq	%rax, %rbx
 1470 0077 75E7     		jne	.L96
 1471 0079 84D2     		testb	%dl, %dl
 1472 007b 7433     		je	.L116
 1473              	.L94:
 1474 007d 488B8424 		movq	488(%rsp), %rax
 1474      E8010000 
 1475 0085 64482B04 		subq	%fs:40, %rax
 1475      25280000 
 1475      00
 1476 008e 0F85F202 		jne	.L117
 1476      0000
 1477 0094 4881C4F8 		addq	$504, %rsp
 1477      010000
 1478              		.cfi_remember_state
 1479              		.cfi_def_cfa_offset 56
 1480 009b 5B       		popq	%rbx
 1481              		.cfi_def_cfa_offset 48
 1482 009c 5D       		popq	%rbp
 1483              		.cfi_def_cfa_offset 40
 1484 009d 415C     		popq	%r12
 1485              		.cfi_def_cfa_offset 32
 1486 009f 415D     		popq	%r13
 1487              		.cfi_def_cfa_offset 24
 1488 00a1 415E     		popq	%r14
 1489              		.cfi_def_cfa_offset 16
 1490 00a3 415F     		popq	%r15
 1491              		.cfi_def_cfa_offset 8
 1492 00a5 C3       		ret
 1493 00a6 662E0F1F 		.p2align 4,,10
 1493      84000000 
 1493      0000
 1494              		.p2align 3
 1495              	.L116:
 1496              		.cfi_restore_state
 1497 00b0 4C8DB424 		leaq	224(%rsp), %r14
 1497      E0000000 
 1498 00b8 4C89F7   		movq	%r14, %rdi
 1499 00bb 4C897424 		movq	%r14, 32(%rsp)
 1499      20
 1500 00c0 E8000000 		call	_ZNSt8ios_baseC2Ev@PLT
 1500      00
 1501 00c5 31C0     		xorl	%eax, %eax
 1502 00c7 660FEFC0 		pxor	%xmm0, %xmm0
 1503 00cb 31F6     		xorl	%esi, %esi
 1504 00cd 66898424 		movw	%ax, 448(%rsp)
 1504      C0010000 
 1505 00d5 488D0500 		leaq	24+_ZTCN8UnitTest15MemoryOutStreamE0_So(%rip), %rax
 1505      000000
 1506 00dc 4C89F7   		movq	%r14, %rdi
 1507 00df 48894424 		movq	%rax, 80(%rsp)
 1507      50
 1508 00e4 4883C028 		addq	$40, %rax
 1509 00e8 48C78424 		movq	$0, 440(%rsp)
 1509      B8010000 
 1509      00000000 
 1510 00f4 48898424 		movq	%rax, 224(%rsp)
 1510      E0000000 
 1511 00fc 0F118424 		movups	%xmm0, 456(%rsp)
 1511      C8010000 
 1512 0104 0F118424 		movups	%xmm0, 472(%rsp)
 1512      D8010000 
 1513              	.LEHB33:
 1514 010c E8000000 		call	_ZNSt9basic_iosIcSt11char_traitsIcEE4initEPSt15basic_streambufIcS1_E@PLT
 1514      00
 1515              	.LEHE33:
 1516 0111 488D0500 		leaq	64+_ZTCN8UnitTest15MemoryOutStreamE0_NSt7__cxx1119basic_ostringstreamIcSt11char_traitsIcESaIc
 1516      000000
 1517 0118 660F6F1C 		movdqa	(%rsp), %xmm3
 1517      24
 1518 011d 660FEFC0 		pxor	%xmm0, %xmm0
 1519 0121 4C8D6424 		leaq	80(%rsp), %r12
 1519      50
 1520 0126 48898424 		movq	%rax, 224(%rsp)
 1520      E0000000 
 1521 012e 488D8424 		leaq	144(%rsp), %rax
 1521      90000000 
 1522 0136 488D6C24 		leaq	88(%rsp), %rbp
 1522      58
 1523 013b 4889C7   		movq	%rax, %rdi
 1524 013e 48894424 		movq	%rax, 56(%rsp)
 1524      38
 1525 0143 0F295C24 		movaps	%xmm3, 80(%rsp)
 1525      50
 1526 0148 0F294424 		movaps	%xmm0, 96(%rsp)
 1526      60
 1527 014d 0F294424 		movaps	%xmm0, 112(%rsp)
 1527      70
 1528 0152 0F298424 		movaps	%xmm0, 128(%rsp)
 1528      80000000 
 1529 015a E8000000 		call	_ZNSt6localeC1Ev@PLT
 1529      00
 1530 015f 488D0500 		leaq	16+_ZTVNSt7__cxx1115basic_stringbufIcSt11char_traitsIcESaIcEEE(%rip), %rax
 1530      000000
 1531 0166 C68424B0 		movb	$0, 176(%rsp)
 1531      00000000 
 1532 016e 4889EE   		movq	%rbp, %rsi
 1533 0171 48894424 		movq	%rax, 88(%rsp)
 1533      58
 1534 0176 488D8424 		leaq	176(%rsp), %rax
 1534      B0000000 
 1535 017e 48894424 		movq	%rax, 40(%rsp)
 1535      28
 1536 0183 48898424 		movq	%rax, 160(%rsp)
 1536      A0000000 
 1537 018b 488B4424 		movq	80(%rsp), %rax
 1537      50
 1538 0190 48C78424 		movq	$0, 168(%rsp)
 1538      A8000000 
 1538      00000000 
 1539 019c C7842498 		movl	$16, 152(%rsp)
 1539      00000010 
 1539      000000
 1540 01a7 488B78E8 		movq	-24(%rax), %rdi
 1541 01ab 4C01E7   		addq	%r12, %rdi
 1542              	.LEHB34:
 1543 01ae E8000000 		call	_ZNSt9basic_iosIcSt11char_traitsIcEE4initEPSt15basic_streambufIcS1_E@PLT
 1543      00
 1544              	.LEHE34:
 1545 01b3 488D0500 		leaq	24+_ZTVN8UnitTest15MemoryOutStreamE(%rip), %rax
 1545      000000
 1546 01ba BA0B0000 		movl	$11, %edx
 1546      00
 1547 01bf 4C89E7   		movq	%r12, %rdi
 1548 01c2 48C78424 		movq	$0, 200(%rsp)
 1548      C8000000 
 1548      00000000 
 1549 01ce 48894424 		movq	%rax, 80(%rsp)
 1549      50
 1550 01d3 4883C028 		addq	$40, %rax
 1551 01d7 488D3500 		leaq	.LC9(%rip), %rsi
 1551      000000
 1552 01de 48898424 		movq	%rax, 224(%rsp)
 1552      E0000000 
 1553 01e6 488D8424 		leaq	208(%rsp), %rax
 1553      D0000000 
 1554 01ee 48894424 		movq	%rax, 48(%rsp)
 1554      30
 1555 01f3 48898424 		movq	%rax, 192(%rsp)
 1555      C0000000 
 1556 01fb C68424D0 		movb	$0, 208(%rsp)
 1556      00000000 
 1557              	.LEHB35:
 1558 0203 E8000000 		call	_ZSt16__ostream_insertIcSt11char_traitsIcEERSt13basic_ostreamIT_T0_ES6_PKS3_l@PLT
 1558      00
 1559 0208 488D4424 		leaq	78(%rsp), %rax
 1559      4E
 1560 020d 31ED     		xorl	%ebp, %ebp
 1561 020f 4C8D3500 		leaq	.LC10(%rip), %r14
 1561      000000
 1562 0216 48890424 		movq	%rax, (%rsp)
 1563 021a 660F1F44 		.p2align 4,,10
 1563      0000
 1564              		.p2align 3
 1565              	.L100:
 1566 0220 498B4500 		movq	0(%r13), %rax
 1567 0224 488B3424 		movq	(%rsp), %rsi
 1568 0228 BA010000 		movl	$1, %edx
 1568      00
 1569 022d 4C89E7   		movq	%r12, %rdi
 1570 0230 0FB60428 		movzbl	(%rax,%rbp), %eax
 1571 0234 8844244E 		movb	%al, 78(%rsp)
 1572 0238 E8000000 		call	_ZSt16__ostream_insertIcSt11char_traitsIcEERSt13basic_ostreamIT_T0_ES6_PKS3_l@PLT
 1572      00
 1573 023d 4889C7   		movq	%rax, %rdi
 1574 0240 BA010000 		movl	$1, %edx
 1574      00
 1575 0245 4C89F6   		movq	%r14, %rsi
 1576 0248 E8000000 		call	_ZSt16__ostream_insertIcSt11char_traitsIcEERSt13basic_ostreamIT_T0_ES6_PKS3_l@PLT
 1576      00
 1577 024d 4883C501 		addq	$1, %rbp
 1578 0251 4839EB   		cmpq	%rbp, %rbx
 1579 0254 75CA     		jne	.L100
 1580 0256 BA0C0000 		movl	$12, %edx
 1580      00
 1581 025b 488D3500 		leaq	.LC11(%rip), %rsi
 1581      000000
 1582 0262 4C89E7   		movq	%r12, %rdi
 1583 0265 E8000000 		call	_ZSt16__ostream_insertIcSt11char_traitsIcEERSt13basic_ostreamIT_T0_ES6_PKS3_l@PLT
 1583      00
 1584 026a 31ED     		xorl	%ebp, %ebp
 1585 026c 4C8D6C24 		leaq	79(%rsp), %r13
 1585      4F
 1586              		.p2align 4,,10
 1587 0271 0F1F8000 		.p2align 3
 1587      000000
 1588              	.L101:
 1589 0278 498B07   		movq	(%r15), %rax
 1590 027b BA010000 		movl	$1, %edx
 1590      00
 1591 0280 4C89EE   		movq	%r13, %rsi
 1592 0283 4C89E7   		movq	%r12, %rdi
 1593 0286 0FB60428 		movzbl	(%rax,%rbp), %eax
 1594 028a 8844244F 		movb	%al, 79(%rsp)
 1595 028e E8000000 		call	_ZSt16__ostream_insertIcSt11char_traitsIcEERSt13basic_ostreamIT_T0_ES6_PKS3_l@PLT
 1595      00
 1596 0293 4889C7   		movq	%rax, %rdi
 1597 0296 BA010000 		movl	$1, %edx
 1597      00
 1598 029b 4C89F6   		movq	%r14, %rsi
 1599 029e E8000000 		call	_ZSt16__ostream_insertIcSt11char_traitsIcEERSt13basic_ostreamIT_T0_ES6_PKS3_l@PLT
 1599      00
 1600 02a3 4883C501 		addq	$1, %rbp
 1601 02a7 4839EB   		cmpq	%rbp, %rbx
 1602 02aa 75CC     		jne	.L101
 1603 02ac BA010000 		movl	$1, %edx
 1603      00
 1604 02b1 488D3500 		leaq	.LC12(%rip), %rsi
 1604      000000
 1605 02b8 4C89E7   		movq	%r12, %rdi
 1606 02bb E8000000 		call	_ZSt16__ostream_insertIcSt11char_traitsIcEERSt13basic_ostreamIT_T0_ES6_PKS3_l@PLT
 1606      00
 1607 02c0 4C89E7   		movq	%r12, %rdi
 1608 02c3 E8000000 		call	_ZNK8UnitTest15MemoryOutStream7GetTextEv@PLT
 1608      00
 1609 02c8 488B7424 		movq	24(%rsp), %rsi
 1609      18
 1610 02cd 488B7C24 		movq	16(%rsp), %rdi
 1610      10
 1611 02d2 4889C2   		movq	%rax, %rdx
 1612 02d5 F30F7E15 		movq	.LC2(%rip), %xmm2
 1612      00000000 
 1613 02dd 0F161500 		movhps	.LC4(%rip), %xmm2
 1613      000000
 1614 02e4 0F291424 		movaps	%xmm2, (%rsp)
 1615 02e8 E8000000 		call	_ZN8UnitTest11TestResults13OnTestFailureERKNS_11TestDetailsEPKc@PLT
 1615      00
 1616              	.LEHE35:
 1617 02ed 488D0500 		leaq	24+_ZTVN8UnitTest15MemoryOutStreamE(%rip), %rax
 1617      000000
 1618 02f4 488BBC24 		movq	192(%rsp), %rdi
 1618      C0000000 
 1619 02fc 48894424 		movq	%rax, 80(%rsp)
 1619      50
 1620 0301 4883C028 		addq	$40, %rax
 1621 0305 48898424 		movq	%rax, 224(%rsp)
 1621      E0000000 
 1622 030d 483B7C24 		cmpq	48(%rsp), %rdi
 1622      30
 1623 0312 7405     		je	.L102
 1624 0314 E8000000 		call	_ZdlPv@PLT
 1624      00
 1625              	.L102:
 1626 0319 660F6F24 		movdqa	(%rsp), %xmm4
 1626      24
 1627 031e 488D0500 		leaq	64+_ZTCN8UnitTest15MemoryOutStreamE0_NSt7__cxx1119basic_ostringstreamIcSt11char_traitsIcESaIc
 1627      000000
 1628 0325 488BBC24 		movq	160(%rsp), %rdi
 1628      A0000000 
 1629 032d 48898424 		movq	%rax, 224(%rsp)
 1629      E0000000 
 1630 0335 0F296424 		movaps	%xmm4, 80(%rsp)
 1630      50
 1631 033a 483B7C24 		cmpq	40(%rsp), %rdi
 1631      28
 1632 033f 7405     		je	.L103
 1633 0341 E8000000 		call	_ZdlPv@PLT
 1633      00
 1634              	.L103:
 1635 0346 488B7C24 		movq	56(%rsp), %rdi
 1635      38
 1636 034b 488D0500 		leaq	16+_ZTVSt15basic_streambufIcSt11char_traitsIcEE(%rip), %rax
 1636      000000
 1637 0352 48894424 		movq	%rax, 88(%rsp)
 1637      58
 1638 0357 E8000000 		call	_ZNSt6localeD1Ev@PLT
 1638      00
 1639 035c 488D0500 		leaq	24+_ZTCN8UnitTest15MemoryOutStreamE0_So(%rip), %rax
 1639      000000
 1640 0363 488B7C24 		movq	32(%rsp), %rdi
 1640      20
 1641 0368 48894424 		movq	%rax, 80(%rsp)
 1641      50
 1642 036d 488D0500 		leaq	16+_ZTVSt9basic_iosIcSt11char_traitsIcEE(%rip), %rax
 1642      000000
 1643 0374 48898424 		movq	%rax, 224(%rsp)
 1643      E0000000 
 1644              	.LEHB36:
 1645 037c E8000000 		call	_ZNSt8ios_baseD2Ev@PLT
 1645      00
 1646              	.LEHE36:
 1647 0381 E9F7FCFF 		jmp	.L94
 1647      FF
 1648              	.L117:
 1649 0386 E8000000 		call	__stack_chk_fail@PLT
 1649      00
 1650              	.L109:
 1651 038b F30F1EFA 		endbr64
 1652 038f 4889C3   		movq	%rax, %rbx
 1653 0392 EB12     		jmp	.L98
 1654              	.L107:
 1655 0394 F30F1EFA 		endbr64
 1656 0398 4889C5   		movq	%rax, %rbp
 1657 039b EB41     		jmp	.L104
 1658              	.L108:
 1659 039d F30F1EFA 		endbr64
 1660 03a1 4889C5   		movq	%rax, %rbp
 1661 03a4 EB17     		jmp	.L99
 1662              	.L98:
 1663 03a6 4889EF   		movq	%rbp, %rdi
 1664 03a9 4889DD   		movq	%rbx, %rbp
 1665 03ac E8000000 		call	_ZNSt7__cxx1115basic_stringbufIcSt11char_traitsIcESaIcEED1Ev
 1665      00
 1666 03b1 488D0500 		leaq	24+_ZTCN8UnitTest15MemoryOutStreamE0_So(%rip), %rax
 1666      000000
 1667 03b8 48894424 		movq	%rax, 80(%rsp)
 1667      50
 1668              	.L99:
 1669 03bd 488B7C24 		movq	32(%rsp), %rdi
 1669      20
 1670 03c2 488D0500 		leaq	16+_ZTVSt9basic_iosIcSt11char_traitsIcEE(%rip), %rax
 1670      000000
 1671 03c9 48898424 		movq	%rax, 224(%rsp)
 1671      E0000000 
 1672 03d1 E8000000 		call	_ZNSt8ios_baseD2Ev@PLT
 1672      00
 1673 03d6 4889EF   		movq	%rbp, %rdi
 1674              	.LEHB37:
 1675 03d9 E8000000 		call	_Unwind_Resume@PLT
 1675      00
 1676              	.LEHE37:
 1677              	.L104:
 1678 03de 4C89E7   		movq	%r12, %rdi
 1679 03e1 E8000000 		call	_ZN8UnitTest15MemoryOutStreamD1Ev
 1679      00
 1680 03e6 4889EF   		movq	%rbp, %rdi
 1681              	.LEHB38:
 1682 03e9 E8000000 		call	_Unwind_Resume@PLT
 1682      00
 1683              	.LEHE38:
 1684              		.cfi_endproc
 1685              	.LFE1362:
 1686              		.section	.gcc_except_table
 1687              	.LLSDA1362:
 1688 0071 FF       		.byte	0xff
 1689 0072 FF       		.byte	0xff
 1690 0073 01       		.byte	0x1
 1691 0074 22       		.uleb128 .LLSDACSE1362-.LLSDACSB1362
 1692              	.LLSDACSB1362:
 1693 0075 8C02     		.uleb128 .LEHB33-.LFB1362
 1694 0077 05       		.uleb128 .LEHE33-.LEHB33
 1695 0078 9D07     		.uleb128 .L108-.LFB1362
 1696 007a 00       		.uleb128 0
 1697 007b AE03     		.uleb128 .LEHB34-.LFB1362
 1698 007d 05       		.uleb128 .LEHE34-.LEHB34
 1699 007e 8B07     		.uleb128 .L109-.LFB1362
 1700 0080 00       		.uleb128 0
 1701 0081 8304     		.uleb128 .LEHB35-.LFB1362
 1702 0083 EA01     		.uleb128 .LEHE35-.LEHB35
 1703 0085 9407     		.uleb128 .L107-.LFB1362
 1704 0087 00       		.uleb128 0
 1705 0088 FC06     		.uleb128 .LEHB36-.LFB1362
 1706 008a 05       		.uleb128 .LEHE36-.LEHB36
 1707 008b 00       		.uleb128 0
 1708 008c 00       		.uleb128 0
 1709 008d D907     		.uleb128 .LEHB37-.LFB1362
 1710 008f 05       		.uleb128 .LEHE37-.LEHB37
 1711 0090 00       		.uleb128 0
 1712 0091 00       		.uleb128 0
 1713 0092 E907     		.uleb128 .LEHB38-.LFB1362
 1714 0094 05       		.uleb128 .LEHE38-.LEHB38
 1715 0095 00       		.uleb128 0
 1716 0096 00       		.uleb128 0
 1717              	.LLSDACSE1362:
 1718              		.section	.text._ZN8UnitTest15CheckArrayEqualIPKcPhEEvRNS_11TestResultsERKT_RKT0_iRKNS_11TestDetail
 1720              		.section	.text._ZN8UnitTest15CheckArrayEqualIPKcPcEEvRNS_11TestResultsERKT_RKT0_iRKNS_11TestDetail
 1721              		.p2align 4
 1722              		.weak	_ZN8UnitTest15CheckArrayEqualIPKcPcEEvRNS_11TestResultsERKT_RKT0_iRKNS_11TestDetailsE
 1724              	_ZN8UnitTest15CheckArrayEqualIPKcPcEEvRNS_11TestResultsERKT_RKT0_iRKNS_11TestDetailsE:
 1725              	.LFB1375:
 1726              		.cfi_startproc
 1727              		.cfi_personality 0x9b,DW.ref.__gxx_personality_v0
 1728              		.cfi_lsda 0x1b,.LLSDA1375
 1729 0000 F30F1EFA 		endbr64
 1730 0004 4157     		pushq	%r15
 1731              		.cfi_def_cfa_offset 16
 1732              		.cfi_offset 15, -16
 1733 0006 4156     		pushq	%r14
 1734              		.cfi_def_cfa_offset 24
 1735              		.cfi_offset 14, -24
 1736 0008 4155     		pushq	%r13
 1737              		.cfi_def_cfa_offset 32
 1738              		.cfi_offset 13, -32
 1739 000a 4154     		pushq	%r12
 1740              		.cfi_def_cfa_offset 40
 1741              		.cfi_offset 12, -40
 1742 000c 55       		pushq	%rbp
 1743              		.cfi_def_cfa_offset 48
 1744              		.cfi_offset 6, -48
 1745 000d 53       		pushq	%rbx
 1746              		.cfi_def_cfa_offset 56
 1747              		.cfi_offset 3, -56
 1748 000e 4881ECF8 		subq	$504, %rsp
 1748      010000
 1749              		.cfi_def_cfa_offset 560
 1750 0015 F30F7E0D 		movq	.LC2(%rip), %xmm1
 1750      00000000 
 1751 001d 48897C24 		movq	%rdi, 16(%rsp)
 1751      10
 1752 0022 4C894424 		movq	%r8, 24(%rsp)
 1752      18
 1753 0027 0F160D00 		movhps	.LC3(%rip), %xmm1
 1753      000000
 1754 002e 64488B04 		movq	%fs:40, %rax
 1754      25280000 
 1754      00
 1755 0037 48898424 		movq	%rax, 488(%rsp)
 1755      E8010000 
 1756 003f 31C0     		xorl	%eax, %eax
 1757 0041 0F290C24 		movaps	%xmm1, (%rsp)
 1758 0045 85C9     		testl	%ecx, %ecx
 1759 0047 7E30     		jle	.L118
 1760 0049 488B3E   		movq	(%rsi), %rdi
 1761 004c 4989F5   		movq	%rsi, %r13
 1762 004f 4989D7   		movq	%rdx, %r15
 1763 0052 488B32   		movq	(%rdx), %rsi
 1764 0055 4863D9   		movslq	%ecx, %rbx
 1765 0058 BA010000 		movl	$1, %edx
 1765      00
 1766 005d 0F1F00   		.p2align 4,,10
 1767              		.p2align 3
 1768              	.L120:
 1769 0060 0FB60C06 		movzbl	(%rsi,%rax), %ecx
 1770 0064 380C07   		cmpb	%cl, (%rdi,%rax)
 1771 0067 0F94C1   		sete	%cl
 1772 006a 4883C001 		addq	$1, %rax
 1773 006e 21CA     		andl	%ecx, %edx
 1774 0070 4839C3   		cmpq	%rax, %rbx
 1775 0073 75EB     		jne	.L120
 1776 0075 84D2     		testb	%dl, %dl
 1777 0077 742F     		je	.L140
 1778              	.L118:
 1779 0079 488B8424 		movq	488(%rsp), %rax
 1779      E8010000 
 1780 0081 64482B04 		subq	%fs:40, %rax
 1780      25280000 
 1780      00
 1781 008a 0F85EE02 		jne	.L141
 1781      0000
 1782 0090 4881C4F8 		addq	$504, %rsp
 1782      010000
 1783              		.cfi_remember_state
 1784              		.cfi_def_cfa_offset 56
 1785 0097 5B       		popq	%rbx
 1786              		.cfi_def_cfa_offset 48
 1787 0098 5D       		popq	%rbp
 1788              		.cfi_def_cfa_offset 40
 1789 0099 415C     		popq	%r12
 1790              		.cfi_def_cfa_offset 32
 1791 009b 415D     		popq	%r13
 1792              		.cfi_def_cfa_offset 24
 1793 009d 415E     		popq	%r14
 1794              		.cfi_def_cfa_offset 16
 1795 009f 415F     		popq	%r15
 1796              		.cfi_def_cfa_offset 8
 1797 00a1 C3       		ret
 1798              		.p2align 4,,10
 1799 00a2 660F1F44 		.p2align 3
 1799      0000
 1800              	.L140:
 1801              		.cfi_restore_state
 1802 00a8 4C8DB424 		leaq	224(%rsp), %r14
 1802      E0000000 
 1803 00b0 4C89F7   		movq	%r14, %rdi
 1804 00b3 4C897424 		movq	%r14, 32(%rsp)
 1804      20
 1805 00b8 E8000000 		call	_ZNSt8ios_baseC2Ev@PLT
 1805      00
 1806 00bd 31C0     		xorl	%eax, %eax
 1807 00bf 660FEFC0 		pxor	%xmm0, %xmm0
 1808 00c3 31F6     		xorl	%esi, %esi
 1809 00c5 66898424 		movw	%ax, 448(%rsp)
 1809      C0010000 
 1810 00cd 488D0500 		leaq	24+_ZTCN8UnitTest15MemoryOutStreamE0_So(%rip), %rax
 1810      000000
 1811 00d4 4C89F7   		movq	%r14, %rdi
 1812 00d7 48894424 		movq	%rax, 80(%rsp)
 1812      50
 1813 00dc 4883C028 		addq	$40, %rax
 1814 00e0 48C78424 		movq	$0, 440(%rsp)
 1814      B8010000 
 1814      00000000 
 1815 00ec 48898424 		movq	%rax, 224(%rsp)
 1815      E0000000 
 1816 00f4 0F118424 		movups	%xmm0, 456(%rsp)
 1816      C8010000 
 1817 00fc 0F118424 		movups	%xmm0, 472(%rsp)
 1817      D8010000 
 1818              	.LEHB39:
 1819 0104 E8000000 		call	_ZNSt9basic_iosIcSt11char_traitsIcEE4initEPSt15basic_streambufIcS1_E@PLT
 1819      00
 1820              	.LEHE39:
 1821 0109 488D0500 		leaq	64+_ZTCN8UnitTest15MemoryOutStreamE0_NSt7__cxx1119basic_ostringstreamIcSt11char_traitsIcESaIc
 1821      000000
 1822 0110 660F6F1C 		movdqa	(%rsp), %xmm3
 1822      24
 1823 0115 660FEFC0 		pxor	%xmm0, %xmm0
 1824 0119 4C8D6424 		leaq	80(%rsp), %r12
 1824      50
 1825 011e 48898424 		movq	%rax, 224(%rsp)
 1825      E0000000 
 1826 0126 488D8424 		leaq	144(%rsp), %rax
 1826      90000000 
 1827 012e 488D6C24 		leaq	88(%rsp), %rbp
 1827      58
 1828 0133 4889C7   		movq	%rax, %rdi
 1829 0136 48894424 		movq	%rax, 56(%rsp)
 1829      38
 1830 013b 0F295C24 		movaps	%xmm3, 80(%rsp)
 1830      50
 1831 0140 0F294424 		movaps	%xmm0, 96(%rsp)
 1831      60
 1832 0145 0F294424 		movaps	%xmm0, 112(%rsp)
 1832      70
 1833 014a 0F298424 		movaps	%xmm0, 128(%rsp)
 1833      80000000 
 1834 0152 E8000000 		call	_ZNSt6localeC1Ev@PLT
 1834      00
 1835 0157 488D0500 		leaq	16+_ZTVNSt7__cxx1115basic_stringbufIcSt11char_traitsIcESaIcEEE(%rip), %rax
 1835      000000
 1836 015e C68424B0 		movb	$0, 176(%rsp)
 1836      00000000 
 1837 0166 4889EE   		movq	%rbp, %rsi
 1838 0169 48894424 		movq	%rax, 88(%rsp)
 1838      58
 1839 016e 488D8424 		leaq	176(%rsp), %rax
 1839      B0000000 
 1840 0176 48894424 		movq	%rax, 40(%rsp)
 1840      28
 1841 017b 48898424 		movq	%rax, 160(%rsp)
 1841      A0000000 
 1842 0183 488B4424 		movq	80(%rsp), %rax
 1842      50
 1843 0188 48C78424 		movq	$0, 168(%rsp)
 1843      A8000000 
 1843      00000000 
 1844 0194 C7842498 		movl	$16, 152(%rsp)
 1844      00000010 
 1844      000000
 1845 019f 488B78E8 		movq	-24(%rax), %rdi
 1846 01a3 4C01E7   		addq	%r12, %rdi
 1847              	.LEHB40:
 1848 01a6 E8000000 		call	_ZNSt9basic_iosIcSt11char_traitsIcEE4initEPSt15basic_streambufIcS1_E@PLT
 1848      00
 1849              	.LEHE40:
 1850 01ab 488D0500 		leaq	24+_ZTVN8UnitTest15MemoryOutStreamE(%rip), %rax
 1850      000000
 1851 01b2 BA0B0000 		movl	$11, %edx
 1851      00
 1852 01b7 4C89E7   		movq	%r12, %rdi
 1853 01ba 48C78424 		movq	$0, 200(%rsp)
 1853      C8000000 
 1853      00000000 
 1854 01c6 48894424 		movq	%rax, 80(%rsp)
 1854      50
 1855 01cb 4883C028 		addq	$40, %rax
 1856 01cf 488D3500 		leaq	.LC9(%rip), %rsi
 1856      000000
 1857 01d6 48898424 		movq	%rax, 224(%rsp)
 1857      E0000000 
 1858 01de 488D8424 		leaq	208(%rsp), %rax
 1858      D0000000 
 1859 01e6 48894424 		movq	%rax, 48(%rsp)
 1859      30
 1860 01eb 48898424 		movq	%rax, 192(%rsp)
 1860      C0000000 
 1861 01f3 C68424D0 		movb	$0, 208(%rsp)
 1861      00000000 
 1862              	.LEHB41:
 1863 01fb E8000000 		call	_ZSt16__ostream_insertIcSt11char_traitsIcEERSt13basic_ostreamIT_T0_ES6_PKS3_l@PLT
 1863      00
 1864 0200 488D4424 		leaq	78(%rsp), %rax
 1864      4E
 1865 0205 31ED     		xorl	%ebp, %ebp
 1866 0207 4C8D3500 		leaq	.LC10(%rip), %r14
 1866      000000
 1867 020e 48890424 		movq	%rax, (%rsp)
 1868              		.p2align 4,,10
 1869 0212 660F1F44 		.p2align 3
 1869      0000
 1870              	.L124:
 1871 0218 498B4500 		movq	0(%r13), %rax
 1872 021c 488B3424 		movq	(%rsp), %rsi
 1873 0220 BA010000 		movl	$1, %edx
 1873      00
 1874 0225 4C89E7   		movq	%r12, %rdi
 1875 0228 0FB60428 		movzbl	(%rax,%rbp), %eax
 1876 022c 8844244E 		movb	%al, 78(%rsp)
 1877 0230 E8000000 		call	_ZSt16__ostream_insertIcSt11char_traitsIcEERSt13basic_ostreamIT_T0_ES6_PKS3_l@PLT
 1877      00
 1878 0235 4889C7   		movq	%rax, %rdi
 1879 0238 BA010000 		movl	$1, %edx
 1879      00
 1880 023d 4C89F6   		movq	%r14, %rsi
 1881 0240 E8000000 		call	_ZSt16__ostream_insertIcSt11char_traitsIcEERSt13basic_ostreamIT_T0_ES6_PKS3_l@PLT
 1881      00
 1882 0245 4883C501 		addq	$1, %rbp
 1883 0249 4839EB   		cmpq	%rbp, %rbx
 1884 024c 75CA     		jne	.L124
 1885 024e BA0C0000 		movl	$12, %edx
 1885      00
 1886 0253 488D3500 		leaq	.LC11(%rip), %rsi
 1886      000000
 1887 025a 4C89E7   		movq	%r12, %rdi
 1888 025d E8000000 		call	_ZSt16__ostream_insertIcSt11char_traitsIcEERSt13basic_ostreamIT_T0_ES6_PKS3_l@PLT
 1888      00
 1889 0262 31ED     		xorl	%ebp, %ebp
 1890 0264 4C8D6C24 		leaq	79(%rsp), %r13
 1890      4F
 1891 0269 0F1F8000 		.p2align 4,,10
 1891      000000
 1892              		.p2align 3
 1893              	.L125:
 1894 0270 498B07   		movq	(%r15), %rax
 1895 0273 BA010000 		movl	$1, %edx
 1895      00
 1896 0278 4C89EE   		movq	%r13, %rsi
 1897 027b 4C89E7   		movq	%r12, %rdi
 1898 027e 0FB60428 		movzbl	(%rax,%rbp), %eax
 1899 0282 8844244F 		movb	%al, 79(%rsp)
 1900 0286 E8000000 		call	_ZSt16__ostream_insertIcSt11char_traitsIcEERSt13basic_ostreamIT_T0_ES6_PKS3_l@PLT
 1900      00
 1901 028b 4889C7   		movq	%rax, %rdi
 1902 028e BA010000 		movl	$1, %edx
 1902      00
 1903 0293 4C89F6   		movq	%r14, %rsi
 1904 0296 E8000000 		call	_ZSt16__ostream_insertIcSt11char_traitsIcEERSt13basic_ostreamIT_T0_ES6_PKS3_l@PLT
 1904      00
 1905 029b 4883C501 		addq	$1, %rbp
 1906 029f 4839EB   		cmpq	%rbp, %rbx
 1907 02a2 75CC     		jne	.L125
 1908 02a4 BA010000 		movl	$1, %edx
 1908      00
 1909 02a9 488D3500 		leaq	.LC12(%rip), %rsi
 1909      000000
 1910 02b0 4C89E7   		movq	%r12, %rdi
 1911 02b3 E8000000 		call	_ZSt16__ostream_insertIcSt11char_traitsIcEERSt13basic_ostreamIT_T0_ES6_PKS3_l@PLT
 1911      00
 1912 02b8 4C89E7   		movq	%r12, %rdi
 1913 02bb E8000000 		call	_ZNK8UnitTest15MemoryOutStream7GetTextEv@PLT
 1913      00
 1914 02c0 488B7424 		movq	24(%rsp), %rsi
 1914      18
 1915 02c5 488B7C24 		movq	16(%rsp), %rdi
 1915      10
 1916 02ca 4889C2   		movq	%rax, %rdx
 1917 02cd F30F7E15 		movq	.LC2(%rip), %xmm2
 1917      00000000 
 1918 02d5 0F161500 		movhps	.LC4(%rip), %xmm2
 1918      000000
 1919 02dc 0F291424 		movaps	%xmm2, (%rsp)
 1920 02e0 E8000000 		call	_ZN8UnitTest11TestResults13OnTestFailureERKNS_11TestDetailsEPKc@PLT
 1920      00
 1921              	.LEHE41:
 1922 02e5 488D0500 		leaq	24+_ZTVN8UnitTest15MemoryOutStreamE(%rip), %rax
 1922      000000
 1923 02ec 488BBC24 		movq	192(%rsp), %rdi
 1923      C0000000 
 1924 02f4 48894424 		movq	%rax, 80(%rsp)
 1924      50
 1925 02f9 4883C028 		addq	$40, %rax
 1926 02fd 48898424 		movq	%rax, 224(%rsp)
 1926      E0000000 
 1927 0305 483B7C24 		cmpq	48(%rsp), %rdi
 1927      30
 1928 030a 7405     		je	.L126
 1929 030c E8000000 		call	_ZdlPv@PLT
 1929      00
 1930              	.L126:
 1931 0311 660F6F24 		movdqa	(%rsp), %xmm4
 1931      24
 1932 0316 488D0500 		leaq	64+_ZTCN8UnitTest15MemoryOutStreamE0_NSt7__cxx1119basic_ostringstreamIcSt11char_traitsIcESaIc
 1932      000000
 1933 031d 488BBC24 		movq	160(%rsp), %rdi
 1933      A0000000 
 1934 0325 48898424 		movq	%rax, 224(%rsp)
 1934      E0000000 
 1935 032d 0F296424 		movaps	%xmm4, 80(%rsp)
 1935      50
 1936 0332 483B7C24 		cmpq	40(%rsp), %rdi
 1936      28
 1937 0337 7405     		je	.L127
 1938 0339 E8000000 		call	_ZdlPv@PLT
 1938      00
 1939              	.L127:
 1940 033e 488B7C24 		movq	56(%rsp), %rdi
 1940      38
 1941 0343 488D0500 		leaq	16+_ZTVSt15basic_streambufIcSt11char_traitsIcEE(%rip), %rax
 1941      000000
 1942 034a 48894424 		movq	%rax, 88(%rsp)
 1942      58
 1943 034f E8000000 		call	_ZNSt6localeD1Ev@PLT
 1943      00
 1944 0354 488D0500 		leaq	24+_ZTCN8UnitTest15MemoryOutStreamE0_So(%rip), %rax
 1944      000000
 1945 035b 488B7C24 		movq	32(%rsp), %rdi
 1945      20
 1946 0360 48894424 		movq	%rax, 80(%rsp)
 1946      50
 1947 0365 488D0500 		leaq	16+_ZTVSt9basic_iosIcSt11char_traitsIcEE(%rip), %rax
 1947      000000
 1948 036c 48898424 		movq	%rax, 224(%rsp)
 1948      E0000000 
 1949              	.LEHB42:
 1950 0374 E8000000 		call	_ZNSt8ios_baseD2Ev@PLT
 1950      00
 1951              	.LEHE42:
 1952 0379 E9FBFCFF 		jmp	.L118
 1952      FF
 1953              	.L141:
 1954 037e E8000000 		call	__stack_chk_fail@PLT
 1954      00
 1955              	.L133:
 1956 0383 F30F1EFA 		endbr64
 1957 0387 4889C3   		movq	%rax, %rbx
 1958 038a EB12     		jmp	.L122
 1959              	.L131:
 1960 038c F30F1EFA 		endbr64
 1961 0390 4889C5   		movq	%rax, %rbp
 1962 0393 EB41     		jmp	.L128
 1963              	.L132:
 1964 0395 F30F1EFA 		endbr64
 1965 0399 4889C5   		movq	%rax, %rbp
 1966 039c EB17     		jmp	.L123
 1967              	.L122:
 1968 039e 4889EF   		movq	%rbp, %rdi
 1969 03a1 4889DD   		movq	%rbx, %rbp
 1970 03a4 E8000000 		call	_ZNSt7__cxx1115basic_stringbufIcSt11char_traitsIcESaIcEED1Ev
 1970      00
 1971 03a9 488D0500 		leaq	24+_ZTCN8UnitTest15MemoryOutStreamE0_So(%rip), %rax
 1971      000000
 1972 03b0 48894424 		movq	%rax, 80(%rsp)
 1972      50
 1973              	.L123:
 1974 03b5 488B7C24 		movq	32(%rsp), %rdi
 1974      20
 1975 03ba 488D0500 		leaq	16+_ZTVSt9basic_iosIcSt11char_traitsIcEE(%rip), %rax
 1975      000000
 1976 03c1 48898424 		movq	%rax, 224(%rsp)
 1976      E0000000 
 1977 03c9 E8000000 		call	_ZNSt8ios_baseD2Ev@PLT
 1977      00
 1978 03ce 4889EF   		movq	%rbp, %rdi
 1979              	.LEHB43:
 1980 03d1 E8000000 		call	_Unwind_Resume@PLT
 1980      00
 1981              	.LEHE43:
 1982              	.L128:
 1983 03d6 4C89E7   		movq	%r12, %rdi
 1984 03d9 E8000000 		call	_ZN8UnitTest15MemoryOutStreamD1Ev
 1984      00
 1985 03de 4889EF   		movq	%rbp, %rdi
 1986              	.LEHB44:
 1987 03e1 E8000000 		call	_Unwind_Resume@PLT
 1987      00
 1988              	.LEHE44:
 1989              		.cfi_endproc
 1990              	.LFE1375:
 1991              		.section	.gcc_except_table
 1992              	.LLSDA1375:
 1993 0097 FF       		.byte	0xff
 1994 0098 FF       		.byte	0xff
 1995 0099 01       		.byte	0x1
 1996 009a 22       		.uleb128 .LLSDACSE1375-.LLSDACSB1375
 1997              	.LLSDACSB1375:
 1998 009b 8402     		.uleb128 .LEHB39-.LFB1375
 1999 009d 05       		.uleb128 .LEHE39-.LEHB39
 2000 009e 9507     		.uleb128 .L132-.LFB1375
 2001 00a0 00       		.uleb128 0
 2002 00a1 A603     		.uleb128 .LEHB40-.LFB1375
 2003 00a3 05       		.uleb128 .LEHE40-.LEHB40
 2004 00a4 8307     		.uleb128 .L133-.LFB1375
 2005 00a6 00       		.uleb128 0
 2006 00a7 FB03     		.uleb128 .LEHB41-.LFB1375
 2007 00a9 EA01     		.uleb128 .LEHE41-.LEHB41
 2008 00ab 8C07     		.uleb128 .L131-.LFB1375
 2009 00ad 00       		.uleb128 0
 2010 00ae F406     		.uleb128 .LEHB42-.LFB1375
 2011 00b0 05       		.uleb128 .LEHE42-.LEHB42
 2012 00b1 00       		.uleb128 0
 2013 00b2 00       		.uleb128 0
 2014 00b3 D107     		.uleb128 .LEHB43-.LFB1375
 2015 00b5 05       		.uleb128 .LEHE43-.LEHB43
 2016 00b6 00       		.uleb128 0
 2017 00b7 00       		.uleb128 0
 2018 00b8 E107     		.uleb128 .LEHB44-.LFB1375
 2019 00ba 05       		.uleb128 .LEHE44-.LEHB44
 2020 00bb 00       		.uleb128 0
 2021 00bc 00       		.uleb128 0
 2022              	.LLSDACSE1375:
 2023              		.section	.text._ZN8UnitTest15CheckArrayEqualIPKcPcEEvRNS_11TestResultsERKT_RKT0_iRKNS_11TestDetail
 2025              		.section	.rodata.str1.1
 2026              	.LC13:
 2027 0014 4A757374 		.string	"Just some test data"
 2027      20736F6D 
 2027      65207465 
 2027      73742064 
 2027      61746100 
 2028              	.LC14:
 2029 0028 746D7046 		.string	"tmpFile.bin"
 2029      696C652E 
 2029      62696E00 
 2030              		.section	.rodata.str1.8
 2031 006e 0000     		.align 8
 2032              	.LC15:
 2033 0070 556E6861 		.string	"Unhandled exception in CHECK_EQUAL(strlen(DATA), buf.length)"
 2033      6E646C65 
 2033      64206578 
 2033      63657074 
 2033      696F6E20 
 2034 00ad 000000   		.align 8
 2035              	.LC16:
 2036 00b0 556E6861 		.string	"Unhandled exception in CHECK_ARRAY_EQUAL(DATA, buf.data)"
 2036      6E646C65 
 2036      64206578 
 2036      63657074 
 2036      696F6E20 
 2037 00e9 00000000 		.align 8
 2037      000000
 2038              	.LC17:
 2039 00f0 556E6861 		.string	"Unhandled exception in CHECK_EQUAL(2 * strlen(DATA), buf.length)"
 2039      6E646C65 
 2039      64206578 
 2039      63657074 
 2039      696F6E20 
 2040 0131 00000000 		.align 8
 2040      000000
 2041              	.LC18:
 2042 0138 556E6861 		.string	"Unhandled exception in CHECK_ARRAY_EQUAL(DATA, buf.data + strlen(DATA))"
 2042      6E646C65 
 2042      64206578 
 2042      63657074 
 2042      696F6E20 
 2043              		.section	.text.unlikely
 2044 00a9 90       		.align 2
 2045              	.LCOLDB20:
 2046              		.text
 2047              	.LHOTB20:
 2048              		.align 2
 2049 00fe 6690     		.p2align 4
 2050              		.globl	_ZNK30TestBinIO_testReadExistingFile7RunImplEv
 2052              	_ZNK30TestBinIO_testReadExistingFile7RunImplEv:
 2053              	.LFB1314:
 2054              		.cfi_startproc
 2055              		.cfi_personality 0x9b,DW.ref.__gxx_personality_v0
 2056              		.cfi_lsda 0x1b,.LLSDA1314
 2057 0100 F30F1EFA 		endbr64
 2058 0104 4157     		pushq	%r15
 2059              		.cfi_def_cfa_offset 16
 2060              		.cfi_offset 15, -16
 2061 0106 4156     		pushq	%r14
 2062              		.cfi_def_cfa_offset 24
 2063              		.cfi_offset 14, -24
 2064 0108 4155     		pushq	%r13
 2065              		.cfi_def_cfa_offset 32
 2066              		.cfi_offset 13, -32
 2067 010a 4C8D2D00 		leaq	.LC13(%rip), %r13
 2067      000000
 2068 0111 4154     		pushq	%r12
 2069              		.cfi_def_cfa_offset 40
 2070              		.cfi_offset 12, -40
 2071 0113 55       		pushq	%rbp
 2072              		.cfi_def_cfa_offset 48
 2073              		.cfi_offset 6, -48
 2074 0114 53       		pushq	%rbx
 2075              		.cfi_def_cfa_offset 56
 2076              		.cfi_offset 3, -56
 2077 0115 4881EC78 		subq	$1144, %rsp
 2077      040000
 2078              		.cfi_def_cfa_offset 1200
 2079 011c 4C8DB424 		leaq	856(%rsp), %r14
 2079      58030000 
 2080 0124 488D9C24 		leaq	608(%rsp), %rbx
 2080      60020000 
 2081 012c 64488B04 		movq	%fs:40, %rax
 2081      25280000 
 2081      00
 2082 0135 48898424 		movq	%rax, 1128(%rsp)
 2082      68040000 
 2083 013d 31C0     		xorl	%eax, %eax
 2084 013f 4C89F7   		movq	%r14, %rdi
 2085 0142 48895C24 		movq	%rbx, 32(%rsp)
 2085      20
 2086 0147 4C896C24 		movq	%r13, 112(%rsp)
 2086      70
 2087 014c 4C897424 		movq	%r14, 40(%rsp)
 2087      28
 2088 0151 E8000000 		call	_ZNSt8ios_baseC2Ev@PLT
 2088      00
 2089 0156 488D0500 		leaq	16+_ZTVSt9basic_iosIcSt11char_traitsIcEE(%rip), %rax
 2089      000000
 2090 015d 31D2     		xorl	%edx, %edx
 2091 015f 31F6     		xorl	%esi, %esi
 2092 0161 48898424 		movq	%rax, 856(%rsp)
 2092      58030000 
 2093 0169 660FEFC0 		pxor	%xmm0, %xmm0
 2094 016d 488B0500 		movq	8+_ZTTSt14basic_ofstreamIcSt11char_traitsIcEE(%rip), %rax
 2094      000000
 2095 0174 66899424 		movw	%dx, 1080(%rsp)
 2095      38040000 
 2096 017c 48898424 		movq	%rax, 608(%rsp)
 2096      60020000 
 2097 0184 0F298424 		movaps	%xmm0, 1088(%rsp)
 2097      40040000 
 2098 018c 0F298424 		movaps	%xmm0, 1104(%rsp)
 2098      50040000 
 2099 0194 480358E8 		addq	-24(%rax), %rbx
 2100 0198 488B0500 		movq	16+_ZTTSt14basic_ofstreamIcSt11char_traitsIcEE(%rip), %rax
 2100      000000
 2101 019f 48C78424 		movq	$0, 1072(%rsp)
 2101      30040000 
 2101      00000000 
 2102 01ab 4889DF   		movq	%rbx, %rdi
 2103 01ae 488903   		movq	%rax, (%rbx)
 2104              	.LEHB45:
 2105 01b1 E8000000 		call	_ZNSt9basic_iosIcSt11char_traitsIcEE4initEPSt15basic_streambufIcS1_E@PLT
 2105      00
 2106              	.LEHE45:
 2107 01b6 488D0500 		leaq	24+_ZTVSt14basic_ofstreamIcSt11char_traitsIcEE(%rip), %rax
 2107      000000
 2108 01bd 48898424 		movq	%rax, 608(%rsp)
 2108      60020000 
 2109 01c5 4883C028 		addq	$40, %rax
 2110 01c9 48898424 		movq	%rax, 856(%rsp)
 2110      58030000 
 2111 01d1 488D8424 		leaq	616(%rsp), %rax
 2111      68020000 
 2112 01d9 4889C7   		movq	%rax, %rdi
 2113 01dc 48894424 		movq	%rax, 8(%rsp)
 2113      08
 2114 01e1 4889C3   		movq	%rax, %rbx
 2115              	.LEHB46:
 2116 01e4 E8000000 		call	_ZNSt13basic_filebufIcSt11char_traitsIcEEC1Ev@PLT
 2116      00
 2117              	.LEHE46:
 2118 01e9 4889DE   		movq	%rbx, %rsi
 2119 01ec 4C89F7   		movq	%r14, %rdi
 2120              	.LEHB47:
 2121 01ef E8000000 		call	_ZNSt9basic_iosIcSt11char_traitsIcEE4initEPSt15basic_streambufIcS1_E@PLT
 2121      00
 2122              	.LEHE47:
 2123 01f4 488D8424 		leaq	128(%rsp), %rax
 2123      80000000 
 2124 01fc 31C9     		xorl	%ecx, %ecx
 2125 01fe 31D2     		xorl	%edx, %edx
 2126 0200 BE080000 		movl	$8, %esi
 2126      00
 2127 0205 4889C7   		movq	%rax, %rdi
 2128 0208 48890424 		movq	%rax, (%rsp)
 2129              	.LEHB48:
 2130 020c E8000000 		call	bufInitialise@PLT
 2130      00
 2131              	.LEHE48:
 2132 0211 8944246C 		movl	%eax, 108(%rsp)
 2133              	.LEHB49:
 2134 0215 E8000000 		call	_ZN8UnitTest11CurrentTest7DetailsEv@PLT
 2134      00
 2135 021a 488DAC24 		leaq	160(%rsp), %rbp
 2135      A0000000 
 2136 0222 488B30   		movq	(%rax), %rsi
 2137 0225 BA270000 		movl	$39, %edx
 2137      00
 2138 022a 4889EF   		movq	%rbp, %rdi
 2139 022d E8000000 		call	_ZN8UnitTest11TestDetailsC1ERKS0_i@PLT
 2139      00
 2140 0232 C7442478 		movl	$0, 120(%rsp)
 2140      00000000 
 2141 023a E8000000 		call	_ZN8UnitTest11CurrentTest7ResultsEv@PLT
 2141      00
 2142 023f 4C8D7C24 		leaq	120(%rsp), %r15
 2142      78
 2143 0244 488B38   		movq	(%rax), %rdi
 2144 0247 488D5424 		leaq	108(%rsp), %rdx
 2144      6C
 2145 024c 4889E9   		movq	%rbp, %rcx
 2146 024f 4C89FE   		movq	%r15, %rsi
 2147 0252 E8000000 		call	_ZN8UnitTest10CheckEqualI12BufferStatusS1_EEvRNS_11TestResultsERKT_RKT0_RKNS_11TestDetailsE
 2147      00
 2148              	.LEHE49:
 2149              	.L168:
 2150 0257 4C8D2500 		leaq	.LC14(%rip), %r12
 2150      000000
 2151 025e 488B7C24 		movq	8(%rsp), %rdi
 2151      08
 2152 0263 BA140000 		movl	$20, %edx
 2152      00
 2153 0268 4C89E6   		movq	%r12, %rsi
 2154              	.LEHB50:
 2155 026b E8000000 		call	_ZNSt13basic_filebufIcSt11char_traitsIcEE4openEPKcSt13_Ios_Openmode@PLT
 2155      00
 2156 0270 488B9424 		movq	608(%rsp), %rdx
 2156      60020000 
 2157 0278 488B7C24 		movq	32(%rsp), %rdi
 2157      20
 2158 027d 48037AE8 		addq	-24(%rdx), %rdi
 2159 0281 4885C0   		testq	%rax, %rax
 2160 0284 0F84D605 		je	.L222
 2160      0000
 2161 028a 31F6     		xorl	%esi, %esi
 2162 028c E8000000 		call	_ZNSt9basic_iosIcSt11char_traitsIcEE5clearESt12_Ios_Iostate@PLT
 2162      00
 2163              	.L148:
 2164 0291 488B7C24 		movq	32(%rsp), %rdi
 2164      20
 2165 0296 BA130000 		movl	$19, %edx
 2165      00
 2166 029b 4C89EE   		movq	%r13, %rsi
 2167 029e E8000000 		call	_ZSt16__ostream_insertIcSt11char_traitsIcEERSt13basic_ostreamIT_T0_ES6_PKS3_l@PLT
 2167      00
 2168 02a3 488B7C24 		movq	8(%rsp), %rdi
 2168      08
 2169 02a8 E8000000 		call	_ZNSt13basic_filebufIcSt11char_traitsIcEE5closeEv@PLT
 2169      00
 2170 02ad 4885C0   		testq	%rax, %rax
 2171 02b0 0F84BA05 		je	.L223
 2171      0000
 2172              	.L149:
 2173 02b6 488B3C24 		movq	(%rsp), %rdi
 2174 02ba 31D2     		xorl	%edx, %edx
 2175 02bc 4C89E6   		movq	%r12, %rsi
 2176 02bf E8000000 		call	bufAppendFromBinaryFile@PLT
 2176      00
 2177              	.LEHE50:
 2178 02c4 8944246C 		movl	%eax, 108(%rsp)
 2179              	.LEHB51:
 2180 02c8 E8000000 		call	_ZN8UnitTest11CurrentTest7DetailsEv@PLT
 2180      00
 2181 02cd 488B30   		movq	(%rax), %rsi
 2182 02d0 BA2C0000 		movl	$44, %edx
 2182      00
 2183 02d5 4889EF   		movq	%rbp, %rdi
 2184 02d8 E8000000 		call	_ZN8UnitTest11TestDetailsC1ERKS0_i@PLT
 2184      00
 2185 02dd C7442478 		movl	$0, 120(%rsp)
 2185      00000000 
 2186 02e5 E8000000 		call	_ZN8UnitTest11CurrentTest7ResultsEv@PLT
 2186      00
 2187 02ea 4C8D7C24 		leaq	120(%rsp), %r15
 2187      78
 2188 02ef 488B38   		movq	(%rax), %rdi
 2189 02f2 488D5424 		leaq	108(%rsp), %rdx
 2189      6C
 2190 02f7 4889E9   		movq	%rbp, %rcx
 2191 02fa 4C89FE   		movq	%r15, %rsi
 2192 02fd E8000000 		call	_ZN8UnitTest10CheckEqualI12BufferStatusS1_EEvRNS_11TestResultsERKT_RKT0_RKNS_11TestDetailsE
 2192      00
 2193              	.LEHE51:
 2194              	.L172:
 2195              	.LEHB52:
 2196 0302 E8000000 		call	_ZN8UnitTest11CurrentTest7DetailsEv@PLT
 2196      00
 2197 0307 488B30   		movq	(%rax), %rsi
 2198 030a BA2D0000 		movl	$45, %edx
 2198      00
 2199 030f 4889EF   		movq	%rbp, %rdi
 2200 0312 E8000000 		call	_ZN8UnitTest11TestDetailsC1ERKS0_i@PLT
 2200      00
 2201 0317 48C74424 		movq	$19, 120(%rsp)
 2201      78130000 
 2201      00
 2202 0320 E8000000 		call	_ZN8UnitTest11CurrentTest7ResultsEv@PLT
 2202      00
 2203 0325 4C8D7C24 		leaq	120(%rsp), %r15
 2203      78
 2204 032a 488B38   		movq	(%rax), %rdi
 2205 032d 488D9424 		leaq	136(%rsp), %rdx
 2205      88000000 
 2206 0335 4889E9   		movq	%rbp, %rcx
 2207 0338 4C89FE   		movq	%r15, %rsi
 2208 033b E8000000 		call	_ZN8UnitTest10CheckEqualImmEEvRNS_11TestResultsERKT_RKT0_RKNS_11TestDetailsE
 2208      00
 2209              	.LEHE52:
 2210              	.L175:
 2211              	.LEHB53:
 2212 0340 E8000000 		call	_ZN8UnitTest11CurrentTest7DetailsEv@PLT
 2212      00
 2213 0345 488B30   		movq	(%rax), %rsi
 2214 0348 BA2E0000 		movl	$46, %edx
 2214      00
 2215 034d 4889EF   		movq	%rbp, %rdi
 2216 0350 E8000000 		call	_ZN8UnitTest11TestDetailsC1ERKS0_i@PLT
 2216      00
 2217 0355 448BAC24 		movl	136(%rsp), %r13d
 2217      88000000 
 2218 035d E8000000 		call	_ZN8UnitTest11CurrentTest7ResultsEv@PLT
 2218      00
 2219 0362 488B1424 		movq	(%rsp), %rdx
 2220 0366 488B38   		movq	(%rax), %rdi
 2221 0369 488D7424 		leaq	112(%rsp), %rsi
 2221      70
 2222 036e 4989E8   		movq	%rbp, %r8
 2223 0371 4489E9   		movl	%r13d, %ecx
 2224 0374 E8000000 		call	_ZN8UnitTest15CheckArrayEqualIPKcPhEEvRNS_11TestResultsERKT_RKT0_iRKNS_11TestDetailsE
 2224      00
 2225              	.LEHE53:
 2226              	.L178:
 2227 0379 488B3C24 		movq	(%rsp), %rdi
 2228 037d 31D2     		xorl	%edx, %edx
 2229 037f 4C89E6   		movq	%r12, %rsi
 2230              	.LEHB54:
 2231 0382 E8000000 		call	bufAppendFromBinaryFile@PLT
 2231      00
 2232              	.LEHE54:
 2233 0387 8944246C 		movl	%eax, 108(%rsp)
 2234              	.LEHB55:
 2235 038b E8000000 		call	_ZN8UnitTest11CurrentTest7DetailsEv@PLT
 2235      00
 2236 0390 488B30   		movq	(%rax), %rsi
 2237 0393 BA300000 		movl	$48, %edx
 2237      00
 2238 0398 4889EF   		movq	%rbp, %rdi
 2239 039b E8000000 		call	_ZN8UnitTest11TestDetailsC1ERKS0_i@PLT
 2239      00
 2240 03a0 C7442478 		movl	$0, 120(%rsp)
 2240      00000000 
 2241 03a8 E8000000 		call	_ZN8UnitTest11CurrentTest7ResultsEv@PLT
 2241      00
 2242 03ad 4C8D7C24 		leaq	120(%rsp), %r15
 2242      78
 2243 03b2 488B38   		movq	(%rax), %rdi
 2244 03b5 488D5424 		leaq	108(%rsp), %rdx
 2244      6C
 2245 03ba 4889E9   		movq	%rbp, %rcx
 2246 03bd 4C89FE   		movq	%r15, %rsi
 2247 03c0 E8000000 		call	_ZN8UnitTest10CheckEqualI12BufferStatusS1_EEvRNS_11TestResultsERKT_RKT0_RKNS_11TestDetailsE
 2247      00
 2248              	.LEHE55:
 2249              	.L181:
 2250              	.LEHB56:
 2251 03c5 E8000000 		call	_ZN8UnitTest11CurrentTest7DetailsEv@PLT
 2251      00
 2252 03ca 488B30   		movq	(%rax), %rsi
 2253 03cd BA310000 		movl	$49, %edx
 2253      00
 2254 03d2 4889EF   		movq	%rbp, %rdi
 2255 03d5 E8000000 		call	_ZN8UnitTest11TestDetailsC1ERKS0_i@PLT
 2255      00
 2256 03da 48C74424 		movq	$38, 120(%rsp)
 2256      78260000 
 2256      00
 2257 03e3 E8000000 		call	_ZN8UnitTest11CurrentTest7ResultsEv@PLT
 2257      00
 2258 03e8 4C8D7C24 		leaq	120(%rsp), %r15
 2258      78
 2259 03ed 488B38   		movq	(%rax), %rdi
 2260 03f0 488D9424 		leaq	136(%rsp), %rdx
 2260      88000000 
 2261 03f8 4889E9   		movq	%rbp, %rcx
 2262 03fb 4C89FE   		movq	%r15, %rsi
 2263 03fe E8000000 		call	_ZN8UnitTest10CheckEqualImmEEvRNS_11TestResultsERKT_RKT0_RKNS_11TestDetailsE
 2263      00
 2264              	.LEHE56:
 2265              	.L184:
 2266              	.LEHB57:
 2267 0403 E8000000 		call	_ZN8UnitTest11CurrentTest7DetailsEv@PLT
 2267      00
 2268 0408 488B30   		movq	(%rax), %rsi
 2269 040b BA320000 		movl	$50, %edx
 2269      00
 2270 0410 4889EF   		movq	%rbp, %rdi
 2271 0413 E8000000 		call	_ZN8UnitTest11TestDetailsC1ERKS0_i@PLT
 2271      00
 2272 0418 4C8BBC24 		movq	128(%rsp), %r15
 2272      80000000 
 2273 0420 498D4713 		leaq	19(%r15), %rax
 2274 0424 48894424 		movq	%rax, 48(%rsp)
 2274      30
 2275 0429 E8000000 		call	_ZN8UnitTest11CurrentTest7ResultsEv@PLT
 2275      00
 2276              	.LEHE57:
 2277 042e 488B00   		movq	(%rax), %rax
 2278 0431 488B5C24 		movq	112(%rsp), %rbx
 2278      70
 2279 0436 BA010000 		movl	$1, %edx
 2279      00
 2280 043b F30F7E0D 		movq	.LC2(%rip), %xmm1
 2280      00000000 
 2281 0443 48894424 		movq	%rax, 56(%rsp)
 2281      38
 2282 0448 31C0     		xorl	%eax, %eax
 2283 044a 0F160D00 		movhps	.LC3(%rip), %xmm1
 2283      000000
 2284 0451 0F294C24 		movaps	%xmm1, 16(%rsp)
 2284      10
 2285 0456 662E0F1F 		.p2align 4,,10
 2285      84000000 
 2285      0000
 2286              		.p2align 3
 2287              	.L150:
 2288 0460 410FB64C 		movzbl	19(%r15,%rax), %ecx
 2288      0713
 2289 0466 0FBE3403 		movsbl	(%rbx,%rax), %esi
 2290 046a 39CE     		cmpl	%ecx, %esi
 2291 046c 0F94C1   		sete	%cl
 2292 046f 4883C001 		addq	$1, %rax
 2293 0473 21CA     		andl	%ecx, %edx
 2294 0475 4883F813 		cmpq	$19, %rax
 2295 0479 75E5     		jne	.L150
 2296 047b 84D2     		testb	%dl, %dl
 2297 047d 0F84DD00 		je	.L224
 2297      0000
 2298              	.L161:
 2299 0483 F30F7E15 		movq	.LC19(%rip), %xmm2
 2299      00000000 
 2300 048b 488D0500 		leaq	16+_ZTVSt13basic_filebufIcSt11char_traitsIcEE(%rip), %rax
 2300      000000
 2301 0492 488B3C24 		movq	(%rsp), %rdi
 2302 0496 66480F6E 		movq	%rax, %xmm3
 2302      D8
 2303 049b 660F6CD3 		punpcklqdq	%xmm3, %xmm2
 2304 049f 0F295424 		movaps	%xmm2, 16(%rsp)
 2304      10
 2305              	.LEHB58:
 2306 04a4 E8000000 		call	bufDestroy@PLT
 2306      00
 2307              	.LEHE58:
 2308 04a9 660F6F54 		movdqa	16(%rsp), %xmm2
 2308      2410
 2309 04af 488B7C24 		movq	8(%rsp), %rdi
 2309      08
 2310 04b4 488D0500 		leaq	64+_ZTVSt14basic_ofstreamIcSt11char_traitsIcEE(%rip), %rax
 2310      000000
 2311 04bb 48898424 		movq	%rax, 856(%rsp)
 2311      58030000 
 2312 04c3 0F299424 		movaps	%xmm2, 608(%rsp)
 2312      60020000 
 2313              	.LEHB59:
 2314 04cb E8000000 		call	_ZNSt13basic_filebufIcSt11char_traitsIcEE5closeEv@PLT
 2314      00
 2315              	.LEHE59:
 2316              	.L164:
 2317 04d0 488DBC24 		leaq	720(%rsp), %rdi
 2317      D0020000 
 2318              	.LEHB60:
 2319 04d8 E8000000 		call	_ZNSt12__basic_fileIcED1Ev@PLT
 2319      00
 2320              	.LEHE60:
 2321 04dd 488D0500 		leaq	16+_ZTVSt15basic_streambufIcSt11char_traitsIcEE(%rip), %rax
 2321      000000
 2322 04e4 488DBC24 		leaq	672(%rsp), %rdi
 2322      A0020000 
 2323 04ec 48898424 		movq	%rax, 616(%rsp)
 2323      68020000 
 2324 04f4 E8000000 		call	_ZNSt6localeD1Ev@PLT
 2324      00
 2325 04f9 488B0500 		movq	8+_ZTTSt14basic_ofstreamIcSt11char_traitsIcEE(%rip), %rax
 2325      000000
 2326 0500 488B7C24 		movq	40(%rsp), %rdi
 2326      28
 2327 0505 488B1D00 		movq	16+_ZTTSt14basic_ofstreamIcSt11char_traitsIcEE(%rip), %rbx
 2327      000000
 2328 050c 48898424 		movq	%rax, 608(%rsp)
 2328      60020000 
 2329 0514 488B40E8 		movq	-24(%rax), %rax
 2330 0518 48899C04 		movq	%rbx, 608(%rsp,%rax)
 2330      60020000 
 2331 0520 488D0500 		leaq	16+_ZTVSt9basic_iosIcSt11char_traitsIcEE(%rip), %rax
 2331      000000
 2332 0527 48898424 		movq	%rax, 856(%rsp)
 2332      58030000 
 2333              	.LEHB61:
 2334 052f E8000000 		call	_ZNSt8ios_baseD2Ev@PLT
 2334      00
 2335              	.LEHE61:
 2336 0534 488B8424 		movq	1128(%rsp), %rax
 2336      68040000 
 2337 053c 64482B04 		subq	%fs:40, %rax
 2337      25280000 
 2337      00
 2338 0545 0F854603 		jne	.L225
 2338      0000
 2339 054b 4881C478 		addq	$1144, %rsp
 2339      040000
 2340              		.cfi_remember_state
 2341              		.cfi_def_cfa_offset 56
 2342 0552 5B       		popq	%rbx
 2343              		.cfi_def_cfa_offset 48
 2344 0553 5D       		popq	%rbp
 2345              		.cfi_def_cfa_offset 40
 2346 0554 415C     		popq	%r12
 2347              		.cfi_def_cfa_offset 32
 2348 0556 415D     		popq	%r13
 2349              		.cfi_def_cfa_offset 24
 2350 0558 415E     		popq	%r14
 2351              		.cfi_def_cfa_offset 16
 2352 055a 415F     		popq	%r15
 2353              		.cfi_def_cfa_offset 8
 2354 055c C3       		ret
 2355 055d 0F1F00   		.p2align 4,,10
 2356              		.p2align 3
 2357              	.L224:
 2358              		.cfi_restore_state
 2359 0560 4C8DB424 		leaq	336(%rsp), %r14
 2359      50010000 
 2360 0568 4C89F7   		movq	%r14, %rdi
 2361 056b 4C897424 		movq	%r14, 64(%rsp)
 2361      40
 2362 0570 E8000000 		call	_ZNSt8ios_baseC2Ev@PLT
 2362      00
 2363 0575 31C0     		xorl	%eax, %eax
 2364 0577 660FEFC0 		pxor	%xmm0, %xmm0
 2365 057b 31F6     		xorl	%esi, %esi
 2366 057d 66898424 		movw	%ax, 560(%rsp)
 2366      30020000 
 2367 0585 488D0500 		leaq	24+_ZTCN8UnitTest15MemoryOutStreamE0_So(%rip), %rax
 2367      000000
 2368 058c 4C89F7   		movq	%r14, %rdi
 2369 058f 48898424 		movq	%rax, 192(%rsp)
 2369      C0000000 
 2370 0597 4883C028 		addq	$40, %rax
 2371 059b 48C78424 		movq	$0, 552(%rsp)
 2371      28020000 
 2371      00000000 
 2372 05a7 48898424 		movq	%rax, 336(%rsp)
 2372      50010000 
 2373 05af 0F118424 		movups	%xmm0, 568(%rsp)
 2373      38020000 
 2374 05b7 0F118424 		movups	%xmm0, 584(%rsp)
 2374      48020000 
 2375              	.LEHB62:
 2376 05bf E8000000 		call	_ZNSt9basic_iosIcSt11char_traitsIcEE4initEPSt15basic_streambufIcS1_E@PLT
 2376      00
 2377              	.LEHE62:
 2378 05c4 488D0500 		leaq	64+_ZTCN8UnitTest15MemoryOutStreamE0_NSt7__cxx1119basic_ostringstreamIcSt11char_traitsIcESaIc
 2378      000000
 2379 05cb 660F6F64 		movdqa	16(%rsp), %xmm4
 2379      2410
 2380 05d1 660FEFC0 		pxor	%xmm0, %xmm0
 2381 05d5 4C8DA424 		leaq	192(%rsp), %r12
 2381      C0000000 
 2382 05dd 48898424 		movq	%rax, 336(%rsp)
 2382      50010000 
 2383 05e5 488D8424 		leaq	256(%rsp), %rax
 2383      00010000 
 2384 05ed 4C8DAC24 		leaq	200(%rsp), %r13
 2384      C8000000 
 2385 05f5 4889C7   		movq	%rax, %rdi
 2386 05f8 48894424 		movq	%rax, 72(%rsp)
 2386      48
 2387 05fd 0F29A424 		movaps	%xmm4, 192(%rsp)
 2387      C0000000 
 2388 0605 0F298424 		movaps	%xmm0, 208(%rsp)
 2388      D0000000 
 2389 060d 0F298424 		movaps	%xmm0, 224(%rsp)
 2389      E0000000 
 2390 0615 0F298424 		movaps	%xmm0, 240(%rsp)
 2390      F0000000 
 2391 061d E8000000 		call	_ZNSt6localeC1Ev@PLT
 2391      00
 2392 0622 488D0500 		leaq	16+_ZTVNSt7__cxx1115basic_stringbufIcSt11char_traitsIcESaIcEEE(%rip), %rax
 2392      000000
 2393 0629 C6842420 		movb	$0, 288(%rsp)
 2393      01000000 
 2394 0631 4C89EE   		movq	%r13, %rsi
 2395 0634 48898424 		movq	%rax, 200(%rsp)
 2395      C8000000 
 2396 063c 488D8424 		leaq	288(%rsp), %rax
 2396      20010000 
 2397 0644 48894424 		movq	%rax, 80(%rsp)
 2397      50
 2398 0649 48898424 		movq	%rax, 272(%rsp)
 2398      10010000 
 2399 0651 488B8424 		movq	192(%rsp), %rax
 2399      C0000000 
 2400 0659 48C78424 		movq	$0, 280(%rsp)
 2400      18010000 
 2400      00000000 
 2401 0665 C7842408 		movl	$16, 264(%rsp)
 2401      01000010 
 2401      000000
 2402 0670 488B78E8 		movq	-24(%rax), %rdi
 2403 0674 4C01E7   		addq	%r12, %rdi
 2404              	.LEHB63:
 2405 0677 E8000000 		call	_ZNSt9basic_iosIcSt11char_traitsIcEE4initEPSt15basic_streambufIcS1_E@PLT
 2405      00
 2406              	.LEHE63:
 2407 067c 488D0500 		leaq	24+_ZTVN8UnitTest15MemoryOutStreamE(%rip), %rax
 2407      000000
 2408 0683 BA0B0000 		movl	$11, %edx
 2408      00
 2409 0688 4C89E7   		movq	%r12, %rdi
 2410 068b 48C78424 		movq	$0, 312(%rsp)
 2410      38010000 
 2410      00000000 
 2411 0697 48898424 		movq	%rax, 192(%rsp)
 2411      C0000000 
 2412 069f 4883C028 		addq	$40, %rax
 2413 06a3 488D3500 		leaq	.LC9(%rip), %rsi
 2413      000000
 2414 06aa 48898424 		movq	%rax, 336(%rsp)
 2414      50010000 
 2415 06b2 488D8424 		leaq	320(%rsp), %rax
 2415      40010000 
 2416 06ba 48894424 		movq	%rax, 88(%rsp)
 2416      58
 2417 06bf 48898424 		movq	%rax, 304(%rsp)
 2417      30010000 
 2418 06c7 C6842440 		movb	$0, 320(%rsp)
 2418      01000000 
 2419              	.LEHB64:
 2420 06cf E8000000 		call	_ZSt16__ostream_insertIcSt11char_traitsIcEERSt13basic_ostreamIT_T0_ES6_PKS3_l@PLT
 2420      00
 2421 06d4 488D4313 		leaq	19(%rbx), %rax
 2422 06d8 4C8D7424 		leaq	107(%rsp), %r14
 2422      6B
 2423 06dd 48894424 		movq	%rax, 16(%rsp)
 2423      10
 2424 06e2 4C8D2D00 		leaq	.LC10(%rip), %r13
 2424      000000
 2425 06e9 0F1F8000 		.p2align 4,,10
 2425      000000
 2426              		.p2align 3
 2427              	.L157:
 2428 06f0 0FB603   		movzbl	(%rbx), %eax
 2429 06f3 BA010000 		movl	$1, %edx
 2429      00
 2430 06f8 4C89F6   		movq	%r14, %rsi
 2431 06fb 4C89E7   		movq	%r12, %rdi
 2432 06fe 8844246B 		movb	%al, 107(%rsp)
 2433 0702 E8000000 		call	_ZSt16__ostream_insertIcSt11char_traitsIcEERSt13basic_ostreamIT_T0_ES6_PKS3_l@PLT
 2433      00
 2434 0707 4889C7   		movq	%rax, %rdi
 2435 070a BA010000 		movl	$1, %edx
 2435      00
 2436 070f 4C89EE   		movq	%r13, %rsi
 2437 0712 E8000000 		call	_ZSt16__ostream_insertIcSt11char_traitsIcEERSt13basic_ostreamIT_T0_ES6_PKS3_l@PLT
 2437      00
 2438 0717 4883C301 		addq	$1, %rbx
 2439 071b 48395C24 		cmpq	%rbx, 16(%rsp)
 2439      10
 2440 0720 75CE     		jne	.L157
 2441 0722 BA0C0000 		movl	$12, %edx
 2441      00
 2442 0727 488D3500 		leaq	.LC11(%rip), %rsi
 2442      000000
 2443 072e 4C89E7   		movq	%r12, %rdi
 2444 0731 E8000000 		call	_ZSt16__ostream_insertIcSt11char_traitsIcEERSt13basic_ostreamIT_T0_ES6_PKS3_l@PLT
 2444      00
 2445 0736 4C8B7424 		movq	48(%rsp), %r14
 2445      30
 2446 073b 498D5F26 		leaq	38(%r15), %rbx
 2447 073f 4C8D7C24 		leaq	120(%rsp), %r15
 2447      78
 2448              		.p2align 4,,10
 2449 0744 0F1F4000 		.p2align 3
 2450              	.L158:
 2451 0748 410FB606 		movzbl	(%r14), %eax
 2452 074c BA010000 		movl	$1, %edx
 2452      00
 2453 0751 4C89FE   		movq	%r15, %rsi
 2454 0754 4C89E7   		movq	%r12, %rdi
 2455 0757 88442478 		movb	%al, 120(%rsp)
 2456 075b E8000000 		call	_ZSt16__ostream_insertIcSt11char_traitsIcEERSt13basic_ostreamIT_T0_ES6_PKS3_l@PLT
 2456      00
 2457 0760 4889C7   		movq	%rax, %rdi
 2458 0763 BA010000 		movl	$1, %edx
 2458      00
 2459 0768 4C89EE   		movq	%r13, %rsi
 2460 076b E8000000 		call	_ZSt16__ostream_insertIcSt11char_traitsIcEERSt13basic_ostreamIT_T0_ES6_PKS3_l@PLT
 2460      00
 2461 0770 4983C601 		addq	$1, %r14
 2462 0774 4C39F3   		cmpq	%r14, %rbx
 2463 0777 75CF     		jne	.L158
 2464 0779 BA010000 		movl	$1, %edx
 2464      00
 2465 077e 488D3500 		leaq	.LC12(%rip), %rsi
 2465      000000
 2466 0785 4C89E7   		movq	%r12, %rdi
 2467 0788 E8000000 		call	_ZSt16__ostream_insertIcSt11char_traitsIcEERSt13basic_ostreamIT_T0_ES6_PKS3_l@PLT
 2467      00
 2468 078d 4C89E7   		movq	%r12, %rdi
 2469 0790 E8000000 		call	_ZNK8UnitTest15MemoryOutStream7GetTextEv@PLT
 2469      00
 2470 0795 488B7C24 		movq	56(%rsp), %rdi
 2470      38
 2471 079a 4889C2   		movq	%rax, %rdx
 2472 079d 4889EE   		movq	%rbp, %rsi
 2473 07a0 E8000000 		call	_ZN8UnitTest11TestResults13OnTestFailureERKNS_11TestDetailsEPKc@PLT
 2473      00
 2474              	.LEHE64:
 2475 07a5 488D0500 		leaq	24+_ZTVN8UnitTest15MemoryOutStreamE(%rip), %rax
 2475      000000
 2476 07ac 488BBC24 		movq	304(%rsp), %rdi
 2476      30010000 
 2477 07b4 F30F7E05 		movq	.LC2(%rip), %xmm0
 2477      00000000 
 2478 07bc 48898424 		movq	%rax, 192(%rsp)
 2478      C0000000 
 2479 07c4 4883C028 		addq	$40, %rax
 2480 07c8 48898424 		movq	%rax, 336(%rsp)
 2480      50010000 
 2481 07d0 0F160500 		movhps	.LC4(%rip), %xmm0
 2481      000000
 2482 07d7 483B7C24 		cmpq	88(%rsp), %rdi
 2482      58
 2483 07dc 7410     		je	.L159
 2484 07de 0F294424 		movaps	%xmm0, 16(%rsp)
 2484      10
 2485 07e3 E8000000 		call	_ZdlPv@PLT
 2485      00
 2486 07e8 660F6F44 		movdqa	16(%rsp), %xmm0
 2486      2410
 2487              	.L159:
 2488 07ee 488D0500 		leaq	64+_ZTCN8UnitTest15MemoryOutStreamE0_NSt7__cxx1119basic_ostringstreamIcSt11char_traitsIcESaIc
 2488      000000
 2489 07f5 488BBC24 		movq	272(%rsp), %rdi
 2489      10010000 
 2490 07fd 0F298424 		movaps	%xmm0, 192(%rsp)
 2490      C0000000 
 2491 0805 48898424 		movq	%rax, 336(%rsp)
 2491      50010000 
 2492 080d 483B7C24 		cmpq	80(%rsp), %rdi
 2492      50
 2493 0812 7405     		je	.L160
 2494 0814 E8000000 		call	_ZdlPv@PLT
 2494      00
 2495              	.L160:
 2496 0819 488B7C24 		movq	72(%rsp), %rdi
 2496      48
 2497 081e 488D0500 		leaq	16+_ZTVSt15basic_streambufIcSt11char_traitsIcEE(%rip), %rax
 2497      000000
 2498 0825 48898424 		movq	%rax, 200(%rsp)
 2498      C8000000 
 2499 082d E8000000 		call	_ZNSt6localeD1Ev@PLT
 2499      00
 2500 0832 488D0500 		leaq	24+_ZTCN8UnitTest15MemoryOutStreamE0_So(%rip), %rax
 2500      000000
 2501 0839 488B7C24 		movq	64(%rsp), %rdi
 2501      40
 2502 083e 48898424 		movq	%rax, 192(%rsp)
 2502      C0000000 
 2503 0846 488D0500 		leaq	16+_ZTVSt9basic_iosIcSt11char_traitsIcEE(%rip), %rax
 2503      000000
 2504 084d 48898424 		movq	%rax, 336(%rsp)
 2504      50010000 
 2505              	.LEHB65:
 2506 0855 E8000000 		call	_ZNSt8ios_baseD2Ev@PLT
 2506      00
 2507              	.LEHE65:
 2508 085a E924FCFF 		jmp	.L161
 2508      FF
 2509 085f 90       		.p2align 4,,10
 2510              		.p2align 3
 2511              	.L222:
 2512 0860 8B7720   		movl	32(%rdi), %esi
 2513 0863 83CE04   		orl	$4, %esi
 2514              	.LEHB66:
 2515 0866 E8000000 		call	_ZNSt9basic_iosIcSt11char_traitsIcEE5clearESt12_Ios_Iostate@PLT
 2515      00
 2516 086b E921FAFF 		jmp	.L148
 2516      FF
 2517              		.p2align 4,,10
 2518              		.p2align 3
 2519              	.L223:
 2520 0870 488B8424 		movq	608(%rsp), %rax
 2520      60020000 
 2521 0878 488B7C24 		movq	32(%rsp), %rdi
 2521      20
 2522 087d 480378E8 		addq	-24(%rax), %rdi
 2523 0881 8B7720   		movl	32(%rdi), %esi
 2524 0884 83CE04   		orl	$4, %esi
 2525 0887 E8000000 		call	_ZNSt9basic_iosIcSt11char_traitsIcEE5clearESt12_Ios_Iostate@PLT
 2525      00
 2526              	.LEHE66:
 2527 088c E925FAFF 		jmp	.L149
 2527      FF
 2528              	.L225:
 2529 0891 E8000000 		call	__stack_chk_fail@PLT
 2529      00
 2530              	.L191:
 2531 0896 F30F1EFA 		endbr64
 2532 089a 4889C7   		movq	%rax, %rdi
 2533 089d E9000000 		jmp	.L171
 2533      00
 2534              	.L209:
 2535 08a2 F30F1EFA 		endbr64
 2536 08a6 4889C5   		movq	%rax, %rbp
 2537 08a9 E9000000 		jmp	.L166
 2537      00
 2538              	.L211:
 2539 08ae F30F1EFA 		endbr64
 2540 08b2 4889C7   		movq	%rax, %rdi
 2541 08b5 E9000000 		jmp	.L163
 2541      00
 2542              	.L189:
 2543 08ba F30F1EFA 		endbr64
 2544 08be 4889C7   		movq	%rax, %rdi
 2545 08c1 E9000000 		jmp	.L167
 2545      00
 2546              	.L215:
 2547 08c6 F30F1EFA 		endbr64
 2548 08ca E9000000 		jmp	.L216
 2548      00
 2549              	.L205:
 2550 08cf F30F1EFA 		endbr64
 2551 08d3 4889C5   		movq	%rax, %rbp
 2552 08d6 E9000000 		jmp	.L144
 2552      00
 2553              	.L204:
 2554 08db F30F1EFA 		endbr64
 2555 08df 4889C5   		movq	%rax, %rbp
 2556 08e2 E9000000 		jmp	.L145
 2556      00
 2557              	.L207:
 2558 08e7 F30F1EFA 		endbr64
 2559 08eb 4889C3   		movq	%rax, %rbx
 2560 08ee E9000000 		jmp	.L154
 2560      00
 2561              	.L199:
 2562 08f3 F30F1EFA 		endbr64
 2563 08f7 4889C7   		movq	%rax, %rdi
 2564 08fa E9000000 		jmp	.L183
 2564      00
 2565              	.L203:
 2566 08ff F30F1EFA 		endbr64
 2567 0903 4889C5   		movq	%rax, %rbp
 2568 0906 E9000000 		jmp	.L146
 2568      00
 2569              	.L195:
 2570 090b F30F1EFA 		endbr64
 2571 090f 4889C7   		movq	%rax, %rdi
 2572 0912 E9000000 		jmp	.L177
 2572      00
 2573              	.L193:
 2574 0917 F30F1EFA 		endbr64
 2575 091b 4889C7   		movq	%rax, %rdi
 2576 091e E9000000 		jmp	.L174
 2576      00
 2577              	.L197:
 2578 0923 F30F1EFA 		endbr64
 2579 0927 4889C7   		movq	%rax, %rdi
 2580 092a E9000000 		jmp	.L180
 2580      00
 2581              	.L208:
 2582 092f F30F1EFA 		endbr64
 2583 0933 4889C3   		movq	%rax, %rbx
 2584 0936 E9000000 		jmp	.L153
 2584      00
 2585              	.L201:
 2586 093b F30F1EFA 		endbr64
 2587 093f 4889C7   		movq	%rax, %rdi
 2588 0942 E9000000 		jmp	.L156
 2588      00
 2589              	.L206:
 2590 0947 F30F1EFA 		endbr64
 2591 094b 4889C3   		movq	%rax, %rbx
 2592 094e E9000000 		jmp	.L162
 2592      00
 2593              		.section	.gcc_except_table
 2594 00bd 000000   		.align 4
 2595              	.LLSDA1314:
 2596 00c0 FF       		.byte	0xff
 2597 00c1 9B       		.byte	0x9b
 2598 00c2 9001     		.uleb128 .LLSDATT1314-.LLSDATTD1314
 2599              	.LLSDATTD1314:
 2600 00c4 01       		.byte	0x1
 2601 00c5 8401     		.uleb128 .LLSDACSE1314-.LLSDACSB1314
 2602              	.LLSDACSB1314:
 2603 00c7 B101     		.uleb128 .LEHB45-.LFB1314
 2604 00c9 05       		.uleb128 .LEHE45-.LEHB45
 2605 00ca FF0F     		.uleb128 .L203-.LFB1314
 2606 00cc 00       		.uleb128 0
 2607 00cd E401     		.uleb128 .LEHB46-.LFB1314
 2608 00cf 05       		.uleb128 .LEHE46-.LEHB46
 2609 00d0 DB0F     		.uleb128 .L204-.LFB1314
 2610 00d2 00       		.uleb128 0
 2611 00d3 EF01     		.uleb128 .LEHB47-.LFB1314
 2612 00d5 05       		.uleb128 .LEHE47-.LEHB47
 2613 00d6 CF0F     		.uleb128 .L205-.LFB1314
 2614 00d8 00       		.uleb128 0
 2615 00d9 8C02     		.uleb128 .LEHB48-.LFB1314
 2616 00db 05       		.uleb128 .LEHE48-.LEHB48
 2617 00dc C60F     		.uleb128 .L215-.LFB1314
 2618 00de 00       		.uleb128 0
 2619 00df 9502     		.uleb128 .LEHB49-.LFB1314
 2620 00e1 42       		.uleb128 .LEHE49-.LEHB49
 2621 00e2 BA0F     		.uleb128 .L189-.LFB1314
 2622 00e4 01       		.uleb128 0x1
 2623 00e5 EB02     		.uleb128 .LEHB50-.LFB1314
 2624 00e7 59       		.uleb128 .LEHE50-.LEHB50
 2625 00e8 C60F     		.uleb128 .L215-.LFB1314
 2626 00ea 00       		.uleb128 0
 2627 00eb C803     		.uleb128 .LEHB51-.LFB1314
 2628 00ed 3A       		.uleb128 .LEHE51-.LEHB51
 2629 00ee 960F     		.uleb128 .L191-.LFB1314
 2630 00f0 01       		.uleb128 0x1
 2631 00f1 8204     		.uleb128 .LEHB52-.LFB1314
 2632 00f3 3E       		.uleb128 .LEHE52-.LEHB52
 2633 00f4 9710     		.uleb128 .L193-.LFB1314
 2634 00f6 01       		.uleb128 0x1
 2635 00f7 C004     		.uleb128 .LEHB53-.LFB1314
 2636 00f9 39       		.uleb128 .LEHE53-.LEHB53
 2637 00fa 8B10     		.uleb128 .L195-.LFB1314
 2638 00fc 01       		.uleb128 0x1
 2639 00fd 8205     		.uleb128 .LEHB54-.LFB1314
 2640 00ff 05       		.uleb128 .LEHE54-.LEHB54
 2641 0100 C60F     		.uleb128 .L215-.LFB1314
 2642 0102 00       		.uleb128 0
 2643 0103 8B05     		.uleb128 .LEHB55-.LFB1314
 2644 0105 3A       		.uleb128 .LEHE55-.LEHB55
 2645 0106 A310     		.uleb128 .L197-.LFB1314
 2646 0108 01       		.uleb128 0x1
 2647 0109 C505     		.uleb128 .LEHB56-.LFB1314
 2648 010b 3E       		.uleb128 .LEHE56-.LEHB56
 2649 010c F30F     		.uleb128 .L199-.LFB1314
 2650 010e 01       		.uleb128 0x1
 2651 010f 8306     		.uleb128 .LEHB57-.LFB1314
 2652 0111 2B       		.uleb128 .LEHE57-.LEHB57
 2653 0112 BB10     		.uleb128 .L201-.LFB1314
 2654 0114 01       		.uleb128 0x1
 2655 0115 A407     		.uleb128 .LEHB58-.LFB1314
 2656 0117 05       		.uleb128 .LEHE58-.LEHB58
 2657 0118 C60F     		.uleb128 .L215-.LFB1314
 2658 011a 00       		.uleb128 0
 2659 011b CB07     		.uleb128 .LEHB59-.LFB1314
 2660 011d 05       		.uleb128 .LEHE59-.LEHB59
 2661 011e AE0F     		.uleb128 .L211-.LFB1314
 2662 0120 01       		.uleb128 0x1
 2663 0121 D807     		.uleb128 .LEHB60-.LFB1314
 2664 0123 05       		.uleb128 .LEHE60-.LEHB60
 2665 0124 A20F     		.uleb128 .L209-.LFB1314
 2666 0126 00       		.uleb128 0
 2667 0127 AF08     		.uleb128 .LEHB61-.LFB1314
 2668 0129 05       		.uleb128 .LEHE61-.LEHB61
 2669 012a 00       		.uleb128 0
 2670 012b 00       		.uleb128 0
 2671 012c BF09     		.uleb128 .LEHB62-.LFB1314
 2672 012e 05       		.uleb128 .LEHE62-.LEHB62
 2673 012f E70F     		.uleb128 .L207-.LFB1314
 2674 0131 01       		.uleb128 0x1
 2675 0132 F70A     		.uleb128 .LEHB63-.LFB1314
 2676 0134 05       		.uleb128 .LEHE63-.LEHB63
 2677 0135 AF10     		.uleb128 .L208-.LFB1314
 2678 0137 01       		.uleb128 0x1
 2679 0138 CF0B     		.uleb128 .LEHB64-.LFB1314
 2680 013a D601     		.uleb128 .LEHE64-.LEHB64
 2681 013c C710     		.uleb128 .L206-.LFB1314
 2682 013e 01       		.uleb128 0x1
 2683 013f D50E     		.uleb128 .LEHB65-.LFB1314
 2684 0141 05       		.uleb128 .LEHE65-.LEHB65
 2685 0142 BB10     		.uleb128 .L201-.LFB1314
 2686 0144 01       		.uleb128 0x1
 2687 0145 E60E     		.uleb128 .LEHB66-.LFB1314
 2688 0147 26       		.uleb128 .LEHE66-.LEHB66
 2689 0148 C60F     		.uleb128 .L215-.LFB1314
 2690 014a 00       		.uleb128 0
 2691              	.LLSDACSE1314:
 2692 014b 01       		.byte	0x1
 2693 014c 00       		.byte	0
 2694 014d 000000   		.align 4
 2695 0150 00000000 		.long	0
 2696              	
 2697              	.LLSDATT1314:
 2698              		.text
 2699              		.cfi_endproc
 2700              		.section	.text.unlikely
 2701              		.cfi_startproc
 2702              		.cfi_personality 0x9b,DW.ref.__gxx_personality_v0
 2703              		.cfi_lsda 0x1b,.LLSDAC1314
 2705              	_ZNK30TestBinIO_testReadExistingFile7RunImplEv.cold:
 2706              	.LFSB1314:
 2707              	.L171:
 2708              		.cfi_def_cfa_offset 1200
 2709              		.cfi_offset 3, -56
 2710              		.cfi_offset 6, -48
 2711              		.cfi_offset 12, -40
 2712              		.cfi_offset 13, -32
 2713              		.cfi_offset 14, -24
 2714              		.cfi_offset 15, -16
 2715 00aa E8000000 		call	__cxa_begin_catch@PLT
 2715      00
 2716              	.LEHB67:
 2717 00af E8000000 		call	_ZN8UnitTest11CurrentTest7ResultsEv@PLT
 2717      00
 2718 00b4 4C8B28   		movq	(%rax), %r13
 2719 00b7 E8000000 		call	_ZN8UnitTest11CurrentTest7DetailsEv@PLT
 2719      00
 2720 00bc 488B30   		movq	(%rax), %rsi
 2721 00bf BA2C0000 		movl	$44, %edx
 2721      00
 2722 00c4 4889EF   		movq	%rbp, %rdi
 2723 00c7 E8000000 		call	_ZN8UnitTest11TestDetailsC1ERKS0_i@PLT
 2723      00
 2724 00cc 488D1500 		leaq	.LC6(%rip), %rdx
 2724      000000
 2725 00d3 4889EE   		movq	%rbp, %rsi
 2726 00d6 4C89EF   		movq	%r13, %rdi
 2727 00d9 E8000000 		call	_ZN8UnitTest11TestResults13OnTestFailureERKNS_11TestDetailsEPKc@PLT
 2727      00
 2728              	.LEHE67:
 2729              	.LEHB68:
 2730 00de E8000000 		call	__cxa_end_catch@PLT
 2730      00
 2731              	.LEHE68:
 2732 00e3 E9000000 		jmp	.L172
 2732      00
 2733              	.L210:
 2734 00e8 F30F1EFA 		endbr64
 2735 00ec 488DBC24 		leaq	720(%rsp), %rdi
 2735      D0020000 
 2736 00f4 4889C5   		movq	%rax, %rbp
 2737 00f7 E8000000 		call	_ZNSt12__basic_fileIcED1Ev@PLT
 2737      00
 2738              	.L166:
 2739 00fc 488D0500 		leaq	16+_ZTVSt15basic_streambufIcSt11char_traitsIcEE(%rip), %rax
 2739      000000
 2740 0103 488DBC24 		leaq	672(%rsp), %rdi
 2740      A0020000 
 2741 010b 48898424 		movq	%rax, 616(%rsp)
 2741      68020000 
 2742 0113 E8000000 		call	_ZNSt6localeD1Ev@PLT
 2742      00
 2743 0118 488B0500 		movq	8+_ZTTSt14basic_ofstreamIcSt11char_traitsIcEE(%rip), %rax
 2743      000000
 2744 011f 488B7C24 		movq	40(%rsp), %rdi
 2744      28
 2745 0124 488B1D00 		movq	16+_ZTTSt14basic_ofstreamIcSt11char_traitsIcEE(%rip), %rbx
 2745      000000
 2746 012b 48898424 		movq	%rax, 608(%rsp)
 2746      60020000 
 2747 0133 488B40E8 		movq	-24(%rax), %rax
 2748 0137 48899C04 		movq	%rbx, 608(%rsp,%rax)
 2748      60020000 
 2749 013f 488D0500 		leaq	16+_ZTVSt9basic_iosIcSt11char_traitsIcEE(%rip), %rax
 2749      000000
 2750 0146 48898424 		movq	%rax, 856(%rsp)
 2750      58030000 
 2751 014e E8000000 		call	_ZNSt8ios_baseD2Ev@PLT
 2751      00
 2752 0153 4889EF   		movq	%rbp, %rdi
 2753              	.LEHB69:
 2754 0156 E8000000 		call	_Unwind_Resume@PLT
 2754      00
 2755              	.LEHE69:
 2756              	.L188:
 2757 015b F30F1EFA 		endbr64
 2758              	.L216:
 2759 015f 4889C5   		movq	%rax, %rbp
 2760 0162 EB0C     		jmp	.L170
 2761              	.L192:
 2762 0164 F30F1EFA 		endbr64
 2763 0168 4889C5   		movq	%rax, %rbp
 2764 016b E8000000 		call	__cxa_end_catch@PLT
 2764      00
 2765              	.L170:
 2766 0170 488B7C24 		movq	32(%rsp), %rdi
 2766      20
 2767 0175 E8000000 		call	_ZNSt14basic_ofstreamIcSt11char_traitsIcEED1Ev@PLT
 2767      00
 2768 017a 4889EF   		movq	%rbp, %rdi
 2769              	.LEHB70:
 2770 017d E8000000 		call	_Unwind_Resume@PLT
 2770      00
 2771              	.LEHE70:
 2772              	.L163:
 2773 0182 E8000000 		call	__cxa_begin_catch@PLT
 2773      00
 2774              	.LEHB71:
 2775 0187 E8000000 		call	__cxa_end_catch@PLT
 2775      00
 2776              	.LEHE71:
 2777 018c E9000000 		jmp	.L164
 2777      00
 2778              	.L167:
 2779 0191 E8000000 		call	__cxa_begin_catch@PLT
 2779      00
 2780              	.LEHB72:
 2781 0196 E8000000 		call	_ZN8UnitTest11CurrentTest7ResultsEv@PLT
 2781      00
 2782 019b 4C8B20   		movq	(%rax), %r12
 2783 019e E8000000 		call	_ZN8UnitTest11CurrentTest7DetailsEv@PLT
 2783      00
 2784 01a3 488DAC24 		leaq	160(%rsp), %rbp
 2784      A0000000 
 2785 01ab 488B30   		movq	(%rax), %rsi
 2786 01ae BA270000 		movl	$39, %edx
 2786      00
 2787 01b3 4889EF   		movq	%rbp, %rdi
 2788 01b6 E8000000 		call	_ZN8UnitTest11TestDetailsC1ERKS0_i@PLT
 2788      00
 2789 01bb 488D1500 		leaq	.LC6(%rip), %rdx
 2789      000000
 2790 01c2 4889EE   		movq	%rbp, %rsi
 2791 01c5 4C89E7   		movq	%r12, %rdi
 2792 01c8 E8000000 		call	_ZN8UnitTest11TestResults13OnTestFailureERKNS_11TestDetailsEPKc@PLT
 2792      00
 2793              	.LEHE72:
 2794              	.LEHB73:
 2795 01cd E8000000 		call	__cxa_end_catch@PLT
 2795      00
 2796              	.LEHE73:
 2797 01d2 E9000000 		jmp	.L168
 2797      00
 2798              	.L190:
 2799 01d7 F30F1EFA 		endbr64
 2800 01db 4889C5   		movq	%rax, %rbp
 2801 01de E8000000 		call	__cxa_end_catch@PLT
 2801      00
 2802 01e3 EB8B     		jmp	.L170
 2803              	.L144:
 2804 01e5 488B7C24 		movq	8(%rsp), %rdi
 2804      08
 2805 01ea E8000000 		call	_ZNSt13basic_filebufIcSt11char_traitsIcEED1Ev@PLT
 2805      00
 2806              	.L145:
 2807 01ef 488B0500 		movq	8+_ZTTSt14basic_ofstreamIcSt11char_traitsIcEE(%rip), %rax
 2807      000000
 2808 01f6 488B1D00 		movq	16+_ZTTSt14basic_ofstreamIcSt11char_traitsIcEE(%rip), %rbx
 2808      000000
 2809 01fd 48898424 		movq	%rax, 608(%rsp)
 2809      60020000 
 2810 0205 488B40E8 		movq	-24(%rax), %rax
 2811 0209 48899C04 		movq	%rbx, 608(%rsp,%rax)
 2811      60020000 
 2812              	.L146:
 2813 0211 488B7C24 		movq	40(%rsp), %rdi
 2813      28
 2814 0216 488D0500 		leaq	16+_ZTVSt9basic_iosIcSt11char_traitsIcEE(%rip), %rax
 2814      000000
 2815 021d 48898424 		movq	%rax, 856(%rsp)
 2815      58030000 
 2816 0225 E8000000 		call	_ZNSt8ios_baseD2Ev@PLT
 2816      00
 2817 022a 4889EF   		movq	%rbp, %rdi
 2818              	.LEHB74:
 2819 022d E8000000 		call	_Unwind_Resume@PLT
 2819      00
 2820              	.LEHE74:
 2821              	.L153:
 2822 0232 4C89EF   		movq	%r13, %rdi
 2823 0235 E8000000 		call	_ZNSt7__cxx1115basic_stringbufIcSt11char_traitsIcESaIcEED1Ev
 2823      00
 2824 023a 488D0500 		leaq	24+_ZTCN8UnitTest15MemoryOutStreamE0_So(%rip), %rax
 2824      000000
 2825 0241 48898424 		movq	%rax, 192(%rsp)
 2825      C0000000 
 2826              	.L154:
 2827 0249 488B7C24 		movq	64(%rsp), %rdi
 2827      40
 2828 024e 488D0500 		leaq	16+_ZTVSt9basic_iosIcSt11char_traitsIcEE(%rip), %rax
 2828      000000
 2829 0255 48898424 		movq	%rax, 336(%rsp)
 2829      50010000 
 2830 025d E8000000 		call	_ZNSt8ios_baseD2Ev@PLT
 2830      00
 2831 0262 4889DF   		movq	%rbx, %rdi
 2832              	.L156:
 2833 0265 E8000000 		call	__cxa_begin_catch@PLT
 2833      00
 2834              	.LEHB75:
 2835 026a E8000000 		call	_ZN8UnitTest11CurrentTest7ResultsEv@PLT
 2835      00
 2836 026f 4C8B20   		movq	(%rax), %r12
 2837 0272 E8000000 		call	_ZN8UnitTest11CurrentTest7DetailsEv@PLT
 2837      00
 2838 0277 488B30   		movq	(%rax), %rsi
 2839 027a BA320000 		movl	$50, %edx
 2839      00
 2840 027f 4889EF   		movq	%rbp, %rdi
 2841 0282 E8000000 		call	_ZN8UnitTest11TestDetailsC1ERKS0_i@PLT
 2841      00
 2842 0287 488D1500 		leaq	.LC18(%rip), %rdx
 2842      000000
 2843 028e 4889EE   		movq	%rbp, %rsi
 2844 0291 4C89E7   		movq	%r12, %rdi
 2845 0294 E8000000 		call	_ZN8UnitTest11TestResults13OnTestFailureERKNS_11TestDetailsEPKc@PLT
 2845      00
 2846              	.LEHE75:
 2847              	.LEHB76:
 2848 0299 E8000000 		call	__cxa_end_catch@PLT
 2848      00
 2849              	.LEHE76:
 2850 029e E9000000 		jmp	.L161
 2850      00
 2851              	.L177:
 2852 02a3 E8000000 		call	__cxa_begin_catch@PLT
 2852      00
 2853              	.LEHB77:
 2854 02a8 E8000000 		call	_ZN8UnitTest11CurrentTest7ResultsEv@PLT
 2854      00
 2855 02ad 4C8B28   		movq	(%rax), %r13
 2856 02b0 E8000000 		call	_ZN8UnitTest11CurrentTest7DetailsEv@PLT
 2856      00
 2857 02b5 488B30   		movq	(%rax), %rsi
 2858 02b8 BA2E0000 		movl	$46, %edx
 2858      00
 2859 02bd 4889EF   		movq	%rbp, %rdi
 2860 02c0 E8000000 		call	_ZN8UnitTest11TestDetailsC1ERKS0_i@PLT
 2860      00
 2861 02c5 488D1500 		leaq	.LC16(%rip), %rdx
 2861      000000
 2862 02cc 4889EE   		movq	%rbp, %rsi
 2863 02cf 4C89EF   		movq	%r13, %rdi
 2864 02d2 E8000000 		call	_ZN8UnitTest11TestResults13OnTestFailureERKNS_11TestDetailsEPKc@PLT
 2864      00
 2865              	.LEHE77:
 2866              	.LEHB78:
 2867 02d7 E8000000 		call	__cxa_end_catch@PLT
 2867      00
 2868              	.LEHE78:
 2869 02dc E9000000 		jmp	.L178
 2869      00
 2870              	.L174:
 2871 02e1 E8000000 		call	__cxa_begin_catch@PLT
 2871      00
 2872              	.LEHB79:
 2873 02e6 E8000000 		call	_ZN8UnitTest11CurrentTest7ResultsEv@PLT
 2873      00
 2874 02eb 4C8B28   		movq	(%rax), %r13
 2875 02ee E8000000 		call	_ZN8UnitTest11CurrentTest7DetailsEv@PLT
 2875      00
 2876 02f3 488B30   		movq	(%rax), %rsi
 2877 02f6 BA2D0000 		movl	$45, %edx
 2877      00
 2878 02fb 4889EF   		movq	%rbp, %rdi
 2879 02fe E8000000 		call	_ZN8UnitTest11TestDetailsC1ERKS0_i@PLT
 2879      00
 2880 0303 488D1500 		leaq	.LC15(%rip), %rdx
 2880      000000
 2881 030a 4889EE   		movq	%rbp, %rsi
 2882 030d 4C89EF   		movq	%r13, %rdi
 2883 0310 E8000000 		call	_ZN8UnitTest11TestResults13OnTestFailureERKNS_11TestDetailsEPKc@PLT
 2883      00
 2884              	.LEHE79:
 2885              	.LEHB80:
 2886 0315 E8000000 		call	__cxa_end_catch@PLT
 2886      00
 2887              	.LEHE80:
 2888 031a E9000000 		jmp	.L175
 2888      00
 2889              	.L196:
 2890 031f F30F1EFA 		endbr64
 2891 0323 4889C5   		movq	%rax, %rbp
 2892 0326 E8000000 		call	__cxa_end_catch@PLT
 2892      00
 2893 032b E940FEFF 		jmp	.L170
 2893      FF
 2894              	.L194:
 2895 0330 F30F1EFA 		endbr64
 2896 0334 4889C5   		movq	%rax, %rbp
 2897 0337 E8000000 		call	__cxa_end_catch@PLT
 2897      00
 2898 033c E92FFEFF 		jmp	.L170
 2898      FF
 2899              	.L202:
 2900 0341 F30F1EFA 		endbr64
 2901 0345 4889C5   		movq	%rax, %rbp
 2902 0348 E8000000 		call	__cxa_end_catch@PLT
 2902      00
 2903 034d E91EFEFF 		jmp	.L170
 2903      FF
 2904              	.L180:
 2905 0352 E8000000 		call	__cxa_begin_catch@PLT
 2905      00
 2906              	.LEHB81:
 2907 0357 E8000000 		call	_ZN8UnitTest11CurrentTest7ResultsEv@PLT
 2907      00
 2908 035c 4C8B20   		movq	(%rax), %r12
 2909 035f E8000000 		call	_ZN8UnitTest11CurrentTest7DetailsEv@PLT
 2909      00
 2910 0364 488B30   		movq	(%rax), %rsi
 2911 0367 BA300000 		movl	$48, %edx
 2911      00
 2912 036c 4889EF   		movq	%rbp, %rdi
 2913 036f E8000000 		call	_ZN8UnitTest11TestDetailsC1ERKS0_i@PLT
 2913      00
 2914 0374 488D1500 		leaq	.LC6(%rip), %rdx
 2914      000000
 2915 037b 4889EE   		movq	%rbp, %rsi
 2916 037e 4C89E7   		movq	%r12, %rdi
 2917 0381 E8000000 		call	_ZN8UnitTest11TestResults13OnTestFailureERKNS_11TestDetailsEPKc@PLT
 2917      00
 2918              	.LEHE81:
 2919              	.LEHB82:
 2920 0386 E8000000 		call	__cxa_end_catch@PLT
 2920      00
 2921              	.LEHE82:
 2922 038b E9000000 		jmp	.L181
 2922      00
 2923              	.L198:
 2924 0390 F30F1EFA 		endbr64
 2925 0394 4889C5   		movq	%rax, %rbp
 2926 0397 E8000000 		call	__cxa_end_catch@PLT
 2926      00
 2927 039c E9CFFDFF 		jmp	.L170
 2927      FF
 2928              	.L162:
 2929 03a1 4C89E7   		movq	%r12, %rdi
 2930 03a4 E8000000 		call	_ZN8UnitTest15MemoryOutStreamD1Ev
 2930      00
 2931 03a9 4889DF   		movq	%rbx, %rdi
 2932 03ac E9B4FEFF 		jmp	.L156
 2932      FF
 2933              	.L183:
 2934 03b1 E8000000 		call	__cxa_begin_catch@PLT
 2934      00
 2935              	.LEHB83:
 2936 03b6 E8000000 		call	_ZN8UnitTest11CurrentTest7ResultsEv@PLT
 2936      00
 2937 03bb 4C8B20   		movq	(%rax), %r12
 2938 03be E8000000 		call	_ZN8UnitTest11CurrentTest7DetailsEv@PLT
 2938      00
 2939 03c3 488B30   		movq	(%rax), %rsi
 2940 03c6 BA310000 		movl	$49, %edx
 2940      00
 2941 03cb 4889EF   		movq	%rbp, %rdi
 2942 03ce E8000000 		call	_ZN8UnitTest11TestDetailsC1ERKS0_i@PLT
 2942      00
 2943 03d3 488D1500 		leaq	.LC17(%rip), %rdx
 2943      000000
 2944 03da 4889EE   		movq	%rbp, %rsi
 2945 03dd 4C89E7   		movq	%r12, %rdi
 2946 03e0 E8000000 		call	_ZN8UnitTest11TestResults13OnTestFailureERKNS_11TestDetailsEPKc@PLT
 2946      00
 2947              	.LEHE83:
 2948              	.LEHB84:
 2949 03e5 E8000000 		call	__cxa_end_catch@PLT
 2949      00
 2950              	.LEHE84:
 2951 03ea E9000000 		jmp	.L184
 2951      00
 2952              	.L200:
 2953 03ef F30F1EFA 		endbr64
 2954 03f3 4889C5   		movq	%rax, %rbp
 2955 03f6 E8000000 		call	__cxa_end_catch@PLT
 2955      00
 2956 03fb E970FDFF 		jmp	.L170
 2956      FF
 2957              		.cfi_endproc
 2958              	.LFE1314:
 2959              		.section	.gcc_except_table
 2960              		.align 4
 2961              	.LLSDAC1314:
 2962 0154 FF       		.byte	0xff
 2963 0155 9B       		.byte	0x9b
 2964 0156 71       		.uleb128 .LLSDATTC1314-.LLSDATTDC1314
 2965              	.LLSDATTDC1314:
 2966 0157 01       		.byte	0x1
 2967 0158 66       		.uleb128 .LLSDACSEC1314-.LLSDACSBC1314
 2968              	.LLSDACSBC1314:
 2969 0159 05       		.uleb128 .LEHB67-.LCOLDB20
 2970 015a 2F       		.uleb128 .LEHE67-.LEHB67
 2971 015b BA01     		.uleb128 .L192-.LCOLDB20
 2972 015d 00       		.uleb128 0
 2973 015e 34       		.uleb128 .LEHB68-.LCOLDB20
 2974 015f 05       		.uleb128 .LEHE68-.LEHB68
 2975 0160 B101     		.uleb128 .L188-.LCOLDB20
 2976 0162 00       		.uleb128 0
 2977 0163 AC01     		.uleb128 .LEHB69-.LCOLDB20
 2978 0165 05       		.uleb128 .LEHE69-.LEHB69
 2979 0166 00       		.uleb128 0
 2980 0167 00       		.uleb128 0
 2981 0168 D301     		.uleb128 .LEHB70-.LCOLDB20
 2982 016a 05       		.uleb128 .LEHE70-.LEHB70
 2983 016b 00       		.uleb128 0
 2984 016c 00       		.uleb128 0
 2985 016d DD01     		.uleb128 .LEHB71-.LCOLDB20
 2986 016f 05       		.uleb128 .LEHE71-.LEHB71
 2987 0170 3E       		.uleb128 .L210-.LCOLDB20
 2988 0171 00       		.uleb128 0
 2989 0172 EC01     		.uleb128 .LEHB72-.LCOLDB20
 2990 0174 37       		.uleb128 .LEHE72-.LEHB72
 2991 0175 AD02     		.uleb128 .L190-.LCOLDB20
 2992 0177 00       		.uleb128 0
 2993 0178 A302     		.uleb128 .LEHB73-.LCOLDB20
 2994 017a 05       		.uleb128 .LEHE73-.LEHB73
 2995 017b B101     		.uleb128 .L188-.LCOLDB20
 2996 017d 00       		.uleb128 0
 2997 017e 8303     		.uleb128 .LEHB74-.LCOLDB20
 2998 0180 05       		.uleb128 .LEHE74-.LEHB74
 2999 0181 00       		.uleb128 0
 3000 0182 00       		.uleb128 0
 3001 0183 C003     		.uleb128 .LEHB75-.LCOLDB20
 3002 0185 2F       		.uleb128 .LEHE75-.LEHB75
 3003 0186 9705     		.uleb128 .L202-.LCOLDB20
 3004 0188 00       		.uleb128 0
 3005 0189 EF03     		.uleb128 .LEHB76-.LCOLDB20
 3006 018b 05       		.uleb128 .LEHE76-.LEHB76
 3007 018c B101     		.uleb128 .L188-.LCOLDB20
 3008 018e 00       		.uleb128 0
 3009 018f FE03     		.uleb128 .LEHB77-.LCOLDB20
 3010 0191 2F       		.uleb128 .LEHE77-.LEHB77
 3011 0192 F504     		.uleb128 .L196-.LCOLDB20
 3012 0194 00       		.uleb128 0
 3013 0195 AD04     		.uleb128 .LEHB78-.LCOLDB20
 3014 0197 05       		.uleb128 .LEHE78-.LEHB78
 3015 0198 B101     		.uleb128 .L188-.LCOLDB20
 3016 019a 00       		.uleb128 0
 3017 019b BC04     		.uleb128 .LEHB79-.LCOLDB20
 3018 019d 2F       		.uleb128 .LEHE79-.LEHB79
 3019 019e 8605     		.uleb128 .L194-.LCOLDB20
 3020 01a0 00       		.uleb128 0
 3021 01a1 EB04     		.uleb128 .LEHB80-.LCOLDB20
 3022 01a3 05       		.uleb128 .LEHE80-.LEHB80
 3023 01a4 B101     		.uleb128 .L188-.LCOLDB20
 3024 01a6 00       		.uleb128 0
 3025 01a7 AD05     		.uleb128 .LEHB81-.LCOLDB20
 3026 01a9 2F       		.uleb128 .LEHE81-.LEHB81
 3027 01aa E605     		.uleb128 .L198-.LCOLDB20
 3028 01ac 00       		.uleb128 0
 3029 01ad DC05     		.uleb128 .LEHB82-.LCOLDB20
 3030 01af 05       		.uleb128 .LEHE82-.LEHB82
 3031 01b0 B101     		.uleb128 .L188-.LCOLDB20
 3032 01b2 00       		.uleb128 0
 3033 01b3 8C06     		.uleb128 .LEHB83-.LCOLDB20
 3034 01b5 2F       		.uleb128 .LEHE83-.LEHB83
 3035 01b6 C506     		.uleb128 .L200-.LCOLDB20
 3036 01b8 00       		.uleb128 0
 3037 01b9 BB06     		.uleb128 .LEHB84-.LCOLDB20
 3038 01bb 05       		.uleb128 .LEHE84-.LEHB84
 3039 01bc B101     		.uleb128 .L188-.LCOLDB20
 3040 01be 00       		.uleb128 0
 3041              	.LLSDACSEC1314:
 3042 01bf 01       		.byte	0x1
 3043 01c0 00       		.byte	0
 3044 01c1 000000   		.align 4
 3045 01c4 00000000 		.long	0
 3046              	
 3047              	.LLSDATTC1314:
 3048              		.section	.text.unlikely
 3049              		.text
 3051              		.section	.text.unlikely
 3053              	.LCOLDE20:
 3054              		.text
 3055              	.LHOTE20:
 3056              		.section	.rodata.str1.1
 3057              	.LC21:
 3058 0034 66696C65 		.string	"file.is_open()"
 3058      2E69735F 
 3058      6F70656E 
 3058      282900
 3059              		.section	.rodata.str1.8
 3060              		.align 8
 3061              	.LC22:
 3062 0180 556E6861 		.string	"Unhandled exception in CHECK(file.is_open())"
 3062      6E646C65 
 3062      64206578 
 3062      63657074 
 3062      696F6E20 
 3063 01ad 000000   		.align 8
 3064              	.LC23:
 3065 01b0 556E6861 		.string	"Unhandled exception in CHECK_EQUAL(strlen(DATA), (size_t)length)"
 3065      6E646C65 
 3065      64206578 
 3065      63657074 
 3065      696F6E20 
 3066 01f1 00000000 		.align 8
 3066      000000
 3067              	.LC24:
 3068 01f8 556E6861 		.string	"Unhandled exception in CHECK_ARRAY_EQUAL(DATA, fileData)"
 3068      6E646C65 
 3068      64206578 
 3068      63657074 
 3068      696F6E20 
 3069 0231 00000000 		.align 8
 3069      000000
 3070              	.LC25:
 3071 0238 556E6861 		.string	"Unhandled exception in CHECK_EQUAL(9, length)"
 3071      6E646C65 
 3071      64206578 
 3071      63657074 
 3071      696F6E20 
 3072 0266 0000     		.align 8
 3073              	.LC26:
 3074 0268 556E6861 		.string	"Unhandled exception in CHECK_ARRAY_EQUAL(DATA+5, fileData)"
 3074      6E646C65 
 3074      64206578 
 3074      63657074 
 3074      696F6E20 
 3075              		.section	.text.unlikely
 3076              		.align 2
 3077              	.LCOLDB27:
 3078              		.text
 3079              	.LHOTB27:
 3080 0953 90       		.align 2
 3081 0954 66662E0F 		.p2align 4
 3081      1F840000 
 3081      00000090 
 3082              		.globl	_ZNK23TestBinIO_testWriteFile7RunImplEv
 3084              	_ZNK23TestBinIO_testWriteFile7RunImplEv:
 3085              	.LFB1318:
 3086              		.cfi_startproc
 3087              		.cfi_personality 0x9b,DW.ref.__gxx_personality_v0
 3088              		.cfi_lsda 0x1b,.LLSDA1318
 3089 0960 F30F1EFA 		endbr64
 3090 0964 4157     		pushq	%r15
 3091              		.cfi_def_cfa_offset 16
 3092              		.cfi_offset 15, -16
 3093 0966 4156     		pushq	%r14
 3094              		.cfi_def_cfa_offset 24
 3095              		.cfi_offset 14, -24
 3096 0968 4C8D3500 		leaq	.LC13(%rip), %r14
 3096      000000
 3097 096f 4155     		pushq	%r13
 3098              		.cfi_def_cfa_offset 32
 3099              		.cfi_offset 13, -32
 3100 0971 4154     		pushq	%r12
 3101              		.cfi_def_cfa_offset 40
 3102              		.cfi_offset 12, -40
 3103 0973 55       		pushq	%rbp
 3104              		.cfi_def_cfa_offset 48
 3105              		.cfi_offset 6, -48
 3106 0974 53       		pushq	%rbx
 3107              		.cfi_def_cfa_offset 56
 3108              		.cfi_offset 3, -56
 3109 0975 4881EC68 		subq	$1128, %rsp
 3109      040000
 3110              		.cfi_def_cfa_offset 1184
 3111 097c 488D9C24 		leaq	848(%rsp), %rbx
 3111      50030000 
 3112 0984 4C8DA424 		leaq	592(%rsp), %r12
 3112      50020000 
 3113 098c 64488B04 		movq	%fs:40, %rax
 3113      25280000 
 3113      00
 3114 0995 48898424 		movq	%rax, 1112(%rsp)
 3114      58040000 
 3115 099d 31C0     		xorl	%eax, %eax
 3116 099f 4889DF   		movq	%rbx, %rdi
 3117 09a2 4C897424 		movq	%r14, 88(%rsp)
 3117      58
 3118 09a7 48895C24 		movq	%rbx, 8(%rsp)
 3118      08
 3119 09ac E8000000 		call	_ZNSt8ios_baseC2Ev@PLT
 3119      00
 3120 09b1 488D0500 		leaq	16+_ZTVSt9basic_iosIcSt11char_traitsIcEE(%rip), %rax
 3120      000000
 3121 09b8 31D2     		xorl	%edx, %edx
 3122 09ba 31F6     		xorl	%esi, %esi
 3123 09bc 48898424 		movq	%rax, 848(%rsp)
 3123      50030000 
 3124 09c4 488B0500 		movq	8+_ZTTSt14basic_ifstreamIcSt11char_traitsIcEE(%rip), %rax
 3124      000000
 3125 09cb 660FEFC0 		pxor	%xmm0, %xmm0
 3126 09cf 66899424 		movw	%dx, 1072(%rsp)
 3126      30040000 
 3127 09d7 488B0D00 		movq	16+_ZTTSt14basic_ifstreamIcSt11char_traitsIcEE(%rip), %rcx
 3127      000000
 3128 09de 0F118424 		movups	%xmm0, 1080(%rsp)
 3128      38040000 
 3129 09e6 0F118424 		movups	%xmm0, 1096(%rsp)
 3129      48040000 
 3130 09ee 48898424 		movq	%rax, 592(%rsp)
 3130      50020000 
 3131 09f6 488B40E8 		movq	-24(%rax), %rax
 3132 09fa 48C78424 		movq	$0, 1064(%rsp)
 3132      28040000 
 3132      00000000 
 3133 0a06 48898C04 		movq	%rcx, 592(%rsp,%rax)
 3133      50020000 
 3134 0a0e 488B0500 		movq	8+_ZTTSt14basic_ifstreamIcSt11char_traitsIcEE(%rip), %rax
 3134      000000
 3135 0a15 48C78424 		movq	$0, 600(%rsp)
 3135      58020000 
 3135      00000000 
 3136 0a21 488B78E8 		movq	-24(%rax), %rdi
 3137 0a25 4C01E7   		addq	%r12, %rdi
 3138              	.LEHB85:
 3139 0a28 E8000000 		call	_ZNSt9basic_iosIcSt11char_traitsIcEE4initEPSt15basic_streambufIcS1_E@PLT
 3139      00
 3140              	.LEHE85:
 3141 0a2d 488D0500 		leaq	24+_ZTVSt14basic_ifstreamIcSt11char_traitsIcEE(%rip), %rax
 3141      000000
 3142 0a34 4C8DAC24 		leaq	608(%rsp), %r13
 3142      60020000 
 3143 0a3c 48898424 		movq	%rax, 592(%rsp)
 3143      50020000 
 3144 0a44 4C89EF   		movq	%r13, %rdi
 3145 0a47 4883C028 		addq	$40, %rax
 3146 0a4b 48898424 		movq	%rax, 848(%rsp)
 3146      50030000 
 3147              	.LEHB86:
 3148 0a53 E8000000 		call	_ZNSt13basic_filebufIcSt11char_traitsIcEEC1Ev@PLT
 3148      00
 3149              	.LEHE86:
 3150 0a58 4C89EE   		movq	%r13, %rsi
 3151 0a5b 4889DF   		movq	%rbx, %rdi
 3152              	.LEHB87:
 3153 0a5e E8000000 		call	_ZNSt9basic_iosIcSt11char_traitsIcEE4initEPSt15basic_streambufIcS1_E@PLT
 3153      00
 3154              	.LEHE87:
 3155 0a63 4C8D7C24 		leaq	112(%rsp), %r15
 3155      70
 3156 0a68 31C9     		xorl	%ecx, %ecx
 3157 0a6a 31D2     		xorl	%edx, %edx
 3158 0a6c BE080000 		movl	$8, %esi
 3158      00
 3159 0a71 4C89FF   		movq	%r15, %rdi
 3160              	.LEHB88:
 3161 0a74 E8000000 		call	bufInitialise@PLT
 3161      00
 3162              	.LEHE88:
 3163 0a79 89442454 		movl	%eax, 84(%rsp)
 3164              	.LEHB89:
 3165 0a7d E8000000 		call	_ZN8UnitTest11CurrentTest7DetailsEv@PLT
 3165      00
 3166 0a82 488DAC24 		leaq	144(%rsp), %rbp
 3166      90000000 
 3167 0a8a 488B30   		movq	(%rax), %rsi
 3168 0a8d BA3F0000 		movl	$63, %edx
 3168      00
 3169 0a92 4889EF   		movq	%rbp, %rdi
 3170 0a95 E8000000 		call	_ZN8UnitTest11TestDetailsC1ERKS0_i@PLT
 3170      00
 3171 0a9a C7442468 		movl	$0, 104(%rsp)
 3171      00000000 
 3172 0aa2 E8000000 		call	_ZN8UnitTest11CurrentTest7ResultsEv@PLT
 3172      00
 3173 0aa7 488B38   		movq	(%rax), %rdi
 3174 0aaa 488D5424 		leaq	84(%rsp), %rdx
 3174      54
 3175 0aaf 488D7424 		leaq	104(%rsp), %rsi
 3175      68
 3176 0ab4 4889E9   		movq	%rbp, %rcx
 3177 0ab7 E8000000 		call	_ZN8UnitTest10CheckEqualI12BufferStatusS1_EEvRNS_11TestResultsERKT_RKT0_RKNS_11TestDetailsE
 3177      00
 3178              	.LEHE89:
 3179              	.L257:
 3180 0abc 31C9     		xorl	%ecx, %ecx
 3181 0abe BA130000 		movl	$19, %edx
 3181      00
 3182 0ac3 4C89F6   		movq	%r14, %rsi
 3183 0ac6 4C89FF   		movq	%r15, %rdi
 3184              	.LEHB90:
 3185 0ac9 E8000000 		call	bufAppendBlock@PLT
 3185      00
 3186              	.LEHE90:
 3187 0ace 89442454 		movl	%eax, 84(%rsp)
 3188              	.LEHB91:
 3189 0ad2 E8000000 		call	_ZN8UnitTest11CurrentTest7DetailsEv@PLT
 3189      00
 3190 0ad7 488B30   		movq	(%rax), %rsi
 3191 0ada BA410000 		movl	$65, %edx
 3191      00
 3192 0adf 4889EF   		movq	%rbp, %rdi
 3193 0ae2 E8000000 		call	_ZN8UnitTest11TestDetailsC1ERKS0_i@PLT
 3193      00
 3194 0ae7 C7442468 		movl	$0, 104(%rsp)
 3194      00000000 
 3195 0aef E8000000 		call	_ZN8UnitTest11CurrentTest7ResultsEv@PLT
 3195      00
 3196 0af4 488B38   		movq	(%rax), %rdi
 3197 0af7 488D5424 		leaq	84(%rsp), %rdx
 3197      54
 3198 0afc 488D7424 		leaq	104(%rsp), %rsi
 3198      68
 3199 0b01 4889E9   		movq	%rbp, %rcx
 3200 0b04 E8000000 		call	_ZN8UnitTest10CheckEqualI12BufferStatusS1_EEvRNS_11TestResultsERKT_RKT0_RKNS_11TestDetailsE
 3200      00
 3201              	.LEHE91:
 3202              	.L261:
 3203 0b09 4C8D3500 		leaq	.LC14(%rip), %r14
 3203      000000
 3204 0b10 4531C0   		xorl	%r8d, %r8d
 3205 0b13 31D2     		xorl	%edx, %edx
 3206 0b15 4C89FF   		movq	%r15, %rdi
 3207 0b18 488B4C24 		movq	120(%rsp), %rcx
 3207      78
 3208 0b1d 4C89F6   		movq	%r14, %rsi
 3209              	.LEHB92:
 3210 0b20 E8000000 		call	bufWriteBinaryFile@PLT
 3210      00
 3211              	.LEHE92:
 3212 0b25 89442454 		movl	%eax, 84(%rsp)
 3213              	.LEHB93:
 3214 0b29 E8000000 		call	_ZN8UnitTest11CurrentTest7DetailsEv@PLT
 3214      00
 3215 0b2e 488B30   		movq	(%rax), %rsi
 3216 0b31 BA440000 		movl	$68, %edx
 3216      00
 3217 0b36 4889EF   		movq	%rbp, %rdi
 3218 0b39 E8000000 		call	_ZN8UnitTest11TestDetailsC1ERKS0_i@PLT
 3218      00
 3219 0b3e C7442468 		movl	$0, 104(%rsp)
 3219      00000000 
 3220 0b46 E8000000 		call	_ZN8UnitTest11CurrentTest7ResultsEv@PLT
 3220      00
 3221 0b4b 488B38   		movq	(%rax), %rdi
 3222 0b4e 488D5424 		leaq	84(%rsp), %rdx
 3222      54
 3223 0b53 488D7424 		leaq	104(%rsp), %rsi
 3223      68
 3224 0b58 4889E9   		movq	%rbp, %rcx
 3225 0b5b E8000000 		call	_ZN8UnitTest10CheckEqualI12BufferStatusS1_EEvRNS_11TestResultsERKT_RKT0_RKNS_11TestDetailsE
 3225      00
 3226              	.LEHE93:
 3227              	.L264:
 3228 0b60 BA0E0000 		movl	$14, %edx
 3228      00
 3229 0b65 4C89F6   		movq	%r14, %rsi
 3230 0b68 4C89EF   		movq	%r13, %rdi
 3231              	.LEHB94:
 3232 0b6b E8000000 		call	_ZNSt13basic_filebufIcSt11char_traitsIcEE4openEPKcSt13_Ios_Openmode@PLT
 3232      00
 3233 0b70 488B9424 		movq	592(%rsp), %rdx
 3233      50020000 
 3234 0b78 488B7AE8 		movq	-24(%rdx), %rdi
 3235 0b7c 4C01E7   		addq	%r12, %rdi
 3236 0b7f 4885C0   		testq	%rax, %rax
 3237 0b82 0F84E805 		je	.L329
 3237      0000
 3238 0b88 31F6     		xorl	%esi, %esi
 3239 0b8a E8000000 		call	_ZNSt9basic_iosIcSt11char_traitsIcEE5clearESt12_Ios_Iostate@PLT
 3239      00
 3240              	.LEHE94:
 3241              	.L232:
 3242 0b8f 488D8424 		leaq	712(%rsp), %rax
 3242      C8020000 
 3243 0b97 4889C7   		movq	%rax, %rdi
 3244 0b9a 48890424 		movq	%rax, (%rsp)
 3245 0b9e E8000000 		call	_ZNKSt12__basic_fileIcE7is_openEv@PLT
 3245      00
 3246 0ba3 84C0     		testb	%al, %al
 3247 0ba5 752F     		jne	.L234
 3248              	.LEHB95:
 3249 0ba7 E8000000 		call	_ZN8UnitTest11CurrentTest7ResultsEv@PLT
 3249      00
 3250 0bac 488B18   		movq	(%rax), %rbx
 3251 0baf E8000000 		call	_ZN8UnitTest11CurrentTest7DetailsEv@PLT
 3251      00
 3252 0bb4 488B30   		movq	(%rax), %rsi
 3253 0bb7 BA460000 		movl	$70, %edx
 3253      00
 3254 0bbc 4889EF   		movq	%rbp, %rdi
 3255 0bbf E8000000 		call	_ZN8UnitTest11TestDetailsC1ERKS0_i@PLT
 3255      00
 3256 0bc4 488D1500 		leaq	.LC21(%rip), %rdx
 3256      000000
 3257 0bcb 4889EE   		movq	%rbp, %rsi
 3258 0bce 4889DF   		movq	%rbx, %rdi
 3259 0bd1 E8000000 		call	_ZN8UnitTest11TestResults13OnTestFailureERKNS_11TestDetailsEPKc@PLT
 3259      00
 3260              	.LEHE95:
 3261              	.L234:
 3262 0bd6 4C89E7   		movq	%r12, %rdi
 3263              	.LEHB96:
 3264 0bd9 E8000000 		call	_ZNSi5tellgEv@PLT
 3264      00
 3265              	.LEHE96:
 3266 0bde 4889C3   		movq	%rax, %rbx
 3267              	.LEHB97:
 3268 0be1 E8000000 		call	_ZN8UnitTest11CurrentTest7DetailsEv@PLT
 3268      00
 3269 0be6 488B30   		movq	(%rax), %rsi
 3270 0be9 BA480000 		movl	$72, %edx
 3270      00
 3271 0bee 4889EF   		movq	%rbp, %rdi
 3272 0bf1 E8000000 		call	_ZN8UnitTest11TestDetailsC1ERKS0_i@PLT
 3272      00
 3273 0bf6 48895C24 		movq	%rbx, 104(%rsp)
 3273      68
 3274 0bfb 48C74424 		movq	$19, 96(%rsp)
 3274      60130000 
 3274      00
 3275 0c04 E8000000 		call	_ZN8UnitTest11CurrentTest7ResultsEv@PLT
 3275      00
 3276 0c09 488B38   		movq	(%rax), %rdi
 3277 0c0c 488D5424 		leaq	104(%rsp), %rdx
 3277      68
 3278 0c11 488D7424 		leaq	96(%rsp), %rsi
 3278      60
 3279 0c16 4889E9   		movq	%rbp, %rcx
 3280 0c19 E8000000 		call	_ZN8UnitTest10CheckEqualImmEEvRNS_11TestResultsERKT_RKT0_RKNS_11TestDetailsE
 3280      00
 3281              	.LEHE97:
 3282              	.L270:
 3283 0c1e 89DF     		movl	%ebx, %edi
 3284              	.LEHB98:
 3285 0c20 E8000000 		call	_Znam@PLT
 3285      00
 3286 0c25 31D2     		xorl	%edx, %edx
 3287 0c27 31F6     		xorl	%esi, %esi
 3288 0c29 4C89E7   		movq	%r12, %rdi
 3289 0c2c 48894424 		movq	%rax, 16(%rsp)
 3289      10
 3290 0c31 48894424 		movq	%rax, 96(%rsp)
 3290      60
 3291 0c36 E8000000 		call	_ZNSi5seekgElSt12_Ios_Seekdir@PLT
 3291      00
 3292 0c3b 488B7424 		movq	16(%rsp), %rsi
 3292      10
 3293 0c40 4889DA   		movq	%rbx, %rdx
 3294 0c43 4C89E7   		movq	%r12, %rdi
 3295 0c46 E8000000 		call	_ZNSi4readEPcl@PLT
 3295      00
 3296 0c4b 4C89EF   		movq	%r13, %rdi
 3297 0c4e E8000000 		call	_ZNSt13basic_filebufIcSt11char_traitsIcEE5closeEv@PLT
 3297      00
 3298              	.LEHE98:
 3299 0c53 4885C0   		testq	%rax, %rax
 3300 0c56 0F842405 		je	.L330
 3300      0000
 3301              	.L235:
 3302              	.LEHB99:
 3303 0c5c E8000000 		call	_ZN8UnitTest11CurrentTest7DetailsEv@PLT
 3303      00
 3304 0c61 488B30   		movq	(%rax), %rsi
 3305 0c64 BA4D0000 		movl	$77, %edx
 3305      00
 3306 0c69 4889EF   		movq	%rbp, %rdi
 3307 0c6c E8000000 		call	_ZN8UnitTest11TestDetailsC1ERKS0_i@PLT
 3307      00
 3308 0c71 E8000000 		call	_ZN8UnitTest11CurrentTest7ResultsEv@PLT
 3308      00
 3309 0c76 488B38   		movq	(%rax), %rdi
 3310 0c79 488D5424 		leaq	96(%rsp), %rdx
 3310      60
 3311 0c7e 488D7424 		leaq	88(%rsp), %rsi
 3311      58
 3312 0c83 4989E8   		movq	%rbp, %r8
 3313 0c86 89D9     		movl	%ebx, %ecx
 3314 0c88 E8000000 		call	_ZN8UnitTest15CheckArrayEqualIPKcPcEEvRNS_11TestResultsERKT_RKT0_iRKNS_11TestDetailsE
 3314      00
 3315              	.LEHE99:
 3316              	.L273:
 3317 0c8d 4531C0   		xorl	%r8d, %r8d
 3318 0c90 B9090000 		movl	$9, %ecx
 3318      00
 3319 0c95 BA050000 		movl	$5, %edx
 3319      00
 3320 0c9a 4C89F6   		movq	%r14, %rsi
 3321 0c9d 4C89FF   		movq	%r15, %rdi
 3322              	.LEHB100:
 3323 0ca0 E8000000 		call	bufWriteBinaryFile@PLT
 3323      00
 3324              	.LEHE100:
 3325 0ca5 89442454 		movl	%eax, 84(%rsp)
 3326              	.LEHB101:
 3327 0ca9 E8000000 		call	_ZN8UnitTest11CurrentTest7DetailsEv@PLT
 3327      00
 3328 0cae 488B30   		movq	(%rax), %rsi
 3329 0cb1 BA500000 		movl	$80, %edx
 3329      00
 3330 0cb6 4889EF   		movq	%rbp, %rdi
 3331 0cb9 E8000000 		call	_ZN8UnitTest11TestDetailsC1ERKS0_i@PLT
 3331      00
 3332 0cbe C7442468 		movl	$0, 104(%rsp)
 3332      00000000 
 3333 0cc6 E8000000 		call	_ZN8UnitTest11CurrentTest7ResultsEv@PLT
 3333      00
 3334 0ccb 488B38   		movq	(%rax), %rdi
 3335 0cce 488D5424 		leaq	84(%rsp), %rdx
 3335      54
 3336 0cd3 488D7424 		leaq	104(%rsp), %rsi
 3336      68
 3337 0cd8 4889E9   		movq	%rbp, %rcx
 3338 0cdb E8000000 		call	_ZN8UnitTest10CheckEqualI12BufferStatusS1_EEvRNS_11TestResultsERKT_RKT0_RKNS_11TestDetailsE
 3338      00
 3339              	.LEHE101:
 3340              	.L276:
 3341 0ce0 BA0E0000 		movl	$14, %edx
 3341      00
 3342 0ce5 4C89F6   		movq	%r14, %rsi
 3343 0ce8 4C89EF   		movq	%r13, %rdi
 3344              	.LEHB102:
 3345 0ceb E8000000 		call	_ZNSt13basic_filebufIcSt11char_traitsIcEE4openEPKcSt13_Ios_Openmode@PLT
 3345      00
 3346 0cf0 488B9424 		movq	592(%rsp), %rdx
 3346      50020000 
 3347 0cf8 488B7AE8 		movq	-24(%rdx), %rdi
 3348 0cfc 4C01E7   		addq	%r12, %rdi
 3349 0cff 4885C0   		testq	%rax, %rax
 3350 0d02 0F845804 		je	.L331
 3350      0000
 3351 0d08 31F6     		xorl	%esi, %esi
 3352 0d0a E8000000 		call	_ZNSt9basic_iosIcSt11char_traitsIcEE5clearESt12_Ios_Iostate@PLT
 3352      00
 3353              	.LEHE102:
 3354              	.L237:
 3355 0d0f 488B3C24 		movq	(%rsp), %rdi
 3356 0d13 E8000000 		call	_ZNKSt12__basic_fileIcE7is_openEv@PLT
 3356      00
 3357 0d18 84C0     		testb	%al, %al
 3358 0d1a 752F     		jne	.L239
 3359              	.LEHB103:
 3360 0d1c E8000000 		call	_ZN8UnitTest11CurrentTest7ResultsEv@PLT
 3360      00
 3361 0d21 4C8B30   		movq	(%rax), %r14
 3362 0d24 E8000000 		call	_ZN8UnitTest11CurrentTest7DetailsEv@PLT
 3362      00
 3363 0d29 488B30   		movq	(%rax), %rsi
 3364 0d2c BA520000 		movl	$82, %edx
 3364      00
 3365 0d31 4889EF   		movq	%rbp, %rdi
 3366 0d34 E8000000 		call	_ZN8UnitTest11TestDetailsC1ERKS0_i@PLT
 3366      00
 3367 0d39 488D1500 		leaq	.LC21(%rip), %rdx
 3367      000000
 3368 0d40 4889EE   		movq	%rbp, %rsi
 3369 0d43 4C89F7   		movq	%r14, %rdi
 3370 0d46 E8000000 		call	_ZN8UnitTest11TestResults13OnTestFailureERKNS_11TestDetailsEPKc@PLT
 3370      00
 3371              	.LEHE103:
 3372              	.L239:
 3373 0d4b 4C89E7   		movq	%r12, %rdi
 3374              	.LEHB104:
 3375 0d4e E8000000 		call	_ZNSi5tellgEv@PLT
 3375      00
 3376              	.LEHE104:
 3377 0d53 4889C3   		movq	%rax, %rbx
 3378              	.LEHB105:
 3379 0d56 E8000000 		call	_ZN8UnitTest11CurrentTest7DetailsEv@PLT
 3379      00
 3380 0d5b 488B30   		movq	(%rax), %rsi
 3381 0d5e BA540000 		movl	$84, %edx
 3381      00
 3382 0d63 4889EF   		movq	%rbp, %rdi
 3383 0d66 E8000000 		call	_ZN8UnitTest11TestDetailsC1ERKS0_i@PLT
 3383      00
 3384 0d6b E8000000 		call	_ZN8UnitTest11CurrentTest7ResultsEv@PLT
 3384      00
 3385              	.LEHE105:
 3386 0d70 F30F7E0D 		movq	.LC2(%rip), %xmm1
 3386      00000000 
 3387 0d78 488B00   		movq	(%rax), %rax
 3388 0d7b 0F160D00 		movhps	.LC3(%rip), %xmm1
 3388      000000
 3389 0d82 48894424 		movq	%rax, 16(%rsp)
 3389      10
 3390 0d87 0F294C24 		movaps	%xmm1, 32(%rsp)
 3390      20
 3391 0d8c 4883FB09 		cmpq	$9, %rbx
 3392 0d90 0F854A01 		jne	.L332
 3392      0000
 3393              	.L248:
 3394 0d96 31D2     		xorl	%edx, %edx
 3395 0d98 31F6     		xorl	%esi, %esi
 3396 0d9a 4C89E7   		movq	%r12, %rdi
 3397              	.LEHB106:
 3398 0d9d E8000000 		call	_ZNSi5seekgElSt12_Ios_Seekdir@PLT
 3398      00
 3399 0da2 488B7424 		movq	96(%rsp), %rsi
 3399      60
 3400 0da7 4889DA   		movq	%rbx, %rdx
 3401 0daa 4C89E7   		movq	%r12, %rdi
 3402 0dad E8000000 		call	_ZNSi4readEPcl@PLT
 3402      00
 3403 0db2 4C89EF   		movq	%r13, %rdi
 3404 0db5 E8000000 		call	_ZNSt13basic_filebufIcSt11char_traitsIcEE5closeEv@PLT
 3404      00
 3405              	.LEHE106:
 3406 0dba 4885C0   		testq	%rax, %rax
 3407 0dbd 0F84DD03 		je	.L333
 3407      0000
 3408              	.L250:
 3409              	.LEHB107:
 3410 0dc3 E8000000 		call	_ZN8UnitTest11CurrentTest7DetailsEv@PLT
 3410      00
 3411 0dc8 488B30   		movq	(%rax), %rsi
 3412 0dcb BA580000 		movl	$88, %edx
 3412      00
 3413 0dd0 4889EF   		movq	%rbp, %rdi
 3414 0dd3 E8000000 		call	_ZN8UnitTest11TestDetailsC1ERKS0_i@PLT
 3414      00
 3415 0dd8 488D0500 		leaq	5+.LC13(%rip), %rax
 3415      000000
 3416 0ddf 48894424 		movq	%rax, 104(%rsp)
 3416      68
 3417 0de4 E8000000 		call	_ZN8UnitTest11CurrentTest7ResultsEv@PLT
 3417      00
 3418 0de9 488B38   		movq	(%rax), %rdi
 3419 0dec 488D5424 		leaq	96(%rsp), %rdx
 3419      60
 3420 0df1 488D7424 		leaq	104(%rsp), %rsi
 3420      68
 3421 0df6 4989E8   		movq	%rbp, %r8
 3422 0df9 89D9     		movl	%ebx, %ecx
 3423 0dfb E8000000 		call	_ZN8UnitTest15CheckArrayEqualIPKcPcEEvRNS_11TestResultsERKT_RKT0_iRKNS_11TestDetailsE
 3423      00
 3424              	.LEHE107:
 3425              	.L283:
 3426 0e00 488B7C24 		movq	96(%rsp), %rdi
 3426      60
 3427 0e05 4885FF   		testq	%rdi, %rdi
 3428 0e08 7405     		je	.L251
 3429 0e0a E8000000 		call	_ZdaPv@PLT
 3429      00
 3430              	.L251:
 3431 0e0f 4C89FF   		movq	%r15, %rdi
 3432              	.LEHB108:
 3433 0e12 E8000000 		call	bufDestroy@PLT
 3433      00
 3434              	.LEHE108:
 3435 0e17 488D0500 		leaq	24+_ZTVSt14basic_ifstreamIcSt11char_traitsIcEE(%rip), %rax
 3435      000000
 3436 0e1e 4C89EF   		movq	%r13, %rdi
 3437 0e21 48898424 		movq	%rax, 592(%rsp)
 3437      50020000 
 3438 0e29 4883C028 		addq	$40, %rax
 3439 0e2d 48898424 		movq	%rax, 848(%rsp)
 3439      50030000 
 3440 0e35 488D0500 		leaq	16+_ZTVSt13basic_filebufIcSt11char_traitsIcEE(%rip), %rax
 3440      000000
 3441 0e3c 48898424 		movq	%rax, 608(%rsp)
 3441      60020000 
 3442              	.LEHB109:
 3443 0e44 E8000000 		call	_ZNSt13basic_filebufIcSt11char_traitsIcEE5closeEv@PLT
 3443      00
 3444              	.LEHE109:
 3445              	.L253:
 3446 0e49 488B3C24 		movq	(%rsp), %rdi
 3447              	.LEHB110:
 3448 0e4d E8000000 		call	_ZNSt12__basic_fileIcED1Ev@PLT
 3448      00
 3449              	.LEHE110:
 3450 0e52 488D0500 		leaq	16+_ZTVSt15basic_streambufIcSt11char_traitsIcEE(%rip), %rax
 3450      000000
 3451 0e59 488DBC24 		leaq	664(%rsp), %rdi
 3451      98020000 
 3452 0e61 48898424 		movq	%rax, 608(%rsp)
 3452      60020000 
 3453 0e69 E8000000 		call	_ZNSt6localeD1Ev@PLT
 3453      00
 3454 0e6e 488B0500 		movq	8+_ZTTSt14basic_ifstreamIcSt11char_traitsIcEE(%rip), %rax
 3454      000000
 3455 0e75 488B7C24 		movq	8(%rsp), %rdi
 3455      08
 3456 0e7a 488B0D00 		movq	16+_ZTTSt14basic_ifstreamIcSt11char_traitsIcEE(%rip), %rcx
 3456      000000
 3457 0e81 48898424 		movq	%rax, 592(%rsp)
 3457      50020000 
 3458 0e89 488B40E8 		movq	-24(%rax), %rax
 3459 0e8d 48898C04 		movq	%rcx, 592(%rsp,%rax)
 3459      50020000 
 3460 0e95 488D0500 		leaq	16+_ZTVSt9basic_iosIcSt11char_traitsIcEE(%rip), %rax
 3460      000000
 3461 0e9c 48898424 		movq	%rax, 848(%rsp)
 3461      50030000 
 3462 0ea4 48C78424 		movq	$0, 600(%rsp)
 3462      58020000 
 3462      00000000 
 3463              	.LEHB111:
 3464 0eb0 E8000000 		call	_ZNSt8ios_baseD2Ev@PLT
 3464      00
 3465              	.LEHE111:
 3466 0eb5 488B8424 		movq	1112(%rsp), %rax
 3466      58040000 
 3467 0ebd 64482B04 		subq	%fs:40, %rax
 3467      25280000 
 3467      00
 3468 0ec6 0F85F302 		jne	.L334
 3468      0000
 3469 0ecc 4881C468 		addq	$1128, %rsp
 3469      040000
 3470              		.cfi_remember_state
 3471              		.cfi_def_cfa_offset 56
 3472 0ed3 5B       		popq	%rbx
 3473              		.cfi_def_cfa_offset 48
 3474 0ed4 5D       		popq	%rbp
 3475              		.cfi_def_cfa_offset 40
 3476 0ed5 415C     		popq	%r12
 3477              		.cfi_def_cfa_offset 32
 3478 0ed7 415D     		popq	%r13
 3479              		.cfi_def_cfa_offset 24
 3480 0ed9 415E     		popq	%r14
 3481              		.cfi_def_cfa_offset 16
 3482 0edb 415F     		popq	%r15
 3483              		.cfi_def_cfa_offset 8
 3484 0edd C3       		ret
 3485 0ede 6690     		.p2align 4,,10
 3486              		.p2align 3
 3487              	.L332:
 3488              		.cfi_restore_state
 3489 0ee0 4C8DB424 		leaq	320(%rsp), %r14
 3489      40010000 
 3490 0ee8 4C89F7   		movq	%r14, %rdi
 3491 0eeb 4C897424 		movq	%r14, 48(%rsp)
 3491      30
 3492 0ef0 E8000000 		call	_ZNSt8ios_baseC2Ev@PLT
 3492      00
 3493 0ef5 31C0     		xorl	%eax, %eax
 3494 0ef7 660FEFC0 		pxor	%xmm0, %xmm0
 3495 0efb 31F6     		xorl	%esi, %esi
 3496 0efd 66898424 		movw	%ax, 544(%rsp)
 3496      20020000 
 3497 0f05 488D0500 		leaq	24+_ZTCN8UnitTest15MemoryOutStreamE0_So(%rip), %rax
 3497      000000
 3498 0f0c 4C89F7   		movq	%r14, %rdi
 3499 0f0f 48898424 		movq	%rax, 176(%rsp)
 3499      B0000000 
 3500 0f17 4883C028 		addq	$40, %rax
 3501 0f1b 48C78424 		movq	$0, 536(%rsp)
 3501      18020000 
 3501      00000000 
 3502 0f27 48898424 		movq	%rax, 320(%rsp)
 3502      40010000 
 3503 0f2f 0F118424 		movups	%xmm0, 552(%rsp)
 3503      28020000 
 3504 0f37 0F118424 		movups	%xmm0, 568(%rsp)
 3504      38020000 
 3505              	.LEHB112:
 3506 0f3f E8000000 		call	_ZNSt9basic_iosIcSt11char_traitsIcEE4initEPSt15basic_streambufIcS1_E@PLT
 3506      00
 3507              	.LEHE112:
 3508 0f44 488D0500 		leaq	64+_ZTCN8UnitTest15MemoryOutStreamE0_NSt7__cxx1119basic_ostringstreamIcSt11char_traitsIcESaIc
 3508      000000
 3509 0f4b 660F6F4C 		movdqa	32(%rsp), %xmm1
 3509      2420
 3510 0f51 660FEFC0 		pxor	%xmm0, %xmm0
 3511 0f55 4C8DB424 		leaq	176(%rsp), %r14
 3511      B0000000 
 3512 0f5d 48898424 		movq	%rax, 320(%rsp)
 3512      40010000 
 3513 0f65 488D8424 		leaq	240(%rsp), %rax
 3513      F0000000 
 3514 0f6d 4889C7   		movq	%rax, %rdi
 3515 0f70 48894424 		movq	%rax, 56(%rsp)
 3515      38
 3516 0f75 0F298C24 		movaps	%xmm1, 176(%rsp)
 3516      B0000000 
 3517 0f7d 0F298424 		movaps	%xmm0, 192(%rsp)
 3517      C0000000 
 3518 0f85 0F298424 		movaps	%xmm0, 208(%rsp)
 3518      D0000000 
 3519 0f8d 0F298424 		movaps	%xmm0, 224(%rsp)
 3519      E0000000 
 3520 0f95 E8000000 		call	_ZNSt6localeC1Ev@PLT
 3520      00
 3521 0f9a 488D0500 		leaq	16+_ZTVNSt7__cxx1115basic_stringbufIcSt11char_traitsIcESaIcEEE(%rip), %rax
 3521      000000
 3522 0fa1 48C78424 		movq	$0, 264(%rsp)
 3522      08010000 
 3522      00000000 
 3523 0fad 488DB424 		leaq	184(%rsp), %rsi
 3523      B8000000 
 3524 0fb5 48898424 		movq	%rax, 184(%rsp)
 3524      B8000000 
 3525 0fbd 488D8424 		leaq	272(%rsp), %rax
 3525      10010000 
 3526 0fc5 48894424 		movq	%rax, 64(%rsp)
 3526      40
 3527 0fca 48898424 		movq	%rax, 256(%rsp)
 3527      00010000 
 3528 0fd2 488B8424 		movq	176(%rsp), %rax
 3528      B0000000 
 3529 0fda C6842410 		movb	$0, 272(%rsp)
 3529      01000000 
 3530 0fe2 488B78E8 		movq	-24(%rax), %rdi
 3531 0fe6 48897424 		movq	%rsi, 32(%rsp)
 3531      20
 3532 0feb C78424F8 		movl	$16, 248(%rsp)
 3532      00000010 
 3532      000000
 3533 0ff6 4C01F7   		addq	%r14, %rdi
 3534              	.LEHB113:
 3535 0ff9 E8000000 		call	_ZNSt9basic_iosIcSt11char_traitsIcEE4initEPSt15basic_streambufIcS1_E@PLT
 3535      00
 3536              	.LEHE113:
 3537 0ffe 488D0500 		leaq	24+_ZTVN8UnitTest15MemoryOutStreamE(%rip), %rax
 3537      000000
 3538 1005 BA090000 		movl	$9, %edx
 3538      00
 3539 100a 4C89F7   		movq	%r14, %rdi
 3540 100d 48C78424 		movq	$0, 296(%rsp)
 3540      28010000 
 3540      00000000 
 3541 1019 48898424 		movq	%rax, 176(%rsp)
 3541      B0000000 
 3542 1021 4883C028 		addq	$40, %rax
 3543 1025 488D3500 		leaq	.LC0(%rip), %rsi
 3543      000000
 3544 102c 48898424 		movq	%rax, 320(%rsp)
 3544      40010000 
 3545 1034 488D8424 		leaq	304(%rsp), %rax
 3545      30010000 
 3546 103c 48894424 		movq	%rax, 72(%rsp)
 3546      48
 3547 1041 48898424 		movq	%rax, 288(%rsp)
 3547      20010000 
 3548 1049 C6842430 		movb	$0, 304(%rsp)
 3548      01000000 
 3549              	.LEHB114:
 3550 1051 E8000000 		call	_ZSt16__ostream_insertIcSt11char_traitsIcEERSt13basic_ostreamIT_T0_ES6_PKS3_l@PLT
 3550      00
 3551 1056 BE090000 		movl	$9, %esi
 3551      00
 3552 105b 4C89F7   		movq	%r14, %rdi
 3553 105e E8000000 		call	_ZNSolsEi@PLT
 3553      00
 3554 1063 BA090000 		movl	$9, %edx
 3554      00
 3555 1068 488D3500 		leaq	.LC1(%rip), %rsi
 3555      000000
 3556 106f 4889C7   		movq	%rax, %rdi
 3557 1072 48894424 		movq	%rax, 32(%rsp)
 3557      20
 3558 1077 E8000000 		call	_ZSt16__ostream_insertIcSt11char_traitsIcEERSt13basic_ostreamIT_T0_ES6_PKS3_l@PLT
 3558      00
 3559 107c 488B7C24 		movq	32(%rsp), %rdi
 3559      20
 3560 1081 4889DE   		movq	%rbx, %rsi
 3561 1084 E8000000 		call	_ZNSo9_M_insertIlEERSoT_@PLT
 3561      00
 3562 1089 4C89F7   		movq	%r14, %rdi
 3563 108c E8000000 		call	_ZNK8UnitTest15MemoryOutStream7GetTextEv@PLT
 3563      00
 3564 1091 488B7C24 		movq	16(%rsp), %rdi
 3564      10
 3565 1096 4889C2   		movq	%rax, %rdx
 3566 1099 4889EE   		movq	%rbp, %rsi
 3567 109c E8000000 		call	_ZN8UnitTest11TestResults13OnTestFailureERKNS_11TestDetailsEPKc@PLT
 3567      00
 3568              	.LEHE114:
 3569 10a1 488D0500 		leaq	24+_ZTVN8UnitTest15MemoryOutStreamE(%rip), %rax
 3569      000000
 3570 10a8 488BBC24 		movq	288(%rsp), %rdi
 3570      20010000 
 3571 10b0 F30F7E05 		movq	.LC2(%rip), %xmm0
 3571      00000000 
 3572 10b8 48898424 		movq	%rax, 176(%rsp)
 3572      B0000000 
 3573 10c0 4883C028 		addq	$40, %rax
 3574 10c4 48898424 		movq	%rax, 320(%rsp)
 3574      40010000 
 3575 10cc 0F160500 		movhps	.LC4(%rip), %xmm0
 3575      000000
 3576 10d3 483B7C24 		cmpq	72(%rsp), %rdi
 3576      48
 3577 10d8 7410     		je	.L246
 3578 10da 0F294424 		movaps	%xmm0, 16(%rsp)
 3578      10
 3579 10df E8000000 		call	_ZdlPv@PLT
 3579      00
 3580 10e4 660F6F44 		movdqa	16(%rsp), %xmm0
 3580      2410
 3581              	.L246:
 3582 10ea 488D0500 		leaq	64+_ZTCN8UnitTest15MemoryOutStreamE0_NSt7__cxx1119basic_ostringstreamIcSt11char_traitsIcESaIc
 3582      000000
 3583 10f1 488BBC24 		movq	256(%rsp), %rdi
 3583      00010000 
 3584 10f9 0F298424 		movaps	%xmm0, 176(%rsp)
 3584      B0000000 
 3585 1101 48898424 		movq	%rax, 320(%rsp)
 3585      40010000 
 3586 1109 483B7C24 		cmpq	64(%rsp), %rdi
 3586      40
 3587 110e 7405     		je	.L247
 3588 1110 E8000000 		call	_ZdlPv@PLT
 3588      00
 3589              	.L247:
 3590 1115 488B7C24 		movq	56(%rsp), %rdi
 3590      38
 3591 111a 488D0500 		leaq	16+_ZTVSt15basic_streambufIcSt11char_traitsIcEE(%rip), %rax
 3591      000000
 3592 1121 48898424 		movq	%rax, 184(%rsp)
 3592      B8000000 
 3593 1129 E8000000 		call	_ZNSt6localeD1Ev@PLT
 3593      00
 3594 112e 488D0500 		leaq	24+_ZTCN8UnitTest15MemoryOutStreamE0_So(%rip), %rax
 3594      000000
 3595 1135 488B7C24 		movq	48(%rsp), %rdi
 3595      30
 3596 113a 48898424 		movq	%rax, 176(%rsp)
 3596      B0000000 
 3597 1142 488D0500 		leaq	16+_ZTVSt9basic_iosIcSt11char_traitsIcEE(%rip), %rax
 3597      000000
 3598 1149 48898424 		movq	%rax, 320(%rsp)
 3598      40010000 
 3599              	.LEHB115:
 3600 1151 E8000000 		call	_ZNSt8ios_baseD2Ev@PLT
 3600      00
 3601              	.LEHE115:
 3602 1156 E93BFCFF 		jmp	.L248
 3602      FF
 3603 115b 0F1F4400 		.p2align 4,,10
 3603      00
 3604              		.p2align 3
 3605              	.L331:
 3606 1160 8B7720   		movl	32(%rdi), %esi
 3607 1163 83CE04   		orl	$4, %esi
 3608              	.LEHB116:
 3609 1166 E8000000 		call	_ZNSt9basic_iosIcSt11char_traitsIcEE5clearESt12_Ios_Iostate@PLT
 3609      00
 3610 116b E99FFBFF 		jmp	.L237
 3610      FF
 3611              		.p2align 4,,10
 3612              		.p2align 3
 3613              	.L329:
 3614 1170 8B7720   		movl	32(%rdi), %esi
 3615 1173 83CE04   		orl	$4, %esi
 3616 1176 E8000000 		call	_ZNSt9basic_iosIcSt11char_traitsIcEE5clearESt12_Ios_Iostate@PLT
 3616      00
 3617 117b E90FFAFF 		jmp	.L232
 3617      FF
 3618              		.p2align 4,,10
 3619              		.p2align 3
 3620              	.L330:
 3621 1180 488B8424 		movq	592(%rsp), %rax
 3621      50020000 
 3622 1188 488B78E8 		movq	-24(%rax), %rdi
 3623 118c 4C01E7   		addq	%r12, %rdi
 3624 118f 8B7720   		movl	32(%rdi), %esi
 3625 1192 83CE04   		orl	$4, %esi
 3626 1195 E8000000 		call	_ZNSt9basic_iosIcSt11char_traitsIcEE5clearESt12_Ios_Iostate@PLT
 3626      00
 3627 119a E9BDFAFF 		jmp	.L235
 3627      FF
 3628 119f 90       		.p2align 4,,10
 3629              		.p2align 3
 3630              	.L333:
 3631 11a0 488B8424 		movq	592(%rsp), %rax
 3631      50020000 
 3632 11a8 488B78E8 		movq	-24(%rax), %rdi
 3633 11ac 4C01E7   		addq	%r12, %rdi
 3634 11af 8B7720   		movl	32(%rdi), %esi
 3635 11b2 83CE04   		orl	$4, %esi
 3636 11b5 E8000000 		call	_ZNSt9basic_iosIcSt11char_traitsIcEE5clearESt12_Ios_Iostate@PLT
 3636      00
 3637              	.LEHE116:
 3638 11ba E904FCFF 		jmp	.L250
 3638      FF
 3639              	.L334:
 3640 11bf E8000000 		call	__stack_chk_fail@PLT
 3640      00
 3641              	.L313:
 3642 11c4 F30F1EFA 		endbr64
 3643 11c8 4889C5   		movq	%rax, %rbp
 3644 11cb E9000000 		jmp	.L255
 3644      00
 3645              	.L315:
 3646 11d0 F30F1EFA 		endbr64
 3647 11d4 4889C7   		movq	%rax, %rdi
 3648 11d7 E9000000 		jmp	.L252
 3648      00
 3649              	.L303:
 3650 11dc F30F1EFA 		endbr64
 3651 11e0 4889C7   		movq	%rax, %rdi
 3652 11e3 E9000000 		jmp	.L245
 3652      00
 3653              	.L301:
 3654 11e8 F30F1EFA 		endbr64
 3655 11ec 4889C7   		movq	%rax, %rdi
 3656 11ef E9000000 		jmp	.L278
 3656      00
 3657              	.L299:
 3658 11f4 F30F1EFA 		endbr64
 3659 11f8 4889C7   		movq	%rax, %rdi
 3660 11fb E9000000 		jmp	.L275
 3660      00
 3661              	.L297:
 3662 1200 F30F1EFA 		endbr64
 3663 1204 4889C7   		movq	%rax, %rdi
 3664 1207 E9000000 		jmp	.L272
 3664      00
 3665              	.L291:
 3666 120c F30F1EFA 		endbr64
 3667 1210 4889C7   		movq	%rax, %rdi
 3668 1213 E9000000 		jmp	.L263
 3668      00
 3669              	.L289:
 3670 1218 F30F1EFA 		endbr64
 3671 121c 4889C7   		movq	%rax, %rdi
 3672 121f E9000000 		jmp	.L260
 3672      00
 3673              	.L309:
 3674 1224 F30F1EFA 		endbr64
 3675 1228 4889C5   		movq	%rax, %rbp
 3676 122b E9000000 		jmp	.L228
 3676      00
 3677              	.L308:
 3678 1230 F30F1EFA 		endbr64
 3679 1234 4889C5   		movq	%rax, %rbp
 3680 1237 E9000000 		jmp	.L229
 3680      00
 3681              	.L293:
 3682 123c F30F1EFA 		endbr64
 3683 1240 4889C7   		movq	%rax, %rdi
 3684 1243 E9000000 		jmp	.L266
 3684      00
 3685              	.L295:
 3686 1248 F30F1EFA 		endbr64
 3687 124c 4889C7   		movq	%rax, %rdi
 3688 124f E9000000 		jmp	.L269
 3688      00
 3689              	.L312:
 3690 1254 F30F1EFA 		endbr64
 3691 1258 4989C6   		movq	%rax, %r14
 3692 125b E9000000 		jmp	.L242
 3692      00
 3693              	.L322:
 3694 1260 F30F1EFA 		endbr64
 3695 1264 E9000000 		jmp	.L323
 3695      00
 3696              	.L307:
 3697 1269 F30F1EFA 		endbr64
 3698 126d 4889C5   		movq	%rax, %rbp
 3699 1270 E9000000 		jmp	.L230
 3699      00
 3700              	.L310:
 3701 1275 F30F1EFA 		endbr64
 3702 1279 48894424 		movq	%rax, 16(%rsp)
 3702      10
 3703 127e E9000000 		jmp	.L249
 3703      00
 3704              	.L305:
 3705 1283 F30F1EFA 		endbr64
 3706 1287 4889C7   		movq	%rax, %rdi
 3707 128a E9000000 		jmp	.L282
 3707      00
 3708              	.L287:
 3709 128f F30F1EFA 		endbr64
 3710 1293 4889C7   		movq	%rax, %rdi
 3711 1296 E9000000 		jmp	.L256
 3711      00
 3712              	.L311:
 3713 129b F30F1EFA 		endbr64
 3714 129f 4989C6   		movq	%rax, %r14
 3715 12a2 E9000000 		jmp	.L243
 3715      00
 3716              		.section	.gcc_except_table
 3717              		.align 4
 3718              	.LLSDA1318:
 3719 01c8 FF       		.byte	0xff
 3720 01c9 9B       		.byte	0x9b
 3721 01ca C801     		.uleb128 .LLSDATT1318-.LLSDATTD1318
 3722              	.LLSDATTD1318:
 3723 01cc 01       		.byte	0x1
 3724 01cd BF01     		.uleb128 .LLSDACSE1318-.LLSDACSB1318
 3725              	.LLSDACSB1318:
 3726 01cf C801     		.uleb128 .LEHB85-.LFB1318
 3727 01d1 05       		.uleb128 .LEHE85-.LEHB85
 3728 01d2 8912     		.uleb128 .L307-.LFB1318
 3729 01d4 00       		.uleb128 0
 3730 01d5 F301     		.uleb128 .LEHB86-.LFB1318
 3731 01d7 05       		.uleb128 .LEHE86-.LEHB86
 3732 01d8 D011     		.uleb128 .L308-.LFB1318
 3733 01da 00       		.uleb128 0
 3734 01db FE01     		.uleb128 .LEHB87-.LFB1318
 3735 01dd 05       		.uleb128 .LEHE87-.LEHB87
 3736 01de C411     		.uleb128 .L309-.LFB1318
 3737 01e0 00       		.uleb128 0
 3738 01e1 9402     		.uleb128 .LEHB88-.LFB1318
 3739 01e3 05       		.uleb128 .LEHE88-.LEHB88
 3740 01e4 8012     		.uleb128 .L322-.LFB1318
 3741 01e6 00       		.uleb128 0
 3742 01e7 9D02     		.uleb128 .LEHB89-.LFB1318
 3743 01e9 3F       		.uleb128 .LEHE89-.LEHB89
 3744 01ea AF12     		.uleb128 .L287-.LFB1318
 3745 01ec 01       		.uleb128 0x1
 3746 01ed E902     		.uleb128 .LEHB90-.LFB1318
 3747 01ef 05       		.uleb128 .LEHE90-.LEHB90
 3748 01f0 8012     		.uleb128 .L322-.LFB1318
 3749 01f2 00       		.uleb128 0
 3750 01f3 F202     		.uleb128 .LEHB91-.LFB1318
 3751 01f5 37       		.uleb128 .LEHE91-.LEHB91
 3752 01f6 B811     		.uleb128 .L289-.LFB1318
 3753 01f8 01       		.uleb128 0x1
 3754 01f9 C003     		.uleb128 .LEHB92-.LFB1318
 3755 01fb 05       		.uleb128 .LEHE92-.LEHB92
 3756 01fc 8012     		.uleb128 .L322-.LFB1318
 3757 01fe 00       		.uleb128 0
 3758 01ff C903     		.uleb128 .LEHB93-.LFB1318
 3759 0201 37       		.uleb128 .LEHE93-.LEHB93
 3760 0202 AC11     		.uleb128 .L291-.LFB1318
 3761 0204 01       		.uleb128 0x1
 3762 0205 8B04     		.uleb128 .LEHB94-.LFB1318
 3763 0207 24       		.uleb128 .LEHE94-.LEHB94
 3764 0208 8012     		.uleb128 .L322-.LFB1318
 3765 020a 00       		.uleb128 0
 3766 020b C704     		.uleb128 .LEHB95-.LFB1318
 3767 020d 2F       		.uleb128 .LEHE95-.LEHB95
 3768 020e DC11     		.uleb128 .L293-.LFB1318
 3769 0210 01       		.uleb128 0x1
 3770 0211 F904     		.uleb128 .LEHB96-.LFB1318
 3771 0213 05       		.uleb128 .LEHE96-.LEHB96
 3772 0214 8012     		.uleb128 .L322-.LFB1318
 3773 0216 00       		.uleb128 0
 3774 0217 8105     		.uleb128 .LEHB97-.LFB1318
 3775 0219 3D       		.uleb128 .LEHE97-.LEHB97
 3776 021a E811     		.uleb128 .L295-.LFB1318
 3777 021c 01       		.uleb128 0x1
 3778 021d C005     		.uleb128 .LEHB98-.LFB1318
 3779 021f 33       		.uleb128 .LEHE98-.LEHB98
 3780 0220 8012     		.uleb128 .L322-.LFB1318
 3781 0222 00       		.uleb128 0
 3782 0223 FC05     		.uleb128 .LEHB99-.LFB1318
 3783 0225 31       		.uleb128 .LEHE99-.LEHB99
 3784 0226 A011     		.uleb128 .L297-.LFB1318
 3785 0228 01       		.uleb128 0x1
 3786 0229 C006     		.uleb128 .LEHB100-.LFB1318
 3787 022b 05       		.uleb128 .LEHE100-.LEHB100
 3788 022c 8012     		.uleb128 .L322-.LFB1318
 3789 022e 00       		.uleb128 0
 3790 022f C906     		.uleb128 .LEHB101-.LFB1318
 3791 0231 37       		.uleb128 .LEHE101-.LEHB101
 3792 0232 9411     		.uleb128 .L299-.LFB1318
 3793 0234 01       		.uleb128 0x1
 3794 0235 8B07     		.uleb128 .LEHB102-.LFB1318
 3795 0237 24       		.uleb128 .LEHE102-.LEHB102
 3796 0238 8012     		.uleb128 .L322-.LFB1318
 3797 023a 00       		.uleb128 0
 3798 023b BC07     		.uleb128 .LEHB103-.LFB1318
 3799 023d 2F       		.uleb128 .LEHE103-.LEHB103
 3800 023e 8811     		.uleb128 .L301-.LFB1318
 3801 0240 01       		.uleb128 0x1
 3802 0241 EE07     		.uleb128 .LEHB104-.LFB1318
 3803 0243 05       		.uleb128 .LEHE104-.LEHB104
 3804 0244 8012     		.uleb128 .L322-.LFB1318
 3805 0246 00       		.uleb128 0
 3806 0247 F607     		.uleb128 .LEHB105-.LFB1318
 3807 0249 1A       		.uleb128 .LEHE105-.LEHB105
 3808 024a FC10     		.uleb128 .L303-.LFB1318
 3809 024c 01       		.uleb128 0x1
 3810 024d BD08     		.uleb128 .LEHB106-.LFB1318
 3811 024f 1D       		.uleb128 .LEHE106-.LEHB106
 3812 0250 8012     		.uleb128 .L322-.LFB1318
 3813 0252 00       		.uleb128 0
 3814 0253 E308     		.uleb128 .LEHB107-.LFB1318
 3815 0255 3D       		.uleb128 .LEHE107-.LEHB107
 3816 0256 A312     		.uleb128 .L305-.LFB1318
 3817 0258 01       		.uleb128 0x1
 3818 0259 B209     		.uleb128 .LEHB108-.LFB1318
 3819 025b 05       		.uleb128 .LEHE108-.LEHB108
 3820 025c 8012     		.uleb128 .L322-.LFB1318
 3821 025e 00       		.uleb128 0
 3822 025f E409     		.uleb128 .LEHB109-.LFB1318
 3823 0261 05       		.uleb128 .LEHE109-.LEHB109
 3824 0262 F010     		.uleb128 .L315-.LFB1318
 3825 0264 01       		.uleb128 0x1
 3826 0265 ED09     		.uleb128 .LEHB110-.LFB1318
 3827 0267 05       		.uleb128 .LEHE110-.LEHB110
 3828 0268 E410     		.uleb128 .L313-.LFB1318
 3829 026a 00       		.uleb128 0
 3830 026b D00A     		.uleb128 .LEHB111-.LFB1318
 3831 026d 05       		.uleb128 .LEHE111-.LEHB111
 3832 026e 00       		.uleb128 0
 3833 026f 00       		.uleb128 0
 3834 0270 DF0B     		.uleb128 .LEHB112-.LFB1318
 3835 0272 05       		.uleb128 .LEHE112-.LEHB112
 3836 0273 BB12     		.uleb128 .L311-.LFB1318
 3837 0275 01       		.uleb128 0x1
 3838 0276 990D     		.uleb128 .LEHB113-.LFB1318
 3839 0278 05       		.uleb128 .LEHE113-.LEHB113
 3840 0279 F411     		.uleb128 .L312-.LFB1318
 3841 027b 01       		.uleb128 0x1
 3842 027c F10D     		.uleb128 .LEHB114-.LFB1318
 3843 027e 50       		.uleb128 .LEHE114-.LEHB114
 3844 027f 9512     		.uleb128 .L310-.LFB1318
 3845 0281 01       		.uleb128 0x1
 3846 0282 F10F     		.uleb128 .LEHB115-.LFB1318
 3847 0284 05       		.uleb128 .LEHE115-.LEHB115
 3848 0285 FC10     		.uleb128 .L303-.LFB1318
 3849 0287 01       		.uleb128 0x1
 3850 0288 8610     		.uleb128 .LEHB116-.LFB1318
 3851 028a 54       		.uleb128 .LEHE116-.LEHB116
 3852 028b 8012     		.uleb128 .L322-.LFB1318
 3853 028d 00       		.uleb128 0
 3854              	.LLSDACSE1318:
 3855 028e 01       		.byte	0x1
 3856 028f 00       		.byte	0
 3857              		.align 4
 3858 0290 00000000 		.long	0
 3859              	
 3860              	.LLSDATT1318:
 3861              		.text
 3862              		.cfi_endproc
 3863              		.section	.text.unlikely
 3864              		.cfi_startproc
 3865              		.cfi_personality 0x9b,DW.ref.__gxx_personality_v0
 3866              		.cfi_lsda 0x1b,.LLSDAC1318
 3868              	_ZNK23TestBinIO_testWriteFile7RunImplEv.cold:
 3869              	.LFSB1318:
 3870 0400 90       		nop
 3871              	.L314:
 3872              		.cfi_def_cfa_offset 1184
 3873              		.cfi_offset 3, -56
 3874              		.cfi_offset 6, -48
 3875              		.cfi_offset 12, -40
 3876              		.cfi_offset 13, -32
 3877              		.cfi_offset 14, -24
 3878              		.cfi_offset 15, -16
 3879 0401 F30F1EFA 		endbr64
 3880 0405 488B3C24 		movq	(%rsp), %rdi
 3881 0409 4889C5   		movq	%rax, %rbp
 3882 040c E8000000 		call	_ZNSt12__basic_fileIcED1Ev@PLT
 3882      00
 3883              	.L255:
 3884 0411 488D0500 		leaq	16+_ZTVSt15basic_streambufIcSt11char_traitsIcEE(%rip), %rax
 3884      000000
 3885 0418 488DBC24 		leaq	664(%rsp), %rdi
 3885      98020000 
 3886 0420 48898424 		movq	%rax, 608(%rsp)
 3886      60020000 
 3887 0428 E8000000 		call	_ZNSt6localeD1Ev@PLT
 3887      00
 3888 042d 488B0500 		movq	8+_ZTTSt14basic_ifstreamIcSt11char_traitsIcEE(%rip), %rax
 3888      000000
 3889 0434 488B7C24 		movq	8(%rsp), %rdi
 3889      08
 3890 0439 488B0D00 		movq	16+_ZTTSt14basic_ifstreamIcSt11char_traitsIcEE(%rip), %rcx
 3890      000000
 3891 0440 48898424 		movq	%rax, 592(%rsp)
 3891      50020000 
 3892 0448 488B40E8 		movq	-24(%rax), %rax
 3893 044c 48898C04 		movq	%rcx, 592(%rsp,%rax)
 3893      50020000 
 3894 0454 488D0500 		leaq	16+_ZTVSt9basic_iosIcSt11char_traitsIcEE(%rip), %rax
 3894      000000
 3895 045b 48C78424 		movq	$0, 600(%rsp)
 3895      58020000 
 3895      00000000 
 3896 0467 48898424 		movq	%rax, 848(%rsp)
 3896      50030000 
 3897 046f E8000000 		call	_ZNSt8ios_baseD2Ev@PLT
 3897      00
 3898 0474 4889EF   		movq	%rbp, %rdi
 3899              	.LEHB117:
 3900 0477 E8000000 		call	_Unwind_Resume@PLT
 3900      00
 3901              	.LEHE117:
 3902              	.L252:
 3903 047c E8000000 		call	__cxa_begin_catch@PLT
 3903      00
 3904              	.LEHB118:
 3905 0481 E8000000 		call	__cxa_end_catch@PLT
 3905      00
 3906              	.LEHE118:
 3907 0486 E9000000 		jmp	.L253
 3907      00
 3908              	.L242:
 3909 048b 488B7C24 		movq	32(%rsp), %rdi
 3909      20
 3910 0490 E8000000 		call	_ZNSt7__cxx1115basic_stringbufIcSt11char_traitsIcESaIcEED1Ev
 3910      00
 3911 0495 488D0500 		leaq	24+_ZTCN8UnitTest15MemoryOutStreamE0_So(%rip), %rax
 3911      000000
 3912 049c 48898424 		movq	%rax, 176(%rsp)
 3912      B0000000 
 3913              	.L243:
 3914 04a4 488B7C24 		movq	48(%rsp), %rdi
 3914      30
 3915 04a9 488D0500 		leaq	16+_ZTVSt9basic_iosIcSt11char_traitsIcEE(%rip), %rax
 3915      000000
 3916 04b0 48898424 		movq	%rax, 320(%rsp)
 3916      40010000 
 3917 04b8 E8000000 		call	_ZNSt8ios_baseD2Ev@PLT
 3917      00
 3918 04bd 4C89F7   		movq	%r14, %rdi
 3919              	.L245:
 3920 04c0 E8000000 		call	__cxa_begin_catch@PLT
 3920      00
 3921              	.LEHB119:
 3922 04c5 E8000000 		call	_ZN8UnitTest11CurrentTest7ResultsEv@PLT
 3922      00
 3923 04ca 4C8B30   		movq	(%rax), %r14
 3924 04cd E8000000 		call	_ZN8UnitTest11CurrentTest7DetailsEv@PLT
 3924      00
 3925 04d2 488B30   		movq	(%rax), %rsi
 3926 04d5 BA540000 		movl	$84, %edx
 3926      00
 3927 04da 4889EF   		movq	%rbp, %rdi
 3928 04dd E8000000 		call	_ZN8UnitTest11TestDetailsC1ERKS0_i@PLT
 3928      00
 3929 04e2 488D1500 		leaq	.LC25(%rip), %rdx
 3929      000000
 3930 04e9 4889EE   		movq	%rbp, %rsi
 3931 04ec 4C89F7   		movq	%r14, %rdi
 3932 04ef E8000000 		call	_ZN8UnitTest11TestResults13OnTestFailureERKNS_11TestDetailsEPKc@PLT
 3932      00
 3933              	.LEHE119:
 3934              	.LEHB120:
 3935 04f4 E8000000 		call	__cxa_end_catch@PLT
 3935      00
 3936              	.LEHE120:
 3937 04f9 E9000000 		jmp	.L248
 3937      00
 3938              	.L286:
 3939 04fe F30F1EFA 		endbr64
 3940              	.L323:
 3941 0502 4889C5   		movq	%rax, %rbp
 3942 0505 EB0C     		jmp	.L259
 3943              	.L304:
 3944 0507 F30F1EFA 		endbr64
 3945 050b 4889C5   		movq	%rax, %rbp
 3946 050e E8000000 		call	__cxa_end_catch@PLT
 3946      00
 3947              	.L259:
 3948 0513 4C89E7   		movq	%r12, %rdi
 3949 0516 E8000000 		call	_ZNSt14basic_ifstreamIcSt11char_traitsIcEED1Ev@PLT
 3949      00
 3950 051b 4889EF   		movq	%rbp, %rdi
 3951              	.LEHB121:
 3952 051e E8000000 		call	_Unwind_Resume@PLT
 3952      00
 3953              	.LEHE121:
 3954              	.L278:
 3955 0523 E8000000 		call	__cxa_begin_catch@PLT
 3955      00
 3956              	.LEHB122:
 3957 0528 E8000000 		call	_ZN8UnitTest11CurrentTest7ResultsEv@PLT
 3957      00
 3958 052d 4C8B30   		movq	(%rax), %r14
 3959 0530 E8000000 		call	_ZN8UnitTest11CurrentTest7DetailsEv@PLT
 3959      00
 3960 0535 488B30   		movq	(%rax), %rsi
 3961 0538 BA520000 		movl	$82, %edx
 3961      00
 3962 053d 4889EF   		movq	%rbp, %rdi
 3963 0540 E8000000 		call	_ZN8UnitTest11TestDetailsC1ERKS0_i@PLT
 3963      00
 3964 0545 488D1500 		leaq	.LC22(%rip), %rdx
 3964      000000
 3965 054c 4889EE   		movq	%rbp, %rsi
 3966 054f 4C89F7   		movq	%r14, %rdi
 3967 0552 E8000000 		call	_ZN8UnitTest11TestResults13OnTestFailureERKNS_11TestDetailsEPKc@PLT
 3967      00
 3968              	.LEHE122:
 3969              	.LEHB123:
 3970 0557 E8000000 		call	__cxa_end_catch@PLT
 3970      00
 3971              	.LEHE123:
 3972 055c E9000000 		jmp	.L239
 3972      00
 3973              	.L275:
 3974 0561 E8000000 		call	__cxa_begin_catch@PLT
 3974      00
 3975              	.LEHB124:
 3976 0566 E8000000 		call	_ZN8UnitTest11CurrentTest7ResultsEv@PLT
 3976      00
 3977 056b 488B18   		movq	(%rax), %rbx
 3978 056e E8000000 		call	_ZN8UnitTest11CurrentTest7DetailsEv@PLT
 3978      00
 3979 0573 488B30   		movq	(%rax), %rsi
 3980 0576 BA500000 		movl	$80, %edx
 3980      00
 3981 057b 4889EF   		movq	%rbp, %rdi
 3982 057e E8000000 		call	_ZN8UnitTest11TestDetailsC1ERKS0_i@PLT
 3982      00
 3983 0583 488D1500 		leaq	.LC6(%rip), %rdx
 3983      000000
 3984 058a 4889EE   		movq	%rbp, %rsi
 3985 058d 4889DF   		movq	%rbx, %rdi
 3986 0590 E8000000 		call	_ZN8UnitTest11TestResults13OnTestFailureERKNS_11TestDetailsEPKc@PLT
 3986      00
 3987              	.LEHE124:
 3988              	.LEHB125:
 3989 0595 E8000000 		call	__cxa_end_catch@PLT
 3989      00
 3990              	.LEHE125:
 3991 059a E9000000 		jmp	.L276
 3991      00
 3992              	.L302:
 3993 059f F30F1EFA 		endbr64
 3994 05a3 4889C5   		movq	%rax, %rbp
 3995 05a6 E8000000 		call	__cxa_end_catch@PLT
 3995      00
 3996 05ab E963FFFF 		jmp	.L259
 3996      FF
 3997              	.L300:
 3998 05b0 F30F1EFA 		endbr64
 3999 05b4 4889C5   		movq	%rax, %rbp
 4000 05b7 E8000000 		call	__cxa_end_catch@PLT
 4000      00
 4001 05bc E952FFFF 		jmp	.L259
 4001      FF
 4002              	.L272:
 4003 05c1 E8000000 		call	__cxa_begin_catch@PLT
 4003      00
 4004              	.LEHB126:
 4005 05c6 E8000000 		call	_ZN8UnitTest11CurrentTest7ResultsEv@PLT
 4005      00
 4006 05cb 488B18   		movq	(%rax), %rbx
 4007 05ce E8000000 		call	_ZN8UnitTest11CurrentTest7DetailsEv@PLT
 4007      00
 4008 05d3 488B30   		movq	(%rax), %rsi
 4009 05d6 BA4D0000 		movl	$77, %edx
 4009      00
 4010 05db 4889EF   		movq	%rbp, %rdi
 4011 05de E8000000 		call	_ZN8UnitTest11TestDetailsC1ERKS0_i@PLT
 4011      00
 4012 05e3 488D1500 		leaq	.LC24(%rip), %rdx
 4012      000000
 4013 05ea 4889EE   		movq	%rbp, %rsi
 4014 05ed 4889DF   		movq	%rbx, %rdi
 4015 05f0 E8000000 		call	_ZN8UnitTest11TestResults13OnTestFailureERKNS_11TestDetailsEPKc@PLT
 4015      00
 4016              	.LEHE126:
 4017              	.LEHB127:
 4018 05f5 E8000000 		call	__cxa_end_catch@PLT
 4018      00
 4019              	.LEHE127:
 4020 05fa E9000000 		jmp	.L273
 4020      00
 4021              	.L263:
 4022 05ff E8000000 		call	__cxa_begin_catch@PLT
 4022      00
 4023              	.LEHB128:
 4024 0604 E8000000 		call	_ZN8UnitTest11CurrentTest7ResultsEv@PLT
 4024      00
 4025 0609 488B18   		movq	(%rax), %rbx
 4026 060c E8000000 		call	_ZN8UnitTest11CurrentTest7DetailsEv@PLT
 4026      00
 4027 0611 488B30   		movq	(%rax), %rsi
 4028 0614 BA440000 		movl	$68, %edx
 4028      00
 4029 0619 4889EF   		movq	%rbp, %rdi
 4030 061c E8000000 		call	_ZN8UnitTest11TestDetailsC1ERKS0_i@PLT
 4030      00
 4031 0621 488D1500 		leaq	.LC6(%rip), %rdx
 4031      000000
 4032 0628 4889EE   		movq	%rbp, %rsi
 4033 062b 4889DF   		movq	%rbx, %rdi
 4034 062e E8000000 		call	_ZN8UnitTest11TestResults13OnTestFailureERKNS_11TestDetailsEPKc@PLT
 4034      00
 4035              	.LEHE128:
 4036              	.LEHB129:
 4037 0633 E8000000 		call	__cxa_end_catch@PLT
 4037      00
 4038              	.LEHE129:
 4039 0638 E9000000 		jmp	.L264
 4039      00
 4040              	.L298:
 4041 063d F30F1EFA 		endbr64
 4042 0641 4889C5   		movq	%rax, %rbp
 4043 0644 E8000000 		call	__cxa_end_catch@PLT
 4043      00
 4044 0649 E9C5FEFF 		jmp	.L259
 4044      FF
 4045              	.L292:
 4046 064e F30F1EFA 		endbr64
 4047 0652 4889C5   		movq	%rax, %rbp
 4048 0655 E8000000 		call	__cxa_end_catch@PLT
 4048      00
 4049 065a E9B4FEFF 		jmp	.L259
 4049      FF
 4050              	.L260:
 4051 065f E8000000 		call	__cxa_begin_catch@PLT
 4051      00
 4052              	.LEHB130:
 4053 0664 E8000000 		call	_ZN8UnitTest11CurrentTest7ResultsEv@PLT
 4053      00
 4054 0669 4C8B30   		movq	(%rax), %r14
 4055 066c E8000000 		call	_ZN8UnitTest11CurrentTest7DetailsEv@PLT
 4055      00
 4056 0671 488B30   		movq	(%rax), %rsi
 4057 0674 BA410000 		movl	$65, %edx
 4057      00
 4058 0679 4889EF   		movq	%rbp, %rdi
 4059 067c E8000000 		call	_ZN8UnitTest11TestDetailsC1ERKS0_i@PLT
 4059      00
 4060 0681 488D1500 		leaq	.LC6(%rip), %rdx
 4060      000000
 4061 0688 4889EE   		movq	%rbp, %rsi
 4062 068b 4C89F7   		movq	%r14, %rdi
 4063 068e E8000000 		call	_ZN8UnitTest11TestResults13OnTestFailureERKNS_11TestDetailsEPKc@PLT
 4063      00
 4064              	.LEHE130:
 4065              	.LEHB131:
 4066 0693 E8000000 		call	__cxa_end_catch@PLT
 4066      00
 4067              	.LEHE131:
 4068 0698 E9000000 		jmp	.L261
 4068      00
 4069              	.L228:
 4070 069d 4C89EF   		movq	%r13, %rdi
 4071 06a0 E8000000 		call	_ZNSt13basic_filebufIcSt11char_traitsIcEED1Ev@PLT
 4071      00
 4072              	.L229:
 4073 06a5 488B0500 		movq	8+_ZTTSt14basic_ifstreamIcSt11char_traitsIcEE(%rip), %rax
 4073      000000
 4074 06ac 488B0D00 		movq	16+_ZTTSt14basic_ifstreamIcSt11char_traitsIcEE(%rip), %rcx
 4074      000000
 4075 06b3 48898424 		movq	%rax, 592(%rsp)
 4075      50020000 
 4076 06bb 488B40E8 		movq	-24(%rax), %rax
 4077 06bf 48898C04 		movq	%rcx, 592(%rsp,%rax)
 4077      50020000 
 4078 06c7 48C78424 		movq	$0, 600(%rsp)
 4078      58020000 
 4078      00000000 
 4079              	.L230:
 4080 06d3 488B7C24 		movq	8(%rsp), %rdi
 4080      08
 4081 06d8 488D0500 		leaq	16+_ZTVSt9basic_iosIcSt11char_traitsIcEE(%rip), %rax
 4081      000000
 4082 06df 48898424 		movq	%rax, 848(%rsp)
 4082      50030000 
 4083 06e7 E8000000 		call	_ZNSt8ios_baseD2Ev@PLT
 4083      00
 4084 06ec 4889EF   		movq	%rbp, %rdi
 4085              	.LEHB132:
 4086 06ef E8000000 		call	_Unwind_Resume@PLT
 4086      00
 4087              	.LEHE132:
 4088              	.L290:
 4089 06f4 F30F1EFA 		endbr64
 4090 06f8 4889C5   		movq	%rax, %rbp
 4091 06fb E8000000 		call	__cxa_end_catch@PLT
 4091      00
 4092 0700 E90EFEFF 		jmp	.L259
 4092      FF
 4093              	.L269:
 4094 0705 E8000000 		call	__cxa_begin_catch@PLT
 4094      00
 4095              	.LEHB133:
 4096 070a E8000000 		call	_ZN8UnitTest11CurrentTest7ResultsEv@PLT
 4096      00
 4097 070f 488B00   		movq	(%rax), %rax
 4098 0712 48894424 		movq	%rax, 16(%rsp)
 4098      10
 4099 0717 E8000000 		call	_ZN8UnitTest11CurrentTest7DetailsEv@PLT
 4099      00
 4100 071c 488B30   		movq	(%rax), %rsi
 4101 071f BA480000 		movl	$72, %edx
 4101      00
 4102 0724 4889EF   		movq	%rbp, %rdi
 4103 0727 E8000000 		call	_ZN8UnitTest11TestDetailsC1ERKS0_i@PLT
 4103      00
 4104 072c 488B7C24 		movq	16(%rsp), %rdi
 4104      10
 4105 0731 488D1500 		leaq	.LC23(%rip), %rdx
 4105      000000
 4106 0738 4889EE   		movq	%rbp, %rsi
 4107 073b E8000000 		call	_ZN8UnitTest11TestResults13OnTestFailureERKNS_11TestDetailsEPKc@PLT
 4107      00
 4108              	.LEHE133:
 4109              	.LEHB134:
 4110 0740 E8000000 		call	__cxa_end_catch@PLT
 4110      00
 4111              	.LEHE134:
 4112 0745 E9000000 		jmp	.L270
 4112      00
 4113              	.L249:
 4114 074a 4C89F7   		movq	%r14, %rdi
 4115 074d E8000000 		call	_ZN8UnitTest15MemoryOutStreamD1Ev
 4115      00
 4116 0752 488B7C24 		movq	16(%rsp), %rdi
 4116      10
 4117 0757 E964FDFF 		jmp	.L245
 4117      FF
 4118              	.L282:
 4119 075c E8000000 		call	__cxa_begin_catch@PLT
 4119      00
 4120              	.LEHB135:
 4121 0761 E8000000 		call	_ZN8UnitTest11CurrentTest7ResultsEv@PLT
 4121      00
 4122 0766 4C8B30   		movq	(%rax), %r14
 4123 0769 E8000000 		call	_ZN8UnitTest11CurrentTest7DetailsEv@PLT
 4123      00
 4124 076e 488B30   		movq	(%rax), %rsi
 4125 0771 BA580000 		movl	$88, %edx
 4125      00
 4126 0776 4889EF   		movq	%rbp, %rdi
 4127 0779 E8000000 		call	_ZN8UnitTest11TestDetailsC1ERKS0_i@PLT
 4127      00
 4128 077e 488D1500 		leaq	.LC26(%rip), %rdx
 4128      000000
 4129 0785 4889EE   		movq	%rbp, %rsi
 4130 0788 4C89F7   		movq	%r14, %rdi
 4131 078b E8000000 		call	_ZN8UnitTest11TestResults13OnTestFailureERKNS_11TestDetailsEPKc@PLT
 4131      00
 4132              	.LEHE135:
 4133              	.LEHB136:
 4134 0790 E8000000 		call	__cxa_end_catch@PLT
 4134      00
 4135              	.LEHE136:
 4136 0795 E9000000 		jmp	.L283
 4136      00
 4137              	.L296:
 4138 079a F30F1EFA 		endbr64
 4139 079e 4889C5   		movq	%rax, %rbp
 4140 07a1 E8000000 		call	__cxa_end_catch@PLT
 4140      00
 4141 07a6 E968FDFF 		jmp	.L259
 4141      FF
 4142              	.L306:
 4143 07ab F30F1EFA 		endbr64
 4144 07af 4889C5   		movq	%rax, %rbp
 4145 07b2 E8000000 		call	__cxa_end_catch@PLT
 4145      00
 4146 07b7 E957FDFF 		jmp	.L259
 4146      FF
 4147              	.L266:
 4148 07bc E8000000 		call	__cxa_begin_catch@PLT
 4148      00
 4149              	.LEHB137:
 4150 07c1 E8000000 		call	_ZN8UnitTest11CurrentTest7ResultsEv@PLT
 4150      00
 4151 07c6 488B18   		movq	(%rax), %rbx
 4152 07c9 E8000000 		call	_ZN8UnitTest11CurrentTest7DetailsEv@PLT
 4152      00
 4153 07ce 488B30   		movq	(%rax), %rsi
 4154 07d1 BA460000 		movl	$70, %edx
 4154      00
 4155 07d6 4889EF   		movq	%rbp, %rdi
 4156 07d9 E8000000 		call	_ZN8UnitTest11TestDetailsC1ERKS0_i@PLT
 4156      00
 4157 07de 488D1500 		leaq	.LC22(%rip), %rdx
 4157      000000
 4158 07e5 4889EE   		movq	%rbp, %rsi
 4159 07e8 4889DF   		movq	%rbx, %rdi
 4160 07eb E8000000 		call	_ZN8UnitTest11TestResults13OnTestFailureERKNS_11TestDetailsEPKc@PLT
 4160      00
 4161              	.LEHE137:
 4162              	.LEHB138:
 4163 07f0 E8000000 		call	__cxa_end_catch@PLT
 4163      00
 4164              	.LEHE138:
 4165 07f5 E9000000 		jmp	.L234
 4165      00
 4166              	.L256:
 4167 07fa E8000000 		call	__cxa_begin_catch@PLT
 4167      00
 4168              	.LEHB139:
 4169 07ff E8000000 		call	_ZN8UnitTest11CurrentTest7ResultsEv@PLT
 4169      00
 4170 0804 488B18   		movq	(%rax), %rbx
 4171 0807 E8000000 		call	_ZN8UnitTest11CurrentTest7DetailsEv@PLT
 4171      00
 4172 080c 488DAC24 		leaq	144(%rsp), %rbp
 4172      90000000 
 4173 0814 488B30   		movq	(%rax), %rsi
 4174 0817 BA3F0000 		movl	$63, %edx
 4174      00
 4175 081c 4889EF   		movq	%rbp, %rdi
 4176 081f E8000000 		call	_ZN8UnitTest11TestDetailsC1ERKS0_i@PLT
 4176      00
 4177 0824 488D1500 		leaq	.LC6(%rip), %rdx
 4177      000000
 4178 082b 4889EE   		movq	%rbp, %rsi
 4179 082e 4889DF   		movq	%rbx, %rdi
 4180 0831 E8000000 		call	_ZN8UnitTest11TestResults13OnTestFailureERKNS_11TestDetailsEPKc@PLT
 4180      00
 4181              	.LEHE139:
 4182              	.LEHB140:
 4183 0836 E8000000 		call	__cxa_end_catch@PLT
 4183      00
 4184              	.LEHE140:
 4185 083b E9000000 		jmp	.L257
 4185      00
 4186              	.L294:
 4187 0840 F30F1EFA 		endbr64
 4188 0844 4889C5   		movq	%rax, %rbp
 4189 0847 E8000000 		call	__cxa_end_catch@PLT
 4189      00
 4190 084c E9C2FCFF 		jmp	.L259
 4190      FF
 4191              	.L288:
 4192 0851 F30F1EFA 		endbr64
 4193 0855 4889C5   		movq	%rax, %rbp
 4194 0858 E8000000 		call	__cxa_end_catch@PLT
 4194      00
 4195 085d E9B1FCFF 		jmp	.L259
 4195      FF
 4196              		.cfi_endproc
 4197              	.LFE1318:
 4198              		.section	.gcc_except_table
 4199              		.align 4
 4200              	.LLSDAC1318:
 4201 0294 FF       		.byte	0xff
 4202 0295 9B       		.byte	0x9b
 4203 0296 9401     		.uleb128 .LLSDATTC1318-.LLSDATTDC1318
 4204              	.LLSDATTDC1318:
 4205 0298 01       		.byte	0x1
 4206 0299 8B01     		.uleb128 .LLSDACSEC1318-.LLSDACSBC1318
 4207              	.LLSDACSBC1318:
 4208 029b 77       		.uleb128 .LEHB117-.LCOLDB27
 4209 029c 05       		.uleb128 .LEHE117-.LEHB117
 4210 029d 00       		.uleb128 0
 4211 029e 00       		.uleb128 0
 4212 029f 8101     		.uleb128 .LEHB118-.LCOLDB27
 4213 02a1 05       		.uleb128 .LEHE118-.LEHB118
 4214 02a2 01       		.uleb128 .L314-.LCOLDB27
 4215 02a3 00       		.uleb128 0
 4216 02a4 C501     		.uleb128 .LEHB119-.LCOLDB27
 4217 02a6 2F       		.uleb128 .LEHE119-.LEHB119
 4218 02a7 8702     		.uleb128 .L304-.LCOLDB27
 4219 02a9 00       		.uleb128 0
 4220 02aa F401     		.uleb128 .LEHB120-.LCOLDB27
 4221 02ac 05       		.uleb128 .LEHE120-.LEHB120
 4222 02ad FE01     		.uleb128 .L286-.LCOLDB27
 4223 02af 00       		.uleb128 0
 4224 02b0 9E02     		.uleb128 .LEHB121-.LCOLDB27
 4225 02b2 05       		.uleb128 .LEHE121-.LEHB121
 4226 02b3 00       		.uleb128 0
 4227 02b4 00       		.uleb128 0
 4228 02b5 A802     		.uleb128 .LEHB122-.LCOLDB27
 4229 02b7 2F       		.uleb128 .LEHE122-.LEHB122
 4230 02b8 9F03     		.uleb128 .L302-.LCOLDB27
 4231 02ba 00       		.uleb128 0
 4232 02bb D702     		.uleb128 .LEHB123-.LCOLDB27
 4233 02bd 05       		.uleb128 .LEHE123-.LEHB123
 4234 02be FE01     		.uleb128 .L286-.LCOLDB27
 4235 02c0 00       		.uleb128 0
 4236 02c1 E602     		.uleb128 .LEHB124-.LCOLDB27
 4237 02c3 2F       		.uleb128 .LEHE124-.LEHB124
 4238 02c4 B003     		.uleb128 .L300-.LCOLDB27
 4239 02c6 00       		.uleb128 0
 4240 02c7 9503     		.uleb128 .LEHB125-.LCOLDB27
 4241 02c9 05       		.uleb128 .LEHE125-.LEHB125
 4242 02ca FE01     		.uleb128 .L286-.LCOLDB27
 4243 02cc 00       		.uleb128 0
 4244 02cd C603     		.uleb128 .LEHB126-.LCOLDB27
 4245 02cf 2F       		.uleb128 .LEHE126-.LEHB126
 4246 02d0 BD04     		.uleb128 .L298-.LCOLDB27
 4247 02d2 00       		.uleb128 0
 4248 02d3 F503     		.uleb128 .LEHB127-.LCOLDB27
 4249 02d5 05       		.uleb128 .LEHE127-.LEHB127
 4250 02d6 FE01     		.uleb128 .L286-.LCOLDB27
 4251 02d8 00       		.uleb128 0
 4252 02d9 8404     		.uleb128 .LEHB128-.LCOLDB27
 4253 02db 2F       		.uleb128 .LEHE128-.LEHB128
 4254 02dc CE04     		.uleb128 .L292-.LCOLDB27
 4255 02de 00       		.uleb128 0
 4256 02df B304     		.uleb128 .LEHB129-.LCOLDB27
 4257 02e1 05       		.uleb128 .LEHE129-.LEHB129
 4258 02e2 FE01     		.uleb128 .L286-.LCOLDB27
 4259 02e4 00       		.uleb128 0
 4260 02e5 E404     		.uleb128 .LEHB130-.LCOLDB27
 4261 02e7 2F       		.uleb128 .LEHE130-.LEHB130
 4262 02e8 F405     		.uleb128 .L290-.LCOLDB27
 4263 02ea 00       		.uleb128 0
 4264 02eb 9305     		.uleb128 .LEHB131-.LCOLDB27
 4265 02ed 05       		.uleb128 .LEHE131-.LEHB131
 4266 02ee FE01     		.uleb128 .L286-.LCOLDB27
 4267 02f0 00       		.uleb128 0
 4268 02f1 EF05     		.uleb128 .LEHB132-.LCOLDB27
 4269 02f3 05       		.uleb128 .LEHE132-.LEHB132
 4270 02f4 00       		.uleb128 0
 4271 02f5 00       		.uleb128 0
 4272 02f6 8A06     		.uleb128 .LEHB133-.LCOLDB27
 4273 02f8 36       		.uleb128 .LEHE133-.LEHB133
 4274 02f9 9A07     		.uleb128 .L296-.LCOLDB27
 4275 02fb 00       		.uleb128 0
 4276 02fc C006     		.uleb128 .LEHB134-.LCOLDB27
 4277 02fe 05       		.uleb128 .LEHE134-.LEHB134
 4278 02ff FE01     		.uleb128 .L286-.LCOLDB27
 4279 0301 00       		.uleb128 0
 4280 0302 E106     		.uleb128 .LEHB135-.LCOLDB27
 4281 0304 2F       		.uleb128 .LEHE135-.LEHB135
 4282 0305 AB07     		.uleb128 .L306-.LCOLDB27
 4283 0307 00       		.uleb128 0
 4284 0308 9007     		.uleb128 .LEHB136-.LCOLDB27
 4285 030a 05       		.uleb128 .LEHE136-.LEHB136
 4286 030b FE01     		.uleb128 .L286-.LCOLDB27
 4287 030d 00       		.uleb128 0
 4288 030e C107     		.uleb128 .LEHB137-.LCOLDB27
 4289 0310 2F       		.uleb128 .LEHE137-.LEHB137
 4290 0311 C008     		.uleb128 .L294-.LCOLDB27
 4291 0313 00       		.uleb128 0
 4292 0314 F007     		.uleb128 .LEHB138-.LCOLDB27
 4293 0316 05       		.uleb128 .LEHE138-.LEHB138
 4294 0317 FE01     		.uleb128 .L286-.LCOLDB27
 4295 0319 00       		.uleb128 0
 4296 031a FF07     		.uleb128 .LEHB139-.LCOLDB27
 4297 031c 37       		.uleb128 .LEHE139-.LEHB139
 4298 031d D108     		.uleb128 .L288-.LCOLDB27
 4299 031f 00       		.uleb128 0
 4300 0320 B608     		.uleb128 .LEHB140-.LCOLDB27
 4301 0322 05       		.uleb128 .LEHE140-.LEHB140
 4302 0323 FE01     		.uleb128 .L286-.LCOLDB27
 4303 0325 00       		.uleb128 0
 4304              	.LLSDACSEC1318:
 4305 0326 01       		.byte	0x1
 4306 0327 00       		.byte	0
 4307              		.align 4
 4308 0328 00000000 		.long	0
 4309              	
 4310              	.LLSDATTC1318:
 4311              		.section	.text.unlikely
 4312              		.text
 4314              		.section	.text.unlikely
 4316              	.LCOLDE27:
 4317              		.text
 4318              	.LHOTE27:
 4319              		.section	.rodata.str1.1
 4320              	.LC28:
 4321 0043 74657374 		.string	"testBinIO.cpp"
 4321      42696E49 
 4321      4F2E6370 
 4321      7000
 4322              	.LC29:
 4323 0051 44656661 		.string	"DefaultSuite"
 4323      756C7453 
 4323      75697465 
 4323      00
 4324              	.LC30:
 4325 005e 42696E49 		.string	"BinIO_testReadNonExistentFile"
 4325      4F5F7465 
 4325      73745265 
 4325      61644E6F 
 4325      6E457869 
 4326              	.LC31:
 4327 007c 42696E49 		.string	"BinIO_testReadExistingFile"
 4327      4F5F7465 
 4327      73745265 
 4327      61644578 
 4327      69737469 
 4328              	.LC32:
 4329 0097 42696E49 		.string	"BinIO_testWriteFile"
 4329      4F5F7465 
 4329      73745772 
 4329      69746546 
 4329      696C6500 
 4330              		.section	.text.startup,"ax",@progbits
 4331              		.p2align 4
 4333              	_GLOBAL__sub_I_testBinIO_testReadNonExistentFileInstance:
 4334              	.LFB1457:
 4335              		.cfi_startproc
 4336 0000 F30F1EFA 		endbr64
 4337 0004 4157     		pushq	%r15
 4338              		.cfi_def_cfa_offset 16
 4339              		.cfi_offset 15, -16
 4340 0006 4C8D3D00 		leaq	testBinIO_testReadNonExistentFileInstance(%rip), %r15
 4340      000000
 4341 000d 41B81800 		movl	$24, %r8d
 4341      0000
 4342 0013 488D3500 		leaq	.LC30(%rip), %rsi
 4342      000000
 4343 001a 4156     		pushq	%r14
 4344              		.cfi_def_cfa_offset 24
 4345              		.cfi_offset 14, -24
 4346 001c 4C8D3500 		leaq	.LC28(%rip), %r14
 4346      000000
 4347 0023 4C89FF   		movq	%r15, %rdi
 4348 0026 4155     		pushq	%r13
 4349              		.cfi_def_cfa_offset 32
 4350              		.cfi_offset 13, -32
 4351 0028 4C89F1   		movq	%r14, %rcx
 4352 002b 4C8D2D00 		leaq	__dso_handle(%rip), %r13
 4352      000000
 4353 0032 4154     		pushq	%r12
 4354              		.cfi_def_cfa_offset 40
 4355              		.cfi_offset 12, -40
 4356 0034 4C8D2500 		leaq	.LC29(%rip), %r12
 4356      000000
 4357 003b 4C89E2   		movq	%r12, %rdx
 4358 003e 4883EC08 		subq	$8, %rsp
 4359              		.cfi_def_cfa_offset 48
 4360 0042 E8000000 		call	_ZN8UnitTest4TestC2EPKcS2_S2_i@PLT
 4360      00
 4361 0047 4C89EA   		movq	%r13, %rdx
 4362 004a 4C89FE   		movq	%r15, %rsi
 4363 004d 488D3D00 		leaq	_ZN33TestBinIO_testReadNonExistentFileD1Ev(%rip), %rdi
 4363      000000
 4364 0054 488D0500 		leaq	16+_ZTV33TestBinIO_testReadNonExistentFile(%rip), %rax
 4364      000000
 4365 005b 48890500 		movq	%rax, testBinIO_testReadNonExistentFileInstance(%rip)
 4365      000000
 4366 0062 E8000000 		call	__cxa_atexit@PLT
 4366      00
 4367 0067 E8000000 		call	_ZN8UnitTest4Test11GetTestListEv@PLT
 4367      00
 4368 006c 4C89FA   		movq	%r15, %rdx
 4369 006f 488D3D00 		leaq	adderBinIO_testReadNonExistentFile(%rip), %rdi
 4369      000000
 4370 0076 4C8D3D00 		leaq	testBinIO_testReadExistingFileInstance(%rip), %r15
 4370      000000
 4371 007d 4889C6   		movq	%rax, %rsi
 4372 0080 E8000000 		call	_ZN8UnitTest9ListAdderC1ERNS_8TestListEPNS_4TestE@PLT
 4372      00
 4373 0085 4C89F1   		movq	%r14, %rcx
 4374 0088 4C89E2   		movq	%r12, %rdx
 4375 008b 4C89FF   		movq	%r15, %rdi
 4376 008e 41B82100 		movl	$33, %r8d
 4376      0000
 4377 0094 488D3500 		leaq	.LC31(%rip), %rsi
 4377      000000
 4378 009b E8000000 		call	_ZN8UnitTest4TestC2EPKcS2_S2_i@PLT
 4378      00
 4379 00a0 4C89EA   		movq	%r13, %rdx
 4380 00a3 4C89FE   		movq	%r15, %rsi
 4381 00a6 488D3D00 		leaq	_ZN30TestBinIO_testReadExistingFileD1Ev(%rip), %rdi
 4381      000000
 4382 00ad 488D0500 		leaq	16+_ZTV30TestBinIO_testReadExistingFile(%rip), %rax
 4382      000000
 4383 00b4 48890500 		movq	%rax, testBinIO_testReadExistingFileInstance(%rip)
 4383      000000
 4384 00bb E8000000 		call	__cxa_atexit@PLT
 4384      00
 4385 00c0 E8000000 		call	_ZN8UnitTest4Test11GetTestListEv@PLT
 4385      00
 4386 00c5 4C89FA   		movq	%r15, %rdx
 4387 00c8 488D3D00 		leaq	adderBinIO_testReadExistingFile(%rip), %rdi
 4387      000000
 4388 00cf 4889C6   		movq	%rax, %rsi
 4389 00d2 E8000000 		call	_ZN8UnitTest9ListAdderC1ERNS_8TestListEPNS_4TestE@PLT
 4389      00
 4390 00d7 4C89E2   		movq	%r12, %rdx
 4391 00da 4C89F1   		movq	%r14, %rcx
 4392 00dd 4C8D2500 		leaq	testBinIO_testWriteFileInstance(%rip), %r12
 4392      000000
 4393 00e4 41B83600 		movl	$54, %r8d
 4393      0000
 4394 00ea 4C89E7   		movq	%r12, %rdi
 4395 00ed 488D3500 		leaq	.LC32(%rip), %rsi
 4395      000000
 4396 00f4 E8000000 		call	_ZN8UnitTest4TestC2EPKcS2_S2_i@PLT
 4396      00
 4397 00f9 4C89EA   		movq	%r13, %rdx
 4398 00fc 4C89E6   		movq	%r12, %rsi
 4399 00ff 488D3D00 		leaq	_ZN23TestBinIO_testWriteFileD1Ev(%rip), %rdi
 4399      000000
 4400 0106 488D0500 		leaq	16+_ZTV23TestBinIO_testWriteFile(%rip), %rax
 4400      000000
 4401 010d 48890500 		movq	%rax, testBinIO_testWriteFileInstance(%rip)
 4401      000000
 4402 0114 E8000000 		call	__cxa_atexit@PLT
 4402      00
 4403 0119 E8000000 		call	_ZN8UnitTest4Test11GetTestListEv@PLT
 4403      00
 4404 011e 4883C408 		addq	$8, %rsp
 4405              		.cfi_def_cfa_offset 40
 4406 0122 4C89E2   		movq	%r12, %rdx
 4407 0125 488D3D00 		leaq	adderBinIO_testWriteFile(%rip), %rdi
 4407      000000
 4408 012c 415C     		popq	%r12
 4409              		.cfi_def_cfa_offset 32
 4410 012e 4889C6   		movq	%rax, %rsi
 4411 0131 415D     		popq	%r13
 4412              		.cfi_def_cfa_offset 24
 4413 0133 415E     		popq	%r14
 4414              		.cfi_def_cfa_offset 16
 4415 0135 415F     		popq	%r15
 4416              		.cfi_def_cfa_offset 8
 4417 0137 E9000000 		jmp	_ZN8UnitTest9ListAdderC1ERNS_8TestListEPNS_4TestE@PLT
 4417      00
 4418              		.cfi_endproc
 4419              	.LFE1457:
 4421              		.section	.init_array,"aw"
 4422              		.align 8
 4423 0000 00000000 		.quad	_GLOBAL__sub_I_testBinIO_testReadNonExistentFileInstance
 4423      00000000 
 4424              		.weak	_ZTSN8UnitTest15MemoryOutStreamE
 4425              		.section	.rodata._ZTSN8UnitTest15MemoryOutStreamE,"aG",@progbits,_ZTSN8UnitTest15MemoryOutStreamE,
 4426              		.align 16
 4429              	_ZTSN8UnitTest15MemoryOutStreamE:
 4430 0000 4E38556E 		.string	"N8UnitTest15MemoryOutStreamE"
 4430      69745465 
 4430      73743135 
 4430      4D656D6F 
 4430      72794F75 
 4431              		.weak	_ZTIN8UnitTest15MemoryOutStreamE
 4432              		.section	.data.rel.ro._ZTIN8UnitTest15MemoryOutStreamE,"awG",@progbits,_ZTIN8UnitTest15MemoryOutSt
 4433              		.align 8
 4436              	_ZTIN8UnitTest15MemoryOutStreamE:
 4437 0000 00000000 		.quad	_ZTVN10__cxxabiv120__si_class_type_infoE+16
 4437      00000000 
 4438 0008 00000000 		.quad	_ZTSN8UnitTest15MemoryOutStreamE
 4438      00000000 
 4439 0010 00000000 		.quad	_ZTINSt7__cxx1119basic_ostringstreamIcSt11char_traitsIcESaIcEEE
 4439      00000000 
 4440              		.weak	_ZTS33TestBinIO_testReadNonExistentFile
 4441              		.section	.rodata._ZTS33TestBinIO_testReadNonExistentFile,"aG",@progbits,_ZTS33TestBinIO_testReadNo
 4442              		.align 32
 4445              	_ZTS33TestBinIO_testReadNonExistentFile:
 4446 0000 33335465 		.string	"33TestBinIO_testReadNonExistentFile"
 4446      73744269 
 4446      6E494F5F 
 4446      74657374 
 4446      52656164 
 4447              		.weak	_ZTI33TestBinIO_testReadNonExistentFile
 4448              		.section	.data.rel.ro._ZTI33TestBinIO_testReadNonExistentFile,"awG",@progbits,_ZTI33TestBinIO_test
 4449              		.align 8
 4452              	_ZTI33TestBinIO_testReadNonExistentFile:
 4453 0000 00000000 		.quad	_ZTVN10__cxxabiv120__si_class_type_infoE+16
 4453      00000000 
 4454 0008 00000000 		.quad	_ZTS33TestBinIO_testReadNonExistentFile
 4454      00000000 
 4455 0010 00000000 		.quad	_ZTIN8UnitTest4TestE
 4455      00000000 
 4456              		.weak	_ZTS30TestBinIO_testReadExistingFile
 4457              		.section	.rodata._ZTS30TestBinIO_testReadExistingFile,"aG",@progbits,_ZTS30TestBinIO_testReadExist
 4458              		.align 32
 4461              	_ZTS30TestBinIO_testReadExistingFile:
 4462 0000 33305465 		.string	"30TestBinIO_testReadExistingFile"
 4462      73744269 
 4462      6E494F5F 
 4462      74657374 
 4462      52656164 
 4463              		.weak	_ZTI30TestBinIO_testReadExistingFile
 4464              		.section	.data.rel.ro._ZTI30TestBinIO_testReadExistingFile,"awG",@progbits,_ZTI30TestBinIO_testRea
 4465              		.align 8
 4468              	_ZTI30TestBinIO_testReadExistingFile:
 4469 0000 00000000 		.quad	_ZTVN10__cxxabiv120__si_class_type_infoE+16
 4469      00000000 
 4470 0008 00000000 		.quad	_ZTS30TestBinIO_testReadExistingFile
 4470      00000000 
 4471 0010 00000000 		.quad	_ZTIN8UnitTest4TestE
 4471      00000000 
 4472              		.weak	_ZTS23TestBinIO_testWriteFile
 4473              		.section	.rodata._ZTS23TestBinIO_testWriteFile,"aG",@progbits,_ZTS23TestBinIO_testWriteFile,comdat
 4474              		.align 16
 4477              	_ZTS23TestBinIO_testWriteFile:
 4478 0000 32335465 		.string	"23TestBinIO_testWriteFile"
 4478      73744269 
 4478      6E494F5F 
 4478      74657374 
 4478      57726974 
 4479              		.weak	_ZTI23TestBinIO_testWriteFile
 4480              		.section	.data.rel.ro._ZTI23TestBinIO_testWriteFile,"awG",@progbits,_ZTI23TestBinIO_testWriteFile,
 4481              		.align 8
 4484              	_ZTI23TestBinIO_testWriteFile:
 4485 0000 00000000 		.quad	_ZTVN10__cxxabiv120__si_class_type_infoE+16
 4485      00000000 
 4486 0008 00000000 		.quad	_ZTS23TestBinIO_testWriteFile
 4486      00000000 
 4487 0010 00000000 		.quad	_ZTIN8UnitTest4TestE
 4487      00000000 
 4488              		.hidden	_ZTCN8UnitTest15MemoryOutStreamE0_So
 4489              		.weak	_ZTCN8UnitTest15MemoryOutStreamE0_So
 4490              		.section	.data.rel.ro._ZTCN8UnitTest15MemoryOutStreamE0_So,"awG",@progbits,_ZTVN8UnitTest15MemoryO
 4491              		.align 8
 4494              	_ZTCN8UnitTest15MemoryOutStreamE0_So:
 4495 0000 90000000 		.quad	144
 4495      00000000 
 4496 0008 00000000 		.quad	0
 4496      00000000 
 4497 0010 00000000 		.quad	_ZTISo
 4497      00000000 
 4498 0018 00000000 		.quad	0
 4498      00000000 
 4499 0020 00000000 		.quad	0
 4499      00000000 
 4500 0028 70FFFFFF 		.quad	-144
 4500      FFFFFFFF 
 4501 0030 70FFFFFF 		.quad	-144
 4501      FFFFFFFF 
 4502 0038 00000000 		.quad	_ZTISo
 4502      00000000 
 4503 0040 00000000 		.quad	0
 4503      00000000 
 4504 0048 00000000 		.quad	0
 4504      00000000 
 4505              		.hidden	_ZTCN8UnitTest15MemoryOutStreamE0_NSt7__cxx1119basic_ostringstreamIcSt11char_traitsIcESaIc
 4506              		.weak	_ZTCN8UnitTest15MemoryOutStreamE0_NSt7__cxx1119basic_ostringstreamIcSt11char_traitsIcESaIcEE
 4507              		.section	.data.rel.ro._ZTCN8UnitTest15MemoryOutStreamE0_NSt7__cxx1119basic_ostringstreamIcSt11char
 4508              		.align 8
 4511              	_ZTCN8UnitTest15MemoryOutStreamE0_NSt7__cxx1119basic_ostringstreamIcSt11char_traitsIcESaIcEEE:
 4512 0000 90000000 		.quad	144
 4512      00000000 
 4513 0008 00000000 		.quad	0
 4513      00000000 
 4514 0010 00000000 		.quad	_ZTINSt7__cxx1119basic_ostringstreamIcSt11char_traitsIcESaIcEEE
 4514      00000000 
 4515 0018 00000000 		.quad	0
 4515      00000000 
 4516 0020 00000000 		.quad	0
 4516      00000000 
 4517 0028 70FFFFFF 		.quad	-144
 4517      FFFFFFFF 
 4518 0030 70FFFFFF 		.quad	-144
 4518      FFFFFFFF 
 4519 0038 00000000 		.quad	_ZTINSt7__cxx1119basic_ostringstreamIcSt11char_traitsIcESaIcEEE
 4519      00000000 
 4520 0040 00000000 		.quad	0
 4520      00000000 
 4521 0048 00000000 		.quad	0
 4521      00000000 
 4522              		.weak	_ZTTN8UnitTest15MemoryOutStreamE
 4523              		.section	.data.rel.ro.local._ZTTN8UnitTest15MemoryOutStreamE,"awG",@progbits,_ZTVN8UnitTest15Memor
 4524              		.align 8
 4527              	_ZTTN8UnitTest15MemoryOutStreamE:
 4528 0000 00000000 		.quad	_ZTVN8UnitTest15MemoryOutStreamE+24
 4528      00000000 
 4529 0008 00000000 		.quad	_ZTCN8UnitTest15MemoryOutStreamE0_NSt7__cxx1119basic_ostringstreamIcSt11char_traitsIcESaIcEE
 4529      00000000 
 4530 0010 00000000 		.quad	_ZTCN8UnitTest15MemoryOutStreamE0_So+24
 4530      00000000 
 4531 0018 00000000 		.quad	_ZTCN8UnitTest15MemoryOutStreamE0_So+64
 4531      00000000 
 4532 0020 00000000 		.quad	_ZTCN8UnitTest15MemoryOutStreamE0_NSt7__cxx1119basic_ostringstreamIcSt11char_traitsIcESaIcEE
 4532      00000000 
 4533 0028 00000000 		.quad	_ZTVN8UnitTest15MemoryOutStreamE+64
 4533      00000000 
 4534              		.weak	_ZTVN8UnitTest15MemoryOutStreamE
 4535              		.section	.data.rel.ro.local._ZTVN8UnitTest15MemoryOutStreamE,"awG",@progbits,_ZTVN8UnitTest15Memor
 4536              		.align 8
 4539              	_ZTVN8UnitTest15MemoryOutStreamE:
 4540 0000 90000000 		.quad	144
 4540      00000000 
 4541 0008 00000000 		.quad	0
 4541      00000000 
 4542 0010 00000000 		.quad	_ZTIN8UnitTest15MemoryOutStreamE
 4542      00000000 
 4543 0018 00000000 		.quad	_ZN8UnitTest15MemoryOutStreamD1Ev
 4543      00000000 
 4544 0020 00000000 		.quad	_ZN8UnitTest15MemoryOutStreamD0Ev
 4544      00000000 
 4545 0028 70FFFFFF 		.quad	-144
 4545      FFFFFFFF 
 4546 0030 70FFFFFF 		.quad	-144
 4546      FFFFFFFF 
 4547 0038 00000000 		.quad	_ZTIN8UnitTest15MemoryOutStreamE
 4547      00000000 
 4548 0040 00000000 		.quad	_ZTv0_n24_N8UnitTest15MemoryOutStreamD1Ev
 4548      00000000 
 4549 0048 00000000 		.quad	_ZTv0_n24_N8UnitTest15MemoryOutStreamD0Ev
 4549      00000000 
 4550              		.weak	_ZTV33TestBinIO_testReadNonExistentFile
 4551              		.section	.data.rel.ro.local._ZTV33TestBinIO_testReadNonExistentFile,"awG",@progbits,_ZTV33TestBinI
 4552              		.align 8
 4555              	_ZTV33TestBinIO_testReadNonExistentFile:
 4556 0000 00000000 		.quad	0
 4556      00000000 
 4557 0008 00000000 		.quad	_ZTI33TestBinIO_testReadNonExistentFile
 4557      00000000 
 4558 0010 00000000 		.quad	_ZN33TestBinIO_testReadNonExistentFileD1Ev
 4558      00000000 
 4559 0018 00000000 		.quad	_ZN33TestBinIO_testReadNonExistentFileD0Ev
 4559      00000000 
 4560 0020 00000000 		.quad	_ZNK33TestBinIO_testReadNonExistentFile7RunImplEv
 4560      00000000 
 4561              		.weak	_ZTV30TestBinIO_testReadExistingFile
 4562              		.section	.data.rel.ro.local._ZTV30TestBinIO_testReadExistingFile,"awG",@progbits,_ZTV30TestBinIO_t
 4563              		.align 8
 4566              	_ZTV30TestBinIO_testReadExistingFile:
 4567 0000 00000000 		.quad	0
 4567      00000000 
 4568 0008 00000000 		.quad	_ZTI30TestBinIO_testReadExistingFile
 4568      00000000 
 4569 0010 00000000 		.quad	_ZN30TestBinIO_testReadExistingFileD1Ev
 4569      00000000 
 4570 0018 00000000 		.quad	_ZN30TestBinIO_testReadExistingFileD0Ev
 4570      00000000 
 4571 0020 00000000 		.quad	_ZNK30TestBinIO_testReadExistingFile7RunImplEv
 4571      00000000 
 4572              		.weak	_ZTV23TestBinIO_testWriteFile
 4573              		.section	.data.rel.ro.local._ZTV23TestBinIO_testWriteFile,"awG",@progbits,_ZTV23TestBinIO_testWrit
 4574              		.align 8
 4577              	_ZTV23TestBinIO_testWriteFile:
 4578 0000 00000000 		.quad	0
 4578      00000000 
 4579 0008 00000000 		.quad	_ZTI23TestBinIO_testWriteFile
 4579      00000000 
 4580 0010 00000000 		.quad	_ZN23TestBinIO_testWriteFileD1Ev
 4580      00000000 
 4581 0018 00000000 		.quad	_ZN23TestBinIO_testWriteFileD0Ev
 4581      00000000 
 4582 0020 00000000 		.quad	_ZNK23TestBinIO_testWriteFile7RunImplEv
 4582      00000000 
 4583              		.globl	adderBinIO_testWriteFile
 4584              		.bss
 4587              	adderBinIO_testWriteFile:
 4588 0000 00       		.zero	1
 4589              		.globl	testBinIO_testWriteFileInstance
 4590 0001 00000000 		.align 32
 4590      00000000 
 4590      00000000 
 4590      00000000 
 4590      00000000 
 4593              	testBinIO_testWriteFileInstance:
 4594 0020 00000000 		.zero	56
 4594      00000000 
 4594      00000000 
 4594      00000000 
 4594      00000000 
 4595              		.globl	adderBinIO_testReadExistingFile
 4598              	adderBinIO_testReadExistingFile:
 4599 0058 00       		.zero	1
 4600              		.globl	testBinIO_testReadExistingFileInstance
 4601 0059 00000000 		.align 32
 4601      000000
 4604              	testBinIO_testReadExistingFileInstance:
 4605 0060 00000000 		.zero	56
 4605      00000000 
 4605      00000000 
 4605      00000000 
 4605      00000000 
 4606              		.globl	adderBinIO_testReadNonExistentFile
 4609              	adderBinIO_testReadNonExistentFile:
 4610 0098 00       		.zero	1
 4611              		.globl	testBinIO_testReadNonExistentFileInstance
 4612 0099 00000000 		.align 32
 4612      000000
 4615              	testBinIO_testReadNonExistentFileInstance:
 4616 00a0 00000000 		.zero	56
 4616      00000000 
 4616      00000000 
 4616      00000000 
 4616      00000000 
 4617              		.section	.data.rel.ro.local,"aw"
 4618              		.align 8
 4619              	.LC2:
 4620 0000 00000000 		.quad	_ZTCN8UnitTest15MemoryOutStreamE0_NSt7__cxx1119basic_ostringstreamIcSt11char_traitsIcESaIcEE
 4620      00000000 
 4621              		.section	.data.rel.ro,"aw"
 4622              		.align 8
 4623              	.LC3:
 4624 0000 00000000 		.quad	_ZTVSt15basic_streambufIcSt11char_traitsIcEE+16
 4624      00000000 
 4625              		.align 8
 4626              	.LC4:
 4627 0008 00000000 		.quad	_ZTVNSt7__cxx1115basic_stringbufIcSt11char_traitsIcESaIcEEE+16
 4627      00000000 
 4628              		.align 8
 4629              	.LC19:
 4630 0010 00000000 		.quad	_ZTVSt14basic_ofstreamIcSt11char_traitsIcEE+24
 4630      00000000 
 4631              		.hidden	DW.ref.__gxx_personality_v0
 4632              		.weak	DW.ref.__gxx_personality_v0
 4633              		.section	.data.rel.local.DW.ref.__gxx_personality_v0,"awG",@progbits,DW.ref.__gxx_personality_v0,c
 4634              		.align 8
 4637              	DW.ref.__gxx_personality_v0:
 4638 0000 00000000 		.quad	__gxx_personality_v0
 4638      00000000 
 4639              		.hidden	__dso_handle
 4640              		.ident	"GCC: (Ubuntu 11.3.0-1ubuntu1~22.04) 11.3.0"
 4641              		.section	.note.GNU-stack,"",@progbits
 4642              		.section	.note.gnu.property,"a"
 4643              		.align 8
 4644 0000 04000000 		.long	1f - 0f
 4645 0004 10000000 		.long	4f - 1f
 4646 0008 05000000 		.long	5
 4647              	0:
 4648 000c 474E5500 		.string	"GNU"
 4649              	1:
 4650              		.align 8
 4651 0010 020000C0 		.long	0xc0000002
 4652 0014 04000000 		.long	3f - 2f
 4653              	2:
 4654 0018 03000000 		.long	0x3
 4655              	3:
 4656 001c 00000000 		.align 8
 4657              	4: