   1              		.file	"testConv.cpp"
   2              		.text
   3              		.section	.text._ZN30TestConv_testGetHexLowerNibbleD2Ev,"axG",@progbits,_ZN30TestConv_testGetHexLow
   4              		.align 2
   5              		.p2align 4
   6              		.weak	_ZN30TestConv_testGetHexLowerNibbleD2Ev
   8              	_ZN30TestConv_testGetHexLowerNibbleD2Ev:
   9              	.LFB1291:
  10              		.cfi_startproc
  11 0000 F30F1EFA 		endbr64
  12 0004 488D0500 		leaq	16+_ZTV30TestConv_testGetHexLowerNibble(%rip), %rax
  12      000000
  13 000b 488907   		movq	%rax, (%rdi)
  14 000e E9000000 		jmp	_ZN8UnitTest4TestD2Ev@PLT
  14      00
  15              		.cfi_endproc
  16              	.LFE1291:
  18              		.weak	_ZN30TestConv_testGetHexLowerNibbleD1Ev
  19              		.set	_ZN30TestConv_testGetHexLowerNibbleD1Ev,_ZN30TestConv_testGetHexLowerNibbleD2Ev
  20              		.section	.text._ZN30TestConv_testGetHexLowerNibbleD0Ev,"axG",@progbits,_ZN30TestConv_testGetHexLow
  21              		.align 2
  22              		.p2align 4
  23              		.weak	_ZN30TestConv_testGetHexLowerNibbleD0Ev
  25              	_ZN30TestConv_testGetHexLowerNibbleD0Ev:
  26              	.LFB1293:
  27              		.cfi_startproc
  28              		.cfi_personality 0x9b,DW.ref.__gxx_personality_v0
  29              		.cfi_lsda 0x1b,.LLSDA1293
  30 0000 F30F1EFA 		endbr64
  31 0004 4154     		pushq	%r12
  32              		.cfi_def_cfa_offset 16
  33              		.cfi_offset 12, -16
  34 0006 488D0500 		leaq	16+_ZTV30TestConv_testGetHexLowerNibble(%rip), %rax
  34      000000
  35 000d 55       		pushq	%rbp
  36              		.cfi_def_cfa_offset 24
  37              		.cfi_offset 6, -24
  38 000e 4889FD   		movq	%rdi, %rbp
  39 0011 4883EC08 		subq	$8, %rsp
  40              		.cfi_def_cfa_offset 32
  41 0015 488907   		movq	%rax, (%rdi)
  42              	.LEHB0:
  43 0018 E8000000 		call	_ZN8UnitTest4TestD2Ev@PLT
  43      00
  44              	.LEHE0:
  45 001d 4883C408 		addq	$8, %rsp
  46              		.cfi_remember_state
  47              		.cfi_def_cfa_offset 24
  48 0021 4889EF   		movq	%rbp, %rdi
  49 0024 5D       		popq	%rbp
  50              		.cfi_def_cfa_offset 16
  51 0025 415C     		popq	%r12
  52              		.cfi_def_cfa_offset 8
  53 0027 E9000000 		jmp	_ZdlPv@PLT
  53      00
  54              	.L5:
  55              		.cfi_restore_state
  56 002c F30F1EFA 		endbr64
  57 0030 4989C4   		movq	%rax, %r12
  58              	.L4:
  59 0033 4889EF   		movq	%rbp, %rdi
  60 0036 E8000000 		call	_ZdlPv@PLT
  60      00
  61 003b 4C89E7   		movq	%r12, %rdi
  62              	.LEHB1:
  63 003e E8000000 		call	_Unwind_Resume@PLT
  63      00
  64              	.LEHE1:
  65              		.cfi_endproc
  66              	.LFE1293:
  67              		.globl	__gxx_personality_v0
  68              		.section	.gcc_except_table._ZN30TestConv_testGetHexLowerNibbleD0Ev,"aG",@progbits,_ZN30TestConv_te
  69              	.LLSDA1293:
  70 0000 FF       		.byte	0xff
  71 0001 FF       		.byte	0xff
  72 0002 01       		.byte	0x1
  73 0003 08       		.uleb128 .LLSDACSE1293-.LLSDACSB1293
  74              	.LLSDACSB1293:
  75 0004 18       		.uleb128 .LEHB0-.LFB1293
  76 0005 05       		.uleb128 .LEHE0-.LEHB0
  77 0006 2C       		.uleb128 .L5-.LFB1293
  78 0007 00       		.uleb128 0
  79 0008 3E       		.uleb128 .LEHB1-.LFB1293
  80 0009 05       		.uleb128 .LEHE1-.LEHB1
  81 000a 00       		.uleb128 0
  82 000b 00       		.uleb128 0
  83              	.LLSDACSE1293:
  84              		.section	.text._ZN30TestConv_testGetHexLowerNibbleD0Ev,"axG",@progbits,_ZN30TestConv_testGetHexLow
  86              		.section	.text._ZN30TestConv_testGetHexUpperNibbleD2Ev,"axG",@progbits,_ZN30TestConv_testGetHexUpp
  87              		.align 2
  88              		.p2align 4
  89              		.weak	_ZN30TestConv_testGetHexUpperNibbleD2Ev
  91              	_ZN30TestConv_testGetHexUpperNibbleD2Ev:
  92              	.LFB1295:
  93              		.cfi_startproc
  94 0000 F30F1EFA 		endbr64
  95 0004 488D0500 		leaq	16+_ZTV30TestConv_testGetHexUpperNibble(%rip), %rax
  95      000000
  96 000b 488907   		movq	%rax, (%rdi)
  97 000e E9000000 		jmp	_ZN8UnitTest4TestD2Ev@PLT
  97      00
  98              		.cfi_endproc
  99              	.LFE1295:
 101              		.weak	_ZN30TestConv_testGetHexUpperNibbleD1Ev
 102              		.set	_ZN30TestConv_testGetHexUpperNibbleD1Ev,_ZN30TestConv_testGetHexUpperNibbleD2Ev
 103              		.section	.text._ZN30TestConv_testGetHexUpperNibbleD0Ev,"axG",@progbits,_ZN30TestConv_testGetHexUpp
 104              		.align 2
 105              		.p2align 4
 106              		.weak	_ZN30TestConv_testGetHexUpperNibbleD0Ev
 108              	_ZN30TestConv_testGetHexUpperNibbleD0Ev:
 109              	.LFB1297:
 110              		.cfi_startproc
 111              		.cfi_personality 0x9b,DW.ref.__gxx_personality_v0
 112              		.cfi_lsda 0x1b,.LLSDA1297
 113 0000 F30F1EFA 		endbr64
 114 0004 4154     		pushq	%r12
 115              		.cfi_def_cfa_offset 16
 116              		.cfi_offset 12, -16
 117 0006 488D0500 		leaq	16+_ZTV30TestConv_testGetHexUpperNibble(%rip), %rax
 117      000000
 118 000d 55       		pushq	%rbp
 119              		.cfi_def_cfa_offset 24
 120              		.cfi_offset 6, -24
 121 000e 4889FD   		movq	%rdi, %rbp
 122 0011 4883EC08 		subq	$8, %rsp
 123              		.cfi_def_cfa_offset 32
 124 0015 488907   		movq	%rax, (%rdi)
 125              	.LEHB2:
 126 0018 E8000000 		call	_ZN8UnitTest4TestD2Ev@PLT
 126      00
 127              	.LEHE2:
 128 001d 4883C408 		addq	$8, %rsp
 129              		.cfi_remember_state
 130              		.cfi_def_cfa_offset 24
 131 0021 4889EF   		movq	%rbp, %rdi
 132 0024 5D       		popq	%rbp
 133              		.cfi_def_cfa_offset 16
 134 0025 415C     		popq	%r12
 135              		.cfi_def_cfa_offset 8
 136 0027 E9000000 		jmp	_ZdlPv@PLT
 136      00
 137              	.L10:
 138              		.cfi_restore_state
 139 002c F30F1EFA 		endbr64
 140 0030 4989C4   		movq	%rax, %r12
 141              	.L9:
 142 0033 4889EF   		movq	%rbp, %rdi
 143 0036 E8000000 		call	_ZdlPv@PLT
 143      00
 144 003b 4C89E7   		movq	%r12, %rdi
 145              	.LEHB3:
 146 003e E8000000 		call	_Unwind_Resume@PLT
 146      00
 147              	.LEHE3:
 148              		.cfi_endproc
 149              	.LFE1297:
 150              		.section	.gcc_except_table._ZN30TestConv_testGetHexUpperNibbleD0Ev,"aG",@progbits,_ZN30TestConv_te
 151              	.LLSDA1297:
 152 0000 FF       		.byte	0xff
 153 0001 FF       		.byte	0xff
 154 0002 01       		.byte	0x1
 155 0003 08       		.uleb128 .LLSDACSE1297-.LLSDACSB1297
 156              	.LLSDACSB1297:
 157 0004 18       		.uleb128 .LEHB2-.LFB1297
 158 0005 05       		.uleb128 .LEHE2-.LEHB2
 159 0006 2C       		.uleb128 .L10-.LFB1297
 160 0007 00       		.uleb128 0
 161 0008 3E       		.uleb128 .LEHB3-.LFB1297
 162 0009 05       		.uleb128 .LEHE3-.LEHB3
 163 000a 00       		.uleb128 0
 164 000b 00       		.uleb128 0
 165              	.LLSDACSE1297:
 166              		.section	.text._ZN30TestConv_testGetHexUpperNibbleD0Ev,"axG",@progbits,_ZN30TestConv_testGetHexUpp
 168              		.section	.text._ZN23TestConv_testGetHexByteD2Ev,"axG",@progbits,_ZN23TestConv_testGetHexByteD5Ev,c
 169              		.align 2
 170              		.p2align 4
 171              		.weak	_ZN23TestConv_testGetHexByteD2Ev
 173              	_ZN23TestConv_testGetHexByteD2Ev:
 174              	.LFB1299:
 175              		.cfi_startproc
 176 0000 F30F1EFA 		endbr64
 177 0004 488D0500 		leaq	16+_ZTV23TestConv_testGetHexByte(%rip), %rax
 177      000000
 178 000b 488907   		movq	%rax, (%rdi)
 179 000e E9000000 		jmp	_ZN8UnitTest4TestD2Ev@PLT
 179      00
 180              		.cfi_endproc
 181              	.LFE1299:
 183              		.weak	_ZN23TestConv_testGetHexByteD1Ev
 184              		.set	_ZN23TestConv_testGetHexByteD1Ev,_ZN23TestConv_testGetHexByteD2Ev
 185              		.section	.text._ZN23TestConv_testGetHexByteD0Ev,"axG",@progbits,_ZN23TestConv_testGetHexByteD5Ev,c
 186              		.align 2
 187              		.p2align 4
 188              		.weak	_ZN23TestConv_testGetHexByteD0Ev
 190              	_ZN23TestConv_testGetHexByteD0Ev:
 191              	.LFB1301:
 192              		.cfi_startproc
 193              		.cfi_personality 0x9b,DW.ref.__gxx_personality_v0
 194              		.cfi_lsda 0x1b,.LLSDA1301
 195 0000 F30F1EFA 		endbr64
 196 0004 4154     		pushq	%r12
 197              		.cfi_def_cfa_offset 16
 198              		.cfi_offset 12, -16
 199 0006 488D0500 		leaq	16+_ZTV23TestConv_testGetHexByte(%rip), %rax
 199      000000
 200 000d 55       		pushq	%rbp
 201              		.cfi_def_cfa_offset 24
 202              		.cfi_offset 6, -24
 203 000e 4889FD   		movq	%rdi, %rbp
 204 0011 4883EC08 		subq	$8, %rsp
 205              		.cfi_def_cfa_offset 32
 206 0015 488907   		movq	%rax, (%rdi)
 207              	.LEHB4:
 208 0018 E8000000 		call	_ZN8UnitTest4TestD2Ev@PLT
 208      00
 209              	.LEHE4:
 210 001d 4883C408 		addq	$8, %rsp
 211              		.cfi_remember_state
 212              		.cfi_def_cfa_offset 24
 213 0021 4889EF   		movq	%rbp, %rdi
 214 0024 5D       		popq	%rbp
 215              		.cfi_def_cfa_offset 16
 216 0025 415C     		popq	%r12
 217              		.cfi_def_cfa_offset 8
 218 0027 E9000000 		jmp	_ZdlPv@PLT
 218      00
 219              	.L15:
 220              		.cfi_restore_state
 221 002c F30F1EFA 		endbr64
 222 0030 4989C4   		movq	%rax, %r12
 223              	.L14:
 224 0033 4889EF   		movq	%rbp, %rdi
 225 0036 E8000000 		call	_ZdlPv@PLT
 225      00
 226 003b 4C89E7   		movq	%r12, %rdi
 227              	.LEHB5:
 228 003e E8000000 		call	_Unwind_Resume@PLT
 228      00
 229              	.LEHE5:
 230              		.cfi_endproc
 231              	.LFE1301:
 232              		.section	.gcc_except_table._ZN23TestConv_testGetHexByteD0Ev,"aG",@progbits,_ZN23TestConv_testGetHe
 233              	.LLSDA1301:
 234 0000 FF       		.byte	0xff
 235 0001 FF       		.byte	0xff
 236 0002 01       		.byte	0x1
 237 0003 08       		.uleb128 .LLSDACSE1301-.LLSDACSB1301
 238              	.LLSDACSB1301:
 239 0004 18       		.uleb128 .LEHB4-.LFB1301
 240 0005 05       		.uleb128 .LEHE4-.LEHB4
 241 0006 2C       		.uleb128 .L15-.LFB1301
 242 0007 00       		.uleb128 0
 243 0008 3E       		.uleb128 .LEHB5-.LFB1301
 244 0009 05       		.uleb128 .LEHE5-.LEHB5
 245 000a 00       		.uleb128 0
 246 000b 00       		.uleb128 0
 247              	.LLSDACSE1301:
 248              		.section	.text._ZN23TestConv_testGetHexByteD0Ev,"axG",@progbits,_ZN23TestConv_testGetHexByteD5Ev,c
 250              		.section	.text._ZN25TestConv_testGetHexNibbleD2Ev,"axG",@progbits,_ZN25TestConv_testGetHexNibbleD5
 251              		.align 2
 252              		.p2align 4
 253              		.weak	_ZN25TestConv_testGetHexNibbleD2Ev
 255              	_ZN25TestConv_testGetHexNibbleD2Ev:
 256              	.LFB1303:
 257              		.cfi_startproc
 258 0000 F30F1EFA 		endbr64
 259 0004 488D0500 		leaq	16+_ZTV25TestConv_testGetHexNibble(%rip), %rax
 259      000000
 260 000b 488907   		movq	%rax, (%rdi)
 261 000e E9000000 		jmp	_ZN8UnitTest4TestD2Ev@PLT
 261      00
 262              		.cfi_endproc
 263              	.LFE1303:
 265              		.weak	_ZN25TestConv_testGetHexNibbleD1Ev
 266              		.set	_ZN25TestConv_testGetHexNibbleD1Ev,_ZN25TestConv_testGetHexNibbleD2Ev
 267              		.section	.text._ZN25TestConv_testGetHexNibbleD0Ev,"axG",@progbits,_ZN25TestConv_testGetHexNibbleD5
 268              		.align 2
 269              		.p2align 4
 270              		.weak	_ZN25TestConv_testGetHexNibbleD0Ev
 272              	_ZN25TestConv_testGetHexNibbleD0Ev:
 273              	.LFB1305:
 274              		.cfi_startproc
 275              		.cfi_personality 0x9b,DW.ref.__gxx_personality_v0
 276              		.cfi_lsda 0x1b,.LLSDA1305
 277 0000 F30F1EFA 		endbr64
 278 0004 4154     		pushq	%r12
 279              		.cfi_def_cfa_offset 16
 280              		.cfi_offset 12, -16
 281 0006 488D0500 		leaq	16+_ZTV25TestConv_testGetHexNibble(%rip), %rax
 281      000000
 282 000d 55       		pushq	%rbp
 283              		.cfi_def_cfa_offset 24
 284              		.cfi_offset 6, -24
 285 000e 4889FD   		movq	%rdi, %rbp
 286 0011 4883EC08 		subq	$8, %rsp
 287              		.cfi_def_cfa_offset 32
 288 0015 488907   		movq	%rax, (%rdi)
 289              	.LEHB6:
 290 0018 E8000000 		call	_ZN8UnitTest4TestD2Ev@PLT
 290      00
 291              	.LEHE6:
 292 001d 4883C408 		addq	$8, %rsp
 293              		.cfi_remember_state
 294              		.cfi_def_cfa_offset 24
 295 0021 4889EF   		movq	%rbp, %rdi
 296 0024 5D       		popq	%rbp
 297              		.cfi_def_cfa_offset 16
 298 0025 415C     		popq	%r12
 299              		.cfi_def_cfa_offset 8
 300 0027 E9000000 		jmp	_ZdlPv@PLT
 300      00
 301              	.L20:
 302              		.cfi_restore_state
 303 002c F30F1EFA 		endbr64
 304 0030 4989C4   		movq	%rax, %r12
 305              	.L19:
 306 0033 4889EF   		movq	%rbp, %rdi
 307 0036 E8000000 		call	_ZdlPv@PLT
 307      00
 308 003b 4C89E7   		movq	%r12, %rdi
 309              	.LEHB7:
 310 003e E8000000 		call	_Unwind_Resume@PLT
 310      00
 311              	.LEHE7:
 312              		.cfi_endproc
 313              	.LFE1305:
 314              		.section	.gcc_except_table._ZN25TestConv_testGetHexNibbleD0Ev,"aG",@progbits,_ZN25TestConv_testGet
 315              	.LLSDA1305:
 316 0000 FF       		.byte	0xff
 317 0001 FF       		.byte	0xff
 318 0002 01       		.byte	0x1
 319 0003 08       		.uleb128 .LLSDACSE1305-.LLSDACSB1305
 320              	.LLSDACSB1305:
 321 0004 18       		.uleb128 .LEHB6-.LFB1305
 322 0005 05       		.uleb128 .LEHE6-.LEHB6
 323 0006 2C       		.uleb128 .L20-.LFB1305
 324 0007 00       		.uleb128 0
 325 0008 3E       		.uleb128 .LEHB7-.LFB1305
 326 0009 05       		.uleb128 .LEHE7-.LEHB7
 327 000a 00       		.uleb128 0
 328 000b 00       		.uleb128 0
 329              	.LLSDACSE1305:
 330              		.section	.text._ZN25TestConv_testGetHexNibbleD0Ev,"axG",@progbits,_ZN25TestConv_testGetHexNibbleD5
 332              		.section	.text._ZN8UnitTest15MemoryOutStreamD1Ev,"axG",@progbits,_ZN8UnitTest15MemoryOutStreamD1Ev
 333              		.align 2
 334              		.p2align 4
 335              		.weak	_ZN8UnitTest15MemoryOutStreamD1Ev
 337              	_ZN8UnitTest15MemoryOutStreamD1Ev:
 338              	.LFB1231:
 339              		.cfi_startproc
 340 0000 F30F1EFA 		endbr64
 341 0004 55       		pushq	%rbp
 342              		.cfi_def_cfa_offset 16
 343              		.cfi_offset 6, -16
 344 0005 488D0500 		leaq	24+_ZTVN8UnitTest15MemoryOutStreamE(%rip), %rax
 344      000000
 345 000c 53       		pushq	%rbx
 346              		.cfi_def_cfa_offset 24
 347              		.cfi_offset 3, -24
 348 000d 4889FB   		movq	%rdi, %rbx
 349 0010 4883EC08 		subq	$8, %rsp
 350              		.cfi_def_cfa_offset 32
 351 0014 488907   		movq	%rax, (%rdi)
 352 0017 4883C028 		addq	$40, %rax
 353 001b 48898790 		movq	%rax, 144(%rdi)
 353      000000
 354 0022 488B7F70 		movq	112(%rdi), %rdi
 355 0026 488D8380 		leaq	128(%rbx), %rax
 355      000000
 356 002d 4839C7   		cmpq	%rax, %rdi
 357 0030 7405     		je	.L23
 358 0032 E8000000 		call	_ZdlPv@PLT
 358      00
 359              	.L23:
 360 0037 488D0500 		leaq	64+_ZTCN8UnitTest15MemoryOutStreamE0_NSt7__cxx1119basic_ostringstreamIcSt11char_traitsIcESaIc
 360      000000
 361 003e 488D1500 		leaq	24+_ZTCN8UnitTest15MemoryOutStreamE0_NSt7__cxx1119basic_ostringstreamIcSt11char_traitsIcESaIc
 361      000000
 362 0045 488B7B50 		movq	80(%rbx), %rdi
 363 0049 48898390 		movq	%rax, 144(%rbx)
 363      000000
 364 0050 488D0500 		leaq	16+_ZTVNSt7__cxx1115basic_stringbufIcSt11char_traitsIcESaIcEEE(%rip), %rax
 364      000000
 365 0057 66480F6E 		movq	%rdx, %xmm0
 365      C2
 366 005c 488DAB90 		leaq	144(%rbx), %rbp
 366      000000
 367 0063 66480F6E 		movq	%rax, %xmm1
 367      C8
 368 0068 488D4360 		leaq	96(%rbx), %rax
 369 006c 660F6CC1 		punpcklqdq	%xmm1, %xmm0
 370 0070 0F1103   		movups	%xmm0, (%rbx)
 371 0073 4839C7   		cmpq	%rax, %rdi
 372 0076 7405     		je	.L24
 373 0078 E8000000 		call	_ZdlPv@PLT
 373      00
 374              	.L24:
 375 007d 488D0500 		leaq	16+_ZTVSt15basic_streambufIcSt11char_traitsIcEE(%rip), %rax
 375      000000
 376 0084 488D7B40 		leaq	64(%rbx), %rdi
 377 0088 48894308 		movq	%rax, 8(%rbx)
 378 008c E8000000 		call	_ZNSt6localeD1Ev@PLT
 378      00
 379 0091 488D0500 		leaq	24+_ZTCN8UnitTest15MemoryOutStreamE0_So(%rip), %rax
 379      000000
 380 0098 4889EF   		movq	%rbp, %rdi
 381 009b 488903   		movq	%rax, (%rbx)
 382 009e 488D0500 		leaq	16+_ZTVSt9basic_iosIcSt11char_traitsIcEE(%rip), %rax
 382      000000
 383 00a5 48898390 		movq	%rax, 144(%rbx)
 383      000000
 384 00ac 4883C408 		addq	$8, %rsp
 385              		.cfi_def_cfa_offset 24
 386 00b0 5B       		popq	%rbx
 387              		.cfi_def_cfa_offset 16
 388 00b1 5D       		popq	%rbp
 389              		.cfi_def_cfa_offset 8
 390 00b2 E9000000 		jmp	_ZNSt8ios_baseD2Ev@PLT
 390      00
 391              		.cfi_endproc
 392              	.LFE1231:
 394 00b7 660F1F84 		.p2align 4
 394      00000000 
 394      00
 395              		.weak	_ZTv0_n24_N8UnitTest15MemoryOutStreamD1Ev
 397              	_ZTv0_n24_N8UnitTest15MemoryOutStreamD1Ev:
 398              	.LFB1310:
 399              		.cfi_startproc
 400 00c0 F30F1EFA 		endbr64
 401 00c4 55       		pushq	%rbp
 402              		.cfi_def_cfa_offset 16
 403              		.cfi_offset 6, -16
 404 00c5 53       		pushq	%rbx
 405              		.cfi_def_cfa_offset 24
 406              		.cfi_offset 3, -24
 407 00c6 4889FB   		movq	%rdi, %rbx
 408 00c9 4883EC08 		subq	$8, %rsp
 409              		.cfi_def_cfa_offset 32
 410 00cd 488B07   		movq	(%rdi), %rax
 411 00d0 480358E8 		addq	-24(%rax), %rbx
 412 00d4 488D0500 		leaq	24+_ZTVN8UnitTest15MemoryOutStreamE(%rip), %rax
 412      000000
 413 00db 488903   		movq	%rax, (%rbx)
 414 00de 488B7B70 		movq	112(%rbx), %rdi
 415 00e2 4883C028 		addq	$40, %rax
 416 00e6 48898390 		movq	%rax, 144(%rbx)
 416      000000
 417 00ed 488D8380 		leaq	128(%rbx), %rax
 417      000000
 418 00f4 4839C7   		cmpq	%rax, %rdi
 419 00f7 7405     		je	.L27
 420 00f9 E8000000 		call	_ZdlPv@PLT
 420      00
 421              	.L27:
 422 00fe 488D0500 		leaq	64+_ZTCN8UnitTest15MemoryOutStreamE0_NSt7__cxx1119basic_ostringstreamIcSt11char_traitsIcESaIc
 422      000000
 423 0105 488D1500 		leaq	24+_ZTCN8UnitTest15MemoryOutStreamE0_NSt7__cxx1119basic_ostringstreamIcSt11char_traitsIcESaIc
 423      000000
 424 010c 488B7B50 		movq	80(%rbx), %rdi
 425 0110 48898390 		movq	%rax, 144(%rbx)
 425      000000
 426 0117 488D0500 		leaq	16+_ZTVNSt7__cxx1115basic_stringbufIcSt11char_traitsIcESaIcEEE(%rip), %rax
 426      000000
 427 011e 66480F6E 		movq	%rdx, %xmm0
 427      C2
 428 0123 488DAB90 		leaq	144(%rbx), %rbp
 428      000000
 429 012a 66480F6E 		movq	%rax, %xmm1
 429      C8
 430 012f 488D4360 		leaq	96(%rbx), %rax
 431 0133 660F6CC1 		punpcklqdq	%xmm1, %xmm0
 432 0137 0F1103   		movups	%xmm0, (%rbx)
 433 013a 4839C7   		cmpq	%rax, %rdi
 434 013d 7405     		je	.L28
 435 013f E8000000 		call	_ZdlPv@PLT
 435      00
 436              	.L28:
 437 0144 488D0500 		leaq	16+_ZTVSt15basic_streambufIcSt11char_traitsIcEE(%rip), %rax
 437      000000
 438 014b 488D7B40 		leaq	64(%rbx), %rdi
 439 014f 48894308 		movq	%rax, 8(%rbx)
 440 0153 E8000000 		call	_ZNSt6localeD1Ev@PLT
 440      00
 441 0158 488D0500 		leaq	24+_ZTCN8UnitTest15MemoryOutStreamE0_So(%rip), %rax
 441      000000
 442 015f 4889EF   		movq	%rbp, %rdi
 443 0162 488903   		movq	%rax, (%rbx)
 444 0165 488D0500 		leaq	16+_ZTVSt9basic_iosIcSt11char_traitsIcEE(%rip), %rax
 444      000000
 445 016c 48898390 		movq	%rax, 144(%rbx)
 445      000000
 446 0173 4883C408 		addq	$8, %rsp
 447              		.cfi_def_cfa_offset 24
 448 0177 5B       		popq	%rbx
 449              		.cfi_def_cfa_offset 16
 450 0178 5D       		popq	%rbp
 451              		.cfi_def_cfa_offset 8
 452 0179 E9000000 		jmp	_ZNSt8ios_baseD2Ev@PLT
 452      00
 453              		.cfi_endproc
 454              	.LFE1310:
 456              		.section	.text._ZN8UnitTest15MemoryOutStreamD0Ev,"axG",@progbits,_ZN8UnitTest15MemoryOutStreamD0Ev
 457              		.align 2
 458              		.p2align 4
 459              		.weak	_ZN8UnitTest15MemoryOutStreamD0Ev
 461              	_ZN8UnitTest15MemoryOutStreamD0Ev:
 462              	.LFB1232:
 463              		.cfi_startproc
 464              		.cfi_personality 0x9b,DW.ref.__gxx_personality_v0
 465              		.cfi_lsda 0x1b,.LLSDA1232
 466 0000 F30F1EFA 		endbr64
 467 0004 4154     		pushq	%r12
 468              		.cfi_def_cfa_offset 16
 469              		.cfi_offset 12, -16
 470 0006 488D0500 		leaq	24+_ZTVN8UnitTest15MemoryOutStreamE(%rip), %rax
 470      000000
 471 000d 55       		pushq	%rbp
 472              		.cfi_def_cfa_offset 24
 473              		.cfi_offset 6, -24
 474 000e 4889FD   		movq	%rdi, %rbp
 475 0011 4883EC08 		subq	$8, %rsp
 476              		.cfi_def_cfa_offset 32
 477 0015 488907   		movq	%rax, (%rdi)
 478 0018 4883C028 		addq	$40, %rax
 479 001c 48898790 		movq	%rax, 144(%rdi)
 479      000000
 480 0023 488B7F70 		movq	112(%rdi), %rdi
 481 0027 488D8580 		leaq	128(%rbp), %rax
 481      000000
 482 002e 4839C7   		cmpq	%rax, %rdi
 483 0031 7405     		je	.L31
 484 0033 E8000000 		call	_ZdlPv@PLT
 484      00
 485              	.L31:
 486 0038 488D0500 		leaq	64+_ZTCN8UnitTest15MemoryOutStreamE0_NSt7__cxx1119basic_ostringstreamIcSt11char_traitsIcESaIc
 486      000000
 487 003f 488D1500 		leaq	24+_ZTCN8UnitTest15MemoryOutStreamE0_NSt7__cxx1119basic_ostringstreamIcSt11char_traitsIcESaIc
 487      000000
 488 0046 488B7D50 		movq	80(%rbp), %rdi
 489 004a 48898590 		movq	%rax, 144(%rbp)
 489      000000
 490 0051 488D0500 		leaq	16+_ZTVNSt7__cxx1115basic_stringbufIcSt11char_traitsIcESaIcEEE(%rip), %rax
 490      000000
 491 0058 66480F6E 		movq	%rdx, %xmm0
 491      C2
 492 005d 4C8DA590 		leaq	144(%rbp), %r12
 492      000000
 493 0064 66480F6E 		movq	%rax, %xmm1
 493      C8
 494 0069 488D4560 		leaq	96(%rbp), %rax
 495 006d 660F6CC1 		punpcklqdq	%xmm1, %xmm0
 496 0071 0F114500 		movups	%xmm0, 0(%rbp)
 497 0075 4839C7   		cmpq	%rax, %rdi
 498 0078 7405     		je	.L32
 499 007a E8000000 		call	_ZdlPv@PLT
 499      00
 500              	.L32:
 501 007f 488D0500 		leaq	16+_ZTVSt15basic_streambufIcSt11char_traitsIcEE(%rip), %rax
 501      000000
 502 0086 488D7D40 		leaq	64(%rbp), %rdi
 503 008a 48894508 		movq	%rax, 8(%rbp)
 504 008e E8000000 		call	_ZNSt6localeD1Ev@PLT
 504      00
 505 0093 488D0500 		leaq	24+_ZTCN8UnitTest15MemoryOutStreamE0_So(%rip), %rax
 505      000000
 506 009a 4C89E7   		movq	%r12, %rdi
 507 009d 48894500 		movq	%rax, 0(%rbp)
 508 00a1 488D0500 		leaq	16+_ZTVSt9basic_iosIcSt11char_traitsIcEE(%rip), %rax
 508      000000
 509 00a8 48898590 		movq	%rax, 144(%rbp)
 509      000000
 510              	.LEHB8:
 511 00af E8000000 		call	_ZNSt8ios_baseD2Ev@PLT
 511      00
 512              	.LEHE8:
 513 00b4 4883C408 		addq	$8, %rsp
 514              		.cfi_remember_state
 515              		.cfi_def_cfa_offset 24
 516 00b8 4889EF   		movq	%rbp, %rdi
 517 00bb 5D       		popq	%rbp
 518              		.cfi_def_cfa_offset 16
 519 00bc 415C     		popq	%r12
 520              		.cfi_def_cfa_offset 8
 521 00be E9000000 		jmp	_ZdlPv@PLT
 521      00
 522              	.L34:
 523              		.cfi_restore_state
 524 00c3 F30F1EFA 		endbr64
 525 00c7 4989C4   		movq	%rax, %r12
 526              	.L33:
 527 00ca 4889EF   		movq	%rbp, %rdi
 528 00cd E8000000 		call	_ZdlPv@PLT
 528      00
 529 00d2 4C89E7   		movq	%r12, %rdi
 530              	.LEHB9:
 531 00d5 E8000000 		call	_Unwind_Resume@PLT
 531      00
 532              	.LEHE9:
 533              		.cfi_endproc
 534              	.LFE1232:
 535              		.section	.gcc_except_table._ZN8UnitTest15MemoryOutStreamD0Ev,"aG",@progbits,_ZN8UnitTest15MemoryOu
 536              	.LLSDA1232:
 537 0000 FF       		.byte	0xff
 538 0001 FF       		.byte	0xff
 539 0002 01       		.byte	0x1
 540 0003 0B       		.uleb128 .LLSDACSE1232-.LLSDACSB1232
 541              	.LLSDACSB1232:
 542 0004 AF01     		.uleb128 .LEHB8-.LFB1232
 543 0006 05       		.uleb128 .LEHE8-.LEHB8
 544 0007 C301     		.uleb128 .L34-.LFB1232
 545 0009 00       		.uleb128 0
 546 000a D501     		.uleb128 .LEHB9-.LFB1232
 547 000c 05       		.uleb128 .LEHE9-.LEHB9
 548 000d 00       		.uleb128 0
 549 000e 00       		.uleb128 0
 550              	.LLSDACSE1232:
 551              		.section	.text._ZN8UnitTest15MemoryOutStreamD0Ev,"axG",@progbits,_ZN8UnitTest15MemoryOutStreamD0Ev
 553 00da 660F1F44 		.p2align 4
 553      0000
 554              		.weak	_ZTv0_n24_N8UnitTest15MemoryOutStreamD0Ev
 556              	_ZTv0_n24_N8UnitTest15MemoryOutStreamD0Ev:
 557              	.LFB1309:
 558              		.cfi_startproc
 559              		.cfi_personality 0x9b,DW.ref.__gxx_personality_v0
 560              		.cfi_lsda 0x1b,.LLSDA1309
 561 00e0 F30F1EFA 		endbr64
 562 00e4 4154     		pushq	%r12
 563              		.cfi_def_cfa_offset 16
 564              		.cfi_offset 12, -16
 565 00e6 55       		pushq	%rbp
 566              		.cfi_def_cfa_offset 24
 567              		.cfi_offset 6, -24
 568 00e7 4889FD   		movq	%rdi, %rbp
 569 00ea 4883EC08 		subq	$8, %rsp
 570              		.cfi_def_cfa_offset 32
 571 00ee 488B07   		movq	(%rdi), %rax
 572 00f1 480368E8 		addq	-24(%rax), %rbp
 573 00f5 488D0500 		leaq	24+_ZTVN8UnitTest15MemoryOutStreamE(%rip), %rax
 573      000000
 574 00fc 48894500 		movq	%rax, 0(%rbp)
 575 0100 488B7D70 		movq	112(%rbp), %rdi
 576 0104 4883C028 		addq	$40, %rax
 577 0108 48898590 		movq	%rax, 144(%rbp)
 577      000000
 578 010f 488D8580 		leaq	128(%rbp), %rax
 578      000000
 579 0116 4839C7   		cmpq	%rax, %rdi
 580 0119 7405     		je	.L37
 581 011b E8000000 		call	_ZdlPv@PLT
 581      00
 582              	.L37:
 583 0120 488D0500 		leaq	64+_ZTCN8UnitTest15MemoryOutStreamE0_NSt7__cxx1119basic_ostringstreamIcSt11char_traitsIcESaIc
 583      000000
 584 0127 488D1500 		leaq	24+_ZTCN8UnitTest15MemoryOutStreamE0_NSt7__cxx1119basic_ostringstreamIcSt11char_traitsIcESaIc
 584      000000
 585 012e 488B7D50 		movq	80(%rbp), %rdi
 586 0132 48898590 		movq	%rax, 144(%rbp)
 586      000000
 587 0139 488D0500 		leaq	16+_ZTVNSt7__cxx1115basic_stringbufIcSt11char_traitsIcESaIcEEE(%rip), %rax
 587      000000
 588 0140 66480F6E 		movq	%rdx, %xmm0
 588      C2
 589 0145 4C8DA590 		leaq	144(%rbp), %r12
 589      000000
 590 014c 66480F6E 		movq	%rax, %xmm1
 590      C8
 591 0151 488D4560 		leaq	96(%rbp), %rax
 592 0155 660F6CC1 		punpcklqdq	%xmm1, %xmm0
 593 0159 0F114500 		movups	%xmm0, 0(%rbp)
 594 015d 4839C7   		cmpq	%rax, %rdi
 595 0160 7405     		je	.L38
 596 0162 E8000000 		call	_ZdlPv@PLT
 596      00
 597              	.L38:
 598 0167 488D0500 		leaq	16+_ZTVSt15basic_streambufIcSt11char_traitsIcEE(%rip), %rax
 598      000000
 599 016e 488D7D40 		leaq	64(%rbp), %rdi
 600 0172 48894508 		movq	%rax, 8(%rbp)
 601 0176 E8000000 		call	_ZNSt6localeD1Ev@PLT
 601      00
 602 017b 488D0500 		leaq	24+_ZTCN8UnitTest15MemoryOutStreamE0_So(%rip), %rax
 602      000000
 603 0182 4C89E7   		movq	%r12, %rdi
 604 0185 48894500 		movq	%rax, 0(%rbp)
 605 0189 488D0500 		leaq	16+_ZTVSt9basic_iosIcSt11char_traitsIcEE(%rip), %rax
 605      000000
 606 0190 48898590 		movq	%rax, 144(%rbp)
 606      000000
 607              	.LEHB10:
 608 0197 E8000000 		call	_ZNSt8ios_baseD2Ev@PLT
 608      00
 609              	.LEHE10:
 610 019c 4883C408 		addq	$8, %rsp
 611              		.cfi_remember_state
 612              		.cfi_def_cfa_offset 24
 613 01a0 4889EF   		movq	%rbp, %rdi
 614 01a3 5D       		popq	%rbp
 615              		.cfi_def_cfa_offset 16
 616 01a4 415C     		popq	%r12
 617              		.cfi_def_cfa_offset 8
 618 01a6 E9000000 		jmp	_ZdlPv@PLT
 618      00
 619              	.L40:
 620              		.cfi_restore_state
 621 01ab F30F1EFA 		endbr64
 622 01af 4989C4   		movq	%rax, %r12
 623              	.L39:
 624 01b2 4889EF   		movq	%rbp, %rdi
 625 01b5 E8000000 		call	_ZdlPv@PLT
 625      00
 626 01ba 4C89E7   		movq	%r12, %rdi
 627              	.LEHB11:
 628 01bd E8000000 		call	_Unwind_Resume@PLT
 628      00
 629              	.LEHE11:
 630              		.cfi_endproc
 631              	.LFE1309:
 632              		.section	.gcc_except_table._ZTv0_n24_N8UnitTest15MemoryOutStreamD0Ev,"aG",@progbits,_ZN8UnitTest15
 633              	.LLSDA1309:
 634 0000 FF       		.byte	0xff
 635 0001 FF       		.byte	0xff
 636 0002 01       		.byte	0x1
 637 0003 0B       		.uleb128 .LLSDACSE1309-.LLSDACSB1309
 638              	.LLSDACSB1309:
 639 0004 B701     		.uleb128 .LEHB10-.LFB1309
 640 0006 05       		.uleb128 .LEHE10-.LEHB10
 641 0007 CB01     		.uleb128 .L40-.LFB1309
 642 0009 00       		.uleb128 0
 643 000a DD01     		.uleb128 .LEHB11-.LFB1309
 644 000c 05       		.uleb128 .LEHE11-.LEHB11
 645 000d 00       		.uleb128 0
 646 000e 00       		.uleb128 0
 647              	.LLSDACSE1309:
 648              		.section	.text._ZN8UnitTest15MemoryOutStreamD0Ev,"axG",@progbits,_ZN8UnitTest15MemoryOutStreamD0Ev
 650              		.section	.text._ZNSt7__cxx1115basic_stringbufIcSt11char_traitsIcESaIcEED2Ev,"axG",@progbits,_ZNSt7
 651              		.align 2
 652              		.p2align 4
 653              		.weak	_ZNSt7__cxx1115basic_stringbufIcSt11char_traitsIcESaIcEED2Ev
 655              	_ZNSt7__cxx1115basic_stringbufIcSt11char_traitsIcESaIcEED2Ev:
 656              	.LFB1210:
 657              		.cfi_startproc
 658 0000 F30F1EFA 		endbr64
 659 0004 488D0500 		leaq	16+_ZTVNSt7__cxx1115basic_stringbufIcSt11char_traitsIcESaIcEEE(%rip), %rax
 659      000000
 660 000b 53       		pushq	%rbx
 661              		.cfi_def_cfa_offset 16
 662              		.cfi_offset 3, -16
 663 000c 4889FB   		movq	%rdi, %rbx
 664 000f 488907   		movq	%rax, (%rdi)
 665 0012 488B7F48 		movq	72(%rdi), %rdi
 666 0016 488D4358 		leaq	88(%rbx), %rax
 667 001a 4839C7   		cmpq	%rax, %rdi
 668 001d 7405     		je	.L43
 669 001f E8000000 		call	_ZdlPv@PLT
 669      00
 670              	.L43:
 671 0024 488D0500 		leaq	16+_ZTVSt15basic_streambufIcSt11char_traitsIcEE(%rip), %rax
 671      000000
 672 002b 488D7B38 		leaq	56(%rbx), %rdi
 673 002f 488903   		movq	%rax, (%rbx)
 674 0032 5B       		popq	%rbx
 675              		.cfi_def_cfa_offset 8
 676 0033 E9000000 		jmp	_ZNSt6localeD1Ev@PLT
 676      00
 677              		.cfi_endproc
 678              	.LFE1210:
 680              		.weak	_ZNSt7__cxx1115basic_stringbufIcSt11char_traitsIcESaIcEED1Ev
 681              		.set	_ZNSt7__cxx1115basic_stringbufIcSt11char_traitsIcESaIcEED1Ev,_ZNSt7__cxx1115basic_stringbufIc
 682              		.section	.text._ZNSt7__cxx1115basic_stringbufIcSt11char_traitsIcESaIcEED0Ev,"axG",@progbits,_ZNSt7
 683              		.align 2
 684              		.p2align 4
 685              		.weak	_ZNSt7__cxx1115basic_stringbufIcSt11char_traitsIcESaIcEED0Ev
 687              	_ZNSt7__cxx1115basic_stringbufIcSt11char_traitsIcESaIcEED0Ev:
 688              	.LFB1212:
 689              		.cfi_startproc
 690 0000 F30F1EFA 		endbr64
 691 0004 488D0500 		leaq	16+_ZTVNSt7__cxx1115basic_stringbufIcSt11char_traitsIcESaIcEEE(%rip), %rax
 691      000000
 692 000b 55       		pushq	%rbp
 693              		.cfi_def_cfa_offset 16
 694              		.cfi_offset 6, -16
 695 000c 4889FD   		movq	%rdi, %rbp
 696 000f 488907   		movq	%rax, (%rdi)
 697 0012 488B7F48 		movq	72(%rdi), %rdi
 698 0016 488D4558 		leaq	88(%rbp), %rax
 699 001a 4839C7   		cmpq	%rax, %rdi
 700 001d 7405     		je	.L46
 701 001f E8000000 		call	_ZdlPv@PLT
 701      00
 702              	.L46:
 703 0024 488D0500 		leaq	16+_ZTVSt15basic_streambufIcSt11char_traitsIcEE(%rip), %rax
 703      000000
 704 002b 488D7D38 		leaq	56(%rbp), %rdi
 705 002f 48894500 		movq	%rax, 0(%rbp)
 706 0033 E8000000 		call	_ZNSt6localeD1Ev@PLT
 706      00
 707 0038 4889EF   		movq	%rbp, %rdi
 708 003b 5D       		popq	%rbp
 709              		.cfi_def_cfa_offset 8
 710 003c E9000000 		jmp	_ZdlPv@PLT
 710      00
 711              		.cfi_endproc
 712              	.LFE1212:
 714              		.section	.rodata._ZN8UnitTest10CheckEqualIbbEEvRNS_11TestResultsERKT_RKT0_RKNS_11TestDetailsE.str1
 715              	.LC0:
 716 0000 45787065 		.string	"Expected "
 716      63746564 
 716      2000
 717              	.LC1:
 718 000a 20627574 		.string	" but was "
 718      20776173 
 718      2000
 719              		.section	.text._ZN8UnitTest10CheckEqualIbbEEvRNS_11TestResultsERKT_RKT0_RKNS_11TestDetailsE,"axG",
 720              		.p2align 4
 721              		.weak	_ZN8UnitTest10CheckEqualIbbEEvRNS_11TestResultsERKT_RKT0_RKNS_11TestDetailsE
 723              	_ZN8UnitTest10CheckEqualIbbEEvRNS_11TestResultsERKT_RKT0_RKNS_11TestDetailsE:
 724              	.LFB1228:
 725              		.cfi_startproc
 726              		.cfi_personality 0x9b,DW.ref.__gxx_personality_v0
 727              		.cfi_lsda 0x1b,.LLSDA1228
 728 0000 F30F1EFA 		endbr64
 729 0004 4157     		pushq	%r15
 730              		.cfi_def_cfa_offset 16
 731              		.cfi_offset 15, -16
 732 0006 4156     		pushq	%r14
 733              		.cfi_def_cfa_offset 24
 734              		.cfi_offset 14, -24
 735 0008 4155     		pushq	%r13
 736              		.cfi_def_cfa_offset 32
 737              		.cfi_offset 13, -32
 738 000a 4154     		pushq	%r12
 739              		.cfi_def_cfa_offset 40
 740              		.cfi_offset 12, -40
 741 000c 55       		pushq	%rbp
 742              		.cfi_def_cfa_offset 48
 743              		.cfi_offset 6, -48
 744 000d 53       		pushq	%rbx
 745              		.cfi_def_cfa_offset 56
 746              		.cfi_offset 3, -56
 747 000e 4881ECD8 		subq	$472, %rsp
 747      010000
 748              		.cfi_def_cfa_offset 528
 749 0015 F30F7E0D 		movq	.LC2(%rip), %xmm1
 749      00000000 
 750 001d 48897C24 		movq	%rdi, 16(%rsp)
 750      10
 751 0022 48894C24 		movq	%rcx, 24(%rsp)
 751      18
 752 0027 0F160D00 		movhps	.LC3(%rip), %xmm1
 752      000000
 753 002e 64488B04 		movq	%fs:40, %rax
 753      25280000 
 753      00
 754 0037 48898424 		movq	%rax, 456(%rsp)
 754      C8010000 
 755 003f 31C0     		xorl	%eax, %eax
 756 0041 0FB602   		movzbl	(%rdx), %eax
 757 0044 0F290C24 		movaps	%xmm1, (%rsp)
 758 0048 3806     		cmpb	%al, (%rsi)
 759 004a 752C     		jne	.L64
 760              	.L48:
 761 004c 488B8424 		movq	456(%rsp), %rax
 761      C8010000 
 762 0054 64482B04 		subq	%fs:40, %rax
 762      25280000 
 762      00
 763 005d 0F854C02 		jne	.L65
 763      0000
 764 0063 4881C4D8 		addq	$472, %rsp
 764      010000
 765              		.cfi_remember_state
 766              		.cfi_def_cfa_offset 56
 767 006a 5B       		popq	%rbx
 768              		.cfi_def_cfa_offset 48
 769 006b 5D       		popq	%rbp
 770              		.cfi_def_cfa_offset 40
 771 006c 415C     		popq	%r12
 772              		.cfi_def_cfa_offset 32
 773 006e 415D     		popq	%r13
 774              		.cfi_def_cfa_offset 24
 775 0070 415E     		popq	%r14
 776              		.cfi_def_cfa_offset 16
 777 0072 415F     		popq	%r15
 778              		.cfi_def_cfa_offset 8
 779 0074 C3       		ret
 780              		.p2align 4,,10
 781 0075 0F1F00   		.p2align 3
 782              	.L64:
 783              		.cfi_restore_state
 784 0078 4C8DAC24 		leaq	192(%rsp), %r13
 784      C0000000 
 785 0080 4889F5   		movq	%rsi, %rbp
 786 0083 4889D3   		movq	%rdx, %rbx
 787 0086 4C89EF   		movq	%r13, %rdi
 788 0089 E8000000 		call	_ZNSt8ios_baseC2Ev@PLT
 788      00
 789 008e 31C0     		xorl	%eax, %eax
 790 0090 660FEFC0 		pxor	%xmm0, %xmm0
 791 0094 31F6     		xorl	%esi, %esi
 792 0096 66898424 		movw	%ax, 416(%rsp)
 792      A0010000 
 793 009e 488D0500 		leaq	24+_ZTCN8UnitTest15MemoryOutStreamE0_So(%rip), %rax
 793      000000
 794 00a5 4C89EF   		movq	%r13, %rdi
 795 00a8 48894424 		movq	%rax, 48(%rsp)
 795      30
 796 00ad 4883C028 		addq	$40, %rax
 797 00b1 48C78424 		movq	$0, 408(%rsp)
 797      98010000 
 797      00000000 
 798 00bd 48898424 		movq	%rax, 192(%rsp)
 798      C0000000 
 799 00c5 0F118424 		movups	%xmm0, 424(%rsp)
 799      A8010000 
 800 00cd 0F118424 		movups	%xmm0, 440(%rsp)
 800      B8010000 
 801              	.LEHB12:
 802 00d5 E8000000 		call	_ZNSt9basic_iosIcSt11char_traitsIcEE4initEPSt15basic_streambufIcS1_E@PLT
 802      00
 803              	.LEHE12:
 804 00da 660F6F0C 		movdqa	(%rsp), %xmm1
 804      24
 805 00df 4C8D7424 		leaq	112(%rsp), %r14
 805      70
 806 00e4 660FEFC0 		pxor	%xmm0, %xmm0
 807 00e8 488D0500 		leaq	64+_ZTCN8UnitTest15MemoryOutStreamE0_NSt7__cxx1119basic_ostringstreamIcSt11char_traitsIcESaIc
 807      000000
 808 00ef 4C89F7   		movq	%r14, %rdi
 809 00f2 0F294424 		movaps	%xmm0, 64(%rsp)
 809      40
 810 00f7 4C8D6424 		leaq	48(%rsp), %r12
 810      30
 811 00fc 4C8D7C24 		leaq	56(%rsp), %r15
 811      38
 812 0101 48898424 		movq	%rax, 192(%rsp)
 812      C0000000 
 813 0109 0F294C24 		movaps	%xmm1, 48(%rsp)
 813      30
 814 010e 0F294424 		movaps	%xmm0, 80(%rsp)
 814      50
 815 0113 0F294424 		movaps	%xmm0, 96(%rsp)
 815      60
 816 0118 E8000000 		call	_ZNSt6localeC1Ev@PLT
 816      00
 817 011d 488D0500 		leaq	16+_ZTVNSt7__cxx1115basic_stringbufIcSt11char_traitsIcESaIcEEE(%rip), %rax
 817      000000
 818 0124 4C89FE   		movq	%r15, %rsi
 819 0127 48C78424 		movq	$0, 136(%rsp)
 819      88000000 
 819      00000000 
 820 0133 48894424 		movq	%rax, 56(%rsp)
 820      38
 821 0138 488D8424 		leaq	144(%rsp), %rax
 821      90000000 
 822 0140 48894424 		movq	%rax, 32(%rsp)
 822      20
 823 0145 48898424 		movq	%rax, 128(%rsp)
 823      80000000 
 824 014d 488B4424 		movq	48(%rsp), %rax
 824      30
 825 0152 C6842490 		movb	$0, 144(%rsp)
 825      00000000 
 826 015a 488B78E8 		movq	-24(%rax), %rdi
 827 015e C7442478 		movl	$16, 120(%rsp)
 827      10000000 
 828 0166 4C01E7   		addq	%r12, %rdi
 829              	.LEHB13:
 830 0169 E8000000 		call	_ZNSt9basic_iosIcSt11char_traitsIcEE4initEPSt15basic_streambufIcS1_E@PLT
 830      00
 831              	.LEHE13:
 832 016e 4C8D3D00 		leaq	24+_ZTVN8UnitTest15MemoryOutStreamE(%rip), %r15
 832      000000
 833 0175 BA090000 		movl	$9, %edx
 833      00
 834 017a 4C89E7   		movq	%r12, %rdi
 835 017d 48C78424 		movq	$0, 168(%rsp)
 835      A8000000 
 835      00000000 
 836 0189 498D4728 		leaq	40(%r15), %rax
 837 018d 488D3500 		leaq	.LC0(%rip), %rsi
 837      000000
 838 0194 4C897C24 		movq	%r15, 48(%rsp)
 838      30
 839 0199 48898424 		movq	%rax, 192(%rsp)
 839      C0000000 
 840 01a1 488D8424 		leaq	176(%rsp), %rax
 840      B0000000 
 841 01a9 48894424 		movq	%rax, 40(%rsp)
 841      28
 842 01ae 48898424 		movq	%rax, 160(%rsp)
 842      A0000000 
 843 01b6 C68424B0 		movb	$0, 176(%rsp)
 843      00000000 
 844              	.LEHB14:
 845 01be E8000000 		call	_ZSt16__ostream_insertIcSt11char_traitsIcEERSt13basic_ostreamIT_T0_ES6_PKS3_l@PLT
 845      00
 846 01c3 0FB67500 		movzbl	0(%rbp), %esi
 847 01c7 4C89E7   		movq	%r12, %rdi
 848 01ca E8000000 		call	_ZNSo9_M_insertIbEERSoT_@PLT
 848      00
 849 01cf BA090000 		movl	$9, %edx
 849      00
 850 01d4 488D3500 		leaq	.LC1(%rip), %rsi
 850      000000
 851 01db 4889C7   		movq	%rax, %rdi
 852 01de 4889C5   		movq	%rax, %rbp
 853 01e1 E8000000 		call	_ZSt16__ostream_insertIcSt11char_traitsIcEERSt13basic_ostreamIT_T0_ES6_PKS3_l@PLT
 853      00
 854 01e6 0FB633   		movzbl	(%rbx), %esi
 855 01e9 4889EF   		movq	%rbp, %rdi
 856 01ec E8000000 		call	_ZNSo9_M_insertIbEERSoT_@PLT
 856      00
 857 01f1 4C89E7   		movq	%r12, %rdi
 858 01f4 E8000000 		call	_ZNK8UnitTest15MemoryOutStream7GetTextEv@PLT
 858      00
 859 01f9 488B7424 		movq	24(%rsp), %rsi
 859      18
 860 01fe 488B7C24 		movq	16(%rsp), %rdi
 860      10
 861 0203 4889C2   		movq	%rax, %rdx
 862 0206 F30F7E15 		movq	.LC2(%rip), %xmm2
 862      00000000 
 863 020e 0F161500 		movhps	.LC4(%rip), %xmm2
 863      000000
 864 0215 0F291424 		movaps	%xmm2, (%rsp)
 865 0219 E8000000 		call	_ZN8UnitTest11TestResults13OnTestFailureERKNS_11TestDetailsEPKc@PLT
 865      00
 866              	.LEHE14:
 867 021e 488D0500 		leaq	64+_ZTVN8UnitTest15MemoryOutStreamE(%rip), %rax
 867      000000
 868 0225 4C897C24 		movq	%r15, 48(%rsp)
 868      30
 869 022a 488BBC24 		movq	160(%rsp), %rdi
 869      A0000000 
 870 0232 48898424 		movq	%rax, 192(%rsp)
 870      C0000000 
 871 023a 483B7C24 		cmpq	40(%rsp), %rdi
 871      28
 872 023f 7405     		je	.L54
 873 0241 E8000000 		call	_ZdlPv@PLT
 873      00
 874              	.L54:
 875 0246 660F6F1C 		movdqa	(%rsp), %xmm3
 875      24
 876 024b 488D0500 		leaq	64+_ZTCN8UnitTest15MemoryOutStreamE0_NSt7__cxx1119basic_ostringstreamIcSt11char_traitsIcESaIc
 876      000000
 877 0252 488BBC24 		movq	128(%rsp), %rdi
 877      80000000 
 878 025a 48898424 		movq	%rax, 192(%rsp)
 878      C0000000 
 879 0262 0F295C24 		movaps	%xmm3, 48(%rsp)
 879      30
 880 0267 483B7C24 		cmpq	32(%rsp), %rdi
 880      20
 881 026c 7405     		je	.L55
 882 026e E8000000 		call	_ZdlPv@PLT
 882      00
 883              	.L55:
 884 0273 488D0500 		leaq	16+_ZTVSt15basic_streambufIcSt11char_traitsIcEE(%rip), %rax
 884      000000
 885 027a 4C89F7   		movq	%r14, %rdi
 886 027d 48894424 		movq	%rax, 56(%rsp)
 886      38
 887 0282 E8000000 		call	_ZNSt6localeD1Ev@PLT
 887      00
 888 0287 488D0500 		leaq	24+_ZTCN8UnitTest15MemoryOutStreamE0_So(%rip), %rax
 888      000000
 889 028e 4C89EF   		movq	%r13, %rdi
 890 0291 48894424 		movq	%rax, 48(%rsp)
 890      30
 891 0296 488D0500 		leaq	16+_ZTVSt9basic_iosIcSt11char_traitsIcEE(%rip), %rax
 891      000000
 892 029d 48898424 		movq	%rax, 192(%rsp)
 892      C0000000 
 893              	.LEHB15:
 894 02a5 E8000000 		call	_ZNSt8ios_baseD2Ev@PLT
 894      00
 895              	.LEHE15:
 896 02aa E99DFDFF 		jmp	.L48
 896      FF
 897              	.L65:
 898 02af E8000000 		call	__stack_chk_fail@PLT
 898      00
 899              	.L59:
 900 02b4 F30F1EFA 		endbr64
 901 02b8 4889C5   		movq	%rax, %rbp
 902 02bb EB26     		jmp	.L52
 903              	.L60:
 904 02bd F30F1EFA 		endbr64
 905 02c1 4889C5   		movq	%rax, %rbp
 906 02c4 EB09     		jmp	.L51
 907              	.L58:
 908 02c6 F30F1EFA 		endbr64
 909 02ca 4889C5   		movq	%rax, %rbp
 910 02cd EB33     		jmp	.L56
 911              	.L51:
 912 02cf 4C89FF   		movq	%r15, %rdi
 913 02d2 E8000000 		call	_ZNSt7__cxx1115basic_stringbufIcSt11char_traitsIcESaIcEED1Ev
 913      00
 914 02d7 488D0500 		leaq	24+_ZTCN8UnitTest15MemoryOutStreamE0_So(%rip), %rax
 914      000000
 915 02de 48894424 		movq	%rax, 48(%rsp)
 915      30
 916              	.L52:
 917 02e3 488D0500 		leaq	16+_ZTVSt9basic_iosIcSt11char_traitsIcEE(%rip), %rax
 917      000000
 918 02ea 4C89EF   		movq	%r13, %rdi
 919 02ed 48898424 		movq	%rax, 192(%rsp)
 919      C0000000 
 920 02f5 E8000000 		call	_ZNSt8ios_baseD2Ev@PLT
 920      00
 921 02fa 4889EF   		movq	%rbp, %rdi
 922              	.LEHB16:
 923 02fd E8000000 		call	_Unwind_Resume@PLT
 923      00
 924              	.LEHE16:
 925              	.L56:
 926 0302 4C89E7   		movq	%r12, %rdi
 927 0305 E8000000 		call	_ZN8UnitTest15MemoryOutStreamD1Ev
 927      00
 928 030a 4889EF   		movq	%rbp, %rdi
 929              	.LEHB17:
 930 030d E8000000 		call	_Unwind_Resume@PLT
 930      00
 931              	.LEHE17:
 932              		.cfi_endproc
 933              	.LFE1228:
 934              		.section	.gcc_except_table._ZN8UnitTest10CheckEqualIbbEEvRNS_11TestResultsERKT_RKT0_RKNS_11TestDet
 935              	.LLSDA1228:
 936 0000 FF       		.byte	0xff
 937 0001 FF       		.byte	0xff
 938 0002 01       		.byte	0x1
 939 0003 21       		.uleb128 .LLSDACSE1228-.LLSDACSB1228
 940              	.LLSDACSB1228:
 941 0004 D501     		.uleb128 .LEHB12-.LFB1228
 942 0006 05       		.uleb128 .LEHE12-.LEHB12
 943 0007 B405     		.uleb128 .L59-.LFB1228
 944 0009 00       		.uleb128 0
 945 000a E902     		.uleb128 .LEHB13-.LFB1228
 946 000c 05       		.uleb128 .LEHE13-.LEHB13
 947 000d BD05     		.uleb128 .L60-.LFB1228
 948 000f 00       		.uleb128 0
 949 0010 BE03     		.uleb128 .LEHB14-.LFB1228
 950 0012 60       		.uleb128 .LEHE14-.LEHB14
 951 0013 C605     		.uleb128 .L58-.LFB1228
 952 0015 00       		.uleb128 0
 953 0016 A505     		.uleb128 .LEHB15-.LFB1228
 954 0018 05       		.uleb128 .LEHE15-.LEHB15
 955 0019 00       		.uleb128 0
 956 001a 00       		.uleb128 0
 957 001b FD05     		.uleb128 .LEHB16-.LFB1228
 958 001d 05       		.uleb128 .LEHE16-.LEHB16
 959 001e 00       		.uleb128 0
 960 001f 00       		.uleb128 0
 961 0020 8D06     		.uleb128 .LEHB17-.LFB1228
 962 0022 05       		.uleb128 .LEHE17-.LEHB17
 963 0023 00       		.uleb128 0
 964 0024 00       		.uleb128 0
 965              	.LLSDACSE1228:
 966              		.section	.text._ZN8UnitTest10CheckEqualIbbEEvRNS_11TestResultsERKT_RKT0_RKNS_11TestDetailsE,"axG",
 968              		.section	.text._ZN8UnitTest10CheckEqualIihEEvRNS_11TestResultsERKT_RKT0_RKNS_11TestDetailsE,"axG",
 969              		.p2align 4
 970              		.weak	_ZN8UnitTest10CheckEqualIihEEvRNS_11TestResultsERKT_RKT0_RKNS_11TestDetailsE
 972              	_ZN8UnitTest10CheckEqualIihEEvRNS_11TestResultsERKT_RKT0_RKNS_11TestDetailsE:
 973              	.LFB1233:
 974              		.cfi_startproc
 975              		.cfi_personality 0x9b,DW.ref.__gxx_personality_v0
 976              		.cfi_lsda 0x1b,.LLSDA1233
 977 0000 F30F1EFA 		endbr64
 978 0004 4157     		pushq	%r15
 979              		.cfi_def_cfa_offset 16
 980              		.cfi_offset 15, -16
 981 0006 4156     		pushq	%r14
 982              		.cfi_def_cfa_offset 24
 983              		.cfi_offset 14, -24
 984 0008 4155     		pushq	%r13
 985              		.cfi_def_cfa_offset 32
 986              		.cfi_offset 13, -32
 987 000a 4154     		pushq	%r12
 988              		.cfi_def_cfa_offset 40
 989              		.cfi_offset 12, -40
 990 000c 55       		pushq	%rbp
 991              		.cfi_def_cfa_offset 48
 992              		.cfi_offset 6, -48
 993 000d 53       		pushq	%rbx
 994              		.cfi_def_cfa_offset 56
 995              		.cfi_offset 3, -56
 996 000e 4881ECE8 		subq	$488, %rsp
 996      010000
 997              		.cfi_def_cfa_offset 544
 998 0015 F30F7E0D 		movq	.LC2(%rip), %xmm1
 998      00000000 
 999 001d 48897C24 		movq	%rdi, 16(%rsp)
 999      10
 1000 0022 48894C24 		movq	%rcx, 24(%rsp)
 1000      18
 1001 0027 0F160D00 		movhps	.LC3(%rip), %xmm1
 1001      000000
 1002 002e 64488B04 		movq	%fs:40, %rax
 1002      25280000 
 1002      00
 1003 0037 48898424 		movq	%rax, 472(%rsp)
 1003      D8010000 
 1004 003f 31C0     		xorl	%eax, %eax
 1005 0041 0FB602   		movzbl	(%rdx), %eax
 1006 0044 0F290C24 		movaps	%xmm1, (%rsp)
 1007 0048 3906     		cmpl	%eax, (%rsi)
 1008 004a 752C     		jne	.L82
 1009              	.L66:
 1010 004c 488B8424 		movq	472(%rsp), %rax
 1010      D8010000 
 1011 0054 64482B04 		subq	%fs:40, %rax
 1011      25280000 
 1011      00
 1012 005d 0F855F02 		jne	.L83
 1012      0000
 1013 0063 4881C4E8 		addq	$488, %rsp
 1013      010000
 1014              		.cfi_remember_state
 1015              		.cfi_def_cfa_offset 56
 1016 006a 5B       		popq	%rbx
 1017              		.cfi_def_cfa_offset 48
 1018 006b 5D       		popq	%rbp
 1019              		.cfi_def_cfa_offset 40
 1020 006c 415C     		popq	%r12
 1021              		.cfi_def_cfa_offset 32
 1022 006e 415D     		popq	%r13
 1023              		.cfi_def_cfa_offset 24
 1024 0070 415E     		popq	%r14
 1025              		.cfi_def_cfa_offset 16
 1026 0072 415F     		popq	%r15
 1027              		.cfi_def_cfa_offset 8
 1028 0074 C3       		ret
 1029              		.p2align 4,,10
 1030 0075 0F1F00   		.p2align 3
 1031              	.L82:
 1032              		.cfi_restore_state
 1033 0078 4C8DAC24 		leaq	208(%rsp), %r13
 1033      D0000000 
 1034 0080 4889F5   		movq	%rsi, %rbp
 1035 0083 4889D3   		movq	%rdx, %rbx
 1036 0086 4C89EF   		movq	%r13, %rdi
 1037 0089 E8000000 		call	_ZNSt8ios_baseC2Ev@PLT
 1037      00
 1038 008e 31C0     		xorl	%eax, %eax
 1039 0090 660FEFC0 		pxor	%xmm0, %xmm0
 1040 0094 31F6     		xorl	%esi, %esi
 1041 0096 66898424 		movw	%ax, 432(%rsp)
 1041      B0010000 
 1042 009e 488D0500 		leaq	24+_ZTCN8UnitTest15MemoryOutStreamE0_So(%rip), %rax
 1042      000000
 1043 00a5 4C89EF   		movq	%r13, %rdi
 1044 00a8 48894424 		movq	%rax, 64(%rsp)
 1044      40
 1045 00ad 4883C028 		addq	$40, %rax
 1046 00b1 48C78424 		movq	$0, 424(%rsp)
 1046      A8010000 
 1046      00000000 
 1047 00bd 48898424 		movq	%rax, 208(%rsp)
 1047      D0000000 
 1048 00c5 0F118424 		movups	%xmm0, 440(%rsp)
 1048      B8010000 
 1049 00cd 0F118424 		movups	%xmm0, 456(%rsp)
 1049      C8010000 
 1050              	.LEHB18:
 1051 00d5 E8000000 		call	_ZNSt9basic_iosIcSt11char_traitsIcEE4initEPSt15basic_streambufIcS1_E@PLT
 1051      00
 1052              	.LEHE18:
 1053 00da 660F6F0C 		movdqa	(%rsp), %xmm1
 1053      24
 1054 00df 660FEFC0 		pxor	%xmm0, %xmm0
 1055 00e3 4C8DB424 		leaq	128(%rsp), %r14
 1055      80000000 
 1056 00eb 488D0500 		leaq	64+_ZTCN8UnitTest15MemoryOutStreamE0_NSt7__cxx1119basic_ostringstreamIcSt11char_traitsIcESaIc
 1056      000000
 1057 00f2 4C89F7   		movq	%r14, %rdi
 1058 00f5 0F294424 		movaps	%xmm0, 80(%rsp)
 1058      50
 1059 00fa 4C8D6424 		leaq	64(%rsp), %r12
 1059      40
 1060 00ff 4C8D7C24 		leaq	72(%rsp), %r15
 1060      48
 1061 0104 48898424 		movq	%rax, 208(%rsp)
 1061      D0000000 
 1062 010c 0F294C24 		movaps	%xmm1, 64(%rsp)
 1062      40
 1063 0111 0F294424 		movaps	%xmm0, 96(%rsp)
 1063      60
 1064 0116 0F294424 		movaps	%xmm0, 112(%rsp)
 1064      70
 1065 011b E8000000 		call	_ZNSt6localeC1Ev@PLT
 1065      00
 1066 0120 488D0500 		leaq	16+_ZTVNSt7__cxx1115basic_stringbufIcSt11char_traitsIcESaIcEEE(%rip), %rax
 1066      000000
 1067 0127 C68424A0 		movb	$0, 160(%rsp)
 1067      00000000 
 1068 012f 4C89FE   		movq	%r15, %rsi
 1069 0132 48894424 		movq	%rax, 72(%rsp)
 1069      48
 1070 0137 488D8424 		leaq	160(%rsp), %rax
 1070      A0000000 
 1071 013f 48894424 		movq	%rax, 32(%rsp)
 1071      20
 1072 0144 48898424 		movq	%rax, 144(%rsp)
 1072      90000000 
 1073 014c 488B4424 		movq	64(%rsp), %rax
 1073      40
 1074 0151 48C78424 		movq	$0, 152(%rsp)
 1074      98000000 
 1074      00000000 
 1075 015d C7842488 		movl	$16, 136(%rsp)
 1075      00000010 
 1075      000000
 1076 0168 488B78E8 		movq	-24(%rax), %rdi
 1077 016c 4C01E7   		addq	%r12, %rdi
 1078              	.LEHB19:
 1079 016f E8000000 		call	_ZNSt9basic_iosIcSt11char_traitsIcEE4initEPSt15basic_streambufIcS1_E@PLT
 1079      00
 1080              	.LEHE19:
 1081 0174 4C8D3D00 		leaq	24+_ZTVN8UnitTest15MemoryOutStreamE(%rip), %r15
 1081      000000
 1082 017b BA090000 		movl	$9, %edx
 1082      00
 1083 0180 4C89E7   		movq	%r12, %rdi
 1084 0183 48C78424 		movq	$0, 184(%rsp)
 1084      B8000000 
 1084      00000000 
 1085 018f 498D4728 		leaq	40(%r15), %rax
 1086 0193 488D3500 		leaq	.LC0(%rip), %rsi
 1086      000000
 1087 019a 4C897C24 		movq	%r15, 64(%rsp)
 1087      40
 1088 019f 48898424 		movq	%rax, 208(%rsp)
 1088      D0000000 
 1089 01a7 488D8424 		leaq	192(%rsp), %rax
 1089      C0000000 
 1090 01af 48894424 		movq	%rax, 40(%rsp)
 1090      28
 1091 01b4 48898424 		movq	%rax, 176(%rsp)
 1091      B0000000 
 1092 01bc C68424C0 		movb	$0, 192(%rsp)
 1092      00000000 
 1093              	.LEHB20:
 1094 01c4 E8000000 		call	_ZSt16__ostream_insertIcSt11char_traitsIcEERSt13basic_ostreamIT_T0_ES6_PKS3_l@PLT
 1094      00
 1095 01c9 8B7500   		movl	0(%rbp), %esi
 1096 01cc 4C89E7   		movq	%r12, %rdi
 1097 01cf E8000000 		call	_ZNSolsEi@PLT
 1097      00
 1098 01d4 BA090000 		movl	$9, %edx
 1098      00
 1099 01d9 488D3500 		leaq	.LC1(%rip), %rsi
 1099      000000
 1100 01e0 4889C7   		movq	%rax, %rdi
 1101 01e3 4889C5   		movq	%rax, %rbp
 1102 01e6 E8000000 		call	_ZSt16__ostream_insertIcSt11char_traitsIcEERSt13basic_ostreamIT_T0_ES6_PKS3_l@PLT
 1102      00
 1103 01eb 0FB603   		movzbl	(%rbx), %eax
 1104 01ee 488D7424 		leaq	63(%rsp), %rsi
 1104      3F
 1105 01f3 BA010000 		movl	$1, %edx
 1105      00
 1106 01f8 4889EF   		movq	%rbp, %rdi
 1107 01fb 8844243F 		movb	%al, 63(%rsp)
 1108 01ff E8000000 		call	_ZSt16__ostream_insertIcSt11char_traitsIcEERSt13basic_ostreamIT_T0_ES6_PKS3_l@PLT
 1108      00
 1109 0204 4C89E7   		movq	%r12, %rdi
 1110 0207 E8000000 		call	_ZNK8UnitTest15MemoryOutStream7GetTextEv@PLT
 1110      00
 1111 020c 488B7424 		movq	24(%rsp), %rsi
 1111      18
 1112 0211 488B7C24 		movq	16(%rsp), %rdi
 1112      10
 1113 0216 4889C2   		movq	%rax, %rdx
 1114 0219 F30F7E15 		movq	.LC2(%rip), %xmm2
 1114      00000000 
 1115 0221 0F161500 		movhps	.LC4(%rip), %xmm2
 1115      000000
 1116 0228 0F291424 		movaps	%xmm2, (%rsp)
 1117 022c E8000000 		call	_ZN8UnitTest11TestResults13OnTestFailureERKNS_11TestDetailsEPKc@PLT
 1117      00
 1118              	.LEHE20:
 1119 0231 488D0500 		leaq	64+_ZTVN8UnitTest15MemoryOutStreamE(%rip), %rax
 1119      000000
 1120 0238 4C897C24 		movq	%r15, 64(%rsp)
 1120      40
 1121 023d 488BBC24 		movq	176(%rsp), %rdi
 1121      B0000000 
 1122 0245 48898424 		movq	%rax, 208(%rsp)
 1122      D0000000 
 1123 024d 483B7C24 		cmpq	40(%rsp), %rdi
 1123      28
 1124 0252 7405     		je	.L72
 1125 0254 E8000000 		call	_ZdlPv@PLT
 1125      00
 1126              	.L72:
 1127 0259 660F6F1C 		movdqa	(%rsp), %xmm3
 1127      24
 1128 025e 488D0500 		leaq	64+_ZTCN8UnitTest15MemoryOutStreamE0_NSt7__cxx1119basic_ostringstreamIcSt11char_traitsIcESaIc
 1128      000000
 1129 0265 488BBC24 		movq	144(%rsp), %rdi
 1129      90000000 
 1130 026d 48898424 		movq	%rax, 208(%rsp)
 1130      D0000000 
 1131 0275 0F295C24 		movaps	%xmm3, 64(%rsp)
 1131      40
 1132 027a 483B7C24 		cmpq	32(%rsp), %rdi
 1132      20
 1133 027f 7405     		je	.L73
 1134 0281 E8000000 		call	_ZdlPv@PLT
 1134      00
 1135              	.L73:
 1136 0286 488D0500 		leaq	16+_ZTVSt15basic_streambufIcSt11char_traitsIcEE(%rip), %rax
 1136      000000
 1137 028d 4C89F7   		movq	%r14, %rdi
 1138 0290 48894424 		movq	%rax, 72(%rsp)
 1138      48
 1139 0295 E8000000 		call	_ZNSt6localeD1Ev@PLT
 1139      00
 1140 029a 488D0500 		leaq	24+_ZTCN8UnitTest15MemoryOutStreamE0_So(%rip), %rax
 1140      000000
 1141 02a1 4C89EF   		movq	%r13, %rdi
 1142 02a4 48894424 		movq	%rax, 64(%rsp)
 1142      40
 1143 02a9 488D0500 		leaq	16+_ZTVSt9basic_iosIcSt11char_traitsIcEE(%rip), %rax
 1143      000000
 1144 02b0 48898424 		movq	%rax, 208(%rsp)
 1144      D0000000 
 1145              	.LEHB21:
 1146 02b8 E8000000 		call	_ZNSt8ios_baseD2Ev@PLT
 1146      00
 1147              	.LEHE21:
 1148 02bd E98AFDFF 		jmp	.L66
 1148      FF
 1149              	.L83:
 1150 02c2 E8000000 		call	__stack_chk_fail@PLT
 1150      00
 1151              	.L77:
 1152 02c7 F30F1EFA 		endbr64
 1153 02cb 4889C5   		movq	%rax, %rbp
 1154 02ce EB26     		jmp	.L70
 1155              	.L78:
 1156 02d0 F30F1EFA 		endbr64
 1157 02d4 4889C5   		movq	%rax, %rbp
 1158 02d7 EB09     		jmp	.L69
 1159              	.L76:
 1160 02d9 F30F1EFA 		endbr64
 1161 02dd 4889C5   		movq	%rax, %rbp
 1162 02e0 EB33     		jmp	.L74
 1163              	.L69:
 1164 02e2 4C89FF   		movq	%r15, %rdi
 1165 02e5 E8000000 		call	_ZNSt7__cxx1115basic_stringbufIcSt11char_traitsIcESaIcEED1Ev
 1165      00
 1166 02ea 488D0500 		leaq	24+_ZTCN8UnitTest15MemoryOutStreamE0_So(%rip), %rax
 1166      000000
 1167 02f1 48894424 		movq	%rax, 64(%rsp)
 1167      40
 1168              	.L70:
 1169 02f6 488D0500 		leaq	16+_ZTVSt9basic_iosIcSt11char_traitsIcEE(%rip), %rax
 1169      000000
 1170 02fd 4C89EF   		movq	%r13, %rdi
 1171 0300 48898424 		movq	%rax, 208(%rsp)
 1171      D0000000 
 1172 0308 E8000000 		call	_ZNSt8ios_baseD2Ev@PLT
 1172      00
 1173 030d 4889EF   		movq	%rbp, %rdi
 1174              	.LEHB22:
 1175 0310 E8000000 		call	_Unwind_Resume@PLT
 1175      00
 1176              	.LEHE22:
 1177              	.L74:
 1178 0315 4C89E7   		movq	%r12, %rdi
 1179 0318 E8000000 		call	_ZN8UnitTest15MemoryOutStreamD1Ev
 1179      00
 1180 031d 4889EF   		movq	%rbp, %rdi
 1181              	.LEHB23:
 1182 0320 E8000000 		call	_Unwind_Resume@PLT
 1182      00
 1183              	.LEHE23:
 1184              		.cfi_endproc
 1185              	.LFE1233:
 1186              		.section	.gcc_except_table._ZN8UnitTest10CheckEqualIihEEvRNS_11TestResultsERKT_RKT0_RKNS_11TestDet
 1187              	.LLSDA1233:
 1188 0000 FF       		.byte	0xff
 1189 0001 FF       		.byte	0xff
 1190 0002 01       		.byte	0x1
 1191 0003 21       		.uleb128 .LLSDACSE1233-.LLSDACSB1233
 1192              	.LLSDACSB1233:
 1193 0004 D501     		.uleb128 .LEHB18-.LFB1233
 1194 0006 05       		.uleb128 .LEHE18-.LEHB18
 1195 0007 C705     		.uleb128 .L77-.LFB1233
 1196 0009 00       		.uleb128 0
 1197 000a EF02     		.uleb128 .LEHB19-.LFB1233
 1198 000c 05       		.uleb128 .LEHE19-.LEHB19
 1199 000d D005     		.uleb128 .L78-.LFB1233
 1200 000f 00       		.uleb128 0
 1201 0010 C403     		.uleb128 .LEHB20-.LFB1233
 1202 0012 6D       		.uleb128 .LEHE20-.LEHB20
 1203 0013 D905     		.uleb128 .L76-.LFB1233
 1204 0015 00       		.uleb128 0
 1205 0016 B805     		.uleb128 .LEHB21-.LFB1233
 1206 0018 05       		.uleb128 .LEHE21-.LEHB21
 1207 0019 00       		.uleb128 0
 1208 001a 00       		.uleb128 0
 1209 001b 9006     		.uleb128 .LEHB22-.LFB1233
 1210 001d 05       		.uleb128 .LEHE22-.LEHB22
 1211 001e 00       		.uleb128 0
 1212 001f 00       		.uleb128 0
 1213 0020 A006     		.uleb128 .LEHB23-.LFB1233
 1214 0022 05       		.uleb128 .LEHE23-.LEHB23
 1215 0023 00       		.uleb128 0
 1216 0024 00       		.uleb128 0
 1217              	.LLSDACSE1233:
 1218              		.section	.text._ZN8UnitTest10CheckEqualIihEEvRNS_11TestResultsERKT_RKT0_RKNS_11TestDetailsE,"axG",
 1220              		.section	.rodata.str1.8,"aMS",@progbits,1
 1221              		.align 8
 1222              	.LC5:
 1223 0000 556E6861 		.string	"Unhandled exception in CHECK_EQUAL(false, status)"
 1223      6E646C65 
 1223      64206578 
 1223      63657074 
 1223      696F6E20 
 1224 0032 00000000 		.align 8
 1224      0000
 1225              	.LC6:
 1226 0038 556E6861 		.string	"Unhandled exception in CHECK_EQUAL(0, nibble)"
 1226      6E646C65 
 1226      64206578 
 1226      63657074 
 1226      696F6E20 
 1227 0066 0000     		.align 8
 1228              	.LC7:
 1229 0068 556E6861 		.string	"Unhandled exception in CHECK_EQUAL(1, nibble)"
 1229      6E646C65 
 1229      64206578 
 1229      63657074 
 1229      696F6E20 
 1230 0096 0000     		.align 8
 1231              	.LC8:
 1232 0098 556E6861 		.string	"Unhandled exception in CHECK_EQUAL(2, nibble)"
 1232      6E646C65 
 1232      64206578 
 1232      63657074 
 1232      696F6E20 
 1233 00c6 0000     		.align 8
 1234              	.LC9:
 1235 00c8 556E6861 		.string	"Unhandled exception in CHECK_EQUAL(3, nibble)"
 1235      6E646C65 
 1235      64206578 
 1235      63657074 
 1235      696F6E20 
 1236 00f6 0000     		.align 8
 1237              	.LC10:
 1238 00f8 556E6861 		.string	"Unhandled exception in CHECK_EQUAL(4, nibble)"
 1238      6E646C65 
 1238      64206578 
 1238      63657074 
 1238      696F6E20 
 1239 0126 0000     		.align 8
 1240              	.LC11:
 1241 0128 556E6861 		.string	"Unhandled exception in CHECK_EQUAL(5, nibble)"
 1241      6E646C65 
 1241      64206578 
 1241      63657074 
 1241      696F6E20 
 1242 0156 0000     		.align 8
 1243              	.LC12:
 1244 0158 556E6861 		.string	"Unhandled exception in CHECK_EQUAL(6, nibble)"
 1244      6E646C65 
 1244      64206578 
 1244      63657074 
 1244      696F6E20 
 1245 0186 0000     		.align 8
 1246              	.LC13:
 1247 0188 556E6861 		.string	"Unhandled exception in CHECK_EQUAL(7, nibble)"
 1247      6E646C65 
 1247      64206578 
 1247      63657074 
 1247      696F6E20 
 1248 01b6 0000     		.align 8
 1249              	.LC14:
 1250 01b8 556E6861 		.string	"Unhandled exception in CHECK_EQUAL(8, nibble)"
 1250      6E646C65 
 1250      64206578 
 1250      63657074 
 1250      696F6E20 
 1251 01e6 0000     		.align 8
 1252              	.LC15:
 1253 01e8 556E6861 		.string	"Unhandled exception in CHECK_EQUAL(9, nibble)"
 1253      6E646C65 
 1253      64206578 
 1253      63657074 
 1253      696F6E20 
 1254 0216 0000     		.align 8
 1255              	.LC16:
 1256 0218 556E6861 		.string	"Unhandled exception in CHECK_EQUAL(10, nibble)"
 1256      6E646C65 
 1256      64206578 
 1256      63657074 
 1256      696F6E20 
 1257 0247 00       		.align 8
 1258              	.LC17:
 1259 0248 556E6861 		.string	"Unhandled exception in CHECK_EQUAL(11, nibble)"
 1259      6E646C65 
 1259      64206578 
 1259      63657074 
 1259      696F6E20 
 1260 0277 00       		.align 8
 1261              	.LC18:
 1262 0278 556E6861 		.string	"Unhandled exception in CHECK_EQUAL(12, nibble)"
 1262      6E646C65 
 1262      64206578 
 1262      63657074 
 1262      696F6E20 
 1263 02a7 00       		.align 8
 1264              	.LC19:
 1265 02a8 556E6861 		.string	"Unhandled exception in CHECK_EQUAL(13, nibble)"
 1265      6E646C65 
 1265      64206578 
 1265      63657074 
 1265      696F6E20 
 1266 02d7 00       		.align 8
 1267              	.LC20:
 1268 02d8 556E6861 		.string	"Unhandled exception in CHECK_EQUAL(14, nibble)"
 1268      6E646C65 
 1268      64206578 
 1268      63657074 
 1268      696F6E20 
 1269 0307 00       		.align 8
 1270              	.LC21:
 1271 0308 556E6861 		.string	"Unhandled exception in CHECK_EQUAL(15, nibble)"
 1271      6E646C65 
 1271      64206578 
 1271      63657074 
 1271      696F6E20 
 1272 0337 00       		.align 8
 1273              	.LC22:
 1274 0338 556E6861 		.string	"Unhandled exception in CHECK_EQUAL(true, status)"
 1274      6E646C65 
 1274      64206578 
 1274      63657074 
 1274      696F6E20 
 1275              		.section	.text.unlikely,"ax",@progbits
 1276              		.align 2
 1277              	.LCOLDB23:
 1278              		.text
 1279              	.LHOTB23:
 1280              		.align 2
 1281              		.p2align 4
 1282              		.globl	_ZNK25TestConv_testGetHexNibble7RunImplEv
 1284              	_ZNK25TestConv_testGetHexNibble7RunImplEv:
 1285              	.LFB1188:
 1286              		.cfi_startproc
 1287              		.cfi_personality 0x9b,DW.ref.__gxx_personality_v0
 1288              		.cfi_lsda 0x1b,.LLSDA1188
 1289 0000 F30F1EFA 		endbr64
 1290 0004 4155     		pushq	%r13
 1291              		.cfi_def_cfa_offset 16
 1292              		.cfi_offset 13, -16
 1293 0006 BF300000 		movl	$48, %edi
 1293      00
 1294 000b 4154     		pushq	%r12
 1295              		.cfi_def_cfa_offset 24
 1296              		.cfi_offset 12, -24
 1297 000d 55       		pushq	%rbp
 1298              		.cfi_def_cfa_offset 32
 1299              		.cfi_offset 6, -32
 1300 000e 4883EC40 		subq	$64, %rsp
 1301              		.cfi_def_cfa_offset 96
 1302 0012 64488B04 		movq	%fs:40, %rax
 1302      25280000 
 1302      00
 1303 001b 48894424 		movq	%rax, 56(%rsp)
 1303      38
 1304 0020 31C0     		xorl	%eax, %eax
 1305 0022 4C8D6424 		leaq	10(%rsp), %r12
 1305      0A
 1306 0027 4C89E6   		movq	%r12, %rsi
 1307              	.LEHB24:
 1308 002a E8000000 		call	getHexNibble@PLT
 1308      00
 1309              	.LEHE24:
 1310 002f 8844240B 		movb	%al, 11(%rsp)
 1311              	.LEHB25:
 1312 0033 E8000000 		call	_ZN8UnitTest11CurrentTest7DetailsEv@PLT
 1312      00
 1313 0038 488D6C24 		leaq	16(%rsp), %rbp
 1313      10
 1314 003d 488B30   		movq	(%rax), %rsi
 1315 0040 BA180000 		movl	$24, %edx
 1315      00
 1316 0045 4889EF   		movq	%rbp, %rdi
 1317 0048 E8000000 		call	_ZN8UnitTest11TestDetailsC1ERKS0_i@PLT
 1317      00
 1318 004d C644240C 		movb	$0, 12(%rsp)
 1318      00
 1319 0052 E8000000 		call	_ZN8UnitTest11CurrentTest7ResultsEv@PLT
 1319      00
 1320 0057 488B38   		movq	(%rax), %rdi
 1321 005a 488D5424 		leaq	11(%rsp), %rdx
 1321      0B
 1322 005f 488D7424 		leaq	12(%rsp), %rsi
 1322      0C
 1323 0064 4889E9   		movq	%rbp, %rcx
 1324 0067 E8000000 		call	_ZN8UnitTest10CheckEqualIbbEEvRNS_11TestResultsERKT_RKT0_RKNS_11TestDetailsE
 1324      00
 1325              	.LEHE25:
 1326              	.L86:
 1327              	.LEHB26:
 1328 006c E8000000 		call	_ZN8UnitTest11CurrentTest7DetailsEv@PLT
 1328      00
 1329 0071 488B30   		movq	(%rax), %rsi
 1330 0074 BA190000 		movl	$25, %edx
 1330      00
 1331 0079 4889EF   		movq	%rbp, %rdi
 1332 007c E8000000 		call	_ZN8UnitTest11TestDetailsC1ERKS0_i@PLT
 1332      00
 1333 0081 C744240C 		movl	$0, 12(%rsp)
 1333      00000000 
 1334 0089 E8000000 		call	_ZN8UnitTest11CurrentTest7ResultsEv@PLT
 1334      00
 1335 008e 488B38   		movq	(%rax), %rdi
 1336 0091 488D7424 		leaq	12(%rsp), %rsi
 1336      0C
 1337 0096 4889E9   		movq	%rbp, %rcx
 1338 0099 4C89E2   		movq	%r12, %rdx
 1339 009c E8000000 		call	_ZN8UnitTest10CheckEqualIihEEvRNS_11TestResultsERKT_RKT0_RKNS_11TestDetailsE
 1339      00
 1340              	.LEHE26:
 1341              	.L89:
 1342 00a1 4C89E6   		movq	%r12, %rsi
 1343 00a4 BF310000 		movl	$49, %edi
 1343      00
 1344              	.LEHB27:
 1345 00a9 E8000000 		call	getHexNibble@PLT
 1345      00
 1346              	.LEHE27:
 1347 00ae 8844240B 		movb	%al, 11(%rsp)
 1348              	.LEHB28:
 1349 00b2 E8000000 		call	_ZN8UnitTest11CurrentTest7DetailsEv@PLT
 1349      00
 1350 00b7 488B30   		movq	(%rax), %rsi
 1351 00ba BA1B0000 		movl	$27, %edx
 1351      00
 1352 00bf 4889EF   		movq	%rbp, %rdi
 1353 00c2 E8000000 		call	_ZN8UnitTest11TestDetailsC1ERKS0_i@PLT
 1353      00
 1354 00c7 C644240C 		movb	$0, 12(%rsp)
 1354      00
 1355 00cc E8000000 		call	_ZN8UnitTest11CurrentTest7ResultsEv@PLT
 1355      00
 1356 00d1 488B38   		movq	(%rax), %rdi
 1357 00d4 488D5424 		leaq	11(%rsp), %rdx
 1357      0B
 1358 00d9 488D7424 		leaq	12(%rsp), %rsi
 1358      0C
 1359 00de 4889E9   		movq	%rbp, %rcx
 1360 00e1 E8000000 		call	_ZN8UnitTest10CheckEqualIbbEEvRNS_11TestResultsERKT_RKT0_RKNS_11TestDetailsE
 1360      00
 1361              	.LEHE28:
 1362              	.L92:
 1363              	.LEHB29:
 1364 00e6 E8000000 		call	_ZN8UnitTest11CurrentTest7DetailsEv@PLT
 1364      00
 1365 00eb 488B30   		movq	(%rax), %rsi
 1366 00ee BA1C0000 		movl	$28, %edx
 1366      00
 1367 00f3 4889EF   		movq	%rbp, %rdi
 1368 00f6 E8000000 		call	_ZN8UnitTest11TestDetailsC1ERKS0_i@PLT
 1368      00
 1369 00fb C744240C 		movl	$1, 12(%rsp)
 1369      01000000 
 1370 0103 E8000000 		call	_ZN8UnitTest11CurrentTest7ResultsEv@PLT
 1370      00
 1371 0108 488B38   		movq	(%rax), %rdi
 1372 010b 488D7424 		leaq	12(%rsp), %rsi
 1372      0C
 1373 0110 4889E9   		movq	%rbp, %rcx
 1374 0113 4C89E2   		movq	%r12, %rdx
 1375 0116 E8000000 		call	_ZN8UnitTest10CheckEqualIihEEvRNS_11TestResultsERKT_RKT0_RKNS_11TestDetailsE
 1375      00
 1376              	.LEHE29:
 1377              	.L95:
 1378 011b 4C89E6   		movq	%r12, %rsi
 1379 011e BF320000 		movl	$50, %edi
 1379      00
 1380              	.LEHB30:
 1381 0123 E8000000 		call	getHexNibble@PLT
 1381      00
 1382              	.LEHE30:
 1383 0128 8844240B 		movb	%al, 11(%rsp)
 1384              	.LEHB31:
 1385 012c E8000000 		call	_ZN8UnitTest11CurrentTest7DetailsEv@PLT
 1385      00
 1386 0131 488B30   		movq	(%rax), %rsi
 1387 0134 BA1E0000 		movl	$30, %edx
 1387      00
 1388 0139 4889EF   		movq	%rbp, %rdi
 1389 013c E8000000 		call	_ZN8UnitTest11TestDetailsC1ERKS0_i@PLT
 1389      00
 1390 0141 C644240C 		movb	$0, 12(%rsp)
 1390      00
 1391 0146 E8000000 		call	_ZN8UnitTest11CurrentTest7ResultsEv@PLT
 1391      00
 1392 014b 488B38   		movq	(%rax), %rdi
 1393 014e 488D5424 		leaq	11(%rsp), %rdx
 1393      0B
 1394 0153 488D7424 		leaq	12(%rsp), %rsi
 1394      0C
 1395 0158 4889E9   		movq	%rbp, %rcx
 1396 015b E8000000 		call	_ZN8UnitTest10CheckEqualIbbEEvRNS_11TestResultsERKT_RKT0_RKNS_11TestDetailsE
 1396      00
 1397              	.LEHE31:
 1398              	.L98:
 1399              	.LEHB32:
 1400 0160 E8000000 		call	_ZN8UnitTest11CurrentTest7DetailsEv@PLT
 1400      00
 1401 0165 488B30   		movq	(%rax), %rsi
 1402 0168 BA1F0000 		movl	$31, %edx
 1402      00
 1403 016d 4889EF   		movq	%rbp, %rdi
 1404 0170 E8000000 		call	_ZN8UnitTest11TestDetailsC1ERKS0_i@PLT
 1404      00
 1405 0175 C744240C 		movl	$2, 12(%rsp)
 1405      02000000 
 1406 017d E8000000 		call	_ZN8UnitTest11CurrentTest7ResultsEv@PLT
 1406      00
 1407 0182 488B38   		movq	(%rax), %rdi
 1408 0185 488D7424 		leaq	12(%rsp), %rsi
 1408      0C
 1409 018a 4889E9   		movq	%rbp, %rcx
 1410 018d 4C89E2   		movq	%r12, %rdx
 1411 0190 E8000000 		call	_ZN8UnitTest10CheckEqualIihEEvRNS_11TestResultsERKT_RKT0_RKNS_11TestDetailsE
 1411      00
 1412              	.LEHE32:
 1413              	.L101:
 1414 0195 4C89E6   		movq	%r12, %rsi
 1415 0198 BF330000 		movl	$51, %edi
 1415      00
 1416              	.LEHB33:
 1417 019d E8000000 		call	getHexNibble@PLT
 1417      00
 1418              	.LEHE33:
 1419 01a2 8844240B 		movb	%al, 11(%rsp)
 1420              	.LEHB34:
 1421 01a6 E8000000 		call	_ZN8UnitTest11CurrentTest7DetailsEv@PLT
 1421      00
 1422 01ab 488B30   		movq	(%rax), %rsi
 1423 01ae BA210000 		movl	$33, %edx
 1423      00
 1424 01b3 4889EF   		movq	%rbp, %rdi
 1425 01b6 E8000000 		call	_ZN8UnitTest11TestDetailsC1ERKS0_i@PLT
 1425      00
 1426 01bb C644240C 		movb	$0, 12(%rsp)
 1426      00
 1427 01c0 E8000000 		call	_ZN8UnitTest11CurrentTest7ResultsEv@PLT
 1427      00
 1428 01c5 488B38   		movq	(%rax), %rdi
 1429 01c8 488D5424 		leaq	11(%rsp), %rdx
 1429      0B
 1430 01cd 488D7424 		leaq	12(%rsp), %rsi
 1430      0C
 1431 01d2 4889E9   		movq	%rbp, %rcx
 1432 01d5 E8000000 		call	_ZN8UnitTest10CheckEqualIbbEEvRNS_11TestResultsERKT_RKT0_RKNS_11TestDetailsE
 1432      00
 1433              	.LEHE34:
 1434              	.L104:
 1435              	.LEHB35:
 1436 01da E8000000 		call	_ZN8UnitTest11CurrentTest7DetailsEv@PLT
 1436      00
 1437 01df 488B30   		movq	(%rax), %rsi
 1438 01e2 BA220000 		movl	$34, %edx
 1438      00
 1439 01e7 4889EF   		movq	%rbp, %rdi
 1440 01ea E8000000 		call	_ZN8UnitTest11TestDetailsC1ERKS0_i@PLT
 1440      00
 1441 01ef C744240C 		movl	$3, 12(%rsp)
 1441      03000000 
 1442 01f7 E8000000 		call	_ZN8UnitTest11CurrentTest7ResultsEv@PLT
 1442      00
 1443 01fc 488B38   		movq	(%rax), %rdi
 1444 01ff 488D7424 		leaq	12(%rsp), %rsi
 1444      0C
 1445 0204 4889E9   		movq	%rbp, %rcx
 1446 0207 4C89E2   		movq	%r12, %rdx
 1447 020a E8000000 		call	_ZN8UnitTest10CheckEqualIihEEvRNS_11TestResultsERKT_RKT0_RKNS_11TestDetailsE
 1447      00
 1448              	.LEHE35:
 1449              	.L107:
 1450 020f 4C89E6   		movq	%r12, %rsi
 1451 0212 BF340000 		movl	$52, %edi
 1451      00
 1452              	.LEHB36:
 1453 0217 E8000000 		call	getHexNibble@PLT
 1453      00
 1454              	.LEHE36:
 1455 021c 8844240B 		movb	%al, 11(%rsp)
 1456              	.LEHB37:
 1457 0220 E8000000 		call	_ZN8UnitTest11CurrentTest7DetailsEv@PLT
 1457      00
 1458 0225 488B30   		movq	(%rax), %rsi
 1459 0228 BA240000 		movl	$36, %edx
 1459      00
 1460 022d 4889EF   		movq	%rbp, %rdi
 1461 0230 E8000000 		call	_ZN8UnitTest11TestDetailsC1ERKS0_i@PLT
 1461      00
 1462 0235 C644240C 		movb	$0, 12(%rsp)
 1462      00
 1463 023a E8000000 		call	_ZN8UnitTest11CurrentTest7ResultsEv@PLT
 1463      00
 1464 023f 488B38   		movq	(%rax), %rdi
 1465 0242 488D5424 		leaq	11(%rsp), %rdx
 1465      0B
 1466 0247 488D7424 		leaq	12(%rsp), %rsi
 1466      0C
 1467 024c 4889E9   		movq	%rbp, %rcx
 1468 024f E8000000 		call	_ZN8UnitTest10CheckEqualIbbEEvRNS_11TestResultsERKT_RKT0_RKNS_11TestDetailsE
 1468      00
 1469              	.LEHE37:
 1470              	.L110:
 1471              	.LEHB38:
 1472 0254 E8000000 		call	_ZN8UnitTest11CurrentTest7DetailsEv@PLT
 1472      00
 1473 0259 488B30   		movq	(%rax), %rsi
 1474 025c BA250000 		movl	$37, %edx
 1474      00
 1475 0261 4889EF   		movq	%rbp, %rdi
 1476 0264 E8000000 		call	_ZN8UnitTest11TestDetailsC1ERKS0_i@PLT
 1476      00
 1477 0269 C744240C 		movl	$4, 12(%rsp)
 1477      04000000 
 1478 0271 E8000000 		call	_ZN8UnitTest11CurrentTest7ResultsEv@PLT
 1478      00
 1479 0276 488B38   		movq	(%rax), %rdi
 1480 0279 488D7424 		leaq	12(%rsp), %rsi
 1480      0C
 1481 027e 4889E9   		movq	%rbp, %rcx
 1482 0281 4C89E2   		movq	%r12, %rdx
 1483 0284 E8000000 		call	_ZN8UnitTest10CheckEqualIihEEvRNS_11TestResultsERKT_RKT0_RKNS_11TestDetailsE
 1483      00
 1484              	.LEHE38:
 1485              	.L113:
 1486 0289 4C89E6   		movq	%r12, %rsi
 1487 028c BF350000 		movl	$53, %edi
 1487      00
 1488              	.LEHB39:
 1489 0291 E8000000 		call	getHexNibble@PLT
 1489      00
 1490              	.LEHE39:
 1491 0296 8844240B 		movb	%al, 11(%rsp)
 1492              	.LEHB40:
 1493 029a E8000000 		call	_ZN8UnitTest11CurrentTest7DetailsEv@PLT
 1493      00
 1494 029f 488B30   		movq	(%rax), %rsi
 1495 02a2 BA270000 		movl	$39, %edx
 1495      00
 1496 02a7 4889EF   		movq	%rbp, %rdi
 1497 02aa E8000000 		call	_ZN8UnitTest11TestDetailsC1ERKS0_i@PLT
 1497      00
 1498 02af C644240C 		movb	$0, 12(%rsp)
 1498      00
 1499 02b4 E8000000 		call	_ZN8UnitTest11CurrentTest7ResultsEv@PLT
 1499      00
 1500 02b9 488B38   		movq	(%rax), %rdi
 1501 02bc 488D5424 		leaq	11(%rsp), %rdx
 1501      0B
 1502 02c1 488D7424 		leaq	12(%rsp), %rsi
 1502      0C
 1503 02c6 4889E9   		movq	%rbp, %rcx
 1504 02c9 E8000000 		call	_ZN8UnitTest10CheckEqualIbbEEvRNS_11TestResultsERKT_RKT0_RKNS_11TestDetailsE
 1504      00
 1505              	.LEHE40:
 1506              	.L116:
 1507              	.LEHB41:
 1508 02ce E8000000 		call	_ZN8UnitTest11CurrentTest7DetailsEv@PLT
 1508      00
 1509 02d3 488B30   		movq	(%rax), %rsi
 1510 02d6 BA280000 		movl	$40, %edx
 1510      00
 1511 02db 4889EF   		movq	%rbp, %rdi
 1512 02de E8000000 		call	_ZN8UnitTest11TestDetailsC1ERKS0_i@PLT
 1512      00
 1513 02e3 C744240C 		movl	$5, 12(%rsp)
 1513      05000000 
 1514 02eb E8000000 		call	_ZN8UnitTest11CurrentTest7ResultsEv@PLT
 1514      00
 1515 02f0 488B38   		movq	(%rax), %rdi
 1516 02f3 488D7424 		leaq	12(%rsp), %rsi
 1516      0C
 1517 02f8 4889E9   		movq	%rbp, %rcx
 1518 02fb 4C89E2   		movq	%r12, %rdx
 1519 02fe E8000000 		call	_ZN8UnitTest10CheckEqualIihEEvRNS_11TestResultsERKT_RKT0_RKNS_11TestDetailsE
 1519      00
 1520              	.LEHE41:
 1521              	.L119:
 1522 0303 4C89E6   		movq	%r12, %rsi
 1523 0306 BF360000 		movl	$54, %edi
 1523      00
 1524              	.LEHB42:
 1525 030b E8000000 		call	getHexNibble@PLT
 1525      00
 1526              	.LEHE42:
 1527 0310 8844240B 		movb	%al, 11(%rsp)
 1528              	.LEHB43:
 1529 0314 E8000000 		call	_ZN8UnitTest11CurrentTest7DetailsEv@PLT
 1529      00
 1530 0319 488B30   		movq	(%rax), %rsi
 1531 031c BA2A0000 		movl	$42, %edx
 1531      00
 1532 0321 4889EF   		movq	%rbp, %rdi
 1533 0324 E8000000 		call	_ZN8UnitTest11TestDetailsC1ERKS0_i@PLT
 1533      00
 1534 0329 C644240C 		movb	$0, 12(%rsp)
 1534      00
 1535 032e E8000000 		call	_ZN8UnitTest11CurrentTest7ResultsEv@PLT
 1535      00
 1536 0333 488B38   		movq	(%rax), %rdi
 1537 0336 488D5424 		leaq	11(%rsp), %rdx
 1537      0B
 1538 033b 488D7424 		leaq	12(%rsp), %rsi
 1538      0C
 1539 0340 4889E9   		movq	%rbp, %rcx
 1540 0343 E8000000 		call	_ZN8UnitTest10CheckEqualIbbEEvRNS_11TestResultsERKT_RKT0_RKNS_11TestDetailsE
 1540      00
 1541              	.LEHE43:
 1542              	.L122:
 1543              	.LEHB44:
 1544 0348 E8000000 		call	_ZN8UnitTest11CurrentTest7DetailsEv@PLT
 1544      00
 1545 034d 488B30   		movq	(%rax), %rsi
 1546 0350 BA2B0000 		movl	$43, %edx
 1546      00
 1547 0355 4889EF   		movq	%rbp, %rdi
 1548 0358 E8000000 		call	_ZN8UnitTest11TestDetailsC1ERKS0_i@PLT
 1548      00
 1549 035d C744240C 		movl	$6, 12(%rsp)
 1549      06000000 
 1550 0365 E8000000 		call	_ZN8UnitTest11CurrentTest7ResultsEv@PLT
 1550      00
 1551 036a 488B38   		movq	(%rax), %rdi
 1552 036d 488D7424 		leaq	12(%rsp), %rsi
 1552      0C
 1553 0372 4889E9   		movq	%rbp, %rcx
 1554 0375 4C89E2   		movq	%r12, %rdx
 1555 0378 E8000000 		call	_ZN8UnitTest10CheckEqualIihEEvRNS_11TestResultsERKT_RKT0_RKNS_11TestDetailsE
 1555      00
 1556              	.LEHE44:
 1557              	.L125:
 1558 037d 4C89E6   		movq	%r12, %rsi
 1559 0380 BF370000 		movl	$55, %edi
 1559      00
 1560              	.LEHB45:
 1561 0385 E8000000 		call	getHexNibble@PLT
 1561      00
 1562              	.LEHE45:
 1563 038a 8844240B 		movb	%al, 11(%rsp)
 1564              	.LEHB46:
 1565 038e E8000000 		call	_ZN8UnitTest11CurrentTest7DetailsEv@PLT
 1565      00
 1566 0393 488B30   		movq	(%rax), %rsi
 1567 0396 BA2D0000 		movl	$45, %edx
 1567      00
 1568 039b 4889EF   		movq	%rbp, %rdi
 1569 039e E8000000 		call	_ZN8UnitTest11TestDetailsC1ERKS0_i@PLT
 1569      00
 1570 03a3 C644240C 		movb	$0, 12(%rsp)
 1570      00
 1571 03a8 E8000000 		call	_ZN8UnitTest11CurrentTest7ResultsEv@PLT
 1571      00
 1572 03ad 488B38   		movq	(%rax), %rdi
 1573 03b0 488D5424 		leaq	11(%rsp), %rdx
 1573      0B
 1574 03b5 488D7424 		leaq	12(%rsp), %rsi
 1574      0C
 1575 03ba 4889E9   		movq	%rbp, %rcx
 1576 03bd E8000000 		call	_ZN8UnitTest10CheckEqualIbbEEvRNS_11TestResultsERKT_RKT0_RKNS_11TestDetailsE
 1576      00
 1577              	.LEHE46:
 1578              	.L128:
 1579              	.LEHB47:
 1580 03c2 E8000000 		call	_ZN8UnitTest11CurrentTest7DetailsEv@PLT
 1580      00
 1581 03c7 488B30   		movq	(%rax), %rsi
 1582 03ca BA2E0000 		movl	$46, %edx
 1582      00
 1583 03cf 4889EF   		movq	%rbp, %rdi
 1584 03d2 E8000000 		call	_ZN8UnitTest11TestDetailsC1ERKS0_i@PLT
 1584      00
 1585 03d7 C744240C 		movl	$7, 12(%rsp)
 1585      07000000 
 1586 03df E8000000 		call	_ZN8UnitTest11CurrentTest7ResultsEv@PLT
 1586      00
 1587 03e4 488B38   		movq	(%rax), %rdi
 1588 03e7 488D7424 		leaq	12(%rsp), %rsi
 1588      0C
 1589 03ec 4889E9   		movq	%rbp, %rcx
 1590 03ef 4C89E2   		movq	%r12, %rdx
 1591 03f2 E8000000 		call	_ZN8UnitTest10CheckEqualIihEEvRNS_11TestResultsERKT_RKT0_RKNS_11TestDetailsE
 1591      00
 1592              	.LEHE47:
 1593              	.L131:
 1594 03f7 4C89E6   		movq	%r12, %rsi
 1595 03fa BF380000 		movl	$56, %edi
 1595      00
 1596              	.LEHB48:
 1597 03ff E8000000 		call	getHexNibble@PLT
 1597      00
 1598              	.LEHE48:
 1599 0404 8844240B 		movb	%al, 11(%rsp)
 1600              	.LEHB49:
 1601 0408 E8000000 		call	_ZN8UnitTest11CurrentTest7DetailsEv@PLT
 1601      00
 1602 040d 488B30   		movq	(%rax), %rsi
 1603 0410 BA300000 		movl	$48, %edx
 1603      00
 1604 0415 4889EF   		movq	%rbp, %rdi
 1605 0418 E8000000 		call	_ZN8UnitTest11TestDetailsC1ERKS0_i@PLT
 1605      00
 1606 041d C644240C 		movb	$0, 12(%rsp)
 1606      00
 1607 0422 E8000000 		call	_ZN8UnitTest11CurrentTest7ResultsEv@PLT
 1607      00
 1608 0427 488B38   		movq	(%rax), %rdi
 1609 042a 488D5424 		leaq	11(%rsp), %rdx
 1609      0B
 1610 042f 488D7424 		leaq	12(%rsp), %rsi
 1610      0C
 1611 0434 4889E9   		movq	%rbp, %rcx
 1612 0437 E8000000 		call	_ZN8UnitTest10CheckEqualIbbEEvRNS_11TestResultsERKT_RKT0_RKNS_11TestDetailsE
 1612      00
 1613              	.LEHE49:
 1614              	.L134:
 1615              	.LEHB50:
 1616 043c E8000000 		call	_ZN8UnitTest11CurrentTest7DetailsEv@PLT
 1616      00
 1617 0441 488B30   		movq	(%rax), %rsi
 1618 0444 BA310000 		movl	$49, %edx
 1618      00
 1619 0449 4889EF   		movq	%rbp, %rdi
 1620 044c E8000000 		call	_ZN8UnitTest11TestDetailsC1ERKS0_i@PLT
 1620      00
 1621 0451 C744240C 		movl	$8, 12(%rsp)
 1621      08000000 
 1622 0459 E8000000 		call	_ZN8UnitTest11CurrentTest7ResultsEv@PLT
 1622      00
 1623 045e 488B38   		movq	(%rax), %rdi
 1624 0461 488D7424 		leaq	12(%rsp), %rsi
 1624      0C
 1625 0466 4889E9   		movq	%rbp, %rcx
 1626 0469 4C89E2   		movq	%r12, %rdx
 1627 046c E8000000 		call	_ZN8UnitTest10CheckEqualIihEEvRNS_11TestResultsERKT_RKT0_RKNS_11TestDetailsE
 1627      00
 1628              	.LEHE50:
 1629              	.L137:
 1630 0471 4C89E6   		movq	%r12, %rsi
 1631 0474 BF390000 		movl	$57, %edi
 1631      00
 1632              	.LEHB51:
 1633 0479 E8000000 		call	getHexNibble@PLT
 1633      00
 1634              	.LEHE51:
 1635 047e 8844240B 		movb	%al, 11(%rsp)
 1636              	.LEHB52:
 1637 0482 E8000000 		call	_ZN8UnitTest11CurrentTest7DetailsEv@PLT
 1637      00
 1638 0487 488B30   		movq	(%rax), %rsi
 1639 048a BA330000 		movl	$51, %edx
 1639      00
 1640 048f 4889EF   		movq	%rbp, %rdi
 1641 0492 E8000000 		call	_ZN8UnitTest11TestDetailsC1ERKS0_i@PLT
 1641      00
 1642 0497 C644240C 		movb	$0, 12(%rsp)
 1642      00
 1643 049c E8000000 		call	_ZN8UnitTest11CurrentTest7ResultsEv@PLT
 1643      00
 1644 04a1 488B38   		movq	(%rax), %rdi
 1645 04a4 488D5424 		leaq	11(%rsp), %rdx
 1645      0B
 1646 04a9 488D7424 		leaq	12(%rsp), %rsi
 1646      0C
 1647 04ae 4889E9   		movq	%rbp, %rcx
 1648 04b1 E8000000 		call	_ZN8UnitTest10CheckEqualIbbEEvRNS_11TestResultsERKT_RKT0_RKNS_11TestDetailsE
 1648      00
 1649              	.LEHE52:
 1650              	.L140:
 1651              	.LEHB53:
 1652 04b6 E8000000 		call	_ZN8UnitTest11CurrentTest7DetailsEv@PLT
 1652      00
 1653 04bb 488B30   		movq	(%rax), %rsi
 1654 04be BA340000 		movl	$52, %edx
 1654      00
 1655 04c3 4889EF   		movq	%rbp, %rdi
 1656 04c6 E8000000 		call	_ZN8UnitTest11TestDetailsC1ERKS0_i@PLT
 1656      00
 1657 04cb C744240C 		movl	$9, 12(%rsp)
 1657      09000000 
 1658 04d3 E8000000 		call	_ZN8UnitTest11CurrentTest7ResultsEv@PLT
 1658      00
 1659 04d8 488B38   		movq	(%rax), %rdi
 1660 04db 488D7424 		leaq	12(%rsp), %rsi
 1660      0C
 1661 04e0 4889E9   		movq	%rbp, %rcx
 1662 04e3 4C89E2   		movq	%r12, %rdx
 1663 04e6 E8000000 		call	_ZN8UnitTest10CheckEqualIihEEvRNS_11TestResultsERKT_RKT0_RKNS_11TestDetailsE
 1663      00
 1664              	.LEHE53:
 1665              	.L143:
 1666 04eb 4C89E6   		movq	%r12, %rsi
 1667 04ee BF410000 		movl	$65, %edi
 1667      00
 1668              	.LEHB54:
 1669 04f3 E8000000 		call	getHexNibble@PLT
 1669      00
 1670              	.LEHE54:
 1671 04f8 8844240B 		movb	%al, 11(%rsp)
 1672              	.LEHB55:
 1673 04fc E8000000 		call	_ZN8UnitTest11CurrentTest7DetailsEv@PLT
 1673      00
 1674 0501 488B30   		movq	(%rax), %rsi
 1675 0504 BA360000 		movl	$54, %edx
 1675      00
 1676 0509 4889EF   		movq	%rbp, %rdi
 1677 050c E8000000 		call	_ZN8UnitTest11TestDetailsC1ERKS0_i@PLT
 1677      00
 1678 0511 C644240C 		movb	$0, 12(%rsp)
 1678      00
 1679 0516 E8000000 		call	_ZN8UnitTest11CurrentTest7ResultsEv@PLT
 1679      00
 1680 051b 488B38   		movq	(%rax), %rdi
 1681 051e 488D5424 		leaq	11(%rsp), %rdx
 1681      0B
 1682 0523 488D7424 		leaq	12(%rsp), %rsi
 1682      0C
 1683 0528 4889E9   		movq	%rbp, %rcx
 1684 052b E8000000 		call	_ZN8UnitTest10CheckEqualIbbEEvRNS_11TestResultsERKT_RKT0_RKNS_11TestDetailsE
 1684      00
 1685              	.LEHE55:
 1686              	.L146:
 1687              	.LEHB56:
 1688 0530 E8000000 		call	_ZN8UnitTest11CurrentTest7DetailsEv@PLT
 1688      00
 1689 0535 488B30   		movq	(%rax), %rsi
 1690 0538 BA370000 		movl	$55, %edx
 1690      00
 1691 053d 4889EF   		movq	%rbp, %rdi
 1692 0540 E8000000 		call	_ZN8UnitTest11TestDetailsC1ERKS0_i@PLT
 1692      00
 1693 0545 C744240C 		movl	$10, 12(%rsp)
 1693      0A000000 
 1694 054d E8000000 		call	_ZN8UnitTest11CurrentTest7ResultsEv@PLT
 1694      00
 1695 0552 488B38   		movq	(%rax), %rdi
 1696 0555 488D7424 		leaq	12(%rsp), %rsi
 1696      0C
 1697 055a 4889E9   		movq	%rbp, %rcx
 1698 055d 4C89E2   		movq	%r12, %rdx
 1699 0560 E8000000 		call	_ZN8UnitTest10CheckEqualIihEEvRNS_11TestResultsERKT_RKT0_RKNS_11TestDetailsE
 1699      00
 1700              	.LEHE56:
 1701              	.L149:
 1702 0565 4C89E6   		movq	%r12, %rsi
 1703 0568 BF420000 		movl	$66, %edi
 1703      00
 1704              	.LEHB57:
 1705 056d E8000000 		call	getHexNibble@PLT
 1705      00
 1706              	.LEHE57:
 1707 0572 8844240B 		movb	%al, 11(%rsp)
 1708              	.LEHB58:
 1709 0576 E8000000 		call	_ZN8UnitTest11CurrentTest7DetailsEv@PLT
 1709      00
 1710 057b 488B30   		movq	(%rax), %rsi
 1711 057e BA390000 		movl	$57, %edx
 1711      00
 1712 0583 4889EF   		movq	%rbp, %rdi
 1713 0586 E8000000 		call	_ZN8UnitTest11TestDetailsC1ERKS0_i@PLT
 1713      00
 1714 058b C644240C 		movb	$0, 12(%rsp)
 1714      00
 1715 0590 E8000000 		call	_ZN8UnitTest11CurrentTest7ResultsEv@PLT
 1715      00
 1716 0595 488B38   		movq	(%rax), %rdi
 1717 0598 488D5424 		leaq	11(%rsp), %rdx
 1717      0B
 1718 059d 488D7424 		leaq	12(%rsp), %rsi
 1718      0C
 1719 05a2 4889E9   		movq	%rbp, %rcx
 1720 05a5 E8000000 		call	_ZN8UnitTest10CheckEqualIbbEEvRNS_11TestResultsERKT_RKT0_RKNS_11TestDetailsE
 1720      00
 1721              	.LEHE58:
 1722              	.L152:
 1723              	.LEHB59:
 1724 05aa E8000000 		call	_ZN8UnitTest11CurrentTest7DetailsEv@PLT
 1724      00
 1725 05af 488B30   		movq	(%rax), %rsi
 1726 05b2 BA3A0000 		movl	$58, %edx
 1726      00
 1727 05b7 4889EF   		movq	%rbp, %rdi
 1728 05ba E8000000 		call	_ZN8UnitTest11TestDetailsC1ERKS0_i@PLT
 1728      00
 1729 05bf C744240C 		movl	$11, 12(%rsp)
 1729      0B000000 
 1730 05c7 E8000000 		call	_ZN8UnitTest11CurrentTest7ResultsEv@PLT
 1730      00
 1731 05cc 488B38   		movq	(%rax), %rdi
 1732 05cf 488D7424 		leaq	12(%rsp), %rsi
 1732      0C
 1733 05d4 4889E9   		movq	%rbp, %rcx
 1734 05d7 4C89E2   		movq	%r12, %rdx
 1735 05da E8000000 		call	_ZN8UnitTest10CheckEqualIihEEvRNS_11TestResultsERKT_RKT0_RKNS_11TestDetailsE
 1735      00
 1736              	.LEHE59:
 1737              	.L155:
 1738 05df 4C89E6   		movq	%r12, %rsi
 1739 05e2 BF430000 		movl	$67, %edi
 1739      00
 1740              	.LEHB60:
 1741 05e7 E8000000 		call	getHexNibble@PLT
 1741      00
 1742              	.LEHE60:
 1743 05ec 8844240B 		movb	%al, 11(%rsp)
 1744              	.LEHB61:
 1745 05f0 E8000000 		call	_ZN8UnitTest11CurrentTest7DetailsEv@PLT
 1745      00
 1746 05f5 488B30   		movq	(%rax), %rsi
 1747 05f8 BA3C0000 		movl	$60, %edx
 1747      00
 1748 05fd 4889EF   		movq	%rbp, %rdi
 1749 0600 E8000000 		call	_ZN8UnitTest11TestDetailsC1ERKS0_i@PLT
 1749      00
 1750 0605 C644240C 		movb	$0, 12(%rsp)
 1750      00
 1751 060a E8000000 		call	_ZN8UnitTest11CurrentTest7ResultsEv@PLT
 1751      00
 1752 060f 488B38   		movq	(%rax), %rdi
 1753 0612 488D5424 		leaq	11(%rsp), %rdx
 1753      0B
 1754 0617 488D7424 		leaq	12(%rsp), %rsi
 1754      0C
 1755 061c 4889E9   		movq	%rbp, %rcx
 1756 061f E8000000 		call	_ZN8UnitTest10CheckEqualIbbEEvRNS_11TestResultsERKT_RKT0_RKNS_11TestDetailsE
 1756      00
 1757              	.LEHE61:
 1758              	.L158:
 1759              	.LEHB62:
 1760 0624 E8000000 		call	_ZN8UnitTest11CurrentTest7DetailsEv@PLT
 1760      00
 1761 0629 488B30   		movq	(%rax), %rsi
 1762 062c BA3D0000 		movl	$61, %edx
 1762      00
 1763 0631 4889EF   		movq	%rbp, %rdi
 1764 0634 E8000000 		call	_ZN8UnitTest11TestDetailsC1ERKS0_i@PLT
 1764      00
 1765 0639 C744240C 		movl	$12, 12(%rsp)
 1765      0C000000 
 1766 0641 E8000000 		call	_ZN8UnitTest11CurrentTest7ResultsEv@PLT
 1766      00
 1767 0646 488B38   		movq	(%rax), %rdi
 1768 0649 488D7424 		leaq	12(%rsp), %rsi
 1768      0C
 1769 064e 4889E9   		movq	%rbp, %rcx
 1770 0651 4C89E2   		movq	%r12, %rdx
 1771 0654 E8000000 		call	_ZN8UnitTest10CheckEqualIihEEvRNS_11TestResultsERKT_RKT0_RKNS_11TestDetailsE
 1771      00
 1772              	.LEHE62:
 1773              	.L161:
 1774 0659 4C89E6   		movq	%r12, %rsi
 1775 065c BF440000 		movl	$68, %edi
 1775      00
 1776              	.LEHB63:
 1777 0661 E8000000 		call	getHexNibble@PLT
 1777      00
 1778              	.LEHE63:
 1779 0666 8844240B 		movb	%al, 11(%rsp)
 1780              	.LEHB64:
 1781 066a E8000000 		call	_ZN8UnitTest11CurrentTest7DetailsEv@PLT
 1781      00
 1782 066f 488B30   		movq	(%rax), %rsi
 1783 0672 BA3F0000 		movl	$63, %edx
 1783      00
 1784 0677 4889EF   		movq	%rbp, %rdi
 1785 067a E8000000 		call	_ZN8UnitTest11TestDetailsC1ERKS0_i@PLT
 1785      00
 1786 067f C644240C 		movb	$0, 12(%rsp)
 1786      00
 1787 0684 E8000000 		call	_ZN8UnitTest11CurrentTest7ResultsEv@PLT
 1787      00
 1788 0689 488B38   		movq	(%rax), %rdi
 1789 068c 488D5424 		leaq	11(%rsp), %rdx
 1789      0B
 1790 0691 488D7424 		leaq	12(%rsp), %rsi
 1790      0C
 1791 0696 4889E9   		movq	%rbp, %rcx
 1792 0699 E8000000 		call	_ZN8UnitTest10CheckEqualIbbEEvRNS_11TestResultsERKT_RKT0_RKNS_11TestDetailsE
 1792      00
 1793              	.LEHE64:
 1794              	.L164:
 1795              	.LEHB65:
 1796 069e E8000000 		call	_ZN8UnitTest11CurrentTest7DetailsEv@PLT
 1796      00
 1797 06a3 488B30   		movq	(%rax), %rsi
 1798 06a6 BA400000 		movl	$64, %edx
 1798      00
 1799 06ab 4889EF   		movq	%rbp, %rdi
 1800 06ae E8000000 		call	_ZN8UnitTest11TestDetailsC1ERKS0_i@PLT
 1800      00
 1801 06b3 C744240C 		movl	$13, 12(%rsp)
 1801      0D000000 
 1802 06bb E8000000 		call	_ZN8UnitTest11CurrentTest7ResultsEv@PLT
 1802      00
 1803 06c0 488B38   		movq	(%rax), %rdi
 1804 06c3 488D7424 		leaq	12(%rsp), %rsi
 1804      0C
 1805 06c8 4889E9   		movq	%rbp, %rcx
 1806 06cb 4C89E2   		movq	%r12, %rdx
 1807 06ce E8000000 		call	_ZN8UnitTest10CheckEqualIihEEvRNS_11TestResultsERKT_RKT0_RKNS_11TestDetailsE
 1807      00
 1808              	.LEHE65:
 1809              	.L167:
 1810 06d3 4C89E6   		movq	%r12, %rsi
 1811 06d6 BF450000 		movl	$69, %edi
 1811      00
 1812              	.LEHB66:
 1813 06db E8000000 		call	getHexNibble@PLT
 1813      00
 1814              	.LEHE66:
 1815 06e0 8844240B 		movb	%al, 11(%rsp)
 1816              	.LEHB67:
 1817 06e4 E8000000 		call	_ZN8UnitTest11CurrentTest7DetailsEv@PLT
 1817      00
 1818 06e9 488B30   		movq	(%rax), %rsi
 1819 06ec BA420000 		movl	$66, %edx
 1819      00
 1820 06f1 4889EF   		movq	%rbp, %rdi
 1821 06f4 E8000000 		call	_ZN8UnitTest11TestDetailsC1ERKS0_i@PLT
 1821      00
 1822 06f9 C644240C 		movb	$0, 12(%rsp)
 1822      00
 1823 06fe E8000000 		call	_ZN8UnitTest11CurrentTest7ResultsEv@PLT
 1823      00
 1824 0703 488B38   		movq	(%rax), %rdi
 1825 0706 488D5424 		leaq	11(%rsp), %rdx
 1825      0B
 1826 070b 488D7424 		leaq	12(%rsp), %rsi
 1826      0C
 1827 0710 4889E9   		movq	%rbp, %rcx
 1828 0713 E8000000 		call	_ZN8UnitTest10CheckEqualIbbEEvRNS_11TestResultsERKT_RKT0_RKNS_11TestDetailsE
 1828      00
 1829              	.LEHE67:
 1830              	.L170:
 1831              	.LEHB68:
 1832 0718 E8000000 		call	_ZN8UnitTest11CurrentTest7DetailsEv@PLT
 1832      00
 1833 071d 488B30   		movq	(%rax), %rsi
 1834 0720 BA430000 		movl	$67, %edx
 1834      00
 1835 0725 4889EF   		movq	%rbp, %rdi
 1836 0728 E8000000 		call	_ZN8UnitTest11TestDetailsC1ERKS0_i@PLT
 1836      00
 1837 072d C744240C 		movl	$14, 12(%rsp)
 1837      0E000000 
 1838 0735 E8000000 		call	_ZN8UnitTest11CurrentTest7ResultsEv@PLT
 1838      00
 1839 073a 488B38   		movq	(%rax), %rdi
 1840 073d 488D7424 		leaq	12(%rsp), %rsi
 1840      0C
 1841 0742 4889E9   		movq	%rbp, %rcx
 1842 0745 4C89E2   		movq	%r12, %rdx
 1843 0748 E8000000 		call	_ZN8UnitTest10CheckEqualIihEEvRNS_11TestResultsERKT_RKT0_RKNS_11TestDetailsE
 1843      00
 1844              	.LEHE68:
 1845              	.L173:
 1846 074d 4C89E6   		movq	%r12, %rsi
 1847 0750 BF460000 		movl	$70, %edi
 1847      00
 1848              	.LEHB69:
 1849 0755 E8000000 		call	getHexNibble@PLT
 1849      00
 1850              	.LEHE69:
 1851 075a 8844240B 		movb	%al, 11(%rsp)
 1852              	.LEHB70:
 1853 075e E8000000 		call	_ZN8UnitTest11CurrentTest7DetailsEv@PLT
 1853      00
 1854 0763 488B30   		movq	(%rax), %rsi
 1855 0766 BA450000 		movl	$69, %edx
 1855      00
 1856 076b 4889EF   		movq	%rbp, %rdi
 1857 076e E8000000 		call	_ZN8UnitTest11TestDetailsC1ERKS0_i@PLT
 1857      00
 1858 0773 C644240C 		movb	$0, 12(%rsp)
 1858      00
 1859 0778 E8000000 		call	_ZN8UnitTest11CurrentTest7ResultsEv@PLT
 1859      00
 1860 077d 488B38   		movq	(%rax), %rdi
 1861 0780 488D5424 		leaq	11(%rsp), %rdx
 1861      0B
 1862 0785 488D7424 		leaq	12(%rsp), %rsi
 1862      0C
 1863 078a 4889E9   		movq	%rbp, %rcx
 1864 078d E8000000 		call	_ZN8UnitTest10CheckEqualIbbEEvRNS_11TestResultsERKT_RKT0_RKNS_11TestDetailsE
 1864      00
 1865              	.LEHE70:
 1866              	.L176:
 1867              	.LEHB71:
 1868 0792 E8000000 		call	_ZN8UnitTest11CurrentTest7DetailsEv@PLT
 1868      00
 1869 0797 488B30   		movq	(%rax), %rsi
 1870 079a BA460000 		movl	$70, %edx
 1870      00
 1871 079f 4889EF   		movq	%rbp, %rdi
 1872 07a2 E8000000 		call	_ZN8UnitTest11TestDetailsC1ERKS0_i@PLT
 1872      00
 1873 07a7 C744240C 		movl	$15, 12(%rsp)
 1873      0F000000 
 1874 07af E8000000 		call	_ZN8UnitTest11CurrentTest7ResultsEv@PLT
 1874      00
 1875 07b4 488B38   		movq	(%rax), %rdi
 1876 07b7 488D7424 		leaq	12(%rsp), %rsi
 1876      0C
 1877 07bc 4889E9   		movq	%rbp, %rcx
 1878 07bf 4C89E2   		movq	%r12, %rdx
 1879 07c2 E8000000 		call	_ZN8UnitTest10CheckEqualIihEEvRNS_11TestResultsERKT_RKT0_RKNS_11TestDetailsE
 1879      00
 1880              	.LEHE71:
 1881              	.L179:
 1882 07c7 4C89E6   		movq	%r12, %rsi
 1883 07ca BF610000 		movl	$97, %edi
 1883      00
 1884              	.LEHB72:
 1885 07cf E8000000 		call	getHexNibble@PLT
 1885      00
 1886              	.LEHE72:
 1887 07d4 8844240B 		movb	%al, 11(%rsp)
 1888              	.LEHB73:
 1889 07d8 E8000000 		call	_ZN8UnitTest11CurrentTest7DetailsEv@PLT
 1889      00
 1890 07dd 488B30   		movq	(%rax), %rsi
 1891 07e0 BA480000 		movl	$72, %edx
 1891      00
 1892 07e5 4889EF   		movq	%rbp, %rdi
 1893 07e8 E8000000 		call	_ZN8UnitTest11TestDetailsC1ERKS0_i@PLT
 1893      00
 1894 07ed C644240C 		movb	$0, 12(%rsp)
 1894      00
 1895 07f2 E8000000 		call	_ZN8UnitTest11CurrentTest7ResultsEv@PLT
 1895      00
 1896 07f7 488B38   		movq	(%rax), %rdi
 1897 07fa 488D5424 		leaq	11(%rsp), %rdx
 1897      0B
 1898 07ff 488D7424 		leaq	12(%rsp), %rsi
 1898      0C
 1899 0804 4889E9   		movq	%rbp, %rcx
 1900 0807 E8000000 		call	_ZN8UnitTest10CheckEqualIbbEEvRNS_11TestResultsERKT_RKT0_RKNS_11TestDetailsE
 1900      00
 1901              	.LEHE73:
 1902              	.L182:
 1903              	.LEHB74:
 1904 080c E8000000 		call	_ZN8UnitTest11CurrentTest7DetailsEv@PLT
 1904      00
 1905 0811 488B30   		movq	(%rax), %rsi
 1906 0814 BA490000 		movl	$73, %edx
 1906      00
 1907 0819 4889EF   		movq	%rbp, %rdi
 1908 081c E8000000 		call	_ZN8UnitTest11TestDetailsC1ERKS0_i@PLT
 1908      00
 1909 0821 C744240C 		movl	$10, 12(%rsp)
 1909      0A000000 
 1910 0829 E8000000 		call	_ZN8UnitTest11CurrentTest7ResultsEv@PLT
 1910      00
 1911 082e 488B38   		movq	(%rax), %rdi
 1912 0831 488D7424 		leaq	12(%rsp), %rsi
 1912      0C
 1913 0836 4889E9   		movq	%rbp, %rcx
 1914 0839 4C89E2   		movq	%r12, %rdx
 1915 083c E8000000 		call	_ZN8UnitTest10CheckEqualIihEEvRNS_11TestResultsERKT_RKT0_RKNS_11TestDetailsE
 1915      00
 1916              	.LEHE74:
 1917              	.L185:
 1918 0841 4C89E6   		movq	%r12, %rsi
 1919 0844 BF620000 		movl	$98, %edi
 1919      00
 1920              	.LEHB75:
 1921 0849 E8000000 		call	getHexNibble@PLT
 1921      00
 1922              	.LEHE75:
 1923 084e 8844240B 		movb	%al, 11(%rsp)
 1924              	.LEHB76:
 1925 0852 E8000000 		call	_ZN8UnitTest11CurrentTest7DetailsEv@PLT
 1925      00
 1926 0857 488B30   		movq	(%rax), %rsi
 1927 085a BA4B0000 		movl	$75, %edx
 1927      00
 1928 085f 4889EF   		movq	%rbp, %rdi
 1929 0862 E8000000 		call	_ZN8UnitTest11TestDetailsC1ERKS0_i@PLT
 1929      00
 1930 0867 C644240C 		movb	$0, 12(%rsp)
 1930      00
 1931 086c E8000000 		call	_ZN8UnitTest11CurrentTest7ResultsEv@PLT
 1931      00
 1932 0871 488B38   		movq	(%rax), %rdi
 1933 0874 488D5424 		leaq	11(%rsp), %rdx
 1933      0B
 1934 0879 488D7424 		leaq	12(%rsp), %rsi
 1934      0C
 1935 087e 4889E9   		movq	%rbp, %rcx
 1936 0881 E8000000 		call	_ZN8UnitTest10CheckEqualIbbEEvRNS_11TestResultsERKT_RKT0_RKNS_11TestDetailsE
 1936      00
 1937              	.LEHE76:
 1938              	.L188:
 1939              	.LEHB77:
 1940 0886 E8000000 		call	_ZN8UnitTest11CurrentTest7DetailsEv@PLT
 1940      00
 1941 088b 488B30   		movq	(%rax), %rsi
 1942 088e BA4C0000 		movl	$76, %edx
 1942      00
 1943 0893 4889EF   		movq	%rbp, %rdi
 1944 0896 E8000000 		call	_ZN8UnitTest11TestDetailsC1ERKS0_i@PLT
 1944      00
 1945 089b C744240C 		movl	$11, 12(%rsp)
 1945      0B000000 
 1946 08a3 E8000000 		call	_ZN8UnitTest11CurrentTest7ResultsEv@PLT
 1946      00
 1947 08a8 488B38   		movq	(%rax), %rdi
 1948 08ab 488D7424 		leaq	12(%rsp), %rsi
 1948      0C
 1949 08b0 4889E9   		movq	%rbp, %rcx
 1950 08b3 4C89E2   		movq	%r12, %rdx
 1951 08b6 E8000000 		call	_ZN8UnitTest10CheckEqualIihEEvRNS_11TestResultsERKT_RKT0_RKNS_11TestDetailsE
 1951      00
 1952              	.LEHE77:
 1953              	.L191:
 1954 08bb 4C89E6   		movq	%r12, %rsi
 1955 08be BF630000 		movl	$99, %edi
 1955      00
 1956              	.LEHB78:
 1957 08c3 E8000000 		call	getHexNibble@PLT
 1957      00
 1958              	.LEHE78:
 1959 08c8 8844240B 		movb	%al, 11(%rsp)
 1960              	.LEHB79:
 1961 08cc E8000000 		call	_ZN8UnitTest11CurrentTest7DetailsEv@PLT
 1961      00
 1962 08d1 488B30   		movq	(%rax), %rsi
 1963 08d4 BA4E0000 		movl	$78, %edx
 1963      00
 1964 08d9 4889EF   		movq	%rbp, %rdi
 1965 08dc E8000000 		call	_ZN8UnitTest11TestDetailsC1ERKS0_i@PLT
 1965      00
 1966 08e1 C644240C 		movb	$0, 12(%rsp)
 1966      00
 1967 08e6 E8000000 		call	_ZN8UnitTest11CurrentTest7ResultsEv@PLT
 1967      00
 1968 08eb 488B38   		movq	(%rax), %rdi
 1969 08ee 488D5424 		leaq	11(%rsp), %rdx
 1969      0B
 1970 08f3 488D7424 		leaq	12(%rsp), %rsi
 1970      0C
 1971 08f8 4889E9   		movq	%rbp, %rcx
 1972 08fb E8000000 		call	_ZN8UnitTest10CheckEqualIbbEEvRNS_11TestResultsERKT_RKT0_RKNS_11TestDetailsE
 1972      00
 1973              	.LEHE79:
 1974              	.L194:
 1975              	.LEHB80:
 1976 0900 E8000000 		call	_ZN8UnitTest11CurrentTest7DetailsEv@PLT
 1976      00
 1977 0905 488B30   		movq	(%rax), %rsi
 1978 0908 BA4F0000 		movl	$79, %edx
 1978      00
 1979 090d 4889EF   		movq	%rbp, %rdi
 1980 0910 E8000000 		call	_ZN8UnitTest11TestDetailsC1ERKS0_i@PLT
 1980      00
 1981 0915 C744240C 		movl	$12, 12(%rsp)
 1981      0C000000 
 1982 091d E8000000 		call	_ZN8UnitTest11CurrentTest7ResultsEv@PLT
 1982      00
 1983 0922 488B38   		movq	(%rax), %rdi
 1984 0925 488D7424 		leaq	12(%rsp), %rsi
 1984      0C
 1985 092a 4889E9   		movq	%rbp, %rcx
 1986 092d 4C89E2   		movq	%r12, %rdx
 1987 0930 E8000000 		call	_ZN8UnitTest10CheckEqualIihEEvRNS_11TestResultsERKT_RKT0_RKNS_11TestDetailsE
 1987      00
 1988              	.LEHE80:
 1989              	.L197:
 1990 0935 4C89E6   		movq	%r12, %rsi
 1991 0938 BF640000 		movl	$100, %edi
 1991      00
 1992              	.LEHB81:
 1993 093d E8000000 		call	getHexNibble@PLT
 1993      00
 1994              	.LEHE81:
 1995 0942 8844240B 		movb	%al, 11(%rsp)
 1996              	.LEHB82:
 1997 0946 E8000000 		call	_ZN8UnitTest11CurrentTest7DetailsEv@PLT
 1997      00
 1998 094b 488B30   		movq	(%rax), %rsi
 1999 094e BA510000 		movl	$81, %edx
 1999      00
 2000 0953 4889EF   		movq	%rbp, %rdi
 2001 0956 E8000000 		call	_ZN8UnitTest11TestDetailsC1ERKS0_i@PLT
 2001      00
 2002 095b C644240C 		movb	$0, 12(%rsp)
 2002      00
 2003 0960 E8000000 		call	_ZN8UnitTest11CurrentTest7ResultsEv@PLT
 2003      00
 2004 0965 488B38   		movq	(%rax), %rdi
 2005 0968 488D5424 		leaq	11(%rsp), %rdx
 2005      0B
 2006 096d 488D7424 		leaq	12(%rsp), %rsi
 2006      0C
 2007 0972 4889E9   		movq	%rbp, %rcx
 2008 0975 E8000000 		call	_ZN8UnitTest10CheckEqualIbbEEvRNS_11TestResultsERKT_RKT0_RKNS_11TestDetailsE
 2008      00
 2009              	.LEHE82:
 2010              	.L200:
 2011              	.LEHB83:
 2012 097a E8000000 		call	_ZN8UnitTest11CurrentTest7DetailsEv@PLT
 2012      00
 2013 097f 488B30   		movq	(%rax), %rsi
 2014 0982 BA520000 		movl	$82, %edx
 2014      00
 2015 0987 4889EF   		movq	%rbp, %rdi
 2016 098a E8000000 		call	_ZN8UnitTest11TestDetailsC1ERKS0_i@PLT
 2016      00
 2017 098f C744240C 		movl	$13, 12(%rsp)
 2017      0D000000 
 2018 0997 E8000000 		call	_ZN8UnitTest11CurrentTest7ResultsEv@PLT
 2018      00
 2019 099c 488B38   		movq	(%rax), %rdi
 2020 099f 488D7424 		leaq	12(%rsp), %rsi
 2020      0C
 2021 09a4 4889E9   		movq	%rbp, %rcx
 2022 09a7 4C89E2   		movq	%r12, %rdx
 2023 09aa E8000000 		call	_ZN8UnitTest10CheckEqualIihEEvRNS_11TestResultsERKT_RKT0_RKNS_11TestDetailsE
 2023      00
 2024              	.LEHE83:
 2025              	.L203:
 2026 09af 4C89E6   		movq	%r12, %rsi
 2027 09b2 BF650000 		movl	$101, %edi
 2027      00
 2028              	.LEHB84:
 2029 09b7 E8000000 		call	getHexNibble@PLT
 2029      00
 2030              	.LEHE84:
 2031 09bc 8844240B 		movb	%al, 11(%rsp)
 2032              	.LEHB85:
 2033 09c0 E8000000 		call	_ZN8UnitTest11CurrentTest7DetailsEv@PLT
 2033      00
 2034 09c5 488B30   		movq	(%rax), %rsi
 2035 09c8 BA540000 		movl	$84, %edx
 2035      00
 2036 09cd 4889EF   		movq	%rbp, %rdi
 2037 09d0 E8000000 		call	_ZN8UnitTest11TestDetailsC1ERKS0_i@PLT
 2037      00
 2038 09d5 C644240C 		movb	$0, 12(%rsp)
 2038      00
 2039 09da E8000000 		call	_ZN8UnitTest11CurrentTest7ResultsEv@PLT
 2039      00
 2040 09df 488B38   		movq	(%rax), %rdi
 2041 09e2 488D5424 		leaq	11(%rsp), %rdx
 2041      0B
 2042 09e7 488D7424 		leaq	12(%rsp), %rsi
 2042      0C
 2043 09ec 4889E9   		movq	%rbp, %rcx
 2044 09ef E8000000 		call	_ZN8UnitTest10CheckEqualIbbEEvRNS_11TestResultsERKT_RKT0_RKNS_11TestDetailsE
 2044      00
 2045              	.LEHE85:
 2046              	.L206:
 2047              	.LEHB86:
 2048 09f4 E8000000 		call	_ZN8UnitTest11CurrentTest7DetailsEv@PLT
 2048      00
 2049 09f9 488B30   		movq	(%rax), %rsi
 2050 09fc BA550000 		movl	$85, %edx
 2050      00
 2051 0a01 4889EF   		movq	%rbp, %rdi
 2052 0a04 E8000000 		call	_ZN8UnitTest11TestDetailsC1ERKS0_i@PLT
 2052      00
 2053 0a09 C744240C 		movl	$14, 12(%rsp)
 2053      0E000000 
 2054 0a11 E8000000 		call	_ZN8UnitTest11CurrentTest7ResultsEv@PLT
 2054      00
 2055 0a16 488B38   		movq	(%rax), %rdi
 2056 0a19 488D7424 		leaq	12(%rsp), %rsi
 2056      0C
 2057 0a1e 4889E9   		movq	%rbp, %rcx
 2058 0a21 4C89E2   		movq	%r12, %rdx
 2059 0a24 E8000000 		call	_ZN8UnitTest10CheckEqualIihEEvRNS_11TestResultsERKT_RKT0_RKNS_11TestDetailsE
 2059      00
 2060              	.LEHE86:
 2061              	.L209:
 2062 0a29 4C89E6   		movq	%r12, %rsi
 2063 0a2c BF660000 		movl	$102, %edi
 2063      00
 2064              	.LEHB87:
 2065 0a31 E8000000 		call	getHexNibble@PLT
 2065      00
 2066              	.LEHE87:
 2067 0a36 8844240B 		movb	%al, 11(%rsp)
 2068              	.LEHB88:
 2069 0a3a E8000000 		call	_ZN8UnitTest11CurrentTest7DetailsEv@PLT
 2069      00
 2070 0a3f 488B30   		movq	(%rax), %rsi
 2071 0a42 BA570000 		movl	$87, %edx
 2071      00
 2072 0a47 4889EF   		movq	%rbp, %rdi
 2073 0a4a E8000000 		call	_ZN8UnitTest11TestDetailsC1ERKS0_i@PLT
 2073      00
 2074 0a4f C644240C 		movb	$0, 12(%rsp)
 2074      00
 2075 0a54 E8000000 		call	_ZN8UnitTest11CurrentTest7ResultsEv@PLT
 2075      00
 2076 0a59 488B38   		movq	(%rax), %rdi
 2077 0a5c 488D5424 		leaq	11(%rsp), %rdx
 2077      0B
 2078 0a61 488D7424 		leaq	12(%rsp), %rsi
 2078      0C
 2079 0a66 4889E9   		movq	%rbp, %rcx
 2080 0a69 E8000000 		call	_ZN8UnitTest10CheckEqualIbbEEvRNS_11TestResultsERKT_RKT0_RKNS_11TestDetailsE
 2080      00
 2081              	.LEHE88:
 2082              	.L212:
 2083              	.LEHB89:
 2084 0a6e E8000000 		call	_ZN8UnitTest11CurrentTest7DetailsEv@PLT
 2084      00
 2085 0a73 488B30   		movq	(%rax), %rsi
 2086 0a76 BA580000 		movl	$88, %edx
 2086      00
 2087 0a7b 4889EF   		movq	%rbp, %rdi
 2088 0a7e E8000000 		call	_ZN8UnitTest11TestDetailsC1ERKS0_i@PLT
 2088      00
 2089 0a83 C744240C 		movl	$15, 12(%rsp)
 2089      0F000000 
 2090 0a8b E8000000 		call	_ZN8UnitTest11CurrentTest7ResultsEv@PLT
 2090      00
 2091 0a90 488B38   		movq	(%rax), %rdi
 2092 0a93 488D7424 		leaq	12(%rsp), %rsi
 2092      0C
 2093 0a98 4889E9   		movq	%rbp, %rcx
 2094 0a9b 4C89E2   		movq	%r12, %rdx
 2095 0a9e E8000000 		call	_ZN8UnitTest10CheckEqualIihEEvRNS_11TestResultsERKT_RKT0_RKNS_11TestDetailsE
 2095      00
 2096              	.LEHE89:
 2097              	.L215:
 2098 0aa3 4C89E6   		movq	%r12, %rsi
 2099 0aa6 BF2E0000 		movl	$46, %edi
 2099      00
 2100              	.LEHB90:
 2101 0aab E8000000 		call	getHexNibble@PLT
 2101      00
 2102              	.LEHE90:
 2103 0ab0 8844240B 		movb	%al, 11(%rsp)
 2104              	.LEHB91:
 2105 0ab4 E8000000 		call	_ZN8UnitTest11CurrentTest7DetailsEv@PLT
 2105      00
 2106 0ab9 488B30   		movq	(%rax), %rsi
 2107 0abc BA5A0000 		movl	$90, %edx
 2107      00
 2108 0ac1 4889EF   		movq	%rbp, %rdi
 2109 0ac4 E8000000 		call	_ZN8UnitTest11TestDetailsC1ERKS0_i@PLT
 2109      00
 2110 0ac9 C644240C 		movb	$1, 12(%rsp)
 2110      01
 2111 0ace E8000000 		call	_ZN8UnitTest11CurrentTest7ResultsEv@PLT
 2111      00
 2112 0ad3 488B38   		movq	(%rax), %rdi
 2113 0ad6 488D5424 		leaq	11(%rsp), %rdx
 2113      0B
 2114 0adb 488D7424 		leaq	12(%rsp), %rsi
 2114      0C
 2115 0ae0 4889E9   		movq	%rbp, %rcx
 2116 0ae3 E8000000 		call	_ZN8UnitTest10CheckEqualIbbEEvRNS_11TestResultsERKT_RKT0_RKNS_11TestDetailsE
 2116      00
 2117              	.LEHE91:
 2118              	.L84:
 2119 0ae8 488B4424 		movq	56(%rsp), %rax
 2119      38
 2120 0aed 64482B04 		subq	%fs:40, %rax
 2120      25280000 
 2120      00
 2121 0af6 750A     		jne	.L312
 2122 0af8 4883C440 		addq	$64, %rsp
 2123              		.cfi_remember_state
 2124              		.cfi_def_cfa_offset 32
 2125 0afc 5D       		popq	%rbp
 2126              		.cfi_def_cfa_offset 24
 2127 0afd 415C     		popq	%r12
 2128              		.cfi_def_cfa_offset 16
 2129 0aff 415D     		popq	%r13
 2130              		.cfi_def_cfa_offset 8
 2131 0b01 C3       		ret
 2132              	.L312:
 2133              		.cfi_restore_state
 2134 0b02 E8000000 		call	__stack_chk_fail@PLT
 2134      00
 2135              	.L309:
 2136 0b07 F30F1EFA 		endbr64
 2137 0b0b 4889C7   		movq	%rax, %rdi
 2138 0b0e E9000000 		jmp	.L217
 2138      00
 2139              	.L307:
 2140 0b13 F30F1EFA 		endbr64
 2141 0b17 4889C7   		movq	%rax, %rdi
 2142 0b1a E9000000 		jmp	.L214
 2142      00
 2143              	.L303:
 2144 0b1f F30F1EFA 		endbr64
 2145 0b23 4889C7   		movq	%rax, %rdi
 2146 0b26 E9000000 		jmp	.L208
 2146      00
 2147              	.L305:
 2148 0b2b F30F1EFA 		endbr64
 2149 0b2f 4889C7   		movq	%rax, %rdi
 2150 0b32 E9000000 		jmp	.L211
 2150      00
 2151              	.L301:
 2152 0b37 F30F1EFA 		endbr64
 2153 0b3b 4889C7   		movq	%rax, %rdi
 2154 0b3e E9000000 		jmp	.L205
 2154      00
 2155              	.L299:
 2156 0b43 F30F1EFA 		endbr64
 2157 0b47 4889C7   		movq	%rax, %rdi
 2158 0b4a E9000000 		jmp	.L202
 2158      00
 2159              	.L297:
 2160 0b4f F30F1EFA 		endbr64
 2161 0b53 4889C7   		movq	%rax, %rdi
 2162 0b56 E9000000 		jmp	.L199
 2162      00
 2163              	.L295:
 2164 0b5b F30F1EFA 		endbr64
 2165 0b5f 4889C7   		movq	%rax, %rdi
 2166 0b62 E9000000 		jmp	.L196
 2166      00
 2167              	.L293:
 2168 0b67 F30F1EFA 		endbr64
 2169 0b6b 4889C7   		movq	%rax, %rdi
 2170 0b6e E9000000 		jmp	.L193
 2170      00
 2171              	.L291:
 2172 0b73 F30F1EFA 		endbr64
 2173 0b77 4889C7   		movq	%rax, %rdi
 2174 0b7a E9000000 		jmp	.L190
 2174      00
 2175              	.L289:
 2176 0b7f F30F1EFA 		endbr64
 2177 0b83 4889C7   		movq	%rax, %rdi
 2178 0b86 E9000000 		jmp	.L187
 2178      00
 2179              	.L287:
 2180 0b8b F30F1EFA 		endbr64
 2181 0b8f 4889C7   		movq	%rax, %rdi
 2182 0b92 E9000000 		jmp	.L184
 2182      00
 2183              	.L285:
 2184 0b97 F30F1EFA 		endbr64
 2185 0b9b 4889C7   		movq	%rax, %rdi
 2186 0b9e E9000000 		jmp	.L181
 2186      00
 2187              	.L283:
 2188 0ba3 F30F1EFA 		endbr64
 2189 0ba7 4889C7   		movq	%rax, %rdi
 2190 0baa E9000000 		jmp	.L178
 2190      00
 2191              	.L281:
 2192 0baf F30F1EFA 		endbr64
 2193 0bb3 4889C7   		movq	%rax, %rdi
 2194 0bb6 E9000000 		jmp	.L175
 2194      00
 2195              	.L279:
 2196 0bbb F30F1EFA 		endbr64
 2197 0bbf 4889C7   		movq	%rax, %rdi
 2198 0bc2 E9000000 		jmp	.L172
 2198      00
 2199              	.L277:
 2200 0bc7 F30F1EFA 		endbr64
 2201 0bcb 4889C7   		movq	%rax, %rdi
 2202 0bce E9000000 		jmp	.L169
 2202      00
 2203              	.L275:
 2204 0bd3 F30F1EFA 		endbr64
 2205 0bd7 4889C7   		movq	%rax, %rdi
 2206 0bda E9000000 		jmp	.L166
 2206      00
 2207              	.L273:
 2208 0bdf F30F1EFA 		endbr64
 2209 0be3 4889C7   		movq	%rax, %rdi
 2210 0be6 E9000000 		jmp	.L163
 2210      00
 2211              	.L271:
 2212 0beb F30F1EFA 		endbr64
 2213 0bef 4889C7   		movq	%rax, %rdi
 2214 0bf2 E9000000 		jmp	.L160
 2214      00
 2215              	.L269:
 2216 0bf7 F30F1EFA 		endbr64
 2217 0bfb 4889C7   		movq	%rax, %rdi
 2218 0bfe E9000000 		jmp	.L157
 2218      00
 2219              	.L267:
 2220 0c03 F30F1EFA 		endbr64
 2221 0c07 4889C7   		movq	%rax, %rdi
 2222 0c0a E9000000 		jmp	.L154
 2222      00
 2223              	.L265:
 2224 0c0f F30F1EFA 		endbr64
 2225 0c13 4889C7   		movq	%rax, %rdi
 2226 0c16 E9000000 		jmp	.L151
 2226      00
 2227              	.L263:
 2228 0c1b F30F1EFA 		endbr64
 2229 0c1f 4889C7   		movq	%rax, %rdi
 2230 0c22 E9000000 		jmp	.L148
 2230      00
 2231              	.L261:
 2232 0c27 F30F1EFA 		endbr64
 2233 0c2b 4889C7   		movq	%rax, %rdi
 2234 0c2e E9000000 		jmp	.L145
 2234      00
 2235              	.L259:
 2236 0c33 F30F1EFA 		endbr64
 2237 0c37 4889C7   		movq	%rax, %rdi
 2238 0c3a E9000000 		jmp	.L142
 2238      00
 2239              	.L257:
 2240 0c3f F30F1EFA 		endbr64
 2241 0c43 4889C7   		movq	%rax, %rdi
 2242 0c46 E9000000 		jmp	.L139
 2242      00
 2243              	.L255:
 2244 0c4b F30F1EFA 		endbr64
 2245 0c4f 4889C7   		movq	%rax, %rdi
 2246 0c52 E9000000 		jmp	.L136
 2246      00
 2247              	.L253:
 2248 0c57 F30F1EFA 		endbr64
 2249 0c5b 4889C7   		movq	%rax, %rdi
 2250 0c5e E9000000 		jmp	.L133
 2250      00
 2251              	.L251:
 2252 0c63 F30F1EFA 		endbr64
 2253 0c67 4889C7   		movq	%rax, %rdi
 2254 0c6a E9000000 		jmp	.L130
 2254      00
 2255              	.L249:
 2256 0c6f F30F1EFA 		endbr64
 2257 0c73 4889C7   		movq	%rax, %rdi
 2258 0c76 E9000000 		jmp	.L127
 2258      00
 2259              	.L247:
 2260 0c7b F30F1EFA 		endbr64
 2261 0c7f 4889C7   		movq	%rax, %rdi
 2262 0c82 E9000000 		jmp	.L124
 2262      00
 2263              	.L245:
 2264 0c87 F30F1EFA 		endbr64
 2265 0c8b 4889C7   		movq	%rax, %rdi
 2266 0c8e E9000000 		jmp	.L121
 2266      00
 2267              	.L243:
 2268 0c93 F30F1EFA 		endbr64
 2269 0c97 4889C7   		movq	%rax, %rdi
 2270 0c9a E9000000 		jmp	.L118
 2270      00
 2271              	.L241:
 2272 0c9f F30F1EFA 		endbr64
 2273 0ca3 4889C7   		movq	%rax, %rdi
 2274 0ca6 E9000000 		jmp	.L115
 2274      00
 2275              	.L239:
 2276 0cab F30F1EFA 		endbr64
 2277 0caf 4889C7   		movq	%rax, %rdi
 2278 0cb2 E9000000 		jmp	.L112
 2278      00
 2279              	.L237:
 2280 0cb7 F30F1EFA 		endbr64
 2281 0cbb 4889C7   		movq	%rax, %rdi
 2282 0cbe E9000000 		jmp	.L109
 2282      00
 2283              	.L235:
 2284 0cc3 F30F1EFA 		endbr64
 2285 0cc7 4889C7   		movq	%rax, %rdi
 2286 0cca E9000000 		jmp	.L106
 2286      00
 2287              	.L233:
 2288 0ccf F30F1EFA 		endbr64
 2289 0cd3 4889C7   		movq	%rax, %rdi
 2290 0cd6 E9000000 		jmp	.L103
 2290      00
 2291              	.L231:
 2292 0cdb F30F1EFA 		endbr64
 2293 0cdf 4889C7   		movq	%rax, %rdi
 2294 0ce2 E9000000 		jmp	.L100
 2294      00
 2295              	.L229:
 2296 0ce7 F30F1EFA 		endbr64
 2297 0ceb 4889C7   		movq	%rax, %rdi
 2298 0cee E9000000 		jmp	.L97
 2298      00
 2299              	.L227:
 2300 0cf3 F30F1EFA 		endbr64
 2301 0cf7 4889C7   		movq	%rax, %rdi
 2302 0cfa E9000000 		jmp	.L94
 2302      00
 2303              	.L225:
 2304 0cff F30F1EFA 		endbr64
 2305 0d03 4889C7   		movq	%rax, %rdi
 2306 0d06 E9000000 		jmp	.L91
 2306      00
 2307              	.L223:
 2308 0d0b F30F1EFA 		endbr64
 2309 0d0f 4889C7   		movq	%rax, %rdi
 2310 0d12 E9000000 		jmp	.L88
 2310      00
 2311              	.L221:
 2312 0d17 F30F1EFA 		endbr64
 2313 0d1b 4889C7   		movq	%rax, %rdi
 2314 0d1e E9000000 		jmp	.L85
 2314      00
 2315              		.section	.gcc_except_table,"a",@progbits
 2316              		.align 4
 2317              	.LLSDA1188:
 2318 0000 FF       		.byte	0xff
 2319 0001 9B       		.byte	0x9b
 2320 0002 8803     		.uleb128 .LLSDATT1188-.LLSDATTD1188
 2321              	.LLSDATTD1188:
 2322 0004 01       		.byte	0x1
 2323 0005 FE02     		.uleb128 .LLSDACSE1188-.LLSDACSB1188
 2324              	.LLSDACSB1188:
 2325 0007 2A       		.uleb128 .LEHB24-.LFB1188
 2326 0008 05       		.uleb128 .LEHE24-.LEHB24
 2327 0009 00       		.uleb128 0
 2328 000a 00       		.uleb128 0
 2329 000b 33       		.uleb128 .LEHB25-.LFB1188
 2330 000c 39       		.uleb128 .LEHE25-.LEHB25
 2331 000d 971A     		.uleb128 .L221-.LFB1188
 2332 000f 01       		.uleb128 0x1
 2333 0010 6C       		.uleb128 .LEHB26-.LFB1188
 2334 0011 35       		.uleb128 .LEHE26-.LEHB26
 2335 0012 8B1A     		.uleb128 .L223-.LFB1188
 2336 0014 01       		.uleb128 0x1
 2337 0015 A901     		.uleb128 .LEHB27-.LFB1188
 2338 0017 05       		.uleb128 .LEHE27-.LEHB27
 2339 0018 00       		.uleb128 0
 2340 0019 00       		.uleb128 0
 2341 001a B201     		.uleb128 .LEHB28-.LFB1188
 2342 001c 34       		.uleb128 .LEHE28-.LEHB28
 2343 001d FF19     		.uleb128 .L225-.LFB1188
 2344 001f 01       		.uleb128 0x1
 2345 0020 E601     		.uleb128 .LEHB29-.LFB1188
 2346 0022 35       		.uleb128 .LEHE29-.LEHB29
 2347 0023 F319     		.uleb128 .L227-.LFB1188
 2348 0025 01       		.uleb128 0x1
 2349 0026 A302     		.uleb128 .LEHB30-.LFB1188
 2350 0028 05       		.uleb128 .LEHE30-.LEHB30
 2351 0029 00       		.uleb128 0
 2352 002a 00       		.uleb128 0
 2353 002b AC02     		.uleb128 .LEHB31-.LFB1188
 2354 002d 34       		.uleb128 .LEHE31-.LEHB31
 2355 002e E719     		.uleb128 .L229-.LFB1188
 2356 0030 01       		.uleb128 0x1
 2357 0031 E002     		.uleb128 .LEHB32-.LFB1188
 2358 0033 35       		.uleb128 .LEHE32-.LEHB32
 2359 0034 DB19     		.uleb128 .L231-.LFB1188
 2360 0036 01       		.uleb128 0x1
 2361 0037 9D03     		.uleb128 .LEHB33-.LFB1188
 2362 0039 05       		.uleb128 .LEHE33-.LEHB33
 2363 003a 00       		.uleb128 0
 2364 003b 00       		.uleb128 0
 2365 003c A603     		.uleb128 .LEHB34-.LFB1188
 2366 003e 34       		.uleb128 .LEHE34-.LEHB34
 2367 003f CF19     		.uleb128 .L233-.LFB1188
 2368 0041 01       		.uleb128 0x1
 2369 0042 DA03     		.uleb128 .LEHB35-.LFB1188
 2370 0044 35       		.uleb128 .LEHE35-.LEHB35
 2371 0045 C319     		.uleb128 .L235-.LFB1188
 2372 0047 01       		.uleb128 0x1
 2373 0048 9704     		.uleb128 .LEHB36-.LFB1188
 2374 004a 05       		.uleb128 .LEHE36-.LEHB36
 2375 004b 00       		.uleb128 0
 2376 004c 00       		.uleb128 0
 2377 004d A004     		.uleb128 .LEHB37-.LFB1188
 2378 004f 34       		.uleb128 .LEHE37-.LEHB37
 2379 0050 B719     		.uleb128 .L237-.LFB1188
 2380 0052 01       		.uleb128 0x1
 2381 0053 D404     		.uleb128 .LEHB38-.LFB1188
 2382 0055 35       		.uleb128 .LEHE38-.LEHB38
 2383 0056 AB19     		.uleb128 .L239-.LFB1188
 2384 0058 01       		.uleb128 0x1
 2385 0059 9105     		.uleb128 .LEHB39-.LFB1188
 2386 005b 05       		.uleb128 .LEHE39-.LEHB39
 2387 005c 00       		.uleb128 0
 2388 005d 00       		.uleb128 0
 2389 005e 9A05     		.uleb128 .LEHB40-.LFB1188
 2390 0060 34       		.uleb128 .LEHE40-.LEHB40
 2391 0061 9F19     		.uleb128 .L241-.LFB1188
 2392 0063 01       		.uleb128 0x1
 2393 0064 CE05     		.uleb128 .LEHB41-.LFB1188
 2394 0066 35       		.uleb128 .LEHE41-.LEHB41
 2395 0067 9319     		.uleb128 .L243-.LFB1188
 2396 0069 01       		.uleb128 0x1
 2397 006a 8B06     		.uleb128 .LEHB42-.LFB1188
 2398 006c 05       		.uleb128 .LEHE42-.LEHB42
 2399 006d 00       		.uleb128 0
 2400 006e 00       		.uleb128 0
 2401 006f 9406     		.uleb128 .LEHB43-.LFB1188
 2402 0071 34       		.uleb128 .LEHE43-.LEHB43
 2403 0072 8719     		.uleb128 .L245-.LFB1188
 2404 0074 01       		.uleb128 0x1
 2405 0075 C806     		.uleb128 .LEHB44-.LFB1188
 2406 0077 35       		.uleb128 .LEHE44-.LEHB44
 2407 0078 FB18     		.uleb128 .L247-.LFB1188
 2408 007a 01       		.uleb128 0x1
 2409 007b 8507     		.uleb128 .LEHB45-.LFB1188
 2410 007d 05       		.uleb128 .LEHE45-.LEHB45
 2411 007e 00       		.uleb128 0
 2412 007f 00       		.uleb128 0
 2413 0080 8E07     		.uleb128 .LEHB46-.LFB1188
 2414 0082 34       		.uleb128 .LEHE46-.LEHB46
 2415 0083 EF18     		.uleb128 .L249-.LFB1188
 2416 0085 01       		.uleb128 0x1
 2417 0086 C207     		.uleb128 .LEHB47-.LFB1188
 2418 0088 35       		.uleb128 .LEHE47-.LEHB47
 2419 0089 E318     		.uleb128 .L251-.LFB1188
 2420 008b 01       		.uleb128 0x1
 2421 008c FF07     		.uleb128 .LEHB48-.LFB1188
 2422 008e 05       		.uleb128 .LEHE48-.LEHB48
 2423 008f 00       		.uleb128 0
 2424 0090 00       		.uleb128 0
 2425 0091 8808     		.uleb128 .LEHB49-.LFB1188
 2426 0093 34       		.uleb128 .LEHE49-.LEHB49
 2427 0094 D718     		.uleb128 .L253-.LFB1188
 2428 0096 01       		.uleb128 0x1
 2429 0097 BC08     		.uleb128 .LEHB50-.LFB1188
 2430 0099 35       		.uleb128 .LEHE50-.LEHB50
 2431 009a CB18     		.uleb128 .L255-.LFB1188
 2432 009c 01       		.uleb128 0x1
 2433 009d F908     		.uleb128 .LEHB51-.LFB1188
 2434 009f 05       		.uleb128 .LEHE51-.LEHB51
 2435 00a0 00       		.uleb128 0
 2436 00a1 00       		.uleb128 0
 2437 00a2 8209     		.uleb128 .LEHB52-.LFB1188
 2438 00a4 34       		.uleb128 .LEHE52-.LEHB52
 2439 00a5 BF18     		.uleb128 .L257-.LFB1188
 2440 00a7 01       		.uleb128 0x1
 2441 00a8 B609     		.uleb128 .LEHB53-.LFB1188
 2442 00aa 35       		.uleb128 .LEHE53-.LEHB53
 2443 00ab B318     		.uleb128 .L259-.LFB1188
 2444 00ad 01       		.uleb128 0x1
 2445 00ae F309     		.uleb128 .LEHB54-.LFB1188
 2446 00b0 05       		.uleb128 .LEHE54-.LEHB54
 2447 00b1 00       		.uleb128 0
 2448 00b2 00       		.uleb128 0
 2449 00b3 FC09     		.uleb128 .LEHB55-.LFB1188
 2450 00b5 34       		.uleb128 .LEHE55-.LEHB55
 2451 00b6 A718     		.uleb128 .L261-.LFB1188
 2452 00b8 01       		.uleb128 0x1
 2453 00b9 B00A     		.uleb128 .LEHB56-.LFB1188
 2454 00bb 35       		.uleb128 .LEHE56-.LEHB56
 2455 00bc 9B18     		.uleb128 .L263-.LFB1188
 2456 00be 01       		.uleb128 0x1
 2457 00bf ED0A     		.uleb128 .LEHB57-.LFB1188
 2458 00c1 05       		.uleb128 .LEHE57-.LEHB57
 2459 00c2 00       		.uleb128 0
 2460 00c3 00       		.uleb128 0
 2461 00c4 F60A     		.uleb128 .LEHB58-.LFB1188
 2462 00c6 34       		.uleb128 .LEHE58-.LEHB58
 2463 00c7 8F18     		.uleb128 .L265-.LFB1188
 2464 00c9 01       		.uleb128 0x1
 2465 00ca AA0B     		.uleb128 .LEHB59-.LFB1188
 2466 00cc 35       		.uleb128 .LEHE59-.LEHB59
 2467 00cd 8318     		.uleb128 .L267-.LFB1188
 2468 00cf 01       		.uleb128 0x1
 2469 00d0 E70B     		.uleb128 .LEHB60-.LFB1188
 2470 00d2 05       		.uleb128 .LEHE60-.LEHB60
 2471 00d3 00       		.uleb128 0
 2472 00d4 00       		.uleb128 0
 2473 00d5 F00B     		.uleb128 .LEHB61-.LFB1188
 2474 00d7 34       		.uleb128 .LEHE61-.LEHB61
 2475 00d8 F717     		.uleb128 .L269-.LFB1188
 2476 00da 01       		.uleb128 0x1
 2477 00db A40C     		.uleb128 .LEHB62-.LFB1188
 2478 00dd 35       		.uleb128 .LEHE62-.LEHB62
 2479 00de EB17     		.uleb128 .L271-.LFB1188
 2480 00e0 01       		.uleb128 0x1
 2481 00e1 E10C     		.uleb128 .LEHB63-.LFB1188
 2482 00e3 05       		.uleb128 .LEHE63-.LEHB63
 2483 00e4 00       		.uleb128 0
 2484 00e5 00       		.uleb128 0
 2485 00e6 EA0C     		.uleb128 .LEHB64-.LFB1188
 2486 00e8 34       		.uleb128 .LEHE64-.LEHB64
 2487 00e9 DF17     		.uleb128 .L273-.LFB1188
 2488 00eb 01       		.uleb128 0x1
 2489 00ec 9E0D     		.uleb128 .LEHB65-.LFB1188
 2490 00ee 35       		.uleb128 .LEHE65-.LEHB65
 2491 00ef D317     		.uleb128 .L275-.LFB1188
 2492 00f1 01       		.uleb128 0x1
 2493 00f2 DB0D     		.uleb128 .LEHB66-.LFB1188
 2494 00f4 05       		.uleb128 .LEHE66-.LEHB66
 2495 00f5 00       		.uleb128 0
 2496 00f6 00       		.uleb128 0
 2497 00f7 E40D     		.uleb128 .LEHB67-.LFB1188
 2498 00f9 34       		.uleb128 .LEHE67-.LEHB67
 2499 00fa C717     		.uleb128 .L277-.LFB1188
 2500 00fc 01       		.uleb128 0x1
 2501 00fd 980E     		.uleb128 .LEHB68-.LFB1188
 2502 00ff 35       		.uleb128 .LEHE68-.LEHB68
 2503 0100 BB17     		.uleb128 .L279-.LFB1188
 2504 0102 01       		.uleb128 0x1
 2505 0103 D50E     		.uleb128 .LEHB69-.LFB1188
 2506 0105 05       		.uleb128 .LEHE69-.LEHB69
 2507 0106 00       		.uleb128 0
 2508 0107 00       		.uleb128 0
 2509 0108 DE0E     		.uleb128 .LEHB70-.LFB1188
 2510 010a 34       		.uleb128 .LEHE70-.LEHB70
 2511 010b AF17     		.uleb128 .L281-.LFB1188
 2512 010d 01       		.uleb128 0x1
 2513 010e 920F     		.uleb128 .LEHB71-.LFB1188
 2514 0110 35       		.uleb128 .LEHE71-.LEHB71
 2515 0111 A317     		.uleb128 .L283-.LFB1188
 2516 0113 01       		.uleb128 0x1
 2517 0114 CF0F     		.uleb128 .LEHB72-.LFB1188
 2518 0116 05       		.uleb128 .LEHE72-.LEHB72
 2519 0117 00       		.uleb128 0
 2520 0118 00       		.uleb128 0
 2521 0119 D80F     		.uleb128 .LEHB73-.LFB1188
 2522 011b 34       		.uleb128 .LEHE73-.LEHB73
 2523 011c 9717     		.uleb128 .L285-.LFB1188
 2524 011e 01       		.uleb128 0x1
 2525 011f 8C10     		.uleb128 .LEHB74-.LFB1188
 2526 0121 35       		.uleb128 .LEHE74-.LEHB74
 2527 0122 8B17     		.uleb128 .L287-.LFB1188
 2528 0124 01       		.uleb128 0x1
 2529 0125 C910     		.uleb128 .LEHB75-.LFB1188
 2530 0127 05       		.uleb128 .LEHE75-.LEHB75
 2531 0128 00       		.uleb128 0
 2532 0129 00       		.uleb128 0
 2533 012a D210     		.uleb128 .LEHB76-.LFB1188
 2534 012c 34       		.uleb128 .LEHE76-.LEHB76
 2535 012d FF16     		.uleb128 .L289-.LFB1188
 2536 012f 01       		.uleb128 0x1
 2537 0130 8611     		.uleb128 .LEHB77-.LFB1188
 2538 0132 35       		.uleb128 .LEHE77-.LEHB77
 2539 0133 F316     		.uleb128 .L291-.LFB1188
 2540 0135 01       		.uleb128 0x1
 2541 0136 C311     		.uleb128 .LEHB78-.LFB1188
 2542 0138 05       		.uleb128 .LEHE78-.LEHB78
 2543 0139 00       		.uleb128 0
 2544 013a 00       		.uleb128 0
 2545 013b CC11     		.uleb128 .LEHB79-.LFB1188
 2546 013d 34       		.uleb128 .LEHE79-.LEHB79
 2547 013e E716     		.uleb128 .L293-.LFB1188
 2548 0140 01       		.uleb128 0x1
 2549 0141 8012     		.uleb128 .LEHB80-.LFB1188
 2550 0143 35       		.uleb128 .LEHE80-.LEHB80
 2551 0144 DB16     		.uleb128 .L295-.LFB1188
 2552 0146 01       		.uleb128 0x1
 2553 0147 BD12     		.uleb128 .LEHB81-.LFB1188
 2554 0149 05       		.uleb128 .LEHE81-.LEHB81
 2555 014a 00       		.uleb128 0
 2556 014b 00       		.uleb128 0
 2557 014c C612     		.uleb128 .LEHB82-.LFB1188
 2558 014e 34       		.uleb128 .LEHE82-.LEHB82
 2559 014f CF16     		.uleb128 .L297-.LFB1188
 2560 0151 01       		.uleb128 0x1
 2561 0152 FA12     		.uleb128 .LEHB83-.LFB1188
 2562 0154 35       		.uleb128 .LEHE83-.LEHB83
 2563 0155 C316     		.uleb128 .L299-.LFB1188
 2564 0157 01       		.uleb128 0x1
 2565 0158 B713     		.uleb128 .LEHB84-.LFB1188
 2566 015a 05       		.uleb128 .LEHE84-.LEHB84
 2567 015b 00       		.uleb128 0
 2568 015c 00       		.uleb128 0
 2569 015d C013     		.uleb128 .LEHB85-.LFB1188
 2570 015f 34       		.uleb128 .LEHE85-.LEHB85
 2571 0160 B716     		.uleb128 .L301-.LFB1188
 2572 0162 01       		.uleb128 0x1
 2573 0163 F413     		.uleb128 .LEHB86-.LFB1188
 2574 0165 35       		.uleb128 .LEHE86-.LEHB86
 2575 0166 9F16     		.uleb128 .L303-.LFB1188
 2576 0168 01       		.uleb128 0x1
 2577 0169 B114     		.uleb128 .LEHB87-.LFB1188
 2578 016b 05       		.uleb128 .LEHE87-.LEHB87
 2579 016c 00       		.uleb128 0
 2580 016d 00       		.uleb128 0
 2581 016e BA14     		.uleb128 .LEHB88-.LFB1188
 2582 0170 34       		.uleb128 .LEHE88-.LEHB88
 2583 0171 AB16     		.uleb128 .L305-.LFB1188
 2584 0173 01       		.uleb128 0x1
 2585 0174 EE14     		.uleb128 .LEHB89-.LFB1188
 2586 0176 35       		.uleb128 .LEHE89-.LEHB89
 2587 0177 9316     		.uleb128 .L307-.LFB1188
 2588 0179 01       		.uleb128 0x1
 2589 017a AB15     		.uleb128 .LEHB90-.LFB1188
 2590 017c 05       		.uleb128 .LEHE90-.LEHB90
 2591 017d 00       		.uleb128 0
 2592 017e 00       		.uleb128 0
 2593 017f B415     		.uleb128 .LEHB91-.LFB1188
 2594 0181 34       		.uleb128 .LEHE91-.LEHB91
 2595 0182 8716     		.uleb128 .L309-.LFB1188
 2596 0184 01       		.uleb128 0x1
 2597              	.LLSDACSE1188:
 2598 0185 01       		.byte	0x1
 2599 0186 00       		.byte	0
 2600 0187 00       		.align 4
 2601 0188 00000000 		.long	0
 2602              	
 2603              	.LLSDATT1188:
 2604              		.text
 2605              		.cfi_endproc
 2606              		.section	.text.unlikely
 2607              		.cfi_startproc
 2608              		.cfi_personality 0x9b,DW.ref.__gxx_personality_v0
 2609              		.cfi_lsda 0x1b,.LLSDAC1188
 2611              	_ZNK25TestConv_testGetHexNibble7RunImplEv.cold:
 2612              	.LFSB1188:
 2613              	.L217:
 2614              		.cfi_def_cfa_offset 96
 2615              		.cfi_offset 6, -32
 2616              		.cfi_offset 12, -24
 2617              		.cfi_offset 13, -16
 2618 0000 E8000000 		call	__cxa_begin_catch@PLT
 2618      00
 2619              	.LEHB92:
 2620 0005 E8000000 		call	_ZN8UnitTest11CurrentTest7ResultsEv@PLT
 2620      00
 2621 000a 4C8B20   		movq	(%rax), %r12
 2622 000d E8000000 		call	_ZN8UnitTest11CurrentTest7DetailsEv@PLT
 2622      00
 2623 0012 488B30   		movq	(%rax), %rsi
 2624 0015 BA5A0000 		movl	$90, %edx
 2624      00
 2625 001a 4889EF   		movq	%rbp, %rdi
 2626 001d E8000000 		call	_ZN8UnitTest11TestDetailsC1ERKS0_i@PLT
 2626      00
 2627 0022 488D1500 		leaq	.LC22(%rip), %rdx
 2627      000000
 2628 0029 4889EE   		movq	%rbp, %rsi
 2629 002c 4C89E7   		movq	%r12, %rdi
 2630 002f E8000000 		call	_ZN8UnitTest11TestResults13OnTestFailureERKNS_11TestDetailsEPKc@PLT
 2630      00
 2631              	.LEHE92:
 2632              	.LEHB93:
 2633 0034 E8000000 		call	__cxa_end_catch@PLT
 2633      00
 2634              	.LEHE93:
 2635 0039 E9000000 		jmp	.L84
 2635      00
 2636              	.L214:
 2637 003e E8000000 		call	__cxa_begin_catch@PLT
 2637      00
 2638              	.LEHB94:
 2639 0043 E8000000 		call	_ZN8UnitTest11CurrentTest7ResultsEv@PLT
 2639      00
 2640 0048 4C8B28   		movq	(%rax), %r13
 2641 004b E8000000 		call	_ZN8UnitTest11CurrentTest7DetailsEv@PLT
 2641      00
 2642 0050 488B30   		movq	(%rax), %rsi
 2643 0053 BA580000 		movl	$88, %edx
 2643      00
 2644 0058 4889EF   		movq	%rbp, %rdi
 2645 005b E8000000 		call	_ZN8UnitTest11TestDetailsC1ERKS0_i@PLT
 2645      00
 2646 0060 488D1500 		leaq	.LC21(%rip), %rdx
 2646      000000
 2647 0067 4889EE   		movq	%rbp, %rsi
 2648 006a 4C89EF   		movq	%r13, %rdi
 2649 006d E8000000 		call	_ZN8UnitTest11TestResults13OnTestFailureERKNS_11TestDetailsEPKc@PLT
 2649      00
 2650              	.LEHE94:
 2651              	.LEHB95:
 2652 0072 E8000000 		call	__cxa_end_catch@PLT
 2652      00
 2653              	.LEHE95:
 2654 0077 E9000000 		jmp	.L215
 2654      00
 2655              	.L208:
 2656 007c E8000000 		call	__cxa_begin_catch@PLT
 2656      00
 2657              	.LEHB96:
 2658 0081 E8000000 		call	_ZN8UnitTest11CurrentTest7ResultsEv@PLT
 2658      00
 2659 0086 4C8B28   		movq	(%rax), %r13
 2660 0089 E8000000 		call	_ZN8UnitTest11CurrentTest7DetailsEv@PLT
 2660      00
 2661 008e 488B30   		movq	(%rax), %rsi
 2662 0091 BA550000 		movl	$85, %edx
 2662      00
 2663 0096 4889EF   		movq	%rbp, %rdi
 2664 0099 E8000000 		call	_ZN8UnitTest11TestDetailsC1ERKS0_i@PLT
 2664      00
 2665 009e 488D1500 		leaq	.LC20(%rip), %rdx
 2665      000000
 2666 00a5 4889EE   		movq	%rbp, %rsi
 2667 00a8 4C89EF   		movq	%r13, %rdi
 2668 00ab E8000000 		call	_ZN8UnitTest11TestResults13OnTestFailureERKNS_11TestDetailsEPKc@PLT
 2668      00
 2669              	.LEHE96:
 2670              	.LEHB97:
 2671 00b0 E8000000 		call	__cxa_end_catch@PLT
 2671      00
 2672              	.LEHE97:
 2673 00b5 E9000000 		jmp	.L209
 2673      00
 2674              	.L211:
 2675 00ba E8000000 		call	__cxa_begin_catch@PLT
 2675      00
 2676              	.LEHB98:
 2677 00bf E8000000 		call	_ZN8UnitTest11CurrentTest7ResultsEv@PLT
 2677      00
 2678 00c4 4C8B28   		movq	(%rax), %r13
 2679 00c7 E8000000 		call	_ZN8UnitTest11CurrentTest7DetailsEv@PLT
 2679      00
 2680 00cc 488B30   		movq	(%rax), %rsi
 2681 00cf BA570000 		movl	$87, %edx
 2681      00
 2682 00d4 4889EF   		movq	%rbp, %rdi
 2683 00d7 E8000000 		call	_ZN8UnitTest11TestDetailsC1ERKS0_i@PLT
 2683      00
 2684 00dc 488D1500 		leaq	.LC5(%rip), %rdx
 2684      000000
 2685 00e3 4889EE   		movq	%rbp, %rsi
 2686 00e6 4C89EF   		movq	%r13, %rdi
 2687 00e9 E8000000 		call	_ZN8UnitTest11TestResults13OnTestFailureERKNS_11TestDetailsEPKc@PLT
 2687      00
 2688              	.LEHE98:
 2689              	.LEHB99:
 2690 00ee E8000000 		call	__cxa_end_catch@PLT
 2690      00
 2691              	.LEHE99:
 2692 00f3 E9000000 		jmp	.L212
 2692      00
 2693              	.L205:
 2694 00f8 E8000000 		call	__cxa_begin_catch@PLT
 2694      00
 2695              	.LEHB100:
 2696 00fd E8000000 		call	_ZN8UnitTest11CurrentTest7ResultsEv@PLT
 2696      00
 2697 0102 4C8B28   		movq	(%rax), %r13
 2698 0105 E8000000 		call	_ZN8UnitTest11CurrentTest7DetailsEv@PLT
 2698      00
 2699 010a 488B30   		movq	(%rax), %rsi
 2700 010d BA540000 		movl	$84, %edx
 2700      00
 2701 0112 4889EF   		movq	%rbp, %rdi
 2702 0115 E8000000 		call	_ZN8UnitTest11TestDetailsC1ERKS0_i@PLT
 2702      00
 2703 011a 488D1500 		leaq	.LC5(%rip), %rdx
 2703      000000
 2704 0121 4889EE   		movq	%rbp, %rsi
 2705 0124 4C89EF   		movq	%r13, %rdi
 2706 0127 E8000000 		call	_ZN8UnitTest11TestResults13OnTestFailureERKNS_11TestDetailsEPKc@PLT
 2706      00
 2707              	.LEHE100:
 2708              	.LEHB101:
 2709 012c E8000000 		call	__cxa_end_catch@PLT
 2709      00
 2710              	.LEHE101:
 2711 0131 E9000000 		jmp	.L206
 2711      00
 2712              	.L310:
 2713 0136 F30F1EFA 		endbr64
 2714 013a 4889C5   		movq	%rax, %rbp
 2715 013d E8000000 		call	__cxa_end_catch@PLT
 2715      00
 2716 0142 4889EF   		movq	%rbp, %rdi
 2717              	.LEHB102:
 2718 0145 E8000000 		call	_Unwind_Resume@PLT
 2718      00
 2719              	.LEHE102:
 2720              	.L308:
 2721 014a F30F1EFA 		endbr64
 2722 014e 4889C5   		movq	%rax, %rbp
 2723 0151 E8000000 		call	__cxa_end_catch@PLT
 2723      00
 2724 0156 4889EF   		movq	%rbp, %rdi
 2725              	.LEHB103:
 2726 0159 E8000000 		call	_Unwind_Resume@PLT
 2726      00
 2727              	.LEHE103:
 2728              	.L306:
 2729 015e F30F1EFA 		endbr64
 2730 0162 4889C5   		movq	%rax, %rbp
 2731 0165 E8000000 		call	__cxa_end_catch@PLT
 2731      00
 2732 016a 4889EF   		movq	%rbp, %rdi
 2733              	.LEHB104:
 2734 016d E8000000 		call	_Unwind_Resume@PLT
 2734      00
 2735              	.LEHE104:
 2736              	.L304:
 2737 0172 F30F1EFA 		endbr64
 2738 0176 4889C5   		movq	%rax, %rbp
 2739 0179 E8000000 		call	__cxa_end_catch@PLT
 2739      00
 2740 017e 4889EF   		movq	%rbp, %rdi
 2741              	.LEHB105:
 2742 0181 E8000000 		call	_Unwind_Resume@PLT
 2742      00
 2743              	.LEHE105:
 2744              	.L302:
 2745 0186 F30F1EFA 		endbr64
 2746 018a 4889C5   		movq	%rax, %rbp
 2747 018d E8000000 		call	__cxa_end_catch@PLT
 2747      00
 2748 0192 4889EF   		movq	%rbp, %rdi
 2749              	.LEHB106:
 2750 0195 E8000000 		call	_Unwind_Resume@PLT
 2750      00
 2751              	.LEHE106:
 2752              	.L202:
 2753 019a E8000000 		call	__cxa_begin_catch@PLT
 2753      00
 2754              	.LEHB107:
 2755 019f E8000000 		call	_ZN8UnitTest11CurrentTest7ResultsEv@PLT
 2755      00
 2756 01a4 4C8B28   		movq	(%rax), %r13
 2757 01a7 E8000000 		call	_ZN8UnitTest11CurrentTest7DetailsEv@PLT
 2757      00
 2758 01ac 488B30   		movq	(%rax), %rsi
 2759 01af BA520000 		movl	$82, %edx
 2759      00
 2760 01b4 4889EF   		movq	%rbp, %rdi
 2761 01b7 E8000000 		call	_ZN8UnitTest11TestDetailsC1ERKS0_i@PLT
 2761      00
 2762 01bc 488D1500 		leaq	.LC19(%rip), %rdx
 2762      000000
 2763 01c3 4889EE   		movq	%rbp, %rsi
 2764 01c6 4C89EF   		movq	%r13, %rdi
 2765 01c9 E8000000 		call	_ZN8UnitTest11TestResults13OnTestFailureERKNS_11TestDetailsEPKc@PLT
 2765      00
 2766              	.LEHE107:
 2767              	.LEHB108:
 2768 01ce E8000000 		call	__cxa_end_catch@PLT
 2768      00
 2769              	.LEHE108:
 2770 01d3 E9000000 		jmp	.L203
 2770      00
 2771              	.L199:
 2772 01d8 E8000000 		call	__cxa_begin_catch@PLT
 2772      00
 2773              	.LEHB109:
 2774 01dd E8000000 		call	_ZN8UnitTest11CurrentTest7ResultsEv@PLT
 2774      00
 2775 01e2 4C8B28   		movq	(%rax), %r13
 2776 01e5 E8000000 		call	_ZN8UnitTest11CurrentTest7DetailsEv@PLT
 2776      00
 2777 01ea 488B30   		movq	(%rax), %rsi
 2778 01ed BA510000 		movl	$81, %edx
 2778      00
 2779 01f2 4889EF   		movq	%rbp, %rdi
 2780 01f5 E8000000 		call	_ZN8UnitTest11TestDetailsC1ERKS0_i@PLT
 2780      00
 2781 01fa 488D1500 		leaq	.LC5(%rip), %rdx
 2781      000000
 2782 0201 4889EE   		movq	%rbp, %rsi
 2783 0204 4C89EF   		movq	%r13, %rdi
 2784 0207 E8000000 		call	_ZN8UnitTest11TestResults13OnTestFailureERKNS_11TestDetailsEPKc@PLT
 2784      00
 2785              	.LEHE109:
 2786              	.LEHB110:
 2787 020c E8000000 		call	__cxa_end_catch@PLT
 2787      00
 2788              	.LEHE110:
 2789 0211 E9000000 		jmp	.L200
 2789      00
 2790              	.L300:
 2791 0216 F30F1EFA 		endbr64
 2792 021a 4889C5   		movq	%rax, %rbp
 2793 021d E8000000 		call	__cxa_end_catch@PLT
 2793      00
 2794 0222 4889EF   		movq	%rbp, %rdi
 2795              	.LEHB111:
 2796 0225 E8000000 		call	_Unwind_Resume@PLT
 2796      00
 2797              	.LEHE111:
 2798              	.L298:
 2799 022a F30F1EFA 		endbr64
 2800 022e 4889C5   		movq	%rax, %rbp
 2801 0231 E8000000 		call	__cxa_end_catch@PLT
 2801      00
 2802 0236 4889EF   		movq	%rbp, %rdi
 2803              	.LEHB112:
 2804 0239 E8000000 		call	_Unwind_Resume@PLT
 2804      00
 2805              	.LEHE112:
 2806              	.L196:
 2807 023e E8000000 		call	__cxa_begin_catch@PLT
 2807      00
 2808              	.LEHB113:
 2809 0243 E8000000 		call	_ZN8UnitTest11CurrentTest7ResultsEv@PLT
 2809      00
 2810 0248 4C8B28   		movq	(%rax), %r13
 2811 024b E8000000 		call	_ZN8UnitTest11CurrentTest7DetailsEv@PLT
 2811      00
 2812 0250 488B30   		movq	(%rax), %rsi
 2813 0253 BA4F0000 		movl	$79, %edx
 2813      00
 2814 0258 4889EF   		movq	%rbp, %rdi
 2815 025b E8000000 		call	_ZN8UnitTest11TestDetailsC1ERKS0_i@PLT
 2815      00
 2816 0260 488D1500 		leaq	.LC18(%rip), %rdx
 2816      000000
 2817 0267 4889EE   		movq	%rbp, %rsi
 2818 026a 4C89EF   		movq	%r13, %rdi
 2819 026d E8000000 		call	_ZN8UnitTest11TestResults13OnTestFailureERKNS_11TestDetailsEPKc@PLT
 2819      00
 2820              	.LEHE113:
 2821              	.LEHB114:
 2822 0272 E8000000 		call	__cxa_end_catch@PLT
 2822      00
 2823              	.LEHE114:
 2824 0277 E9000000 		jmp	.L197
 2824      00
 2825              	.L193:
 2826 027c E8000000 		call	__cxa_begin_catch@PLT
 2826      00
 2827              	.LEHB115:
 2828 0281 E8000000 		call	_ZN8UnitTest11CurrentTest7ResultsEv@PLT
 2828      00
 2829 0286 4C8B28   		movq	(%rax), %r13
 2830 0289 E8000000 		call	_ZN8UnitTest11CurrentTest7DetailsEv@PLT
 2830      00
 2831 028e 488B30   		movq	(%rax), %rsi
 2832 0291 BA4E0000 		movl	$78, %edx
 2832      00
 2833 0296 4889EF   		movq	%rbp, %rdi
 2834 0299 E8000000 		call	_ZN8UnitTest11TestDetailsC1ERKS0_i@PLT
 2834      00
 2835 029e 488D1500 		leaq	.LC5(%rip), %rdx
 2835      000000
 2836 02a5 4889EE   		movq	%rbp, %rsi
 2837 02a8 4C89EF   		movq	%r13, %rdi
 2838 02ab E8000000 		call	_ZN8UnitTest11TestResults13OnTestFailureERKNS_11TestDetailsEPKc@PLT
 2838      00
 2839              	.LEHE115:
 2840              	.LEHB116:
 2841 02b0 E8000000 		call	__cxa_end_catch@PLT
 2841      00
 2842              	.LEHE116:
 2843 02b5 E9000000 		jmp	.L194
 2843      00
 2844              	.L296:
 2845 02ba F30F1EFA 		endbr64
 2846 02be 4889C5   		movq	%rax, %rbp
 2847 02c1 E8000000 		call	__cxa_end_catch@PLT
 2847      00
 2848 02c6 4889EF   		movq	%rbp, %rdi
 2849              	.LEHB117:
 2850 02c9 E8000000 		call	_Unwind_Resume@PLT
 2850      00
 2851              	.LEHE117:
 2852              	.L294:
 2853 02ce F30F1EFA 		endbr64
 2854 02d2 4889C5   		movq	%rax, %rbp
 2855 02d5 E8000000 		call	__cxa_end_catch@PLT
 2855      00
 2856 02da 4889EF   		movq	%rbp, %rdi
 2857              	.LEHB118:
 2858 02dd E8000000 		call	_Unwind_Resume@PLT
 2858      00
 2859              	.LEHE118:
 2860              	.L190:
 2861 02e2 E8000000 		call	__cxa_begin_catch@PLT
 2861      00
 2862              	.LEHB119:
 2863 02e7 E8000000 		call	_ZN8UnitTest11CurrentTest7ResultsEv@PLT
 2863      00
 2864 02ec 4C8B28   		movq	(%rax), %r13
 2865 02ef E8000000 		call	_ZN8UnitTest11CurrentTest7DetailsEv@PLT
 2865      00
 2866 02f4 488B30   		movq	(%rax), %rsi
 2867 02f7 BA4C0000 		movl	$76, %edx
 2867      00
 2868 02fc 4889EF   		movq	%rbp, %rdi
 2869 02ff E8000000 		call	_ZN8UnitTest11TestDetailsC1ERKS0_i@PLT
 2869      00
 2870 0304 488D1500 		leaq	.LC17(%rip), %rdx
 2870      000000
 2871 030b 4889EE   		movq	%rbp, %rsi
 2872 030e 4C89EF   		movq	%r13, %rdi
 2873 0311 E8000000 		call	_ZN8UnitTest11TestResults13OnTestFailureERKNS_11TestDetailsEPKc@PLT
 2873      00
 2874              	.LEHE119:
 2875              	.LEHB120:
 2876 0316 E8000000 		call	__cxa_end_catch@PLT
 2876      00
 2877              	.LEHE120:
 2878 031b E9000000 		jmp	.L191
 2878      00
 2879              	.L187:
 2880 0320 E8000000 		call	__cxa_begin_catch@PLT
 2880      00
 2881              	.LEHB121:
 2882 0325 E8000000 		call	_ZN8UnitTest11CurrentTest7ResultsEv@PLT
 2882      00
 2883 032a 4C8B28   		movq	(%rax), %r13
 2884 032d E8000000 		call	_ZN8UnitTest11CurrentTest7DetailsEv@PLT
 2884      00
 2885 0332 488B30   		movq	(%rax), %rsi
 2886 0335 BA4B0000 		movl	$75, %edx
 2886      00
 2887 033a 4889EF   		movq	%rbp, %rdi
 2888 033d E8000000 		call	_ZN8UnitTest11TestDetailsC1ERKS0_i@PLT
 2888      00
 2889 0342 488D1500 		leaq	.LC5(%rip), %rdx
 2889      000000
 2890 0349 4889EE   		movq	%rbp, %rsi
 2891 034c 4C89EF   		movq	%r13, %rdi
 2892 034f E8000000 		call	_ZN8UnitTest11TestResults13OnTestFailureERKNS_11TestDetailsEPKc@PLT
 2892      00
 2893              	.LEHE121:
 2894              	.LEHB122:
 2895 0354 E8000000 		call	__cxa_end_catch@PLT
 2895      00
 2896              	.LEHE122:
 2897 0359 E9000000 		jmp	.L188
 2897      00
 2898              	.L292:
 2899 035e F30F1EFA 		endbr64
 2900 0362 4889C5   		movq	%rax, %rbp
 2901 0365 E8000000 		call	__cxa_end_catch@PLT
 2901      00
 2902 036a 4889EF   		movq	%rbp, %rdi
 2903              	.LEHB123:
 2904 036d E8000000 		call	_Unwind_Resume@PLT
 2904      00
 2905              	.LEHE123:
 2906              	.L290:
 2907 0372 F30F1EFA 		endbr64
 2908 0376 4889C5   		movq	%rax, %rbp
 2909 0379 E8000000 		call	__cxa_end_catch@PLT
 2909      00
 2910 037e 4889EF   		movq	%rbp, %rdi
 2911              	.LEHB124:
 2912 0381 E8000000 		call	_Unwind_Resume@PLT
 2912      00
 2913              	.LEHE124:
 2914              	.L184:
 2915 0386 E8000000 		call	__cxa_begin_catch@PLT
 2915      00
 2916              	.LEHB125:
 2917 038b E8000000 		call	_ZN8UnitTest11CurrentTest7ResultsEv@PLT
 2917      00
 2918 0390 4C8B28   		movq	(%rax), %r13
 2919 0393 E8000000 		call	_ZN8UnitTest11CurrentTest7DetailsEv@PLT
 2919      00
 2920 0398 488B30   		movq	(%rax), %rsi
 2921 039b BA490000 		movl	$73, %edx
 2921      00
 2922 03a0 4889EF   		movq	%rbp, %rdi
 2923 03a3 E8000000 		call	_ZN8UnitTest11TestDetailsC1ERKS0_i@PLT
 2923      00
 2924 03a8 488D1500 		leaq	.LC16(%rip), %rdx
 2924      000000
 2925 03af 4889EE   		movq	%rbp, %rsi
 2926 03b2 4C89EF   		movq	%r13, %rdi
 2927 03b5 E8000000 		call	_ZN8UnitTest11TestResults13OnTestFailureERKNS_11TestDetailsEPKc@PLT
 2927      00
 2928              	.LEHE125:
 2929              	.LEHB126:
 2930 03ba E8000000 		call	__cxa_end_catch@PLT
 2930      00
 2931              	.LEHE126:
 2932 03bf E9000000 		jmp	.L185
 2932      00
 2933              	.L181:
 2934 03c4 E8000000 		call	__cxa_begin_catch@PLT
 2934      00
 2935              	.LEHB127:
 2936 03c9 E8000000 		call	_ZN8UnitTest11CurrentTest7ResultsEv@PLT
 2936      00
 2937 03ce 4C8B28   		movq	(%rax), %r13
 2938 03d1 E8000000 		call	_ZN8UnitTest11CurrentTest7DetailsEv@PLT
 2938      00
 2939 03d6 488B30   		movq	(%rax), %rsi
 2940 03d9 BA480000 		movl	$72, %edx
 2940      00
 2941 03de 4889EF   		movq	%rbp, %rdi
 2942 03e1 E8000000 		call	_ZN8UnitTest11TestDetailsC1ERKS0_i@PLT
 2942      00
 2943 03e6 488D1500 		leaq	.LC5(%rip), %rdx
 2943      000000
 2944 03ed 4889EE   		movq	%rbp, %rsi
 2945 03f0 4C89EF   		movq	%r13, %rdi
 2946 03f3 E8000000 		call	_ZN8UnitTest11TestResults13OnTestFailureERKNS_11TestDetailsEPKc@PLT
 2946      00
 2947              	.LEHE127:
 2948              	.LEHB128:
 2949 03f8 E8000000 		call	__cxa_end_catch@PLT
 2949      00
 2950              	.LEHE128:
 2951 03fd E9000000 		jmp	.L182
 2951      00
 2952              	.L288:
 2953 0402 F30F1EFA 		endbr64
 2954 0406 4889C5   		movq	%rax, %rbp
 2955 0409 E8000000 		call	__cxa_end_catch@PLT
 2955      00
 2956 040e 4889EF   		movq	%rbp, %rdi
 2957              	.LEHB129:
 2958 0411 E8000000 		call	_Unwind_Resume@PLT
 2958      00
 2959              	.LEHE129:
 2960              	.L286:
 2961 0416 F30F1EFA 		endbr64
 2962 041a 4889C5   		movq	%rax, %rbp
 2963 041d E8000000 		call	__cxa_end_catch@PLT
 2963      00
 2964 0422 4889EF   		movq	%rbp, %rdi
 2965              	.LEHB130:
 2966 0425 E8000000 		call	_Unwind_Resume@PLT
 2966      00
 2967              	.LEHE130:
 2968              	.L178:
 2969 042a E8000000 		call	__cxa_begin_catch@PLT
 2969      00
 2970              	.LEHB131:
 2971 042f E8000000 		call	_ZN8UnitTest11CurrentTest7ResultsEv@PLT
 2971      00
 2972 0434 4C8B28   		movq	(%rax), %r13
 2973 0437 E8000000 		call	_ZN8UnitTest11CurrentTest7DetailsEv@PLT
 2973      00
 2974 043c 488B30   		movq	(%rax), %rsi
 2975 043f BA460000 		movl	$70, %edx
 2975      00
 2976 0444 4889EF   		movq	%rbp, %rdi
 2977 0447 E8000000 		call	_ZN8UnitTest11TestDetailsC1ERKS0_i@PLT
 2977      00
 2978 044c 488D1500 		leaq	.LC21(%rip), %rdx
 2978      000000
 2979 0453 4889EE   		movq	%rbp, %rsi
 2980 0456 4C89EF   		movq	%r13, %rdi
 2981 0459 E8000000 		call	_ZN8UnitTest11TestResults13OnTestFailureERKNS_11TestDetailsEPKc@PLT
 2981      00
 2982              	.LEHE131:
 2983              	.LEHB132:
 2984 045e E8000000 		call	__cxa_end_catch@PLT
 2984      00
 2985              	.LEHE132:
 2986 0463 E9000000 		jmp	.L179
 2986      00
 2987              	.L175:
 2988 0468 E8000000 		call	__cxa_begin_catch@PLT
 2988      00
 2989              	.LEHB133:
 2990 046d E8000000 		call	_ZN8UnitTest11CurrentTest7ResultsEv@PLT
 2990      00
 2991 0472 4C8B28   		movq	(%rax), %r13
 2992 0475 E8000000 		call	_ZN8UnitTest11CurrentTest7DetailsEv@PLT
 2992      00
 2993 047a 488B30   		movq	(%rax), %rsi
 2994 047d BA450000 		movl	$69, %edx
 2994      00
 2995 0482 4889EF   		movq	%rbp, %rdi
 2996 0485 E8000000 		call	_ZN8UnitTest11TestDetailsC1ERKS0_i@PLT
 2996      00
 2997 048a 488D1500 		leaq	.LC5(%rip), %rdx
 2997      000000
 2998 0491 4889EE   		movq	%rbp, %rsi
 2999 0494 4C89EF   		movq	%r13, %rdi
 3000 0497 E8000000 		call	_ZN8UnitTest11TestResults13OnTestFailureERKNS_11TestDetailsEPKc@PLT
 3000      00
 3001              	.LEHE133:
 3002              	.LEHB134:
 3003 049c E8000000 		call	__cxa_end_catch@PLT
 3003      00
 3004              	.LEHE134:
 3005 04a1 E9000000 		jmp	.L176
 3005      00
 3006              	.L284:
 3007 04a6 F30F1EFA 		endbr64
 3008 04aa 4889C5   		movq	%rax, %rbp
 3009 04ad E8000000 		call	__cxa_end_catch@PLT
 3009      00
 3010 04b2 4889EF   		movq	%rbp, %rdi
 3011              	.LEHB135:
 3012 04b5 E8000000 		call	_Unwind_Resume@PLT
 3012      00
 3013              	.LEHE135:
 3014              	.L282:
 3015 04ba F30F1EFA 		endbr64
 3016 04be 4889C5   		movq	%rax, %rbp
 3017 04c1 E8000000 		call	__cxa_end_catch@PLT
 3017      00
 3018 04c6 4889EF   		movq	%rbp, %rdi
 3019              	.LEHB136:
 3020 04c9 E8000000 		call	_Unwind_Resume@PLT
 3020      00
 3021              	.LEHE136:
 3022              	.L172:
 3023 04ce E8000000 		call	__cxa_begin_catch@PLT
 3023      00
 3024              	.LEHB137:
 3025 04d3 E8000000 		call	_ZN8UnitTest11CurrentTest7ResultsEv@PLT
 3025      00
 3026 04d8 4C8B28   		movq	(%rax), %r13
 3027 04db E8000000 		call	_ZN8UnitTest11CurrentTest7DetailsEv@PLT
 3027      00
 3028 04e0 488B30   		movq	(%rax), %rsi
 3029 04e3 BA430000 		movl	$67, %edx
 3029      00
 3030 04e8 4889EF   		movq	%rbp, %rdi
 3031 04eb E8000000 		call	_ZN8UnitTest11TestDetailsC1ERKS0_i@PLT
 3031      00
 3032 04f0 488D1500 		leaq	.LC20(%rip), %rdx
 3032      000000
 3033 04f7 4889EE   		movq	%rbp, %rsi
 3034 04fa 4C89EF   		movq	%r13, %rdi
 3035 04fd E8000000 		call	_ZN8UnitTest11TestResults13OnTestFailureERKNS_11TestDetailsEPKc@PLT
 3035      00
 3036              	.LEHE137:
 3037              	.LEHB138:
 3038 0502 E8000000 		call	__cxa_end_catch@PLT
 3038      00
 3039              	.LEHE138:
 3040 0507 E9000000 		jmp	.L173
 3040      00
 3041              	.L169:
 3042 050c E8000000 		call	__cxa_begin_catch@PLT
 3042      00
 3043              	.LEHB139:
 3044 0511 E8000000 		call	_ZN8UnitTest11CurrentTest7ResultsEv@PLT
 3044      00
 3045 0516 4C8B28   		movq	(%rax), %r13
 3046 0519 E8000000 		call	_ZN8UnitTest11CurrentTest7DetailsEv@PLT
 3046      00
 3047 051e 488B30   		movq	(%rax), %rsi
 3048 0521 BA420000 		movl	$66, %edx
 3048      00
 3049 0526 4889EF   		movq	%rbp, %rdi
 3050 0529 E8000000 		call	_ZN8UnitTest11TestDetailsC1ERKS0_i@PLT
 3050      00
 3051 052e 488D1500 		leaq	.LC5(%rip), %rdx
 3051      000000
 3052 0535 4889EE   		movq	%rbp, %rsi
 3053 0538 4C89EF   		movq	%r13, %rdi
 3054 053b E8000000 		call	_ZN8UnitTest11TestResults13OnTestFailureERKNS_11TestDetailsEPKc@PLT
 3054      00
 3055              	.LEHE139:
 3056              	.LEHB140:
 3057 0540 E8000000 		call	__cxa_end_catch@PLT
 3057      00
 3058              	.LEHE140:
 3059 0545 E9000000 		jmp	.L170
 3059      00
 3060              	.L280:
 3061 054a F30F1EFA 		endbr64
 3062 054e 4889C5   		movq	%rax, %rbp
 3063 0551 E8000000 		call	__cxa_end_catch@PLT
 3063      00
 3064 0556 4889EF   		movq	%rbp, %rdi
 3065              	.LEHB141:
 3066 0559 E8000000 		call	_Unwind_Resume@PLT
 3066      00
 3067              	.LEHE141:
 3068              	.L278:
 3069 055e F30F1EFA 		endbr64
 3070 0562 4889C5   		movq	%rax, %rbp
 3071 0565 E8000000 		call	__cxa_end_catch@PLT
 3071      00
 3072 056a 4889EF   		movq	%rbp, %rdi
 3073              	.LEHB142:
 3074 056d E8000000 		call	_Unwind_Resume@PLT
 3074      00
 3075              	.LEHE142:
 3076              	.L166:
 3077 0572 E8000000 		call	__cxa_begin_catch@PLT
 3077      00
 3078              	.LEHB143:
 3079 0577 E8000000 		call	_ZN8UnitTest11CurrentTest7ResultsEv@PLT
 3079      00
 3080 057c 4C8B28   		movq	(%rax), %r13
 3081 057f E8000000 		call	_ZN8UnitTest11CurrentTest7DetailsEv@PLT
 3081      00
 3082 0584 488B30   		movq	(%rax), %rsi
 3083 0587 BA400000 		movl	$64, %edx
 3083      00
 3084 058c 4889EF   		movq	%rbp, %rdi
 3085 058f E8000000 		call	_ZN8UnitTest11TestDetailsC1ERKS0_i@PLT
 3085      00
 3086 0594 488D1500 		leaq	.LC19(%rip), %rdx
 3086      000000
 3087 059b 4889EE   		movq	%rbp, %rsi
 3088 059e 4C89EF   		movq	%r13, %rdi
 3089 05a1 E8000000 		call	_ZN8UnitTest11TestResults13OnTestFailureERKNS_11TestDetailsEPKc@PLT
 3089      00
 3090              	.LEHE143:
 3091              	.LEHB144:
 3092 05a6 E8000000 		call	__cxa_end_catch@PLT
 3092      00
 3093              	.LEHE144:
 3094 05ab E9000000 		jmp	.L167
 3094      00
 3095              	.L163:
 3096 05b0 E8000000 		call	__cxa_begin_catch@PLT
 3096      00
 3097              	.LEHB145:
 3098 05b5 E8000000 		call	_ZN8UnitTest11CurrentTest7ResultsEv@PLT
 3098      00
 3099 05ba 4C8B28   		movq	(%rax), %r13
 3100 05bd E8000000 		call	_ZN8UnitTest11CurrentTest7DetailsEv@PLT
 3100      00
 3101 05c2 488B30   		movq	(%rax), %rsi
 3102 05c5 BA3F0000 		movl	$63, %edx
 3102      00
 3103 05ca 4889EF   		movq	%rbp, %rdi
 3104 05cd E8000000 		call	_ZN8UnitTest11TestDetailsC1ERKS0_i@PLT
 3104      00
 3105 05d2 488D1500 		leaq	.LC5(%rip), %rdx
 3105      000000
 3106 05d9 4889EE   		movq	%rbp, %rsi
 3107 05dc 4C89EF   		movq	%r13, %rdi
 3108 05df E8000000 		call	_ZN8UnitTest11TestResults13OnTestFailureERKNS_11TestDetailsEPKc@PLT
 3108      00
 3109              	.LEHE145:
 3110              	.LEHB146:
 3111 05e4 E8000000 		call	__cxa_end_catch@PLT
 3111      00
 3112              	.LEHE146:
 3113 05e9 E9000000 		jmp	.L164
 3113      00
 3114              	.L276:
 3115 05ee F30F1EFA 		endbr64
 3116 05f2 4889C5   		movq	%rax, %rbp
 3117 05f5 E8000000 		call	__cxa_end_catch@PLT
 3117      00
 3118 05fa 4889EF   		movq	%rbp, %rdi
 3119              	.LEHB147:
 3120 05fd E8000000 		call	_Unwind_Resume@PLT
 3120      00
 3121              	.LEHE147:
 3122              	.L274:
 3123 0602 F30F1EFA 		endbr64
 3124 0606 4889C5   		movq	%rax, %rbp
 3125 0609 E8000000 		call	__cxa_end_catch@PLT
 3125      00
 3126 060e 4889EF   		movq	%rbp, %rdi
 3127              	.LEHB148:
 3128 0611 E8000000 		call	_Unwind_Resume@PLT
 3128      00
 3129              	.LEHE148:
 3130              	.L160:
 3131 0616 E8000000 		call	__cxa_begin_catch@PLT
 3131      00
 3132              	.LEHB149:
 3133 061b E8000000 		call	_ZN8UnitTest11CurrentTest7ResultsEv@PLT
 3133      00
 3134 0620 4C8B28   		movq	(%rax), %r13
 3135 0623 E8000000 		call	_ZN8UnitTest11CurrentTest7DetailsEv@PLT
 3135      00
 3136 0628 488B30   		movq	(%rax), %rsi
 3137 062b BA3D0000 		movl	$61, %edx
 3137      00
 3138 0630 4889EF   		movq	%rbp, %rdi
 3139 0633 E8000000 		call	_ZN8UnitTest11TestDetailsC1ERKS0_i@PLT
 3139      00
 3140 0638 488D1500 		leaq	.LC18(%rip), %rdx
 3140      000000
 3141 063f 4889EE   		movq	%rbp, %rsi
 3142 0642 4C89EF   		movq	%r13, %rdi
 3143 0645 E8000000 		call	_ZN8UnitTest11TestResults13OnTestFailureERKNS_11TestDetailsEPKc@PLT
 3143      00
 3144              	.LEHE149:
 3145              	.LEHB150:
 3146 064a E8000000 		call	__cxa_end_catch@PLT
 3146      00
 3147              	.LEHE150:
 3148 064f E9000000 		jmp	.L161
 3148      00
 3149              	.L157:
 3150 0654 E8000000 		call	__cxa_begin_catch@PLT
 3150      00
 3151              	.LEHB151:
 3152 0659 E8000000 		call	_ZN8UnitTest11CurrentTest7ResultsEv@PLT
 3152      00
 3153 065e 4C8B28   		movq	(%rax), %r13
 3154 0661 E8000000 		call	_ZN8UnitTest11CurrentTest7DetailsEv@PLT
 3154      00
 3155 0666 488B30   		movq	(%rax), %rsi
 3156 0669 BA3C0000 		movl	$60, %edx
 3156      00
 3157 066e 4889EF   		movq	%rbp, %rdi
 3158 0671 E8000000 		call	_ZN8UnitTest11TestDetailsC1ERKS0_i@PLT
 3158      00
 3159 0676 488D1500 		leaq	.LC5(%rip), %rdx
 3159      000000
 3160 067d 4889EE   		movq	%rbp, %rsi
 3161 0680 4C89EF   		movq	%r13, %rdi
 3162 0683 E8000000 		call	_ZN8UnitTest11TestResults13OnTestFailureERKNS_11TestDetailsEPKc@PLT
 3162      00
 3163              	.LEHE151:
 3164              	.LEHB152:
 3165 0688 E8000000 		call	__cxa_end_catch@PLT
 3165      00
 3166              	.LEHE152:
 3167 068d E9000000 		jmp	.L158
 3167      00
 3168              	.L272:
 3169 0692 F30F1EFA 		endbr64
 3170 0696 4889C5   		movq	%rax, %rbp
 3171 0699 E8000000 		call	__cxa_end_catch@PLT
 3171      00
 3172 069e 4889EF   		movq	%rbp, %rdi
 3173              	.LEHB153:
 3174 06a1 E8000000 		call	_Unwind_Resume@PLT
 3174      00
 3175              	.LEHE153:
 3176              	.L270:
 3177 06a6 F30F1EFA 		endbr64
 3178 06aa 4889C5   		movq	%rax, %rbp
 3179 06ad E8000000 		call	__cxa_end_catch@PLT
 3179      00
 3180 06b2 4889EF   		movq	%rbp, %rdi
 3181              	.LEHB154:
 3182 06b5 E8000000 		call	_Unwind_Resume@PLT
 3182      00
 3183              	.LEHE154:
 3184              	.L154:
 3185 06ba E8000000 		call	__cxa_begin_catch@PLT
 3185      00
 3186              	.LEHB155:
 3187 06bf E8000000 		call	_ZN8UnitTest11CurrentTest7ResultsEv@PLT
 3187      00
 3188 06c4 4C8B28   		movq	(%rax), %r13
 3189 06c7 E8000000 		call	_ZN8UnitTest11CurrentTest7DetailsEv@PLT
 3189      00
 3190 06cc 488B30   		movq	(%rax), %rsi
 3191 06cf BA3A0000 		movl	$58, %edx
 3191      00
 3192 06d4 4889EF   		movq	%rbp, %rdi
 3193 06d7 E8000000 		call	_ZN8UnitTest11TestDetailsC1ERKS0_i@PLT
 3193      00
 3194 06dc 488D1500 		leaq	.LC17(%rip), %rdx
 3194      000000
 3195 06e3 4889EE   		movq	%rbp, %rsi
 3196 06e6 4C89EF   		movq	%r13, %rdi
 3197 06e9 E8000000 		call	_ZN8UnitTest11TestResults13OnTestFailureERKNS_11TestDetailsEPKc@PLT
 3197      00
 3198              	.LEHE155:
 3199              	.LEHB156:
 3200 06ee E8000000 		call	__cxa_end_catch@PLT
 3200      00
 3201              	.LEHE156:
 3202 06f3 E9000000 		jmp	.L155
 3202      00
 3203              	.L151:
 3204 06f8 E8000000 		call	__cxa_begin_catch@PLT
 3204      00
 3205              	.LEHB157:
 3206 06fd E8000000 		call	_ZN8UnitTest11CurrentTest7ResultsEv@PLT
 3206      00
 3207 0702 4C8B28   		movq	(%rax), %r13
 3208 0705 E8000000 		call	_ZN8UnitTest11CurrentTest7DetailsEv@PLT
 3208      00
 3209 070a 488B30   		movq	(%rax), %rsi
 3210 070d BA390000 		movl	$57, %edx
 3210      00
 3211 0712 4889EF   		movq	%rbp, %rdi
 3212 0715 E8000000 		call	_ZN8UnitTest11TestDetailsC1ERKS0_i@PLT
 3212      00
 3213 071a 488D1500 		leaq	.LC5(%rip), %rdx
 3213      000000
 3214 0721 4889EE   		movq	%rbp, %rsi
 3215 0724 4C89EF   		movq	%r13, %rdi
 3216 0727 E8000000 		call	_ZN8UnitTest11TestResults13OnTestFailureERKNS_11TestDetailsEPKc@PLT
 3216      00
 3217              	.LEHE157:
 3218              	.LEHB158:
 3219 072c E8000000 		call	__cxa_end_catch@PLT
 3219      00
 3220              	.LEHE158:
 3221 0731 E9000000 		jmp	.L152
 3221      00
 3222              	.L268:
 3223 0736 F30F1EFA 		endbr64
 3224 073a 4889C5   		movq	%rax, %rbp
 3225 073d E8000000 		call	__cxa_end_catch@PLT
 3225      00
 3226 0742 4889EF   		movq	%rbp, %rdi
 3227              	.LEHB159:
 3228 0745 E8000000 		call	_Unwind_Resume@PLT
 3228      00
 3229              	.LEHE159:
 3230              	.L266:
 3231 074a F30F1EFA 		endbr64
 3232 074e 4889C5   		movq	%rax, %rbp
 3233 0751 E8000000 		call	__cxa_end_catch@PLT
 3233      00
 3234 0756 4889EF   		movq	%rbp, %rdi
 3235              	.LEHB160:
 3236 0759 E8000000 		call	_Unwind_Resume@PLT
 3236      00
 3237              	.LEHE160:
 3238              	.L148:
 3239 075e E8000000 		call	__cxa_begin_catch@PLT
 3239      00
 3240              	.LEHB161:
 3241 0763 E8000000 		call	_ZN8UnitTest11CurrentTest7ResultsEv@PLT
 3241      00
 3242 0768 4C8B28   		movq	(%rax), %r13
 3243 076b E8000000 		call	_ZN8UnitTest11CurrentTest7DetailsEv@PLT
 3243      00
 3244 0770 488B30   		movq	(%rax), %rsi
 3245 0773 BA370000 		movl	$55, %edx
 3245      00
 3246 0778 4889EF   		movq	%rbp, %rdi
 3247 077b E8000000 		call	_ZN8UnitTest11TestDetailsC1ERKS0_i@PLT
 3247      00
 3248 0780 488D1500 		leaq	.LC16(%rip), %rdx
 3248      000000
 3249 0787 4889EE   		movq	%rbp, %rsi
 3250 078a 4C89EF   		movq	%r13, %rdi
 3251 078d E8000000 		call	_ZN8UnitTest11TestResults13OnTestFailureERKNS_11TestDetailsEPKc@PLT
 3251      00
 3252              	.LEHE161:
 3253              	.LEHB162:
 3254 0792 E8000000 		call	__cxa_end_catch@PLT
 3254      00
 3255              	.LEHE162:
 3256 0797 E9000000 		jmp	.L149
 3256      00
 3257              	.L145:
 3258 079c E8000000 		call	__cxa_begin_catch@PLT
 3258      00
 3259              	.LEHB163:
 3260 07a1 E8000000 		call	_ZN8UnitTest11CurrentTest7ResultsEv@PLT
 3260      00
 3261 07a6 4C8B28   		movq	(%rax), %r13
 3262 07a9 E8000000 		call	_ZN8UnitTest11CurrentTest7DetailsEv@PLT
 3262      00
 3263 07ae 488B30   		movq	(%rax), %rsi
 3264 07b1 BA360000 		movl	$54, %edx
 3264      00
 3265 07b6 4889EF   		movq	%rbp, %rdi
 3266 07b9 E8000000 		call	_ZN8UnitTest11TestDetailsC1ERKS0_i@PLT
 3266      00
 3267 07be 488D1500 		leaq	.LC5(%rip), %rdx
 3267      000000
 3268 07c5 4889EE   		movq	%rbp, %rsi
 3269 07c8 4C89EF   		movq	%r13, %rdi
 3270 07cb E8000000 		call	_ZN8UnitTest11TestResults13OnTestFailureERKNS_11TestDetailsEPKc@PLT
 3270      00
 3271              	.LEHE163:
 3272              	.LEHB164:
 3273 07d0 E8000000 		call	__cxa_end_catch@PLT
 3273      00
 3274              	.LEHE164:
 3275 07d5 E9000000 		jmp	.L146
 3275      00
 3276              	.L264:
 3277 07da F30F1EFA 		endbr64
 3278 07de 4889C5   		movq	%rax, %rbp
 3279 07e1 E8000000 		call	__cxa_end_catch@PLT
 3279      00
 3280 07e6 4889EF   		movq	%rbp, %rdi
 3281              	.LEHB165:
 3282 07e9 E8000000 		call	_Unwind_Resume@PLT
 3282      00
 3283              	.LEHE165:
 3284              	.L262:
 3285 07ee F30F1EFA 		endbr64
 3286 07f2 4889C5   		movq	%rax, %rbp
 3287 07f5 E8000000 		call	__cxa_end_catch@PLT
 3287      00
 3288 07fa 4889EF   		movq	%rbp, %rdi
 3289              	.LEHB166:
 3290 07fd E8000000 		call	_Unwind_Resume@PLT
 3290      00
 3291              	.LEHE166:
 3292              	.L142:
 3293 0802 E8000000 		call	__cxa_begin_catch@PLT
 3293      00
 3294              	.LEHB167:
 3295 0807 E8000000 		call	_ZN8UnitTest11CurrentTest7ResultsEv@PLT
 3295      00
 3296 080c 4C8B28   		movq	(%rax), %r13
 3297 080f E8000000 		call	_ZN8UnitTest11CurrentTest7DetailsEv@PLT
 3297      00
 3298 0814 488B30   		movq	(%rax), %rsi
 3299 0817 BA340000 		movl	$52, %edx
 3299      00
 3300 081c 4889EF   		movq	%rbp, %rdi
 3301 081f E8000000 		call	_ZN8UnitTest11TestDetailsC1ERKS0_i@PLT
 3301      00
 3302 0824 488D1500 		leaq	.LC15(%rip), %rdx
 3302      000000
 3303 082b 4889EE   		movq	%rbp, %rsi
 3304 082e 4C89EF   		movq	%r13, %rdi
 3305 0831 E8000000 		call	_ZN8UnitTest11TestResults13OnTestFailureERKNS_11TestDetailsEPKc@PLT
 3305      00
 3306              	.LEHE167:
 3307              	.LEHB168:
 3308 0836 E8000000 		call	__cxa_end_catch@PLT
 3308      00
 3309              	.LEHE168:
 3310 083b E9000000 		jmp	.L143
 3310      00
 3311              	.L139:
 3312 0840 E8000000 		call	__cxa_begin_catch@PLT
 3312      00
 3313              	.LEHB169:
 3314 0845 E8000000 		call	_ZN8UnitTest11CurrentTest7ResultsEv@PLT
 3314      00
 3315 084a 4C8B28   		movq	(%rax), %r13
 3316 084d E8000000 		call	_ZN8UnitTest11CurrentTest7DetailsEv@PLT
 3316      00
 3317 0852 488B30   		movq	(%rax), %rsi
 3318 0855 BA330000 		movl	$51, %edx
 3318      00
 3319 085a 4889EF   		movq	%rbp, %rdi
 3320 085d E8000000 		call	_ZN8UnitTest11TestDetailsC1ERKS0_i@PLT
 3320      00
 3321 0862 488D1500 		leaq	.LC5(%rip), %rdx
 3321      000000
 3322 0869 4889EE   		movq	%rbp, %rsi
 3323 086c 4C89EF   		movq	%r13, %rdi
 3324 086f E8000000 		call	_ZN8UnitTest11TestResults13OnTestFailureERKNS_11TestDetailsEPKc@PLT
 3324      00
 3325              	.LEHE169:
 3326              	.LEHB170:
 3327 0874 E8000000 		call	__cxa_end_catch@PLT
 3327      00
 3328              	.LEHE170:
 3329 0879 E9000000 		jmp	.L140
 3329      00
 3330              	.L260:
 3331 087e F30F1EFA 		endbr64
 3332 0882 4889C5   		movq	%rax, %rbp
 3333 0885 E8000000 		call	__cxa_end_catch@PLT
 3333      00
 3334 088a 4889EF   		movq	%rbp, %rdi
 3335              	.LEHB171:
 3336 088d E8000000 		call	_Unwind_Resume@PLT
 3336      00
 3337              	.LEHE171:
 3338              	.L258:
 3339 0892 F30F1EFA 		endbr64
 3340 0896 4889C5   		movq	%rax, %rbp
 3341 0899 E8000000 		call	__cxa_end_catch@PLT
 3341      00
 3342 089e 4889EF   		movq	%rbp, %rdi
 3343              	.LEHB172:
 3344 08a1 E8000000 		call	_Unwind_Resume@PLT
 3344      00
 3345              	.LEHE172:
 3346              	.L136:
 3347 08a6 E8000000 		call	__cxa_begin_catch@PLT
 3347      00
 3348              	.LEHB173:
 3349 08ab E8000000 		call	_ZN8UnitTest11CurrentTest7ResultsEv@PLT
 3349      00
 3350 08b0 4C8B28   		movq	(%rax), %r13
 3351 08b3 E8000000 		call	_ZN8UnitTest11CurrentTest7DetailsEv@PLT
 3351      00
 3352 08b8 488B30   		movq	(%rax), %rsi
 3353 08bb BA310000 		movl	$49, %edx
 3353      00
 3354 08c0 4889EF   		movq	%rbp, %rdi
 3355 08c3 E8000000 		call	_ZN8UnitTest11TestDetailsC1ERKS0_i@PLT
 3355      00
 3356 08c8 488D1500 		leaq	.LC14(%rip), %rdx
 3356      000000
 3357 08cf 4889EE   		movq	%rbp, %rsi
 3358 08d2 4C89EF   		movq	%r13, %rdi
 3359 08d5 E8000000 		call	_ZN8UnitTest11TestResults13OnTestFailureERKNS_11TestDetailsEPKc@PLT
 3359      00
 3360              	.LEHE173:
 3361              	.LEHB174:
 3362 08da E8000000 		call	__cxa_end_catch@PLT
 3362      00
 3363              	.LEHE174:
 3364 08df E9000000 		jmp	.L137
 3364      00
 3365              	.L133:
 3366 08e4 E8000000 		call	__cxa_begin_catch@PLT
 3366      00
 3367              	.LEHB175:
 3368 08e9 E8000000 		call	_ZN8UnitTest11CurrentTest7ResultsEv@PLT
 3368      00
 3369 08ee 4C8B28   		movq	(%rax), %r13
 3370 08f1 E8000000 		call	_ZN8UnitTest11CurrentTest7DetailsEv@PLT
 3370      00
 3371 08f6 488B30   		movq	(%rax), %rsi
 3372 08f9 BA300000 		movl	$48, %edx
 3372      00
 3373 08fe 4889EF   		movq	%rbp, %rdi
 3374 0901 E8000000 		call	_ZN8UnitTest11TestDetailsC1ERKS0_i@PLT
 3374      00
 3375 0906 488D1500 		leaq	.LC5(%rip), %rdx
 3375      000000
 3376 090d 4889EE   		movq	%rbp, %rsi
 3377 0910 4C89EF   		movq	%r13, %rdi
 3378 0913 E8000000 		call	_ZN8UnitTest11TestResults13OnTestFailureERKNS_11TestDetailsEPKc@PLT
 3378      00
 3379              	.LEHE175:
 3380              	.LEHB176:
 3381 0918 E8000000 		call	__cxa_end_catch@PLT
 3381      00
 3382              	.LEHE176:
 3383 091d E9000000 		jmp	.L134
 3383      00
 3384              	.L256:
 3385 0922 F30F1EFA 		endbr64
 3386 0926 4889C5   		movq	%rax, %rbp
 3387 0929 E8000000 		call	__cxa_end_catch@PLT
 3387      00
 3388 092e 4889EF   		movq	%rbp, %rdi
 3389              	.LEHB177:
 3390 0931 E8000000 		call	_Unwind_Resume@PLT
 3390      00
 3391              	.LEHE177:
 3392              	.L254:
 3393 0936 F30F1EFA 		endbr64
 3394 093a 4889C5   		movq	%rax, %rbp
 3395 093d E8000000 		call	__cxa_end_catch@PLT
 3395      00
 3396 0942 4889EF   		movq	%rbp, %rdi
 3397              	.LEHB178:
 3398 0945 E8000000 		call	_Unwind_Resume@PLT
 3398      00
 3399              	.LEHE178:
 3400              	.L130:
 3401 094a E8000000 		call	__cxa_begin_catch@PLT
 3401      00
 3402              	.LEHB179:
 3403 094f E8000000 		call	_ZN8UnitTest11CurrentTest7ResultsEv@PLT
 3403      00
 3404 0954 4C8B28   		movq	(%rax), %r13
 3405 0957 E8000000 		call	_ZN8UnitTest11CurrentTest7DetailsEv@PLT
 3405      00
 3406 095c 488B30   		movq	(%rax), %rsi
 3407 095f BA2E0000 		movl	$46, %edx
 3407      00
 3408 0964 4889EF   		movq	%rbp, %rdi
 3409 0967 E8000000 		call	_ZN8UnitTest11TestDetailsC1ERKS0_i@PLT
 3409      00
 3410 096c 488D1500 		leaq	.LC13(%rip), %rdx
 3410      000000
 3411 0973 4889EE   		movq	%rbp, %rsi
 3412 0976 4C89EF   		movq	%r13, %rdi
 3413 0979 E8000000 		call	_ZN8UnitTest11TestResults13OnTestFailureERKNS_11TestDetailsEPKc@PLT
 3413      00
 3414              	.LEHE179:
 3415              	.LEHB180:
 3416 097e E8000000 		call	__cxa_end_catch@PLT
 3416      00
 3417              	.LEHE180:
 3418 0983 E9000000 		jmp	.L131
 3418      00
 3419              	.L127:
 3420 0988 E8000000 		call	__cxa_begin_catch@PLT
 3420      00
 3421              	.LEHB181:
 3422 098d E8000000 		call	_ZN8UnitTest11CurrentTest7ResultsEv@PLT
 3422      00
 3423 0992 4C8B28   		movq	(%rax), %r13
 3424 0995 E8000000 		call	_ZN8UnitTest11CurrentTest7DetailsEv@PLT
 3424      00
 3425 099a 488B30   		movq	(%rax), %rsi
 3426 099d BA2D0000 		movl	$45, %edx
 3426      00
 3427 09a2 4889EF   		movq	%rbp, %rdi
 3428 09a5 E8000000 		call	_ZN8UnitTest11TestDetailsC1ERKS0_i@PLT
 3428      00
 3429 09aa 488D1500 		leaq	.LC5(%rip), %rdx
 3429      000000
 3430 09b1 4889EE   		movq	%rbp, %rsi
 3431 09b4 4C89EF   		movq	%r13, %rdi
 3432 09b7 E8000000 		call	_ZN8UnitTest11TestResults13OnTestFailureERKNS_11TestDetailsEPKc@PLT
 3432      00
 3433              	.LEHE181:
 3434              	.LEHB182:
 3435 09bc E8000000 		call	__cxa_end_catch@PLT
 3435      00
 3436              	.LEHE182:
 3437 09c1 E9000000 		jmp	.L128
 3437      00
 3438              	.L252:
 3439 09c6 F30F1EFA 		endbr64
 3440 09ca 4889C5   		movq	%rax, %rbp
 3441 09cd E8000000 		call	__cxa_end_catch@PLT
 3441      00
 3442 09d2 4889EF   		movq	%rbp, %rdi
 3443              	.LEHB183:
 3444 09d5 E8000000 		call	_Unwind_Resume@PLT
 3444      00
 3445              	.LEHE183:
 3446              	.L250:
 3447 09da F30F1EFA 		endbr64
 3448 09de 4889C5   		movq	%rax, %rbp
 3449 09e1 E8000000 		call	__cxa_end_catch@PLT
 3449      00
 3450 09e6 4889EF   		movq	%rbp, %rdi
 3451              	.LEHB184:
 3452 09e9 E8000000 		call	_Unwind_Resume@PLT
 3452      00
 3453              	.LEHE184:
 3454              	.L124:
 3455 09ee E8000000 		call	__cxa_begin_catch@PLT
 3455      00
 3456              	.LEHB185:
 3457 09f3 E8000000 		call	_ZN8UnitTest11CurrentTest7ResultsEv@PLT
 3457      00
 3458 09f8 4C8B28   		movq	(%rax), %r13
 3459 09fb E8000000 		call	_ZN8UnitTest11CurrentTest7DetailsEv@PLT
 3459      00
 3460 0a00 488B30   		movq	(%rax), %rsi
 3461 0a03 BA2B0000 		movl	$43, %edx
 3461      00
 3462 0a08 4889EF   		movq	%rbp, %rdi
 3463 0a0b E8000000 		call	_ZN8UnitTest11TestDetailsC1ERKS0_i@PLT
 3463      00
 3464 0a10 488D1500 		leaq	.LC12(%rip), %rdx
 3464      000000
 3465 0a17 4889EE   		movq	%rbp, %rsi
 3466 0a1a 4C89EF   		movq	%r13, %rdi
 3467 0a1d E8000000 		call	_ZN8UnitTest11TestResults13OnTestFailureERKNS_11TestDetailsEPKc@PLT
 3467      00
 3468              	.LEHE185:
 3469              	.LEHB186:
 3470 0a22 E8000000 		call	__cxa_end_catch@PLT
 3470      00
 3471              	.LEHE186:
 3472 0a27 E9000000 		jmp	.L125
 3472      00
 3473              	.L121:
 3474 0a2c E8000000 		call	__cxa_begin_catch@PLT
 3474      00
 3475              	.LEHB187:
 3476 0a31 E8000000 		call	_ZN8UnitTest11CurrentTest7ResultsEv@PLT
 3476      00
 3477 0a36 4C8B28   		movq	(%rax), %r13
 3478 0a39 E8000000 		call	_ZN8UnitTest11CurrentTest7DetailsEv@PLT
 3478      00
 3479 0a3e 488B30   		movq	(%rax), %rsi
 3480 0a41 BA2A0000 		movl	$42, %edx
 3480      00
 3481 0a46 4889EF   		movq	%rbp, %rdi
 3482 0a49 E8000000 		call	_ZN8UnitTest11TestDetailsC1ERKS0_i@PLT
 3482      00
 3483 0a4e 488D1500 		leaq	.LC5(%rip), %rdx
 3483      000000
 3484 0a55 4889EE   		movq	%rbp, %rsi
 3485 0a58 4C89EF   		movq	%r13, %rdi
 3486 0a5b E8000000 		call	_ZN8UnitTest11TestResults13OnTestFailureERKNS_11TestDetailsEPKc@PLT
 3486      00
 3487              	.LEHE187:
 3488              	.LEHB188:
 3489 0a60 E8000000 		call	__cxa_end_catch@PLT
 3489      00
 3490              	.LEHE188:
 3491 0a65 E9000000 		jmp	.L122
 3491      00
 3492              	.L248:
 3493 0a6a F30F1EFA 		endbr64
 3494 0a6e 4889C5   		movq	%rax, %rbp
 3495 0a71 E8000000 		call	__cxa_end_catch@PLT
 3495      00
 3496 0a76 4889EF   		movq	%rbp, %rdi
 3497              	.LEHB189:
 3498 0a79 E8000000 		call	_Unwind_Resume@PLT
 3498      00
 3499              	.LEHE189:
 3500              	.L246:
 3501 0a7e F30F1EFA 		endbr64
 3502 0a82 4889C5   		movq	%rax, %rbp
 3503 0a85 E8000000 		call	__cxa_end_catch@PLT
 3503      00
 3504 0a8a 4889EF   		movq	%rbp, %rdi
 3505              	.LEHB190:
 3506 0a8d E8000000 		call	_Unwind_Resume@PLT
 3506      00
 3507              	.LEHE190:
 3508              	.L118:
 3509 0a92 E8000000 		call	__cxa_begin_catch@PLT
 3509      00
 3510              	.LEHB191:
 3511 0a97 E8000000 		call	_ZN8UnitTest11CurrentTest7ResultsEv@PLT
 3511      00
 3512 0a9c 4C8B28   		movq	(%rax), %r13
 3513 0a9f E8000000 		call	_ZN8UnitTest11CurrentTest7DetailsEv@PLT
 3513      00
 3514 0aa4 488B30   		movq	(%rax), %rsi
 3515 0aa7 BA280000 		movl	$40, %edx
 3515      00
 3516 0aac 4889EF   		movq	%rbp, %rdi
 3517 0aaf E8000000 		call	_ZN8UnitTest11TestDetailsC1ERKS0_i@PLT
 3517      00
 3518 0ab4 488D1500 		leaq	.LC11(%rip), %rdx
 3518      000000
 3519 0abb 4889EE   		movq	%rbp, %rsi
 3520 0abe 4C89EF   		movq	%r13, %rdi
 3521 0ac1 E8000000 		call	_ZN8UnitTest11TestResults13OnTestFailureERKNS_11TestDetailsEPKc@PLT
 3521      00
 3522              	.LEHE191:
 3523              	.LEHB192:
 3524 0ac6 E8000000 		call	__cxa_end_catch@PLT
 3524      00
 3525              	.LEHE192:
 3526 0acb E9000000 		jmp	.L119
 3526      00
 3527              	.L115:
 3528 0ad0 E8000000 		call	__cxa_begin_catch@PLT
 3528      00
 3529              	.LEHB193:
 3530 0ad5 E8000000 		call	_ZN8UnitTest11CurrentTest7ResultsEv@PLT
 3530      00
 3531 0ada 4C8B28   		movq	(%rax), %r13
 3532 0add E8000000 		call	_ZN8UnitTest11CurrentTest7DetailsEv@PLT
 3532      00
 3533 0ae2 488B30   		movq	(%rax), %rsi
 3534 0ae5 BA270000 		movl	$39, %edx
 3534      00
 3535 0aea 4889EF   		movq	%rbp, %rdi
 3536 0aed E8000000 		call	_ZN8UnitTest11TestDetailsC1ERKS0_i@PLT
 3536      00
 3537 0af2 488D1500 		leaq	.LC5(%rip), %rdx
 3537      000000
 3538 0af9 4889EE   		movq	%rbp, %rsi
 3539 0afc 4C89EF   		movq	%r13, %rdi
 3540 0aff E8000000 		call	_ZN8UnitTest11TestResults13OnTestFailureERKNS_11TestDetailsEPKc@PLT
 3540      00
 3541              	.LEHE193:
 3542              	.LEHB194:
 3543 0b04 E8000000 		call	__cxa_end_catch@PLT
 3543      00
 3544              	.LEHE194:
 3545 0b09 E9000000 		jmp	.L116
 3545      00
 3546              	.L244:
 3547 0b0e F30F1EFA 		endbr64
 3548 0b12 4889C5   		movq	%rax, %rbp
 3549 0b15 E8000000 		call	__cxa_end_catch@PLT
 3549      00
 3550 0b1a 4889EF   		movq	%rbp, %rdi
 3551              	.LEHB195:
 3552 0b1d E8000000 		call	_Unwind_Resume@PLT
 3552      00
 3553              	.LEHE195:
 3554              	.L242:
 3555 0b22 F30F1EFA 		endbr64
 3556 0b26 4889C5   		movq	%rax, %rbp
 3557 0b29 E8000000 		call	__cxa_end_catch@PLT
 3557      00
 3558 0b2e 4889EF   		movq	%rbp, %rdi
 3559              	.LEHB196:
 3560 0b31 E8000000 		call	_Unwind_Resume@PLT
 3560      00
 3561              	.LEHE196:
 3562              	.L112:
 3563 0b36 E8000000 		call	__cxa_begin_catch@PLT
 3563      00
 3564              	.LEHB197:
 3565 0b3b E8000000 		call	_ZN8UnitTest11CurrentTest7ResultsEv@PLT
 3565      00
 3566 0b40 4C8B28   		movq	(%rax), %r13
 3567 0b43 E8000000 		call	_ZN8UnitTest11CurrentTest7DetailsEv@PLT
 3567      00
 3568 0b48 488B30   		movq	(%rax), %rsi
 3569 0b4b BA250000 		movl	$37, %edx
 3569      00
 3570 0b50 4889EF   		movq	%rbp, %rdi
 3571 0b53 E8000000 		call	_ZN8UnitTest11TestDetailsC1ERKS0_i@PLT
 3571      00
 3572 0b58 488D1500 		leaq	.LC10(%rip), %rdx
 3572      000000
 3573 0b5f 4889EE   		movq	%rbp, %rsi
 3574 0b62 4C89EF   		movq	%r13, %rdi
 3575 0b65 E8000000 		call	_ZN8UnitTest11TestResults13OnTestFailureERKNS_11TestDetailsEPKc@PLT
 3575      00
 3576              	.LEHE197:
 3577              	.LEHB198:
 3578 0b6a E8000000 		call	__cxa_end_catch@PLT
 3578      00
 3579              	.LEHE198:
 3580 0b6f E9000000 		jmp	.L113
 3580      00
 3581              	.L109:
 3582 0b74 E8000000 		call	__cxa_begin_catch@PLT
 3582      00
 3583              	.LEHB199:
 3584 0b79 E8000000 		call	_ZN8UnitTest11CurrentTest7ResultsEv@PLT
 3584      00
 3585 0b7e 4C8B28   		movq	(%rax), %r13
 3586 0b81 E8000000 		call	_ZN8UnitTest11CurrentTest7DetailsEv@PLT
 3586      00
 3587 0b86 488B30   		movq	(%rax), %rsi
 3588 0b89 BA240000 		movl	$36, %edx
 3588      00
 3589 0b8e 4889EF   		movq	%rbp, %rdi
 3590 0b91 E8000000 		call	_ZN8UnitTest11TestDetailsC1ERKS0_i@PLT
 3590      00
 3591 0b96 488D1500 		leaq	.LC5(%rip), %rdx
 3591      000000
 3592 0b9d 4889EE   		movq	%rbp, %rsi
 3593 0ba0 4C89EF   		movq	%r13, %rdi
 3594 0ba3 E8000000 		call	_ZN8UnitTest11TestResults13OnTestFailureERKNS_11TestDetailsEPKc@PLT
 3594      00
 3595              	.LEHE199:
 3596              	.LEHB200:
 3597 0ba8 E8000000 		call	__cxa_end_catch@PLT
 3597      00
 3598              	.LEHE200:
 3599 0bad E9000000 		jmp	.L110
 3599      00
 3600              	.L240:
 3601 0bb2 F30F1EFA 		endbr64
 3602 0bb6 4889C5   		movq	%rax, %rbp
 3603 0bb9 E8000000 		call	__cxa_end_catch@PLT
 3603      00
 3604 0bbe 4889EF   		movq	%rbp, %rdi
 3605              	.LEHB201:
 3606 0bc1 E8000000 		call	_Unwind_Resume@PLT
 3606      00
 3607              	.LEHE201:
 3608              	.L238:
 3609 0bc6 F30F1EFA 		endbr64
 3610 0bca 4889C5   		movq	%rax, %rbp
 3611 0bcd E8000000 		call	__cxa_end_catch@PLT
 3611      00
 3612 0bd2 4889EF   		movq	%rbp, %rdi
 3613              	.LEHB202:
 3614 0bd5 E8000000 		call	_Unwind_Resume@PLT
 3614      00
 3615              	.LEHE202:
 3616              	.L106:
 3617 0bda E8000000 		call	__cxa_begin_catch@PLT
 3617      00
 3618              	.LEHB203:
 3619 0bdf E8000000 		call	_ZN8UnitTest11CurrentTest7ResultsEv@PLT
 3619      00
 3620 0be4 4C8B28   		movq	(%rax), %r13
 3621 0be7 E8000000 		call	_ZN8UnitTest11CurrentTest7DetailsEv@PLT
 3621      00
 3622 0bec 488B30   		movq	(%rax), %rsi
 3623 0bef BA220000 		movl	$34, %edx
 3623      00
 3624 0bf4 4889EF   		movq	%rbp, %rdi
 3625 0bf7 E8000000 		call	_ZN8UnitTest11TestDetailsC1ERKS0_i@PLT
 3625      00
 3626 0bfc 488D1500 		leaq	.LC9(%rip), %rdx
 3626      000000
 3627 0c03 4889EE   		movq	%rbp, %rsi
 3628 0c06 4C89EF   		movq	%r13, %rdi
 3629 0c09 E8000000 		call	_ZN8UnitTest11TestResults13OnTestFailureERKNS_11TestDetailsEPKc@PLT
 3629      00
 3630              	.LEHE203:
 3631              	.LEHB204:
 3632 0c0e E8000000 		call	__cxa_end_catch@PLT
 3632      00
 3633              	.LEHE204:
 3634 0c13 E9000000 		jmp	.L107
 3634      00
 3635              	.L103:
 3636 0c18 E8000000 		call	__cxa_begin_catch@PLT
 3636      00
 3637              	.LEHB205:
 3638 0c1d E8000000 		call	_ZN8UnitTest11CurrentTest7ResultsEv@PLT
 3638      00
 3639 0c22 4C8B28   		movq	(%rax), %r13
 3640 0c25 E8000000 		call	_ZN8UnitTest11CurrentTest7DetailsEv@PLT
 3640      00
 3641 0c2a 488B30   		movq	(%rax), %rsi
 3642 0c2d BA210000 		movl	$33, %edx
 3642      00
 3643 0c32 4889EF   		movq	%rbp, %rdi
 3644 0c35 E8000000 		call	_ZN8UnitTest11TestDetailsC1ERKS0_i@PLT
 3644      00
 3645 0c3a 488D1500 		leaq	.LC5(%rip), %rdx
 3645      000000
 3646 0c41 4889EE   		movq	%rbp, %rsi
 3647 0c44 4C89EF   		movq	%r13, %rdi
 3648 0c47 E8000000 		call	_ZN8UnitTest11TestResults13OnTestFailureERKNS_11TestDetailsEPKc@PLT
 3648      00
 3649              	.LEHE205:
 3650              	.LEHB206:
 3651 0c4c E8000000 		call	__cxa_end_catch@PLT
 3651      00
 3652              	.LEHE206:
 3653 0c51 E9000000 		jmp	.L104
 3653      00
 3654              	.L236:
 3655 0c56 F30F1EFA 		endbr64
 3656 0c5a 4889C5   		movq	%rax, %rbp
 3657 0c5d E8000000 		call	__cxa_end_catch@PLT
 3657      00
 3658 0c62 4889EF   		movq	%rbp, %rdi
 3659              	.LEHB207:
 3660 0c65 E8000000 		call	_Unwind_Resume@PLT
 3660      00
 3661              	.LEHE207:
 3662              	.L234:
 3663 0c6a F30F1EFA 		endbr64
 3664 0c6e 4889C5   		movq	%rax, %rbp
 3665 0c71 E8000000 		call	__cxa_end_catch@PLT
 3665      00
 3666 0c76 4889EF   		movq	%rbp, %rdi
 3667              	.LEHB208:
 3668 0c79 E8000000 		call	_Unwind_Resume@PLT
 3668      00
 3669              	.LEHE208:
 3670              	.L100:
 3671 0c7e E8000000 		call	__cxa_begin_catch@PLT
 3671      00
 3672              	.LEHB209:
 3673 0c83 E8000000 		call	_ZN8UnitTest11CurrentTest7ResultsEv@PLT
 3673      00
 3674 0c88 4C8B28   		movq	(%rax), %r13
 3675 0c8b E8000000 		call	_ZN8UnitTest11CurrentTest7DetailsEv@PLT
 3675      00
 3676 0c90 488B30   		movq	(%rax), %rsi
 3677 0c93 BA1F0000 		movl	$31, %edx
 3677      00
 3678 0c98 4889EF   		movq	%rbp, %rdi
 3679 0c9b E8000000 		call	_ZN8UnitTest11TestDetailsC1ERKS0_i@PLT
 3679      00
 3680 0ca0 488D1500 		leaq	.LC8(%rip), %rdx
 3680      000000
 3681 0ca7 4889EE   		movq	%rbp, %rsi
 3682 0caa 4C89EF   		movq	%r13, %rdi
 3683 0cad E8000000 		call	_ZN8UnitTest11TestResults13OnTestFailureERKNS_11TestDetailsEPKc@PLT
 3683      00
 3684              	.LEHE209:
 3685              	.LEHB210:
 3686 0cb2 E8000000 		call	__cxa_end_catch@PLT
 3686      00
 3687              	.LEHE210:
 3688 0cb7 E9000000 		jmp	.L101
 3688      00
 3689              	.L97:
 3690 0cbc E8000000 		call	__cxa_begin_catch@PLT
 3690      00
 3691              	.LEHB211:
 3692 0cc1 E8000000 		call	_ZN8UnitTest11CurrentTest7ResultsEv@PLT
 3692      00
 3693 0cc6 4C8B28   		movq	(%rax), %r13
 3694 0cc9 E8000000 		call	_ZN8UnitTest11CurrentTest7DetailsEv@PLT
 3694      00
 3695 0cce 488B30   		movq	(%rax), %rsi
 3696 0cd1 BA1E0000 		movl	$30, %edx
 3696      00
 3697 0cd6 4889EF   		movq	%rbp, %rdi
 3698 0cd9 E8000000 		call	_ZN8UnitTest11TestDetailsC1ERKS0_i@PLT
 3698      00
 3699 0cde 488D1500 		leaq	.LC5(%rip), %rdx
 3699      000000
 3700 0ce5 4889EE   		movq	%rbp, %rsi
 3701 0ce8 4C89EF   		movq	%r13, %rdi
 3702 0ceb E8000000 		call	_ZN8UnitTest11TestResults13OnTestFailureERKNS_11TestDetailsEPKc@PLT
 3702      00
 3703              	.LEHE211:
 3704              	.LEHB212:
 3705 0cf0 E8000000 		call	__cxa_end_catch@PLT
 3705      00
 3706              	.LEHE212:
 3707 0cf5 E9000000 		jmp	.L98
 3707      00
 3708              	.L232:
 3709 0cfa F30F1EFA 		endbr64
 3710 0cfe 4889C5   		movq	%rax, %rbp
 3711 0d01 E8000000 		call	__cxa_end_catch@PLT
 3711      00
 3712 0d06 4889EF   		movq	%rbp, %rdi
 3713              	.LEHB213:
 3714 0d09 E8000000 		call	_Unwind_Resume@PLT
 3714      00
 3715              	.LEHE213:
 3716              	.L230:
 3717 0d0e F30F1EFA 		endbr64
 3718 0d12 4889C5   		movq	%rax, %rbp
 3719 0d15 E8000000 		call	__cxa_end_catch@PLT
 3719      00
 3720 0d1a 4889EF   		movq	%rbp, %rdi
 3721              	.LEHB214:
 3722 0d1d E8000000 		call	_Unwind_Resume@PLT
 3722      00
 3723              	.LEHE214:
 3724              	.L94:
 3725 0d22 E8000000 		call	__cxa_begin_catch@PLT
 3725      00
 3726              	.LEHB215:
 3727 0d27 E8000000 		call	_ZN8UnitTest11CurrentTest7ResultsEv@PLT
 3727      00
 3728 0d2c 4C8B28   		movq	(%rax), %r13
 3729 0d2f E8000000 		call	_ZN8UnitTest11CurrentTest7DetailsEv@PLT
 3729      00
 3730 0d34 488B30   		movq	(%rax), %rsi
 3731 0d37 BA1C0000 		movl	$28, %edx
 3731      00
 3732 0d3c 4889EF   		movq	%rbp, %rdi
 3733 0d3f E8000000 		call	_ZN8UnitTest11TestDetailsC1ERKS0_i@PLT
 3733      00
 3734 0d44 488D1500 		leaq	.LC7(%rip), %rdx
 3734      000000
 3735 0d4b 4889EE   		movq	%rbp, %rsi
 3736 0d4e 4C89EF   		movq	%r13, %rdi
 3737 0d51 E8000000 		call	_ZN8UnitTest11TestResults13OnTestFailureERKNS_11TestDetailsEPKc@PLT
 3737      00
 3738              	.LEHE215:
 3739              	.LEHB216:
 3740 0d56 E8000000 		call	__cxa_end_catch@PLT
 3740      00
 3741              	.LEHE216:
 3742 0d5b E9000000 		jmp	.L95
 3742      00
 3743              	.L91:
 3744 0d60 E8000000 		call	__cxa_begin_catch@PLT
 3744      00
 3745              	.LEHB217:
 3746 0d65 E8000000 		call	_ZN8UnitTest11CurrentTest7ResultsEv@PLT
 3746      00
 3747 0d6a 4C8B28   		movq	(%rax), %r13
 3748 0d6d E8000000 		call	_ZN8UnitTest11CurrentTest7DetailsEv@PLT
 3748      00
 3749 0d72 488B30   		movq	(%rax), %rsi
 3750 0d75 BA1B0000 		movl	$27, %edx
 3750      00
 3751 0d7a 4889EF   		movq	%rbp, %rdi
 3752 0d7d E8000000 		call	_ZN8UnitTest11TestDetailsC1ERKS0_i@PLT
 3752      00
 3753 0d82 488D1500 		leaq	.LC5(%rip), %rdx
 3753      000000
 3754 0d89 4889EE   		movq	%rbp, %rsi
 3755 0d8c 4C89EF   		movq	%r13, %rdi
 3756 0d8f E8000000 		call	_ZN8UnitTest11TestResults13OnTestFailureERKNS_11TestDetailsEPKc@PLT
 3756      00
 3757              	.LEHE217:
 3758              	.LEHB218:
 3759 0d94 E8000000 		call	__cxa_end_catch@PLT
 3759      00
 3760              	.LEHE218:
 3761 0d99 E9000000 		jmp	.L92
 3761      00
 3762              	.L228:
 3763 0d9e F30F1EFA 		endbr64
 3764 0da2 4889C5   		movq	%rax, %rbp
 3765 0da5 E8000000 		call	__cxa_end_catch@PLT
 3765      00
 3766 0daa 4889EF   		movq	%rbp, %rdi
 3767              	.LEHB219:
 3768 0dad E8000000 		call	_Unwind_Resume@PLT
 3768      00
 3769              	.LEHE219:
 3770              	.L226:
 3771 0db2 F30F1EFA 		endbr64
 3772 0db6 4889C5   		movq	%rax, %rbp
 3773 0db9 E8000000 		call	__cxa_end_catch@PLT
 3773      00
 3774 0dbe 4889EF   		movq	%rbp, %rdi
 3775              	.LEHB220:
 3776 0dc1 E8000000 		call	_Unwind_Resume@PLT
 3776      00
 3777              	.LEHE220:
 3778              	.L88:
 3779 0dc6 E8000000 		call	__cxa_begin_catch@PLT
 3779      00
 3780              	.LEHB221:
 3781 0dcb E8000000 		call	_ZN8UnitTest11CurrentTest7ResultsEv@PLT
 3781      00
 3782 0dd0 4C8B28   		movq	(%rax), %r13
 3783 0dd3 E8000000 		call	_ZN8UnitTest11CurrentTest7DetailsEv@PLT
 3783      00
 3784 0dd8 488B30   		movq	(%rax), %rsi
 3785 0ddb BA190000 		movl	$25, %edx
 3785      00
 3786 0de0 4889EF   		movq	%rbp, %rdi
 3787 0de3 E8000000 		call	_ZN8UnitTest11TestDetailsC1ERKS0_i@PLT
 3787      00
 3788 0de8 488D1500 		leaq	.LC6(%rip), %rdx
 3788      000000
 3789 0def 4889EE   		movq	%rbp, %rsi
 3790 0df2 4C89EF   		movq	%r13, %rdi
 3791 0df5 E8000000 		call	_ZN8UnitTest11TestResults13OnTestFailureERKNS_11TestDetailsEPKc@PLT
 3791      00
 3792              	.LEHE221:
 3793              	.LEHB222:
 3794 0dfa E8000000 		call	__cxa_end_catch@PLT
 3794      00
 3795              	.LEHE222:
 3796 0dff E9000000 		jmp	.L89
 3796      00
 3797              	.L85:
 3798 0e04 E8000000 		call	__cxa_begin_catch@PLT
 3798      00
 3799              	.LEHB223:
 3800 0e09 E8000000 		call	_ZN8UnitTest11CurrentTest7ResultsEv@PLT
 3800      00
 3801 0e0e 4C8B28   		movq	(%rax), %r13
 3802 0e11 E8000000 		call	_ZN8UnitTest11CurrentTest7DetailsEv@PLT
 3802      00
 3803 0e16 488D6C24 		leaq	16(%rsp), %rbp
 3803      10
 3804 0e1b 488B30   		movq	(%rax), %rsi
 3805 0e1e BA180000 		movl	$24, %edx
 3805      00
 3806 0e23 4889EF   		movq	%rbp, %rdi
 3807 0e26 E8000000 		call	_ZN8UnitTest11TestDetailsC1ERKS0_i@PLT
 3807      00
 3808 0e2b 488D1500 		leaq	.LC5(%rip), %rdx
 3808      000000
 3809 0e32 4889EE   		movq	%rbp, %rsi
 3810 0e35 4C89EF   		movq	%r13, %rdi
 3811 0e38 E8000000 		call	_ZN8UnitTest11TestResults13OnTestFailureERKNS_11TestDetailsEPKc@PLT
 3811      00
 3812              	.LEHE223:
 3813              	.LEHB224:
 3814 0e3d E8000000 		call	__cxa_end_catch@PLT
 3814      00
 3815              	.LEHE224:
 3816 0e42 E9000000 		jmp	.L86
 3816      00
 3817              	.L224:
 3818 0e47 F30F1EFA 		endbr64
 3819 0e4b 4889C5   		movq	%rax, %rbp
 3820 0e4e E8000000 		call	__cxa_end_catch@PLT
 3820      00
 3821 0e53 4889EF   		movq	%rbp, %rdi
 3822              	.LEHB225:
 3823 0e56 E8000000 		call	_Unwind_Resume@PLT
 3823      00
 3824              	.LEHE225:
 3825              	.L222:
 3826 0e5b F30F1EFA 		endbr64
 3827 0e5f 4889C5   		movq	%rax, %rbp
 3828 0e62 E8000000 		call	__cxa_end_catch@PLT
 3828      00
 3829 0e67 4889EF   		movq	%rbp, %rdi
 3830              	.LEHB226:
 3831 0e6a E8000000 		call	_Unwind_Resume@PLT
 3831      00
 3832              	.LEHE226:
 3833              		.cfi_endproc
 3834              	.LFE1188:
 3835              		.section	.gcc_except_table
 3836              		.align 4
 3837              	.LLSDAC1188:
 3838 018c FF       		.byte	0xff
 3839 018d 9B       		.byte	0x9b
 3840 018e D805     		.uleb128 .LLSDATTC1188-.LLSDATTDC1188
 3841              	.LLSDATTDC1188:
 3842 0190 01       		.byte	0x1
 3843 0191 CC05     		.uleb128 .LLSDACSEC1188-.LLSDACSBC1188
 3844              	.LLSDACSBC1188:
 3845 0193 05       		.uleb128 .LEHB92-.LCOLDB23
 3846 0194 2F       		.uleb128 .LEHE92-.LEHB92
 3847 0195 B602     		.uleb128 .L310-.LCOLDB23
 3848 0197 00       		.uleb128 0
 3849 0198 34       		.uleb128 .LEHB93-.LCOLDB23
 3850 0199 05       		.uleb128 .LEHE93-.LEHB93
 3851 019a 00       		.uleb128 0
 3852 019b 00       		.uleb128 0
 3853 019c 43       		.uleb128 .LEHB94-.LCOLDB23
 3854 019d 2F       		.uleb128 .LEHE94-.LEHB94
 3855 019e CA02     		.uleb128 .L308-.LCOLDB23
 3856 01a0 00       		.uleb128 0
 3857 01a1 72       		.uleb128 .LEHB95-.LCOLDB23
 3858 01a2 05       		.uleb128 .LEHE95-.LEHB95
 3859 01a3 00       		.uleb128 0
 3860 01a4 00       		.uleb128 0
 3861 01a5 8101     		.uleb128 .LEHB96-.LCOLDB23
 3862 01a7 2F       		.uleb128 .LEHE96-.LEHB96
 3863 01a8 F202     		.uleb128 .L304-.LCOLDB23
 3864 01aa 00       		.uleb128 0
 3865 01ab B001     		.uleb128 .LEHB97-.LCOLDB23
 3866 01ad 05       		.uleb128 .LEHE97-.LEHB97
 3867 01ae 00       		.uleb128 0
 3868 01af 00       		.uleb128 0
 3869 01b0 BF01     		.uleb128 .LEHB98-.LCOLDB23
 3870 01b2 2F       		.uleb128 .LEHE98-.LEHB98
 3871 01b3 DE02     		.uleb128 .L306-.LCOLDB23
 3872 01b5 00       		.uleb128 0
 3873 01b6 EE01     		.uleb128 .LEHB99-.LCOLDB23
 3874 01b8 05       		.uleb128 .LEHE99-.LEHB99
 3875 01b9 00       		.uleb128 0
 3876 01ba 00       		.uleb128 0
 3877 01bb FD01     		.uleb128 .LEHB100-.LCOLDB23
 3878 01bd 2F       		.uleb128 .LEHE100-.LEHB100
 3879 01be 8603     		.uleb128 .L302-.LCOLDB23
 3880 01c0 00       		.uleb128 0
 3881 01c1 AC02     		.uleb128 .LEHB101-.LCOLDB23
 3882 01c3 05       		.uleb128 .LEHE101-.LEHB101
 3883 01c4 00       		.uleb128 0
 3884 01c5 00       		.uleb128 0
 3885 01c6 C502     		.uleb128 .LEHB102-.LCOLDB23
 3886 01c8 05       		.uleb128 .LEHE102-.LEHB102
 3887 01c9 00       		.uleb128 0
 3888 01ca 00       		.uleb128 0
 3889 01cb D902     		.uleb128 .LEHB103-.LCOLDB23
 3890 01cd 05       		.uleb128 .LEHE103-.LEHB103
 3891 01ce 00       		.uleb128 0
 3892 01cf 00       		.uleb128 0
 3893 01d0 ED02     		.uleb128 .LEHB104-.LCOLDB23
 3894 01d2 05       		.uleb128 .LEHE104-.LEHB104
 3895 01d3 00       		.uleb128 0
 3896 01d4 00       		.uleb128 0
 3897 01d5 8103     		.uleb128 .LEHB105-.LCOLDB23
 3898 01d7 05       		.uleb128 .LEHE105-.LEHB105
 3899 01d8 00       		.uleb128 0
 3900 01d9 00       		.uleb128 0
 3901 01da 9503     		.uleb128 .LEHB106-.LCOLDB23
 3902 01dc 05       		.uleb128 .LEHE106-.LEHB106
 3903 01dd 00       		.uleb128 0
 3904 01de 00       		.uleb128 0
 3905 01df 9F03     		.uleb128 .LEHB107-.LCOLDB23
 3906 01e1 2F       		.uleb128 .LEHE107-.LEHB107
 3907 01e2 9604     		.uleb128 .L300-.LCOLDB23
 3908 01e4 00       		.uleb128 0
 3909 01e5 CE03     		.uleb128 .LEHB108-.LCOLDB23
 3910 01e7 05       		.uleb128 .LEHE108-.LEHB108
 3911 01e8 00       		.uleb128 0
 3912 01e9 00       		.uleb128 0
 3913 01ea DD03     		.uleb128 .LEHB109-.LCOLDB23
 3914 01ec 2F       		.uleb128 .LEHE109-.LEHB109
 3915 01ed AA04     		.uleb128 .L298-.LCOLDB23
 3916 01ef 00       		.uleb128 0
 3917 01f0 8C04     		.uleb128 .LEHB110-.LCOLDB23
 3918 01f2 05       		.uleb128 .LEHE110-.LEHB110
 3919 01f3 00       		.uleb128 0
 3920 01f4 00       		.uleb128 0
 3921 01f5 A504     		.uleb128 .LEHB111-.LCOLDB23
 3922 01f7 05       		.uleb128 .LEHE111-.LEHB111
 3923 01f8 00       		.uleb128 0
 3924 01f9 00       		.uleb128 0
 3925 01fa B904     		.uleb128 .LEHB112-.LCOLDB23
 3926 01fc 05       		.uleb128 .LEHE112-.LEHB112
 3927 01fd 00       		.uleb128 0
 3928 01fe 00       		.uleb128 0
 3929 01ff C304     		.uleb128 .LEHB113-.LCOLDB23
 3930 0201 2F       		.uleb128 .LEHE113-.LEHB113
 3931 0202 BA05     		.uleb128 .L296-.LCOLDB23
 3932 0204 00       		.uleb128 0
 3933 0205 F204     		.uleb128 .LEHB114-.LCOLDB23
 3934 0207 05       		.uleb128 .LEHE114-.LEHB114
 3935 0208 00       		.uleb128 0
 3936 0209 00       		.uleb128 0
 3937 020a 8105     		.uleb128 .LEHB115-.LCOLDB23
 3938 020c 2F       		.uleb128 .LEHE115-.LEHB115
 3939 020d CE05     		.uleb128 .L294-.LCOLDB23
 3940 020f 00       		.uleb128 0
 3941 0210 B005     		.uleb128 .LEHB116-.LCOLDB23
 3942 0212 05       		.uleb128 .LEHE116-.LEHB116
 3943 0213 00       		.uleb128 0
 3944 0214 00       		.uleb128 0
 3945 0215 C905     		.uleb128 .LEHB117-.LCOLDB23
 3946 0217 05       		.uleb128 .LEHE117-.LEHB117
 3947 0218 00       		.uleb128 0
 3948 0219 00       		.uleb128 0
 3949 021a DD05     		.uleb128 .LEHB118-.LCOLDB23
 3950 021c 05       		.uleb128 .LEHE118-.LEHB118
 3951 021d 00       		.uleb128 0
 3952 021e 00       		.uleb128 0
 3953 021f E705     		.uleb128 .LEHB119-.LCOLDB23
 3954 0221 2F       		.uleb128 .LEHE119-.LEHB119
 3955 0222 DE06     		.uleb128 .L292-.LCOLDB23
 3956 0224 00       		.uleb128 0
 3957 0225 9606     		.uleb128 .LEHB120-.LCOLDB23
 3958 0227 05       		.uleb128 .LEHE120-.LEHB120
 3959 0228 00       		.uleb128 0
 3960 0229 00       		.uleb128 0
 3961 022a A506     		.uleb128 .LEHB121-.LCOLDB23
 3962 022c 2F       		.uleb128 .LEHE121-.LEHB121
 3963 022d F206     		.uleb128 .L290-.LCOLDB23
 3964 022f 00       		.uleb128 0
 3965 0230 D406     		.uleb128 .LEHB122-.LCOLDB23
 3966 0232 05       		.uleb128 .LEHE122-.LEHB122
 3967 0233 00       		.uleb128 0
 3968 0234 00       		.uleb128 0
 3969 0235 ED06     		.uleb128 .LEHB123-.LCOLDB23
 3970 0237 05       		.uleb128 .LEHE123-.LEHB123
 3971 0238 00       		.uleb128 0
 3972 0239 00       		.uleb128 0
 3973 023a 8107     		.uleb128 .LEHB124-.LCOLDB23
 3974 023c 05       		.uleb128 .LEHE124-.LEHB124
 3975 023d 00       		.uleb128 0
 3976 023e 00       		.uleb128 0
 3977 023f 8B07     		.uleb128 .LEHB125-.LCOLDB23
 3978 0241 2F       		.uleb128 .LEHE125-.LEHB125
 3979 0242 8208     		.uleb128 .L288-.LCOLDB23
 3980 0244 00       		.uleb128 0
 3981 0245 BA07     		.uleb128 .LEHB126-.LCOLDB23
 3982 0247 05       		.uleb128 .LEHE126-.LEHB126
 3983 0248 00       		.uleb128 0
 3984 0249 00       		.uleb128 0
 3985 024a C907     		.uleb128 .LEHB127-.LCOLDB23
 3986 024c 2F       		.uleb128 .LEHE127-.LEHB127
 3987 024d 9608     		.uleb128 .L286-.LCOLDB23
 3988 024f 00       		.uleb128 0
 3989 0250 F807     		.uleb128 .LEHB128-.LCOLDB23
 3990 0252 05       		.uleb128 .LEHE128-.LEHB128
 3991 0253 00       		.uleb128 0
 3992 0254 00       		.uleb128 0
 3993 0255 9108     		.uleb128 .LEHB129-.LCOLDB23
 3994 0257 05       		.uleb128 .LEHE129-.LEHB129
 3995 0258 00       		.uleb128 0
 3996 0259 00       		.uleb128 0
 3997 025a A508     		.uleb128 .LEHB130-.LCOLDB23
 3998 025c 05       		.uleb128 .LEHE130-.LEHB130
 3999 025d 00       		.uleb128 0
 4000 025e 00       		.uleb128 0
 4001 025f AF08     		.uleb128 .LEHB131-.LCOLDB23
 4002 0261 2F       		.uleb128 .LEHE131-.LEHB131
 4003 0262 A609     		.uleb128 .L284-.LCOLDB23
 4004 0264 00       		.uleb128 0
 4005 0265 DE08     		.uleb128 .LEHB132-.LCOLDB23
 4006 0267 05       		.uleb128 .LEHE132-.LEHB132
 4007 0268 00       		.uleb128 0
 4008 0269 00       		.uleb128 0
 4009 026a ED08     		.uleb128 .LEHB133-.LCOLDB23
 4010 026c 2F       		.uleb128 .LEHE133-.LEHB133
 4011 026d BA09     		.uleb128 .L282-.LCOLDB23
 4012 026f 00       		.uleb128 0
 4013 0270 9C09     		.uleb128 .LEHB134-.LCOLDB23
 4014 0272 05       		.uleb128 .LEHE134-.LEHB134
 4015 0273 00       		.uleb128 0
 4016 0274 00       		.uleb128 0
 4017 0275 B509     		.uleb128 .LEHB135-.LCOLDB23
 4018 0277 05       		.uleb128 .LEHE135-.LEHB135
 4019 0278 00       		.uleb128 0
 4020 0279 00       		.uleb128 0
 4021 027a C909     		.uleb128 .LEHB136-.LCOLDB23
 4022 027c 05       		.uleb128 .LEHE136-.LEHB136
 4023 027d 00       		.uleb128 0
 4024 027e 00       		.uleb128 0
 4025 027f D309     		.uleb128 .LEHB137-.LCOLDB23
 4026 0281 2F       		.uleb128 .LEHE137-.LEHB137
 4027 0282 CA0A     		.uleb128 .L280-.LCOLDB23
 4028 0284 00       		.uleb128 0
 4029 0285 820A     		.uleb128 .LEHB138-.LCOLDB23
 4030 0287 05       		.uleb128 .LEHE138-.LEHB138
 4031 0288 00       		.uleb128 0
 4032 0289 00       		.uleb128 0
 4033 028a 910A     		.uleb128 .LEHB139-.LCOLDB23
 4034 028c 2F       		.uleb128 .LEHE139-.LEHB139
 4035 028d DE0A     		.uleb128 .L278-.LCOLDB23
 4036 028f 00       		.uleb128 0
 4037 0290 C00A     		.uleb128 .LEHB140-.LCOLDB23
 4038 0292 05       		.uleb128 .LEHE140-.LEHB140
 4039 0293 00       		.uleb128 0
 4040 0294 00       		.uleb128 0
 4041 0295 D90A     		.uleb128 .LEHB141-.LCOLDB23
 4042 0297 05       		.uleb128 .LEHE141-.LEHB141
 4043 0298 00       		.uleb128 0
 4044 0299 00       		.uleb128 0
 4045 029a ED0A     		.uleb128 .LEHB142-.LCOLDB23
 4046 029c 05       		.uleb128 .LEHE142-.LEHB142
 4047 029d 00       		.uleb128 0
 4048 029e 00       		.uleb128 0
 4049 029f F70A     		.uleb128 .LEHB143-.LCOLDB23
 4050 02a1 2F       		.uleb128 .LEHE143-.LEHB143
 4051 02a2 EE0B     		.uleb128 .L276-.LCOLDB23
 4052 02a4 00       		.uleb128 0
 4053 02a5 A60B     		.uleb128 .LEHB144-.LCOLDB23
 4054 02a7 05       		.uleb128 .LEHE144-.LEHB144
 4055 02a8 00       		.uleb128 0
 4056 02a9 00       		.uleb128 0
 4057 02aa B50B     		.uleb128 .LEHB145-.LCOLDB23
 4058 02ac 2F       		.uleb128 .LEHE145-.LEHB145
 4059 02ad 820C     		.uleb128 .L274-.LCOLDB23
 4060 02af 00       		.uleb128 0
 4061 02b0 E40B     		.uleb128 .LEHB146-.LCOLDB23
 4062 02b2 05       		.uleb128 .LEHE146-.LEHB146
 4063 02b3 00       		.uleb128 0
 4064 02b4 00       		.uleb128 0
 4065 02b5 FD0B     		.uleb128 .LEHB147-.LCOLDB23
 4066 02b7 05       		.uleb128 .LEHE147-.LEHB147
 4067 02b8 00       		.uleb128 0
 4068 02b9 00       		.uleb128 0
 4069 02ba 910C     		.uleb128 .LEHB148-.LCOLDB23
 4070 02bc 05       		.uleb128 .LEHE148-.LEHB148
 4071 02bd 00       		.uleb128 0
 4072 02be 00       		.uleb128 0
 4073 02bf 9B0C     		.uleb128 .LEHB149-.LCOLDB23
 4074 02c1 2F       		.uleb128 .LEHE149-.LEHB149
 4075 02c2 920D     		.uleb128 .L272-.LCOLDB23
 4076 02c4 00       		.uleb128 0
 4077 02c5 CA0C     		.uleb128 .LEHB150-.LCOLDB23
 4078 02c7 05       		.uleb128 .LEHE150-.LEHB150
 4079 02c8 00       		.uleb128 0
 4080 02c9 00       		.uleb128 0
 4081 02ca D90C     		.uleb128 .LEHB151-.LCOLDB23
 4082 02cc 2F       		.uleb128 .LEHE151-.LEHB151
 4083 02cd A60D     		.uleb128 .L270-.LCOLDB23
 4084 02cf 00       		.uleb128 0
 4085 02d0 880D     		.uleb128 .LEHB152-.LCOLDB23
 4086 02d2 05       		.uleb128 .LEHE152-.LEHB152
 4087 02d3 00       		.uleb128 0
 4088 02d4 00       		.uleb128 0
 4089 02d5 A10D     		.uleb128 .LEHB153-.LCOLDB23
 4090 02d7 05       		.uleb128 .LEHE153-.LEHB153
 4091 02d8 00       		.uleb128 0
 4092 02d9 00       		.uleb128 0
 4093 02da B50D     		.uleb128 .LEHB154-.LCOLDB23
 4094 02dc 05       		.uleb128 .LEHE154-.LEHB154
 4095 02dd 00       		.uleb128 0
 4096 02de 00       		.uleb128 0
 4097 02df BF0D     		.uleb128 .LEHB155-.LCOLDB23
 4098 02e1 2F       		.uleb128 .LEHE155-.LEHB155
 4099 02e2 B60E     		.uleb128 .L268-.LCOLDB23
 4100 02e4 00       		.uleb128 0
 4101 02e5 EE0D     		.uleb128 .LEHB156-.LCOLDB23
 4102 02e7 05       		.uleb128 .LEHE156-.LEHB156
 4103 02e8 00       		.uleb128 0
 4104 02e9 00       		.uleb128 0
 4105 02ea FD0D     		.uleb128 .LEHB157-.LCOLDB23
 4106 02ec 2F       		.uleb128 .LEHE157-.LEHB157
 4107 02ed CA0E     		.uleb128 .L266-.LCOLDB23
 4108 02ef 00       		.uleb128 0
 4109 02f0 AC0E     		.uleb128 .LEHB158-.LCOLDB23
 4110 02f2 05       		.uleb128 .LEHE158-.LEHB158
 4111 02f3 00       		.uleb128 0
 4112 02f4 00       		.uleb128 0
 4113 02f5 C50E     		.uleb128 .LEHB159-.LCOLDB23
 4114 02f7 05       		.uleb128 .LEHE159-.LEHB159
 4115 02f8 00       		.uleb128 0
 4116 02f9 00       		.uleb128 0
 4117 02fa D90E     		.uleb128 .LEHB160-.LCOLDB23
 4118 02fc 05       		.uleb128 .LEHE160-.LEHB160
 4119 02fd 00       		.uleb128 0
 4120 02fe 00       		.uleb128 0
 4121 02ff E30E     		.uleb128 .LEHB161-.LCOLDB23
 4122 0301 2F       		.uleb128 .LEHE161-.LEHB161
 4123 0302 DA0F     		.uleb128 .L264-.LCOLDB23
 4124 0304 00       		.uleb128 0
 4125 0305 920F     		.uleb128 .LEHB162-.LCOLDB23
 4126 0307 05       		.uleb128 .LEHE162-.LEHB162
 4127 0308 00       		.uleb128 0
 4128 0309 00       		.uleb128 0
 4129 030a A10F     		.uleb128 .LEHB163-.LCOLDB23
 4130 030c 2F       		.uleb128 .LEHE163-.LEHB163
 4131 030d EE0F     		.uleb128 .L262-.LCOLDB23
 4132 030f 00       		.uleb128 0
 4133 0310 D00F     		.uleb128 .LEHB164-.LCOLDB23
 4134 0312 05       		.uleb128 .LEHE164-.LEHB164
 4135 0313 00       		.uleb128 0
 4136 0314 00       		.uleb128 0
 4137 0315 E90F     		.uleb128 .LEHB165-.LCOLDB23
 4138 0317 05       		.uleb128 .LEHE165-.LEHB165
 4139 0318 00       		.uleb128 0
 4140 0319 00       		.uleb128 0
 4141 031a FD0F     		.uleb128 .LEHB166-.LCOLDB23
 4142 031c 05       		.uleb128 .LEHE166-.LEHB166
 4143 031d 00       		.uleb128 0
 4144 031e 00       		.uleb128 0
 4145 031f 8710     		.uleb128 .LEHB167-.LCOLDB23
 4146 0321 2F       		.uleb128 .LEHE167-.LEHB167
 4147 0322 FE10     		.uleb128 .L260-.LCOLDB23
 4148 0324 00       		.uleb128 0
 4149 0325 B610     		.uleb128 .LEHB168-.LCOLDB23
 4150 0327 05       		.uleb128 .LEHE168-.LEHB168
 4151 0328 00       		.uleb128 0
 4152 0329 00       		.uleb128 0
 4153 032a C510     		.uleb128 .LEHB169-.LCOLDB23
 4154 032c 2F       		.uleb128 .LEHE169-.LEHB169
 4155 032d 9211     		.uleb128 .L258-.LCOLDB23
 4156 032f 00       		.uleb128 0
 4157 0330 F410     		.uleb128 .LEHB170-.LCOLDB23
 4158 0332 05       		.uleb128 .LEHE170-.LEHB170
 4159 0333 00       		.uleb128 0
 4160 0334 00       		.uleb128 0
 4161 0335 8D11     		.uleb128 .LEHB171-.LCOLDB23
 4162 0337 05       		.uleb128 .LEHE171-.LEHB171
 4163 0338 00       		.uleb128 0
 4164 0339 00       		.uleb128 0
 4165 033a A111     		.uleb128 .LEHB172-.LCOLDB23
 4166 033c 05       		.uleb128 .LEHE172-.LEHB172
 4167 033d 00       		.uleb128 0
 4168 033e 00       		.uleb128 0
 4169 033f AB11     		.uleb128 .LEHB173-.LCOLDB23
 4170 0341 2F       		.uleb128 .LEHE173-.LEHB173
 4171 0342 A212     		.uleb128 .L256-.LCOLDB23
 4172 0344 00       		.uleb128 0
 4173 0345 DA11     		.uleb128 .LEHB174-.LCOLDB23
 4174 0347 05       		.uleb128 .LEHE174-.LEHB174
 4175 0348 00       		.uleb128 0
 4176 0349 00       		.uleb128 0
 4177 034a E911     		.uleb128 .LEHB175-.LCOLDB23
 4178 034c 2F       		.uleb128 .LEHE175-.LEHB175
 4179 034d B612     		.uleb128 .L254-.LCOLDB23
 4180 034f 00       		.uleb128 0
 4181 0350 9812     		.uleb128 .LEHB176-.LCOLDB23
 4182 0352 05       		.uleb128 .LEHE176-.LEHB176
 4183 0353 00       		.uleb128 0
 4184 0354 00       		.uleb128 0
 4185 0355 B112     		.uleb128 .LEHB177-.LCOLDB23
 4186 0357 05       		.uleb128 .LEHE177-.LEHB177
 4187 0358 00       		.uleb128 0
 4188 0359 00       		.uleb128 0
 4189 035a C512     		.uleb128 .LEHB178-.LCOLDB23
 4190 035c 05       		.uleb128 .LEHE178-.LEHB178
 4191 035d 00       		.uleb128 0
 4192 035e 00       		.uleb128 0
 4193 035f CF12     		.uleb128 .LEHB179-.LCOLDB23
 4194 0361 2F       		.uleb128 .LEHE179-.LEHB179
 4195 0362 C613     		.uleb128 .L252-.LCOLDB23
 4196 0364 00       		.uleb128 0
 4197 0365 FE12     		.uleb128 .LEHB180-.LCOLDB23
 4198 0367 05       		.uleb128 .LEHE180-.LEHB180
 4199 0368 00       		.uleb128 0
 4200 0369 00       		.uleb128 0
 4201 036a 8D13     		.uleb128 .LEHB181-.LCOLDB23
 4202 036c 2F       		.uleb128 .LEHE181-.LEHB181
 4203 036d DA13     		.uleb128 .L250-.LCOLDB23
 4204 036f 00       		.uleb128 0
 4205 0370 BC13     		.uleb128 .LEHB182-.LCOLDB23
 4206 0372 05       		.uleb128 .LEHE182-.LEHB182
 4207 0373 00       		.uleb128 0
 4208 0374 00       		.uleb128 0
 4209 0375 D513     		.uleb128 .LEHB183-.LCOLDB23
 4210 0377 05       		.uleb128 .LEHE183-.LEHB183
 4211 0378 00       		.uleb128 0
 4212 0379 00       		.uleb128 0
 4213 037a E913     		.uleb128 .LEHB184-.LCOLDB23
 4214 037c 05       		.uleb128 .LEHE184-.LEHB184
 4215 037d 00       		.uleb128 0
 4216 037e 00       		.uleb128 0
 4217 037f F313     		.uleb128 .LEHB185-.LCOLDB23
 4218 0381 2F       		.uleb128 .LEHE185-.LEHB185
 4219 0382 EA14     		.uleb128 .L248-.LCOLDB23
 4220 0384 00       		.uleb128 0
 4221 0385 A214     		.uleb128 .LEHB186-.LCOLDB23
 4222 0387 05       		.uleb128 .LEHE186-.LEHB186
 4223 0388 00       		.uleb128 0
 4224 0389 00       		.uleb128 0
 4225 038a B114     		.uleb128 .LEHB187-.LCOLDB23
 4226 038c 2F       		.uleb128 .LEHE187-.LEHB187
 4227 038d FE14     		.uleb128 .L246-.LCOLDB23
 4228 038f 00       		.uleb128 0
 4229 0390 E014     		.uleb128 .LEHB188-.LCOLDB23
 4230 0392 05       		.uleb128 .LEHE188-.LEHB188
 4231 0393 00       		.uleb128 0
 4232 0394 00       		.uleb128 0
 4233 0395 F914     		.uleb128 .LEHB189-.LCOLDB23
 4234 0397 05       		.uleb128 .LEHE189-.LEHB189
 4235 0398 00       		.uleb128 0
 4236 0399 00       		.uleb128 0
 4237 039a 8D15     		.uleb128 .LEHB190-.LCOLDB23
 4238 039c 05       		.uleb128 .LEHE190-.LEHB190
 4239 039d 00       		.uleb128 0
 4240 039e 00       		.uleb128 0
 4241 039f 9715     		.uleb128 .LEHB191-.LCOLDB23
 4242 03a1 2F       		.uleb128 .LEHE191-.LEHB191
 4243 03a2 8E16     		.uleb128 .L244-.LCOLDB23
 4244 03a4 00       		.uleb128 0
 4245 03a5 C615     		.uleb128 .LEHB192-.LCOLDB23
 4246 03a7 05       		.uleb128 .LEHE192-.LEHB192
 4247 03a8 00       		.uleb128 0
 4248 03a9 00       		.uleb128 0
 4249 03aa D515     		.uleb128 .LEHB193-.LCOLDB23
 4250 03ac 2F       		.uleb128 .LEHE193-.LEHB193
 4251 03ad A216     		.uleb128 .L242-.LCOLDB23
 4252 03af 00       		.uleb128 0
 4253 03b0 8416     		.uleb128 .LEHB194-.LCOLDB23
 4254 03b2 05       		.uleb128 .LEHE194-.LEHB194
 4255 03b3 00       		.uleb128 0
 4256 03b4 00       		.uleb128 0
 4257 03b5 9D16     		.uleb128 .LEHB195-.LCOLDB23
 4258 03b7 05       		.uleb128 .LEHE195-.LEHB195
 4259 03b8 00       		.uleb128 0
 4260 03b9 00       		.uleb128 0
 4261 03ba B116     		.uleb128 .LEHB196-.LCOLDB23
 4262 03bc 05       		.uleb128 .LEHE196-.LEHB196
 4263 03bd 00       		.uleb128 0
 4264 03be 00       		.uleb128 0
 4265 03bf BB16     		.uleb128 .LEHB197-.LCOLDB23
 4266 03c1 2F       		.uleb128 .LEHE197-.LEHB197
 4267 03c2 B217     		.uleb128 .L240-.LCOLDB23
 4268 03c4 00       		.uleb128 0
 4269 03c5 EA16     		.uleb128 .LEHB198-.LCOLDB23
 4270 03c7 05       		.uleb128 .LEHE198-.LEHB198
 4271 03c8 00       		.uleb128 0
 4272 03c9 00       		.uleb128 0
 4273 03ca F916     		.uleb128 .LEHB199-.LCOLDB23
 4274 03cc 2F       		.uleb128 .LEHE199-.LEHB199
 4275 03cd C617     		.uleb128 .L238-.LCOLDB23
 4276 03cf 00       		.uleb128 0
 4277 03d0 A817     		.uleb128 .LEHB200-.LCOLDB23
 4278 03d2 05       		.uleb128 .LEHE200-.LEHB200
 4279 03d3 00       		.uleb128 0
 4280 03d4 00       		.uleb128 0
 4281 03d5 C117     		.uleb128 .LEHB201-.LCOLDB23
 4282 03d7 05       		.uleb128 .LEHE201-.LEHB201
 4283 03d8 00       		.uleb128 0
 4284 03d9 00       		.uleb128 0
 4285 03da D517     		.uleb128 .LEHB202-.LCOLDB23
 4286 03dc 05       		.uleb128 .LEHE202-.LEHB202
 4287 03dd 00       		.uleb128 0
 4288 03de 00       		.uleb128 0
 4289 03df DF17     		.uleb128 .LEHB203-.LCOLDB23
 4290 03e1 2F       		.uleb128 .LEHE203-.LEHB203
 4291 03e2 D618     		.uleb128 .L236-.LCOLDB23
 4292 03e4 00       		.uleb128 0
 4293 03e5 8E18     		.uleb128 .LEHB204-.LCOLDB23
 4294 03e7 05       		.uleb128 .LEHE204-.LEHB204
 4295 03e8 00       		.uleb128 0
 4296 03e9 00       		.uleb128 0
 4297 03ea 9D18     		.uleb128 .LEHB205-.LCOLDB23
 4298 03ec 2F       		.uleb128 .LEHE205-.LEHB205
 4299 03ed EA18     		.uleb128 .L234-.LCOLDB23
 4300 03ef 00       		.uleb128 0
 4301 03f0 CC18     		.uleb128 .LEHB206-.LCOLDB23
 4302 03f2 05       		.uleb128 .LEHE206-.LEHB206
 4303 03f3 00       		.uleb128 0
 4304 03f4 00       		.uleb128 0
 4305 03f5 E518     		.uleb128 .LEHB207-.LCOLDB23
 4306 03f7 05       		.uleb128 .LEHE207-.LEHB207
 4307 03f8 00       		.uleb128 0
 4308 03f9 00       		.uleb128 0
 4309 03fa F918     		.uleb128 .LEHB208-.LCOLDB23
 4310 03fc 05       		.uleb128 .LEHE208-.LEHB208
 4311 03fd 00       		.uleb128 0
 4312 03fe 00       		.uleb128 0
 4313 03ff 8319     		.uleb128 .LEHB209-.LCOLDB23
 4314 0401 2F       		.uleb128 .LEHE209-.LEHB209
 4315 0402 FA19     		.uleb128 .L232-.LCOLDB23
 4316 0404 00       		.uleb128 0
 4317 0405 B219     		.uleb128 .LEHB210-.LCOLDB23
 4318 0407 05       		.uleb128 .LEHE210-.LEHB210
 4319 0408 00       		.uleb128 0
 4320 0409 00       		.uleb128 0
 4321 040a C119     		.uleb128 .LEHB211-.LCOLDB23
 4322 040c 2F       		.uleb128 .LEHE211-.LEHB211
 4323 040d 8E1A     		.uleb128 .L230-.LCOLDB23
 4324 040f 00       		.uleb128 0
 4325 0410 F019     		.uleb128 .LEHB212-.LCOLDB23
 4326 0412 05       		.uleb128 .LEHE212-.LEHB212
 4327 0413 00       		.uleb128 0
 4328 0414 00       		.uleb128 0
 4329 0415 891A     		.uleb128 .LEHB213-.LCOLDB23
 4330 0417 05       		.uleb128 .LEHE213-.LEHB213
 4331 0418 00       		.uleb128 0
 4332 0419 00       		.uleb128 0
 4333 041a 9D1A     		.uleb128 .LEHB214-.LCOLDB23
 4334 041c 05       		.uleb128 .LEHE214-.LEHB214
 4335 041d 00       		.uleb128 0
 4336 041e 00       		.uleb128 0
 4337 041f A71A     		.uleb128 .LEHB215-.LCOLDB23
 4338 0421 2F       		.uleb128 .LEHE215-.LEHB215
 4339 0422 9E1B     		.uleb128 .L228-.LCOLDB23
 4340 0424 00       		.uleb128 0
 4341 0425 D61A     		.uleb128 .LEHB216-.LCOLDB23
 4342 0427 05       		.uleb128 .LEHE216-.LEHB216
 4343 0428 00       		.uleb128 0
 4344 0429 00       		.uleb128 0
 4345 042a E51A     		.uleb128 .LEHB217-.LCOLDB23
 4346 042c 2F       		.uleb128 .LEHE217-.LEHB217
 4347 042d B21B     		.uleb128 .L226-.LCOLDB23
 4348 042f 00       		.uleb128 0
 4349 0430 941B     		.uleb128 .LEHB218-.LCOLDB23
 4350 0432 05       		.uleb128 .LEHE218-.LEHB218
 4351 0433 00       		.uleb128 0
 4352 0434 00       		.uleb128 0
 4353 0435 AD1B     		.uleb128 .LEHB219-.LCOLDB23
 4354 0437 05       		.uleb128 .LEHE219-.LEHB219
 4355 0438 00       		.uleb128 0
 4356 0439 00       		.uleb128 0
 4357 043a C11B     		.uleb128 .LEHB220-.LCOLDB23
 4358 043c 05       		.uleb128 .LEHE220-.LEHB220
 4359 043d 00       		.uleb128 0
 4360 043e 00       		.uleb128 0
 4361 043f CB1B     		.uleb128 .LEHB221-.LCOLDB23
 4362 0441 2F       		.uleb128 .LEHE221-.LEHB221
 4363 0442 C71C     		.uleb128 .L224-.LCOLDB23
 4364 0444 00       		.uleb128 0
 4365 0445 FA1B     		.uleb128 .LEHB222-.LCOLDB23
 4366 0447 05       		.uleb128 .LEHE222-.LEHB222
 4367 0448 00       		.uleb128 0
 4368 0449 00       		.uleb128 0
 4369 044a 891C     		.uleb128 .LEHB223-.LCOLDB23
 4370 044c 34       		.uleb128 .LEHE223-.LEHB223
 4371 044d DB1C     		.uleb128 .L222-.LCOLDB23
 4372 044f 00       		.uleb128 0
 4373 0450 BD1C     		.uleb128 .LEHB224-.LCOLDB23
 4374 0452 05       		.uleb128 .LEHE224-.LEHB224
 4375 0453 00       		.uleb128 0
 4376 0454 00       		.uleb128 0
 4377 0455 D61C     		.uleb128 .LEHB225-.LCOLDB23
 4378 0457 05       		.uleb128 .LEHE225-.LEHB225
 4379 0458 00       		.uleb128 0
 4380 0459 00       		.uleb128 0
 4381 045a EA1C     		.uleb128 .LEHB226-.LCOLDB23
 4382 045c 05       		.uleb128 .LEHE226-.LEHB226
 4383 045d 00       		.uleb128 0
 4384 045e 00       		.uleb128 0
 4385              	.LLSDACSEC1188:
 4386 045f 01       		.byte	0x1
 4387 0460 00       		.byte	0
 4388 0461 000000   		.align 4
 4389 0464 00000000 		.long	0
 4390              	
 4391              	.LLSDATTC1188:
 4392              		.section	.text.unlikely
 4393              		.text
 4395              		.section	.text.unlikely
 4397              	.LCOLDE23:
 4398              		.text
 4399              	.LHOTE23:
 4400              		.section	.rodata.str1.1,"aMS",@progbits,1
 4401              	.LC24:
 4402 0000 303000   		.string	"00"
 4403              	.LC25:
 4404 0003 413500   		.string	"A5"
 4405              	.LC26:
 4406 0006 464600   		.string	"FF"
 4407              	.LC27:
 4408 0009 474600   		.string	"GF"
 4409              	.LC28:
 4410 000c 464700   		.string	"FG"
 4411              		.section	.rodata.str1.8
 4412 0369 00000000 		.align 8
 4412      000000
 4413              	.LC29:
 4414 0370 556E6861 		.string	"Unhandled exception in CHECK_EQUAL(0x00, byte)"
 4414      6E646C65 
 4414      64206578 
 4414      63657074 
 4414      696F6E20 
 4415 039f 00       		.align 8
 4416              	.LC30:
 4417 03a0 556E6861 		.string	"Unhandled exception in CHECK_EQUAL(0xA5, byte)"
 4417      6E646C65 
 4417      64206578 
 4417      63657074 
 4417      696F6E20 
 4418 03cf 00       		.align 8
 4419              	.LC31:
 4420 03d0 556E6861 		.string	"Unhandled exception in CHECK_EQUAL(0xFF, byte)"
 4420      6E646C65 
 4420      64206578 
 4420      63657074 
 4420      696F6E20 
 4421              		.section	.text.unlikely
 4422 0e6f 90       		.align 2
 4423              	.LCOLDB32:
 4424              		.text
 4425              	.LHOTB32:
 4426 0d23 90       		.align 2
 4427 0d24 66662E0F 		.p2align 4
 4427      1F840000 
 4427      00000090 
 4428              		.globl	_ZNK23TestConv_testGetHexByte7RunImplEv
 4430              	_ZNK23TestConv_testGetHexByte7RunImplEv:
 4431              	.LFB1192:
 4432              		.cfi_startproc
 4433              		.cfi_personality 0x9b,DW.ref.__gxx_personality_v0
 4434              		.cfi_lsda 0x1b,.LLSDA1192
 4435 0d30 F30F1EFA 		endbr64
 4436 0d34 4155     		pushq	%r13
 4437              		.cfi_def_cfa_offset 16
 4438              		.cfi_offset 13, -16
 4439 0d36 488D3D00 		leaq	.LC24(%rip), %rdi
 4439      000000
 4440 0d3d 4154     		pushq	%r12
 4441              		.cfi_def_cfa_offset 24
 4442              		.cfi_offset 12, -24
 4443 0d3f 55       		pushq	%rbp
 4444              		.cfi_def_cfa_offset 32
 4445              		.cfi_offset 6, -32
 4446 0d40 4883EC40 		subq	$64, %rsp
 4447              		.cfi_def_cfa_offset 96
 4448 0d44 64488B04 		movq	%fs:40, %rax
 4448      25280000 
 4448      00
 4449 0d4d 48894424 		movq	%rax, 56(%rsp)
 4449      38
 4450 0d52 31C0     		xorl	%eax, %eax
 4451 0d54 4C8D6424 		leaq	10(%rsp), %r12
 4451      0A
 4452 0d59 4C89E6   		movq	%r12, %rsi
 4453              	.LEHB227:
 4454 0d5c E8000000 		call	getHexByte@PLT
 4454      00
 4455              	.LEHE227:
 4456 0d61 8844240B 		movb	%al, 11(%rsp)
 4457              	.LEHB228:
 4458 0d65 E8000000 		call	_ZN8UnitTest11CurrentTest7DetailsEv@PLT
 4458      00
 4459 0d6a 488D6C24 		leaq	16(%rsp), %rbp
 4459      10
 4460 0d6f 488B30   		movq	(%rax), %rsi
 4461 0d72 BA610000 		movl	$97, %edx
 4461      00
 4462 0d77 4889EF   		movq	%rbp, %rdi
 4463 0d7a E8000000 		call	_ZN8UnitTest11TestDetailsC1ERKS0_i@PLT
 4463      00
 4464 0d7f C644240C 		movb	$0, 12(%rsp)
 4464      00
 4465 0d84 E8000000 		call	_ZN8UnitTest11CurrentTest7ResultsEv@PLT
 4465      00
 4466 0d89 488B38   		movq	(%rax), %rdi
 4467 0d8c 488D5424 		leaq	11(%rsp), %rdx
 4467      0B
 4468 0d91 488D7424 		leaq	12(%rsp), %rsi
 4468      0C
 4469 0d96 4889E9   		movq	%rbp, %rcx
 4470 0d99 E8000000 		call	_ZN8UnitTest10CheckEqualIbbEEvRNS_11TestResultsERKT_RKT0_RKNS_11TestDetailsE
 4470      00
 4471              	.LEHE228:
 4472              	.L315:
 4473              	.LEHB229:
 4474 0d9e E8000000 		call	_ZN8UnitTest11CurrentTest7DetailsEv@PLT
 4474      00
 4475 0da3 488B30   		movq	(%rax), %rsi
 4476 0da6 BA620000 		movl	$98, %edx
 4476      00
 4477 0dab 4889EF   		movq	%rbp, %rdi
 4478 0dae E8000000 		call	_ZN8UnitTest11TestDetailsC1ERKS0_i@PLT
 4478      00
 4479 0db3 C744240C 		movl	$0, 12(%rsp)
 4479      00000000 
 4480 0dbb E8000000 		call	_ZN8UnitTest11CurrentTest7ResultsEv@PLT
 4480      00
 4481 0dc0 488B38   		movq	(%rax), %rdi
 4482 0dc3 488D7424 		leaq	12(%rsp), %rsi
 4482      0C
 4483 0dc8 4889E9   		movq	%rbp, %rcx
 4484 0dcb 4C89E2   		movq	%r12, %rdx
 4485 0dce E8000000 		call	_ZN8UnitTest10CheckEqualIihEEvRNS_11TestResultsERKT_RKT0_RKNS_11TestDetailsE
 4485      00
 4486              	.LEHE229:
 4487              	.L318:
 4488 0dd3 4C89E6   		movq	%r12, %rsi
 4489 0dd6 488D3D00 		leaq	.LC25(%rip), %rdi
 4489      000000
 4490              	.LEHB230:
 4491 0ddd E8000000 		call	getHexByte@PLT
 4491      00
 4492              	.LEHE230:
 4493 0de2 8844240B 		movb	%al, 11(%rsp)
 4494              	.LEHB231:
 4495 0de6 E8000000 		call	_ZN8UnitTest11CurrentTest7DetailsEv@PLT
 4495      00
 4496 0deb 488B30   		movq	(%rax), %rsi
 4497 0dee BA640000 		movl	$100, %edx
 4497      00
 4498 0df3 4889EF   		movq	%rbp, %rdi
 4499 0df6 E8000000 		call	_ZN8UnitTest11TestDetailsC1ERKS0_i@PLT
 4499      00
 4500 0dfb C644240C 		movb	$0, 12(%rsp)
 4500      00
 4501 0e00 E8000000 		call	_ZN8UnitTest11CurrentTest7ResultsEv@PLT
 4501      00
 4502 0e05 488B38   		movq	(%rax), %rdi
 4503 0e08 488D5424 		leaq	11(%rsp), %rdx
 4503      0B
 4504 0e0d 488D7424 		leaq	12(%rsp), %rsi
 4504      0C
 4505 0e12 4889E9   		movq	%rbp, %rcx
 4506 0e15 E8000000 		call	_ZN8UnitTest10CheckEqualIbbEEvRNS_11TestResultsERKT_RKT0_RKNS_11TestDetailsE
 4506      00
 4507              	.LEHE231:
 4508              	.L321:
 4509              	.LEHB232:
 4510 0e1a E8000000 		call	_ZN8UnitTest11CurrentTest7DetailsEv@PLT
 4510      00
 4511 0e1f 488B30   		movq	(%rax), %rsi
 4512 0e22 BA650000 		movl	$101, %edx
 4512      00
 4513 0e27 4889EF   		movq	%rbp, %rdi
 4514 0e2a E8000000 		call	_ZN8UnitTest11TestDetailsC1ERKS0_i@PLT
 4514      00
 4515 0e2f C744240C 		movl	$165, 12(%rsp)
 4515      A5000000 
 4516 0e37 E8000000 		call	_ZN8UnitTest11CurrentTest7ResultsEv@PLT
 4516      00
 4517 0e3c 488B38   		movq	(%rax), %rdi
 4518 0e3f 488D7424 		leaq	12(%rsp), %rsi
 4518      0C
 4519 0e44 4889E9   		movq	%rbp, %rcx
 4520 0e47 4C89E2   		movq	%r12, %rdx
 4521 0e4a E8000000 		call	_ZN8UnitTest10CheckEqualIihEEvRNS_11TestResultsERKT_RKT0_RKNS_11TestDetailsE
 4521      00
 4522              	.LEHE232:
 4523              	.L324:
 4524 0e4f 4C89E6   		movq	%r12, %rsi
 4525 0e52 488D3D00 		leaq	.LC26(%rip), %rdi
 4525      000000
 4526              	.LEHB233:
 4527 0e59 E8000000 		call	getHexByte@PLT
 4527      00
 4528              	.LEHE233:
 4529 0e5e 8844240B 		movb	%al, 11(%rsp)
 4530              	.LEHB234:
 4531 0e62 E8000000 		call	_ZN8UnitTest11CurrentTest7DetailsEv@PLT
 4531      00
 4532 0e67 488B30   		movq	(%rax), %rsi
 4533 0e6a BA670000 		movl	$103, %edx
 4533      00
 4534 0e6f 4889EF   		movq	%rbp, %rdi
 4535 0e72 E8000000 		call	_ZN8UnitTest11TestDetailsC1ERKS0_i@PLT
 4535      00
 4536 0e77 C644240C 		movb	$0, 12(%rsp)
 4536      00
 4537 0e7c E8000000 		call	_ZN8UnitTest11CurrentTest7ResultsEv@PLT
 4537      00
 4538 0e81 488B38   		movq	(%rax), %rdi
 4539 0e84 488D5424 		leaq	11(%rsp), %rdx
 4539      0B
 4540 0e89 488D7424 		leaq	12(%rsp), %rsi
 4540      0C
 4541 0e8e 4889E9   		movq	%rbp, %rcx
 4542 0e91 E8000000 		call	_ZN8UnitTest10CheckEqualIbbEEvRNS_11TestResultsERKT_RKT0_RKNS_11TestDetailsE
 4542      00
 4543              	.LEHE234:
 4544              	.L327:
 4545              	.LEHB235:
 4546 0e96 E8000000 		call	_ZN8UnitTest11CurrentTest7DetailsEv@PLT
 4546      00
 4547 0e9b 488B30   		movq	(%rax), %rsi
 4548 0e9e BA680000 		movl	$104, %edx
 4548      00
 4549 0ea3 4889EF   		movq	%rbp, %rdi
 4550 0ea6 E8000000 		call	_ZN8UnitTest11TestDetailsC1ERKS0_i@PLT
 4550      00
 4551 0eab C744240C 		movl	$255, 12(%rsp)
 4551      FF000000 
 4552 0eb3 E8000000 		call	_ZN8UnitTest11CurrentTest7ResultsEv@PLT
 4552      00
 4553 0eb8 488B38   		movq	(%rax), %rdi
 4554 0ebb 488D7424 		leaq	12(%rsp), %rsi
 4554      0C
 4555 0ec0 4889E9   		movq	%rbp, %rcx
 4556 0ec3 4C89E2   		movq	%r12, %rdx
 4557 0ec6 E8000000 		call	_ZN8UnitTest10CheckEqualIihEEvRNS_11TestResultsERKT_RKT0_RKNS_11TestDetailsE
 4557      00
 4558              	.LEHE235:
 4559              	.L330:
 4560 0ecb 4C89E6   		movq	%r12, %rsi
 4561 0ece 488D3D00 		leaq	.LC27(%rip), %rdi
 4561      000000
 4562              	.LEHB236:
 4563 0ed5 E8000000 		call	getHexByte@PLT
 4563      00
 4564              	.LEHE236:
 4565 0eda 8844240B 		movb	%al, 11(%rsp)
 4566              	.LEHB237:
 4567 0ede E8000000 		call	_ZN8UnitTest11CurrentTest7DetailsEv@PLT
 4567      00
 4568 0ee3 488B30   		movq	(%rax), %rsi
 4569 0ee6 BA6A0000 		movl	$106, %edx
 4569      00
 4570 0eeb 4889EF   		movq	%rbp, %rdi
 4571 0eee E8000000 		call	_ZN8UnitTest11TestDetailsC1ERKS0_i@PLT
 4571      00
 4572 0ef3 C644240C 		movb	$1, 12(%rsp)
 4572      01
 4573 0ef8 E8000000 		call	_ZN8UnitTest11CurrentTest7ResultsEv@PLT
 4573      00
 4574 0efd 488B38   		movq	(%rax), %rdi
 4575 0f00 488D5424 		leaq	11(%rsp), %rdx
 4575      0B
 4576 0f05 488D7424 		leaq	12(%rsp), %rsi
 4576      0C
 4577 0f0a 4889E9   		movq	%rbp, %rcx
 4578 0f0d E8000000 		call	_ZN8UnitTest10CheckEqualIbbEEvRNS_11TestResultsERKT_RKT0_RKNS_11TestDetailsE
 4578      00
 4579              	.LEHE237:
 4580              	.L333:
 4581 0f12 4C89E6   		movq	%r12, %rsi
 4582 0f15 488D3D00 		leaq	.LC28(%rip), %rdi
 4582      000000
 4583              	.LEHB238:
 4584 0f1c E8000000 		call	getHexByte@PLT
 4584      00
 4585              	.LEHE238:
 4586 0f21 8844240B 		movb	%al, 11(%rsp)
 4587              	.LEHB239:
 4588 0f25 E8000000 		call	_ZN8UnitTest11CurrentTest7DetailsEv@PLT
 4588      00
 4589 0f2a 488B30   		movq	(%rax), %rsi
 4590 0f2d BA6C0000 		movl	$108, %edx
 4590      00
 4591 0f32 4889EF   		movq	%rbp, %rdi
 4592 0f35 E8000000 		call	_ZN8UnitTest11TestDetailsC1ERKS0_i@PLT
 4592      00
 4593 0f3a C644240C 		movb	$1, 12(%rsp)
 4593      01
 4594 0f3f E8000000 		call	_ZN8UnitTest11CurrentTest7ResultsEv@PLT
 4594      00
 4595 0f44 488B38   		movq	(%rax), %rdi
 4596 0f47 488D5424 		leaq	11(%rsp), %rdx
 4596      0B
 4597 0f4c 488D7424 		leaq	12(%rsp), %rsi
 4597      0C
 4598 0f51 4889E9   		movq	%rbp, %rcx
 4599 0f54 E8000000 		call	_ZN8UnitTest10CheckEqualIbbEEvRNS_11TestResultsERKT_RKT0_RKNS_11TestDetailsE
 4599      00
 4600              	.LEHE239:
 4601              	.L313:
 4602 0f59 488B4424 		movq	56(%rsp), %rax
 4602      38
 4603 0f5e 64482B04 		subq	%fs:40, %rax
 4603      25280000 
 4603      00
 4604 0f67 750A     		jne	.L356
 4605 0f69 4883C440 		addq	$64, %rsp
 4606              		.cfi_remember_state
 4607              		.cfi_def_cfa_offset 32
 4608 0f6d 5D       		popq	%rbp
 4609              		.cfi_def_cfa_offset 24
 4610 0f6e 415C     		popq	%r12
 4611              		.cfi_def_cfa_offset 16
 4612 0f70 415D     		popq	%r13
 4613              		.cfi_def_cfa_offset 8
 4614 0f72 C3       		ret
 4615              	.L356:
 4616              		.cfi_restore_state
 4617 0f73 E8000000 		call	__stack_chk_fail@PLT
 4617      00
 4618              	.L353:
 4619 0f78 F30F1EFA 		endbr64
 4620 0f7c 4889C7   		movq	%rax, %rdi
 4621 0f7f E9000000 		jmp	.L335
 4621      00
 4622              	.L351:
 4623 0f84 F30F1EFA 		endbr64
 4624 0f88 4889C7   		movq	%rax, %rdi
 4625 0f8b E9000000 		jmp	.L332
 4625      00
 4626              	.L349:
 4627 0f90 F30F1EFA 		endbr64
 4628 0f94 4889C7   		movq	%rax, %rdi
 4629 0f97 E9000000 		jmp	.L329
 4629      00
 4630              	.L347:
 4631 0f9c F30F1EFA 		endbr64
 4632 0fa0 4889C7   		movq	%rax, %rdi
 4633 0fa3 E9000000 		jmp	.L326
 4633      00
 4634              	.L345:
 4635 0fa8 F30F1EFA 		endbr64
 4636 0fac 4889C7   		movq	%rax, %rdi
 4637 0faf E9000000 		jmp	.L323
 4637      00
 4638              	.L343:
 4639 0fb4 F30F1EFA 		endbr64
 4640 0fb8 4889C7   		movq	%rax, %rdi
 4641 0fbb E9000000 		jmp	.L320
 4641      00
 4642              	.L341:
 4643 0fc0 F30F1EFA 		endbr64
 4644 0fc4 4889C7   		movq	%rax, %rdi
 4645 0fc7 E9000000 		jmp	.L317
 4645      00
 4646              	.L339:
 4647 0fcc F30F1EFA 		endbr64
 4648 0fd0 4889C7   		movq	%rax, %rdi
 4649 0fd3 E9000000 		jmp	.L314
 4649      00
 4650              		.section	.gcc_except_table
 4651              		.align 4
 4652              	.LLSDA1192:
 4653 0468 FF       		.byte	0xff
 4654 0469 9B       		.byte	0x9b
 4655 046a 51       		.uleb128 .LLSDATT1192-.LLSDATTD1192
 4656              	.LLSDATTD1192:
 4657 046b 01       		.byte	0x1
 4658 046c 46       		.uleb128 .LLSDACSE1192-.LLSDACSB1192
 4659              	.LLSDACSB1192:
 4660 046d 2C       		.uleb128 .LEHB227-.LFB1192
 4661 046e 05       		.uleb128 .LEHE227-.LEHB227
 4662 046f 00       		.uleb128 0
 4663 0470 00       		.uleb128 0
 4664 0471 35       		.uleb128 .LEHB228-.LFB1192
 4665 0472 39       		.uleb128 .LEHE228-.LEHB228
 4666 0473 9C05     		.uleb128 .L339-.LFB1192
 4667 0475 01       		.uleb128 0x1
 4668 0476 6E       		.uleb128 .LEHB229-.LFB1192
 4669 0477 35       		.uleb128 .LEHE229-.LEHB229
 4670 0478 9005     		.uleb128 .L341-.LFB1192
 4671 047a 01       		.uleb128 0x1
 4672 047b AD01     		.uleb128 .LEHB230-.LFB1192
 4673 047d 05       		.uleb128 .LEHE230-.LEHB230
 4674 047e 00       		.uleb128 0
 4675 047f 00       		.uleb128 0
 4676 0480 B601     		.uleb128 .LEHB231-.LFB1192
 4677 0482 34       		.uleb128 .LEHE231-.LEHB231
 4678 0483 8405     		.uleb128 .L343-.LFB1192
 4679 0485 01       		.uleb128 0x1
 4680 0486 EA01     		.uleb128 .LEHB232-.LFB1192
 4681 0488 35       		.uleb128 .LEHE232-.LEHB232
 4682 0489 F804     		.uleb128 .L345-.LFB1192
 4683 048b 01       		.uleb128 0x1
 4684 048c A902     		.uleb128 .LEHB233-.LFB1192
 4685 048e 05       		.uleb128 .LEHE233-.LEHB233
 4686 048f 00       		.uleb128 0
 4687 0490 00       		.uleb128 0
 4688 0491 B202     		.uleb128 .LEHB234-.LFB1192
 4689 0493 34       		.uleb128 .LEHE234-.LEHB234
 4690 0494 EC04     		.uleb128 .L347-.LFB1192
 4691 0496 01       		.uleb128 0x1
 4692 0497 E602     		.uleb128 .LEHB235-.LFB1192
 4693 0499 35       		.uleb128 .LEHE235-.LEHB235
 4694 049a E004     		.uleb128 .L349-.LFB1192
 4695 049c 01       		.uleb128 0x1
 4696 049d A503     		.uleb128 .LEHB236-.LFB1192
 4697 049f 05       		.uleb128 .LEHE236-.LEHB236
 4698 04a0 00       		.uleb128 0
 4699 04a1 00       		.uleb128 0
 4700 04a2 AE03     		.uleb128 .LEHB237-.LFB1192
 4701 04a4 34       		.uleb128 .LEHE237-.LEHB237
 4702 04a5 D404     		.uleb128 .L351-.LFB1192
 4703 04a7 01       		.uleb128 0x1
 4704 04a8 EC03     		.uleb128 .LEHB238-.LFB1192
 4705 04aa 05       		.uleb128 .LEHE238-.LEHB238
 4706 04ab 00       		.uleb128 0
 4707 04ac 00       		.uleb128 0
 4708 04ad F503     		.uleb128 .LEHB239-.LFB1192
 4709 04af 34       		.uleb128 .LEHE239-.LEHB239
 4710 04b0 C804     		.uleb128 .L353-.LFB1192
 4711 04b2 01       		.uleb128 0x1
 4712              	.LLSDACSE1192:
 4713 04b3 01       		.byte	0x1
 4714 04b4 00       		.byte	0
 4715 04b5 000000   		.align 4
 4716 04b8 00000000 		.long	0
 4717              	
 4718              	.LLSDATT1192:
 4719              		.text
 4720              		.cfi_endproc
 4721              		.section	.text.unlikely
 4722              		.cfi_startproc
 4723              		.cfi_personality 0x9b,DW.ref.__gxx_personality_v0
 4724              		.cfi_lsda 0x1b,.LLSDAC1192
 4726              	_ZNK23TestConv_testGetHexByte7RunImplEv.cold:
 4727              	.LFSB1192:
 4728              	.L335:
 4729              		.cfi_def_cfa_offset 96
 4730              		.cfi_offset 6, -32
 4731              		.cfi_offset 12, -24
 4732              		.cfi_offset 13, -16
 4733 0e70 E8000000 		call	__cxa_begin_catch@PLT
 4733      00
 4734              	.LEHB240:
 4735 0e75 E8000000 		call	_ZN8UnitTest11CurrentTest7ResultsEv@PLT
 4735      00
 4736 0e7a 4C8B20   		movq	(%rax), %r12
 4737 0e7d E8000000 		call	_ZN8UnitTest11CurrentTest7DetailsEv@PLT
 4737      00
 4738 0e82 488B30   		movq	(%rax), %rsi
 4739 0e85 BA6C0000 		movl	$108, %edx
 4739      00
 4740 0e8a 4889EF   		movq	%rbp, %rdi
 4741 0e8d E8000000 		call	_ZN8UnitTest11TestDetailsC1ERKS0_i@PLT
 4741      00
 4742 0e92 488D1500 		leaq	.LC22(%rip), %rdx
 4742      000000
 4743 0e99 4889EE   		movq	%rbp, %rsi
 4744 0e9c 4C89E7   		movq	%r12, %rdi
 4745 0e9f E8000000 		call	_ZN8UnitTest11TestResults13OnTestFailureERKNS_11TestDetailsEPKc@PLT
 4745      00
 4746              	.LEHE240:
 4747              	.LEHB241:
 4748 0ea4 E8000000 		call	__cxa_end_catch@PLT
 4748      00
 4749              	.LEHE241:
 4750 0ea9 E9000000 		jmp	.L313
 4750      00
 4751              	.L332:
 4752 0eae E8000000 		call	__cxa_begin_catch@PLT
 4752      00
 4753              	.LEHB242:
 4754 0eb3 E8000000 		call	_ZN8UnitTest11CurrentTest7ResultsEv@PLT
 4754      00
 4755 0eb8 4C8B28   		movq	(%rax), %r13
 4756 0ebb E8000000 		call	_ZN8UnitTest11CurrentTest7DetailsEv@PLT
 4756      00
 4757 0ec0 488B30   		movq	(%rax), %rsi
 4758 0ec3 BA6A0000 		movl	$106, %edx
 4758      00
 4759 0ec8 4889EF   		movq	%rbp, %rdi
 4760 0ecb E8000000 		call	_ZN8UnitTest11TestDetailsC1ERKS0_i@PLT
 4760      00
 4761 0ed0 488D1500 		leaq	.LC22(%rip), %rdx
 4761      000000
 4762 0ed7 4889EE   		movq	%rbp, %rsi
 4763 0eda 4C89EF   		movq	%r13, %rdi
 4764 0edd E8000000 		call	_ZN8UnitTest11TestResults13OnTestFailureERKNS_11TestDetailsEPKc@PLT
 4764      00
 4765              	.LEHE242:
 4766              	.LEHB243:
 4767 0ee2 E8000000 		call	__cxa_end_catch@PLT
 4767      00
 4768              	.LEHE243:
 4769 0ee7 E9000000 		jmp	.L333
 4769      00
 4770              	.L354:
 4771 0eec F30F1EFA 		endbr64
 4772 0ef0 4889C5   		movq	%rax, %rbp
 4773 0ef3 E8000000 		call	__cxa_end_catch@PLT
 4773      00
 4774 0ef8 4889EF   		movq	%rbp, %rdi
 4775              	.LEHB244:
 4776 0efb E8000000 		call	_Unwind_Resume@PLT
 4776      00
 4777              	.LEHE244:
 4778              	.L352:
 4779 0f00 F30F1EFA 		endbr64
 4780 0f04 4889C5   		movq	%rax, %rbp
 4781 0f07 E8000000 		call	__cxa_end_catch@PLT
 4781      00
 4782 0f0c 4889EF   		movq	%rbp, %rdi
 4783              	.LEHB245:
 4784 0f0f E8000000 		call	_Unwind_Resume@PLT
 4784      00
 4785              	.LEHE245:
 4786              	.L329:
 4787 0f14 E8000000 		call	__cxa_begin_catch@PLT
 4787      00
 4788              	.LEHB246:
 4789 0f19 E8000000 		call	_ZN8UnitTest11CurrentTest7ResultsEv@PLT
 4789      00
 4790 0f1e 4C8B28   		movq	(%rax), %r13
 4791 0f21 E8000000 		call	_ZN8UnitTest11CurrentTest7DetailsEv@PLT
 4791      00
 4792 0f26 488B30   		movq	(%rax), %rsi
 4793 0f29 BA680000 		movl	$104, %edx
 4793      00
 4794 0f2e 4889EF   		movq	%rbp, %rdi
 4795 0f31 E8000000 		call	_ZN8UnitTest11TestDetailsC1ERKS0_i@PLT
 4795      00
 4796 0f36 488D1500 		leaq	.LC31(%rip), %rdx
 4796      000000
 4797 0f3d 4889EE   		movq	%rbp, %rsi
 4798 0f40 4C89EF   		movq	%r13, %rdi
 4799 0f43 E8000000 		call	_ZN8UnitTest11TestResults13OnTestFailureERKNS_11TestDetailsEPKc@PLT
 4799      00
 4800              	.LEHE246:
 4801              	.LEHB247:
 4802 0f48 E8000000 		call	__cxa_end_catch@PLT
 4802      00
 4803              	.LEHE247:
 4804 0f4d E9000000 		jmp	.L330
 4804      00
 4805              	.L326:
 4806 0f52 E8000000 		call	__cxa_begin_catch@PLT
 4806      00
 4807              	.LEHB248:
 4808 0f57 E8000000 		call	_ZN8UnitTest11CurrentTest7ResultsEv@PLT
 4808      00
 4809 0f5c 4C8B28   		movq	(%rax), %r13
 4810 0f5f E8000000 		call	_ZN8UnitTest11CurrentTest7DetailsEv@PLT
 4810      00
 4811 0f64 488B30   		movq	(%rax), %rsi
 4812 0f67 BA670000 		movl	$103, %edx
 4812      00
 4813 0f6c 4889EF   		movq	%rbp, %rdi
 4814 0f6f E8000000 		call	_ZN8UnitTest11TestDetailsC1ERKS0_i@PLT
 4814      00
 4815 0f74 488D1500 		leaq	.LC5(%rip), %rdx
 4815      000000
 4816 0f7b 4889EE   		movq	%rbp, %rsi
 4817 0f7e 4C89EF   		movq	%r13, %rdi
 4818 0f81 E8000000 		call	_ZN8UnitTest11TestResults13OnTestFailureERKNS_11TestDetailsEPKc@PLT
 4818      00
 4819              	.LEHE248:
 4820              	.LEHB249:
 4821 0f86 E8000000 		call	__cxa_end_catch@PLT
 4821      00
 4822              	.LEHE249:
 4823 0f8b E9000000 		jmp	.L327
 4823      00
 4824              	.L350:
 4825 0f90 F30F1EFA 		endbr64
 4826 0f94 4889C5   		movq	%rax, %rbp
 4827 0f97 E8000000 		call	__cxa_end_catch@PLT
 4827      00
 4828 0f9c 4889EF   		movq	%rbp, %rdi
 4829              	.LEHB250:
 4830 0f9f E8000000 		call	_Unwind_Resume@PLT
 4830      00
 4831              	.LEHE250:
 4832              	.L348:
 4833 0fa4 F30F1EFA 		endbr64
 4834 0fa8 4889C5   		movq	%rax, %rbp
 4835 0fab E8000000 		call	__cxa_end_catch@PLT
 4835      00
 4836 0fb0 4889EF   		movq	%rbp, %rdi
 4837              	.LEHB251:
 4838 0fb3 E8000000 		call	_Unwind_Resume@PLT
 4838      00
 4839              	.LEHE251:
 4840              	.L323:
 4841 0fb8 E8000000 		call	__cxa_begin_catch@PLT
 4841      00
 4842              	.LEHB252:
 4843 0fbd E8000000 		call	_ZN8UnitTest11CurrentTest7ResultsEv@PLT
 4843      00
 4844 0fc2 4C8B28   		movq	(%rax), %r13
 4845 0fc5 E8000000 		call	_ZN8UnitTest11CurrentTest7DetailsEv@PLT
 4845      00
 4846 0fca 488B30   		movq	(%rax), %rsi
 4847 0fcd BA650000 		movl	$101, %edx
 4847      00
 4848 0fd2 4889EF   		movq	%rbp, %rdi
 4849 0fd5 E8000000 		call	_ZN8UnitTest11TestDetailsC1ERKS0_i@PLT
 4849      00
 4850 0fda 488D1500 		leaq	.LC30(%rip), %rdx
 4850      000000
 4851 0fe1 4889EE   		movq	%rbp, %rsi
 4852 0fe4 4C89EF   		movq	%r13, %rdi
 4853 0fe7 E8000000 		call	_ZN8UnitTest11TestResults13OnTestFailureERKNS_11TestDetailsEPKc@PLT
 4853      00
 4854              	.LEHE252:
 4855              	.LEHB253:
 4856 0fec E8000000 		call	__cxa_end_catch@PLT
 4856      00
 4857              	.LEHE253:
 4858 0ff1 E9000000 		jmp	.L324
 4858      00
 4859              	.L320:
 4860 0ff6 E8000000 		call	__cxa_begin_catch@PLT
 4860      00
 4861              	.LEHB254:
 4862 0ffb E8000000 		call	_ZN8UnitTest11CurrentTest7ResultsEv@PLT
 4862      00
 4863 1000 4C8B28   		movq	(%rax), %r13
 4864 1003 E8000000 		call	_ZN8UnitTest11CurrentTest7DetailsEv@PLT
 4864      00
 4865 1008 488B30   		movq	(%rax), %rsi
 4866 100b BA640000 		movl	$100, %edx
 4866      00
 4867 1010 4889EF   		movq	%rbp, %rdi
 4868 1013 E8000000 		call	_ZN8UnitTest11TestDetailsC1ERKS0_i@PLT
 4868      00
 4869 1018 488D1500 		leaq	.LC5(%rip), %rdx
 4869      000000
 4870 101f 4889EE   		movq	%rbp, %rsi
 4871 1022 4C89EF   		movq	%r13, %rdi
 4872 1025 E8000000 		call	_ZN8UnitTest11TestResults13OnTestFailureERKNS_11TestDetailsEPKc@PLT
 4872      00
 4873              	.LEHE254:
 4874              	.LEHB255:
 4875 102a E8000000 		call	__cxa_end_catch@PLT
 4875      00
 4876              	.LEHE255:
 4877 102f E9000000 		jmp	.L321
 4877      00
 4878              	.L346:
 4879 1034 F30F1EFA 		endbr64
 4880 1038 4889C5   		movq	%rax, %rbp
 4881 103b E8000000 		call	__cxa_end_catch@PLT
 4881      00
 4882 1040 4889EF   		movq	%rbp, %rdi
 4883              	.LEHB256:
 4884 1043 E8000000 		call	_Unwind_Resume@PLT
 4884      00
 4885              	.LEHE256:
 4886              	.L344:
 4887 1048 F30F1EFA 		endbr64
 4888 104c 4889C5   		movq	%rax, %rbp
 4889 104f E8000000 		call	__cxa_end_catch@PLT
 4889      00
 4890 1054 4889EF   		movq	%rbp, %rdi
 4891              	.LEHB257:
 4892 1057 E8000000 		call	_Unwind_Resume@PLT
 4892      00
 4893              	.LEHE257:
 4894              	.L317:
 4895 105c E8000000 		call	__cxa_begin_catch@PLT
 4895      00
 4896              	.LEHB258:
 4897 1061 E8000000 		call	_ZN8UnitTest11CurrentTest7ResultsEv@PLT
 4897      00
 4898 1066 4C8B28   		movq	(%rax), %r13
 4899 1069 E8000000 		call	_ZN8UnitTest11CurrentTest7DetailsEv@PLT
 4899      00
 4900 106e 488B30   		movq	(%rax), %rsi
 4901 1071 BA620000 		movl	$98, %edx
 4901      00
 4902 1076 4889EF   		movq	%rbp, %rdi
 4903 1079 E8000000 		call	_ZN8UnitTest11TestDetailsC1ERKS0_i@PLT
 4903      00
 4904 107e 488D1500 		leaq	.LC29(%rip), %rdx
 4904      000000
 4905 1085 4889EE   		movq	%rbp, %rsi
 4906 1088 4C89EF   		movq	%r13, %rdi
 4907 108b E8000000 		call	_ZN8UnitTest11TestResults13OnTestFailureERKNS_11TestDetailsEPKc@PLT
 4907      00
 4908              	.LEHE258:
 4909              	.LEHB259:
 4910 1090 E8000000 		call	__cxa_end_catch@PLT
 4910      00
 4911              	.LEHE259:
 4912 1095 E9000000 		jmp	.L318
 4912      00
 4913              	.L314:
 4914 109a E8000000 		call	__cxa_begin_catch@PLT
 4914      00
 4915              	.LEHB260:
 4916 109f E8000000 		call	_ZN8UnitTest11CurrentTest7ResultsEv@PLT
 4916      00
 4917 10a4 4C8B28   		movq	(%rax), %r13
 4918 10a7 E8000000 		call	_ZN8UnitTest11CurrentTest7DetailsEv@PLT
 4918      00
 4919 10ac 488D6C24 		leaq	16(%rsp), %rbp
 4919      10
 4920 10b1 488B30   		movq	(%rax), %rsi
 4921 10b4 BA610000 		movl	$97, %edx
 4921      00
 4922 10b9 4889EF   		movq	%rbp, %rdi
 4923 10bc E8000000 		call	_ZN8UnitTest11TestDetailsC1ERKS0_i@PLT
 4923      00
 4924 10c1 488D1500 		leaq	.LC5(%rip), %rdx
 4924      000000
 4925 10c8 4889EE   		movq	%rbp, %rsi
 4926 10cb 4C89EF   		movq	%r13, %rdi
 4927 10ce E8000000 		call	_ZN8UnitTest11TestResults13OnTestFailureERKNS_11TestDetailsEPKc@PLT
 4927      00
 4928              	.LEHE260:
 4929              	.LEHB261:
 4930 10d3 E8000000 		call	__cxa_end_catch@PLT
 4930      00
 4931              	.LEHE261:
 4932 10d8 E9000000 		jmp	.L315
 4932      00
 4933              	.L342:
 4934 10dd F30F1EFA 		endbr64
 4935 10e1 4889C5   		movq	%rax, %rbp
 4936 10e4 E8000000 		call	__cxa_end_catch@PLT
 4936      00
 4937 10e9 4889EF   		movq	%rbp, %rdi
 4938              	.LEHB262:
 4939 10ec E8000000 		call	_Unwind_Resume@PLT
 4939      00
 4940              	.LEHE262:
 4941              	.L340:
 4942 10f1 F30F1EFA 		endbr64
 4943 10f5 4889C5   		movq	%rax, %rbp
 4944 10f8 E8000000 		call	__cxa_end_catch@PLT
 4944      00
 4945 10fd 4889EF   		movq	%rbp, %rdi
 4946              	.LEHB263:
 4947 1100 E8000000 		call	_Unwind_Resume@PLT
 4947      00
 4948              	.LEHE263:
 4949              		.cfi_endproc
 4950              	.LFE1192:
 4951              		.section	.gcc_except_table
 4952              		.align 4
 4953              	.LLSDAC1192:
 4954 04bc FF       		.byte	0xff
 4955 04bd 9B       		.byte	0x9b
 4956 04be 8401     		.uleb128 .LLSDATTC1192-.LLSDATTDC1192
 4957              	.LLSDATTDC1192:
 4958 04c0 01       		.byte	0x1
 4959 04c1 7B       		.uleb128 .LLSDACSEC1192-.LLSDACSBC1192
 4960              	.LLSDACSBC1192:
 4961 04c2 05       		.uleb128 .LEHB240-.LCOLDB32
 4962 04c3 2F       		.uleb128 .LEHE240-.LEHB240
 4963 04c4 7C       		.uleb128 .L354-.LCOLDB32
 4964 04c5 00       		.uleb128 0
 4965 04c6 34       		.uleb128 .LEHB241-.LCOLDB32
 4966 04c7 05       		.uleb128 .LEHE241-.LEHB241
 4967 04c8 00       		.uleb128 0
 4968 04c9 00       		.uleb128 0
 4969 04ca 43       		.uleb128 .LEHB242-.LCOLDB32
 4970 04cb 2F       		.uleb128 .LEHE242-.LEHB242
 4971 04cc 9001     		.uleb128 .L352-.LCOLDB32
 4972 04ce 00       		.uleb128 0
 4973 04cf 72       		.uleb128 .LEHB243-.LCOLDB32
 4974 04d0 05       		.uleb128 .LEHE243-.LEHB243
 4975 04d1 00       		.uleb128 0
 4976 04d2 00       		.uleb128 0
 4977 04d3 8B01     		.uleb128 .LEHB244-.LCOLDB32
 4978 04d5 05       		.uleb128 .LEHE244-.LEHB244
 4979 04d6 00       		.uleb128 0
 4980 04d7 00       		.uleb128 0
 4981 04d8 9F01     		.uleb128 .LEHB245-.LCOLDB32
 4982 04da 05       		.uleb128 .LEHE245-.LEHB245
 4983 04db 00       		.uleb128 0
 4984 04dc 00       		.uleb128 0
 4985 04dd A901     		.uleb128 .LEHB246-.LCOLDB32
 4986 04df 2F       		.uleb128 .LEHE246-.LEHB246
 4987 04e0 A002     		.uleb128 .L350-.LCOLDB32
 4988 04e2 00       		.uleb128 0
 4989 04e3 D801     		.uleb128 .LEHB247-.LCOLDB32
 4990 04e5 05       		.uleb128 .LEHE247-.LEHB247
 4991 04e6 00       		.uleb128 0
 4992 04e7 00       		.uleb128 0
 4993 04e8 E701     		.uleb128 .LEHB248-.LCOLDB32
 4994 04ea 2F       		.uleb128 .LEHE248-.LEHB248
 4995 04eb B402     		.uleb128 .L348-.LCOLDB32
 4996 04ed 00       		.uleb128 0
 4997 04ee 9602     		.uleb128 .LEHB249-.LCOLDB32
 4998 04f0 05       		.uleb128 .LEHE249-.LEHB249
 4999 04f1 00       		.uleb128 0
 5000 04f2 00       		.uleb128 0
 5001 04f3 AF02     		.uleb128 .LEHB250-.LCOLDB32
 5002 04f5 05       		.uleb128 .LEHE250-.LEHB250
 5003 04f6 00       		.uleb128 0
 5004 04f7 00       		.uleb128 0
 5005 04f8 C302     		.uleb128 .LEHB251-.LCOLDB32
 5006 04fa 05       		.uleb128 .LEHE251-.LEHB251
 5007 04fb 00       		.uleb128 0
 5008 04fc 00       		.uleb128 0
 5009 04fd CD02     		.uleb128 .LEHB252-.LCOLDB32
 5010 04ff 2F       		.uleb128 .LEHE252-.LEHB252
 5011 0500 C403     		.uleb128 .L346-.LCOLDB32
 5012 0502 00       		.uleb128 0
 5013 0503 FC02     		.uleb128 .LEHB253-.LCOLDB32
 5014 0505 05       		.uleb128 .LEHE253-.LEHB253
 5015 0506 00       		.uleb128 0
 5016 0507 00       		.uleb128 0
 5017 0508 8B03     		.uleb128 .LEHB254-.LCOLDB32
 5018 050a 2F       		.uleb128 .LEHE254-.LEHB254
 5019 050b D803     		.uleb128 .L344-.LCOLDB32
 5020 050d 00       		.uleb128 0
 5021 050e BA03     		.uleb128 .LEHB255-.LCOLDB32
 5022 0510 05       		.uleb128 .LEHE255-.LEHB255
 5023 0511 00       		.uleb128 0
 5024 0512 00       		.uleb128 0
 5025 0513 D303     		.uleb128 .LEHB256-.LCOLDB32
 5026 0515 05       		.uleb128 .LEHE256-.LEHB256
 5027 0516 00       		.uleb128 0
 5028 0517 00       		.uleb128 0
 5029 0518 E703     		.uleb128 .LEHB257-.LCOLDB32
 5030 051a 05       		.uleb128 .LEHE257-.LEHB257
 5031 051b 00       		.uleb128 0
 5032 051c 00       		.uleb128 0
 5033 051d F103     		.uleb128 .LEHB258-.LCOLDB32
 5034 051f 2F       		.uleb128 .LEHE258-.LEHB258
 5035 0520 ED04     		.uleb128 .L342-.LCOLDB32
 5036 0522 00       		.uleb128 0
 5037 0523 A004     		.uleb128 .LEHB259-.LCOLDB32
 5038 0525 05       		.uleb128 .LEHE259-.LEHB259
 5039 0526 00       		.uleb128 0
 5040 0527 00       		.uleb128 0
 5041 0528 AF04     		.uleb128 .LEHB260-.LCOLDB32
 5042 052a 34       		.uleb128 .LEHE260-.LEHB260
 5043 052b 8105     		.uleb128 .L340-.LCOLDB32
 5044 052d 00       		.uleb128 0
 5045 052e E304     		.uleb128 .LEHB261-.LCOLDB32
 5046 0530 05       		.uleb128 .LEHE261-.LEHB261
 5047 0531 00       		.uleb128 0
 5048 0532 00       		.uleb128 0
 5049 0533 FC04     		.uleb128 .LEHB262-.LCOLDB32
 5050 0535 05       		.uleb128 .LEHE262-.LEHB262
 5051 0536 00       		.uleb128 0
 5052 0537 00       		.uleb128 0
 5053 0538 9005     		.uleb128 .LEHB263-.LCOLDB32
 5054 053a 05       		.uleb128 .LEHE263-.LEHB263
 5055 053b 00       		.uleb128 0
 5056 053c 00       		.uleb128 0
 5057              	.LLSDACSEC1192:
 5058 053d 01       		.byte	0x1
 5059 053e 00       		.byte	0
 5060 053f 00       		.align 4
 5061 0540 00000000 		.long	0
 5062              	
 5063              	.LLSDATTC1192:
 5064              		.section	.text.unlikely
 5065              		.text
 5067              		.section	.text.unlikely
 5069              	.LCOLDE32:
 5070              		.text
 5071              	.LHOTE32:
 5072              		.section	.text._ZN8UnitTest10CheckEqualIccEEvRNS_11TestResultsERKT_RKT0_RKNS_11TestDetailsE,"axG",
 5073              		.p2align 4
 5074              		.weak	_ZN8UnitTest10CheckEqualIccEEvRNS_11TestResultsERKT_RKT0_RKNS_11TestDetailsE
 5076              	_ZN8UnitTest10CheckEqualIccEEvRNS_11TestResultsERKT_RKT0_RKNS_11TestDetailsE:
 5077              	.LFB1234:
 5078              		.cfi_startproc
 5079              		.cfi_personality 0x9b,DW.ref.__gxx_personality_v0
 5080              		.cfi_lsda 0x1b,.LLSDA1234
 5081 0000 F30F1EFA 		endbr64
 5082 0004 4157     		pushq	%r15
 5083              		.cfi_def_cfa_offset 16
 5084              		.cfi_offset 15, -16
 5085 0006 4156     		pushq	%r14
 5086              		.cfi_def_cfa_offset 24
 5087              		.cfi_offset 14, -24
 5088 0008 4155     		pushq	%r13
 5089              		.cfi_def_cfa_offset 32
 5090              		.cfi_offset 13, -32
 5091 000a 4154     		pushq	%r12
 5092              		.cfi_def_cfa_offset 40
 5093              		.cfi_offset 12, -40
 5094 000c 55       		pushq	%rbp
 5095              		.cfi_def_cfa_offset 48
 5096              		.cfi_offset 6, -48
 5097 000d 53       		pushq	%rbx
 5098              		.cfi_def_cfa_offset 56
 5099              		.cfi_offset 3, -56
 5100 000e 4881ECE8 		subq	$488, %rsp
 5100      010000
 5101              		.cfi_def_cfa_offset 544
 5102 0015 F30F7E0D 		movq	.LC2(%rip), %xmm1
 5102      00000000 
 5103 001d 48897C24 		movq	%rdi, 16(%rsp)
 5103      10
 5104 0022 48894C24 		movq	%rcx, 24(%rsp)
 5104      18
 5105 0027 0F160D00 		movhps	.LC3(%rip), %xmm1
 5105      000000
 5106 002e 64488B04 		movq	%fs:40, %rax
 5106      25280000 
 5106      00
 5107 0037 48898424 		movq	%rax, 472(%rsp)
 5107      D8010000 
 5108 003f 31C0     		xorl	%eax, %eax
 5109 0041 0FB602   		movzbl	(%rdx), %eax
 5110 0044 0F290C24 		movaps	%xmm1, (%rsp)
 5111 0048 3806     		cmpb	%al, (%rsi)
 5112 004a 752C     		jne	.L373
 5113              	.L357:
 5114 004c 488B8424 		movq	472(%rsp), %rax
 5114      D8010000 
 5115 0054 64482B04 		subq	%fs:40, %rax
 5115      25280000 
 5115      00
 5116 005d 0F856E02 		jne	.L374
 5116      0000
 5117 0063 4881C4E8 		addq	$488, %rsp
 5117      010000
 5118              		.cfi_remember_state
 5119              		.cfi_def_cfa_offset 56
 5120 006a 5B       		popq	%rbx
 5121              		.cfi_def_cfa_offset 48
 5122 006b 5D       		popq	%rbp
 5123              		.cfi_def_cfa_offset 40
 5124 006c 415C     		popq	%r12
 5125              		.cfi_def_cfa_offset 32
 5126 006e 415D     		popq	%r13
 5127              		.cfi_def_cfa_offset 24
 5128 0070 415E     		popq	%r14
 5129              		.cfi_def_cfa_offset 16
 5130 0072 415F     		popq	%r15
 5131              		.cfi_def_cfa_offset 8
 5132 0074 C3       		ret
 5133              		.p2align 4,,10
 5134 0075 0F1F00   		.p2align 3
 5135              	.L373:
 5136              		.cfi_restore_state
 5137 0078 4C8DAC24 		leaq	208(%rsp), %r13
 5137      D0000000 
 5138 0080 4889F5   		movq	%rsi, %rbp
 5139 0083 4889D3   		movq	%rdx, %rbx
 5140 0086 4C89EF   		movq	%r13, %rdi
 5141 0089 E8000000 		call	_ZNSt8ios_baseC2Ev@PLT
 5141      00
 5142 008e 31C0     		xorl	%eax, %eax
 5143 0090 660FEFC0 		pxor	%xmm0, %xmm0
 5144 0094 31F6     		xorl	%esi, %esi
 5145 0096 66898424 		movw	%ax, 432(%rsp)
 5145      B0010000 
 5146 009e 488D0500 		leaq	24+_ZTCN8UnitTest15MemoryOutStreamE0_So(%rip), %rax
 5146      000000
 5147 00a5 4C89EF   		movq	%r13, %rdi
 5148 00a8 48894424 		movq	%rax, 64(%rsp)
 5148      40
 5149 00ad 4883C028 		addq	$40, %rax
 5150 00b1 48C78424 		movq	$0, 424(%rsp)
 5150      A8010000 
 5150      00000000 
 5151 00bd 48898424 		movq	%rax, 208(%rsp)
 5151      D0000000 
 5152 00c5 0F118424 		movups	%xmm0, 440(%rsp)
 5152      B8010000 
 5153 00cd 0F118424 		movups	%xmm0, 456(%rsp)
 5153      C8010000 
 5154              	.LEHB264:
 5155 00d5 E8000000 		call	_ZNSt9basic_iosIcSt11char_traitsIcEE4initEPSt15basic_streambufIcS1_E@PLT
 5155      00
 5156              	.LEHE264:
 5157 00da 660F6F0C 		movdqa	(%rsp), %xmm1
 5157      24
 5158 00df 660FEFC0 		pxor	%xmm0, %xmm0
 5159 00e3 4C8DB424 		leaq	128(%rsp), %r14
 5159      80000000 
 5160 00eb 488D0500 		leaq	64+_ZTCN8UnitTest15MemoryOutStreamE0_NSt7__cxx1119basic_ostringstreamIcSt11char_traitsIcESaIc
 5160      000000
 5161 00f2 4C89F7   		movq	%r14, %rdi
 5162 00f5 0F294424 		movaps	%xmm0, 80(%rsp)
 5162      50
 5163 00fa 4C8D6424 		leaq	64(%rsp), %r12
 5163      40
 5164 00ff 4C8D7C24 		leaq	72(%rsp), %r15
 5164      48
 5165 0104 48898424 		movq	%rax, 208(%rsp)
 5165      D0000000 
 5166 010c 0F294C24 		movaps	%xmm1, 64(%rsp)
 5166      40
 5167 0111 0F294424 		movaps	%xmm0, 96(%rsp)
 5167      60
 5168 0116 0F294424 		movaps	%xmm0, 112(%rsp)
 5168      70
 5169 011b E8000000 		call	_ZNSt6localeC1Ev@PLT
 5169      00
 5170 0120 488D0500 		leaq	16+_ZTVNSt7__cxx1115basic_stringbufIcSt11char_traitsIcESaIcEEE(%rip), %rax
 5170      000000
 5171 0127 C68424A0 		movb	$0, 160(%rsp)
 5171      00000000 
 5172 012f 4C89FE   		movq	%r15, %rsi
 5173 0132 48894424 		movq	%rax, 72(%rsp)
 5173      48
 5174 0137 488D8424 		leaq	160(%rsp), %rax
 5174      A0000000 
 5175 013f 48894424 		movq	%rax, 40(%rsp)
 5175      28
 5176 0144 48898424 		movq	%rax, 144(%rsp)
 5176      90000000 
 5177 014c 488B4424 		movq	64(%rsp), %rax
 5177      40
 5178 0151 48C78424 		movq	$0, 152(%rsp)
 5178      98000000 
 5178      00000000 
 5179 015d C7842488 		movl	$16, 136(%rsp)
 5179      00000010 
 5179      000000
 5180 0168 488B78E8 		movq	-24(%rax), %rdi
 5181 016c 4C01E7   		addq	%r12, %rdi
 5182              	.LEHB265:
 5183 016f E8000000 		call	_ZNSt9basic_iosIcSt11char_traitsIcEE4initEPSt15basic_streambufIcS1_E@PLT
 5183      00
 5184              	.LEHE265:
 5185 0174 4C8D3D00 		leaq	24+_ZTVN8UnitTest15MemoryOutStreamE(%rip), %r15
 5185      000000
 5186 017b BA090000 		movl	$9, %edx
 5186      00
 5187 0180 4C89E7   		movq	%r12, %rdi
 5188 0183 48C78424 		movq	$0, 184(%rsp)
 5188      B8000000 
 5188      00000000 
 5189 018f 498D4728 		leaq	40(%r15), %rax
 5190 0193 488D3500 		leaq	.LC0(%rip), %rsi
 5190      000000
 5191 019a 4C897C24 		movq	%r15, 64(%rsp)
 5191      40
 5192 019f 48898424 		movq	%rax, 208(%rsp)
 5192      D0000000 
 5193 01a7 488D8424 		leaq	192(%rsp), %rax
 5193      C0000000 
 5194 01af 48894424 		movq	%rax, 32(%rsp)
 5194      20
 5195 01b4 48898424 		movq	%rax, 176(%rsp)
 5195      B0000000 
 5196 01bc C68424C0 		movb	$0, 192(%rsp)
 5196      00000000 
 5197              	.LEHB266:
 5198 01c4 E8000000 		call	_ZSt16__ostream_insertIcSt11char_traitsIcEERSt13basic_ostreamIT_T0_ES6_PKS3_l@PLT
 5198      00
 5199 01c9 0FB64500 		movzbl	0(%rbp), %eax
 5200 01cd 488D7424 		leaq	62(%rsp), %rsi
 5200      3E
 5201 01d2 BA010000 		movl	$1, %edx
 5201      00
 5202 01d7 4C89E7   		movq	%r12, %rdi
 5203 01da 8844243E 		movb	%al, 62(%rsp)
 5204 01de E8000000 		call	_ZSt16__ostream_insertIcSt11char_traitsIcEERSt13basic_ostreamIT_T0_ES6_PKS3_l@PLT
 5204      00
 5205 01e3 BA090000 		movl	$9, %edx
 5205      00
 5206 01e8 488D3500 		leaq	.LC1(%rip), %rsi
 5206      000000
 5207 01ef 4889C7   		movq	%rax, %rdi
 5208 01f2 4889C5   		movq	%rax, %rbp
 5209 01f5 E8000000 		call	_ZSt16__ostream_insertIcSt11char_traitsIcEERSt13basic_ostreamIT_T0_ES6_PKS3_l@PLT
 5209      00
 5210 01fa 0FB603   		movzbl	(%rbx), %eax
 5211 01fd 488D7424 		leaq	63(%rsp), %rsi
 5211      3F
 5212 0202 BA010000 		movl	$1, %edx
 5212      00
 5213 0207 4889EF   		movq	%rbp, %rdi
 5214 020a 8844243F 		movb	%al, 63(%rsp)
 5215 020e E8000000 		call	_ZSt16__ostream_insertIcSt11char_traitsIcEERSt13basic_ostreamIT_T0_ES6_PKS3_l@PLT
 5215      00
 5216 0213 4C89E7   		movq	%r12, %rdi
 5217 0216 E8000000 		call	_ZNK8UnitTest15MemoryOutStream7GetTextEv@PLT
 5217      00
 5218 021b 488B7424 		movq	24(%rsp), %rsi
 5218      18
 5219 0220 488B7C24 		movq	16(%rsp), %rdi
 5219      10
 5220 0225 4889C2   		movq	%rax, %rdx
 5221 0228 F30F7E15 		movq	.LC2(%rip), %xmm2
 5221      00000000 
 5222 0230 0F161500 		movhps	.LC4(%rip), %xmm2
 5222      000000
 5223 0237 0F291424 		movaps	%xmm2, (%rsp)
 5224 023b E8000000 		call	_ZN8UnitTest11TestResults13OnTestFailureERKNS_11TestDetailsEPKc@PLT
 5224      00
 5225              	.LEHE266:
 5226 0240 488D0500 		leaq	64+_ZTVN8UnitTest15MemoryOutStreamE(%rip), %rax
 5226      000000
 5227 0247 4C897C24 		movq	%r15, 64(%rsp)
 5227      40
 5228 024c 488BBC24 		movq	176(%rsp), %rdi
 5228      B0000000 
 5229 0254 48898424 		movq	%rax, 208(%rsp)
 5229      D0000000 
 5230 025c 483B7C24 		cmpq	32(%rsp), %rdi
 5230      20
 5231 0261 7405     		je	.L363
 5232 0263 E8000000 		call	_ZdlPv@PLT
 5232      00
 5233              	.L363:
 5234 0268 660F6F1C 		movdqa	(%rsp), %xmm3
 5234      24
 5235 026d 488D0500 		leaq	64+_ZTCN8UnitTest15MemoryOutStreamE0_NSt7__cxx1119basic_ostringstreamIcSt11char_traitsIcESaIc
 5235      000000
 5236 0274 488BBC24 		movq	144(%rsp), %rdi
 5236      90000000 
 5237 027c 48898424 		movq	%rax, 208(%rsp)
 5237      D0000000 
 5238 0284 0F295C24 		movaps	%xmm3, 64(%rsp)
 5238      40
 5239 0289 483B7C24 		cmpq	40(%rsp), %rdi
 5239      28
 5240 028e 7405     		je	.L364
 5241 0290 E8000000 		call	_ZdlPv@PLT
 5241      00
 5242              	.L364:
 5243 0295 488D0500 		leaq	16+_ZTVSt15basic_streambufIcSt11char_traitsIcEE(%rip), %rax
 5243      000000
 5244 029c 4C89F7   		movq	%r14, %rdi
 5245 029f 48894424 		movq	%rax, 72(%rsp)
 5245      48
 5246 02a4 E8000000 		call	_ZNSt6localeD1Ev@PLT
 5246      00
 5247 02a9 488D0500 		leaq	24+_ZTCN8UnitTest15MemoryOutStreamE0_So(%rip), %rax
 5247      000000
 5248 02b0 4C89EF   		movq	%r13, %rdi
 5249 02b3 48894424 		movq	%rax, 64(%rsp)
 5249      40
 5250 02b8 488D0500 		leaq	16+_ZTVSt9basic_iosIcSt11char_traitsIcEE(%rip), %rax
 5250      000000
 5251 02bf 48898424 		movq	%rax, 208(%rsp)
 5251      D0000000 
 5252              	.LEHB267:
 5253 02c7 E8000000 		call	_ZNSt8ios_baseD2Ev@PLT
 5253      00
 5254              	.LEHE267:
 5255 02cc E97BFDFF 		jmp	.L357
 5255      FF
 5256              	.L374:
 5257 02d1 E8000000 		call	__stack_chk_fail@PLT
 5257      00
 5258              	.L368:
 5259 02d6 F30F1EFA 		endbr64
 5260 02da 4889C5   		movq	%rax, %rbp
 5261 02dd EB26     		jmp	.L361
 5262              	.L369:
 5263 02df F30F1EFA 		endbr64
 5264 02e3 4889C5   		movq	%rax, %rbp
 5265 02e6 EB09     		jmp	.L360
 5266              	.L367:
 5267 02e8 F30F1EFA 		endbr64
 5268 02ec 4889C5   		movq	%rax, %rbp
 5269 02ef EB33     		jmp	.L365
 5270              	.L360:
 5271 02f1 4C89FF   		movq	%r15, %rdi
 5272 02f4 E8000000 		call	_ZNSt7__cxx1115basic_stringbufIcSt11char_traitsIcESaIcEED1Ev
 5272      00
 5273 02f9 488D0500 		leaq	24+_ZTCN8UnitTest15MemoryOutStreamE0_So(%rip), %rax
 5273      000000
 5274 0300 48894424 		movq	%rax, 64(%rsp)
 5274      40
 5275              	.L361:
 5276 0305 488D0500 		leaq	16+_ZTVSt9basic_iosIcSt11char_traitsIcEE(%rip), %rax
 5276      000000
 5277 030c 4C89EF   		movq	%r13, %rdi
 5278 030f 48898424 		movq	%rax, 208(%rsp)
 5278      D0000000 
 5279 0317 E8000000 		call	_ZNSt8ios_baseD2Ev@PLT
 5279      00
 5280 031c 4889EF   		movq	%rbp, %rdi
 5281              	.LEHB268:
 5282 031f E8000000 		call	_Unwind_Resume@PLT
 5282      00
 5283              	.LEHE268:
 5284              	.L365:
 5285 0324 4C89E7   		movq	%r12, %rdi
 5286 0327 E8000000 		call	_ZN8UnitTest15MemoryOutStreamD1Ev
 5286      00
 5287 032c 4889EF   		movq	%rbp, %rdi
 5288              	.LEHB269:
 5289 032f E8000000 		call	_Unwind_Resume@PLT
 5289      00
 5290              	.LEHE269:
 5291              		.cfi_endproc
 5292              	.LFE1234:
 5293              		.section	.gcc_except_table
 5294              	.LLSDA1234:
 5295 0544 FF       		.byte	0xff
 5296 0545 FF       		.byte	0xff
 5297 0546 01       		.byte	0x1
 5298 0547 21       		.uleb128 .LLSDACSE1234-.LLSDACSB1234
 5299              	.LLSDACSB1234:
 5300 0548 D501     		.uleb128 .LEHB264-.LFB1234
 5301 054a 05       		.uleb128 .LEHE264-.LEHB264
 5302 054b D605     		.uleb128 .L368-.LFB1234
 5303 054d 00       		.uleb128 0
 5304 054e EF02     		.uleb128 .LEHB265-.LFB1234
 5305 0550 05       		.uleb128 .LEHE265-.LEHB265
