   1              		.file	"testCore.cpp"
   2              		.text
   3              		.section	.text._ZN17TestCore_testSwapD2Ev,"axG",@progbits,_ZN17TestCore_testSwapD5Ev,comdat
   4              		.align 2
   5              		.p2align 4
   6              		.weak	_ZN17TestCore_testSwapD2Ev
   8              	_ZN17TestCore_testSwapD2Ev:
   9              	.LFB1482:
  10              		.cfi_startproc
  11 0000 F30F1EFA 		endbr64
  12 0004 488D0500 		leaq	16+_ZTV17TestCore_testSwap(%rip), %rax
  12      000000
  13 000b 488907   		movq	%rax, (%rdi)
  14 000e E9000000 		jmp	_ZN8UnitTest4TestD2Ev@PLT
  14      00
  15              		.cfi_endproc
  16              	.LFE1482:
  18              		.weak	_ZN17TestCore_testSwapD1Ev
  19              		.set	_ZN17TestCore_testSwapD1Ev,_ZN17TestCore_testSwapD2Ev
  20              		.section	.text._ZN17TestCore_testSwapD0Ev,"axG",@progbits,_ZN17TestCore_testSwapD5Ev,comdat
  21              		.align 2
  22              		.p2align 4
  23              		.weak	_ZN17TestCore_testSwapD0Ev
  25              	_ZN17TestCore_testSwapD0Ev:
  26              	.LFB1484:
  27              		.cfi_startproc
  28              		.cfi_personality 0x9b,DW.ref.__gxx_personality_v0
  29              		.cfi_lsda 0x1b,.LLSDA1484
  30 0000 F30F1EFA 		endbr64
  31 0004 4154     		pushq	%r12
  32              		.cfi_def_cfa_offset 16
  33              		.cfi_offset 12, -16
  34 0006 488D0500 		leaq	16+_ZTV17TestCore_testSwap(%rip), %rax
  34      000000
  35 000d 55       		pushq	%rbp
  36              		.cfi_def_cfa_offset 24
  37              		.cfi_offset 6, -24
  38 000e 4889FD   		movq	%rdi, %rbp
  39 0011 4883EC08 		subq	$8, %rsp
  40              		.cfi_def_cfa_offset 32
  41 0015 488907   		movq	%rax, (%rdi)
  42              	.LEHB0:
  43 0018 E8000000 		call	_ZN8UnitTest4TestD2Ev@PLT
  43      00
  44              	.LEHE0:
  45 001d 4883C408 		addq	$8, %rsp
  46              		.cfi_remember_state
  47              		.cfi_def_cfa_offset 24
  48 0021 4889EF   		movq	%rbp, %rdi
  49 0024 5D       		popq	%rbp
  50              		.cfi_def_cfa_offset 16
  51 0025 415C     		popq	%r12
  52              		.cfi_def_cfa_offset 8
  53 0027 E9000000 		jmp	_ZdlPv@PLT
  53      00
  54              	.L5:
  55              		.cfi_restore_state
  56 002c F30F1EFA 		endbr64
  57 0030 4989C4   		movq	%rax, %r12
  58              	.L4:
  59 0033 4889EF   		movq	%rbp, %rdi
  60 0036 E8000000 		call	_ZdlPv@PLT
  60      00
  61 003b 4C89E7   		movq	%r12, %rdi
  62              	.LEHB1:
  63 003e E8000000 		call	_Unwind_Resume@PLT
  63      00
  64              	.LEHE1:
  65              		.cfi_endproc
  66              	.LFE1484:
  67              		.globl	__gxx_personality_v0
  68              		.section	.gcc_except_table._ZN17TestCore_testSwapD0Ev,"aG",@progbits,_ZN17TestCore_testSwapD5Ev,co
  69              	.LLSDA1484:
  70 0000 FF       		.byte	0xff
  71 0001 FF       		.byte	0xff
  72 0002 01       		.byte	0x1
  73 0003 08       		.uleb128 .LLSDACSE1484-.LLSDACSB1484
  74              	.LLSDACSB1484:
  75 0004 18       		.uleb128 .LEHB0-.LFB1484
  76 0005 05       		.uleb128 .LEHE0-.LEHB0
  77 0006 2C       		.uleb128 .L5-.LFB1484
  78 0007 00       		.uleb128 0
  79 0008 3E       		.uleb128 .LEHB1-.LFB1484
  80 0009 05       		.uleb128 .LEHE1-.LEHB1
  81 000a 00       		.uleb128 0
  82 000b 00       		.uleb128 0
  83              	.LLSDACSE1484:
  84              		.section	.text._ZN17TestCore_testSwapD0Ev,"axG",@progbits,_ZN17TestCore_testSwapD5Ev,comdat
  86              		.section	.text._ZN28TestCore_testAssignNoReallocD2Ev,"axG",@progbits,_ZN28TestCore_testAssignNoRea
  87              		.align 2
  88              		.p2align 4
  89              		.weak	_ZN28TestCore_testAssignNoReallocD2Ev
  91              	_ZN28TestCore_testAssignNoReallocD2Ev:
  92              	.LFB1486:
  93              		.cfi_startproc
  94 0000 F30F1EFA 		endbr64
  95 0004 488D0500 		leaq	16+_ZTV28TestCore_testAssignNoRealloc(%rip), %rax
  95      000000
  96 000b 488907   		movq	%rax, (%rdi)
  97 000e E9000000 		jmp	_ZN8UnitTest4TestD2Ev@PLT
  97      00
  98              		.cfi_endproc
  99              	.LFE1486:
 101              		.weak	_ZN28TestCore_testAssignNoReallocD1Ev
 102              		.set	_ZN28TestCore_testAssignNoReallocD1Ev,_ZN28TestCore_testAssignNoReallocD2Ev
 103              		.section	.text._ZN28TestCore_testAssignNoReallocD0Ev,"axG",@progbits,_ZN28TestCore_testAssignNoRea
 104              		.align 2
 105              		.p2align 4
 106              		.weak	_ZN28TestCore_testAssignNoReallocD0Ev
 108              	_ZN28TestCore_testAssignNoReallocD0Ev:
 109              	.LFB1488:
 110              		.cfi_startproc
 111              		.cfi_personality 0x9b,DW.ref.__gxx_personality_v0
 112              		.cfi_lsda 0x1b,.LLSDA1488
 113 0000 F30F1EFA 		endbr64
 114 0004 4154     		pushq	%r12
 115              		.cfi_def_cfa_offset 16
 116              		.cfi_offset 12, -16
 117 0006 488D0500 		leaq	16+_ZTV28TestCore_testAssignNoRealloc(%rip), %rax
 117      000000
 118 000d 55       		pushq	%rbp
 119              		.cfi_def_cfa_offset 24
 120              		.cfi_offset 6, -24
 121 000e 4889FD   		movq	%rdi, %rbp
 122 0011 4883EC08 		subq	$8, %rsp
 123              		.cfi_def_cfa_offset 32
 124 0015 488907   		movq	%rax, (%rdi)
 125              	.LEHB2:
 126 0018 E8000000 		call	_ZN8UnitTest4TestD2Ev@PLT
 126      00
 127              	.LEHE2:
 128 001d 4883C408 		addq	$8, %rsp
 129              		.cfi_remember_state
 130              		.cfi_def_cfa_offset 24
 131 0021 4889EF   		movq	%rbp, %rdi
 132 0024 5D       		popq	%rbp
 133              		.cfi_def_cfa_offset 16
 134 0025 415C     		popq	%r12
 135              		.cfi_def_cfa_offset 8
 136 0027 E9000000 		jmp	_ZdlPv@PLT
 136      00
 137              	.L10:
 138              		.cfi_restore_state
 139 002c F30F1EFA 		endbr64
 140 0030 4989C4   		movq	%rax, %r12
 141              	.L9:
 142 0033 4889EF   		movq	%rbp, %rdi
 143 0036 E8000000 		call	_ZdlPv@PLT
 143      00
 144 003b 4C89E7   		movq	%r12, %rdi
 145              	.LEHB3:
 146 003e E8000000 		call	_Unwind_Resume@PLT
 146      00
 147              	.LEHE3:
 148              		.cfi_endproc
 149              	.LFE1488:
 150              		.section	.gcc_except_table._ZN28TestCore_testAssignNoReallocD0Ev,"aG",@progbits,_ZN28TestCore_test
 151              	.LLSDA1488:
 152 0000 FF       		.byte	0xff
 153 0001 FF       		.byte	0xff
 154 0002 01       		.byte	0x1
 155 0003 08       		.uleb128 .LLSDACSE1488-.LLSDACSB1488
 156              	.LLSDACSB1488:
 157 0004 18       		.uleb128 .LEHB2-.LFB1488
 158 0005 05       		.uleb128 .LEHE2-.LEHB2
 159 0006 2C       		.uleb128 .L10-.LFB1488
 160 0007 00       		.uleb128 0
 161 0008 3E       		.uleb128 .LEHB3-.LFB1488
 162 0009 05       		.uleb128 .LEHE3-.LEHB3
 163 000a 00       		.uleb128 0
 164 000b 00       		.uleb128 0
 165              	.LLSDACSE1488:
 166              		.section	.text._ZN28TestCore_testAssignNoReallocD0Ev,"axG",@progbits,_ZN28TestCore_testAssignNoRea
 168              		.section	.text._ZN26TestCore_testAssignReallocD2Ev,"axG",@progbits,_ZN26TestCore_testAssignRealloc
 169              		.align 2
 170              		.p2align 4
 171              		.weak	_ZN26TestCore_testAssignReallocD2Ev
 173              	_ZN26TestCore_testAssignReallocD2Ev:
 174              	.LFB1490:
 175              		.cfi_startproc
 176 0000 F30F1EFA 		endbr64
 177 0004 488D0500 		leaq	16+_ZTV26TestCore_testAssignRealloc(%rip), %rax
 177      000000
 178 000b 488907   		movq	%rax, (%rdi)
 179 000e E9000000 		jmp	_ZN8UnitTest4TestD2Ev@PLT
 179      00
 180              		.cfi_endproc
 181              	.LFE1490:
 183              		.weak	_ZN26TestCore_testAssignReallocD1Ev
 184              		.set	_ZN26TestCore_testAssignReallocD1Ev,_ZN26TestCore_testAssignReallocD2Ev
 185              		.section	.text._ZN26TestCore_testAssignReallocD0Ev,"axG",@progbits,_ZN26TestCore_testAssignRealloc
 186              		.align 2
 187              		.p2align 4
 188              		.weak	_ZN26TestCore_testAssignReallocD0Ev
 190              	_ZN26TestCore_testAssignReallocD0Ev:
 191              	.LFB1492:
 192              		.cfi_startproc
 193              		.cfi_personality 0x9b,DW.ref.__gxx_personality_v0
 194              		.cfi_lsda 0x1b,.LLSDA1492
 195 0000 F30F1EFA 		endbr64
 196 0004 4154     		pushq	%r12
 197              		.cfi_def_cfa_offset 16
 198              		.cfi_offset 12, -16
 199 0006 488D0500 		leaq	16+_ZTV26TestCore_testAssignRealloc(%rip), %rax
 199      000000
 200 000d 55       		pushq	%rbp
 201              		.cfi_def_cfa_offset 24
 202              		.cfi_offset 6, -24
 203 000e 4889FD   		movq	%rdi, %rbp
 204 0011 4883EC08 		subq	$8, %rsp
 205              		.cfi_def_cfa_offset 32
 206 0015 488907   		movq	%rax, (%rdi)
 207              	.LEHB4:
 208 0018 E8000000 		call	_ZN8UnitTest4TestD2Ev@PLT
 208      00
 209              	.LEHE4:
 210 001d 4883C408 		addq	$8, %rsp
 211              		.cfi_remember_state
 212              		.cfi_def_cfa_offset 24
 213 0021 4889EF   		movq	%rbp, %rdi
 214 0024 5D       		popq	%rbp
 215              		.cfi_def_cfa_offset 16
 216 0025 415C     		popq	%r12
 217              		.cfi_def_cfa_offset 8
 218 0027 E9000000 		jmp	_ZdlPv@PLT
 218      00
 219              	.L15:
 220              		.cfi_restore_state
 221 002c F30F1EFA 		endbr64
 222 0030 4989C4   		movq	%rax, %r12
 223              	.L14:
 224 0033 4889EF   		movq	%rbp, %rdi
 225 0036 E8000000 		call	_ZdlPv@PLT
 225      00
 226 003b 4C89E7   		movq	%r12, %rdi
 227              	.LEHB5:
 228 003e E8000000 		call	_Unwind_Resume@PLT
 228      00
 229              	.LEHE5:
 230              		.cfi_endproc
 231              	.LFE1492:
 232              		.section	.gcc_except_table._ZN26TestCore_testAssignReallocD0Ev,"aG",@progbits,_ZN26TestCore_testAs
 233              	.LLSDA1492:
 234 0000 FF       		.byte	0xff
 235 0001 FF       		.byte	0xff
 236 0002 01       		.byte	0x1
 237 0003 08       		.uleb128 .LLSDACSE1492-.LLSDACSB1492
 238              	.LLSDACSB1492:
 239 0004 18       		.uleb128 .LEHB4-.LFB1492
 240 0005 05       		.uleb128 .LEHE4-.LEHB4
 241 0006 2C       		.uleb128 .L15-.LFB1492
 242 0007 00       		.uleb128 0
 243 0008 3E       		.uleb128 .LEHB5-.LFB1492
 244 0009 05       		.uleb128 .LEHE5-.LEHB5
 245 000a 00       		.uleb128 0
 246 000b 00       		.uleb128 0
 247              	.LLSDACSE1492:
 248              		.section	.text._ZN26TestCore_testAssignReallocD0Ev,"axG",@progbits,_ZN26TestCore_testAssignRealloc
 250              		.section	.text._ZN26TestCore_testCopyConstructD2Ev,"axG",@progbits,_ZN26TestCore_testCopyConstruct
 251              		.align 2
 252              		.p2align 4
 253              		.weak	_ZN26TestCore_testCopyConstructD2Ev
 255              	_ZN26TestCore_testCopyConstructD2Ev:
 256              	.LFB1494:
 257              		.cfi_startproc
 258 0000 F30F1EFA 		endbr64
 259 0004 488D0500 		leaq	16+_ZTV26TestCore_testCopyConstruct(%rip), %rax
 259      000000
 260 000b 488907   		movq	%rax, (%rdi)
 261 000e E9000000 		jmp	_ZN8UnitTest4TestD2Ev@PLT
 261      00
 262              		.cfi_endproc
 263              	.LFE1494:
 265              		.weak	_ZN26TestCore_testCopyConstructD1Ev
 266              		.set	_ZN26TestCore_testCopyConstructD1Ev,_ZN26TestCore_testCopyConstructD2Ev
 267              		.section	.text._ZN26TestCore_testCopyConstructD0Ev,"axG",@progbits,_ZN26TestCore_testCopyConstruct
 268              		.align 2
 269              		.p2align 4
 270              		.weak	_ZN26TestCore_testCopyConstructD0Ev
 272              	_ZN26TestCore_testCopyConstructD0Ev:
 273              	.LFB1496:
 274              		.cfi_startproc
 275              		.cfi_personality 0x9b,DW.ref.__gxx_personality_v0
 276              		.cfi_lsda 0x1b,.LLSDA1496
 277 0000 F30F1EFA 		endbr64
 278 0004 4154     		pushq	%r12
 279              		.cfi_def_cfa_offset 16
 280              		.cfi_offset 12, -16
 281 0006 488D0500 		leaq	16+_ZTV26TestCore_testCopyConstruct(%rip), %rax
 281      000000
 282 000d 55       		pushq	%rbp
 283              		.cfi_def_cfa_offset 24
 284              		.cfi_offset 6, -24
 285 000e 4889FD   		movq	%rdi, %rbp
 286 0011 4883EC08 		subq	$8, %rsp
 287              		.cfi_def_cfa_offset 32
 288 0015 488907   		movq	%rax, (%rdi)
 289              	.LEHB6:
 290 0018 E8000000 		call	_ZN8UnitTest4TestD2Ev@PLT
 290      00
 291              	.LEHE6:
 292 001d 4883C408 		addq	$8, %rsp
 293              		.cfi_remember_state
 294              		.cfi_def_cfa_offset 24
 295 0021 4889EF   		movq	%rbp, %rdi
 296 0024 5D       		popq	%rbp
 297              		.cfi_def_cfa_offset 16
 298 0025 415C     		popq	%r12
 299              		.cfi_def_cfa_offset 8
 300 0027 E9000000 		jmp	_ZdlPv@PLT
 300      00
 301              	.L20:
 302              		.cfi_restore_state
 303 002c F30F1EFA 		endbr64
 304 0030 4989C4   		movq	%rax, %r12
 305              	.L19:
 306 0033 4889EF   		movq	%rbp, %rdi
 307 0036 E8000000 		call	_ZdlPv@PLT
 307      00
 308 003b 4C89E7   		movq	%r12, %rdi
 309              	.LEHB7:
 310 003e E8000000 		call	_Unwind_Resume@PLT
 310      00
 311              	.LEHE7:
 312              		.cfi_endproc
 313              	.LFE1496:
 314              		.section	.gcc_except_table._ZN26TestCore_testCopyConstructD0Ev,"aG",@progbits,_ZN26TestCore_testCo
 315              	.LLSDA1496:
 316 0000 FF       		.byte	0xff
 317 0001 FF       		.byte	0xff
 318 0002 01       		.byte	0x1
 319 0003 08       		.uleb128 .LLSDACSE1496-.LLSDACSB1496
 320              	.LLSDACSB1496:
 321 0004 18       		.uleb128 .LEHB6-.LFB1496
 322 0005 05       		.uleb128 .LEHE6-.LEHB6
 323 0006 2C       		.uleb128 .L20-.LFB1496
 324 0007 00       		.uleb128 0
 325 0008 3E       		.uleb128 .LEHB7-.LFB1496
 326 0009 05       		.uleb128 .LEHE7-.LEHB7
 327 000a 00       		.uleb128 0
 328 000b 00       		.uleb128 0
 329              	.LLSDACSE1496:
 330              		.section	.text._ZN26TestCore_testCopyConstructD0Ev,"axG",@progbits,_ZN26TestCore_testCopyConstruct
 332              		.section	.text._ZN23TestCore_testZeroLengthD2Ev,"axG",@progbits,_ZN23TestCore_testZeroLengthD5Ev,c
 333              		.align 2
 334              		.p2align 4
 335              		.weak	_ZN23TestCore_testZeroLengthD2Ev
 337              	_ZN23TestCore_testZeroLengthD2Ev:
 338              	.LFB1498:
 339              		.cfi_startproc
 340 0000 F30F1EFA 		endbr64
 341 0004 488D0500 		leaq	16+_ZTV23TestCore_testZeroLength(%rip), %rax
 341      000000
 342 000b 488907   		movq	%rax, (%rdi)
 343 000e E9000000 		jmp	_ZN8UnitTest4TestD2Ev@PLT
 343      00
 344              		.cfi_endproc
 345              	.LFE1498:
 347              		.weak	_ZN23TestCore_testZeroLengthD1Ev
 348              		.set	_ZN23TestCore_testZeroLengthD1Ev,_ZN23TestCore_testZeroLengthD2Ev
 349              		.section	.text._ZN23TestCore_testZeroLengthD0Ev,"axG",@progbits,_ZN23TestCore_testZeroLengthD5Ev,c
 350              		.align 2
 351              		.p2align 4
 352              		.weak	_ZN23TestCore_testZeroLengthD0Ev
 354              	_ZN23TestCore_testZeroLengthD0Ev:
 355              	.LFB1500:
 356              		.cfi_startproc
 357              		.cfi_personality 0x9b,DW.ref.__gxx_personality_v0
 358              		.cfi_lsda 0x1b,.LLSDA1500
 359 0000 F30F1EFA 		endbr64
 360 0004 4154     		pushq	%r12
 361              		.cfi_def_cfa_offset 16
 362              		.cfi_offset 12, -16
 363 0006 488D0500 		leaq	16+_ZTV23TestCore_testZeroLength(%rip), %rax
 363      000000
 364 000d 55       		pushq	%rbp
 365              		.cfi_def_cfa_offset 24
 366              		.cfi_offset 6, -24
 367 000e 4889FD   		movq	%rdi, %rbp
 368 0011 4883EC08 		subq	$8, %rsp
 369              		.cfi_def_cfa_offset 32
 370 0015 488907   		movq	%rax, (%rdi)
 371              	.LEHB8:
 372 0018 E8000000 		call	_ZN8UnitTest4TestD2Ev@PLT
 372      00
 373              	.LEHE8:
 374 001d 4883C408 		addq	$8, %rsp
 375              		.cfi_remember_state
 376              		.cfi_def_cfa_offset 24
 377 0021 4889EF   		movq	%rbp, %rdi
 378 0024 5D       		popq	%rbp
 379              		.cfi_def_cfa_offset 16
 380 0025 415C     		popq	%r12
 381              		.cfi_def_cfa_offset 8
 382 0027 E9000000 		jmp	_ZdlPv@PLT
 382      00
 383              	.L25:
 384              		.cfi_restore_state
 385 002c F30F1EFA 		endbr64
 386 0030 4989C4   		movq	%rax, %r12
 387              	.L24:
 388 0033 4889EF   		movq	%rbp, %rdi
 389 0036 E8000000 		call	_ZdlPv@PLT
 389      00
 390 003b 4C89E7   		movq	%r12, %rdi
 391              	.LEHB9:
 392 003e E8000000 		call	_Unwind_Resume@PLT
 392      00
 393              	.LEHE9:
 394              		.cfi_endproc
 395              	.LFE1500:
 396              		.section	.gcc_except_table._ZN23TestCore_testZeroLengthD0Ev,"aG",@progbits,_ZN23TestCore_testZeroL
 397              	.LLSDA1500:
 398 0000 FF       		.byte	0xff
 399 0001 FF       		.byte	0xff
 400 0002 01       		.byte	0x1
 401 0003 08       		.uleb128 .LLSDACSE1500-.LLSDACSB1500
 402              	.LLSDACSB1500:
 403 0004 18       		.uleb128 .LEHB8-.LFB1500
 404 0005 05       		.uleb128 .LEHE8-.LEHB8
 405 0006 2C       		.uleb128 .L25-.LFB1500
 406 0007 00       		.uleb128 0
 407 0008 3E       		.uleb128 .LEHB9-.LFB1500
 408 0009 05       		.uleb128 .LEHE9-.LEHB9
 409 000a 00       		.uleb128 0
 410 000b 00       		.uleb128 0
 411              	.LLSDACSE1500:
 412              		.section	.text._ZN23TestCore_testZeroLengthD0Ev,"axG",@progbits,_ZN23TestCore_testZeroLengthD5Ev,c
 414              		.section	.text._ZN33TestCore_testStraddledWriteLongBED2Ev,"axG",@progbits,_ZN33TestCore_testStradd
 415              		.align 2
 416              		.p2align 4
 417              		.weak	_ZN33TestCore_testStraddledWriteLongBED2Ev
 419              	_ZN33TestCore_testStraddledWriteLongBED2Ev:
 420              	.LFB1502:
 421              		.cfi_startproc
 422 0000 F30F1EFA 		endbr64
 423 0004 488D0500 		leaq	16+_ZTV33TestCore_testStraddledWriteLongBE(%rip), %rax
 423      000000
 424 000b 488907   		movq	%rax, (%rdi)
 425 000e E9000000 		jmp	_ZN8UnitTest4TestD2Ev@PLT
 425      00
 426              		.cfi_endproc
 427              	.LFE1502:
 429              		.weak	_ZN33TestCore_testStraddledWriteLongBED1Ev
 430              		.set	_ZN33TestCore_testStraddledWriteLongBED1Ev,_ZN33TestCore_testStraddledWriteLongBED2Ev
 431              		.section	.text._ZN33TestCore_testStraddledWriteLongBED0Ev,"axG",@progbits,_ZN33TestCore_testStradd
 432              		.align 2
 433              		.p2align 4
 434              		.weak	_ZN33TestCore_testStraddledWriteLongBED0Ev
 436              	_ZN33TestCore_testStraddledWriteLongBED0Ev:
 437              	.LFB1504:
 438              		.cfi_startproc
 439              		.cfi_personality 0x9b,DW.ref.__gxx_personality_v0
 440              		.cfi_lsda 0x1b,.LLSDA1504
 441 0000 F30F1EFA 		endbr64
 442 0004 4154     		pushq	%r12
 443              		.cfi_def_cfa_offset 16
 444              		.cfi_offset 12, -16
 445 0006 488D0500 		leaq	16+_ZTV33TestCore_testStraddledWriteLongBE(%rip), %rax
 445      000000
 446 000d 55       		pushq	%rbp
 447              		.cfi_def_cfa_offset 24
 448              		.cfi_offset 6, -24
 449 000e 4889FD   		movq	%rdi, %rbp
 450 0011 4883EC08 		subq	$8, %rsp
 451              		.cfi_def_cfa_offset 32
 452 0015 488907   		movq	%rax, (%rdi)
 453              	.LEHB10:
 454 0018 E8000000 		call	_ZN8UnitTest4TestD2Ev@PLT
 454      00
 455              	.LEHE10:
 456 001d 4883C408 		addq	$8, %rsp
 457              		.cfi_remember_state
 458              		.cfi_def_cfa_offset 24
 459 0021 4889EF   		movq	%rbp, %rdi
 460 0024 5D       		popq	%rbp
 461              		.cfi_def_cfa_offset 16
 462 0025 415C     		popq	%r12
 463              		.cfi_def_cfa_offset 8
 464 0027 E9000000 		jmp	_ZdlPv@PLT
 464      00
 465              	.L30:
 466              		.cfi_restore_state
 467 002c F30F1EFA 		endbr64
 468 0030 4989C4   		movq	%rax, %r12
 469              	.L29:
 470 0033 4889EF   		movq	%rbp, %rdi
 471 0036 E8000000 		call	_ZdlPv@PLT
 471      00
 472 003b 4C89E7   		movq	%r12, %rdi
 473              	.LEHB11:
 474 003e E8000000 		call	_Unwind_Resume@PLT
 474      00
 475              	.LEHE11:
 476              		.cfi_endproc
 477              	.LFE1504:
 478              		.section	.gcc_except_table._ZN33TestCore_testStraddledWriteLongBED0Ev,"aG",@progbits,_ZN33TestCore
 479              	.LLSDA1504:
 480 0000 FF       		.byte	0xff
 481 0001 FF       		.byte	0xff
 482 0002 01       		.byte	0x1
 483 0003 08       		.uleb128 .LLSDACSE1504-.LLSDACSB1504
 484              	.LLSDACSB1504:
 485 0004 18       		.uleb128 .LEHB10-.LFB1504
 486 0005 05       		.uleb128 .LEHE10-.LEHB10
 487 0006 2C       		.uleb128 .L30-.LFB1504
 488 0007 00       		.uleb128 0
 489 0008 3E       		.uleb128 .LEHB11-.LFB1504
 490 0009 05       		.uleb128 .LEHE11-.LEHB11
 491 000a 00       		.uleb128 0
 492 000b 00       		.uleb128 0
 493              	.LLSDACSE1504:
 494              		.section	.text._ZN33TestCore_testStraddledWriteLongBED0Ev,"axG",@progbits,_ZN33TestCore_testStradd
 496              		.section	.text._ZN31TestCore_testOutsideWriteLongBED2Ev,"axG",@progbits,_ZN31TestCore_testOutsideW
 497              		.align 2
 498              		.p2align 4
 499              		.weak	_ZN31TestCore_testOutsideWriteLongBED2Ev
 501              	_ZN31TestCore_testOutsideWriteLongBED2Ev:
 502              	.LFB1506:
 503              		.cfi_startproc
 504 0000 F30F1EFA 		endbr64
 505 0004 488D0500 		leaq	16+_ZTV31TestCore_testOutsideWriteLongBE(%rip), %rax
 505      000000
 506 000b 488907   		movq	%rax, (%rdi)
 507 000e E9000000 		jmp	_ZN8UnitTest4TestD2Ev@PLT
 507      00
 508              		.cfi_endproc
 509              	.LFE1506:
 511              		.weak	_ZN31TestCore_testOutsideWriteLongBED1Ev
 512              		.set	_ZN31TestCore_testOutsideWriteLongBED1Ev,_ZN31TestCore_testOutsideWriteLongBED2Ev
 513              		.section	.text._ZN31TestCore_testOutsideWriteLongBED0Ev,"axG",@progbits,_ZN31TestCore_testOutsideW
 514              		.align 2
 515              		.p2align 4
 516              		.weak	_ZN31TestCore_testOutsideWriteLongBED0Ev
 518              	_ZN31TestCore_testOutsideWriteLongBED0Ev:
 519              	.LFB1508:
 520              		.cfi_startproc
 521              		.cfi_personality 0x9b,DW.ref.__gxx_personality_v0
 522              		.cfi_lsda 0x1b,.LLSDA1508
 523 0000 F30F1EFA 		endbr64
 524 0004 4154     		pushq	%r12
 525              		.cfi_def_cfa_offset 16
 526              		.cfi_offset 12, -16
 527 0006 488D0500 		leaq	16+_ZTV31TestCore_testOutsideWriteLongBE(%rip), %rax
 527      000000
 528 000d 55       		pushq	%rbp
 529              		.cfi_def_cfa_offset 24
 530              		.cfi_offset 6, -24
 531 000e 4889FD   		movq	%rdi, %rbp
 532 0011 4883EC08 		subq	$8, %rsp
 533              		.cfi_def_cfa_offset 32
 534 0015 488907   		movq	%rax, (%rdi)
 535              	.LEHB12:
 536 0018 E8000000 		call	_ZN8UnitTest4TestD2Ev@PLT
 536      00
 537              	.LEHE12:
 538 001d 4883C408 		addq	$8, %rsp
 539              		.cfi_remember_state
 540              		.cfi_def_cfa_offset 24
 541 0021 4889EF   		movq	%rbp, %rdi
 542 0024 5D       		popq	%rbp
 543              		.cfi_def_cfa_offset 16
 544 0025 415C     		popq	%r12
 545              		.cfi_def_cfa_offset 8
 546 0027 E9000000 		jmp	_ZdlPv@PLT
 546      00
 547              	.L35:
 548              		.cfi_restore_state
 549 002c F30F1EFA 		endbr64
 550 0030 4989C4   		movq	%rax, %r12
 551              	.L34:
 552 0033 4889EF   		movq	%rbp, %rdi
 553 0036 E8000000 		call	_ZdlPv@PLT
 553      00
 554 003b 4C89E7   		movq	%r12, %rdi
 555              	.LEHB13:
 556 003e E8000000 		call	_Unwind_Resume@PLT
 556      00
 557              	.LEHE13:
 558              		.cfi_endproc
 559              	.LFE1508:
 560              		.section	.gcc_except_table._ZN31TestCore_testOutsideWriteLongBED0Ev,"aG",@progbits,_ZN31TestCore_t
 561              	.LLSDA1508:
 562 0000 FF       		.byte	0xff
 563 0001 FF       		.byte	0xff
 564 0002 01       		.byte	0x1
 565 0003 08       		.uleb128 .LLSDACSE1508-.LLSDACSB1508
 566              	.LLSDACSB1508:
 567 0004 18       		.uleb128 .LEHB12-.LFB1508
 568 0005 05       		.uleb128 .LEHE12-.LEHB12
 569 0006 2C       		.uleb128 .L35-.LFB1508
 570 0007 00       		.uleb128 0
 571 0008 3E       		.uleb128 .LEHB13-.LFB1508
 572 0009 05       		.uleb128 .LEHE13-.LEHB13
 573 000a 00       		.uleb128 0
 574 000b 00       		.uleb128 0
 575              	.LLSDACSE1508:
 576              		.section	.text._ZN31TestCore_testOutsideWriteLongBED0Ev,"axG",@progbits,_ZN31TestCore_testOutsideW
 578              		.section	.text._ZN30TestCore_testInsideWriteLongBED2Ev,"axG",@progbits,_ZN30TestCore_testInsideWri
 579              		.align 2
 580              		.p2align 4
 581              		.weak	_ZN30TestCore_testInsideWriteLongBED2Ev
 583              	_ZN30TestCore_testInsideWriteLongBED2Ev:
 584              	.LFB1510:
 585              		.cfi_startproc
 586 0000 F30F1EFA 		endbr64
 587 0004 488D0500 		leaq	16+_ZTV30TestCore_testInsideWriteLongBE(%rip), %rax
 587      000000
 588 000b 488907   		movq	%rax, (%rdi)
 589 000e E9000000 		jmp	_ZN8UnitTest4TestD2Ev@PLT
 589      00
 590              		.cfi_endproc
 591              	.LFE1510:
 593              		.weak	_ZN30TestCore_testInsideWriteLongBED1Ev
 594              		.set	_ZN30TestCore_testInsideWriteLongBED1Ev,_ZN30TestCore_testInsideWriteLongBED2Ev
 595              		.section	.text._ZN30TestCore_testInsideWriteLongBED0Ev,"axG",@progbits,_ZN30TestCore_testInsideWri
 596              		.align 2
 597              		.p2align 4
 598              		.weak	_ZN30TestCore_testInsideWriteLongBED0Ev
 600              	_ZN30TestCore_testInsideWriteLongBED0Ev:
 601              	.LFB1512:
 602              		.cfi_startproc
 603              		.cfi_personality 0x9b,DW.ref.__gxx_personality_v0
 604              		.cfi_lsda 0x1b,.LLSDA1512
 605 0000 F30F1EFA 		endbr64
 606 0004 4154     		pushq	%r12
 607              		.cfi_def_cfa_offset 16
 608              		.cfi_offset 12, -16
 609 0006 488D0500 		leaq	16+_ZTV30TestCore_testInsideWriteLongBE(%rip), %rax
 609      000000
 610 000d 55       		pushq	%rbp
 611              		.cfi_def_cfa_offset 24
 612              		.cfi_offset 6, -24
 613 000e 4889FD   		movq	%rdi, %rbp
 614 0011 4883EC08 		subq	$8, %rsp
 615              		.cfi_def_cfa_offset 32
 616 0015 488907   		movq	%rax, (%rdi)
 617              	.LEHB14:
 618 0018 E8000000 		call	_ZN8UnitTest4TestD2Ev@PLT
 618      00
 619              	.LEHE14:
 620 001d 4883C408 		addq	$8, %rsp
 621              		.cfi_remember_state
 622              		.cfi_def_cfa_offset 24
 623 0021 4889EF   		movq	%rbp, %rdi
 624 0024 5D       		popq	%rbp
 625              		.cfi_def_cfa_offset 16
 626 0025 415C     		popq	%r12
 627              		.cfi_def_cfa_offset 8
 628 0027 E9000000 		jmp	_ZdlPv@PLT
 628      00
 629              	.L40:
 630              		.cfi_restore_state
 631 002c F30F1EFA 		endbr64
 632 0030 4989C4   		movq	%rax, %r12
 633              	.L39:
 634 0033 4889EF   		movq	%rbp, %rdi
 635 0036 E8000000 		call	_ZdlPv@PLT
 635      00
 636 003b 4C89E7   		movq	%r12, %rdi
 637              	.LEHB15:
 638 003e E8000000 		call	_Unwind_Resume@PLT
 638      00
 639              	.LEHE15:
 640              		.cfi_endproc
 641              	.LFE1512:
 642              		.section	.gcc_except_table._ZN30TestCore_testInsideWriteLongBED0Ev,"aG",@progbits,_ZN30TestCore_te
 643              	.LLSDA1512:
 644 0000 FF       		.byte	0xff
 645 0001 FF       		.byte	0xff
 646 0002 01       		.byte	0x1
 647 0003 08       		.uleb128 .LLSDACSE1512-.LLSDACSB1512
 648              	.LLSDACSB1512:
 649 0004 18       		.uleb128 .LEHB14-.LFB1512
 650 0005 05       		.uleb128 .LEHE14-.LEHB14
 651 0006 2C       		.uleb128 .L40-.LFB1512
 652 0007 00       		.uleb128 0
 653 0008 3E       		.uleb128 .LEHB15-.LFB1512
 654 0009 05       		.uleb128 .LEHE15-.LEHB15
 655 000a 00       		.uleb128 0
 656 000b 00       		.uleb128 0
 657              	.LLSDACSE1512:
 658              		.section	.text._ZN30TestCore_testInsideWriteLongBED0Ev,"axG",@progbits,_ZN30TestCore_testInsideWri
 660              		.section	.text._ZN33TestCore_testStraddledWriteLongLED2Ev,"axG",@progbits,_ZN33TestCore_testStradd
 661              		.align 2
 662              		.p2align 4
 663              		.weak	_ZN33TestCore_testStraddledWriteLongLED2Ev
 665              	_ZN33TestCore_testStraddledWriteLongLED2Ev:
 666              	.LFB1514:
 667              		.cfi_startproc
 668 0000 F30F1EFA 		endbr64
 669 0004 488D0500 		leaq	16+_ZTV33TestCore_testStraddledWriteLongLE(%rip), %rax
 669      000000
 670 000b 488907   		movq	%rax, (%rdi)
 671 000e E9000000 		jmp	_ZN8UnitTest4TestD2Ev@PLT
 671      00
 672              		.cfi_endproc
 673              	.LFE1514:
 675              		.weak	_ZN33TestCore_testStraddledWriteLongLED1Ev
 676              		.set	_ZN33TestCore_testStraddledWriteLongLED1Ev,_ZN33TestCore_testStraddledWriteLongLED2Ev
 677              		.section	.text._ZN33TestCore_testStraddledWriteLongLED0Ev,"axG",@progbits,_ZN33TestCore_testStradd
 678              		.align 2
 679              		.p2align 4
 680              		.weak	_ZN33TestCore_testStraddledWriteLongLED0Ev
 682              	_ZN33TestCore_testStraddledWriteLongLED0Ev:
 683              	.LFB1516:
 684              		.cfi_startproc
 685              		.cfi_personality 0x9b,DW.ref.__gxx_personality_v0
 686              		.cfi_lsda 0x1b,.LLSDA1516
 687 0000 F30F1EFA 		endbr64
 688 0004 4154     		pushq	%r12
 689              		.cfi_def_cfa_offset 16
 690              		.cfi_offset 12, -16
 691 0006 488D0500 		leaq	16+_ZTV33TestCore_testStraddledWriteLongLE(%rip), %rax
 691      000000
 692 000d 55       		pushq	%rbp
 693              		.cfi_def_cfa_offset 24
 694              		.cfi_offset 6, -24
 695 000e 4889FD   		movq	%rdi, %rbp
 696 0011 4883EC08 		subq	$8, %rsp
 697              		.cfi_def_cfa_offset 32
 698 0015 488907   		movq	%rax, (%rdi)
 699              	.LEHB16:
 700 0018 E8000000 		call	_ZN8UnitTest4TestD2Ev@PLT
 700      00
 701              	.LEHE16:
 702 001d 4883C408 		addq	$8, %rsp
 703              		.cfi_remember_state
 704              		.cfi_def_cfa_offset 24
 705 0021 4889EF   		movq	%rbp, %rdi
 706 0024 5D       		popq	%rbp
 707              		.cfi_def_cfa_offset 16
 708 0025 415C     		popq	%r12
 709              		.cfi_def_cfa_offset 8
 710 0027 E9000000 		jmp	_ZdlPv@PLT
 710      00
 711              	.L45:
 712              		.cfi_restore_state
 713 002c F30F1EFA 		endbr64
 714 0030 4989C4   		movq	%rax, %r12
 715              	.L44:
 716 0033 4889EF   		movq	%rbp, %rdi
 717 0036 E8000000 		call	_ZdlPv@PLT
 717      00
 718 003b 4C89E7   		movq	%r12, %rdi
 719              	.LEHB17:
 720 003e E8000000 		call	_Unwind_Resume@PLT
 720      00
 721              	.LEHE17:
 722              		.cfi_endproc
 723              	.LFE1516:
 724              		.section	.gcc_except_table._ZN33TestCore_testStraddledWriteLongLED0Ev,"aG",@progbits,_ZN33TestCore
 725              	.LLSDA1516:
 726 0000 FF       		.byte	0xff
 727 0001 FF       		.byte	0xff
 728 0002 01       		.byte	0x1
 729 0003 08       		.uleb128 .LLSDACSE1516-.LLSDACSB1516
 730              	.LLSDACSB1516:
 731 0004 18       		.uleb128 .LEHB16-.LFB1516
 732 0005 05       		.uleb128 .LEHE16-.LEHB16
 733 0006 2C       		.uleb128 .L45-.LFB1516
 734 0007 00       		.uleb128 0
 735 0008 3E       		.uleb128 .LEHB17-.LFB1516
 736 0009 05       		.uleb128 .LEHE17-.LEHB17
 737 000a 00       		.uleb128 0
 738 000b 00       		.uleb128 0
 739              	.LLSDACSE1516:
 740              		.section	.text._ZN33TestCore_testStraddledWriteLongLED0Ev,"axG",@progbits,_ZN33TestCore_testStradd
 742              		.section	.text._ZN31TestCore_testOutsideWriteLongLED2Ev,"axG",@progbits,_ZN31TestCore_testOutsideW
 743              		.align 2
 744              		.p2align 4
 745              		.weak	_ZN31TestCore_testOutsideWriteLongLED2Ev
 747              	_ZN31TestCore_testOutsideWriteLongLED2Ev:
 748              	.LFB1518:
 749              		.cfi_startproc
 750 0000 F30F1EFA 		endbr64
 751 0004 488D0500 		leaq	16+_ZTV31TestCore_testOutsideWriteLongLE(%rip), %rax
 751      000000
 752 000b 488907   		movq	%rax, (%rdi)
 753 000e E9000000 		jmp	_ZN8UnitTest4TestD2Ev@PLT
 753      00
 754              		.cfi_endproc
 755              	.LFE1518:
 757              		.weak	_ZN31TestCore_testOutsideWriteLongLED1Ev
 758              		.set	_ZN31TestCore_testOutsideWriteLongLED1Ev,_ZN31TestCore_testOutsideWriteLongLED2Ev
 759              		.section	.text._ZN31TestCore_testOutsideWriteLongLED0Ev,"axG",@progbits,_ZN31TestCore_testOutsideW
 760              		.align 2
 761              		.p2align 4
 762              		.weak	_ZN31TestCore_testOutsideWriteLongLED0Ev
 764              	_ZN31TestCore_testOutsideWriteLongLED0Ev:
 765              	.LFB1520:
 766              		.cfi_startproc
 767              		.cfi_personality 0x9b,DW.ref.__gxx_personality_v0
 768              		.cfi_lsda 0x1b,.LLSDA1520
 769 0000 F30F1EFA 		endbr64
 770 0004 4154     		pushq	%r12
 771              		.cfi_def_cfa_offset 16
 772              		.cfi_offset 12, -16
 773 0006 488D0500 		leaq	16+_ZTV31TestCore_testOutsideWriteLongLE(%rip), %rax
 773      000000
 774 000d 55       		pushq	%rbp
 775              		.cfi_def_cfa_offset 24
 776              		.cfi_offset 6, -24
 777 000e 4889FD   		movq	%rdi, %rbp
 778 0011 4883EC08 		subq	$8, %rsp
 779              		.cfi_def_cfa_offset 32
 780 0015 488907   		movq	%rax, (%rdi)
 781              	.LEHB18:
 782 0018 E8000000 		call	_ZN8UnitTest4TestD2Ev@PLT
 782      00
 783              	.LEHE18:
 784 001d 4883C408 		addq	$8, %rsp
 785              		.cfi_remember_state
 786              		.cfi_def_cfa_offset 24
 787 0021 4889EF   		movq	%rbp, %rdi
 788 0024 5D       		popq	%rbp
 789              		.cfi_def_cfa_offset 16
 790 0025 415C     		popq	%r12
 791              		.cfi_def_cfa_offset 8
 792 0027 E9000000 		jmp	_ZdlPv@PLT
 792      00
 793              	.L50:
 794              		.cfi_restore_state
 795 002c F30F1EFA 		endbr64
 796 0030 4989C4   		movq	%rax, %r12
 797              	.L49:
 798 0033 4889EF   		movq	%rbp, %rdi
 799 0036 E8000000 		call	_ZdlPv@PLT
 799      00
 800 003b 4C89E7   		movq	%r12, %rdi
 801              	.LEHB19:
 802 003e E8000000 		call	_Unwind_Resume@PLT
 802      00
 803              	.LEHE19:
 804              		.cfi_endproc
 805              	.LFE1520:
 806              		.section	.gcc_except_table._ZN31TestCore_testOutsideWriteLongLED0Ev,"aG",@progbits,_ZN31TestCore_t
 807              	.LLSDA1520:
 808 0000 FF       		.byte	0xff
 809 0001 FF       		.byte	0xff
 810 0002 01       		.byte	0x1
 811 0003 08       		.uleb128 .LLSDACSE1520-.LLSDACSB1520
 812              	.LLSDACSB1520:
 813 0004 18       		.uleb128 .LEHB18-.LFB1520
 814 0005 05       		.uleb128 .LEHE18-.LEHB18
 815 0006 2C       		.uleb128 .L50-.LFB1520
 816 0007 00       		.uleb128 0
 817 0008 3E       		.uleb128 .LEHB19-.LFB1520
 818 0009 05       		.uleb128 .LEHE19-.LEHB19
 819 000a 00       		.uleb128 0
 820 000b 00       		.uleb128 0
 821              	.LLSDACSE1520:
 822              		.section	.text._ZN31TestCore_testOutsideWriteLongLED0Ev,"axG",@progbits,_ZN31TestCore_testOutsideW
 824              		.section	.text._ZN30TestCore_testInsideWriteLongLED2Ev,"axG",@progbits,_ZN30TestCore_testInsideWri
 825              		.align 2
 826              		.p2align 4
 827              		.weak	_ZN30TestCore_testInsideWriteLongLED2Ev
 829              	_ZN30TestCore_testInsideWriteLongLED2Ev:
 830              	.LFB1522:
 831              		.cfi_startproc
 832 0000 F30F1EFA 		endbr64
 833 0004 488D0500 		leaq	16+_ZTV30TestCore_testInsideWriteLongLE(%rip), %rax
 833      000000
 834 000b 488907   		movq	%rax, (%rdi)
 835 000e E9000000 		jmp	_ZN8UnitTest4TestD2Ev@PLT
 835      00
 836              		.cfi_endproc
 837              	.LFE1522:
 839              		.weak	_ZN30TestCore_testInsideWriteLongLED1Ev
 840              		.set	_ZN30TestCore_testInsideWriteLongLED1Ev,_ZN30TestCore_testInsideWriteLongLED2Ev
 841              		.section	.text._ZN30TestCore_testInsideWriteLongLED0Ev,"axG",@progbits,_ZN30TestCore_testInsideWri
 842              		.align 2
 843              		.p2align 4
 844              		.weak	_ZN30TestCore_testInsideWriteLongLED0Ev
 846              	_ZN30TestCore_testInsideWriteLongLED0Ev:
 847              	.LFB1524:
 848              		.cfi_startproc
 849              		.cfi_personality 0x9b,DW.ref.__gxx_personality_v0
 850              		.cfi_lsda 0x1b,.LLSDA1524
 851 0000 F30F1EFA 		endbr64
 852 0004 4154     		pushq	%r12
 853              		.cfi_def_cfa_offset 16
 854              		.cfi_offset 12, -16
 855 0006 488D0500 		leaq	16+_ZTV30TestCore_testInsideWriteLongLE(%rip), %rax
 855      000000
 856 000d 55       		pushq	%rbp
 857              		.cfi_def_cfa_offset 24
 858              		.cfi_offset 6, -24
 859 000e 4889FD   		movq	%rdi, %rbp
 860 0011 4883EC08 		subq	$8, %rsp
 861              		.cfi_def_cfa_offset 32
 862 0015 488907   		movq	%rax, (%rdi)
 863              	.LEHB20:
 864 0018 E8000000 		call	_ZN8UnitTest4TestD2Ev@PLT
 864      00
 865              	.LEHE20:
 866 001d 4883C408 		addq	$8, %rsp
 867              		.cfi_remember_state
 868              		.cfi_def_cfa_offset 24
 869 0021 4889EF   		movq	%rbp, %rdi
 870 0024 5D       		popq	%rbp
 871              		.cfi_def_cfa_offset 16
 872 0025 415C     		popq	%r12
 873              		.cfi_def_cfa_offset 8
 874 0027 E9000000 		jmp	_ZdlPv@PLT
 874      00
 875              	.L55:
 876              		.cfi_restore_state
 877 002c F30F1EFA 		endbr64
 878 0030 4989C4   		movq	%rax, %r12
 879              	.L54:
 880 0033 4889EF   		movq	%rbp, %rdi
 881 0036 E8000000 		call	_ZdlPv@PLT
 881      00
 882 003b 4C89E7   		movq	%r12, %rdi
 883              	.LEHB21:
 884 003e E8000000 		call	_Unwind_Resume@PLT
 884      00
 885              	.LEHE21:
 886              		.cfi_endproc
 887              	.LFE1524:
 888              		.section	.gcc_except_table._ZN30TestCore_testInsideWriteLongLED0Ev,"aG",@progbits,_ZN30TestCore_te
 889              	.LLSDA1524:
 890 0000 FF       		.byte	0xff
 891 0001 FF       		.byte	0xff
 892 0002 01       		.byte	0x1
 893 0003 08       		.uleb128 .LLSDACSE1524-.LLSDACSB1524
 894              	.LLSDACSB1524:
 895 0004 18       		.uleb128 .LEHB20-.LFB1524
 896 0005 05       		.uleb128 .LEHE20-.LEHB20
 897 0006 2C       		.uleb128 .L55-.LFB1524
 898 0007 00       		.uleb128 0
 899 0008 3E       		.uleb128 .LEHB21-.LFB1524
 900 0009 05       		.uleb128 .LEHE21-.LEHB21
 901 000a 00       		.uleb128 0
 902 000b 00       		.uleb128 0
 903              	.LLSDACSE1524:
 904              		.section	.text._ZN30TestCore_testInsideWriteLongLED0Ev,"axG",@progbits,_ZN30TestCore_testInsideWri
 906              		.section	.text._ZN33TestCore_testStraddledWriteWordBED2Ev,"axG",@progbits,_ZN33TestCore_testStradd
 907              		.align 2
 908              		.p2align 4
 909              		.weak	_ZN33TestCore_testStraddledWriteWordBED2Ev
 911              	_ZN33TestCore_testStraddledWriteWordBED2Ev:
 912              	.LFB1526:
 913              		.cfi_startproc
 914 0000 F30F1EFA 		endbr64
 915 0004 488D0500 		leaq	16+_ZTV33TestCore_testStraddledWriteWordBE(%rip), %rax
 915      000000
 916 000b 488907   		movq	%rax, (%rdi)
 917 000e E9000000 		jmp	_ZN8UnitTest4TestD2Ev@PLT
 917      00
 918              		.cfi_endproc
 919              	.LFE1526:
 921              		.weak	_ZN33TestCore_testStraddledWriteWordBED1Ev
 922              		.set	_ZN33TestCore_testStraddledWriteWordBED1Ev,_ZN33TestCore_testStraddledWriteWordBED2Ev
 923              		.section	.text._ZN33TestCore_testStraddledWriteWordBED0Ev,"axG",@progbits,_ZN33TestCore_testStradd
 924              		.align 2
 925              		.p2align 4
 926              		.weak	_ZN33TestCore_testStraddledWriteWordBED0Ev
 928              	_ZN33TestCore_testStraddledWriteWordBED0Ev:
 929              	.LFB1528:
 930              		.cfi_startproc
 931              		.cfi_personality 0x9b,DW.ref.__gxx_personality_v0
 932              		.cfi_lsda 0x1b,.LLSDA1528
 933 0000 F30F1EFA 		endbr64
 934 0004 4154     		pushq	%r12
 935              		.cfi_def_cfa_offset 16
 936              		.cfi_offset 12, -16
 937 0006 488D0500 		leaq	16+_ZTV33TestCore_testStraddledWriteWordBE(%rip), %rax
 937      000000
 938 000d 55       		pushq	%rbp
 939              		.cfi_def_cfa_offset 24
 940              		.cfi_offset 6, -24
 941 000e 4889FD   		movq	%rdi, %rbp
 942 0011 4883EC08 		subq	$8, %rsp
 943              		.cfi_def_cfa_offset 32
 944 0015 488907   		movq	%rax, (%rdi)
 945              	.LEHB22:
 946 0018 E8000000 		call	_ZN8UnitTest4TestD2Ev@PLT
 946      00
 947              	.LEHE22:
 948 001d 4883C408 		addq	$8, %rsp
 949              		.cfi_remember_state
 950              		.cfi_def_cfa_offset 24
 951 0021 4889EF   		movq	%rbp, %rdi
 952 0024 5D       		popq	%rbp
 953              		.cfi_def_cfa_offset 16
 954 0025 415C     		popq	%r12
 955              		.cfi_def_cfa_offset 8
 956 0027 E9000000 		jmp	_ZdlPv@PLT
 956      00
 957              	.L60:
 958              		.cfi_restore_state
 959 002c F30F1EFA 		endbr64
 960 0030 4989C4   		movq	%rax, %r12
 961              	.L59:
 962 0033 4889EF   		movq	%rbp, %rdi
 963 0036 E8000000 		call	_ZdlPv@PLT
 963      00
 964 003b 4C89E7   		movq	%r12, %rdi
 965              	.LEHB23:
 966 003e E8000000 		call	_Unwind_Resume@PLT
 966      00
 967              	.LEHE23:
 968              		.cfi_endproc
 969              	.LFE1528:
 970              		.section	.gcc_except_table._ZN33TestCore_testStraddledWriteWordBED0Ev,"aG",@progbits,_ZN33TestCore
 971              	.LLSDA1528:
 972 0000 FF       		.byte	0xff
 973 0001 FF       		.byte	0xff
 974 0002 01       		.byte	0x1
 975 0003 08       		.uleb128 .LLSDACSE1528-.LLSDACSB1528
 976              	.LLSDACSB1528:
 977 0004 18       		.uleb128 .LEHB22-.LFB1528
 978 0005 05       		.uleb128 .LEHE22-.LEHB22
 979 0006 2C       		.uleb128 .L60-.LFB1528
 980 0007 00       		.uleb128 0
 981 0008 3E       		.uleb128 .LEHB23-.LFB1528
 982 0009 05       		.uleb128 .LEHE23-.LEHB23
 983 000a 00       		.uleb128 0
 984 000b 00       		.uleb128 0
 985              	.LLSDACSE1528:
 986              		.section	.text._ZN33TestCore_testStraddledWriteWordBED0Ev,"axG",@progbits,_ZN33TestCore_testStradd
 988              		.section	.text._ZN31TestCore_testOutsideWriteWordBED2Ev,"axG",@progbits,_ZN31TestCore_testOutsideW
 989              		.align 2
 990              		.p2align 4
 991              		.weak	_ZN31TestCore_testOutsideWriteWordBED2Ev
 993              	_ZN31TestCore_testOutsideWriteWordBED2Ev:
 994              	.LFB1530:
 995              		.cfi_startproc
 996 0000 F30F1EFA 		endbr64
 997 0004 488D0500 		leaq	16+_ZTV31TestCore_testOutsideWriteWordBE(%rip), %rax
 997      000000
 998 000b 488907   		movq	%rax, (%rdi)
 999 000e E9000000 		jmp	_ZN8UnitTest4TestD2Ev@PLT
 999      00
 1000              		.cfi_endproc
 1001              	.LFE1530:
 1003              		.weak	_ZN31TestCore_testOutsideWriteWordBED1Ev
 1004              		.set	_ZN31TestCore_testOutsideWriteWordBED1Ev,_ZN31TestCore_testOutsideWriteWordBED2Ev
 1005              		.section	.text._ZN31TestCore_testOutsideWriteWordBED0Ev,"axG",@progbits,_ZN31TestCore_testOutsideW
 1006              		.align 2
 1007              		.p2align 4
 1008              		.weak	_ZN31TestCore_testOutsideWriteWordBED0Ev
 1010              	_ZN31TestCore_testOutsideWriteWordBED0Ev:
 1011              	.LFB1532:
 1012              		.cfi_startproc
 1013              		.cfi_personality 0x9b,DW.ref.__gxx_personality_v0
 1014              		.cfi_lsda 0x1b,.LLSDA1532
 1015 0000 F30F1EFA 		endbr64
 1016 0004 4154     		pushq	%r12
 1017              		.cfi_def_cfa_offset 16
 1018              		.cfi_offset 12, -16
 1019 0006 488D0500 		leaq	16+_ZTV31TestCore_testOutsideWriteWordBE(%rip), %rax
 1019      000000
 1020 000d 55       		pushq	%rbp
 1021              		.cfi_def_cfa_offset 24
 1022              		.cfi_offset 6, -24
 1023 000e 4889FD   		movq	%rdi, %rbp
 1024 0011 4883EC08 		subq	$8, %rsp
 1025              		.cfi_def_cfa_offset 32
 1026 0015 488907   		movq	%rax, (%rdi)
 1027              	.LEHB24:
 1028 0018 E8000000 		call	_ZN8UnitTest4TestD2Ev@PLT
 1028      00
 1029              	.LEHE24:
 1030 001d 4883C408 		addq	$8, %rsp
 1031              		.cfi_remember_state
 1032              		.cfi_def_cfa_offset 24
 1033 0021 4889EF   		movq	%rbp, %rdi
 1034 0024 5D       		popq	%rbp
 1035              		.cfi_def_cfa_offset 16
 1036 0025 415C     		popq	%r12
 1037              		.cfi_def_cfa_offset 8
 1038 0027 E9000000 		jmp	_ZdlPv@PLT
 1038      00
 1039              	.L65:
 1040              		.cfi_restore_state
 1041 002c F30F1EFA 		endbr64
 1042 0030 4989C4   		movq	%rax, %r12
 1043              	.L64:
 1044 0033 4889EF   		movq	%rbp, %rdi
 1045 0036 E8000000 		call	_ZdlPv@PLT
 1045      00
 1046 003b 4C89E7   		movq	%r12, %rdi
 1047              	.LEHB25:
 1048 003e E8000000 		call	_Unwind_Resume@PLT
 1048      00
 1049              	.LEHE25:
 1050              		.cfi_endproc
 1051              	.LFE1532:
 1052              		.section	.gcc_except_table._ZN31TestCore_testOutsideWriteWordBED0Ev,"aG",@progbits,_ZN31TestCore_t
 1053              	.LLSDA1532:
 1054 0000 FF       		.byte	0xff
 1055 0001 FF       		.byte	0xff
 1056 0002 01       		.byte	0x1
 1057 0003 08       		.uleb128 .LLSDACSE1532-.LLSDACSB1532
 1058              	.LLSDACSB1532:
 1059 0004 18       		.uleb128 .LEHB24-.LFB1532
 1060 0005 05       		.uleb128 .LEHE24-.LEHB24
 1061 0006 2C       		.uleb128 .L65-.LFB1532
 1062 0007 00       		.uleb128 0
 1063 0008 3E       		.uleb128 .LEHB25-.LFB1532
 1064 0009 05       		.uleb128 .LEHE25-.LEHB25
 1065 000a 00       		.uleb128 0
 1066 000b 00       		.uleb128 0
 1067              	.LLSDACSE1532:
 1068              		.section	.text._ZN31TestCore_testOutsideWriteWordBED0Ev,"axG",@progbits,_ZN31TestCore_testOutsideW
 1070              		.section	.text._ZN30TestCore_testInsideWriteWordBED2Ev,"axG",@progbits,_ZN30TestCore_testInsideWri
 1071              		.align 2
 1072              		.p2align 4
 1073              		.weak	_ZN30TestCore_testInsideWriteWordBED2Ev
 1075              	_ZN30TestCore_testInsideWriteWordBED2Ev:
 1076              	.LFB1534:
 1077              		.cfi_startproc
 1078 0000 F30F1EFA 		endbr64
 1079 0004 488D0500 		leaq	16+_ZTV30TestCore_testInsideWriteWordBE(%rip), %rax
 1079      000000
 1080 000b 488907   		movq	%rax, (%rdi)
 1081 000e E9000000 		jmp	_ZN8UnitTest4TestD2Ev@PLT
 1081      00
 1082              		.cfi_endproc
 1083              	.LFE1534:
 1085              		.weak	_ZN30TestCore_testInsideWriteWordBED1Ev
 1086              		.set	_ZN30TestCore_testInsideWriteWordBED1Ev,_ZN30TestCore_testInsideWriteWordBED2Ev
 1087              		.section	.text._ZN30TestCore_testInsideWriteWordBED0Ev,"axG",@progbits,_ZN30TestCore_testInsideWri
 1088              		.align 2
 1089              		.p2align 4
 1090              		.weak	_ZN30TestCore_testInsideWriteWordBED0Ev
 1092              	_ZN30TestCore_testInsideWriteWordBED0Ev:
 1093              	.LFB1536:
 1094              		.cfi_startproc
 1095              		.cfi_personality 0x9b,DW.ref.__gxx_personality_v0
 1096              		.cfi_lsda 0x1b,.LLSDA1536
 1097 0000 F30F1EFA 		endbr64
 1098 0004 4154     		pushq	%r12
 1099              		.cfi_def_cfa_offset 16
 1100              		.cfi_offset 12, -16
 1101 0006 488D0500 		leaq	16+_ZTV30TestCore_testInsideWriteWordBE(%rip), %rax
 1101      000000
 1102 000d 55       		pushq	%rbp
 1103              		.cfi_def_cfa_offset 24
 1104              		.cfi_offset 6, -24
 1105 000e 4889FD   		movq	%rdi, %rbp
 1106 0011 4883EC08 		subq	$8, %rsp
 1107              		.cfi_def_cfa_offset 32
 1108 0015 488907   		movq	%rax, (%rdi)
 1109              	.LEHB26:
 1110 0018 E8000000 		call	_ZN8UnitTest4TestD2Ev@PLT
 1110      00
 1111              	.LEHE26:
 1112 001d 4883C408 		addq	$8, %rsp
 1113              		.cfi_remember_state
 1114              		.cfi_def_cfa_offset 24
 1115 0021 4889EF   		movq	%rbp, %rdi
 1116 0024 5D       		popq	%rbp
 1117              		.cfi_def_cfa_offset 16
 1118 0025 415C     		popq	%r12
 1119              		.cfi_def_cfa_offset 8
 1120 0027 E9000000 		jmp	_ZdlPv@PLT
 1120      00
 1121              	.L70:
 1122              		.cfi_restore_state
 1123 002c F30F1EFA 		endbr64
 1124 0030 4989C4   		movq	%rax, %r12
 1125              	.L69:
 1126 0033 4889EF   		movq	%rbp, %rdi
 1127 0036 E8000000 		call	_ZdlPv@PLT
 1127      00
 1128 003b 4C89E7   		movq	%r12, %rdi
 1129              	.LEHB27:
 1130 003e E8000000 		call	_Unwind_Resume@PLT
 1130      00
 1131              	.LEHE27:
 1132              		.cfi_endproc
 1133              	.LFE1536:
 1134              		.section	.gcc_except_table._ZN30TestCore_testInsideWriteWordBED0Ev,"aG",@progbits,_ZN30TestCore_te
 1135              	.LLSDA1536:
 1136 0000 FF       		.byte	0xff
 1137 0001 FF       		.byte	0xff
 1138 0002 01       		.byte	0x1
 1139 0003 08       		.uleb128 .LLSDACSE1536-.LLSDACSB1536
 1140              	.LLSDACSB1536:
 1141 0004 18       		.uleb128 .LEHB26-.LFB1536
 1142 0005 05       		.uleb128 .LEHE26-.LEHB26
 1143 0006 2C       		.uleb128 .L70-.LFB1536
 1144 0007 00       		.uleb128 0
 1145 0008 3E       		.uleb128 .LEHB27-.LFB1536
 1146 0009 05       		.uleb128 .LEHE27-.LEHB27
 1147 000a 00       		.uleb128 0
 1148 000b 00       		.uleb128 0
 1149              	.LLSDACSE1536:
 1150              		.section	.text._ZN30TestCore_testInsideWriteWordBED0Ev,"axG",@progbits,_ZN30TestCore_testInsideWri
 1152              		.section	.text._ZN33TestCore_testStraddledWriteWordLED2Ev,"axG",@progbits,_ZN33TestCore_testStradd
 1153              		.align 2
 1154              		.p2align 4
 1155              		.weak	_ZN33TestCore_testStraddledWriteWordLED2Ev
 1157              	_ZN33TestCore_testStraddledWriteWordLED2Ev:
 1158              	.LFB1538:
 1159              		.cfi_startproc
 1160 0000 F30F1EFA 		endbr64
 1161 0004 488D0500 		leaq	16+_ZTV33TestCore_testStraddledWriteWordLE(%rip), %rax
 1161      000000
 1162 000b 488907   		movq	%rax, (%rdi)
 1163 000e E9000000 		jmp	_ZN8UnitTest4TestD2Ev@PLT
 1163      00
 1164              		.cfi_endproc
 1165              	.LFE1538:
 1167              		.weak	_ZN33TestCore_testStraddledWriteWordLED1Ev
 1168              		.set	_ZN33TestCore_testStraddledWriteWordLED1Ev,_ZN33TestCore_testStraddledWriteWordLED2Ev
 1169              		.section	.text._ZN33TestCore_testStraddledWriteWordLED0Ev,"axG",@progbits,_ZN33TestCore_testStradd
 1170              		.align 2
 1171              		.p2align 4
 1172              		.weak	_ZN33TestCore_testStraddledWriteWordLED0Ev
 1174              	_ZN33TestCore_testStraddledWriteWordLED0Ev:
 1175              	.LFB1540:
 1176              		.cfi_startproc
 1177              		.cfi_personality 0x9b,DW.ref.__gxx_personality_v0
 1178              		.cfi_lsda 0x1b,.LLSDA1540
 1179 0000 F30F1EFA 		endbr64
 1180 0004 4154     		pushq	%r12
 1181              		.cfi_def_cfa_offset 16
 1182              		.cfi_offset 12, -16
 1183 0006 488D0500 		leaq	16+_ZTV33TestCore_testStraddledWriteWordLE(%rip), %rax
 1183      000000
 1184 000d 55       		pushq	%rbp
 1185              		.cfi_def_cfa_offset 24
 1186              		.cfi_offset 6, -24
 1187 000e 4889FD   		movq	%rdi, %rbp
 1188 0011 4883EC08 		subq	$8, %rsp
 1189              		.cfi_def_cfa_offset 32
 1190 0015 488907   		movq	%rax, (%rdi)
 1191              	.LEHB28:
 1192 0018 E8000000 		call	_ZN8UnitTest4TestD2Ev@PLT
 1192      00
 1193              	.LEHE28:
 1194 001d 4883C408 		addq	$8, %rsp
 1195              		.cfi_remember_state
 1196              		.cfi_def_cfa_offset 24
 1197 0021 4889EF   		movq	%rbp, %rdi
 1198 0024 5D       		popq	%rbp
 1199              		.cfi_def_cfa_offset 16
 1200 0025 415C     		popq	%r12
 1201              		.cfi_def_cfa_offset 8
 1202 0027 E9000000 		jmp	_ZdlPv@PLT
 1202      00
 1203              	.L75:
 1204              		.cfi_restore_state
 1205 002c F30F1EFA 		endbr64
 1206 0030 4989C4   		movq	%rax, %r12
 1207              	.L74:
 1208 0033 4889EF   		movq	%rbp, %rdi
 1209 0036 E8000000 		call	_ZdlPv@PLT
 1209      00
 1210 003b 4C89E7   		movq	%r12, %rdi
 1211              	.LEHB29:
 1212 003e E8000000 		call	_Unwind_Resume@PLT
 1212      00
 1213              	.LEHE29:
 1214              		.cfi_endproc
 1215              	.LFE1540:
 1216              		.section	.gcc_except_table._ZN33TestCore_testStraddledWriteWordLED0Ev,"aG",@progbits,_ZN33TestCore
 1217              	.LLSDA1540:
 1218 0000 FF       		.byte	0xff
 1219 0001 FF       		.byte	0xff
 1220 0002 01       		.byte	0x1
 1221 0003 08       		.uleb128 .LLSDACSE1540-.LLSDACSB1540
 1222              	.LLSDACSB1540:
 1223 0004 18       		.uleb128 .LEHB28-.LFB1540
 1224 0005 05       		.uleb128 .LEHE28-.LEHB28
 1225 0006 2C       		.uleb128 .L75-.LFB1540
 1226 0007 00       		.uleb128 0
 1227 0008 3E       		.uleb128 .LEHB29-.LFB1540
 1228 0009 05       		.uleb128 .LEHE29-.LEHB29
 1229 000a 00       		.uleb128 0
 1230 000b 00       		.uleb128 0
 1231              	.LLSDACSE1540:
 1232              		.section	.text._ZN33TestCore_testStraddledWriteWordLED0Ev,"axG",@progbits,_ZN33TestCore_testStradd
 1234              		.section	.text._ZN31TestCore_testOutsideWriteWordLED2Ev,"axG",@progbits,_ZN31TestCore_testOutsideW
 1235              		.align 2
 1236              		.p2align 4
 1237              		.weak	_ZN31TestCore_testOutsideWriteWordLED2Ev
 1239              	_ZN31TestCore_testOutsideWriteWordLED2Ev:
 1240              	.LFB1542:
 1241              		.cfi_startproc
 1242 0000 F30F1EFA 		endbr64
 1243 0004 488D0500 		leaq	16+_ZTV31TestCore_testOutsideWriteWordLE(%rip), %rax
 1243      000000
 1244 000b 488907   		movq	%rax, (%rdi)
 1245 000e E9000000 		jmp	_ZN8UnitTest4TestD2Ev@PLT
 1245      00
 1246              		.cfi_endproc
 1247              	.LFE1542:
 1249              		.weak	_ZN31TestCore_testOutsideWriteWordLED1Ev
 1250              		.set	_ZN31TestCore_testOutsideWriteWordLED1Ev,_ZN31TestCore_testOutsideWriteWordLED2Ev
 1251              		.section	.text._ZN31TestCore_testOutsideWriteWordLED0Ev,"axG",@progbits,_ZN31TestCore_testOutsideW
 1252              		.align 2
 1253              		.p2align 4
 1254              		.weak	_ZN31TestCore_testOutsideWriteWordLED0Ev
 1256              	_ZN31TestCore_testOutsideWriteWordLED0Ev:
 1257              	.LFB1544:
 1258              		.cfi_startproc
 1259              		.cfi_personality 0x9b,DW.ref.__gxx_personality_v0
 1260              		.cfi_lsda 0x1b,.LLSDA1544
 1261 0000 F30F1EFA 		endbr64
 1262 0004 4154     		pushq	%r12
 1263              		.cfi_def_cfa_offset 16
 1264              		.cfi_offset 12, -16
 1265 0006 488D0500 		leaq	16+_ZTV31TestCore_testOutsideWriteWordLE(%rip), %rax
 1265      000000
 1266 000d 55       		pushq	%rbp
 1267              		.cfi_def_cfa_offset 24
 1268              		.cfi_offset 6, -24
 1269 000e 4889FD   		movq	%rdi, %rbp
 1270 0011 4883EC08 		subq	$8, %rsp
 1271              		.cfi_def_cfa_offset 32
 1272 0015 488907   		movq	%rax, (%rdi)
 1273              	.LEHB30:
 1274 0018 E8000000 		call	_ZN8UnitTest4TestD2Ev@PLT
 1274      00
 1275              	.LEHE30:
 1276 001d 4883C408 		addq	$8, %rsp
 1277              		.cfi_remember_state
 1278              		.cfi_def_cfa_offset 24
 1279 0021 4889EF   		movq	%rbp, %rdi
 1280 0024 5D       		popq	%rbp
 1281              		.cfi_def_cfa_offset 16
 1282 0025 415C     		popq	%r12
 1283              		.cfi_def_cfa_offset 8
 1284 0027 E9000000 		jmp	_ZdlPv@PLT
 1284      00
 1285              	.L80:
 1286              		.cfi_restore_state
 1287 002c F30F1EFA 		endbr64
 1288 0030 4989C4   		movq	%rax, %r12
 1289              	.L79:
 1290 0033 4889EF   		movq	%rbp, %rdi
 1291 0036 E8000000 		call	_ZdlPv@PLT
 1291      00
 1292 003b 4C89E7   		movq	%r12, %rdi
 1293              	.LEHB31:
 1294 003e E8000000 		call	_Unwind_Resume@PLT
 1294      00
 1295              	.LEHE31:
 1296              		.cfi_endproc
 1297              	.LFE1544:
 1298              		.section	.gcc_except_table._ZN31TestCore_testOutsideWriteWordLED0Ev,"aG",@progbits,_ZN31TestCore_t
 1299              	.LLSDA1544:
 1300 0000 FF       		.byte	0xff
 1301 0001 FF       		.byte	0xff
 1302 0002 01       		.byte	0x1
 1303 0003 08       		.uleb128 .LLSDACSE1544-.LLSDACSB1544
 1304              	.LLSDACSB1544:
 1305 0004 18       		.uleb128 .LEHB30-.LFB1544
 1306 0005 05       		.uleb128 .LEHE30-.LEHB30
 1307 0006 2C       		.uleb128 .L80-.LFB1544
 1308 0007 00       		.uleb128 0
 1309 0008 3E       		.uleb128 .LEHB31-.LFB1544
 1310 0009 05       		.uleb128 .LEHE31-.LEHB31
 1311 000a 00       		.uleb128 0
 1312 000b 00       		.uleb128 0
 1313              	.LLSDACSE1544:
 1314              		.section	.text._ZN31TestCore_testOutsideWriteWordLED0Ev,"axG",@progbits,_ZN31TestCore_testOutsideW
 1316              		.section	.text._ZN30TestCore_testInsideWriteWordLED2Ev,"axG",@progbits,_ZN30TestCore_testInsideWri
 1317              		.align 2
 1318              		.p2align 4
 1319              		.weak	_ZN30TestCore_testInsideWriteWordLED2Ev
 1321              	_ZN30TestCore_testInsideWriteWordLED2Ev:
 1322              	.LFB1546:
 1323              		.cfi_startproc
 1324 0000 F30F1EFA 		endbr64
 1325 0004 488D0500 		leaq	16+_ZTV30TestCore_testInsideWriteWordLE(%rip), %rax
 1325      000000
 1326 000b 488907   		movq	%rax, (%rdi)
 1327 000e E9000000 		jmp	_ZN8UnitTest4TestD2Ev@PLT
 1327      00
 1328              		.cfi_endproc
 1329              	.LFE1546:
 1331              		.weak	_ZN30TestCore_testInsideWriteWordLED1Ev
 1332              		.set	_ZN30TestCore_testInsideWriteWordLED1Ev,_ZN30TestCore_testInsideWriteWordLED2Ev
 1333              		.section	.text._ZN30TestCore_testInsideWriteWordLED0Ev,"axG",@progbits,_ZN30TestCore_testInsideWri
 1334              		.align 2
 1335              		.p2align 4
 1336              		.weak	_ZN30TestCore_testInsideWriteWordLED0Ev
 1338              	_ZN30TestCore_testInsideWriteWordLED0Ev:
 1339              	.LFB1548:
 1340              		.cfi_startproc
 1341              		.cfi_personality 0x9b,DW.ref.__gxx_personality_v0
 1342              		.cfi_lsda 0x1b,.LLSDA1548
 1343 0000 F30F1EFA 		endbr64
 1344 0004 4154     		pushq	%r12
 1345              		.cfi_def_cfa_offset 16
 1346              		.cfi_offset 12, -16
 1347 0006 488D0500 		leaq	16+_ZTV30TestCore_testInsideWriteWordLE(%rip), %rax
 1347      000000
 1348 000d 55       		pushq	%rbp
 1349              		.cfi_def_cfa_offset 24
 1350              		.cfi_offset 6, -24
 1351 000e 4889FD   		movq	%rdi, %rbp
 1352 0011 4883EC08 		subq	$8, %rsp
 1353              		.cfi_def_cfa_offset 32
 1354 0015 488907   		movq	%rax, (%rdi)
 1355              	.LEHB32:
 1356 0018 E8000000 		call	_ZN8UnitTest4TestD2Ev@PLT
 1356      00
 1357              	.LEHE32:
 1358 001d 4883C408 		addq	$8, %rsp
 1359              		.cfi_remember_state
 1360              		.cfi_def_cfa_offset 24
 1361 0021 4889EF   		movq	%rbp, %rdi
 1362 0024 5D       		popq	%rbp
 1363              		.cfi_def_cfa_offset 16
 1364 0025 415C     		popq	%r12
 1365              		.cfi_def_cfa_offset 8
 1366 0027 E9000000 		jmp	_ZdlPv@PLT
 1366      00
 1367              	.L85:
 1368              		.cfi_restore_state
 1369 002c F30F1EFA 		endbr64
 1370 0030 4989C4   		movq	%rax, %r12
 1371              	.L84:
 1372 0033 4889EF   		movq	%rbp, %rdi
 1373 0036 E8000000 		call	_ZdlPv@PLT
 1373      00
 1374 003b 4C89E7   		movq	%r12, %rdi
 1375              	.LEHB33:
 1376 003e E8000000 		call	_Unwind_Resume@PLT
 1376      00
 1377              	.LEHE33:
 1378              		.cfi_endproc
 1379              	.LFE1548:
 1380              		.section	.gcc_except_table._ZN30TestCore_testInsideWriteWordLED0Ev,"aG",@progbits,_ZN30TestCore_te
 1381              	.LLSDA1548:
 1382 0000 FF       		.byte	0xff
 1383 0001 FF       		.byte	0xff
 1384 0002 01       		.byte	0x1
 1385 0003 08       		.uleb128 .LLSDACSE1548-.LLSDACSB1548
 1386              	.LLSDACSB1548:
 1387 0004 18       		.uleb128 .LEHB32-.LFB1548
 1388 0005 05       		.uleb128 .LEHE32-.LEHB32
 1389 0006 2C       		.uleb128 .L85-.LFB1548
 1390 0007 00       		.uleb128 0
 1391 0008 3E       		.uleb128 .LEHB33-.LFB1548
 1392 0009 05       		.uleb128 .LEHE33-.LEHB33
 1393 000a 00       		.uleb128 0
 1394 000b 00       		.uleb128 0
 1395              	.LLSDACSE1548:
 1396              		.section	.text._ZN30TestCore_testInsideWriteWordLED0Ev,"axG",@progbits,_ZN30TestCore_testInsideWri
 1398              		.section	.text._ZN32TestCore_testStraddledWriteConstD2Ev,"axG",@progbits,_ZN32TestCore_testStraddl
 1399              		.align 2
 1400              		.p2align 4
 1401              		.weak	_ZN32TestCore_testStraddledWriteConstD2Ev
 1403              	_ZN32TestCore_testStraddledWriteConstD2Ev:
 1404              	.LFB1550:
 1405              		.cfi_startproc
 1406 0000 F30F1EFA 		endbr64
 1407 0004 488D0500 		leaq	16+_ZTV32TestCore_testStraddledWriteConst(%rip), %rax
 1407      000000
 1408 000b 488907   		movq	%rax, (%rdi)
 1409 000e E9000000 		jmp	_ZN8UnitTest4TestD2Ev@PLT
 1409      00
 1410              		.cfi_endproc
 1411              	.LFE1550:
 1413              		.weak	_ZN32TestCore_testStraddledWriteConstD1Ev
 1414              		.set	_ZN32TestCore_testStraddledWriteConstD1Ev,_ZN32TestCore_testStraddledWriteConstD2Ev
 1415              		.section	.text._ZN32TestCore_testStraddledWriteConstD0Ev,"axG",@progbits,_ZN32TestCore_testStraddl
 1416              		.align 2
 1417              		.p2align 4
 1418              		.weak	_ZN32TestCore_testStraddledWriteConstD0Ev
 1420              	_ZN32TestCore_testStraddledWriteConstD0Ev:
 1421              	.LFB1552:
 1422              		.cfi_startproc
 1423              		.cfi_personality 0x9b,DW.ref.__gxx_personality_v0
 1424              		.cfi_lsda 0x1b,.LLSDA1552
 1425 0000 F30F1EFA 		endbr64
 1426 0004 4154     		pushq	%r12
 1427              		.cfi_def_cfa_offset 16
 1428              		.cfi_offset 12, -16
 1429 0006 488D0500 		leaq	16+_ZTV32TestCore_testStraddledWriteConst(%rip), %rax
 1429      000000
 1430 000d 55       		pushq	%rbp
 1431              		.cfi_def_cfa_offset 24
 1432              		.cfi_offset 6, -24
 1433 000e 4889FD   		movq	%rdi, %rbp
 1434 0011 4883EC08 		subq	$8, %rsp
 1435              		.cfi_def_cfa_offset 32
 1436 0015 488907   		movq	%rax, (%rdi)
 1437              	.LEHB34:
 1438 0018 E8000000 		call	_ZN8UnitTest4TestD2Ev@PLT
 1438      00
 1439              	.LEHE34:
 1440 001d 4883C408 		addq	$8, %rsp
 1441              		.cfi_remember_state
 1442              		.cfi_def_cfa_offset 24
 1443 0021 4889EF   		movq	%rbp, %rdi
 1444 0024 5D       		popq	%rbp
 1445              		.cfi_def_cfa_offset 16
 1446 0025 415C     		popq	%r12
 1447              		.cfi_def_cfa_offset 8
 1448 0027 E9000000 		jmp	_ZdlPv@PLT
 1448      00
 1449              	.L90:
 1450              		.cfi_restore_state
 1451 002c F30F1EFA 		endbr64
 1452 0030 4989C4   		movq	%rax, %r12
 1453              	.L89:
 1454 0033 4889EF   		movq	%rbp, %rdi
 1455 0036 E8000000 		call	_ZdlPv@PLT
 1455      00
 1456 003b 4C89E7   		movq	%r12, %rdi
 1457              	.LEHB35:
 1458 003e E8000000 		call	_Unwind_Resume@PLT
 1458      00
 1459              	.LEHE35:
 1460              		.cfi_endproc
 1461              	.LFE1552:
 1462              		.section	.gcc_except_table._ZN32TestCore_testStraddledWriteConstD0Ev,"aG",@progbits,_ZN32TestCore_
 1463              	.LLSDA1552:
 1464 0000 FF       		.byte	0xff
 1465 0001 FF       		.byte	0xff
 1466 0002 01       		.byte	0x1
 1467 0003 08       		.uleb128 .LLSDACSE1552-.LLSDACSB1552
 1468              	.LLSDACSB1552:
 1469 0004 18       		.uleb128 .LEHB34-.LFB1552
 1470 0005 05       		.uleb128 .LEHE34-.LEHB34
 1471 0006 2C       		.uleb128 .L90-.LFB1552
 1472 0007 00       		.uleb128 0
 1473 0008 3E       		.uleb128 .LEHB35-.LFB1552
 1474 0009 05       		.uleb128 .LEHE35-.LEHB35
 1475 000a 00       		.uleb128 0
 1476 000b 00       		.uleb128 0
 1477              	.LLSDACSE1552:
 1478              		.section	.text._ZN32TestCore_testStraddledWriteConstD0Ev,"axG",@progbits,_ZN32TestCore_testStraddl
 1480              		.section	.text._ZN30TestCore_testOutsideWriteConstD2Ev,"axG",@progbits,_ZN30TestCore_testOutsideWr
 1481              		.align 2
 1482              		.p2align 4
 1483              		.weak	_ZN30TestCore_testOutsideWriteConstD2Ev
 1485              	_ZN30TestCore_testOutsideWriteConstD2Ev:
 1486              	.LFB1554:
 1487              		.cfi_startproc
 1488 0000 F30F1EFA 		endbr64
 1489 0004 488D0500 		leaq	16+_ZTV30TestCore_testOutsideWriteConst(%rip), %rax
 1489      000000
 1490 000b 488907   		movq	%rax, (%rdi)
 1491 000e E9000000 		jmp	_ZN8UnitTest4TestD2Ev@PLT
 1491      00
 1492              		.cfi_endproc
 1493              	.LFE1554:
 1495              		.weak	_ZN30TestCore_testOutsideWriteConstD1Ev
 1496              		.set	_ZN30TestCore_testOutsideWriteConstD1Ev,_ZN30TestCore_testOutsideWriteConstD2Ev
 1497              		.section	.text._ZN30TestCore_testOutsideWriteConstD0Ev,"axG",@progbits,_ZN30TestCore_testOutsideWr
 1498              		.align 2
 1499              		.p2align 4
 1500              		.weak	_ZN30TestCore_testOutsideWriteConstD0Ev
 1502              	_ZN30TestCore_testOutsideWriteConstD0Ev:
 1503              	.LFB1556:
 1504              		.cfi_startproc
 1505              		.cfi_personality 0x9b,DW.ref.__gxx_personality_v0
 1506              		.cfi_lsda 0x1b,.LLSDA1556
 1507 0000 F30F1EFA 		endbr64
 1508 0004 4154     		pushq	%r12
 1509              		.cfi_def_cfa_offset 16
 1510              		.cfi_offset 12, -16
 1511 0006 488D0500 		leaq	16+_ZTV30TestCore_testOutsideWriteConst(%rip), %rax
 1511      000000
 1512 000d 55       		pushq	%rbp
 1513              		.cfi_def_cfa_offset 24
 1514              		.cfi_offset 6, -24
 1515 000e 4889FD   		movq	%rdi, %rbp
 1516 0011 4883EC08 		subq	$8, %rsp
 1517              		.cfi_def_cfa_offset 32
 1518 0015 488907   		movq	%rax, (%rdi)
 1519              	.LEHB36:
 1520 0018 E8000000 		call	_ZN8UnitTest4TestD2Ev@PLT
 1520      00
 1521              	.LEHE36:
 1522 001d 4883C408 		addq	$8, %rsp
 1523              		.cfi_remember_state
 1524              		.cfi_def_cfa_offset 24
 1525 0021 4889EF   		movq	%rbp, %rdi
 1526 0024 5D       		popq	%rbp
 1527              		.cfi_def_cfa_offset 16
 1528 0025 415C     		popq	%r12
 1529              		.cfi_def_cfa_offset 8
 1530 0027 E9000000 		jmp	_ZdlPv@PLT
 1530      00
 1531              	.L95:
 1532              		.cfi_restore_state
 1533 002c F30F1EFA 		endbr64
 1534 0030 4989C4   		movq	%rax, %r12
 1535              	.L94:
 1536 0033 4889EF   		movq	%rbp, %rdi
 1537 0036 E8000000 		call	_ZdlPv@PLT
 1537      00
 1538 003b 4C89E7   		movq	%r12, %rdi
 1539              	.LEHB37:
 1540 003e E8000000 		call	_Unwind_Resume@PLT
 1540      00
 1541              	.LEHE37:
 1542              		.cfi_endproc
 1543              	.LFE1556:
 1544              		.section	.gcc_except_table._ZN30TestCore_testOutsideWriteConstD0Ev,"aG",@progbits,_ZN30TestCore_te
 1545              	.LLSDA1556:
 1546 0000 FF       		.byte	0xff
 1547 0001 FF       		.byte	0xff
 1548 0002 01       		.byte	0x1
 1549 0003 08       		.uleb128 .LLSDACSE1556-.LLSDACSB1556
 1550              	.LLSDACSB1556:
 1551 0004 18       		.uleb128 .LEHB36-.LFB1556
 1552 0005 05       		.uleb128 .LEHE36-.LEHB36
 1553 0006 2C       		.uleb128 .L95-.LFB1556
 1554 0007 00       		.uleb128 0
 1555 0008 3E       		.uleb128 .LEHB37-.LFB1556
 1556 0009 05       		.uleb128 .LEHE37-.LEHB37
 1557 000a 00       		.uleb128 0
 1558 000b 00       		.uleb128 0
 1559              	.LLSDACSE1556:
 1560              		.section	.text._ZN30TestCore_testOutsideWriteConstD0Ev,"axG",@progbits,_ZN30TestCore_testOutsideWr
 1562              		.section	.text._ZN29TestCore_testInsideWriteConstD2Ev,"axG",@progbits,_ZN29TestCore_testInsideWrit
 1563              		.align 2
 1564              		.p2align 4
 1565              		.weak	_ZN29TestCore_testInsideWriteConstD2Ev
 1567              	_ZN29TestCore_testInsideWriteConstD2Ev:
 1568              	.LFB1558:
 1569              		.cfi_startproc
 1570 0000 F30F1EFA 		endbr64
 1571 0004 488D0500 		leaq	16+_ZTV29TestCore_testInsideWriteConst(%rip), %rax
 1571      000000
 1572 000b 488907   		movq	%rax, (%rdi)
 1573 000e E9000000 		jmp	_ZN8UnitTest4TestD2Ev@PLT
 1573      00
 1574              		.cfi_endproc
 1575              	.LFE1558:
 1577              		.weak	_ZN29TestCore_testInsideWriteConstD1Ev
 1578              		.set	_ZN29TestCore_testInsideWriteConstD1Ev,_ZN29TestCore_testInsideWriteConstD2Ev
 1579              		.section	.text._ZN29TestCore_testInsideWriteConstD0Ev,"axG",@progbits,_ZN29TestCore_testInsideWrit
 1580              		.align 2
 1581              		.p2align 4
 1582              		.weak	_ZN29TestCore_testInsideWriteConstD0Ev
 1584              	_ZN29TestCore_testInsideWriteConstD0Ev:
 1585              	.LFB1560:
 1586              		.cfi_startproc
 1587              		.cfi_personality 0x9b,DW.ref.__gxx_personality_v0
 1588              		.cfi_lsda 0x1b,.LLSDA1560
 1589 0000 F30F1EFA 		endbr64
 1590 0004 4154     		pushq	%r12
 1591              		.cfi_def_cfa_offset 16
 1592              		.cfi_offset 12, -16
 1593 0006 488D0500 		leaq	16+_ZTV29TestCore_testInsideWriteConst(%rip), %rax
 1593      000000
 1594 000d 55       		pushq	%rbp
 1595              		.cfi_def_cfa_offset 24
 1596              		.cfi_offset 6, -24
 1597 000e 4889FD   		movq	%rdi, %rbp
 1598 0011 4883EC08 		subq	$8, %rsp
 1599              		.cfi_def_cfa_offset 32
 1600 0015 488907   		movq	%rax, (%rdi)
 1601              	.LEHB38:
 1602 0018 E8000000 		call	_ZN8UnitTest4TestD2Ev@PLT
 1602      00
 1603              	.LEHE38:
 1604 001d 4883C408 		addq	$8, %rsp
 1605              		.cfi_remember_state
 1606              		.cfi_def_cfa_offset 24
 1607 0021 4889EF   		movq	%rbp, %rdi
 1608 0024 5D       		popq	%rbp
 1609              		.cfi_def_cfa_offset 16
 1610 0025 415C     		popq	%r12
 1611              		.cfi_def_cfa_offset 8
 1612 0027 E9000000 		jmp	_ZdlPv@PLT
 1612      00
 1613              	.L100:
 1614              		.cfi_restore_state
 1615 002c F30F1EFA 		endbr64
 1616 0030 4989C4   		movq	%rax, %r12
 1617              	.L99:
 1618 0033 4889EF   		movq	%rbp, %rdi
 1619 0036 E8000000 		call	_ZdlPv@PLT
 1619      00
 1620 003b 4C89E7   		movq	%r12, %rdi
 1621              	.LEHB39:
 1622 003e E8000000 		call	_Unwind_Resume@PLT
 1622      00
 1623              	.LEHE39:
 1624              		.cfi_endproc
 1625              	.LFE1560:
 1626              		.section	.gcc_except_table._ZN29TestCore_testInsideWriteConstD0Ev,"aG",@progbits,_ZN29TestCore_tes
 1627              	.LLSDA1560:
 1628 0000 FF       		.byte	0xff
 1629 0001 FF       		.byte	0xff
 1630 0002 01       		.byte	0x1
 1631 0003 08       		.uleb128 .LLSDACSE1560-.LLSDACSB1560
 1632              	.LLSDACSB1560:
 1633 0004 18       		.uleb128 .LEHB38-.LFB1560
 1634 0005 05       		.uleb128 .LEHE38-.LEHB38
 1635 0006 2C       		.uleb128 .L100-.LFB1560
 1636 0007 00       		.uleb128 0
 1637 0008 3E       		.uleb128 .LEHB39-.LFB1560
 1638 0009 05       		.uleb128 .LEHE39-.LEHB39
 1639 000a 00       		.uleb128 0
 1640 000b 00       		.uleb128 0
 1641              	.LLSDACSE1560:
 1642              		.section	.text._ZN29TestCore_testInsideWriteConstD0Ev,"axG",@progbits,_ZN29TestCore_testInsideWrit
 1644              		.section	.text._ZN32TestCore_testStraddledWriteBlockD2Ev,"axG",@progbits,_ZN32TestCore_testStraddl
 1645              		.align 2
 1646              		.p2align 4
 1647              		.weak	_ZN32TestCore_testStraddledWriteBlockD2Ev
 1649              	_ZN32TestCore_testStraddledWriteBlockD2Ev:
 1650              	.LFB1562:
 1651              		.cfi_startproc
 1652 0000 F30F1EFA 		endbr64
 1653 0004 488D0500 		leaq	16+_ZTV32TestCore_testStraddledWriteBlock(%rip), %rax
 1653      000000
 1654 000b 488907   		movq	%rax, (%rdi)
 1655 000e E9000000 		jmp	_ZN8UnitTest4TestD2Ev@PLT
 1655      00
 1656              		.cfi_endproc
 1657              	.LFE1562:
 1659              		.weak	_ZN32TestCore_testStraddledWriteBlockD1Ev
 1660              		.set	_ZN32TestCore_testStraddledWriteBlockD1Ev,_ZN32TestCore_testStraddledWriteBlockD2Ev
 1661              		.section	.text._ZN32TestCore_testStraddledWriteBlockD0Ev,"axG",@progbits,_ZN32TestCore_testStraddl
 1662              		.align 2
 1663              		.p2align 4
 1664              		.weak	_ZN32TestCore_testStraddledWriteBlockD0Ev
 1666              	_ZN32TestCore_testStraddledWriteBlockD0Ev:
 1667              	.LFB1564:
 1668              		.cfi_startproc
 1669              		.cfi_personality 0x9b,DW.ref.__gxx_personality_v0
 1670              		.cfi_lsda 0x1b,.LLSDA1564
 1671 0000 F30F1EFA 		endbr64
 1672 0004 4154     		pushq	%r12
 1673              		.cfi_def_cfa_offset 16
 1674              		.cfi_offset 12, -16
 1675 0006 488D0500 		leaq	16+_ZTV32TestCore_testStraddledWriteBlock(%rip), %rax
 1675      000000
 1676 000d 55       		pushq	%rbp
 1677              		.cfi_def_cfa_offset 24
 1678              		.cfi_offset 6, -24
 1679 000e 4889FD   		movq	%rdi, %rbp
 1680 0011 4883EC08 		subq	$8, %rsp
 1681              		.cfi_def_cfa_offset 32
 1682 0015 488907   		movq	%rax, (%rdi)
 1683              	.LEHB40:
 1684 0018 E8000000 		call	_ZN8UnitTest4TestD2Ev@PLT
 1684      00
 1685              	.LEHE40:
 1686 001d 4883C408 		addq	$8, %rsp
 1687              		.cfi_remember_state
 1688              		.cfi_def_cfa_offset 24
 1689 0021 4889EF   		movq	%rbp, %rdi
 1690 0024 5D       		popq	%rbp
 1691              		.cfi_def_cfa_offset 16
 1692 0025 415C     		popq	%r12
 1693              		.cfi_def_cfa_offset 8
 1694 0027 E9000000 		jmp	_ZdlPv@PLT
 1694      00
 1695              	.L105:
 1696              		.cfi_restore_state
 1697 002c F30F1EFA 		endbr64
 1698 0030 4989C4   		movq	%rax, %r12
 1699              	.L104:
 1700 0033 4889EF   		movq	%rbp, %rdi
 1701 0036 E8000000 		call	_ZdlPv@PLT
 1701      00
 1702 003b 4C89E7   		movq	%r12, %rdi
 1703              	.LEHB41:
 1704 003e E8000000 		call	_Unwind_Resume@PLT
 1704      00
 1705              	.LEHE41:
 1706              		.cfi_endproc
 1707              	.LFE1564:
 1708              		.section	.gcc_except_table._ZN32TestCore_testStraddledWriteBlockD0Ev,"aG",@progbits,_ZN32TestCore_
 1709              	.LLSDA1564:
 1710 0000 FF       		.byte	0xff
 1711 0001 FF       		.byte	0xff
 1712 0002 01       		.byte	0x1
 1713 0003 08       		.uleb128 .LLSDACSE1564-.LLSDACSB1564
 1714              	.LLSDACSB1564:
 1715 0004 18       		.uleb128 .LEHB40-.LFB1564
 1716 0005 05       		.uleb128 .LEHE40-.LEHB40
 1717 0006 2C       		.uleb128 .L105-.LFB1564
 1718 0007 00       		.uleb128 0
 1719 0008 3E       		.uleb128 .LEHB41-.LFB1564
 1720 0009 05       		.uleb128 .LEHE41-.LEHB41
 1721 000a 00       		.uleb128 0
 1722 000b 00       		.uleb128 0
 1723              	.LLSDACSE1564:
 1724              		.section	.text._ZN32TestCore_testStraddledWriteBlockD0Ev,"axG",@progbits,_ZN32TestCore_testStraddl
 1726              		.section	.text._ZN30TestCore_testOutsideWriteBlockD2Ev,"axG",@progbits,_ZN30TestCore_testOutsideWr
 1727              		.align 2
 1728              		.p2align 4
 1729              		.weak	_ZN30TestCore_testOutsideWriteBlockD2Ev
 1731              	_ZN30TestCore_testOutsideWriteBlockD2Ev:
 1732              	.LFB1566:
 1733              		.cfi_startproc
 1734 0000 F30F1EFA 		endbr64
 1735 0004 488D0500 		leaq	16+_ZTV30TestCore_testOutsideWriteBlock(%rip), %rax
 1735      000000
 1736 000b 488907   		movq	%rax, (%rdi)
 1737 000e E9000000 		jmp	_ZN8UnitTest4TestD2Ev@PLT
 1737      00
 1738              		.cfi_endproc
 1739              	.LFE1566:
 1741              		.weak	_ZN30TestCore_testOutsideWriteBlockD1Ev
 1742              		.set	_ZN30TestCore_testOutsideWriteBlockD1Ev,_ZN30TestCore_testOutsideWriteBlockD2Ev
 1743              		.section	.text._ZN30TestCore_testOutsideWriteBlockD0Ev,"axG",@progbits,_ZN30TestCore_testOutsideWr
 1744              		.align 2
 1745              		.p2align 4
 1746              		.weak	_ZN30TestCore_testOutsideWriteBlockD0Ev
 1748              	_ZN30TestCore_testOutsideWriteBlockD0Ev:
 1749              	.LFB1568:
 1750              		.cfi_startproc
 1751              		.cfi_personality 0x9b,DW.ref.__gxx_personality_v0
 1752              		.cfi_lsda 0x1b,.LLSDA1568
 1753 0000 F30F1EFA 		endbr64
 1754 0004 4154     		pushq	%r12
 1755              		.cfi_def_cfa_offset 16
 1756              		.cfi_offset 12, -16
 1757 0006 488D0500 		leaq	16+_ZTV30TestCore_testOutsideWriteBlock(%rip), %rax
 1757      000000
 1758 000d 55       		pushq	%rbp
 1759              		.cfi_def_cfa_offset 24
 1760              		.cfi_offset 6, -24
 1761 000e 4889FD   		movq	%rdi, %rbp
 1762 0011 4883EC08 		subq	$8, %rsp
 1763              		.cfi_def_cfa_offset 32
 1764 0015 488907   		movq	%rax, (%rdi)
 1765              	.LEHB42:
 1766 0018 E8000000 		call	_ZN8UnitTest4TestD2Ev@PLT
 1766      00
 1767              	.LEHE42:
 1768 001d 4883C408 		addq	$8, %rsp
 1769              		.cfi_remember_state
 1770              		.cfi_def_cfa_offset 24
 1771 0021 4889EF   		movq	%rbp, %rdi
 1772 0024 5D       		popq	%rbp
 1773              		.cfi_def_cfa_offset 16
 1774 0025 415C     		popq	%r12
 1775              		.cfi_def_cfa_offset 8
 1776 0027 E9000000 		jmp	_ZdlPv@PLT
 1776      00
 1777              	.L110:
 1778              		.cfi_restore_state
 1779 002c F30F1EFA 		endbr64
 1780 0030 4989C4   		movq	%rax, %r12
 1781              	.L109:
 1782 0033 4889EF   		movq	%rbp, %rdi
 1783 0036 E8000000 		call	_ZdlPv@PLT
 1783      00
 1784 003b 4C89E7   		movq	%r12, %rdi
 1785              	.LEHB43:
 1786 003e E8000000 		call	_Unwind_Resume@PLT
 1786      00
 1787              	.LEHE43:
 1788              		.cfi_endproc
 1789              	.LFE1568:
 1790              		.section	.gcc_except_table._ZN30TestCore_testOutsideWriteBlockD0Ev,"aG",@progbits,_ZN30TestCore_te
 1791              	.LLSDA1568:
 1792 0000 FF       		.byte	0xff
 1793 0001 FF       		.byte	0xff
 1794 0002 01       		.byte	0x1
 1795 0003 08       		.uleb128 .LLSDACSE1568-.LLSDACSB1568
 1796              	.LLSDACSB1568:
 1797 0004 18       		.uleb128 .LEHB42-.LFB1568
 1798 0005 05       		.uleb128 .LEHE42-.LEHB42
 1799 0006 2C       		.uleb128 .L110-.LFB1568
 1800 0007 00       		.uleb128 0
 1801 0008 3E       		.uleb128 .LEHB43-.LFB1568
 1802 0009 05       		.uleb128 .LEHE43-.LEHB43
 1803 000a 00       		.uleb128 0
 1804 000b 00       		.uleb128 0
 1805              	.LLSDACSE1568:
 1806              		.section	.text._ZN30TestCore_testOutsideWriteBlockD0Ev,"axG",@progbits,_ZN30TestCore_testOutsideWr
 1808              		.section	.text._ZN29TestCore_testInsideWriteBlockD2Ev,"axG",@progbits,_ZN29TestCore_testInsideWrit
 1809              		.align 2
 1810              		.p2align 4
 1811              		.weak	_ZN29TestCore_testInsideWriteBlockD2Ev
 1813              	_ZN29TestCore_testInsideWriteBlockD2Ev:
 1814              	.LFB1570:
 1815              		.cfi_startproc
 1816 0000 F30F1EFA 		endbr64
 1817 0004 488D0500 		leaq	16+_ZTV29TestCore_testInsideWriteBlock(%rip), %rax
 1817      000000
 1818 000b 488907   		movq	%rax, (%rdi)
 1819 000e E9000000 		jmp	_ZN8UnitTest4TestD2Ev@PLT
 1819      00
 1820              		.cfi_endproc
 1821              	.LFE1570:
 1823              		.weak	_ZN29TestCore_testInsideWriteBlockD1Ev
 1824              		.set	_ZN29TestCore_testInsideWriteBlockD1Ev,_ZN29TestCore_testInsideWriteBlockD2Ev
 1825              		.section	.text._ZN29TestCore_testInsideWriteBlockD0Ev,"axG",@progbits,_ZN29TestCore_testInsideWrit
 1826              		.align 2
 1827              		.p2align 4
 1828              		.weak	_ZN29TestCore_testInsideWriteBlockD0Ev
 1830              	_ZN29TestCore_testInsideWriteBlockD0Ev:
 1831              	.LFB1572:
 1832              		.cfi_startproc
 1833              		.cfi_personality 0x9b,DW.ref.__gxx_personality_v0
 1834              		.cfi_lsda 0x1b,.LLSDA1572
 1835 0000 F30F1EFA 		endbr64
 1836 0004 4154     		pushq	%r12
 1837              		.cfi_def_cfa_offset 16
 1838              		.cfi_offset 12, -16
 1839 0006 488D0500 		leaq	16+_ZTV29TestCore_testInsideWriteBlock(%rip), %rax
 1839      000000
 1840 000d 55       		pushq	%rbp
 1841              		.cfi_def_cfa_offset 24
 1842              		.cfi_offset 6, -24
 1843 000e 4889FD   		movq	%rdi, %rbp
 1844 0011 4883EC08 		subq	$8, %rsp
 1845              		.cfi_def_cfa_offset 32
 1846 0015 488907   		movq	%rax, (%rdi)
 1847              	.LEHB44:
 1848 0018 E8000000 		call	_ZN8UnitTest4TestD2Ev@PLT
 1848      00
 1849              	.LEHE44:
 1850 001d 4883C408 		addq	$8, %rsp
 1851              		.cfi_remember_state
 1852              		.cfi_def_cfa_offset 24
 1853 0021 4889EF   		movq	%rbp, %rdi
 1854 0024 5D       		popq	%rbp
 1855              		.cfi_def_cfa_offset 16
 1856 0025 415C     		popq	%r12
 1857              		.cfi_def_cfa_offset 8
 1858 0027 E9000000 		jmp	_ZdlPv@PLT
 1858      00
 1859              	.L115:
 1860              		.cfi_restore_state
 1861 002c F30F1EFA 		endbr64
 1862 0030 4989C4   		movq	%rax, %r12
 1863              	.L114:
 1864 0033 4889EF   		movq	%rbp, %rdi
 1865 0036 E8000000 		call	_ZdlPv@PLT
 1865      00
 1866 003b 4C89E7   		movq	%r12, %rdi
 1867              	.LEHB45:
 1868 003e E8000000 		call	_Unwind_Resume@PLT
 1868      00
 1869              	.LEHE45:
 1870              		.cfi_endproc
 1871              	.LFE1572:
 1872              		.section	.gcc_except_table._ZN29TestCore_testInsideWriteBlockD0Ev,"aG",@progbits,_ZN29TestCore_tes
 1873              	.LLSDA1572:
 1874 0000 FF       		.byte	0xff
 1875 0001 FF       		.byte	0xff
 1876 0002 01       		.byte	0x1
 1877 0003 08       		.uleb128 .LLSDACSE1572-.LLSDACSB1572
 1878              	.LLSDACSB1572:
 1879 0004 18       		.uleb128 .LEHB44-.LFB1572
 1880 0005 05       		.uleb128 .LEHE44-.LEHB44
 1881 0006 2C       		.uleb128 .L115-.LFB1572
 1882 0007 00       		.uleb128 0
 1883 0008 3E       		.uleb128 .LEHB45-.LFB1572
 1884 0009 05       		.uleb128 .LEHE45-.LEHB45
 1885 000a 00       		.uleb128 0
 1886 000b 00       		.uleb128 0
 1887              	.LLSDACSE1572:
 1888              		.section	.text._ZN29TestCore_testInsideWriteBlockD0Ev,"axG",@progbits,_ZN29TestCore_testInsideWrit
 1890              		.section	.text._ZN28TestCore_testHugeAppendConstD2Ev,"axG",@progbits,_ZN28TestCore_testHugeAppendC
 1891              		.align 2
 1892              		.p2align 4
 1893              		.weak	_ZN28TestCore_testHugeAppendConstD2Ev
 1895              	_ZN28TestCore_testHugeAppendConstD2Ev:
 1896              	.LFB1574:
 1897              		.cfi_startproc
 1898 0000 F30F1EFA 		endbr64
 1899 0004 488D0500 		leaq	16+_ZTV28TestCore_testHugeAppendConst(%rip), %rax
 1899      000000
 1900 000b 488907   		movq	%rax, (%rdi)
 1901 000e E9000000 		jmp	_ZN8UnitTest4TestD2Ev@PLT
 1901      00
 1902              		.cfi_endproc
 1903              	.LFE1574:
 1905              		.weak	_ZN28TestCore_testHugeAppendConstD1Ev
 1906              		.set	_ZN28TestCore_testHugeAppendConstD1Ev,_ZN28TestCore_testHugeAppendConstD2Ev
 1907              		.section	.text._ZN28TestCore_testHugeAppendConstD0Ev,"axG",@progbits,_ZN28TestCore_testHugeAppendC
 1908              		.align 2
 1909              		.p2align 4
 1910              		.weak	_ZN28TestCore_testHugeAppendConstD0Ev
 1912              	_ZN28TestCore_testHugeAppendConstD0Ev:
 1913              	.LFB1576:
 1914              		.cfi_startproc
 1915              		.cfi_personality 0x9b,DW.ref.__gxx_personality_v0
 1916              		.cfi_lsda 0x1b,.LLSDA1576
 1917 0000 F30F1EFA 		endbr64
 1918 0004 4154     		pushq	%r12
 1919              		.cfi_def_cfa_offset 16
 1920              		.cfi_offset 12, -16
 1921 0006 488D0500 		leaq	16+_ZTV28TestCore_testHugeAppendConst(%rip), %rax
 1921      000000
 1922 000d 55       		pushq	%rbp
 1923              		.cfi_def_cfa_offset 24
 1924              		.cfi_offset 6, -24
 1925 000e 4889FD   		movq	%rdi, %rbp
 1926 0011 4883EC08 		subq	$8, %rsp
 1927              		.cfi_def_cfa_offset 32
 1928 0015 488907   		movq	%rax, (%rdi)
 1929              	.LEHB46:
 1930 0018 E8000000 		call	_ZN8UnitTest4TestD2Ev@PLT
 1930      00
 1931              	.LEHE46:
 1932 001d 4883C408 		addq	$8, %rsp
 1933              		.cfi_remember_state
 1934              		.cfi_def_cfa_offset 24
 1935 0021 4889EF   		movq	%rbp, %rdi
 1936 0024 5D       		popq	%rbp
 1937              		.cfi_def_cfa_offset 16
 1938 0025 415C     		popq	%r12
 1939              		.cfi_def_cfa_offset 8
 1940 0027 E9000000 		jmp	_ZdlPv@PLT
 1940      00
 1941              	.L120:
 1942              		.cfi_restore_state
 1943 002c F30F1EFA 		endbr64
 1944 0030 4989C4   		movq	%rax, %r12
 1945              	.L119:
 1946 0033 4889EF   		movq	%rbp, %rdi
 1947 0036 E8000000 		call	_ZdlPv@PLT
 1947      00
 1948 003b 4C89E7   		movq	%r12, %rdi
 1949              	.LEHB47:
 1950 003e E8000000 		call	_Unwind_Resume@PLT
 1950      00
 1951              	.LEHE47:
 1952              		.cfi_endproc
 1953              	.LFE1576:
 1954              		.section	.gcc_except_table._ZN28TestCore_testHugeAppendConstD0Ev,"aG",@progbits,_ZN28TestCore_test
 1955              	.LLSDA1576:
 1956 0000 FF       		.byte	0xff
 1957 0001 FF       		.byte	0xff
 1958 0002 01       		.byte	0x1
 1959 0003 08       		.uleb128 .LLSDACSE1576-.LLSDACSB1576
 1960              	.LLSDACSB1576:
 1961 0004 18       		.uleb128 .LEHB46-.LFB1576
 1962 0005 05       		.uleb128 .LEHE46-.LEHB46
 1963 0006 2C       		.uleb128 .L120-.LFB1576
 1964 0007 00       		.uleb128 0
 1965 0008 3E       		.uleb128 .LEHB47-.LFB1576
 1966 0009 05       		.uleb128 .LEHE47-.LEHB47
 1967 000a 00       		.uleb128 0
 1968 000b 00       		.uleb128 0
 1969              	.LLSDACSE1576:
 1970              		.section	.text._ZN28TestCore_testHugeAppendConstD0Ev,"axG",@progbits,_ZN28TestCore_testHugeAppendC
 1972              		.section	.text._ZN33TestCore_testVeryLargeAppendConstD2Ev,"axG",@progbits,_ZN33TestCore_testVeryLa
 1973              		.align 2
 1974              		.p2align 4
 1975              		.weak	_ZN33TestCore_testVeryLargeAppendConstD2Ev
 1977              	_ZN33TestCore_testVeryLargeAppendConstD2Ev:
 1978              	.LFB1578:
 1979              		.cfi_startproc
 1980 0000 F30F1EFA 		endbr64
 1981 0004 488D0500 		leaq	16+_ZTV33TestCore_testVeryLargeAppendConst(%rip), %rax
 1981      000000
 1982 000b 488907   		movq	%rax, (%rdi)
 1983 000e E9000000 		jmp	_ZN8UnitTest4TestD2Ev@PLT
 1983      00
 1984              		.cfi_endproc
 1985              	.LFE1578:
 1987              		.weak	_ZN33TestCore_testVeryLargeAppendConstD1Ev
 1988              		.set	_ZN33TestCore_testVeryLargeAppendConstD1Ev,_ZN33TestCore_testVeryLargeAppendConstD2Ev
 1989              		.section	.text._ZN33TestCore_testVeryLargeAppendConstD0Ev,"axG",@progbits,_ZN33TestCore_testVeryLa
 1990              		.align 2
 1991              		.p2align 4
 1992              		.weak	_ZN33TestCore_testVeryLargeAppendConstD0Ev
 1994              	_ZN33TestCore_testVeryLargeAppendConstD0Ev:
 1995              	.LFB1580:
 1996              		.cfi_startproc
 1997              		.cfi_personality 0x9b,DW.ref.__gxx_personality_v0
 1998              		.cfi_lsda 0x1b,.LLSDA1580
 1999 0000 F30F1EFA 		endbr64
 2000 0004 4154     		pushq	%r12
 2001              		.cfi_def_cfa_offset 16
 2002              		.cfi_offset 12, -16
 2003 0006 488D0500 		leaq	16+_ZTV33TestCore_testVeryLargeAppendConst(%rip), %rax
 2003      000000
 2004 000d 55       		pushq	%rbp
 2005              		.cfi_def_cfa_offset 24
 2006              		.cfi_offset 6, -24
 2007 000e 4889FD   		movq	%rdi, %rbp
 2008 0011 4883EC08 		subq	$8, %rsp
 2009              		.cfi_def_cfa_offset 32
 2010 0015 488907   		movq	%rax, (%rdi)
 2011              	.LEHB48:
 2012 0018 E8000000 		call	_ZN8UnitTest4TestD2Ev@PLT
 2012      00
 2013              	.LEHE48:
 2014 001d 4883C408 		addq	$8, %rsp
 2015              		.cfi_remember_state
 2016              		.cfi_def_cfa_offset 24
 2017 0021 4889EF   		movq	%rbp, %rdi
 2018 0024 5D       		popq	%rbp
 2019              		.cfi_def_cfa_offset 16
 2020 0025 415C     		popq	%r12
 2021              		.cfi_def_cfa_offset 8
 2022 0027 E9000000 		jmp	_ZdlPv@PLT
 2022      00
 2023              	.L125:
 2024              		.cfi_restore_state
 2025 002c F30F1EFA 		endbr64
 2026 0030 4989C4   		movq	%rax, %r12
 2027              	.L124:
 2028 0033 4889EF   		movq	%rbp, %rdi
 2029 0036 E8000000 		call	_ZdlPv@PLT
 2029      00
 2030 003b 4C89E7   		movq	%r12, %rdi
 2031              	.LEHB49:
 2032 003e E8000000 		call	_Unwind_Resume@PLT
 2032      00
 2033              	.LEHE49:
 2034              		.cfi_endproc
 2035              	.LFE1580:
 2036              		.section	.gcc_except_table._ZN33TestCore_testVeryLargeAppendConstD0Ev,"aG",@progbits,_ZN33TestCore
 2037              	.LLSDA1580:
 2038 0000 FF       		.byte	0xff
 2039 0001 FF       		.byte	0xff
 2040 0002 01       		.byte	0x1
 2041 0003 08       		.uleb128 .LLSDACSE1580-.LLSDACSB1580
 2042              	.LLSDACSB1580:
 2043 0004 18       		.uleb128 .LEHB48-.LFB1580
 2044 0005 05       		.uleb128 .LEHE48-.LEHB48
 2045 0006 2C       		.uleb128 .L125-.LFB1580
 2046 0007 00       		.uleb128 0
 2047 0008 3E       		.uleb128 .LEHB49-.LFB1580
 2048 0009 05       		.uleb128 .LEHE49-.LEHB49
 2049 000a 00       		.uleb128 0
 2050 000b 00       		.uleb128 0
 2051              	.LLSDACSE1580:
 2052              		.section	.text._ZN33TestCore_testVeryLargeAppendConstD0Ev,"axG",@progbits,_ZN33TestCore_testVeryLa
 2054              		.section	.text._ZN29TestCore_testLargeAppendConstD2Ev,"axG",@progbits,_ZN29TestCore_testLargeAppen
 2055              		.align 2
 2056              		.p2align 4
 2057              		.weak	_ZN29TestCore_testLargeAppendConstD2Ev
 2059              	_ZN29TestCore_testLargeAppendConstD2Ev:
 2060              	.LFB1582:
 2061              		.cfi_startproc
 2062 0000 F30F1EFA 		endbr64
 2063 0004 488D0500 		leaq	16+_ZTV29TestCore_testLargeAppendConst(%rip), %rax
 2063      000000
 2064 000b 488907   		movq	%rax, (%rdi)
 2065 000e E9000000 		jmp	_ZN8UnitTest4TestD2Ev@PLT
 2065      00
 2066              		.cfi_endproc
 2067              	.LFE1582:
 2069              		.weak	_ZN29TestCore_testLargeAppendConstD1Ev
 2070              		.set	_ZN29TestCore_testLargeAppendConstD1Ev,_ZN29TestCore_testLargeAppendConstD2Ev
 2071              		.section	.text._ZN29TestCore_testLargeAppendConstD0Ev,"axG",@progbits,_ZN29TestCore_testLargeAppen
 2072              		.align 2
 2073              		.p2align 4
 2074              		.weak	_ZN29TestCore_testLargeAppendConstD0Ev
 2076              	_ZN29TestCore_testLargeAppendConstD0Ev:
 2077              	.LFB1584:
 2078              		.cfi_startproc
 2079              		.cfi_personality 0x9b,DW.ref.__gxx_personality_v0
 2080              		.cfi_lsda 0x1b,.LLSDA1584
 2081 0000 F30F1EFA 		endbr64
 2082 0004 4154     		pushq	%r12
 2083              		.cfi_def_cfa_offset 16
 2084              		.cfi_offset 12, -16
 2085 0006 488D0500 		leaq	16+_ZTV29TestCore_testLargeAppendConst(%rip), %rax
 2085      000000
 2086 000d 55       		pushq	%rbp
 2087              		.cfi_def_cfa_offset 24
 2088              		.cfi_offset 6, -24
 2089 000e 4889FD   		movq	%rdi, %rbp
 2090 0011 4883EC08 		subq	$8, %rsp
 2091              		.cfi_def_cfa_offset 32
 2092 0015 488907   		movq	%rax, (%rdi)
 2093              	.LEHB50:
 2094 0018 E8000000 		call	_ZN8UnitTest4TestD2Ev@PLT
 2094      00
 2095              	.LEHE50:
 2096 001d 4883C408 		addq	$8, %rsp
 2097              		.cfi_remember_state
 2098              		.cfi_def_cfa_offset 24
 2099 0021 4889EF   		movq	%rbp, %rdi
 2100 0024 5D       		popq	%rbp
 2101              		.cfi_def_cfa_offset 16
 2102 0025 415C     		popq	%r12
 2103              		.cfi_def_cfa_offset 8
 2104 0027 E9000000 		jmp	_ZdlPv@PLT
 2104      00
 2105              	.L130:
 2106              		.cfi_restore_state
 2107 002c F30F1EFA 		endbr64
 2108 0030 4989C4   		movq	%rax, %r12
 2109              	.L129:
 2110 0033 4889EF   		movq	%rbp, %rdi
 2111 0036 E8000000 		call	_ZdlPv@PLT
 2111      00
 2112 003b 4C89E7   		movq	%r12, %rdi
 2113              	.LEHB51:
 2114 003e E8000000 		call	_Unwind_Resume@PLT
 2114      00
 2115              	.LEHE51:
 2116              		.cfi_endproc
 2117              	.LFE1584:
 2118              		.section	.gcc_except_table._ZN29TestCore_testLargeAppendConstD0Ev,"aG",@progbits,_ZN29TestCore_tes
 2119              	.LLSDA1584:
 2120 0000 FF       		.byte	0xff
 2121 0001 FF       		.byte	0xff
 2122 0002 01       		.byte	0x1
 2123 0003 08       		.uleb128 .LLSDACSE1584-.LLSDACSB1584
 2124              	.LLSDACSB1584:
 2125 0004 18       		.uleb128 .LEHB50-.LFB1584
 2126 0005 05       		.uleb128 .LEHE50-.LEHB50
 2127 0006 2C       		.uleb128 .L130-.LFB1584
 2128 0007 00       		.uleb128 0
 2129 0008 3E       		.uleb128 .LEHB51-.LFB1584
 2130 0009 05       		.uleb128 .LEHE51-.LEHB51
 2131 000a 00       		.uleb128 0
 2132 000b 00       		.uleb128 0
 2133              	.LLSDACSE1584:
 2134              		.section	.text._ZN29TestCore_testLargeAppendConstD0Ev,"axG",@progbits,_ZN29TestCore_testLargeAppen
 2136              		.section	.text._ZN32TestCore_testCapacityAppendConstD2Ev,"axG",@progbits,_ZN32TestCore_testCapacit
 2137              		.align 2
 2138              		.p2align 4
 2139              		.weak	_ZN32TestCore_testCapacityAppendConstD2Ev
 2141              	_ZN32TestCore_testCapacityAppendConstD2Ev:
 2142              	.LFB1586:
 2143              		.cfi_startproc
 2144 0000 F30F1EFA 		endbr64
 2145 0004 488D0500 		leaq	16+_ZTV32TestCore_testCapacityAppendConst(%rip), %rax
 2145      000000
 2146 000b 488907   		movq	%rax, (%rdi)
 2147 000e E9000000 		jmp	_ZN8UnitTest4TestD2Ev@PLT
 2147      00
 2148              		.cfi_endproc
 2149              	.LFE1586:
 2151              		.weak	_ZN32TestCore_testCapacityAppendConstD1Ev
 2152              		.set	_ZN32TestCore_testCapacityAppendConstD1Ev,_ZN32TestCore_testCapacityAppendConstD2Ev
 2153              		.section	.text._ZN32TestCore_testCapacityAppendConstD0Ev,"axG",@progbits,_ZN32TestCore_testCapacit
 2154              		.align 2
 2155              		.p2align 4
 2156              		.weak	_ZN32TestCore_testCapacityAppendConstD0Ev
 2158              	_ZN32TestCore_testCapacityAppendConstD0Ev:
 2159              	.LFB1588:
 2160              		.cfi_startproc
 2161              		.cfi_personality 0x9b,DW.ref.__gxx_personality_v0
 2162              		.cfi_lsda 0x1b,.LLSDA1588
 2163 0000 F30F1EFA 		endbr64
 2164 0004 4154     		pushq	%r12
 2165              		.cfi_def_cfa_offset 16
 2166              		.cfi_offset 12, -16
 2167 0006 488D0500 		leaq	16+_ZTV32TestCore_testCapacityAppendConst(%rip), %rax
 2167      000000
 2168 000d 55       		pushq	%rbp
 2169              		.cfi_def_cfa_offset 24
 2170              		.cfi_offset 6, -24
 2171 000e 4889FD   		movq	%rdi, %rbp
 2172 0011 4883EC08 		subq	$8, %rsp
 2173              		.cfi_def_cfa_offset 32
 2174 0015 488907   		movq	%rax, (%rdi)
 2175              	.LEHB52:
 2176 0018 E8000000 		call	_ZN8UnitTest4TestD2Ev@PLT
 2176      00
 2177              	.LEHE52:
 2178 001d 4883C408 		addq	$8, %rsp
 2179              		.cfi_remember_state
 2180              		.cfi_def_cfa_offset 24
 2181 0021 4889EF   		movq	%rbp, %rdi
 2182 0024 5D       		popq	%rbp
 2183              		.cfi_def_cfa_offset 16
 2184 0025 415C     		popq	%r12
 2185              		.cfi_def_cfa_offset 8
 2186 0027 E9000000 		jmp	_ZdlPv@PLT
 2186      00
 2187              	.L135:
 2188              		.cfi_restore_state
 2189 002c F30F1EFA 		endbr64
 2190 0030 4989C4   		movq	%rax, %r12
 2191              	.L134:
 2192 0033 4889EF   		movq	%rbp, %rdi
 2193 0036 E8000000 		call	_ZdlPv@PLT
 2193      00
 2194 003b 4C89E7   		movq	%r12, %rdi
 2195              	.LEHB53:
 2196 003e E8000000 		call	_Unwind_Resume@PLT
 2196      00
 2197              	.LEHE53:
 2198              		.cfi_endproc
 2199              	.LFE1588:
 2200              		.section	.gcc_except_table._ZN32TestCore_testCapacityAppendConstD0Ev,"aG",@progbits,_ZN32TestCore_
 2201              	.LLSDA1588:
 2202 0000 FF       		.byte	0xff
 2203 0001 FF       		.byte	0xff
 2204 0002 01       		.byte	0x1
 2205 0003 08       		.uleb128 .LLSDACSE1588-.LLSDACSB1588
 2206              	.LLSDACSB1588:
 2207 0004 18       		.uleb128 .LEHB52-.LFB1588
 2208 0005 05       		.uleb128 .LEHE52-.LEHB52
 2209 0006 2C       		.uleb128 .L135-.LFB1588
 2210 0007 00       		.uleb128 0
 2211 0008 3E       		.uleb128 .LEHB53-.LFB1588
 2212 0009 05       		.uleb128 .LEHE53-.LEHB53
 2213 000a 00       		.uleb128 0
 2214 000b 00       		.uleb128 0
 2215              	.LLSDACSE1588:
 2216              		.section	.text._ZN32TestCore_testCapacityAppendConstD0Ev,"axG",@progbits,_ZN32TestCore_testCapacit
 2218              		.section	.text._ZN29TestCore_testSmallAppendConstD2Ev,"axG",@progbits,_ZN29TestCore_testSmallAppen
 2219              		.align 2
 2220              		.p2align 4
 2221              		.weak	_ZN29TestCore_testSmallAppendConstD2Ev
 2223              	_ZN29TestCore_testSmallAppendConstD2Ev:
 2224              	.LFB1590:
 2225              		.cfi_startproc
 2226 0000 F30F1EFA 		endbr64
 2227 0004 488D0500 		leaq	16+_ZTV29TestCore_testSmallAppendConst(%rip), %rax
 2227      000000
 2228 000b 488907   		movq	%rax, (%rdi)
 2229 000e E9000000 		jmp	_ZN8UnitTest4TestD2Ev@PLT
 2229      00
 2230              		.cfi_endproc
 2231              	.LFE1590:
 2233              		.weak	_ZN29TestCore_testSmallAppendConstD1Ev
 2234              		.set	_ZN29TestCore_testSmallAppendConstD1Ev,_ZN29TestCore_testSmallAppendConstD2Ev
 2235              		.section	.text._ZN29TestCore_testSmallAppendConstD0Ev,"axG",@progbits,_ZN29TestCore_testSmallAppen
 2236              		.align 2
 2237              		.p2align 4
 2238              		.weak	_ZN29TestCore_testSmallAppendConstD0Ev
 2240              	_ZN29TestCore_testSmallAppendConstD0Ev:
 2241              	.LFB1592:
 2242              		.cfi_startproc
 2243              		.cfi_personality 0x9b,DW.ref.__gxx_personality_v0
 2244              		.cfi_lsda 0x1b,.LLSDA1592
 2245 0000 F30F1EFA 		endbr64
 2246 0004 4154     		pushq	%r12
 2247              		.cfi_def_cfa_offset 16
 2248              		.cfi_offset 12, -16
 2249 0006 488D0500 		leaq	16+_ZTV29TestCore_testSmallAppendConst(%rip), %rax
 2249      000000
 2250 000d 55       		pushq	%rbp
 2251              		.cfi_def_cfa_offset 24
 2252              		.cfi_offset 6, -24
 2253 000e 4889FD   		movq	%rdi, %rbp
 2254 0011 4883EC08 		subq	$8, %rsp
 2255              		.cfi_def_cfa_offset 32
 2256 0015 488907   		movq	%rax, (%rdi)
 2257              	.LEHB54:
 2258 0018 E8000000 		call	_ZN8UnitTest4TestD2Ev@PLT
 2258      00
 2259              	.LEHE54:
 2260 001d 4883C408 		addq	$8, %rsp
 2261              		.cfi_remember_state
 2262              		.cfi_def_cfa_offset 24
 2263 0021 4889EF   		movq	%rbp, %rdi
 2264 0024 5D       		popq	%rbp
 2265              		.cfi_def_cfa_offset 16
 2266 0025 415C     		popq	%r12
 2267              		.cfi_def_cfa_offset 8
 2268 0027 E9000000 		jmp	_ZdlPv@PLT
 2268      00
 2269              	.L140:
 2270              		.cfi_restore_state
 2271 002c F30F1EFA 		endbr64
 2272 0030 4989C4   		movq	%rax, %r12
 2273              	.L139:
 2274 0033 4889EF   		movq	%rbp, %rdi
 2275 0036 E8000000 		call	_ZdlPv@PLT
 2275      00
 2276 003b 4C89E7   		movq	%r12, %rdi
 2277              	.LEHB55:
 2278 003e E8000000 		call	_Unwind_Resume@PLT
 2278      00
 2279              	.LEHE55:
 2280              		.cfi_endproc
 2281              	.LFE1592:
 2282              		.section	.gcc_except_table._ZN29TestCore_testSmallAppendConstD0Ev,"aG",@progbits,_ZN29TestCore_tes
 2283              	.LLSDA1592:
 2284 0000 FF       		.byte	0xff
 2285 0001 FF       		.byte	0xff
 2286 0002 01       		.byte	0x1
 2287 0003 08       		.uleb128 .LLSDACSE1592-.LLSDACSB1592
 2288              	.LLSDACSB1592:
 2289 0004 18       		.uleb128 .LEHB54-.LFB1592
 2290 0005 05       		.uleb128 .LEHE54-.LEHB54
 2291 0006 2C       		.uleb128 .L140-.LFB1592
 2292 0007 00       		.uleb128 0
 2293 0008 3E       		.uleb128 .LEHB55-.LFB1592
 2294 0009 05       		.uleb128 .LEHE55-.LEHB55
 2295 000a 00       		.uleb128 0
 2296 000b 00       		.uleb128 0
 2297              	.LLSDACSE1592:
 2298              		.section	.text._ZN29TestCore_testSmallAppendConstD0Ev,"axG",@progbits,_ZN29TestCore_testSmallAppen
 2300              		.section	.text._ZN33TestCore_testVeryLargeAppendZerosD2Ev,"axG",@progbits,_ZN33TestCore_testVeryLa
 2301              		.align 2
 2302              		.p2align 4
 2303              		.weak	_ZN33TestCore_testVeryLargeAppendZerosD2Ev
 2305              	_ZN33TestCore_testVeryLargeAppendZerosD2Ev:
 2306              	.LFB1594:
 2307              		.cfi_startproc
 2308 0000 F30F1EFA 		endbr64
 2309 0004 488D0500 		leaq	16+_ZTV33TestCore_testVeryLargeAppendZeros(%rip), %rax
 2309      000000
 2310 000b 488907   		movq	%rax, (%rdi)
 2311 000e E9000000 		jmp	_ZN8UnitTest4TestD2Ev@PLT
 2311      00
 2312              		.cfi_endproc
 2313              	.LFE1594:
 2315              		.weak	_ZN33TestCore_testVeryLargeAppendZerosD1Ev
 2316              		.set	_ZN33TestCore_testVeryLargeAppendZerosD1Ev,_ZN33TestCore_testVeryLargeAppendZerosD2Ev
 2317              		.section	.text._ZN33TestCore_testVeryLargeAppendZerosD0Ev,"axG",@progbits,_ZN33TestCore_testVeryLa
 2318              		.align 2
 2319              		.p2align 4
 2320              		.weak	_ZN33TestCore_testVeryLargeAppendZerosD0Ev
 2322              	_ZN33TestCore_testVeryLargeAppendZerosD0Ev:
 2323              	.LFB1596:
 2324              		.cfi_startproc
 2325              		.cfi_personality 0x9b,DW.ref.__gxx_personality_v0
 2326              		.cfi_lsda 0x1b,.LLSDA1596
 2327 0000 F30F1EFA 		endbr64
 2328 0004 4154     		pushq	%r12
 2329              		.cfi_def_cfa_offset 16
 2330              		.cfi_offset 12, -16
 2331 0006 488D0500 		leaq	16+_ZTV33TestCore_testVeryLargeAppendZeros(%rip), %rax
 2331      000000
 2332 000d 55       		pushq	%rbp
 2333              		.cfi_def_cfa_offset 24
 2334              		.cfi_offset 6, -24
 2335 000e 4889FD   		movq	%rdi, %rbp
 2336 0011 4883EC08 		subq	$8, %rsp
 2337              		.cfi_def_cfa_offset 32
 2338 0015 488907   		movq	%rax, (%rdi)
 2339              	.LEHB56:
 2340 0018 E8000000 		call	_ZN8UnitTest4TestD2Ev@PLT
 2340      00
 2341              	.LEHE56:
 2342 001d 4883C408 		addq	$8, %rsp
 2343              		.cfi_remember_state
 2344              		.cfi_def_cfa_offset 24
 2345 0021 4889EF   		movq	%rbp, %rdi
 2346 0024 5D       		popq	%rbp
 2347              		.cfi_def_cfa_offset 16
 2348 0025 415C     		popq	%r12
 2349              		.cfi_def_cfa_offset 8
 2350 0027 E9000000 		jmp	_ZdlPv@PLT
 2350      00
 2351              	.L145:
 2352              		.cfi_restore_state
 2353 002c F30F1EFA 		endbr64
 2354 0030 4989C4   		movq	%rax, %r12
 2355              	.L144:
 2356 0033 4889EF   		movq	%rbp, %rdi
 2357 0036 E8000000 		call	_ZdlPv@PLT
 2357      00
 2358 003b 4C89E7   		movq	%r12, %rdi
 2359              	.LEHB57:
 2360 003e E8000000 		call	_Unwind_Resume@PLT
 2360      00
 2361              	.LEHE57:
 2362              		.cfi_endproc
 2363              	.LFE1596:
 2364              		.section	.gcc_except_table._ZN33TestCore_testVeryLargeAppendZerosD0Ev,"aG",@progbits,_ZN33TestCore
 2365              	.LLSDA1596:
 2366 0000 FF       		.byte	0xff
 2367 0001 FF       		.byte	0xff
 2368 0002 01       		.byte	0x1
 2369 0003 08       		.uleb128 .LLSDACSE1596-.LLSDACSB1596
 2370              	.LLSDACSB1596:
 2371 0004 18       		.uleb128 .LEHB56-.LFB1596
 2372 0005 05       		.uleb128 .LEHE56-.LEHB56
 2373 0006 2C       		.uleb128 .L145-.LFB1596
 2374 0007 00       		.uleb128 0
 2375 0008 3E       		.uleb128 .LEHB57-.LFB1596
 2376 0009 05       		.uleb128 .LEHE57-.LEHB57
 2377 000a 00       		.uleb128 0
 2378 000b 00       		.uleb128 0
 2379              	.LLSDACSE1596:
 2380              		.section	.text._ZN33TestCore_testVeryLargeAppendZerosD0Ev,"axG",@progbits,_ZN33TestCore_testVeryLa
 2382              		.section	.text._ZN29TestCore_testLargeAppendZerosD2Ev,"axG",@progbits,_ZN29TestCore_testLargeAppen
 2383              		.align 2
 2384              		.p2align 4
 2385              		.weak	_ZN29TestCore_testLargeAppendZerosD2Ev
 2387              	_ZN29TestCore_testLargeAppendZerosD2Ev:
 2388              	.LFB1598:
 2389              		.cfi_startproc
 2390 0000 F30F1EFA 		endbr64
 2391 0004 488D0500 		leaq	16+_ZTV29TestCore_testLargeAppendZeros(%rip), %rax
 2391      000000
 2392 000b 488907   		movq	%rax, (%rdi)
 2393 000e E9000000 		jmp	_ZN8UnitTest4TestD2Ev@PLT
 2393      00
 2394              		.cfi_endproc
 2395              	.LFE1598:
 2397              		.weak	_ZN29TestCore_testLargeAppendZerosD1Ev
 2398              		.set	_ZN29TestCore_testLargeAppendZerosD1Ev,_ZN29TestCore_testLargeAppendZerosD2Ev
 2399              		.section	.text._ZN29TestCore_testLargeAppendZerosD0Ev,"axG",@progbits,_ZN29TestCore_testLargeAppen
 2400              		.align 2
 2401              		.p2align 4
 2402              		.weak	_ZN29TestCore_testLargeAppendZerosD0Ev
 2404              	_ZN29TestCore_testLargeAppendZerosD0Ev:
 2405              	.LFB1600:
 2406              		.cfi_startproc
 2407              		.cfi_personality 0x9b,DW.ref.__gxx_personality_v0
 2408              		.cfi_lsda 0x1b,.LLSDA1600
 2409 0000 F30F1EFA 		endbr64
 2410 0004 4154     		pushq	%r12
 2411              		.cfi_def_cfa_offset 16
 2412              		.cfi_offset 12, -16
 2413 0006 488D0500 		leaq	16+_ZTV29TestCore_testLargeAppendZeros(%rip), %rax
 2413      000000
 2414 000d 55       		pushq	%rbp
 2415              		.cfi_def_cfa_offset 24
 2416              		.cfi_offset 6, -24
 2417 000e 4889FD   		movq	%rdi, %rbp
 2418 0011 4883EC08 		subq	$8, %rsp
 2419              		.cfi_def_cfa_offset 32
 2420 0015 488907   		movq	%rax, (%rdi)
 2421              	.LEHB58:
 2422 0018 E8000000 		call	_ZN8UnitTest4TestD2Ev@PLT
 2422      00
 2423              	.LEHE58:
 2424 001d 4883C408 		addq	$8, %rsp
 2425              		.cfi_remember_state
 2426              		.cfi_def_cfa_offset 24
 2427 0021 4889EF   		movq	%rbp, %rdi
 2428 0024 5D       		popq	%rbp
 2429              		.cfi_def_cfa_offset 16
 2430 0025 415C     		popq	%r12
 2431              		.cfi_def_cfa_offset 8
 2432 0027 E9000000 		jmp	_ZdlPv@PLT
 2432      00
 2433              	.L150:
 2434              		.cfi_restore_state
 2435 002c F30F1EFA 		endbr64
 2436 0030 4989C4   		movq	%rax, %r12
 2437              	.L149:
 2438 0033 4889EF   		movq	%rbp, %rdi
 2439 0036 E8000000 		call	_ZdlPv@PLT
 2439      00
 2440 003b 4C89E7   		movq	%r12, %rdi
 2441              	.LEHB59:
 2442 003e E8000000 		call	_Unwind_Resume@PLT
 2442      00
 2443              	.LEHE59:
 2444              		.cfi_endproc
 2445              	.LFE1600:
 2446              		.section	.gcc_except_table._ZN29TestCore_testLargeAppendZerosD0Ev,"aG",@progbits,_ZN29TestCore_tes
 2447              	.LLSDA1600:
 2448 0000 FF       		.byte	0xff
 2449 0001 FF       		.byte	0xff
 2450 0002 01       		.byte	0x1
 2451 0003 08       		.uleb128 .LLSDACSE1600-.LLSDACSB1600
 2452              	.LLSDACSB1600:
 2453 0004 18       		.uleb128 .LEHB58-.LFB1600
 2454 0005 05       		.uleb128 .LEHE58-.LEHB58
 2455 0006 2C       		.uleb128 .L150-.LFB1600
 2456 0007 00       		.uleb128 0
 2457 0008 3E       		.uleb128 .LEHB59-.LFB1600
 2458 0009 05       		.uleb128 .LEHE59-.LEHB59
 2459 000a 00       		.uleb128 0
 2460 000b 00       		.uleb128 0
 2461              	.LLSDACSE1600:
 2462              		.section	.text._ZN29TestCore_testLargeAppendZerosD0Ev,"axG",@progbits,_ZN29TestCore_testLargeAppen
 2464              		.section	.text._ZN32TestCore_testCapacityAppendZerosD2Ev,"axG",@progbits,_ZN32TestCore_testCapacit
 2465              		.align 2
 2466              		.p2align 4
 2467              		.weak	_ZN32TestCore_testCapacityAppendZerosD2Ev
 2469              	_ZN32TestCore_testCapacityAppendZerosD2Ev:
 2470              	.LFB1602:
 2471              		.cfi_startproc
 2472 0000 F30F1EFA 		endbr64
 2473 0004 488D0500 		leaq	16+_ZTV32TestCore_testCapacityAppendZeros(%rip), %rax
 2473      000000
 2474 000b 488907   		movq	%rax, (%rdi)
 2475 000e E9000000 		jmp	_ZN8UnitTest4TestD2Ev@PLT
 2475      00
 2476              		.cfi_endproc
 2477              	.LFE1602:
 2479              		.weak	_ZN32TestCore_testCapacityAppendZerosD1Ev
 2480              		.set	_ZN32TestCore_testCapacityAppendZerosD1Ev,_ZN32TestCore_testCapacityAppendZerosD2Ev
 2481              		.section	.text._ZN32TestCore_testCapacityAppendZerosD0Ev,"axG",@progbits,_ZN32TestCore_testCapacit
 2482              		.align 2
 2483              		.p2align 4
 2484              		.weak	_ZN32TestCore_testCapacityAppendZerosD0Ev
 2486              	_ZN32TestCore_testCapacityAppendZerosD0Ev:
 2487              	.LFB1604:
 2488              		.cfi_startproc
 2489              		.cfi_personality 0x9b,DW.ref.__gxx_personality_v0
 2490              		.cfi_lsda 0x1b,.LLSDA1604
 2491 0000 F30F1EFA 		endbr64
 2492 0004 4154     		pushq	%r12
 2493              		.cfi_def_cfa_offset 16
 2494              		.cfi_offset 12, -16
 2495 0006 488D0500 		leaq	16+_ZTV32TestCore_testCapacityAppendZeros(%rip), %rax
 2495      000000
 2496 000d 55       		pushq	%rbp
 2497              		.cfi_def_cfa_offset 24
 2498              		.cfi_offset 6, -24
 2499 000e 4889FD   		movq	%rdi, %rbp
 2500 0011 4883EC08 		subq	$8, %rsp
 2501              		.cfi_def_cfa_offset 32
 2502 0015 488907   		movq	%rax, (%rdi)
 2503              	.LEHB60:
 2504 0018 E8000000 		call	_ZN8UnitTest4TestD2Ev@PLT
 2504      00
 2505              	.LEHE60:
 2506 001d 4883C408 		addq	$8, %rsp
 2507              		.cfi_remember_state
 2508              		.cfi_def_cfa_offset 24
 2509 0021 4889EF   		movq	%rbp, %rdi
 2510 0024 5D       		popq	%rbp
 2511              		.cfi_def_cfa_offset 16
 2512 0025 415C     		popq	%r12
 2513              		.cfi_def_cfa_offset 8
 2514 0027 E9000000 		jmp	_ZdlPv@PLT
 2514      00
 2515              	.L155:
 2516              		.cfi_restore_state
 2517 002c F30F1EFA 		endbr64
 2518 0030 4989C4   		movq	%rax, %r12
 2519              	.L154:
 2520 0033 4889EF   		movq	%rbp, %rdi
 2521 0036 E8000000 		call	_ZdlPv@PLT
 2521      00
 2522 003b 4C89E7   		movq	%r12, %rdi
 2523              	.LEHB61:
 2524 003e E8000000 		call	_Unwind_Resume@PLT
 2524      00
 2525              	.LEHE61:
 2526              		.cfi_endproc
 2527              	.LFE1604:
 2528              		.section	.gcc_except_table._ZN32TestCore_testCapacityAppendZerosD0Ev,"aG",@progbits,_ZN32TestCore_
 2529              	.LLSDA1604:
 2530 0000 FF       		.byte	0xff
 2531 0001 FF       		.byte	0xff
 2532 0002 01       		.byte	0x1
 2533 0003 08       		.uleb128 .LLSDACSE1604-.LLSDACSB1604
 2534              	.LLSDACSB1604:
 2535 0004 18       		.uleb128 .LEHB60-.LFB1604
 2536 0005 05       		.uleb128 .LEHE60-.LEHB60
 2537 0006 2C       		.uleb128 .L155-.LFB1604
 2538 0007 00       		.uleb128 0
 2539 0008 3E       		.uleb128 .LEHB61-.LFB1604
 2540 0009 05       		.uleb128 .LEHE61-.LEHB61
 2541 000a 00       		.uleb128 0
 2542 000b 00       		.uleb128 0
 2543              	.LLSDACSE1604:
 2544              		.section	.text._ZN32TestCore_testCapacityAppendZerosD0Ev,"axG",@progbits,_ZN32TestCore_testCapacit
 2546              		.section	.text._ZN29TestCore_testSmallAppendZerosD2Ev,"axG",@progbits,_ZN29TestCore_testSmallAppen
 2547              		.align 2
 2548              		.p2align 4
 2549              		.weak	_ZN29TestCore_testSmallAppendZerosD2Ev
 2551              	_ZN29TestCore_testSmallAppendZerosD2Ev:
 2552              	.LFB1606:
 2553              		.cfi_startproc
 2554 0000 F30F1EFA 		endbr64
 2555 0004 488D0500 		leaq	16+_ZTV29TestCore_testSmallAppendZeros(%rip), %rax
 2555      000000
 2556 000b 488907   		movq	%rax, (%rdi)
 2557 000e E9000000 		jmp	_ZN8UnitTest4TestD2Ev@PLT
 2557      00
 2558              		.cfi_endproc
 2559              	.LFE1606:
 2561              		.weak	_ZN29TestCore_testSmallAppendZerosD1Ev
 2562              		.set	_ZN29TestCore_testSmallAppendZerosD1Ev,_ZN29TestCore_testSmallAppendZerosD2Ev
 2563              		.section	.text._ZN29TestCore_testSmallAppendZerosD0Ev,"axG",@progbits,_ZN29TestCore_testSmallAppen
 2564              		.align 2
 2565              		.p2align 4
 2566              		.weak	_ZN29TestCore_testSmallAppendZerosD0Ev
 2568              	_ZN29TestCore_testSmallAppendZerosD0Ev:
 2569              	.LFB1608:
 2570              		.cfi_startproc
 2571              		.cfi_personality 0x9b,DW.ref.__gxx_personality_v0
 2572              		.cfi_lsda 0x1b,.LLSDA1608
 2573 0000 F30F1EFA 		endbr64
 2574 0004 4154     		pushq	%r12
 2575              		.cfi_def_cfa_offset 16
 2576              		.cfi_offset 12, -16
 2577 0006 488D0500 		leaq	16+_ZTV29TestCore_testSmallAppendZeros(%rip), %rax
 2577      000000
 2578 000d 55       		pushq	%rbp
 2579              		.cfi_def_cfa_offset 24
 2580              		.cfi_offset 6, -24
 2581 000e 4889FD   		movq	%rdi, %rbp
 2582 0011 4883EC08 		subq	$8, %rsp
 2583              		.cfi_def_cfa_offset 32
 2584 0015 488907   		movq	%rax, (%rdi)
 2585              	.LEHB62:
 2586 0018 E8000000 		call	_ZN8UnitTest4TestD2Ev@PLT
 2586      00
 2587              	.LEHE62:
 2588 001d 4883C408 		addq	$8, %rsp
 2589              		.cfi_remember_state
 2590              		.cfi_def_cfa_offset 24
 2591 0021 4889EF   		movq	%rbp, %rdi
 2592 0024 5D       		popq	%rbp
 2593              		.cfi_def_cfa_offset 16
 2594 0025 415C     		popq	%r12
 2595              		.cfi_def_cfa_offset 8
 2596 0027 E9000000 		jmp	_ZdlPv@PLT
 2596      00
 2597              	.L160:
 2598              		.cfi_restore_state
 2599 002c F30F1EFA 		endbr64
 2600 0030 4989C4   		movq	%rax, %r12
 2601              	.L159:
 2602 0033 4889EF   		movq	%rbp, %rdi
 2603 0036 E8000000 		call	_ZdlPv@PLT
 2603      00
 2604 003b 4C89E7   		movq	%r12, %rdi
 2605              	.LEHB63:
 2606 003e E8000000 		call	_Unwind_Resume@PLT
 2606      00
 2607              	.LEHE63:
 2608              		.cfi_endproc
 2609              	.LFE1608:
 2610              		.section	.gcc_except_table._ZN29TestCore_testSmallAppendZerosD0Ev,"aG",@progbits,_ZN29TestCore_tes
 2611              	.LLSDA1608:
 2612 0000 FF       		.byte	0xff
 2613 0001 FF       		.byte	0xff
 2614 0002 01       		.byte	0x1
 2615 0003 08       		.uleb128 .LLSDACSE1608-.LLSDACSB1608
 2616              	.LLSDACSB1608:
 2617 0004 18       		.uleb128 .LEHB62-.LFB1608
 2618 0005 05       		.uleb128 .LEHE62-.LEHB62
 2619 0006 2C       		.uleb128 .L160-.LFB1608
 2620 0007 00       		.uleb128 0
 2621 0008 3E       		.uleb128 .LEHB63-.LFB1608
 2622 0009 05       		.uleb128 .LEHE63-.LEHB63
 2623 000a 00       		.uleb128 0
 2624 000b 00       		.uleb128 0
 2625              	.LLSDACSE1608:
 2626              		.section	.text._ZN29TestCore_testSmallAppendZerosD0Ev,"axG",@progbits,_ZN29TestCore_testSmallAppen
 2628              		.section	.text._ZN25TestCore_testAppendLongBED2Ev,"axG",@progbits,_ZN25TestCore_testAppendLongBED5
 2629              		.align 2
 2630              		.p2align 4
 2631              		.weak	_ZN25TestCore_testAppendLongBED2Ev
 2633              	_ZN25TestCore_testAppendLongBED2Ev:
 2634              	.LFB1610:
 2635              		.cfi_startproc
 2636 0000 F30F1EFA 		endbr64
 2637 0004 488D0500 		leaq	16+_ZTV25TestCore_testAppendLongBE(%rip), %rax
 2637      000000
 2638 000b 488907   		movq	%rax, (%rdi)
 2639 000e E9000000 		jmp	_ZN8UnitTest4TestD2Ev@PLT
 2639      00
 2640              		.cfi_endproc
 2641              	.LFE1610:
 2643              		.weak	_ZN25TestCore_testAppendLongBED1Ev
 2644              		.set	_ZN25TestCore_testAppendLongBED1Ev,_ZN25TestCore_testAppendLongBED2Ev
 2645              		.section	.text._ZN25TestCore_testAppendLongBED0Ev,"axG",@progbits,_ZN25TestCore_testAppendLongBED5
 2646              		.align 2
 2647              		.p2align 4
 2648              		.weak	_ZN25TestCore_testAppendLongBED0Ev
 2650              	_ZN25TestCore_testAppendLongBED0Ev:
 2651              	.LFB1612:
 2652              		.cfi_startproc
 2653              		.cfi_personality 0x9b,DW.ref.__gxx_personality_v0
 2654              		.cfi_lsda 0x1b,.LLSDA1612
 2655 0000 F30F1EFA 		endbr64
 2656 0004 4154     		pushq	%r12
 2657              		.cfi_def_cfa_offset 16
 2658              		.cfi_offset 12, -16
 2659 0006 488D0500 		leaq	16+_ZTV25TestCore_testAppendLongBE(%rip), %rax
 2659      000000
 2660 000d 55       		pushq	%rbp
 2661              		.cfi_def_cfa_offset 24
 2662              		.cfi_offset 6, -24
 2663 000e 4889FD   		movq	%rdi, %rbp
 2664 0011 4883EC08 		subq	$8, %rsp
 2665              		.cfi_def_cfa_offset 32
 2666 0015 488907   		movq	%rax, (%rdi)
 2667              	.LEHB64:
 2668 0018 E8000000 		call	_ZN8UnitTest4TestD2Ev@PLT
 2668      00
 2669              	.LEHE64:
 2670 001d 4883C408 		addq	$8, %rsp
 2671              		.cfi_remember_state
 2672              		.cfi_def_cfa_offset 24
 2673 0021 4889EF   		movq	%rbp, %rdi
 2674 0024 5D       		popq	%rbp
 2675              		.cfi_def_cfa_offset 16
 2676 0025 415C     		popq	%r12
 2677              		.cfi_def_cfa_offset 8
 2678 0027 E9000000 		jmp	_ZdlPv@PLT
 2678      00
 2679              	.L165:
 2680              		.cfi_restore_state
 2681 002c F30F1EFA 		endbr64
 2682 0030 4989C4   		movq	%rax, %r12
 2683              	.L164:
 2684 0033 4889EF   		movq	%rbp, %rdi
 2685 0036 E8000000 		call	_ZdlPv@PLT
 2685      00
 2686 003b 4C89E7   		movq	%r12, %rdi
 2687              	.LEHB65:
 2688 003e E8000000 		call	_Unwind_Resume@PLT
 2688      00
 2689              	.LEHE65:
 2690              		.cfi_endproc
 2691              	.LFE1612:
 2692              		.section	.gcc_except_table._ZN25TestCore_testAppendLongBED0Ev,"aG",@progbits,_ZN25TestCore_testApp
 2693              	.LLSDA1612:
 2694 0000 FF       		.byte	0xff
 2695 0001 FF       		.byte	0xff
 2696 0002 01       		.byte	0x1
 2697 0003 08       		.uleb128 .LLSDACSE1612-.LLSDACSB1612
 2698              	.LLSDACSB1612:
 2699 0004 18       		.uleb128 .LEHB64-.LFB1612
 2700 0005 05       		.uleb128 .LEHE64-.LEHB64
 2701 0006 2C       		.uleb128 .L165-.LFB1612
 2702 0007 00       		.uleb128 0
 2703 0008 3E       		.uleb128 .LEHB65-.LFB1612
 2704 0009 05       		.uleb128 .LEHE65-.LEHB65
 2705 000a 00       		.uleb128 0
 2706 000b 00       		.uleb128 0
 2707              	.LLSDACSE1612:
 2708              		.section	.text._ZN25TestCore_testAppendLongBED0Ev,"axG",@progbits,_ZN25TestCore_testAppendLongBED5
 2710              		.section	.text._ZN25TestCore_testAppendLongLED2Ev,"axG",@progbits,_ZN25TestCore_testAppendLongLED5
 2711              		.align 2
 2712              		.p2align 4
 2713              		.weak	_ZN25TestCore_testAppendLongLED2Ev
 2715              	_ZN25TestCore_testAppendLongLED2Ev:
 2716              	.LFB1614:
 2717              		.cfi_startproc
 2718 0000 F30F1EFA 		endbr64
 2719 0004 488D0500 		leaq	16+_ZTV25TestCore_testAppendLongLE(%rip), %rax
 2719      000000
 2720 000b 488907   		movq	%rax, (%rdi)
 2721 000e E9000000 		jmp	_ZN8UnitTest4TestD2Ev@PLT
 2721      00
 2722              		.cfi_endproc
 2723              	.LFE1614:
 2725              		.weak	_ZN25TestCore_testAppendLongLED1Ev
 2726              		.set	_ZN25TestCore_testAppendLongLED1Ev,_ZN25TestCore_testAppendLongLED2Ev
 2727              		.section	.text._ZN25TestCore_testAppendLongLED0Ev,"axG",@progbits,_ZN25TestCore_testAppendLongLED5
 2728              		.align 2
 2729              		.p2align 4
 2730              		.weak	_ZN25TestCore_testAppendLongLED0Ev
 2732              	_ZN25TestCore_testAppendLongLED0Ev:
 2733              	.LFB1616:
 2734              		.cfi_startproc
 2735              		.cfi_personality 0x9b,DW.ref.__gxx_personality_v0
 2736              		.cfi_lsda 0x1b,.LLSDA1616
 2737 0000 F30F1EFA 		endbr64
 2738 0004 4154     		pushq	%r12
 2739              		.cfi_def_cfa_offset 16
 2740              		.cfi_offset 12, -16
 2741 0006 488D0500 		leaq	16+_ZTV25TestCore_testAppendLongLE(%rip), %rax
 2741      000000
 2742 000d 55       		pushq	%rbp
 2743              		.cfi_def_cfa_offset 24
 2744              		.cfi_offset 6, -24
 2745 000e 4889FD   		movq	%rdi, %rbp
 2746 0011 4883EC08 		subq	$8, %rsp
 2747              		.cfi_def_cfa_offset 32
 2748 0015 488907   		movq	%rax, (%rdi)
 2749              	.LEHB66:
 2750 0018 E8000000 		call	_ZN8UnitTest4TestD2Ev@PLT
 2750      00
 2751              	.LEHE66:
 2752 001d 4883C408 		addq	$8, %rsp
 2753              		.cfi_remember_state
 2754              		.cfi_def_cfa_offset 24
 2755 0021 4889EF   		movq	%rbp, %rdi
 2756 0024 5D       		popq	%rbp
 2757              		.cfi_def_cfa_offset 16
 2758 0025 415C     		popq	%r12
 2759              		.cfi_def_cfa_offset 8
 2760 0027 E9000000 		jmp	_ZdlPv@PLT
 2760      00
 2761              	.L170:
 2762              		.cfi_restore_state
 2763 002c F30F1EFA 		endbr64
 2764 0030 4989C4   		movq	%rax, %r12
 2765              	.L169:
 2766 0033 4889EF   		movq	%rbp, %rdi
 2767 0036 E8000000 		call	_ZdlPv@PLT
 2767      00
 2768 003b 4C89E7   		movq	%r12, %rdi
 2769              	.LEHB67:
 2770 003e E8000000 		call	_Unwind_Resume@PLT
 2770      00
 2771              	.LEHE67:
 2772              		.cfi_endproc
 2773              	.LFE1616:
 2774              		.section	.gcc_except_table._ZN25TestCore_testAppendLongLED0Ev,"aG",@progbits,_ZN25TestCore_testApp
 2775              	.LLSDA1616:
 2776 0000 FF       		.byte	0xff
 2777 0001 FF       		.byte	0xff
 2778 0002 01       		.byte	0x1
 2779 0003 08       		.uleb128 .LLSDACSE1616-.LLSDACSB1616
 2780              	.LLSDACSB1616:
 2781 0004 18       		.uleb128 .LEHB66-.LFB1616
 2782 0005 05       		.uleb128 .LEHE66-.LEHB66
 2783 0006 2C       		.uleb128 .L170-.LFB1616
 2784 0007 00       		.uleb128 0
 2785 0008 3E       		.uleb128 .LEHB67-.LFB1616
 2786 0009 05       		.uleb128 .LEHE67-.LEHB67
 2787 000a 00       		.uleb128 0
 2788 000b 00       		.uleb128 0
 2789              	.LLSDACSE1616:
 2790              		.section	.text._ZN25TestCore_testAppendLongLED0Ev,"axG",@progbits,_ZN25TestCore_testAppendLongLED5
 2792              		.section	.text._ZN25TestCore_testAppendWordBED2Ev,"axG",@progbits,_ZN25TestCore_testAppendWordBED5
 2793              		.align 2
 2794              		.p2align 4
 2795              		.weak	_ZN25TestCore_testAppendWordBED2Ev
 2797              	_ZN25TestCore_testAppendWordBED2Ev:
 2798              	.LFB1618:
 2799              		.cfi_startproc
 2800 0000 F30F1EFA 		endbr64
 2801 0004 488D0500 		leaq	16+_ZTV25TestCore_testAppendWordBE(%rip), %rax
 2801      000000
 2802 000b 488907   		movq	%rax, (%rdi)
 2803 000e E9000000 		jmp	_ZN8UnitTest4TestD2Ev@PLT
 2803      00
 2804              		.cfi_endproc
 2805              	.LFE1618:
 2807              		.weak	_ZN25TestCore_testAppendWordBED1Ev
 2808              		.set	_ZN25TestCore_testAppendWordBED1Ev,_ZN25TestCore_testAppendWordBED2Ev
 2809              		.section	.text._ZN25TestCore_testAppendWordBED0Ev,"axG",@progbits,_ZN25TestCore_testAppendWordBED5
 2810              		.align 2
 2811              		.p2align 4
 2812              		.weak	_ZN25TestCore_testAppendWordBED0Ev
 2814              	_ZN25TestCore_testAppendWordBED0Ev:
 2815              	.LFB1620:
 2816              		.cfi_startproc
 2817              		.cfi_personality 0x9b,DW.ref.__gxx_personality_v0
 2818              		.cfi_lsda 0x1b,.LLSDA1620
 2819 0000 F30F1EFA 		endbr64
 2820 0004 4154     		pushq	%r12
 2821              		.cfi_def_cfa_offset 16
 2822              		.cfi_offset 12, -16
 2823 0006 488D0500 		leaq	16+_ZTV25TestCore_testAppendWordBE(%rip), %rax
 2823      000000
 2824 000d 55       		pushq	%rbp
 2825              		.cfi_def_cfa_offset 24
 2826              		.cfi_offset 6, -24
 2827 000e 4889FD   		movq	%rdi, %rbp
 2828 0011 4883EC08 		subq	$8, %rsp
 2829              		.cfi_def_cfa_offset 32
 2830 0015 488907   		movq	%rax, (%rdi)
 2831              	.LEHB68:
 2832 0018 E8000000 		call	_ZN8UnitTest4TestD2Ev@PLT
 2832      00
 2833              	.LEHE68:
 2834 001d 4883C408 		addq	$8, %rsp
 2835              		.cfi_remember_state
 2836              		.cfi_def_cfa_offset 24
 2837 0021 4889EF   		movq	%rbp, %rdi
 2838 0024 5D       		popq	%rbp
 2839              		.cfi_def_cfa_offset 16
 2840 0025 415C     		popq	%r12
 2841              		.cfi_def_cfa_offset 8
 2842 0027 E9000000 		jmp	_ZdlPv@PLT
 2842      00
 2843              	.L175:
 2844              		.cfi_restore_state
 2845 002c F30F1EFA 		endbr64
 2846 0030 4989C4   		movq	%rax, %r12
 2847              	.L174:
 2848 0033 4889EF   		movq	%rbp, %rdi
 2849 0036 E8000000 		call	_ZdlPv@PLT
 2849      00
 2850 003b 4C89E7   		movq	%r12, %rdi
 2851              	.LEHB69:
 2852 003e E8000000 		call	_Unwind_Resume@PLT
 2852      00
 2853              	.LEHE69:
 2854              		.cfi_endproc
 2855              	.LFE1620:
 2856              		.section	.gcc_except_table._ZN25TestCore_testAppendWordBED0Ev,"aG",@progbits,_ZN25TestCore_testApp
 2857              	.LLSDA1620:
 2858 0000 FF       		.byte	0xff
 2859 0001 FF       		.byte	0xff
 2860 0002 01       		.byte	0x1
 2861 0003 08       		.uleb128 .LLSDACSE1620-.LLSDACSB1620
 2862              	.LLSDACSB1620:
 2863 0004 18       		.uleb128 .LEHB68-.LFB1620
 2864 0005 05       		.uleb128 .LEHE68-.LEHB68
 2865 0006 2C       		.uleb128 .L175-.LFB1620
 2866 0007 00       		.uleb128 0
 2867 0008 3E       		.uleb128 .LEHB69-.LFB1620
 2868 0009 05       		.uleb128 .LEHE69-.LEHB69
 2869 000a 00       		.uleb128 0
 2870 000b 00       		.uleb128 0
 2871              	.LLSDACSE1620:
 2872              		.section	.text._ZN25TestCore_testAppendWordBED0Ev,"axG",@progbits,_ZN25TestCore_testAppendWordBED5
 2874              		.section	.text._ZN25TestCore_testAppendWordLED2Ev,"axG",@progbits,_ZN25TestCore_testAppendWordLED5
 2875              		.align 2
 2876              		.p2align 4
 2877              		.weak	_ZN25TestCore_testAppendWordLED2Ev
 2879              	_ZN25TestCore_testAppendWordLED2Ev:
 2880              	.LFB1622:
 2881              		.cfi_startproc
 2882 0000 F30F1EFA 		endbr64
 2883 0004 488D0500 		leaq	16+_ZTV25TestCore_testAppendWordLE(%rip), %rax
 2883      000000
 2884 000b 488907   		movq	%rax, (%rdi)
 2885 000e E9000000 		jmp	_ZN8UnitTest4TestD2Ev@PLT
 2885      00
 2886              		.cfi_endproc
 2887              	.LFE1622:
 2889              		.weak	_ZN25TestCore_testAppendWordLED1Ev
 2890              		.set	_ZN25TestCore_testAppendWordLED1Ev,_ZN25TestCore_testAppendWordLED2Ev
 2891              		.section	.text._ZN25TestCore_testAppendWordLED0Ev,"axG",@progbits,_ZN25TestCore_testAppendWordLED5
 2892              		.align 2
 2893              		.p2align 4
 2894              		.weak	_ZN25TestCore_testAppendWordLED0Ev
 2896              	_ZN25TestCore_testAppendWordLED0Ev:
 2897              	.LFB1624:
 2898              		.cfi_startproc
 2899              		.cfi_personality 0x9b,DW.ref.__gxx_personality_v0
 2900              		.cfi_lsda 0x1b,.LLSDA1624
 2901 0000 F30F1EFA 		endbr64
 2902 0004 4154     		pushq	%r12
 2903              		.cfi_def_cfa_offset 16
 2904              		.cfi_offset 12, -16
 2905 0006 488D0500 		leaq	16+_ZTV25TestCore_testAppendWordLE(%rip), %rax
 2905      000000
 2906 000d 55       		pushq	%rbp
 2907              		.cfi_def_cfa_offset 24
 2908              		.cfi_offset 6, -24
 2909 000e 4889FD   		movq	%rdi, %rbp
 2910 0011 4883EC08 		subq	$8, %rsp
 2911              		.cfi_def_cfa_offset 32
 2912 0015 488907   		movq	%rax, (%rdi)
 2913              	.LEHB70:
 2914 0018 E8000000 		call	_ZN8UnitTest4TestD2Ev@PLT
 2914      00
 2915              	.LEHE70:
 2916 001d 4883C408 		addq	$8, %rsp
 2917              		.cfi_remember_state
 2918              		.cfi_def_cfa_offset 24
 2919 0021 4889EF   		movq	%rbp, %rdi
 2920 0024 5D       		popq	%rbp
 2921              		.cfi_def_cfa_offset 16
 2922 0025 415C     		popq	%r12
 2923              		.cfi_def_cfa_offset 8
 2924 0027 E9000000 		jmp	_ZdlPv@PLT
 2924      00
 2925              	.L180:
 2926              		.cfi_restore_state
 2927 002c F30F1EFA 		endbr64
 2928 0030 4989C4   		movq	%rax, %r12
 2929              	.L179:
 2930 0033 4889EF   		movq	%rbp, %rdi
 2931 0036 E8000000 		call	_ZdlPv@PLT
 2931      00
 2932 003b 4C89E7   		movq	%r12, %rdi
 2933              	.LEHB71:
 2934 003e E8000000 		call	_Unwind_Resume@PLT
 2934      00
 2935              	.LEHE71:
 2936              		.cfi_endproc
 2937              	.LFE1624:
 2938              		.section	.gcc_except_table._ZN25TestCore_testAppendWordLED0Ev,"aG",@progbits,_ZN25TestCore_testApp
 2939              	.LLSDA1624:
 2940 0000 FF       		.byte	0xff
 2941 0001 FF       		.byte	0xff
 2942 0002 01       		.byte	0x1
 2943 0003 08       		.uleb128 .LLSDACSE1624-.LLSDACSB1624
 2944              	.LLSDACSB1624:
 2945 0004 18       		.uleb128 .LEHB70-.LFB1624
 2946 0005 05       		.uleb128 .LEHE70-.LEHB70
 2947 0006 2C       		.uleb128 .L180-.LFB1624
 2948 0007 00       		.uleb128 0
 2949 0008 3E       		.uleb128 .LEHB71-.LFB1624
 2950 0009 05       		.uleb128 .LEHE71-.LEHB71
 2951 000a 00       		.uleb128 0
 2952 000b 00       		.uleb128 0
 2953              	.LLSDACSE1624:
 2954              		.section	.text._ZN25TestCore_testAppendWordLED0Ev,"axG",@progbits,_ZN25TestCore_testAppendWordLED5
 2956              		.section	.text._ZN23TestCore_testAppendByteD2Ev,"axG",@progbits,_ZN23TestCore_testAppendByteD5Ev,c
 2957              		.align 2
 2958              		.p2align 4
 2959              		.weak	_ZN23TestCore_testAppendByteD2Ev
 2961              	_ZN23TestCore_testAppendByteD2Ev:
 2962              	.LFB1626:
 2963              		.cfi_startproc
 2964 0000 F30F1EFA 		endbr64
 2965 0004 488D0500 		leaq	16+_ZTV23TestCore_testAppendByte(%rip), %rax
 2965      000000
 2966 000b 488907   		movq	%rax, (%rdi)
 2967 000e E9000000 		jmp	_ZN8UnitTest4TestD2Ev@PLT
 2967      00
 2968              		.cfi_endproc
 2969              	.LFE1626:
 2971              		.weak	_ZN23TestCore_testAppendByteD1Ev
 2972              		.set	_ZN23TestCore_testAppendByteD1Ev,_ZN23TestCore_testAppendByteD2Ev
 2973              		.section	.text._ZN23TestCore_testAppendByteD0Ev,"axG",@progbits,_ZN23TestCore_testAppendByteD5Ev,c
 2974              		.align 2
 2975              		.p2align 4
 2976              		.weak	_ZN23TestCore_testAppendByteD0Ev
 2978              	_ZN23TestCore_testAppendByteD0Ev:
 2979              	.LFB1628:
 2980              		.cfi_startproc
 2981              		.cfi_personality 0x9b,DW.ref.__gxx_personality_v0
 2982              		.cfi_lsda 0x1b,.LLSDA1628
 2983 0000 F30F1EFA 		endbr64
 2984 0004 4154     		pushq	%r12
 2985              		.cfi_def_cfa_offset 16
 2986              		.cfi_offset 12, -16
 2987 0006 488D0500 		leaq	16+_ZTV23TestCore_testAppendByte(%rip), %rax
 2987      000000
 2988 000d 55       		pushq	%rbp
 2989              		.cfi_def_cfa_offset 24
 2990              		.cfi_offset 6, -24
 2991 000e 4889FD   		movq	%rdi, %rbp
 2992 0011 4883EC08 		subq	$8, %rsp
 2993              		.cfi_def_cfa_offset 32
 2994 0015 488907   		movq	%rax, (%rdi)
 2995              	.LEHB72:
 2996 0018 E8000000 		call	_ZN8UnitTest4TestD2Ev@PLT
 2996      00
 2997              	.LEHE72:
 2998 001d 4883C408 		addq	$8, %rsp
 2999              		.cfi_remember_state
 3000              		.cfi_def_cfa_offset 24
 3001 0021 4889EF   		movq	%rbp, %rdi
 3002 0024 5D       		popq	%rbp
 3003              		.cfi_def_cfa_offset 16
 3004 0025 415C     		popq	%r12
 3005              		.cfi_def_cfa_offset 8
 3006 0027 E9000000 		jmp	_ZdlPv@PLT
 3006      00
 3007              	.L185:
 3008              		.cfi_restore_state
 3009 002c F30F1EFA 		endbr64
 3010 0030 4989C4   		movq	%rax, %r12
 3011              	.L184:
 3012 0033 4889EF   		movq	%rbp, %rdi
 3013 0036 E8000000 		call	_ZdlPv@PLT
 3013      00
 3014 003b 4C89E7   		movq	%r12, %rdi
 3015              	.LEHB73:
 3016 003e E8000000 		call	_Unwind_Resume@PLT
 3016      00
 3017              	.LEHE73:
 3018              		.cfi_endproc
 3019              	.LFE1628:
 3020              		.section	.gcc_except_table._ZN23TestCore_testAppendByteD0Ev,"aG",@progbits,_ZN23TestCore_testAppen
 3021              	.LLSDA1628:
 3022 0000 FF       		.byte	0xff
 3023 0001 FF       		.byte	0xff
 3024 0002 01       		.byte	0x1
 3025 0003 08       		.uleb128 .LLSDACSE1628-.LLSDACSB1628
 3026              	.LLSDACSB1628:
 3027 0004 18       		.uleb128 .LEHB72-.LFB1628
 3028 0005 05       		.uleb128 .LEHE72-.LEHB72
 3029 0006 2C       		.uleb128 .L185-.LFB1628
 3030 0007 00       		.uleb128 0
 3031 0008 3E       		.uleb128 .LEHB73-.LFB1628
 3032 0009 05       		.uleb128 .LEHE73-.LEHB73
 3033 000a 00       		.uleb128 0
 3034 000b 00       		.uleb128 0
 3035              	.LLSDACSE1628:
 3036              		.section	.text._ZN23TestCore_testAppendByteD0Ev,"axG",@progbits,_ZN23TestCore_testAppendByteD5Ev,c
 3038              		.section	.text._ZN39TestCore_testVeryLargeAppendBlockInitFFD2Ev,"axG",@progbits,_ZN39TestCore_test
 3039              		.align 2
 3040              		.p2align 4
 3041              		.weak	_ZN39TestCore_testVeryLargeAppendBlockInitFFD2Ev
 3043              	_ZN39TestCore_testVeryLargeAppendBlockInitFFD2Ev:
 3044              	.LFB1630:
 3045              		.cfi_startproc
 3046 0000 F30F1EFA 		endbr64
 3047 0004 488D0500 		leaq	16+_ZTV39TestCore_testVeryLargeAppendBlockInitFF(%rip), %rax
 3047      000000
 3048 000b 488907   		movq	%rax, (%rdi)
 3049 000e E9000000 		jmp	_ZN8UnitTest4TestD2Ev@PLT
 3049      00
 3050              		.cfi_endproc
 3051              	.LFE1630:
 3053              		.weak	_ZN39TestCore_testVeryLargeAppendBlockInitFFD1Ev
 3054              		.set	_ZN39TestCore_testVeryLargeAppendBlockInitFFD1Ev,_ZN39TestCore_testVeryLargeAppendBlockInitFF
 3055              		.section	.text._ZN39TestCore_testVeryLargeAppendBlockInitFFD0Ev,"axG",@progbits,_ZN39TestCore_test
 3056              		.align 2
 3057              		.p2align 4
 3058              		.weak	_ZN39TestCore_testVeryLargeAppendBlockInitFFD0Ev
 3060              	_ZN39TestCore_testVeryLargeAppendBlockInitFFD0Ev:
 3061              	.LFB1632:
 3062              		.cfi_startproc
 3063              		.cfi_personality 0x9b,DW.ref.__gxx_personality_v0
 3064              		.cfi_lsda 0x1b,.LLSDA1632
 3065 0000 F30F1EFA 		endbr64
 3066 0004 4154     		pushq	%r12
 3067              		.cfi_def_cfa_offset 16
 3068              		.cfi_offset 12, -16
 3069 0006 488D0500 		leaq	16+_ZTV39TestCore_testVeryLargeAppendBlockInitFF(%rip), %rax
 3069      000000
 3070 000d 55       		pushq	%rbp
 3071              		.cfi_def_cfa_offset 24
 3072              		.cfi_offset 6, -24
 3073 000e 4889FD   		movq	%rdi, %rbp
 3074 0011 4883EC08 		subq	$8, %rsp
 3075              		.cfi_def_cfa_offset 32
 3076 0015 488907   		movq	%rax, (%rdi)
 3077              	.LEHB74:
 3078 0018 E8000000 		call	_ZN8UnitTest4TestD2Ev@PLT
 3078      00
 3079              	.LEHE74:
 3080 001d 4883C408 		addq	$8, %rsp
 3081              		.cfi_remember_state
 3082              		.cfi_def_cfa_offset 24
 3083 0021 4889EF   		movq	%rbp, %rdi
 3084 0024 5D       		popq	%rbp
 3085              		.cfi_def_cfa_offset 16
 3086 0025 415C     		popq	%r12
 3087              		.cfi_def_cfa_offset 8
 3088 0027 E9000000 		jmp	_ZdlPv@PLT
 3088      00
 3089              	.L190:
 3090              		.cfi_restore_state
 3091 002c F30F1EFA 		endbr64
 3092 0030 4989C4   		movq	%rax, %r12
 3093              	.L189:
 3094 0033 4889EF   		movq	%rbp, %rdi
 3095 0036 E8000000 		call	_ZdlPv@PLT
 3095      00
 3096 003b 4C89E7   		movq	%r12, %rdi
 3097              	.LEHB75:
 3098 003e E8000000 		call	_Unwind_Resume@PLT
 3098      00
 3099              	.LEHE75:
 3100              		.cfi_endproc
 3101              	.LFE1632:
 3102              		.section	.gcc_except_table._ZN39TestCore_testVeryLargeAppendBlockInitFFD0Ev,"aG",@progbits,_ZN39Te
 3103              	.LLSDA1632:
 3104 0000 FF       		.byte	0xff
 3105 0001 FF       		.byte	0xff
 3106 0002 01       		.byte	0x1
 3107 0003 08       		.uleb128 .LLSDACSE1632-.LLSDACSB1632
 3108              	.LLSDACSB1632:
 3109 0004 18       		.uleb128 .LEHB74-.LFB1632
 3110 0005 05       		.uleb128 .LEHE74-.LEHB74
 3111 0006 2C       		.uleb128 .L190-.LFB1632
 3112 0007 00       		.uleb128 0
 3113 0008 3E       		.uleb128 .LEHB75-.LFB1632
 3114 0009 05       		.uleb128 .LEHE75-.LEHB75
 3115 000a 00       		.uleb128 0
 3116 000b 00       		.uleb128 0
 3117              	.LLSDACSE1632:
 3118              		.section	.text._ZN39TestCore_testVeryLargeAppendBlockInitFFD0Ev,"axG",@progbits,_ZN39TestCore_test
 3120              		.section	.text._ZN41TestCore_testVeryLargeAppendBlockInitZeroD2Ev,"axG",@progbits,_ZN41TestCore_te
 3121              		.align 2
 3122              		.p2align 4
 3123              		.weak	_ZN41TestCore_testVeryLargeAppendBlockInitZeroD2Ev
 3125              	_ZN41TestCore_testVeryLargeAppendBlockInitZeroD2Ev:
 3126              	.LFB1634:
 3127              		.cfi_startproc
 3128 0000 F30F1EFA 		endbr64
 3129 0004 488D0500 		leaq	16+_ZTV41TestCore_testVeryLargeAppendBlockInitZero(%rip), %rax
 3129      000000
 3130 000b 488907   		movq	%rax, (%rdi)
 3131 000e E9000000 		jmp	_ZN8UnitTest4TestD2Ev@PLT
 3131      00
 3132              		.cfi_endproc
 3133              	.LFE1634:
 3135              		.weak	_ZN41TestCore_testVeryLargeAppendBlockInitZeroD1Ev
 3136              		.set	_ZN41TestCore_testVeryLargeAppendBlockInitZeroD1Ev,_ZN41TestCore_testVeryLargeAppendBlockInit
 3137              		.section	.text._ZN41TestCore_testVeryLargeAppendBlockInitZeroD0Ev,"axG",@progbits,_ZN41TestCore_te
 3138              		.align 2
 3139              		.p2align 4
 3140              		.weak	_ZN41TestCore_testVeryLargeAppendBlockInitZeroD0Ev
 3142              	_ZN41TestCore_testVeryLargeAppendBlockInitZeroD0Ev:
 3143              	.LFB1636:
 3144              		.cfi_startproc
 3145              		.cfi_personality 0x9b,DW.ref.__gxx_personality_v0
 3146              		.cfi_lsda 0x1b,.LLSDA1636
 3147 0000 F30F1EFA 		endbr64
 3148 0004 4154     		pushq	%r12
 3149              		.cfi_def_cfa_offset 16
 3150              		.cfi_offset 12, -16
 3151 0006 488D0500 		leaq	16+_ZTV41TestCore_testVeryLargeAppendBlockInitZero(%rip), %rax
 3151      000000
 3152 000d 55       		pushq	%rbp
 3153              		.cfi_def_cfa_offset 24
 3154              		.cfi_offset 6, -24
 3155 000e 4889FD   		movq	%rdi, %rbp
 3156 0011 4883EC08 		subq	$8, %rsp
 3157              		.cfi_def_cfa_offset 32
 3158 0015 488907   		movq	%rax, (%rdi)
 3159              	.LEHB76:
 3160 0018 E8000000 		call	_ZN8UnitTest4TestD2Ev@PLT
 3160      00
 3161              	.LEHE76:
 3162 001d 4883C408 		addq	$8, %rsp
 3163              		.cfi_remember_state
 3164              		.cfi_def_cfa_offset 24
 3165 0021 4889EF   		movq	%rbp, %rdi
 3166 0024 5D       		popq	%rbp
 3167              		.cfi_def_cfa_offset 16
 3168 0025 415C     		popq	%r12
 3169              		.cfi_def_cfa_offset 8
 3170 0027 E9000000 		jmp	_ZdlPv@PLT
 3170      00
 3171              	.L195:
 3172              		.cfi_restore_state
 3173 002c F30F1EFA 		endbr64
 3174 0030 4989C4   		movq	%rax, %r12
 3175              	.L194:
 3176 0033 4889EF   		movq	%rbp, %rdi
 3177 0036 E8000000 		call	_ZdlPv@PLT
 3177      00
 3178 003b 4C89E7   		movq	%r12, %rdi
 3179              	.LEHB77:
 3180 003e E8000000 		call	_Unwind_Resume@PLT
 3180      00
 3181              	.LEHE77:
 3182              		.cfi_endproc
 3183              	.LFE1636:
 3184              		.section	.gcc_except_table._ZN41TestCore_testVeryLargeAppendBlockInitZeroD0Ev,"aG",@progbits,_ZN41
 3185              	.LLSDA1636:
 3186 0000 FF       		.byte	0xff
 3187 0001 FF       		.byte	0xff
 3188 0002 01       		.byte	0x1
 3189 0003 08       		.uleb128 .LLSDACSE1636-.LLSDACSB1636
 3190              	.LLSDACSB1636:
 3191 0004 18       		.uleb128 .LEHB76-.LFB1636
 3192 0005 05       		.uleb128 .LEHE76-.LEHB76
 3193 0006 2C       		.uleb128 .L195-.LFB1636
 3194 0007 00       		.uleb128 0
 3195 0008 3E       		.uleb128 .LEHB77-.LFB1636
 3196 0009 05       		.uleb128 .LEHE77-.LEHB77
 3197 000a 00       		.uleb128 0
 3198 000b 00       		.uleb128 0
 3199              	.LLSDACSE1636:
 3200              		.section	.text._ZN41TestCore_testVeryLargeAppendBlockInitZeroD0Ev,"axG",@progbits,_ZN41TestCore_te
 3202              		.section	.text._ZN29TestCore_testLargeAppendBlockD2Ev,"axG",@progbits,_ZN29TestCore_testLargeAppen
 3203              		.align 2
 3204              		.p2align 4
 3205              		.weak	_ZN29TestCore_testLargeAppendBlockD2Ev
 3207              	_ZN29TestCore_testLargeAppendBlockD2Ev:
 3208              	.LFB1638:
 3209              		.cfi_startproc
 3210 0000 F30F1EFA 		endbr64
 3211 0004 488D0500 		leaq	16+_ZTV29TestCore_testLargeAppendBlock(%rip), %rax
 3211      000000
 3212 000b 488907   		movq	%rax, (%rdi)
 3213 000e E9000000 		jmp	_ZN8UnitTest4TestD2Ev@PLT
 3213      00
 3214              		.cfi_endproc
 3215              	.LFE1638:
 3217              		.weak	_ZN29TestCore_testLargeAppendBlockD1Ev
 3218              		.set	_ZN29TestCore_testLargeAppendBlockD1Ev,_ZN29TestCore_testLargeAppendBlockD2Ev
 3219              		.section	.text._ZN29TestCore_testLargeAppendBlockD0Ev,"axG",@progbits,_ZN29TestCore_testLargeAppen
 3220              		.align 2
 3221              		.p2align 4
 3222              		.weak	_ZN29TestCore_testLargeAppendBlockD0Ev
 3224              	_ZN29TestCore_testLargeAppendBlockD0Ev:
 3225              	.LFB1640:
 3226              		.cfi_startproc
 3227              		.cfi_personality 0x9b,DW.ref.__gxx_personality_v0
 3228              		.cfi_lsda 0x1b,.LLSDA1640
 3229 0000 F30F1EFA 		endbr64
 3230 0004 4154     		pushq	%r12
 3231              		.cfi_def_cfa_offset 16
 3232              		.cfi_offset 12, -16
 3233 0006 488D0500 		leaq	16+_ZTV29TestCore_testLargeAppendBlock(%rip), %rax
 3233      000000
 3234 000d 55       		pushq	%rbp
 3235              		.cfi_def_cfa_offset 24
 3236              		.cfi_offset 6, -24
 3237 000e 4889FD   		movq	%rdi, %rbp
 3238 0011 4883EC08 		subq	$8, %rsp
 3239              		.cfi_def_cfa_offset 32
 3240 0015 488907   		movq	%rax, (%rdi)
 3241              	.LEHB78:
 3242 0018 E8000000 		call	_ZN8UnitTest4TestD2Ev@PLT
 3242      00
 3243              	.LEHE78:
 3244 001d 4883C408 		addq	$8, %rsp
 3245              		.cfi_remember_state
 3246              		.cfi_def_cfa_offset 24
 3247 0021 4889EF   		movq	%rbp, %rdi
 3248 0024 5D       		popq	%rbp
 3249              		.cfi_def_cfa_offset 16
 3250 0025 415C     		popq	%r12
 3251              		.cfi_def_cfa_offset 8
 3252 0027 E9000000 		jmp	_ZdlPv@PLT
 3252      00
 3253              	.L200:
 3254              		.cfi_restore_state
 3255 002c F30F1EFA 		endbr64
 3256 0030 4989C4   		movq	%rax, %r12
 3257              	.L199:
 3258 0033 4889EF   		movq	%rbp, %rdi
 3259 0036 E8000000 		call	_ZdlPv@PLT
 3259      00
 3260 003b 4C89E7   		movq	%r12, %rdi
 3261              	.LEHB79:
 3262 003e E8000000 		call	_Unwind_Resume@PLT
 3262      00
 3263              	.LEHE79:
 3264              		.cfi_endproc
 3265              	.LFE1640:
 3266              		.section	.gcc_except_table._ZN29TestCore_testLargeAppendBlockD0Ev,"aG",@progbits,_ZN29TestCore_tes
 3267              	.LLSDA1640:
 3268 0000 FF       		.byte	0xff
 3269 0001 FF       		.byte	0xff
 3270 0002 01       		.byte	0x1
 3271 0003 08       		.uleb128 .LLSDACSE1640-.LLSDACSB1640
 3272              	.LLSDACSB1640:
 3273 0004 18       		.uleb128 .LEHB78-.LFB1640
 3274 0005 05       		.uleb128 .LEHE78-.LEHB78
 3275 0006 2C       		.uleb128 .L200-.LFB1640
 3276 0007 00       		.uleb128 0
 3277 0008 3E       		.uleb128 .LEHB79-.LFB1640
 3278 0009 05       		.uleb128 .LEHE79-.LEHB79
 3279 000a 00       		.uleb128 0
 3280 000b 00       		.uleb128 0
 3281              	.LLSDACSE1640:
 3282              		.section	.text._ZN29TestCore_testLargeAppendBlockD0Ev,"axG",@progbits,_ZN29TestCore_testLargeAppen
 3284              		.section	.text._ZN32TestCore_testCapacityAppendBlockD2Ev,"axG",@progbits,_ZN32TestCore_testCapacit
 3285              		.align 2
 3286              		.p2align 4
 3287              		.weak	_ZN32TestCore_testCapacityAppendBlockD2Ev
 3289              	_ZN32TestCore_testCapacityAppendBlockD2Ev:
 3290              	.LFB1642:
 3291              		.cfi_startproc
 3292 0000 F30F1EFA 		endbr64
 3293 0004 488D0500 		leaq	16+_ZTV32TestCore_testCapacityAppendBlock(%rip), %rax
 3293      000000
 3294 000b 488907   		movq	%rax, (%rdi)
 3295 000e E9000000 		jmp	_ZN8UnitTest4TestD2Ev@PLT
 3295      00
 3296              		.cfi_endproc
 3297              	.LFE1642:
 3299              		.weak	_ZN32TestCore_testCapacityAppendBlockD1Ev
 3300              		.set	_ZN32TestCore_testCapacityAppendBlockD1Ev,_ZN32TestCore_testCapacityAppendBlockD2Ev
 3301              		.section	.text._ZN32TestCore_testCapacityAppendBlockD0Ev,"axG",@progbits,_ZN32TestCore_testCapacit
 3302              		.align 2
 3303              		.p2align 4
 3304              		.weak	_ZN32TestCore_testCapacityAppendBlockD0Ev
 3306              	_ZN32TestCore_testCapacityAppendBlockD0Ev:
 3307              	.LFB1644:
 3308              		.cfi_startproc
 3309              		.cfi_personality 0x9b,DW.ref.__gxx_personality_v0
 3310              		.cfi_lsda 0x1b,.LLSDA1644
 3311 0000 F30F1EFA 		endbr64
 3312 0004 4154     		pushq	%r12
 3313              		.cfi_def_cfa_offset 16
 3314              		.cfi_offset 12, -16
 3315 0006 488D0500 		leaq	16+_ZTV32TestCore_testCapacityAppendBlock(%rip), %rax
 3315      000000
 3316 000d 55       		pushq	%rbp
 3317              		.cfi_def_cfa_offset 24
 3318              		.cfi_offset 6, -24
 3319 000e 4889FD   		movq	%rdi, %rbp
 3320 0011 4883EC08 		subq	$8, %rsp
 3321              		.cfi_def_cfa_offset 32
 3322 0015 488907   		movq	%rax, (%rdi)
 3323              	.LEHB80:
 3324 0018 E8000000 		call	_ZN8UnitTest4TestD2Ev@PLT
 3324      00
 3325              	.LEHE80:
 3326 001d 4883C408 		addq	$8, %rsp
 3327              		.cfi_remember_state
 3328              		.cfi_def_cfa_offset 24
 3329 0021 4889EF   		movq	%rbp, %rdi
 3330 0024 5D       		popq	%rbp
 3331              		.cfi_def_cfa_offset 16
 3332 0025 415C     		popq	%r12
 3333              		.cfi_def_cfa_offset 8
 3334 0027 E9000000 		jmp	_ZdlPv@PLT
 3334      00
 3335              	.L205:
 3336              		.cfi_restore_state
 3337 002c F30F1EFA 		endbr64
 3338 0030 4989C4   		movq	%rax, %r12
 3339              	.L204:
 3340 0033 4889EF   		movq	%rbp, %rdi
 3341 0036 E8000000 		call	_ZdlPv@PLT
 3341      00
 3342 003b 4C89E7   		movq	%r12, %rdi
 3343              	.LEHB81:
 3344 003e E8000000 		call	_Unwind_Resume@PLT
 3344      00
 3345              	.LEHE81:
 3346              		.cfi_endproc
 3347              	.LFE1644:
 3348              		.section	.gcc_except_table._ZN32TestCore_testCapacityAppendBlockD0Ev,"aG",@progbits,_ZN32TestCore_
 3349              	.LLSDA1644:
 3350 0000 FF       		.byte	0xff
 3351 0001 FF       		.byte	0xff
 3352 0002 01       		.byte	0x1
 3353 0003 08       		.uleb128 .LLSDACSE1644-.LLSDACSB1644
 3354              	.LLSDACSB1644:
 3355 0004 18       		.uleb128 .LEHB80-.LFB1644
 3356 0005 05       		.uleb128 .LEHE80-.LEHB80
 3357 0006 2C       		.uleb128 .L205-.LFB1644
 3358 0007 00       		.uleb128 0
 3359 0008 3E       		.uleb128 .LEHB81-.LFB1644
 3360 0009 05       		.uleb128 .LEHE81-.LEHB81
 3361 000a 00       		.uleb128 0
 3362 000b 00       		.uleb128 0
 3363              	.LLSDACSE1644:
 3364              		.section	.text._ZN32TestCore_testCapacityAppendBlockD0Ev,"axG",@progbits,_ZN32TestCore_testCapacit
 3366              		.section	.text._ZN29TestCore_testSmallAppendBlockD2Ev,"axG",@progbits,_ZN29TestCore_testSmallAppen
 3367              		.align 2
 3368              		.p2align 4
 3369              		.weak	_ZN29TestCore_testSmallAppendBlockD2Ev
 3371              	_ZN29TestCore_testSmallAppendBlockD2Ev:
 3372              	.LFB1646:
 3373              		.cfi_startproc
 3374 0000 F30F1EFA 		endbr64
 3375 0004 488D0500 		leaq	16+_ZTV29TestCore_testSmallAppendBlock(%rip), %rax
 3375      000000
 3376 000b 488907   		movq	%rax, (%rdi)
 3377 000e E9000000 		jmp	_ZN8UnitTest4TestD2Ev@PLT
 3377      00
 3378              		.cfi_endproc
 3379              	.LFE1646:
 3381              		.weak	_ZN29TestCore_testSmallAppendBlockD1Ev
 3382              		.set	_ZN29TestCore_testSmallAppendBlockD1Ev,_ZN29TestCore_testSmallAppendBlockD2Ev
 3383              		.section	.text._ZN29TestCore_testSmallAppendBlockD0Ev,"axG",@progbits,_ZN29TestCore_testSmallAppen
 3384              		.align 2
 3385              		.p2align 4
 3386              		.weak	_ZN29TestCore_testSmallAppendBlockD0Ev
 3388              	_ZN29TestCore_testSmallAppendBlockD0Ev:
 3389              	.LFB1648:
 3390              		.cfi_startproc
 3391              		.cfi_personality 0x9b,DW.ref.__gxx_personality_v0
 3392              		.cfi_lsda 0x1b,.LLSDA1648
 3393 0000 F30F1EFA 		endbr64
 3394 0004 4154     		pushq	%r12
 3395              		.cfi_def_cfa_offset 16
 3396              		.cfi_offset 12, -16
 3397 0006 488D0500 		leaq	16+_ZTV29TestCore_testSmallAppendBlock(%rip), %rax
 3397      000000
 3398 000d 55       		pushq	%rbp
 3399              		.cfi_def_cfa_offset 24
 3400              		.cfi_offset 6, -24
 3401 000e 4889FD   		movq	%rdi, %rbp
 3402 0011 4883EC08 		subq	$8, %rsp
 3403              		.cfi_def_cfa_offset 32
 3404 0015 488907   		movq	%rax, (%rdi)
 3405              	.LEHB82:
 3406 0018 E8000000 		call	_ZN8UnitTest4TestD2Ev@PLT
 3406      00
 3407              	.LEHE82:
 3408 001d 4883C408 		addq	$8, %rsp
 3409              		.cfi_remember_state
 3410              		.cfi_def_cfa_offset 24
 3411 0021 4889EF   		movq	%rbp, %rdi
 3412 0024 5D       		popq	%rbp
 3413              		.cfi_def_cfa_offset 16
 3414 0025 415C     		popq	%r12
 3415              		.cfi_def_cfa_offset 8
 3416 0027 E9000000 		jmp	_ZdlPv@PLT
 3416      00
 3417              	.L210:
 3418              		.cfi_restore_state
 3419 002c F30F1EFA 		endbr64
 3420 0030 4989C4   		movq	%rax, %r12
 3421              	.L209:
 3422 0033 4889EF   		movq	%rbp, %rdi
 3423 0036 E8000000 		call	_ZdlPv@PLT
 3423      00
 3424 003b 4C89E7   		movq	%r12, %rdi
 3425              	.LEHB83:
 3426 003e E8000000 		call	_Unwind_Resume@PLT
 3426      00
 3427              	.LEHE83:
 3428              		.cfi_endproc
 3429              	.LFE1648:
 3430              		.section	.gcc_except_table._ZN29TestCore_testSmallAppendBlockD0Ev,"aG",@progbits,_ZN29TestCore_tes
 3431              	.LLSDA1648:
 3432 0000 FF       		.byte	0xff
 3433 0001 FF       		.byte	0xff
 3434 0002 01       		.byte	0x1
 3435 0003 08       		.uleb128 .LLSDACSE1648-.LLSDACSB1648
 3436              	.LLSDACSB1648:
 3437 0004 18       		.uleb128 .LEHB82-.LFB1648
 3438 0005 05       		.uleb128 .LEHE82-.LEHB82
 3439 0006 2C       		.uleb128 .L210-.LFB1648
 3440 0007 00       		.uleb128 0
 3441 0008 3E       		.uleb128 .LEHB83-.LFB1648
 3442 0009 05       		.uleb128 .LEHE83-.LEHB83
 3443 000a 00       		.uleb128 0
 3444 000b 00       		.uleb128 0
 3445              	.LLSDACSE1648:
 3446              		.section	.text._ZN29TestCore_testSmallAppendBlockD0Ev,"axG",@progbits,_ZN29TestCore_testSmallAppen
 3448              		.section	.text._ZN25TestCore_testInitialiseFFD2Ev,"axG",@progbits,_ZN25TestCore_testInitialiseFFD5
 3449              		.align 2
 3450              		.p2align 4
 3451              		.weak	_ZN25TestCore_testInitialiseFFD2Ev
 3453              	_ZN25TestCore_testInitialiseFFD2Ev:
 3454              	.LFB1650:
 3455              		.cfi_startproc
 3456 0000 F30F1EFA 		endbr64
 3457 0004 488D0500 		leaq	16+_ZTV25TestCore_testInitialiseFF(%rip), %rax
 3457      000000
 3458 000b 488907   		movq	%rax, (%rdi)
 3459 000e E9000000 		jmp	_ZN8UnitTest4TestD2Ev@PLT
 3459      00
 3460              		.cfi_endproc
 3461              	.LFE1650:
 3463              		.weak	_ZN25TestCore_testInitialiseFFD1Ev
 3464              		.set	_ZN25TestCore_testInitialiseFFD1Ev,_ZN25TestCore_testInitialiseFFD2Ev
 3465              		.section	.text._ZN25TestCore_testInitialiseFFD0Ev,"axG",@progbits,_ZN25TestCore_testInitialiseFFD5
 3466              		.align 2
 3467              		.p2align 4
 3468              		.weak	_ZN25TestCore_testInitialiseFFD0Ev
 3470              	_ZN25TestCore_testInitialiseFFD0Ev:
 3471              	.LFB1652:
 3472              		.cfi_startproc
 3473              		.cfi_personality 0x9b,DW.ref.__gxx_personality_v0
 3474              		.cfi_lsda 0x1b,.LLSDA1652
 3475 0000 F30F1EFA 		endbr64
 3476 0004 4154     		pushq	%r12
 3477              		.cfi_def_cfa_offset 16
 3478              		.cfi_offset 12, -16
 3479 0006 488D0500 		leaq	16+_ZTV25TestCore_testInitialiseFF(%rip), %rax
 3479      000000
 3480 000d 55       		pushq	%rbp
 3481              		.cfi_def_cfa_offset 24
 3482              		.cfi_offset 6, -24
 3483 000e 4889FD   		movq	%rdi, %rbp
 3484 0011 4883EC08 		subq	$8, %rsp
 3485              		.cfi_def_cfa_offset 32
 3486 0015 488907   		movq	%rax, (%rdi)
 3487              	.LEHB84:
 3488 0018 E8000000 		call	_ZN8UnitTest4TestD2Ev@PLT
 3488      00
 3489              	.LEHE84:
 3490 001d 4883C408 		addq	$8, %rsp
 3491              		.cfi_remember_state
 3492              		.cfi_def_cfa_offset 24
 3493 0021 4889EF   		movq	%rbp, %rdi
 3494 0024 5D       		popq	%rbp
 3495              		.cfi_def_cfa_offset 16
 3496 0025 415C     		popq	%r12
 3497              		.cfi_def_cfa_offset 8
 3498 0027 E9000000 		jmp	_ZdlPv@PLT
 3498      00
 3499              	.L215:
 3500              		.cfi_restore_state
 3501 002c F30F1EFA 		endbr64
 3502 0030 4989C4   		movq	%rax, %r12
 3503              	.L214:
 3504 0033 4889EF   		movq	%rbp, %rdi
 3505 0036 E8000000 		call	_ZdlPv@PLT
 3505      00
 3506 003b 4C89E7   		movq	%r12, %rdi
 3507              	.LEHB85:
 3508 003e E8000000 		call	_Unwind_Resume@PLT
 3508      00
 3509              	.LEHE85:
 3510              		.cfi_endproc
 3511              	.LFE1652:
 3512              		.section	.gcc_except_table._ZN25TestCore_testInitialiseFFD0Ev,"aG",@progbits,_ZN25TestCore_testIni
 3513              	.LLSDA1652:
 3514 0000 FF       		.byte	0xff
 3515 0001 FF       		.byte	0xff
 3516 0002 01       		.byte	0x1
 3517 0003 08       		.uleb128 .LLSDACSE1652-.LLSDACSB1652
 3518              	.LLSDACSB1652:
 3519 0004 18       		.uleb128 .LEHB84-.LFB1652
 3520 0005 05       		.uleb128 .LEHE84-.LEHB84
 3521 0006 2C       		.uleb128 .L215-.LFB1652
 3522 0007 00       		.uleb128 0
 3523 0008 3E       		.uleb128 .LEHB85-.LFB1652
 3524 0009 05       		.uleb128 .LEHE85-.LEHB85
 3525 000a 00       		.uleb128 0
 3526 000b 00       		.uleb128 0
 3527              	.LLSDACSE1652:
 3528              		.section	.text._ZN25TestCore_testInitialiseFFD0Ev,"axG",@progbits,_ZN25TestCore_testInitialiseFFD5
 3530              		.section	.text._ZN27TestCore_testInitialiseZeroD2Ev,"axG",@progbits,_ZN27TestCore_testInitialiseZe
 3531              		.align 2
 3532              		.p2align 4
 3533              		.weak	_ZN27TestCore_testInitialiseZeroD2Ev
 3535              	_ZN27TestCore_testInitialiseZeroD2Ev:
 3536              	.LFB1654:
 3537              		.cfi_startproc
 3538 0000 F30F1EFA 		endbr64
 3539 0004 488D0500 		leaq	16+_ZTV27TestCore_testInitialiseZero(%rip), %rax
 3539      000000
 3540 000b 488907   		movq	%rax, (%rdi)
 3541 000e E9000000 		jmp	_ZN8UnitTest4TestD2Ev@PLT
 3541      00
 3542              		.cfi_endproc
 3543              	.LFE1654:
 3545              		.weak	_ZN27TestCore_testInitialiseZeroD1Ev
 3546              		.set	_ZN27TestCore_testInitialiseZeroD1Ev,_ZN27TestCore_testInitialiseZeroD2Ev
 3547              		.section	.text._ZN27TestCore_testInitialiseZeroD0Ev,"axG",@progbits,_ZN27TestCore_testInitialiseZe
 3548              		.align 2
 3549              		.p2align 4
 3550              		.weak	_ZN27TestCore_testInitialiseZeroD0Ev
 3552              	_ZN27TestCore_testInitialiseZeroD0Ev:
 3553              	.LFB1656:
 3554              		.cfi_startproc
 3555              		.cfi_personality 0x9b,DW.ref.__gxx_personality_v0
 3556              		.cfi_lsda 0x1b,.LLSDA1656
 3557 0000 F30F1EFA 		endbr64
 3558 0004 4154     		pushq	%r12
 3559              		.cfi_def_cfa_offset 16
 3560              		.cfi_offset 12, -16
 3561 0006 488D0500 		leaq	16+_ZTV27TestCore_testInitialiseZero(%rip), %rax
 3561      000000
 3562 000d 55       		pushq	%rbp
 3563              		.cfi_def_cfa_offset 24
 3564              		.cfi_offset 6, -24
 3565 000e 4889FD   		movq	%rdi, %rbp
 3566 0011 4883EC08 		subq	$8, %rsp
 3567              		.cfi_def_cfa_offset 32
 3568 0015 488907   		movq	%rax, (%rdi)
 3569              	.LEHB86:
 3570 0018 E8000000 		call	_ZN8UnitTest4TestD2Ev@PLT
 3570      00
 3571              	.LEHE86:
 3572 001d 4883C408 		addq	$8, %rsp
 3573              		.cfi_remember_state
 3574              		.cfi_def_cfa_offset 24
 3575 0021 4889EF   		movq	%rbp, %rdi
 3576 0024 5D       		popq	%rbp
 3577              		.cfi_def_cfa_offset 16
 3578 0025 415C     		popq	%r12
 3579              		.cfi_def_cfa_offset 8
 3580 0027 E9000000 		jmp	_ZdlPv@PLT
 3580      00
 3581              	.L220:
 3582              		.cfi_restore_state
 3583 002c F30F1EFA 		endbr64
 3584 0030 4989C4   		movq	%rax, %r12
 3585              	.L219:
 3586 0033 4889EF   		movq	%rbp, %rdi
 3587 0036 E8000000 		call	_ZdlPv@PLT
 3587      00
 3588 003b 4C89E7   		movq	%r12, %rdi
 3589              	.LEHB87:
 3590 003e E8000000 		call	_Unwind_Resume@PLT
 3590      00
 3591              	.LEHE87:
 3592              		.cfi_endproc
 3593              	.LFE1656:
 3594              		.section	.gcc_except_table._ZN27TestCore_testInitialiseZeroD0Ev,"aG",@progbits,_ZN27TestCore_testI
 3595              	.LLSDA1656:
 3596 0000 FF       		.byte	0xff
 3597 0001 FF       		.byte	0xff
 3598 0002 01       		.byte	0x1
 3599 0003 08       		.uleb128 .LLSDACSE1656-.LLSDACSB1656
 3600              	.LLSDACSB1656:
 3601 0004 18       		.uleb128 .LEHB86-.LFB1656
 3602 0005 05       		.uleb128 .LEHE86-.LEHB86
 3603 0006 2C       		.uleb128 .L220-.LFB1656
 3604 0007 00       		.uleb128 0
 3605 0008 3E       		.uleb128 .LEHB87-.LFB1656
 3606 0009 05       		.uleb128 .LEHE87-.LEHB87
 3607 000a 00       		.uleb128 0
 3608 000b 00       		.uleb128 0
 3609              	.LLSDACSE1656:
 3610              		.section	.text._ZN27TestCore_testInitialiseZeroD0Ev,"axG",@progbits,_ZN27TestCore_testInitialiseZe
 3612              		.section	.text._ZN8UnitTest15MemoryOutStreamD1Ev,"axG",@progbits,_ZN8UnitTest15MemoryOutStreamD1Ev
 3613              		.align 2
 3614              		.p2align 4
 3615              		.weak	_ZN8UnitTest15MemoryOutStreamD1Ev
 3617              	_ZN8UnitTest15MemoryOutStreamD1Ev:
 3618              	.LFB1418:
 3619              		.cfi_startproc
 3620 0000 F30F1EFA 		endbr64
 3621 0004 55       		pushq	%rbp
 3622              		.cfi_def_cfa_offset 16
 3623              		.cfi_offset 6, -16
 3624 0005 488D0500 		leaq	24+_ZTVN8UnitTest15MemoryOutStreamE(%rip), %rax
 3624      000000
 3625 000c 53       		pushq	%rbx
 3626              		.cfi_def_cfa_offset 24
 3627              		.cfi_offset 3, -24
 3628 000d 4889FB   		movq	%rdi, %rbx
 3629 0010 4883EC08 		subq	$8, %rsp
 3630              		.cfi_def_cfa_offset 32
 3631 0014 488907   		movq	%rax, (%rdi)
 3632 0017 4883C028 		addq	$40, %rax
 3633 001b 48898790 		movq	%rax, 144(%rdi)
 3633      000000
 3634 0022 488B7F70 		movq	112(%rdi), %rdi
 3635 0026 488D8380 		leaq	128(%rbx), %rax
 3635      000000
 3636 002d 4839C7   		cmpq	%rax, %rdi
 3637 0030 7405     		je	.L223
 3638 0032 E8000000 		call	_ZdlPv@PLT
 3638      00
 3639              	.L223:
 3640 0037 488D0500 		leaq	64+_ZTCN8UnitTest15MemoryOutStreamE0_NSt7__cxx1119basic_ostringstreamIcSt11char_traitsIcESaIc
 3640      000000
 3641 003e 488D1500 		leaq	24+_ZTCN8UnitTest15MemoryOutStreamE0_NSt7__cxx1119basic_ostringstreamIcSt11char_traitsIcESaIc
 3641      000000
 3642 0045 488B7B50 		movq	80(%rbx), %rdi
 3643 0049 48898390 		movq	%rax, 144(%rbx)
 3643      000000
 3644 0050 488D0500 		leaq	16+_ZTVNSt7__cxx1115basic_stringbufIcSt11char_traitsIcESaIcEEE(%rip), %rax
 3644      000000
 3645 0057 66480F6E 		movq	%rdx, %xmm0
 3645      C2
 3646 005c 488DAB90 		leaq	144(%rbx), %rbp
 3646      000000
 3647 0063 66480F6E 		movq	%rax, %xmm1
 3647      C8
 3648 0068 488D4360 		leaq	96(%rbx), %rax
 3649 006c 660F6CC1 		punpcklqdq	%xmm1, %xmm0
 3650 0070 0F1103   		movups	%xmm0, (%rbx)
 3651 0073 4839C7   		cmpq	%rax, %rdi
 3652 0076 7405     		je	.L224
 3653 0078 E8000000 		call	_ZdlPv@PLT
 3653      00
 3654              	.L224:
 3655 007d 488D0500 		leaq	16+_ZTVSt15basic_streambufIcSt11char_traitsIcEE(%rip), %rax
 3655      000000
 3656 0084 488D7B40 		leaq	64(%rbx), %rdi
 3657 0088 48894308 		movq	%rax, 8(%rbx)
 3658 008c E8000000 		call	_ZNSt6localeD1Ev@PLT
 3658      00
 3659 0091 488D0500 		leaq	24+_ZTCN8UnitTest15MemoryOutStreamE0_So(%rip), %rax
 3659      000000
 3660 0098 4889EF   		movq	%rbp, %rdi
 3661 009b 488903   		movq	%rax, (%rbx)
 3662 009e 488D0500 		leaq	16+_ZTVSt9basic_iosIcSt11char_traitsIcEE(%rip), %rax
 3662      000000
 3663 00a5 48898390 		movq	%rax, 144(%rbx)
 3663      000000
 3664 00ac 4883C408 		addq	$8, %rsp
 3665              		.cfi_def_cfa_offset 24
 3666 00b0 5B       		popq	%rbx
 3667              		.cfi_def_cfa_offset 16
 3668 00b1 5D       		popq	%rbp
 3669              		.cfi_def_cfa_offset 8
 3670 00b2 E9000000 		jmp	_ZNSt8ios_baseD2Ev@PLT
 3670      00
 3671              		.cfi_endproc
 3672              	.LFE1418:
 3674 00b7 660F1F84 		.p2align 4
 3674      00000000 
 3674      00
 3675              		.weak	_ZTv0_n24_N8UnitTest15MemoryOutStreamD1Ev
 3677              	_ZTv0_n24_N8UnitTest15MemoryOutStreamD1Ev:
 3678              	.LFB1661:
 3679              		.cfi_startproc
 3680 00c0 F30F1EFA 		endbr64
 3681 00c4 55       		pushq	%rbp
 3682              		.cfi_def_cfa_offset 16
 3683              		.cfi_offset 6, -16
 3684 00c5 53       		pushq	%rbx
 3685              		.cfi_def_cfa_offset 24
 3686              		.cfi_offset 3, -24
 3687 00c6 4889FB   		movq	%rdi, %rbx
 3688 00c9 4883EC08 		subq	$8, %rsp
 3689              		.cfi_def_cfa_offset 32
 3690 00cd 488B07   		movq	(%rdi), %rax
 3691 00d0 480358E8 		addq	-24(%rax), %rbx
 3692 00d4 488D0500 		leaq	24+_ZTVN8UnitTest15MemoryOutStreamE(%rip), %rax
 3692      000000
 3693 00db 488903   		movq	%rax, (%rbx)
 3694 00de 488B7B70 		movq	112(%rbx), %rdi
 3695 00e2 4883C028 		addq	$40, %rax
 3696 00e6 48898390 		movq	%rax, 144(%rbx)
 3696      000000
 3697 00ed 488D8380 		leaq	128(%rbx), %rax
 3697      000000
 3698 00f4 4839C7   		cmpq	%rax, %rdi
 3699 00f7 7405     		je	.L227
 3700 00f9 E8000000 		call	_ZdlPv@PLT
 3700      00
 3701              	.L227:
 3702 00fe 488D0500 		leaq	64+_ZTCN8UnitTest15MemoryOutStreamE0_NSt7__cxx1119basic_ostringstreamIcSt11char_traitsIcESaIc
 3702      000000
 3703 0105 488D1500 		leaq	24+_ZTCN8UnitTest15MemoryOutStreamE0_NSt7__cxx1119basic_ostringstreamIcSt11char_traitsIcESaIc
 3703      000000
 3704 010c 488B7B50 		movq	80(%rbx), %rdi
 3705 0110 48898390 		movq	%rax, 144(%rbx)
 3705      000000
 3706 0117 488D0500 		leaq	16+_ZTVNSt7__cxx1115basic_stringbufIcSt11char_traitsIcESaIcEEE(%rip), %rax
 3706      000000
 3707 011e 66480F6E 		movq	%rdx, %xmm0
 3707      C2
 3708 0123 488DAB90 		leaq	144(%rbx), %rbp
 3708      000000
 3709 012a 66480F6E 		movq	%rax, %xmm1
 3709      C8
 3710 012f 488D4360 		leaq	96(%rbx), %rax
 3711 0133 660F6CC1 		punpcklqdq	%xmm1, %xmm0
 3712 0137 0F1103   		movups	%xmm0, (%rbx)
 3713 013a 4839C7   		cmpq	%rax, %rdi
 3714 013d 7405     		je	.L228
 3715 013f E8000000 		call	_ZdlPv@PLT
 3715      00
 3716              	.L228:
 3717 0144 488D0500 		leaq	16+_ZTVSt15basic_streambufIcSt11char_traitsIcEE(%rip), %rax
 3717      000000
 3718 014b 488D7B40 		leaq	64(%rbx), %rdi
 3719 014f 48894308 		movq	%rax, 8(%rbx)
 3720 0153 E8000000 		call	_ZNSt6localeD1Ev@PLT
 3720      00
 3721 0158 488D0500 		leaq	24+_ZTCN8UnitTest15MemoryOutStreamE0_So(%rip), %rax
 3721      000000
 3722 015f 4889EF   		movq	%rbp, %rdi
 3723 0162 488903   		movq	%rax, (%rbx)
 3724 0165 488D0500 		leaq	16+_ZTVSt9basic_iosIcSt11char_traitsIcEE(%rip), %rax
 3724      000000
 3725 016c 48898390 		movq	%rax, 144(%rbx)
 3725      000000
 3726 0173 4883C408 		addq	$8, %rsp
 3727              		.cfi_def_cfa_offset 24
 3728 0177 5B       		popq	%rbx
 3729              		.cfi_def_cfa_offset 16
 3730 0178 5D       		popq	%rbp
 3731              		.cfi_def_cfa_offset 8
 3732 0179 E9000000 		jmp	_ZNSt8ios_baseD2Ev@PLT
 3732      00
 3733              		.cfi_endproc
 3734              	.LFE1661:
 3736              		.section	.text._ZN8UnitTest15MemoryOutStreamD0Ev,"axG",@progbits,_ZN8UnitTest15MemoryOutStreamD0Ev
 3737              		.align 2
 3738              		.p2align 4
 3739              		.weak	_ZN8UnitTest15MemoryOutStreamD0Ev
 3741              	_ZN8UnitTest15MemoryOutStreamD0Ev:
 3742              	.LFB1419:
 3743              		.cfi_startproc
 3744              		.cfi_personality 0x9b,DW.ref.__gxx_personality_v0
 3745              		.cfi_lsda 0x1b,.LLSDA1419
 3746 0000 F30F1EFA 		endbr64
 3747 0004 4154     		pushq	%r12
 3748              		.cfi_def_cfa_offset 16
 3749              		.cfi_offset 12, -16
 3750 0006 488D0500 		leaq	24+_ZTVN8UnitTest15MemoryOutStreamE(%rip), %rax
 3750      000000
 3751 000d 55       		pushq	%rbp
 3752              		.cfi_def_cfa_offset 24
 3753              		.cfi_offset 6, -24
 3754 000e 4889FD   		movq	%rdi, %rbp
 3755 0011 4883EC08 		subq	$8, %rsp
 3756              		.cfi_def_cfa_offset 32
 3757 0015 488907   		movq	%rax, (%rdi)
 3758 0018 4883C028 		addq	$40, %rax
 3759 001c 48898790 		movq	%rax, 144(%rdi)
 3759      000000
 3760 0023 488B7F70 		movq	112(%rdi), %rdi
 3761 0027 488D8580 		leaq	128(%rbp), %rax
 3761      000000
 3762 002e 4839C7   		cmpq	%rax, %rdi
 3763 0031 7405     		je	.L231
 3764 0033 E8000000 		call	_ZdlPv@PLT
 3764      00
 3765              	.L231:
 3766 0038 488D0500 		leaq	64+_ZTCN8UnitTest15MemoryOutStreamE0_NSt7__cxx1119basic_ostringstreamIcSt11char_traitsIcESaIc
 3766      000000
 3767 003f 488D1500 		leaq	24+_ZTCN8UnitTest15MemoryOutStreamE0_NSt7__cxx1119basic_ostringstreamIcSt11char_traitsIcESaIc
 3767      000000
 3768 0046 488B7D50 		movq	80(%rbp), %rdi
 3769 004a 48898590 		movq	%rax, 144(%rbp)
 3769      000000
 3770 0051 488D0500 		leaq	16+_ZTVNSt7__cxx1115basic_stringbufIcSt11char_traitsIcESaIcEEE(%rip), %rax
 3770      000000
 3771 0058 66480F6E 		movq	%rdx, %xmm0
 3771      C2
 3772 005d 4C8DA590 		leaq	144(%rbp), %r12
 3772      000000
 3773 0064 66480F6E 		movq	%rax, %xmm1
 3773      C8
 3774 0069 488D4560 		leaq	96(%rbp), %rax
 3775 006d 660F6CC1 		punpcklqdq	%xmm1, %xmm0
 3776 0071 0F114500 		movups	%xmm0, 0(%rbp)
 3777 0075 4839C7   		cmpq	%rax, %rdi
 3778 0078 7405     		je	.L232
 3779 007a E8000000 		call	_ZdlPv@PLT
 3779      00
 3780              	.L232:
 3781 007f 488D0500 		leaq	16+_ZTVSt15basic_streambufIcSt11char_traitsIcEE(%rip), %rax
 3781      000000
 3782 0086 488D7D40 		leaq	64(%rbp), %rdi
 3783 008a 48894508 		movq	%rax, 8(%rbp)
 3784 008e E8000000 		call	_ZNSt6localeD1Ev@PLT
 3784      00
 3785 0093 488D0500 		leaq	24+_ZTCN8UnitTest15MemoryOutStreamE0_So(%rip), %rax
 3785      000000
 3786 009a 4C89E7   		movq	%r12, %rdi
 3787 009d 48894500 		movq	%rax, 0(%rbp)
 3788 00a1 488D0500 		leaq	16+_ZTVSt9basic_iosIcSt11char_traitsIcEE(%rip), %rax
 3788      000000
 3789 00a8 48898590 		movq	%rax, 144(%rbp)
 3789      000000
 3790              	.LEHB88:
 3791 00af E8000000 		call	_ZNSt8ios_baseD2Ev@PLT
 3791      00
 3792              	.LEHE88:
 3793 00b4 4883C408 		addq	$8, %rsp
 3794              		.cfi_remember_state
 3795              		.cfi_def_cfa_offset 24
 3796 00b8 4889EF   		movq	%rbp, %rdi
 3797 00bb 5D       		popq	%rbp
 3798              		.cfi_def_cfa_offset 16
 3799 00bc 415C     		popq	%r12
 3800              		.cfi_def_cfa_offset 8
 3801 00be E9000000 		jmp	_ZdlPv@PLT
 3801      00
 3802              	.L234:
 3803              		.cfi_restore_state
 3804 00c3 F30F1EFA 		endbr64
 3805 00c7 4989C4   		movq	%rax, %r12
 3806              	.L233:
 3807 00ca 4889EF   		movq	%rbp, %rdi
 3808 00cd E8000000 		call	_ZdlPv@PLT
 3808      00
 3809 00d2 4C89E7   		movq	%r12, %rdi
 3810              	.LEHB89:
 3811 00d5 E8000000 		call	_Unwind_Resume@PLT
 3811      00
 3812              	.LEHE89:
 3813              		.cfi_endproc
 3814              	.LFE1419:
 3815              		.section	.gcc_except_table._ZN8UnitTest15MemoryOutStreamD0Ev,"aG",@progbits,_ZN8UnitTest15MemoryOu
 3816              	.LLSDA1419:
 3817 0000 FF       		.byte	0xff
 3818 0001 FF       		.byte	0xff
 3819 0002 01       		.byte	0x1
 3820 0003 0B       		.uleb128 .LLSDACSE1419-.LLSDACSB1419
 3821              	.LLSDACSB1419:
 3822 0004 AF01     		.uleb128 .LEHB88-.LFB1419
 3823 0006 05       		.uleb128 .LEHE88-.LEHB88
 3824 0007 C301     		.uleb128 .L234-.LFB1419
 3825 0009 00       		.uleb128 0
 3826 000a D501     		.uleb128 .LEHB89-.LFB1419
 3827 000c 05       		.uleb128 .LEHE89-.LEHB89
 3828 000d 00       		.uleb128 0
 3829 000e 00       		.uleb128 0
 3830              	.LLSDACSE1419:
 3831              		.section	.text._ZN8UnitTest15MemoryOutStreamD0Ev,"axG",@progbits,_ZN8UnitTest15MemoryOutStreamD0Ev
 3833 00da 660F1F44 		.p2align 4
 3833      0000
 3834              		.weak	_ZTv0_n24_N8UnitTest15MemoryOutStreamD0Ev
 3836              	_ZTv0_n24_N8UnitTest15MemoryOutStreamD0Ev:
 3837              	.LFB1660:
 3838              		.cfi_startproc
 3839              		.cfi_personality 0x9b,DW.ref.__gxx_personality_v0
 3840              		.cfi_lsda 0x1b,.LLSDA1660
 3841 00e0 F30F1EFA 		endbr64
 3842 00e4 4154     		pushq	%r12
 3843              		.cfi_def_cfa_offset 16
 3844              		.cfi_offset 12, -16
 3845 00e6 55       		pushq	%rbp
 3846              		.cfi_def_cfa_offset 24
 3847              		.cfi_offset 6, -24
 3848 00e7 4889FD   		movq	%rdi, %rbp
 3849 00ea 4883EC08 		subq	$8, %rsp
 3850              		.cfi_def_cfa_offset 32
 3851 00ee 488B07   		movq	(%rdi), %rax
 3852 00f1 480368E8 		addq	-24(%rax), %rbp
 3853 00f5 488D0500 		leaq	24+_ZTVN8UnitTest15MemoryOutStreamE(%rip), %rax
 3853      000000
 3854 00fc 48894500 		movq	%rax, 0(%rbp)
 3855 0100 488B7D70 		movq	112(%rbp), %rdi
 3856 0104 4883C028 		addq	$40, %rax
 3857 0108 48898590 		movq	%rax, 144(%rbp)
 3857      000000
 3858 010f 488D8580 		leaq	128(%rbp), %rax
 3858      000000
 3859 0116 4839C7   		cmpq	%rax, %rdi
 3860 0119 7405     		je	.L237
 3861 011b E8000000 		call	_ZdlPv@PLT
 3861      00
 3862              	.L237:
 3863 0120 488D0500 		leaq	64+_ZTCN8UnitTest15MemoryOutStreamE0_NSt7__cxx1119basic_ostringstreamIcSt11char_traitsIcESaIc
 3863      000000
 3864 0127 488D1500 		leaq	24+_ZTCN8UnitTest15MemoryOutStreamE0_NSt7__cxx1119basic_ostringstreamIcSt11char_traitsIcESaIc
 3864      000000
 3865 012e 488B7D50 		movq	80(%rbp), %rdi
 3866 0132 48898590 		movq	%rax, 144(%rbp)
 3866      000000
 3867 0139 488D0500 		leaq	16+_ZTVNSt7__cxx1115basic_stringbufIcSt11char_traitsIcESaIcEEE(%rip), %rax
 3867      000000
 3868 0140 66480F6E 		movq	%rdx, %xmm0
 3868      C2
 3869 0145 4C8DA590 		leaq	144(%rbp), %r12
 3869      000000
 3870 014c 66480F6E 		movq	%rax, %xmm1
 3870      C8
 3871 0151 488D4560 		leaq	96(%rbp), %rax
 3872 0155 660F6CC1 		punpcklqdq	%xmm1, %xmm0
 3873 0159 0F114500 		movups	%xmm0, 0(%rbp)
 3874 015d 4839C7   		cmpq	%rax, %rdi
 3875 0160 7405     		je	.L238
 3876 0162 E8000000 		call	_ZdlPv@PLT
 3876      00
 3877              	.L238:
 3878 0167 488D0500 		leaq	16+_ZTVSt15basic_streambufIcSt11char_traitsIcEE(%rip), %rax
 3878      000000
 3879 016e 488D7D40 		leaq	64(%rbp), %rdi
 3880 0172 48894508 		movq	%rax, 8(%rbp)
 3881 0176 E8000000 		call	_ZNSt6localeD1Ev@PLT
 3881      00
 3882 017b 488D0500 		leaq	24+_ZTCN8UnitTest15MemoryOutStreamE0_So(%rip), %rax
 3882      000000
 3883 0182 4C89E7   		movq	%r12, %rdi
 3884 0185 48894500 		movq	%rax, 0(%rbp)
 3885 0189 488D0500 		leaq	16+_ZTVSt9basic_iosIcSt11char_traitsIcEE(%rip), %rax
 3885      000000
 3886 0190 48898590 		movq	%rax, 144(%rbp)
 3886      000000
 3887              	.LEHB90:
 3888 0197 E8000000 		call	_ZNSt8ios_baseD2Ev@PLT
 3888      00
 3889              	.LEHE90:
 3890 019c 4883C408 		addq	$8, %rsp
 3891              		.cfi_remember_state
 3892              		.cfi_def_cfa_offset 24
 3893 01a0 4889EF   		movq	%rbp, %rdi
 3894 01a3 5D       		popq	%rbp
 3895              		.cfi_def_cfa_offset 16
 3896 01a4 415C     		popq	%r12
 3897              		.cfi_def_cfa_offset 8
 3898 01a6 E9000000 		jmp	_ZdlPv@PLT
 3898      00
 3899              	.L240:
 3900              		.cfi_restore_state
 3901 01ab F30F1EFA 		endbr64
 3902 01af 4989C4   		movq	%rax, %r12
 3903              	.L239:
 3904 01b2 4889EF   		movq	%rbp, %rdi
 3905 01b5 E8000000 		call	_ZdlPv@PLT
 3905      00
 3906 01ba 4C89E7   		movq	%r12, %rdi
 3907              	.LEHB91:
 3908 01bd E8000000 		call	_Unwind_Resume@PLT
 3908      00
 3909              	.LEHE91:
 3910              		.cfi_endproc
 3911              	.LFE1660:
 3912              		.section	.gcc_except_table._ZTv0_n24_N8UnitTest15MemoryOutStreamD0Ev,"aG",@progbits,_ZN8UnitTest15
 3913              	.LLSDA1660:
 3914 0000 FF       		.byte	0xff
 3915 0001 FF       		.byte	0xff
 3916 0002 01       		.byte	0x1
 3917 0003 0B       		.uleb128 .LLSDACSE1660-.LLSDACSB1660
 3918              	.LLSDACSB1660:
 3919 0004 B701     		.uleb128 .LEHB90-.LFB1660
 3920 0006 05       		.uleb128 .LEHE90-.LEHB90
 3921 0007 CB01     		.uleb128 .L240-.LFB1660
 3922 0009 00       		.uleb128 0
 3923 000a DD01     		.uleb128 .LEHB91-.LFB1660
 3924 000c 05       		.uleb128 .LEHE91-.LEHB91
 3925 000d 00       		.uleb128 0
 3926 000e 00       		.uleb128 0
 3927              	.LLSDACSE1660:
 3928              		.section	.text._ZN8UnitTest15MemoryOutStreamD0Ev,"axG",@progbits,_ZN8UnitTest15MemoryOutStreamD0Ev
 3930              		.section	.text._ZNSt7__cxx1115basic_stringbufIcSt11char_traitsIcESaIcEED2Ev,"axG",@progbits,_ZNSt7
 3931              		.align 2
 3932              		.p2align 4
 3933              		.weak	_ZNSt7__cxx1115basic_stringbufIcSt11char_traitsIcESaIcEED2Ev
 3935              	_ZNSt7__cxx1115basic_stringbufIcSt11char_traitsIcESaIcEED2Ev:
 3936              	.LFB1397:
 3937              		.cfi_startproc
 3938 0000 F30F1EFA 		endbr64
 3939 0004 488D0500 		leaq	16+_ZTVNSt7__cxx1115basic_stringbufIcSt11char_traitsIcESaIcEEE(%rip), %rax
 3939      000000
 3940 000b 53       		pushq	%rbx
 3941              		.cfi_def_cfa_offset 16
 3942              		.cfi_offset 3, -16
 3943 000c 4889FB   		movq	%rdi, %rbx
 3944 000f 488907   		movq	%rax, (%rdi)
 3945 0012 488B7F48 		movq	72(%rdi), %rdi
 3946 0016 488D4358 		leaq	88(%rbx), %rax
 3947 001a 4839C7   		cmpq	%rax, %rdi
 3948 001d 7405     		je	.L243
 3949 001f E8000000 		call	_ZdlPv@PLT
 3949      00
 3950              	.L243:
 3951 0024 488D0500 		leaq	16+_ZTVSt15basic_streambufIcSt11char_traitsIcEE(%rip), %rax
 3951      000000
 3952 002b 488D7B38 		leaq	56(%rbx), %rdi
 3953 002f 488903   		movq	%rax, (%rbx)
 3954 0032 5B       		popq	%rbx
 3955              		.cfi_def_cfa_offset 8
 3956 0033 E9000000 		jmp	_ZNSt6localeD1Ev@PLT
 3956      00
 3957              		.cfi_endproc
 3958              	.LFE1397:
 3960              		.weak	_ZNSt7__cxx1115basic_stringbufIcSt11char_traitsIcESaIcEED1Ev
 3961              		.set	_ZNSt7__cxx1115basic_stringbufIcSt11char_traitsIcESaIcEED1Ev,_ZNSt7__cxx1115basic_stringbufIc
 3962              		.section	.rodata.str1.1,"aMS",@progbits,1
 3963              	.LC0:
 3964 0000 45787065 		.string	"Expected "
 3964      63746564 
 3964      2000
 3965              	.LC1:
 3966 000a 20627574 		.string	" but was "
 3966      20776173 
 3966      2000
 3967              		.section	.text.unlikely,"ax",@progbits
 3968              	.LCOLDB5:
 3969              		.text
 3970              	.LHOTB5:
 3971              		.p2align 4
 3973              	_ZN8UnitTest10CheckEqualI12BufferStatusS1_EEvRNS_11TestResultsERKT_RKT0_RKNS_11TestDetailsE.constpr
 3974              	.LFB1665:
 3975              		.cfi_startproc
 3976              		.cfi_personality 0x9b,DW.ref.__gxx_personality_v0
 3977              		.cfi_lsda 0x1b,.LLSDA1665
 3978 0000 4157     		pushq	%r15
 3979              		.cfi_def_cfa_offset 16
 3980              		.cfi_offset 15, -16
 3981 0002 4156     		pushq	%r14
 3982              		.cfi_def_cfa_offset 24
 3983              		.cfi_offset 14, -24
 3984 0004 4155     		pushq	%r13
 3985              		.cfi_def_cfa_offset 32
 3986              		.cfi_offset 13, -32
 3987 0006 4154     		pushq	%r12
 3988              		.cfi_def_cfa_offset 40
 3989              		.cfi_offset 12, -40
 3990 0008 55       		pushq	%rbp
 3991              		.cfi_def_cfa_offset 48
 3992              		.cfi_offset 6, -48
 3993 0009 53       		pushq	%rbx
 3994              		.cfi_def_cfa_offset 56
 3995              		.cfi_offset 3, -56
 3996 000a 4881ECD8 		subq	$472, %rsp
 3996      010000
 3997              		.cfi_def_cfa_offset 528
 3998 0011 F30F7E0D 		movq	.LC2(%rip), %xmm1
 3998      00000000 
 3999 0019 48894C24 		movq	%rcx, 32(%rsp)
 3999      20
 4000 001e 8B0A     		movl	(%rdx), %ecx
 4001 0020 48897C24 		movq	%rdi, 16(%rsp)
 4001      10
 4002 0025 0F160D00 		movhps	.LC3(%rip), %xmm1
 4002      000000
 4003 002c 64488B04 		movq	%fs:40, %rax
 4003      25280000 
 4003      00
 4004 0035 48898424 		movq	%rax, 456(%rsp)
 4004      C8010000 
 4005 003d 31C0     		xorl	%eax, %eax
 4006 003f 0F290C24 		movaps	%xmm1, (%rsp)
 4007 0043 85C9     		testl	%ecx, %ecx
 4008 0045 7529     		jne	.L261
 4009              	.L245:
 4010 0047 488B8424 		movq	456(%rsp), %rax
 4010      C8010000 
 4011 004f 64482B04 		subq	%fs:40, %rax
 4011      25280000 
 4011      00
 4012 0058 0F854702 		jne	.L262
 4012      0000
 4013 005e 4881C4D8 		addq	$472, %rsp
 4013      010000
 4014              		.cfi_remember_state
 4015              		.cfi_def_cfa_offset 56
 4016 0065 5B       		popq	%rbx
 4017              		.cfi_def_cfa_offset 48
 4018 0066 5D       		popq	%rbp
 4019              		.cfi_def_cfa_offset 40
 4020 0067 415C     		popq	%r12
 4021              		.cfi_def_cfa_offset 32
 4022 0069 415D     		popq	%r13
 4023              		.cfi_def_cfa_offset 24
 4024 006b 415E     		popq	%r14
 4025              		.cfi_def_cfa_offset 16
 4026 006d 415F     		popq	%r15
 4027              		.cfi_def_cfa_offset 8
 4028 006f C3       		ret
 4029              		.p2align 4,,10
 4030              		.p2align 3
 4031              	.L261:
 4032              		.cfi_restore_state
 4033 0070 4C8DAC24 		leaq	192(%rsp), %r13
 4033      C0000000 
 4034 0078 4889F5   		movq	%rsi, %rbp
 4035 007b 4889D3   		movq	%rdx, %rbx
 4036 007e 4C89EF   		movq	%r13, %rdi
 4037 0081 E8000000 		call	_ZNSt8ios_baseC2Ev@PLT
 4037      00
 4038 0086 31C0     		xorl	%eax, %eax
 4039 0088 660FEFC0 		pxor	%xmm0, %xmm0
 4040 008c 31F6     		xorl	%esi, %esi
 4041 008e 66898424 		movw	%ax, 416(%rsp)
 4041      A0010000 
 4042 0096 488D0500 		leaq	24+_ZTCN8UnitTest15MemoryOutStreamE0_So(%rip), %rax
 4042      000000
 4043 009d 4C89EF   		movq	%r13, %rdi
 4044 00a0 48894424 		movq	%rax, 48(%rsp)
 4044      30
 4045 00a5 4883C028 		addq	$40, %rax
 4046 00a9 48C78424 		movq	$0, 408(%rsp)
 4046      98010000 
 4046      00000000 
 4047 00b5 48898424 		movq	%rax, 192(%rsp)
 4047      C0000000 
 4048 00bd 0F118424 		movups	%xmm0, 424(%rsp)
 4048      A8010000 
 4049 00c5 0F118424 		movups	%xmm0, 440(%rsp)
 4049      B8010000 
 4050              	.LEHB92:
 4051 00cd E8000000 		call	_ZNSt9basic_iosIcSt11char_traitsIcEE4initEPSt15basic_streambufIcS1_E@PLT
 4051      00
 4052              	.LEHE92:
 4053 00d2 660F6F0C 		movdqa	(%rsp), %xmm1
 4053      24
 4054 00d7 4C8D7424 		leaq	112(%rsp), %r14
 4054      70
 4055 00dc 660FEFC0 		pxor	%xmm0, %xmm0
 4056 00e0 488D0500 		leaq	64+_ZTCN8UnitTest15MemoryOutStreamE0_NSt7__cxx1119basic_ostringstreamIcSt11char_traitsIcESaIc
 4056      000000
 4057 00e7 4C89F7   		movq	%r14, %rdi
 4058 00ea 0F294424 		movaps	%xmm0, 64(%rsp)
 4058      40
 4059 00ef 4C8D6424 		leaq	48(%rsp), %r12
 4059      30
 4060 00f4 4C8D7C24 		leaq	56(%rsp), %r15
 4060      38
 4061 00f9 48898424 		movq	%rax, 192(%rsp)
 4061      C0000000 
 4062 0101 0F294C24 		movaps	%xmm1, 48(%rsp)
 4062      30
 4063 0106 0F294424 		movaps	%xmm0, 80(%rsp)
 4063      50
 4064 010b 0F294424 		movaps	%xmm0, 96(%rsp)
 4064      60
 4065 0110 E8000000 		call	_ZNSt6localeC1Ev@PLT
 4065      00
 4066 0115 488D0500 		leaq	16+_ZTVNSt7__cxx1115basic_stringbufIcSt11char_traitsIcESaIcEEE(%rip), %rax
 4066      000000
 4067 011c 4C89FE   		movq	%r15, %rsi
 4068 011f 48C78424 		movq	$0, 136(%rsp)
 4068      88000000 
 4068      00000000 
 4069 012b 48894424 		movq	%rax, 56(%rsp)
 4069      38
 4070 0130 488D8424 		leaq	144(%rsp), %rax
 4070      90000000 
 4071 0138 48890424 		movq	%rax, (%rsp)
 4072 013c 48898424 		movq	%rax, 128(%rsp)
 4072      80000000 
 4073 0144 488B4424 		movq	48(%rsp), %rax
 4073      30
 4074 0149 C6842490 		movb	$0, 144(%rsp)
 4074      00000000 
 4075 0151 488B78E8 		movq	-24(%rax), %rdi
 4076 0155 C7442478 		movl	$16, 120(%rsp)
 4076      10000000 
 4077 015d 4C01E7   		addq	%r12, %rdi
 4078              	.LEHB93:
 4079 0160 E8000000 		call	_ZNSt9basic_iosIcSt11char_traitsIcEE4initEPSt15basic_streambufIcS1_E@PLT
 4079      00
 4080              	.LEHE93:
 4081 0165 4C8D3D00 		leaq	24+_ZTVN8UnitTest15MemoryOutStreamE(%rip), %r15
 4081      000000
 4082 016c BA090000 		movl	$9, %edx
 4082      00
 4083 0171 4C89E7   		movq	%r12, %rdi
 4084 0174 48C78424 		movq	$0, 168(%rsp)
 4084      A8000000 
 4084      00000000 
 4085 0180 498D4728 		leaq	40(%r15), %rax
 4086 0184 488D3500 		leaq	.LC0(%rip), %rsi
 4086      000000
 4087 018b 4C897C24 		movq	%r15, 48(%rsp)
 4087      30
 4088 0190 48898424 		movq	%rax, 192(%rsp)
 4088      C0000000 
 4089 0198 488D8424 		leaq	176(%rsp), %rax
 4089      B0000000 
 4090 01a0 48894424 		movq	%rax, 40(%rsp)
 4090      28
 4091 01a5 48898424 		movq	%rax, 160(%rsp)
 4091      A0000000 
 4092 01ad C68424B0 		movb	$0, 176(%rsp)
 4092      00000000 
 4093              	.LEHB94:
 4094 01b5 E8000000 		call	_ZSt16__ostream_insertIcSt11char_traitsIcEERSt13basic_ostreamIT_T0_ES6_PKS3_l@PLT
 4094      00
 4095 01ba 8B7500   		movl	0(%rbp), %esi
 4096 01bd 4C89E7   		movq	%r12, %rdi
 4097 01c0 E8000000 		call	_ZNSolsEi@PLT
 4097      00
 4098 01c5 BA090000 		movl	$9, %edx
 4098      00
 4099 01ca 488D3500 		leaq	.LC1(%rip), %rsi
 4099      000000
 4100 01d1 4889C7   		movq	%rax, %rdi
 4101 01d4 4889C5   		movq	%rax, %rbp
 4102 01d7 E8000000 		call	_ZSt16__ostream_insertIcSt11char_traitsIcEERSt13basic_ostreamIT_T0_ES6_PKS3_l@PLT
 4102      00
 4103 01dc 8B33     		movl	(%rbx), %esi
 4104 01de 4889EF   		movq	%rbp, %rdi
 4105 01e1 E8000000 		call	_ZNSolsEi@PLT
 4105      00
 4106 01e6 4C89E7   		movq	%r12, %rdi
 4107 01e9 E8000000 		call	_ZNK8UnitTest15MemoryOutStream7GetTextEv@PLT
 4107      00
 4108 01ee 488B7424 		movq	32(%rsp), %rsi
 4108      20
 4109 01f3 488B7C24 		movq	16(%rsp), %rdi
 4109      10
 4110 01f8 4889C2   		movq	%rax, %rdx
 4111 01fb E8000000 		call	_ZN8UnitTest11TestResults13OnTestFailureERKNS_11TestDetailsEPKc@PLT
 4111      00
 4112              	.LEHE94:
 4113 0200 F30F7E05 		movq	.LC2(%rip), %xmm0
 4113      00000000 
 4114 0208 488D0500 		leaq	64+_ZTVN8UnitTest15MemoryOutStreamE(%rip), %rax
 4114      000000
 4115 020f 4C897C24 		movq	%r15, 48(%rsp)
 4115      30
 4116 0214 48898424 		movq	%rax, 192(%rsp)
 4116      C0000000 
 4117 021c 488BBC24 		movq	160(%rsp), %rdi
 4117      A0000000 
 4118 0224 0F160500 		movhps	.LC4(%rip), %xmm0
 4118      000000
 4119 022b 483B7C24 		cmpq	40(%rsp), %rdi
 4119      28
 4120 0230 7410     		je	.L251
 4121 0232 0F294424 		movaps	%xmm0, 16(%rsp)
 4121      10
 4122 0237 E8000000 		call	_ZdlPv@PLT
 4122      00
 4123 023c 660F6F44 		movdqa	16(%rsp), %xmm0
 4123      2410
 4124              	.L251:
 4125 0242 488D0500 		leaq	64+_ZTCN8UnitTest15MemoryOutStreamE0_NSt7__cxx1119basic_ostringstreamIcSt11char_traitsIcESaIc
 4125      000000
 4126 0249 488BBC24 		movq	128(%rsp), %rdi
 4126      80000000 
 4127 0251 0F294424 		movaps	%xmm0, 48(%rsp)
 4127      30
 4128 0256 48898424 		movq	%rax, 192(%rsp)
 4128      C0000000 
 4129 025e 483B3C24 		cmpq	(%rsp), %rdi
 4130 0262 7405     		je	.L252
 4131 0264 E8000000 		call	_ZdlPv@PLT
 4131      00
 4132              	.L252:
 4133 0269 488D0500 		leaq	16+_ZTVSt15basic_streambufIcSt11char_traitsIcEE(%rip), %rax
 4133      000000
 4134 0270 4C89F7   		movq	%r14, %rdi
 4135 0273 48894424 		movq	%rax, 56(%rsp)
 4135      38
 4136 0278 E8000000 		call	_ZNSt6localeD1Ev@PLT
 4136      00
 4137 027d 488D0500 		leaq	24+_ZTCN8UnitTest15MemoryOutStreamE0_So(%rip), %rax
 4137      000000
 4138 0284 4C89EF   		movq	%r13, %rdi
 4139 0287 48894424 		movq	%rax, 48(%rsp)
 4139      30
 4140 028c 488D0500 		leaq	16+_ZTVSt9basic_iosIcSt11char_traitsIcEE(%rip), %rax
 4140      000000
 4141 0293 48898424 		movq	%rax, 192(%rsp)
 4141      C0000000 
 4142              	.LEHB95:
 4143 029b E8000000 		call	_ZNSt8ios_baseD2Ev@PLT
 4143      00
 4144              	.LEHE95:
 4145 02a0 E9A2FDFF 		jmp	.L245
 4145      FF
 4146              	.L262:
 4147 02a5 E8000000 		call	__stack_chk_fail@PLT
 4147      00
 4148              	.L256:
 4149 02aa F30F1EFA 		endbr64
 4150 02ae 4889C5   		movq	%rax, %rbp
 4151 02b1 E9000000 		jmp	.L249
 4151      00
 4152              	.L257:
 4153 02b6 F30F1EFA 		endbr64
 4154 02ba 4889C5   		movq	%rax, %rbp
 4155 02bd E9000000 		jmp	.L248
 4155      00
 4156              	.L255:
 4157 02c2 F30F1EFA 		endbr64
 4158 02c6 4889C5   		movq	%rax, %rbp
 4159 02c9 E9000000 		jmp	.L253
 4159      00
 4160              		.section	.gcc_except_table,"a",@progbits
 4161              	.LLSDA1665:
 4162 0000 FF       		.byte	0xff
 4163 0001 FF       		.byte	0xff
 4164 0002 01       		.byte	0x1
 4165 0003 17       		.uleb128 .LLSDACSE1665-.LLSDACSB1665
 4166              	.LLSDACSB1665:
 4167 0004 CD01     		.uleb128 .LEHB92-.LFB1665
 4168 0006 05       		.uleb128 .LEHE92-.LEHB92
 4169 0007 AA05     		.uleb128 .L256-.LFB1665
 4170 0009 00       		.uleb128 0
 4171 000a E002     		.uleb128 .LEHB93-.LFB1665
 4172 000c 05       		.uleb128 .LEHE93-.LEHB93
 4173 000d B605     		.uleb128 .L257-.LFB1665
 4174 000f 00       		.uleb128 0
 4175 0010 B503     		.uleb128 .LEHB94-.LFB1665
 4176 0012 4B       		.uleb128 .LEHE94-.LEHB94
 4177 0013 C205     		.uleb128 .L255-.LFB1665
 4178 0015 00       		.uleb128 0
 4179 0016 9B05     		.uleb128 .LEHB95-.LFB1665
 4180 0018 05       		.uleb128 .LEHE95-.LEHB95
 4181 0019 00       		.uleb128 0
 4182 001a 00       		.uleb128 0
 4183              	.LLSDACSE1665:
 4184              		.text
 4185              		.cfi_endproc
 4186              		.section	.text.unlikely
 4187              		.cfi_startproc
 4188              		.cfi_personality 0x9b,DW.ref.__gxx_personality_v0
 4189              		.cfi_lsda 0x1b,.LLSDAC1665
 4191              	_ZN8UnitTest10CheckEqualI12BufferStatusS1_EEvRNS_11TestResultsERKT_RKT0_RKNS_11TestDetailsE.constpr
 4192              	.LFSB1665:
 4193              	.L248:
 4194              		.cfi_def_cfa_offset 528
 4195              		.cfi_offset 3, -56
 4196              		.cfi_offset 6, -48
 4197              		.cfi_offset 12, -40
 4198              		.cfi_offset 13, -32
 4199              		.cfi_offset 14, -24
 4200              		.cfi_offset 15, -16
 4201 0000 4C89FF   		movq	%r15, %rdi
 4202 0003 E8000000 		call	_ZNSt7__cxx1115basic_stringbufIcSt11char_traitsIcESaIcEED1Ev
 4202      00
 4203 0008 488D0500 		leaq	24+_ZTCN8UnitTest15MemoryOutStreamE0_So(%rip), %rax
 4203      000000
 4204 000f 48894424 		movq	%rax, 48(%rsp)
 4204      30
 4205              	.L249:
 4206 0014 488D0500 		leaq	16+_ZTVSt9basic_iosIcSt11char_traitsIcEE(%rip), %rax
 4206      000000
 4207 001b 4C89EF   		movq	%r13, %rdi
 4208 001e 48898424 		movq	%rax, 192(%rsp)
 4208      C0000000 
 4209 0026 E8000000 		call	_ZNSt8ios_baseD2Ev@PLT
 4209      00
 4210 002b 4889EF   		movq	%rbp, %rdi
 4211              	.LEHB96:
 4212 002e E8000000 		call	_Unwind_Resume@PLT
 4212      00
 4213              	.LEHE96:
 4214              	.L253:
 4215 0033 4C89E7   		movq	%r12, %rdi
 4216 0036 E8000000 		call	_ZN8UnitTest15MemoryOutStreamD1Ev
 4216      00
 4217 003b 4889EF   		movq	%rbp, %rdi
 4218              	.LEHB97:
 4219 003e E8000000 		call	_Unwind_Resume@PLT
 4219      00
 4220              	.LEHE97:
 4221              		.cfi_endproc
 4222              	.LFE1665:
 4223              		.section	.gcc_except_table
 4224              	.LLSDAC1665:
 4225 001b FF       		.byte	0xff
 4226 001c FF       		.byte	0xff
 4227 001d 01       		.byte	0x1
 4228 001e 08       		.uleb128 .LLSDACSEC1665-.LLSDACSBC1665
 4229              	.LLSDACSBC1665:
 4230 001f 2E       		.uleb128 .LEHB96-.LCOLDB5
 4231 0020 05       		.uleb128 .LEHE96-.LEHB96
 4232 0021 00       		.uleb128 0
 4233 0022 00       		.uleb128 0
 4234 0023 3E       		.uleb128 .LEHB97-.LCOLDB5
 4235 0024 05       		.uleb128 .LEHE97-.LEHB97
 4236 0025 00       		.uleb128 0
 4237 0026 00       		.uleb128 0
 4238              	.LLSDACSEC1665:
 4239              		.section	.text.unlikely
 4240              		.text
 4242              		.section	.text.unlikely
 4244              	.LCOLDE5:
 4245              		.text
 4246              	.LHOTE5:
 4247              		.section	.rodata.str1.1
 4248              	.LC6:
 4249 0014 45787065 		.string	"Expected [ "
 4249      63746564 
 4249      205B2000 
 4250              	.LC7:
 4251 0020 2000     		.string	" "
 4252              	.LC8:
 4253 0022 5D206275 		.string	"] but was [ "
 4253      74207761 
 4253      73205B20 
 4253      00
 4254              	.LC9:
 4255 002f 5D00     		.string	"]"
 4256              		.section	.text.unlikely
 4257              	.LCOLDB10:
 4258              		.text
 4259              	.LHOTB10:
 4260 02ce 6690     		.p2align 4
 4262              	_ZN8UnitTest15CheckArrayEqualIA8_hPhEEvRNS_11TestResultsERKT_RKT0_iRKNS_11TestDetailsE.constprop.0:
 4263              	.LFB1666:
 4264              		.cfi_startproc
 4265              		.cfi_personality 0x9b,DW.ref.__gxx_personality_v0
 4266              		.cfi_lsda 0x1b,.LLSDA1666
 4267 02d0 4157     		pushq	%r15
 4268              		.cfi_def_cfa_offset 16
 4269              		.cfi_offset 15, -16
 4270 02d2 4156     		pushq	%r14
 4271              		.cfi_def_cfa_offset 24
 4272              		.cfi_offset 14, -24
 4273 02d4 4155     		pushq	%r13
 4274              		.cfi_def_cfa_offset 32
 4275              		.cfi_offset 13, -32
 4276 02d6 4154     		pushq	%r12
 4277              		.cfi_def_cfa_offset 40
 4278              		.cfi_offset 12, -40
 4279 02d8 4989D4   		movq	%rdx, %r12
 4280 02db 55       		pushq	%rbp
 4281              		.cfi_def_cfa_offset 48
 4282              		.cfi_offset 6, -48
 4283 02dc 53       		pushq	%rbx
 4284              		.cfi_def_cfa_offset 56
 4285              		.cfi_offset 3, -56
 4286 02dd 4889F3   		movq	%rsi, %rbx
 4287 02e0 4881ECF8 		subq	$504, %rsp
 4287      010000
 4288              		.cfi_def_cfa_offset 560
 4289 02e7 488B12   		movq	(%rdx), %rdx
 4290 02ea F30F7E0D 		movq	.LC2(%rip), %xmm1
 4290      00000000 
 4291 02f2 48894C24 		movq	%rcx, 32(%rsp)
 4291      20
 4292 02f7 48897C24 		movq	%rdi, 24(%rsp)
 4292      18
 4293 02fc 0FB64A02 		movzbl	2(%rdx), %ecx
 4294 0300 0F160D00 		movhps	.LC3(%rip), %xmm1
 4294      000000
 4295 0307 64488B04 		movq	%fs:40, %rax
 4295      25280000 
 4295      00
 4296 0310 48898424 		movq	%rax, 488(%rsp)
 4296      E8010000 
 4297 0318 31C0     		xorl	%eax, %eax
 4298 031a 0FB64201 		movzbl	1(%rdx), %eax
 4299 031e 384601   		cmpb	%al, 1(%rsi)
 4300 0321 0F290C24 		movaps	%xmm1, (%rsp)
 4301 0325 0F94C0   		sete	%al
 4302 0328 384E02   		cmpb	%cl, 2(%rsi)
 4303 032b 0F94C1   		sete	%cl
 4304 032e 21C8     		andl	%ecx, %eax
 4305 0330 0FB60E   		movzbl	(%rsi), %ecx
 4306 0333 380A     		cmpb	%cl, (%rdx)
 4307 0335 0F94C1   		sete	%cl
 4308 0338 0FB67203 		movzbl	3(%rdx), %esi
 4309 033c 21C8     		andl	%ecx, %eax
 4310 033e 40387303 		cmpb	%sil, 3(%rbx)
 4311 0342 0FB67305 		movzbl	5(%rbx), %esi
 4312 0346 0F94C1   		sete	%cl
 4313 0349 21C8     		andl	%ecx, %eax
 4314 034b 0FB64A04 		movzbl	4(%rdx), %ecx
 4315 034f 384B04   		cmpb	%cl, 4(%rbx)
 4316 0352 0F94C1   		sete	%cl
 4317 0355 21C8     		andl	%ecx, %eax
 4318 0357 40387205 		cmpb	%sil, 5(%rdx)
 4319 035b 0F94C1   		sete	%cl
 4320 035e 21C8     		andl	%ecx, %eax
 4321 0360 0FB64A06 		movzbl	6(%rdx), %ecx
 4322 0364 384B06   		cmpb	%cl, 6(%rbx)
 4323 0367 0F94C1   		sete	%cl
 4324 036a 84C8     		testb	%cl, %al
 4325 036c 7432     		je	.L279
 4326 036e 0FB64207 		movzbl	7(%rdx), %eax
 4327 0372 384307   		cmpb	%al, 7(%rbx)
 4328 0375 7529     		jne	.L279
 4329              	.L263:
 4330 0377 488B8424 		movq	488(%rsp), %rax
 4330      E8010000 
 4331 037f 64482B04 		subq	%fs:40, %rax
 4331      25280000 
 4331      00
 4332 0388 0F85E102 		jne	.L288
 4332      0000
 4333 038e 4881C4F8 		addq	$504, %rsp
 4333      010000
 4334              		.cfi_remember_state
 4335              		.cfi_def_cfa_offset 56
 4336 0395 5B       		popq	%rbx
 4337              		.cfi_def_cfa_offset 48
 4338 0396 5D       		popq	%rbp
 4339              		.cfi_def_cfa_offset 40
 4340 0397 415C     		popq	%r12
 4341              		.cfi_def_cfa_offset 32
 4342 0399 415D     		popq	%r13
 4343              		.cfi_def_cfa_offset 24
 4344 039b 415E     		popq	%r14
 4345              		.cfi_def_cfa_offset 16
 4346 039d 415F     		popq	%r15
 4347              		.cfi_def_cfa_offset 8
 4348 039f C3       		ret
 4349              		.p2align 4,,10
 4350              		.p2align 3
 4351              	.L279:
 4352              		.cfi_restore_state
 4353 03a0 4C8DBC24 		leaq	224(%rsp), %r15
 4353      E0000000 
 4354 03a8 4C89FF   		movq	%r15, %rdi
 4355 03ab 4C897C24 		movq	%r15, 40(%rsp)
 4355      28
 4356 03b0 E8000000 		call	_ZNSt8ios_baseC2Ev@PLT
 4356      00
 4357 03b5 31C0     		xorl	%eax, %eax
 4358 03b7 660FEFC0 		pxor	%xmm0, %xmm0
 4359 03bb 31F6     		xorl	%esi, %esi
 4360 03bd 66898424 		movw	%ax, 448(%rsp)
 4360      C0010000 
 4361 03c5 488D0500 		leaq	24+_ZTCN8UnitTest15MemoryOutStreamE0_So(%rip), %rax
 4361      000000
 4362 03cc 4C89FF   		movq	%r15, %rdi
 4363 03cf 48894424 		movq	%rax, 80(%rsp)
 4363      50
 4364 03d4 4883C028 		addq	$40, %rax
 4365 03d8 48C78424 		movq	$0, 440(%rsp)
 4365      B8010000 
 4365      00000000 
 4366 03e4 48898424 		movq	%rax, 224(%rsp)
 4366      E0000000 
 4367 03ec 0F118424 		movups	%xmm0, 456(%rsp)
 4367      C8010000 
 4368 03f4 0F118424 		movups	%xmm0, 472(%rsp)
 4368      D8010000 
 4369              	.LEHB98:
 4370 03fc E8000000 		call	_ZNSt9basic_iosIcSt11char_traitsIcEE4initEPSt15basic_streambufIcS1_E@PLT
 4370      00
 4371              	.LEHE98:
 4372 0401 488D0500 		leaq	64+_ZTCN8UnitTest15MemoryOutStreamE0_NSt7__cxx1119basic_ostringstreamIcSt11char_traitsIcESaIc
 4372      000000
 4373 0408 660F6F14 		movdqa	(%rsp), %xmm2
 4373      24
 4374 040d 660FEFC0 		pxor	%xmm0, %xmm0
 4375 0411 488D6C24 		leaq	80(%rsp), %rbp
 4375      50
 4376 0416 48898424 		movq	%rax, 224(%rsp)
 4376      E0000000 
 4377 041e 488D8424 		leaq	144(%rsp), %rax
 4377      90000000 
 4378 0426 4C8D6C24 		leaq	88(%rsp), %r13
 4378      58
 4379 042b 4889C7   		movq	%rax, %rdi
 4380 042e 48894424 		movq	%rax, 48(%rsp)
 4380      30
 4381 0433 0F295424 		movaps	%xmm2, 80(%rsp)
 4381      50
 4382 0438 0F294424 		movaps	%xmm0, 96(%rsp)
 4382      60
 4383 043d 0F294424 		movaps	%xmm0, 112(%rsp)
 4383      70
 4384 0442 0F298424 		movaps	%xmm0, 128(%rsp)
 4384      80000000 
 4385 044a E8000000 		call	_ZNSt6localeC1Ev@PLT
 4385      00
 4386 044f 488D0500 		leaq	16+_ZTVNSt7__cxx1115basic_stringbufIcSt11char_traitsIcESaIcEEE(%rip), %rax
 4386      000000
 4387 0456 C68424B0 		movb	$0, 176(%rsp)
 4387      00000000 
 4388 045e 4C89EE   		movq	%r13, %rsi
 4389 0461 48894424 		movq	%rax, 88(%rsp)
 4389      58
 4390 0466 488D8424 		leaq	176(%rsp), %rax
 4390      B0000000 
 4391 046e 48894424 		movq	%rax, 56(%rsp)
 4391      38
 4392 0473 48898424 		movq	%rax, 160(%rsp)
 4392      A0000000 
 4393 047b 488B4424 		movq	80(%rsp), %rax
 4393      50
 4394 0480 48C78424 		movq	$0, 168(%rsp)
 4394      A8000000 
 4394      00000000 
 4395 048c C7842498 		movl	$16, 152(%rsp)
 4395      00000010 
 4395      000000
 4396 0497 488B78E8 		movq	-24(%rax), %rdi
 4397 049b 4801EF   		addq	%rbp, %rdi
 4398              	.LEHB99:
 4399 049e E8000000 		call	_ZNSt9basic_iosIcSt11char_traitsIcEE4initEPSt15basic_streambufIcS1_E@PLT
 4399      00
 4400              	.LEHE99:
 4401 04a3 488D0500 		leaq	24+_ZTVN8UnitTest15MemoryOutStreamE(%rip), %rax
 4401      000000
 4402 04aa BA0B0000 		movl	$11, %edx
 4402      00
 4403 04af 4889EF   		movq	%rbp, %rdi
 4404 04b2 48C78424 		movq	$0, 200(%rsp)
 4404      C8000000 
 4404      00000000 
 4405 04be 48894424 		movq	%rax, 80(%rsp)
 4405      50
 4406 04c3 4883C028 		addq	$40, %rax
 4407 04c7 488D3500 		leaq	.LC6(%rip), %rsi
 4407      000000
 4408 04ce 48898424 		movq	%rax, 224(%rsp)
 4408      E0000000 
 4409 04d6 488D8424 		leaq	208(%rsp), %rax
 4409      D0000000 
 4410 04de 48890424 		movq	%rax, (%rsp)
 4411 04e2 48898424 		movq	%rax, 192(%rsp)
 4411      C0000000 
 4412 04ea C68424D0 		movb	$0, 208(%rsp)
 4412      00000000 
 4413              	.LEHB100:
 4414 04f2 E8000000 		call	_ZSt16__ostream_insertIcSt11char_traitsIcEERSt13basic_ostreamIT_T0_ES6_PKS3_l@PLT
 4414      00
 4415 04f7 4C8D7308 		leaq	8(%rbx), %r14
 4416 04fb 4C8D7C24 		leaq	78(%rsp), %r15
 4416      4E
 4417 0500 4C8D2D00 		leaq	.LC7(%rip), %r13
 4417      000000
 4418 0507 660F1F84 		.p2align 4,,10
 4418      00000000 
 4418      00
 4419              		.p2align 3
 4420              	.L270:
 4421 0510 0FB603   		movzbl	(%rbx), %eax
 4422 0513 BA010000 		movl	$1, %edx
 4422      00
 4423 0518 4C89FE   		movq	%r15, %rsi
 4424 051b 4889EF   		movq	%rbp, %rdi
 4425 051e 8844244E 		movb	%al, 78(%rsp)
 4426 0522 E8000000 		call	_ZSt16__ostream_insertIcSt11char_traitsIcEERSt13basic_ostreamIT_T0_ES6_PKS3_l@PLT
 4426      00
 4427 0527 4889C7   		movq	%rax, %rdi
 4428 052a BA010000 		movl	$1, %edx
 4428      00
 4429 052f 4C89EE   		movq	%r13, %rsi
 4430 0532 E8000000 		call	_ZSt16__ostream_insertIcSt11char_traitsIcEERSt13basic_ostreamIT_T0_ES6_PKS3_l@PLT
 4430      00
 4431 0537 4883C301 		addq	$1, %rbx
 4432 053b 4939DE   		cmpq	%rbx, %r14
 4433 053e 75D0     		jne	.L270
 4434 0540 BA0C0000 		movl	$12, %edx
 4434      00
 4435 0545 488D3500 		leaq	.LC8(%rip), %rsi
 4435      000000
 4436 054c 4889EF   		movq	%rbp, %rdi
 4437 054f E8000000 		call	_ZSt16__ostream_insertIcSt11char_traitsIcEERSt13basic_ostreamIT_T0_ES6_PKS3_l@PLT
 4437      00
 4438 0554 31DB     		xorl	%ebx, %ebx
 4439 0556 4C8D7424 		leaq	79(%rsp), %r14
 4439      4F
 4440 055b 0F1F4400 		.p2align 4,,10
 4440      00
 4441              		.p2align 3
 4442              	.L271:
 4443 0560 498B0424 		movq	(%r12), %rax
 4444 0564 BA010000 		movl	$1, %edx
 4444      00
 4445 0569 4C89F6   		movq	%r14, %rsi
 4446 056c 4889EF   		movq	%rbp, %rdi
 4447 056f 0FB60418 		movzbl	(%rax,%rbx), %eax
 4448 0573 8844244F 		movb	%al, 79(%rsp)
 4449 0577 E8000000 		call	_ZSt16__ostream_insertIcSt11char_traitsIcEERSt13basic_ostreamIT_T0_ES6_PKS3_l@PLT
 4449      00
 4450 057c 4889C7   		movq	%rax, %rdi
 4451 057f BA010000 		movl	$1, %edx
 4451      00
 4452 0584 4C89EE   		movq	%r13, %rsi
 4453 0587 E8000000 		call	_ZSt16__ostream_insertIcSt11char_traitsIcEERSt13basic_ostreamIT_T0_ES6_PKS3_l@PLT
 4453      00
 4454 058c 4883C301 		addq	$1, %rbx
 4455 0590 4883FB08 		cmpq	$8, %rbx
 4456 0594 75CA     		jne	.L271
 4457 0596 BA010000 		movl	$1, %edx
 4457      00
 4458 059b 488D3500 		leaq	.LC9(%rip), %rsi
 4458      000000
 4459 05a2 4889EF   		movq	%rbp, %rdi
 4460 05a5 E8000000 		call	_ZSt16__ostream_insertIcSt11char_traitsIcEERSt13basic_ostreamIT_T0_ES6_PKS3_l@PLT
 4460      00
 4461 05aa 4889EF   		movq	%rbp, %rdi
 4462 05ad E8000000 		call	_ZNK8UnitTest15MemoryOutStream7GetTextEv@PLT
 4462      00
 4463 05b2 488B7424 		movq	32(%rsp), %rsi
 4463      20
 4464 05b7 488B7C24 		movq	24(%rsp), %rdi
 4464      18
 4465 05bc 4889C2   		movq	%rax, %rdx
 4466 05bf E8000000 		call	_ZN8UnitTest11TestResults13OnTestFailureERKNS_11TestDetailsEPKc@PLT
 4466      00
 4467              	.LEHE100:
 4468 05c4 488D0500 		leaq	24+_ZTVN8UnitTest15MemoryOutStreamE(%rip), %rax
 4468      000000
 4469 05cb 488BBC24 		movq	192(%rsp), %rdi
 4469      C0000000 
 4470 05d3 F30F7E05 		movq	.LC2(%rip), %xmm0
 4470      00000000 
 4471 05db 48894424 		movq	%rax, 80(%rsp)
 4471      50
 4472 05e0 4883C028 		addq	$40, %rax
 4473 05e4 48898424 		movq	%rax, 224(%rsp)
 4473      E0000000 
 4474 05ec 0F160500 		movhps	.LC4(%rip), %xmm0
 4474      000000
 4475 05f3 483B3C24 		cmpq	(%rsp), %rdi
 4476 05f7 740E     		je	.L272
 4477 05f9 0F290424 		movaps	%xmm0, (%rsp)
 4478 05fd E8000000 		call	_ZdlPv@PLT
 4478      00
 4479 0602 660F6F04 		movdqa	(%rsp), %xmm0
 4479      24
 4480              	.L272:
 4481 0607 488D0500 		leaq	64+_ZTCN8UnitTest15MemoryOutStreamE0_NSt7__cxx1119basic_ostringstreamIcSt11char_traitsIcESaIc
 4481      000000
 4482 060e 488BBC24 		movq	160(%rsp), %rdi
 4482      A0000000 
 4483 0616 0F294424 		movaps	%xmm0, 80(%rsp)
 4483      50
 4484 061b 48898424 		movq	%rax, 224(%rsp)
 4484      E0000000 
 4485 0623 483B7C24 		cmpq	56(%rsp), %rdi
 4485      38
 4486 0628 7405     		je	.L273
 4487 062a E8000000 		call	_ZdlPv@PLT
 4487      00
 4488              	.L273:
 4489 062f 488B7C24 		movq	48(%rsp), %rdi
 4489      30
 4490 0634 488D0500 		leaq	16+_ZTVSt15basic_streambufIcSt11char_traitsIcEE(%rip), %rax
 4490      000000
 4491 063b 48894424 		movq	%rax, 88(%rsp)
 4491      58
 4492 0640 E8000000 		call	_ZNSt6localeD1Ev@PLT
 4492      00
 4493 0645 488D0500 		leaq	24+_ZTCN8UnitTest15MemoryOutStreamE0_So(%rip), %rax
 4493      000000
 4494 064c 488B7C24 		movq	40(%rsp), %rdi
 4494      28
 4495 0651 48894424 		movq	%rax, 80(%rsp)
 4495      50
 4496 0656 488D0500 		leaq	16+_ZTVSt9basic_iosIcSt11char_traitsIcEE(%rip), %rax
 4496      000000
 4497 065d 48898424 		movq	%rax, 224(%rsp)
 4497      E0000000 
 4498              	.LEHB101:
 4499 0665 E8000000 		call	_ZNSt8ios_baseD2Ev@PLT
 4499      00
 4500              	.LEHE101:
 4501 066a E908FDFF 		jmp	.L263
 4501      FF
 4502              	.L288:
 4503 066f E8000000 		call	__stack_chk_fail@PLT
 4503      00
 4504              	.L278:
 4505 0674 F30F1EFA 		endbr64
 4506 0678 4889C5   		movq	%rax, %rbp
 4507 067b E9000000 		jmp	.L267
 4507      00
 4508              	.L276:
 4509 0680 F30F1EFA 		endbr64
 4510 0684 4989C4   		movq	%rax, %r12
 4511 0687 E9000000 		jmp	.L274
 4511      00
 4512              	.L277:
 4513 068c F30F1EFA 		endbr64
 4514 0690 4889C5   		movq	%rax, %rbp
 4515 0693 E9000000 		jmp	.L268
 4515      00
 4516              		.section	.gcc_except_table
 4517              	.LLSDA1666:
 4518 0027 FF       		.byte	0xff
 4519 0028 FF       		.byte	0xff
 4520 0029 01       		.byte	0x1
 4521 002a 18       		.uleb128 .LLSDACSE1666-.LLSDACSB1666
 4522              	.LLSDACSB1666:
 4523 002b AC02     		.uleb128 .LEHB98-.LFB1666
 4524 002d 05       		.uleb128 .LEHE98-.LEHB98
 4525 002e BC07     		.uleb128 .L277-.LFB1666
 4526 0030 00       		.uleb128 0
 4527 0031 CE03     		.uleb128 .LEHB99-.LFB1666
 4528 0033 05       		.uleb128 .LEHE99-.LEHB99
 4529 0034 A407     		.uleb128 .L278-.LFB1666
 4530 0036 00       		.uleb128 0
 4531 0037 A204     		.uleb128 .LEHB100-.LFB1666
 4532 0039 D201     		.uleb128 .LEHE100-.LEHB100
 4533 003b B007     		.uleb128 .L276-.LFB1666
 4534 003d 00       		.uleb128 0
 4535 003e 9507     		.uleb128 .LEHB101-.LFB1666
 4536 0040 05       		.uleb128 .LEHE101-.LEHB101
 4537 0041 00       		.uleb128 0
 4538 0042 00       		.uleb128 0
 4539              	.LLSDACSE1666:
 4540              		.text
 4541              		.cfi_endproc
 4542              		.section	.text.unlikely
 4543              		.cfi_startproc
 4544              		.cfi_personality 0x9b,DW.ref.__gxx_personality_v0
 4545              		.cfi_lsda 0x1b,.LLSDAC1666
 4547              	_ZN8UnitTest15CheckArrayEqualIA8_hPhEEvRNS_11TestResultsERKT_RKT0_iRKNS_11TestDetailsE.constprop.0.
 4548              	.LFSB1666:
 4549              	.L267:
 4550              		.cfi_def_cfa_offset 560
 4551              		.cfi_offset 3, -56
 4552              		.cfi_offset 6, -48
 4553              		.cfi_offset 12, -40
 4554              		.cfi_offset 13, -32
 4555              		.cfi_offset 14, -24
 4556              		.cfi_offset 15, -16
 4557 0043 4C89EF   		movq	%r13, %rdi
 4558 0046 E8000000 		call	_ZNSt7__cxx1115basic_stringbufIcSt11char_traitsIcESaIcEED1Ev
 4558      00
 4559 004b 488D0500 		leaq	24+_ZTCN8UnitTest15MemoryOutStreamE0_So(%rip), %rax
 4559      000000
 4560 0052 48894424 		movq	%rax, 80(%rsp)
 4560      50
 4561              	.L268:
 4562 0057 488B7C24 		movq	40(%rsp), %rdi
 4562      28
 4563 005c 488D0500 		leaq	16+_ZTVSt9basic_iosIcSt11char_traitsIcEE(%rip), %rax
 4563      000000
 4564 0063 48898424 		movq	%rax, 224(%rsp)
 4564      E0000000 
 4565 006b E8000000 		call	_ZNSt8ios_baseD2Ev@PLT
 4565      00
 4566 0070 4889EF   		movq	%rbp, %rdi
 4567              	.LEHB102:
 4568 0073 E8000000 		call	_Unwind_Resume@PLT
 4568      00
 4569              	.LEHE102:
 4570              	.L274:
 4571 0078 4889EF   		movq	%rbp, %rdi
 4572 007b E8000000 		call	_ZN8UnitTest15MemoryOutStreamD1Ev
 4572      00
 4573 0080 4C89E7   		movq	%r12, %rdi
 4574              	.LEHB103:
 4575 0083 E8000000 		call	_Unwind_Resume@PLT
 4575      00
 4576              	.LEHE103:
 4577              		.cfi_endproc
 4578              	.LFE1666:
 4579              		.section	.gcc_except_table
 4580              	.LLSDAC1666:
 4581 0043 FF       		.byte	0xff
 4582 0044 FF       		.byte	0xff
 4583 0045 01       		.byte	0x1
 4584 0046 08       		.uleb128 .LLSDACSEC1666-.LLSDACSBC1666
 4585              	.LLSDACSBC1666:
 4586 0047 30       		.uleb128 .LEHB102-.LCOLDB10
 4587 0048 05       		.uleb128 .LEHE102-.LEHB102
 4588 0049 00       		.uleb128 0
 4589 004a 00       		.uleb128 0
 4590 004b 40       		.uleb128 .LEHB103-.LCOLDB10
 4591 004c 05       		.uleb128 .LEHE103-.LEHB103
 4592 004d 00       		.uleb128 0
 4593 004e 00       		.uleb128 0
 4594              	.LLSDACSEC1666:
 4595              		.section	.text.unlikely
 4596              		.text
 4598              		.section	.text.unlikely
 4600              	.LCOLDE10:
 4601              		.text
 4602              	.LHOTE10:
 4603              		.section	.text.unlikely
 4604              	.LCOLDB11:
 4605              		.text
 4606              	.LHOTB11:
 4607 0698 0F1F8400 		.p2align 4
 4607      00000000 
 4609              	_ZN8UnitTest15CheckArrayEqualIA16_hPhEEvRNS_11TestResultsERKT_RKT0_iRKNS_11TestDetailsE.constprop.0
 4610              	.LFB1668:
 4611              		.cfi_startproc
 4612              		.cfi_personality 0x9b,DW.ref.__gxx_personality_v0
 4613              		.cfi_lsda 0x1b,.LLSDA1668
 4614 06a0 4157     		pushq	%r15
 4615              		.cfi_def_cfa_offset 16
 4616              		.cfi_offset 15, -16
 4617 06a2 4156     		pushq	%r14
 4618              		.cfi_def_cfa_offset 24
 4619              		.cfi_offset 14, -24
 4620 06a4 4155     		pushq	%r13
 4621              		.cfi_def_cfa_offset 32
 4622              		.cfi_offset 13, -32
 4623 06a6 4154     		pushq	%r12
 4624              		.cfi_def_cfa_offset 40
 4625              		.cfi_offset 12, -40
 4626 06a8 4989D4   		movq	%rdx, %r12
 4627 06ab 55       		pushq	%rbp
 4628              		.cfi_def_cfa_offset 48
 4629              		.cfi_offset 6, -48
 4630 06ac 53       		pushq	%rbx
 4631              		.cfi_def_cfa_offset 56
 4632              		.cfi_offset 3, -56
 4633 06ad 4889F3   		movq	%rsi, %rbx
 4634 06b0 4881ECF8 		subq	$504, %rsp
 4634      010000
 4635              		.cfi_def_cfa_offset 560
 4636 06b7 488B12   		movq	(%rdx), %rdx
 4637 06ba F30F7E0D 		movq	.LC2(%rip), %xmm1
 4637      00000000 
 4638 06c2 48897C24 		movq	%rdi, 16(%rsp)
 4638      10
 4639 06c7 48894C24 		movq	%rcx, 32(%rsp)
 4639      20
 4640 06cc 0F160D00 		movhps	.LC3(%rip), %xmm1
 4640      000000
 4641 06d3 0FB67A08 		movzbl	8(%rdx), %edi
 4642 06d7 64488B04 		movq	%fs:40, %rax
 4642      25280000 
 4642      00
 4643 06e0 48898424 		movq	%rax, 488(%rsp)
 4643      E8010000 
 4644 06e8 31C0     		xorl	%eax, %eax
 4645 06ea 0FB64201 		movzbl	1(%rdx), %eax
 4646 06ee 384601   		cmpb	%al, 1(%rsi)
 4647 06f1 0F290C24 		movaps	%xmm1, (%rsp)
 4648 06f5 0FB67202 		movzbl	2(%rdx), %esi
 4649 06f9 0F94C0   		sete	%al
 4650 06fc 40387302 		cmpb	%sil, 2(%rbx)
 4651 0700 0F94C1   		sete	%cl
 4652 0703 0FB633   		movzbl	(%rbx), %esi
 4653 0706 21C8     		andl	%ecx, %eax
 4654 0708 403832   		cmpb	%sil, (%rdx)
 4655 070b 0FB67203 		movzbl	3(%rdx), %esi
 4656 070f 0F94C1   		sete	%cl
 4657 0712 21C8     		andl	%ecx, %eax
 4658 0714 40387303 		cmpb	%sil, 3(%rbx)
 4659 0718 0FB67204 		movzbl	4(%rdx), %esi
 4660 071c 0F94C1   		sete	%cl
 4661 071f 21C8     		andl	%ecx, %eax
 4662 0721 40387304 		cmpb	%sil, 4(%rbx)
 4663 0725 0FB67305 		movzbl	5(%rbx), %esi
 4664 0729 0F94C1   		sete	%cl
 4665 072c 21C8     		andl	%ecx, %eax
 4666 072e 40387205 		cmpb	%sil, 5(%rdx)
 4667 0732 0FB67206 		movzbl	6(%rdx), %esi
 4668 0736 0F94C1   		sete	%cl
 4669 0739 21C8     		andl	%ecx, %eax
 4670 073b 40387306 		cmpb	%sil, 6(%rbx)
 4671 073f 0FB67207 		movzbl	7(%rdx), %esi
 4672 0743 0F94C1   		sete	%cl
 4673 0746 21C8     		andl	%ecx, %eax
 4674 0748 40387307 		cmpb	%sil, 7(%rbx)
 4675 074c 0F94C1   		sete	%cl
 4676 074f 21C8     		andl	%ecx, %eax
 4677 0751 40387B08 		cmpb	%dil, 8(%rbx)
 4678 0755 0FB6720A 		movzbl	10(%rdx), %esi
 4679 0759 0F94C1   		sete	%cl
 4680 075c 0FB67A0B 		movzbl	11(%rdx), %edi
 4681 0760 21C8     		andl	%ecx, %eax
 4682 0762 0FB64A09 		movzbl	9(%rdx), %ecx
 4683 0766 384B09   		cmpb	%cl, 9(%rbx)
 4684 0769 0F94C1   		sete	%cl
 4685 076c 21C8     		andl	%ecx, %eax
 4686 076e 4038730A 		cmpb	%sil, 10(%rbx)
 4687 0772 0FB6720D 		movzbl	13(%rdx), %esi
 4688 0776 0F94C1   		sete	%cl
 4689 0779 21C8     		andl	%ecx, %eax
 4690 077b 40387B0B 		cmpb	%dil, 11(%rbx)
 4691 077f 0FB67A0E 		movzbl	14(%rdx), %edi
 4692 0783 0F94C1   		sete	%cl
 4693 0786 21C8     		andl	%ecx, %eax
 4694 0788 0FB64A0C 		movzbl	12(%rdx), %ecx
 4695 078c 384B0C   		cmpb	%cl, 12(%rbx)
 4696 078f 0F94C1   		sete	%cl
 4697 0792 21C8     		andl	%ecx, %eax
 4698 0794 4038730D 		cmpb	%sil, 13(%rbx)
 4699 0798 0F94C1   		sete	%cl
 4700 079b 21C8     		andl	%ecx, %eax
 4701 079d 40387B0E 		cmpb	%dil, 14(%rbx)
 4702 07a1 0F94C1   		sete	%cl
 4703 07a4 84C8     		testb	%cl, %al
 4704 07a6 7438     		je	.L305
 4705 07a8 0FB6420F 		movzbl	15(%rdx), %eax
 4706 07ac 38430F   		cmpb	%al, 15(%rbx)
 4707 07af 752F     		jne	.L305
 4708              	.L289:
 4709 07b1 488B8424 		movq	488(%rsp), %rax
 4709      E8010000 
 4710 07b9 64482B04 		subq	%fs:40, %rax
 4710      25280000 
 4710      00
 4711 07c2 0F85E902 		jne	.L314
 4711      0000
 4712 07c8 4881C4F8 		addq	$504, %rsp
 4712      010000
 4713              		.cfi_remember_state
 4714              		.cfi_def_cfa_offset 56
 4715 07cf 5B       		popq	%rbx
 4716              		.cfi_def_cfa_offset 48
 4717 07d0 5D       		popq	%rbp
 4718              		.cfi_def_cfa_offset 40
 4719 07d1 415C     		popq	%r12
 4720              		.cfi_def_cfa_offset 32
 4721 07d3 415D     		popq	%r13
 4722              		.cfi_def_cfa_offset 24
 4723 07d5 415E     		popq	%r14
 4724              		.cfi_def_cfa_offset 16
 4725 07d7 415F     		popq	%r15
 4726              		.cfi_def_cfa_offset 8
 4727 07d9 C3       		ret
 4728 07da 660F1F44 		.p2align 4,,10
 4728      0000
 4729              		.p2align 3
 4730              	.L305:
 4731              		.cfi_restore_state
 4732 07e0 4C8DBC24 		leaq	224(%rsp), %r15
 4732      E0000000 
 4733 07e8 4C89FF   		movq	%r15, %rdi
 4734 07eb 4C897C24 		movq	%r15, 40(%rsp)
 4734      28
 4735 07f0 E8000000 		call	_ZNSt8ios_baseC2Ev@PLT
 4735      00
 4736 07f5 31C0     		xorl	%eax, %eax
 4737 07f7 660FEFC0 		pxor	%xmm0, %xmm0
 4738 07fb 31F6     		xorl	%esi, %esi
 4739 07fd 66898424 		movw	%ax, 448(%rsp)
 4739      C0010000 
 4740 0805 488D0500 		leaq	24+_ZTCN8UnitTest15MemoryOutStreamE0_So(%rip), %rax
 4740      000000
 4741 080c 4C89FF   		movq	%r15, %rdi
 4742 080f 48894424 		movq	%rax, 80(%rsp)
 4742      50
 4743 0814 4883C028 		addq	$40, %rax
 4744 0818 48C78424 		movq	$0, 440(%rsp)
 4744      B8010000 
 4744      00000000 
 4745 0824 48898424 		movq	%rax, 224(%rsp)
 4745      E0000000 
 4746 082c 0F118424 		movups	%xmm0, 456(%rsp)
 4746      C8010000 
 4747 0834 0F118424 		movups	%xmm0, 472(%rsp)
 4747      D8010000 
 4748              	.LEHB104:
 4749 083c E8000000 		call	_ZNSt9basic_iosIcSt11char_traitsIcEE4initEPSt15basic_streambufIcS1_E@PLT
 4749      00
 4750              	.LEHE104:
 4751 0841 488D0500 		leaq	64+_ZTCN8UnitTest15MemoryOutStreamE0_NSt7__cxx1119basic_ostringstreamIcSt11char_traitsIcESaIc
 4751      000000
 4752 0848 660F6F14 		movdqa	(%rsp), %xmm2
 4752      24
 4753 084d 660FEFC0 		pxor	%xmm0, %xmm0
 4754 0851 488D6C24 		leaq	80(%rsp), %rbp
 4754      50
 4755 0856 48898424 		movq	%rax, 224(%rsp)
 4755      E0000000 
 4756 085e 488D8424 		leaq	144(%rsp), %rax
 4756      90000000 
 4757 0866 4C8D6C24 		leaq	88(%rsp), %r13
 4757      58
 4758 086b 4889C7   		movq	%rax, %rdi
 4759 086e 48894424 		movq	%rax, 56(%rsp)
 4759      38
 4760 0873 0F295424 		movaps	%xmm2, 80(%rsp)
 4760      50
 4761 0878 0F294424 		movaps	%xmm0, 96(%rsp)
 4761      60
 4762 087d 0F294424 		movaps	%xmm0, 112(%rsp)
 4762      70
 4763 0882 0F298424 		movaps	%xmm0, 128(%rsp)
 4763      80000000 
 4764 088a E8000000 		call	_ZNSt6localeC1Ev@PLT
 4764      00
 4765 088f 488D0500 		leaq	16+_ZTVNSt7__cxx1115basic_stringbufIcSt11char_traitsIcESaIcEEE(%rip), %rax
 4765      000000
 4766 0896 C68424B0 		movb	$0, 176(%rsp)
 4766      00000000 
 4767 089e 4C89EE   		movq	%r13, %rsi
 4768 08a1 48894424 		movq	%rax, 88(%rsp)
 4768      58
 4769 08a6 488D8424 		leaq	176(%rsp), %rax
 4769      B0000000 
 4770 08ae 48890424 		movq	%rax, (%rsp)
 4771 08b2 48898424 		movq	%rax, 160(%rsp)
 4771      A0000000 
 4772 08ba 488B4424 		movq	80(%rsp), %rax
 4772      50
 4773 08bf 48C78424 		movq	$0, 168(%rsp)
 4773      A8000000 
 4773      00000000 
 4774 08cb C7842498 		movl	$16, 152(%rsp)
 4774      00000010 
 4774      000000
 4775 08d6 488B78E8 		movq	-24(%rax), %rdi
 4776 08da 4801EF   		addq	%rbp, %rdi
 4777              	.LEHB105:
 4778 08dd E8000000 		call	_ZNSt9basic_iosIcSt11char_traitsIcEE4initEPSt15basic_streambufIcS1_E@PLT
 4778      00
 4779              	.LEHE105:
 4780 08e2 488D0500 		leaq	24+_ZTVN8UnitTest15MemoryOutStreamE(%rip), %rax
 4780      000000
 4781 08e9 BA0B0000 		movl	$11, %edx
 4781      00
 4782 08ee 4889EF   		movq	%rbp, %rdi
 4783 08f1 48C78424 		movq	$0, 200(%rsp)
 4783      C8000000 
 4783      00000000 
 4784 08fd 48894424 		movq	%rax, 80(%rsp)
 4784      50
 4785 0902 4883C028 		addq	$40, %rax
 4786 0906 488D3500 		leaq	.LC6(%rip), %rsi
 4786      000000
 4787 090d 48898424 		movq	%rax, 224(%rsp)
 4787      E0000000 
 4788 0915 488D8424 		leaq	208(%rsp), %rax
 4788      D0000000 
 4789 091d 48894424 		movq	%rax, 48(%rsp)
 4789      30
 4790 0922 48898424 		movq	%rax, 192(%rsp)
 4790      C0000000 
 4791 092a C68424D0 		movb	$0, 208(%rsp)
 4791      00000000 
 4792              	.LEHB106:
 4793 0932 E8000000 		call	_ZSt16__ostream_insertIcSt11char_traitsIcEERSt13basic_ostreamIT_T0_ES6_PKS3_l@PLT
 4793      00
 4794 0937 4C8D7310 		leaq	16(%rbx), %r14
 4795 093b 4C8D7C24 		leaq	78(%rsp), %r15
 4795      4E
 4796 0940 4C8D2D00 		leaq	.LC7(%rip), %r13
 4796      000000
 4797 0947 660F1F84 		.p2align 4,,10
 4797      00000000 
 4797      00
 4798              		.p2align 3
 4799              	.L296:
 4800 0950 0FB603   		movzbl	(%rbx), %eax
 4801 0953 BA010000 		movl	$1, %edx
 4801      00
 4802 0958 4C89FE   		movq	%r15, %rsi
 4803 095b 4889EF   		movq	%rbp, %rdi
 4804 095e 8844244E 		movb	%al, 78(%rsp)
 4805 0962 E8000000 		call	_ZSt16__ostream_insertIcSt11char_traitsIcEERSt13basic_ostreamIT_T0_ES6_PKS3_l@PLT
 4805      00
 4806 0967 4889C7   		movq	%rax, %rdi
 4807 096a BA010000 		movl	$1, %edx
 4807      00
 4808 096f 4C89EE   		movq	%r13, %rsi
 4809 0972 E8000000 		call	_ZSt16__ostream_insertIcSt11char_traitsIcEERSt13basic_ostreamIT_T0_ES6_PKS3_l@PLT
 4809      00
 4810 0977 4883C301 		addq	$1, %rbx
 4811 097b 4939DE   		cmpq	%rbx, %r14
 4812 097e 75D0     		jne	.L296
 4813 0980 BA0C0000 		movl	$12, %edx
 4813      00
 4814 0985 488D3500 		leaq	.LC8(%rip), %rsi
 4814      000000
 4815 098c 4889EF   		movq	%rbp, %rdi
 4816 098f E8000000 		call	_ZSt16__ostream_insertIcSt11char_traitsIcEERSt13basic_ostreamIT_T0_ES6_PKS3_l@PLT
 4816      00
 4817 0994 31DB     		xorl	%ebx, %ebx
 4818 0996 4C8D7424 		leaq	79(%rsp), %r14
 4818      4F
 4819 099b 0F1F4400 		.p2align 4,,10
 4819      00
 4820              		.p2align 3
 4821              	.L297:
 4822 09a0 498B0424 		movq	(%r12), %rax
 4823 09a4 BA010000 		movl	$1, %edx
 4823      00
 4824 09a9 4C89F6   		movq	%r14, %rsi
 4825 09ac 4889EF   		movq	%rbp, %rdi
 4826 09af 0FB60418 		movzbl	(%rax,%rbx), %eax
 4827 09b3 8844244F 		movb	%al, 79(%rsp)
 4828 09b7 E8000000 		call	_ZSt16__ostream_insertIcSt11char_traitsIcEERSt13basic_ostreamIT_T0_ES6_PKS3_l@PLT
 4828      00
 4829 09bc 4889C7   		movq	%rax, %rdi
 4830 09bf BA010000 		movl	$1, %edx
 4830      00
 4831 09c4 4C89EE   		movq	%r13, %rsi
 4832 09c7 E8000000 		call	_ZSt16__ostream_insertIcSt11char_traitsIcEERSt13basic_ostreamIT_T0_ES6_PKS3_l@PLT
 4832      00
 4833 09cc 4883C301 		addq	$1, %rbx
 4834 09d0 4883FB10 		cmpq	$16, %rbx
 4835 09d4 75CA     		jne	.L297
 4836 09d6 BA010000 		movl	$1, %edx
 4836      00
 4837 09db 488D3500 		leaq	.LC9(%rip), %rsi
 4837      000000
 4838 09e2 4889EF   		movq	%rbp, %rdi
 4839 09e5 E8000000 		call	_ZSt16__ostream_insertIcSt11char_traitsIcEERSt13basic_ostreamIT_T0_ES6_PKS3_l@PLT
 4839      00
 4840 09ea 4889EF   		movq	%rbp, %rdi
 4841 09ed E8000000 		call	_ZNK8UnitTest15MemoryOutStream7GetTextEv@PLT
 4841      00
 4842 09f2 488B7424 		movq	32(%rsp), %rsi
 4842      20
 4843 09f7 488B7C24 		movq	16(%rsp), %rdi
 4843      10
 4844 09fc 4889C2   		movq	%rax, %rdx
 4845 09ff E8000000 		call	_ZN8UnitTest11TestResults13OnTestFailureERKNS_11TestDetailsEPKc@PLT
 4845      00
 4846              	.LEHE106:
 4847 0a04 488D0500 		leaq	24+_ZTVN8UnitTest15MemoryOutStreamE(%rip), %rax
 4847      000000
 4848 0a0b 488BBC24 		movq	192(%rsp), %rdi
 4848      C0000000 
 4849 0a13 F30F7E05 		movq	.LC2(%rip), %xmm0
 4849      00000000 
 4850 0a1b 48894424 		movq	%rax, 80(%rsp)
 4850      50
 4851 0a20 4883C028 		addq	$40, %rax
 4852 0a24 48898424 		movq	%rax, 224(%rsp)
 4852      E0000000 
 4853 0a2c 0F160500 		movhps	.LC4(%rip), %xmm0
 4853      000000
 4854 0a33 483B7C24 		cmpq	48(%rsp), %rdi
 4854      30
 4855 0a38 7410     		je	.L298
 4856 0a3a 0F294424 		movaps	%xmm0, 16(%rsp)
 4856      10
 4857 0a3f E8000000 		call	_ZdlPv@PLT
 4857      00
 4858 0a44 660F6F44 		movdqa	16(%rsp), %xmm0
 4858      2410
 4859              	.L298:
 4860 0a4a 488D0500 		leaq	64+_ZTCN8UnitTest15MemoryOutStreamE0_NSt7__cxx1119basic_ostringstreamIcSt11char_traitsIcESaIc
 4860      000000
 4861 0a51 488BBC24 		movq	160(%rsp), %rdi
 4861      A0000000 
 4862 0a59 0F294424 		movaps	%xmm0, 80(%rsp)
 4862      50
 4863 0a5e 48898424 		movq	%rax, 224(%rsp)
 4863      E0000000 
 4864 0a66 483B3C24 		cmpq	(%rsp), %rdi
 4865 0a6a 7405     		je	.L299
 4866 0a6c E8000000 		call	_ZdlPv@PLT
 4866      00
 4867              	.L299:
 4868 0a71 488B7C24 		movq	56(%rsp), %rdi
 4868      38
 4869 0a76 488D0500 		leaq	16+_ZTVSt15basic_streambufIcSt11char_traitsIcEE(%rip), %rax
 4869      000000
 4870 0a7d 48894424 		movq	%rax, 88(%rsp)
 4870      58
 4871 0a82 E8000000 		call	_ZNSt6localeD1Ev@PLT
 4871      00
 4872 0a87 488D0500 		leaq	24+_ZTCN8UnitTest15MemoryOutStreamE0_So(%rip), %rax
 4872      000000
 4873 0a8e 488B7C24 		movq	40(%rsp), %rdi
 4873      28
 4874 0a93 48894424 		movq	%rax, 80(%rsp)
 4874      50
 4875 0a98 488D0500 		leaq	16+_ZTVSt9basic_iosIcSt11char_traitsIcEE(%rip), %rax
 4875      000000
 4876 0a9f 48898424 		movq	%rax, 224(%rsp)
 4876      E0000000 
 4877              	.LEHB107:
 4878 0aa7 E8000000 		call	_ZNSt8ios_baseD2Ev@PLT
 4878      00
 4879              	.LEHE107:
 4880 0aac E900FDFF 		jmp	.L289
 4880      FF
 4881              	.L314:
 4882 0ab1 E8000000 		call	__stack_chk_fail@PLT
 4882      00
 4883              	.L304:
 4884 0ab6 F30F1EFA 		endbr64
 4885 0aba 4889C5   		movq	%rax, %rbp
 4886 0abd E9000000 		jmp	.L293
 4886      00
 4887              	.L302:
 4888 0ac2 F30F1EFA 		endbr64
 4889 0ac6 4989C4   		movq	%rax, %r12
 4890 0ac9 E9000000 		jmp	.L300
 4890      00
 4891              	.L303:
 4892 0ace F30F1EFA 		endbr64
 4893 0ad2 4889C5   		movq	%rax, %rbp
 4894 0ad5 E9000000 		jmp	.L294
 4894      00
 4895              		.section	.gcc_except_table
 4896              	.LLSDA1668:
 4897 004f FF       		.byte	0xff
 4898 0050 FF       		.byte	0xff
 4899 0051 01       		.byte	0x1
 4900 0052 18       		.uleb128 .LLSDACSE1668-.LLSDACSB1668
 4901              	.LLSDACSB1668:
 4902 0053 9C03     		.uleb128 .LEHB104-.LFB1668
 4903 0055 05       		.uleb128 .LEHE104-.LEHB104
 4904 0056 AE08     		.uleb128 .L303-.LFB1668
 4905 0058 00       		.uleb128 0
 4906 0059 BD04     		.uleb128 .LEHB105-.LFB1668
 4907 005b 05       		.uleb128 .LEHE105-.LEHB105
 4908 005c 9608     		.uleb128 .L304-.LFB1668
 4909 005e 00       		.uleb128 0
 4910 005f 9205     		.uleb128 .LEHB106-.LFB1668
 4911 0061 D201     		.uleb128 .LEHE106-.LEHB106
 4912 0063 A208     		.uleb128 .L302-.LFB1668
 4913 0065 00       		.uleb128 0
 4914 0066 8708     		.uleb128 .LEHB107-.LFB1668
 4915 0068 05       		.uleb128 .LEHE107-.LEHB107
 4916 0069 00       		.uleb128 0
 4917 006a 00       		.uleb128 0
 4918              	.LLSDACSE1668:
 4919              		.text
 4920              		.cfi_endproc
 4921              		.section	.text.unlikely
 4922              		.cfi_startproc
 4923              		.cfi_personality 0x9b,DW.ref.__gxx_personality_v0
 4924              		.cfi_lsda 0x1b,.LLSDAC1668
 4926              	_ZN8UnitTest15CheckArrayEqualIA16_hPhEEvRNS_11TestResultsERKT_RKT0_iRKNS_11TestDetailsE.constprop.0
 4927              	.LFSB1668:
 4928              	.L293:
 4929              		.cfi_def_cfa_offset 560
 4930              		.cfi_offset 3, -56
 4931              		.cfi_offset 6, -48
 4932              		.cfi_offset 12, -40
 4933              		.cfi_offset 13, -32
 4934              		.cfi_offset 14, -24
 4935              		.cfi_offset 15, -16
 4936 0088 4C89EF   		movq	%r13, %rdi
 4937 008b E8000000 		call	_ZNSt7__cxx1115basic_stringbufIcSt11char_traitsIcESaIcEED1Ev
 4937      00
 4938 0090 488D0500 		leaq	24+_ZTCN8UnitTest15MemoryOutStreamE0_So(%rip), %rax
 4938      000000
 4939 0097 48894424 		movq	%rax, 80(%rsp)
 4939      50
 4940              	.L294:
 4941 009c 488B7C24 		movq	40(%rsp), %rdi
 4941      28
 4942 00a1 488D0500 		leaq	16+_ZTVSt9basic_iosIcSt11char_traitsIcEE(%rip), %rax
 4942      000000
 4943 00a8 48898424 		movq	%rax, 224(%rsp)
 4943      E0000000 
 4944 00b0 E8000000 		call	_ZNSt8ios_baseD2Ev@PLT
 4944      00
 4945 00b5 4889EF   		movq	%rbp, %rdi
 4946              	.LEHB108:
 4947 00b8 E8000000 		call	_Unwind_Resume@PLT
 4947      00
 4948              	.LEHE108:
 4949              	.L300:
 4950 00bd 4889EF   		movq	%rbp, %rdi
 4951 00c0 E8000000 		call	_ZN8UnitTest15MemoryOutStreamD1Ev
 4951      00
 4952 00c5 4C89E7   		movq	%r12, %rdi
 4953              	.LEHB109:
 4954 00c8 E8000000 		call	_Unwind_Resume@PLT
 4954      00
 4955              	.LEHE109:
 4956              		.cfi_endproc
 4957              	.LFE1668:
 4958              		.section	.gcc_except_table
 4959              	.LLSDAC1668:
 4960 006b FF       		.byte	0xff
 4961 006c FF       		.byte	0xff
 4962 006d 01       		.byte	0x1
 4963 006e 08       		.uleb128 .LLSDACSEC1668-.LLSDACSBC1668
 4964              	.LLSDACSBC1668:
 4965 006f 30       		.uleb128 .LEHB108-.LCOLDB11
 4966 0070 05       		.uleb128 .LEHE108-.LEHB108
 4967 0071 00       		.uleb128 0
 4968 0072 00       		.uleb128 0
 4969 0073 40       		.uleb128 .LEHB109-.LCOLDB11
 4970 0074 05       		.uleb128 .LEHE109-.LEHB109
 4971 0075 00       		.uleb128 0
 4972 0076 00       		.uleb128 0
 4973              	.LLSDACSEC1668:
 4974              		.section	.text.unlikely
 4975              		.text
 4977              		.section	.text.unlikely
 4979              	.LCOLDE11:
 4980              		.text
 4981              	.LHOTE11:
 4982              		.section	.text._ZNSt7__cxx1115basic_stringbufIcSt11char_traitsIcESaIcEED0Ev,"axG",@progbits,_ZNSt7
 4983              		.align 2
 4984              		.p2align 4
 4985              		.weak	_ZNSt7__cxx1115basic_stringbufIcSt11char_traitsIcESaIcEED0Ev
 4987              	_ZNSt7__cxx1115basic_stringbufIcSt11char_traitsIcESaIcEED0Ev:
 4988              	.LFB1399:
 4989              		.cfi_startproc
 4990 0000 F30F1EFA 		endbr64
 4991 0004 488D0500 		leaq	16+_ZTVNSt7__cxx1115basic_stringbufIcSt11char_traitsIcESaIcEEE(%rip), %rax
 4991      000000
 4992 000b 55       		pushq	%rbp
 4993              		.cfi_def_cfa_offset 16
 4994              		.cfi_offset 6, -16
 4995 000c 4889FD   		movq	%rdi, %rbp
 4996 000f 488907   		movq	%rax, (%rdi)
 4997 0012 488B7F48 		movq	72(%rdi), %rdi
 4998 0016 488D4558 		leaq	88(%rbp), %rax
 4999 001a 4839C7   		cmpq	%rax, %rdi
 5000 001d 7405     		je	.L316
 5001 001f E8000000 		call	_ZdlPv@PLT
 5001      00
 5002              	.L316:
 5003 0024 488D0500 		leaq	16+_ZTVSt15basic_streambufIcSt11char_traitsIcEE(%rip), %rax
 5003      000000
 5004 002b 488D7D38 		leaq	56(%rbp), %rdi
 5005 002f 48894500 		movq	%rax, 0(%rbp)
 5006 0033 E8000000 		call	_ZNSt6localeD1Ev@PLT
 5006      00
 5007 0038 4889EF   		movq	%rbp, %rdi
 5008 003b 5D       		popq	%rbp
 5009              		.cfi_def_cfa_offset 8
 5010 003c E9000000 		jmp	_ZdlPv@PLT
 5010      00
 5011              		.cfi_endproc
 5012              	.LFE1399:
 5014              		.section	.text._ZN8UnitTest10CheckEqualImmEEvRNS_11TestResultsERKT_RKT0_RKNS_11TestDetailsE,"axG",
 5015              		.p2align 4
 5016              		.weak	_ZN8UnitTest10CheckEqualImmEEvRNS_11TestResultsERKT_RKT0_RKNS_11TestDetailsE
 5018              	_ZN8UnitTest10CheckEqualImmEEvRNS_11TestResultsERKT_RKT0_RKNS_11TestDetailsE:
 5019              	.LFB1420:
 5020              		.cfi_startproc
 5021              		.cfi_personality 0x9b,DW.ref.__gxx_personality_v0
 5022              		.cfi_lsda 0x1b,.LLSDA1420
 5023 0000 F30F1EFA 		endbr64
 5024 0004 4157     		pushq	%r15
 5025              		.cfi_def_cfa_offset 16
 5026              		.cfi_offset 15, -16
 5027 0006 4156     		pushq	%r14
 5028              		.cfi_def_cfa_offset 24
 5029              		.cfi_offset 14, -24
 5030 0008 4155     		pushq	%r13
 5031              		.cfi_def_cfa_offset 32
 5032              		.cfi_offset 13, -32
 5033 000a 4154     		pushq	%r12
 5034              		.cfi_def_cfa_offset 40
 5035              		.cfi_offset 12, -40
 5036 000c 55       		pushq	%rbp
 5037              		.cfi_def_cfa_offset 48
 5038              		.cfi_offset 6, -48
 5039 000d 53       		pushq	%rbx
 5040              		.cfi_def_cfa_offset 56
 5041              		.cfi_offset 3, -56
 5042 000e 4881ECD8 		subq	$472, %rsp
 5042      010000
 5043              		.cfi_def_cfa_offset 528
 5044 0015 F30F7E0D 		movq	.LC2(%rip), %xmm1
 5044      00000000 
 5045 001d 48897C24 		movq	%rdi, 16(%rsp)
 5045      10
 5046 0022 48894C24 		movq	%rcx, 24(%rsp)
 5046      18
 5047 0027 0F160D00 		movhps	.LC3(%rip), %xmm1
 5047      000000
 5048 002e 64488B04 		movq	%fs:40, %rax
 5048      25280000 
 5048      00
 5049 0037 48898424 		movq	%rax, 456(%rsp)
 5049      C8010000 
 5050 003f 31C0     		xorl	%eax, %eax
 5051 0041 488B02   		movq	(%rdx), %rax
 5052 0044 0F290C24 		movaps	%xmm1, (%rsp)
 5053 0048 483906   		cmpq	%rax, (%rsi)
 5054 004b 7533     		jne	.L334
 5055              	.L318:
 5056 004d 488B8424 		movq	456(%rsp), %rax
 5056      C8010000 
 5057 0055 64482B04 		subq	%fs:40, %rax
 5057      25280000 
 5057      00
 5058 005e 0F855302 		jne	.L335
 5058      0000
 5059 0064 4881C4D8 		addq	$472, %rsp
 5059      010000
 5060              		.cfi_remember_state
 5061              		.cfi_def_cfa_offset 56
 5062 006b 5B       		popq	%rbx
 5063              		.cfi_def_cfa_offset 48
 5064 006c 5D       		popq	%rbp
 5065              		.cfi_def_cfa_offset 40
 5066 006d 415C     		popq	%r12
 5067              		.cfi_def_cfa_offset 32
 5068 006f 415D     		popq	%r13
 5069              		.cfi_def_cfa_offset 24
 5070 0071 415E     		popq	%r14
 5071              		.cfi_def_cfa_offset 16
 5072 0073 415F     		popq	%r15
 5073              		.cfi_def_cfa_offset 8
 5074 0075 C3       		ret
 5075 0076 662E0F1F 		.p2align 4,,10
 5075      84000000 
 5075      0000
 5076              		.p2align 3
 5077              	.L334:
 5078              		.cfi_restore_state
 5079 0080 4C8DAC24 		leaq	192(%rsp), %r13
 5079      C0000000 
 5080 0088 4889F5   		movq	%rsi, %rbp
 5081 008b 4889D3   		movq	%rdx, %rbx
 5082 008e 4C89EF   		movq	%r13, %rdi
 5083 0091 E8000000 		call	_ZNSt8ios_baseC2Ev@PLT
 5083      00
 5084 0096 31C0     		xorl	%eax, %eax
 5085 0098 660FEFC0 		pxor	%xmm0, %xmm0
 5086 009c 31F6     		xorl	%esi, %esi
 5087 009e 66898424 		movw	%ax, 416(%rsp)
 5087      A0010000 
 5088 00a6 488D0500 		leaq	24+_ZTCN8UnitTest15MemoryOutStreamE0_So(%rip), %rax
 5088      000000
 5089 00ad 4C89EF   		movq	%r13, %rdi
 5090 00b0 48894424 		movq	%rax, 48(%rsp)
 5090      30
 5091 00b5 4883C028 		addq	$40, %rax
 5092 00b9 48C78424 		movq	$0, 408(%rsp)
 5092      98010000 
 5092      00000000 
 5093 00c5 48898424 		movq	%rax, 192(%rsp)
 5093      C0000000 
 5094 00cd 0F118424 		movups	%xmm0, 424(%rsp)
 5094      A8010000 
 5095 00d5 0F118424 		movups	%xmm0, 440(%rsp)
 5095      B8010000 
 5096              	.LEHB110:
 5097 00dd E8000000 		call	_ZNSt9basic_iosIcSt11char_traitsIcEE4initEPSt15basic_streambufIcS1_E@PLT
 5097      00
 5098              	.LEHE110:
 5099 00e2 660F6F0C 		movdqa	(%rsp), %xmm1
 5099      24
 5100 00e7 4C8D7424 		leaq	112(%rsp), %r14
 5100      70
 5101 00ec 660FEFC0 		pxor	%xmm0, %xmm0
 5102 00f0 488D0500 		leaq	64+_ZTCN8UnitTest15MemoryOutStreamE0_NSt7__cxx1119basic_ostringstreamIcSt11char_traitsIcESaIc
 5102      000000
 5103 00f7 4C89F7   		movq	%r14, %rdi
 5104 00fa 0F294424 		movaps	%xmm0, 64(%rsp)
 5104      40
 5105 00ff 4C8D6424 		leaq	48(%rsp), %r12
 5105      30
 5106 0104 4C8D7C24 		leaq	56(%rsp), %r15
 5106      38
 5107 0109 48898424 		movq	%rax, 192(%rsp)
 5107      C0000000 
 5108 0111 0F294C24 		movaps	%xmm1, 48(%rsp)
 5108      30
 5109 0116 0F294424 		movaps	%xmm0, 80(%rsp)
 5109      50
 5110 011b 0F294424 		movaps	%xmm0, 96(%rsp)
 5110      60
 5111 0120 E8000000 		call	_ZNSt6localeC1Ev@PLT
 5111      00
 5112 0125 488D0500 		leaq	16+_ZTVNSt7__cxx1115basic_stringbufIcSt11char_traitsIcESaIcEEE(%rip), %rax
 5112      000000
 5113 012c 4C89FE   		movq	%r15, %rsi
 5114 012f 48C78424 		movq	$0, 136(%rsp)
 5114      88000000 
 5114      00000000 
 5115 013b 48894424 		movq	%rax, 56(%rsp)
 5115      38
 5116 0140 488D8424 		leaq	144(%rsp), %rax
 5116      90000000 
 5117 0148 48894424 		movq	%rax, 32(%rsp)
 5117      20
 5118 014d 48898424 		movq	%rax, 128(%rsp)
 5118      80000000 
 5119 0155 488B4424 		movq	48(%rsp), %rax
 5119      30
 5120 015a C6842490 		movb	$0, 144(%rsp)
 5120      00000000 
 5121 0162 488B78E8 		movq	-24(%rax), %rdi
 5122 0166 C7442478 		movl	$16, 120(%rsp)
 5122      10000000 
 5123 016e 4C01E7   		addq	%r12, %rdi
 5124              	.LEHB111:
 5125 0171 E8000000 		call	_ZNSt9basic_iosIcSt11char_traitsIcEE4initEPSt15basic_streambufIcS1_E@PLT
 5125      00
 5126              	.LEHE111:
 5127 0176 4C8D3D00 		leaq	24+_ZTVN8UnitTest15MemoryOutStreamE(%rip), %r15
 5127      000000
 5128 017d BA090000 		movl	$9, %edx
 5128      00
 5129 0182 4C89E7   		movq	%r12, %rdi
 5130 0185 48C78424 		movq	$0, 168(%rsp)
 5130      A8000000 
 5130      00000000 
 5131 0191 498D4728 		leaq	40(%r15), %rax
 5132 0195 488D3500 		leaq	.LC0(%rip), %rsi
 5132      000000
 5133 019c 4C897C24 		movq	%r15, 48(%rsp)
 5133      30
 5134 01a1 48898424 		movq	%rax, 192(%rsp)
 5134      C0000000 
 5135 01a9 488D8424 		leaq	176(%rsp), %rax
 5135      B0000000 
 5136 01b1 48894424 		movq	%rax, 40(%rsp)
 5136      28
 5137 01b6 48898424 		movq	%rax, 160(%rsp)
 5137      A0000000 
 5138 01be C68424B0 		movb	$0, 176(%rsp)
 5138      00000000 
 5139              	.LEHB112:
 5140 01c6 E8000000 		call	_ZSt16__ostream_insertIcSt11char_traitsIcEERSt13basic_ostreamIT_T0_ES6_PKS3_l@PLT
 5140      00
 5141 01cb 488B7500 		movq	0(%rbp), %rsi
 5142 01cf 4C89E7   		movq	%r12, %rdi
 5143 01d2 E8000000 		call	_ZNSo9_M_insertImEERSoT_@PLT
 5143      00
 5144 01d7 BA090000 		movl	$9, %edx
 5144      00
 5145 01dc 488D3500 		leaq	.LC1(%rip), %rsi
 5145      000000
 5146 01e3 4889C7   		movq	%rax, %rdi
 5147 01e6 4889C5   		movq	%rax, %rbp
 5148 01e9 E8000000 		call	_ZSt16__ostream_insertIcSt11char_traitsIcEERSt13basic_ostreamIT_T0_ES6_PKS3_l@PLT
 5148      00
 5149 01ee 488B33   		movq	(%rbx), %rsi
 5150 01f1 4889EF   		movq	%rbp, %rdi
 5151 01f4 E8000000 		call	_ZNSo9_M_insertImEERSoT_@PLT
 5151      00
 5152 01f9 4C89E7   		movq	%r12, %rdi
 5153 01fc E8000000 		call	_ZNK8UnitTest15MemoryOutStream7GetTextEv@PLT
 5153      00
 5154 0201 488B7424 		movq	24(%rsp), %rsi
 5154      18
 5155 0206 488B7C24 		movq	16(%rsp), %rdi
 5155      10
 5156 020b 4889C2   		movq	%rax, %rdx
 5157 020e F30F7E15 		movq	.LC2(%rip), %xmm2
 5157      00000000 
 5158 0216 0F161500 		movhps	.LC4(%rip), %xmm2
 5158      000000
 5159 021d 0F291424 		movaps	%xmm2, (%rsp)
 5160 0221 E8000000 		call	_ZN8UnitTest11TestResults13OnTestFailureERKNS_11TestDetailsEPKc@PLT
 5160      00
 5161              	.LEHE112:
 5162 0226 488D0500 		leaq	64+_ZTVN8UnitTest15MemoryOutStreamE(%rip), %rax
 5162      000000
 5163 022d 4C897C24 		movq	%r15, 48(%rsp)
 5163      30
 5164 0232 488BBC24 		movq	160(%rsp), %rdi
 5164      A0000000 
 5165 023a 48898424 		movq	%rax, 192(%rsp)
 5165      C0000000 
 5166 0242 483B7C24 		cmpq	40(%rsp), %rdi
 5166      28
 5167 0247 7405     		je	.L324
 5168 0249 E8000000 		call	_ZdlPv@PLT
 5168      00
 5169              	.L324:
 5170 024e 660F6F1C 		movdqa	(%rsp), %xmm3
 5170      24
 5171 0253 488D0500 		leaq	64+_ZTCN8UnitTest15MemoryOutStreamE0_NSt7__cxx1119basic_ostringstreamIcSt11char_traitsIcESaIc
 5171      000000
 5172 025a 488BBC24 		movq	128(%rsp), %rdi
 5172      80000000 
 5173 0262 48898424 		movq	%rax, 192(%rsp)
 5173      C0000000 
 5174 026a 0F295C24 		movaps	%xmm3, 48(%rsp)
 5174      30
 5175 026f 483B7C24 		cmpq	32(%rsp), %rdi
 5175      20
 5176 0274 7405     		je	.L325
 5177 0276 E8000000 		call	_ZdlPv@PLT
 5177      00
 5178              	.L325:
 5179 027b 488D0500 		leaq	16+_ZTVSt15basic_streambufIcSt11char_traitsIcEE(%rip), %rax
 5179      000000
 5180 0282 4C89F7   		movq	%r14, %rdi
 5181 0285 48894424 		movq	%rax, 56(%rsp)
 5181      38
 5182 028a E8000000 		call	_ZNSt6localeD1Ev@PLT
 5182      00
 5183 028f 488D0500 		leaq	24+_ZTCN8UnitTest15MemoryOutStreamE0_So(%rip), %rax
 5183      000000
 5184 0296 4C89EF   		movq	%r13, %rdi
 5185 0299 48894424 		movq	%rax, 48(%rsp)
 5185      30
 5186 029e 488D0500 		leaq	16+_ZTVSt9basic_iosIcSt11char_traitsIcEE(%rip), %rax
 5186      000000
 5187 02a5 48898424 		movq	%rax, 192(%rsp)
 5187      C0000000 
 5188              	.LEHB113:
 5189 02ad E8000000 		call	_ZNSt8ios_baseD2Ev@PLT
 5189      00
 5190              	.LEHE113:
 5191 02b2 E996FDFF 		jmp	.L318
 5191      FF
 5192              	.L335:
 5193 02b7 E8000000 		call	__stack_chk_fail@PLT
 5193      00
 5194              	.L329:
 5195 02bc F30F1EFA 		endbr64
 5196 02c0 4889C5   		movq	%rax, %rbp
 5197 02c3 EB26     		jmp	.L322
 5198              	.L330:
 5199 02c5 F30F1EFA 		endbr64
 5200 02c9 4889C5   		movq	%rax, %rbp
 5201 02cc EB09     		jmp	.L321
 5202              	.L328:
 5203 02ce F30F1EFA 		endbr64
 5204 02d2 4889C5   		movq	%rax, %rbp
 5205 02d5 EB33     		jmp	.L326
 5206              	.L321:
 5207 02d7 4C89FF   		movq	%r15, %rdi
 5208 02da E8000000 		call	_ZNSt7__cxx1115basic_stringbufIcSt11char_traitsIcESaIcEED1Ev
 5208      00
 5209 02df 488D0500 		leaq	24+_ZTCN8UnitTest15MemoryOutStreamE0_So(%rip), %rax
 5209      000000
 5210 02e6 48894424 		movq	%rax, 48(%rsp)
 5210      30
 5211              	.L322:
 5212 02eb 488D0500 		leaq	16+_ZTVSt9basic_iosIcSt11char_traitsIcEE(%rip), %rax
 5212      000000
 5213 02f2 4C89EF   		movq	%r13, %rdi
 5214 02f5 48898424 		movq	%rax, 192(%rsp)
 5214      C0000000 
 5215 02fd E8000000 		call	_ZNSt8ios_baseD2Ev@PLT
 5215      00
 5216 0302 4889EF   		movq	%rbp, %rdi
 5217              	.LEHB114:
 5218 0305 E8000000 		call	_Unwind_Resume@PLT
 5218      00
 5219              	.LEHE114:
 5220              	.L326:
 5221 030a 4C89E7   		movq	%r12, %rdi
 5222 030d E8000000 		call	_ZN8UnitTest15MemoryOutStreamD1Ev
 5222      00
 5223 0312 4889EF   		movq	%rbp, %rdi
 5224              	.LEHB115:
 5225 0315 E8000000 		call	_Unwind_Resume@PLT
 5225      00
 5226              	.LEHE115:
 5227              		.cfi_endproc
 5228              	.LFE1420:
 5229              		.section	.gcc_except_table
 5230              	.LLSDA1420:
 5231 0077 FF       		.byte	0xff
 5232 0078 FF       		.byte	0xff
 5233 0079 01       		.byte	0x1
 5234 007a 21       		.uleb128 .LLSDACSE1420-.LLSDACSB1420
 5235              	.LLSDACSB1420:
 5236 007b DD01     		.uleb128 .LEHB110-.LFB1420
 5237 007d 05       		.uleb128 .LEHE110-.LEHB110
 5238 007e BC05     		.uleb128 .L329-.LFB1420
 5239 0080 00       		.uleb128 0
 5240 0081 F102     		.uleb128 .LEHB111-.LFB1420
 5241 0083 05       		.uleb128 .LEHE111-.LEHB111
 5242 0084 C505     		.uleb128 .L330-.LFB1420
 5243 0086 00       		.uleb128 0
 5244 0087 C603     		.uleb128 .LEHB112-.LFB1420
 5245 0089 60       		.uleb128 .LEHE112-.LEHB112
 5246 008a CE05     		.uleb128 .L328-.LFB1420
 5247 008c 00       		.uleb128 0
 5248 008d AD05     		.uleb128 .LEHB113-.LFB1420
 5249 008f 05       		.uleb128 .LEHE113-.LEHB113
 5250 0090 00       		.uleb128 0
 5251 0091 00       		.uleb128 0
 5252 0092 8506     		.uleb128 .LEHB114-.LFB1420
 5253 0094 05       		.uleb128 .LEHE114-.LEHB114
 5254 0095 00       		.uleb128 0
 5255 0096 00       		.uleb128 0
 5256 0097 9506     		.uleb128 .LEHB115-.LFB1420
 5257 0099 05       		.uleb128 .LEHE115-.LEHB115
 5258 009a 00       		.uleb128 0
 5259 009b 00       		.uleb128 0
 5260              	.LLSDACSE1420:
 5261              		.section	.text._ZN8UnitTest10CheckEqualImmEEvRNS_11TestResultsERKT_RKT0_RKNS_11TestDetailsE,"axG",
 5263              		.section	.rodata.str1.8,"aMS",@progbits,1
 5264              		.align 8
 5265              	.LC12:
 5266 0000 556E6861 		.string	"Unhandled exception in CHECK_EQUAL(BUF_SUCCESS, status)"
 5266      6E646C65 
 5266      64206578 
 5266      63657074 
 5266      696F6E20 
 5267              		.align 8
 5268              	.LC13:
 5269 0038 556E6861 		.string	"Unhandled exception in CHECK_EQUAL(0x18000UL, buf.length)"
 5269      6E646C65 
 5269      64206578 
 5269      63657074 
 5269      696F6E20 
 5270 0072 00000000 		.align 8
 5270      0000
 5271              	.LC14:
 5272 0078 556E6861 		.string	"Unhandled exception in CHECK_EQUAL(0x20000UL, buf.capacity)"
 5272      6E646C65 
 5272      64206578 
 5272      63657074 
 5272      696F6E20 
 5273              		.section	.text.unlikely
 5274 00cd 90       		.align 2
 5275              	.LCOLDB15:
 5276              		.text
 5277              	.LHOTB15:
 5278              		.align 2
 5279 0ada 660F1F44 		.p2align 4
 5279      0000
 5280              		.globl	_ZNK28TestCore_testHugeAppendConst7RunImplEv
 5282              	_ZNK28TestCore_testHugeAppendConst7RunImplEv:
 5283              	.LFB1295:
 5284              		.cfi_startproc
 5285              		.cfi_personality 0x9b,DW.ref.__gxx_personality_v0
 5286              		.cfi_lsda 0x1b,.LLSDA1295
 5287 0ae0 F30F1EFA 		endbr64
 5288 0ae4 4155     		pushq	%r13
 5289              		.cfi_def_cfa_offset 16
 5290              		.cfi_offset 13, -16
 5291 0ae6 31C9     		xorl	%ecx, %ecx
 5292 0ae8 31D2     		xorl	%edx, %edx
 5293 0aea BE040000 		movl	$4, %esi
 5293      00
 5294 0aef 4154     		pushq	%r12
 5295              		.cfi_def_cfa_offset 24
 5296              		.cfi_offset 12, -24
 5297 0af1 55       		pushq	%rbp
 5298              		.cfi_def_cfa_offset 32
 5299              		.cfi_offset 6, -32
 5300 0af2 4883EC60 		subq	$96, %rsp
 5301              		.cfi_def_cfa_offset 128
 5302 0af6 64488B04 		movq	%fs:40, %rax
 5302      25280000 
 5302      00
 5303 0aff 48894424 		movq	%rax, 88(%rsp)
 5303      58
 5304 0b04 31C0     		xorl	%eax, %eax
 5305 0b06 4C8D6424 		leaq	16(%rsp), %r12
 5305      10
 5306 0b0b 4C89E7   		movq	%r12, %rdi
 5307              	.LEHB116:
 5308 0b0e E8000000 		call	bufInitialise@PLT
 5308      00
 5309              	.LEHE116:
 5310 0b13 89442404 		movl	%eax, 4(%rsp)
 5311              	.LEHB117:
 5312 0b17 E8000000 		call	_ZN8UnitTest11CurrentTest7DetailsEv@PLT
 5312      00
 5313 0b1c 488D6C24 		leaq	48(%rsp), %rbp
 5313      30
 5314 0b21 488B30   		movq	(%rax), %rsi
 5315 0b24 BA840100 		movl	$388, %edx
 5315      00
 5316 0b29 4889EF   		movq	%rbp, %rdi
 5317 0b2c E8000000 		call	_ZN8UnitTest11TestDetailsC1ERKS0_i@PLT
 5317      00
 5318 0b31 C7442408 		movl	$0, 8(%rsp)
 5318      00000000 
 5319 0b39 E8000000 		call	_ZN8UnitTest11CurrentTest7ResultsEv@PLT
 5319      00
 5320 0b3e 488B38   		movq	(%rax), %rdi
 5321 0b41 488D5424 		leaq	4(%rsp), %rdx
 5321      04
 5322 0b46 488D7424 		leaq	8(%rsp), %rsi
 5322      08
 5323 0b4b 4889E9   		movq	%rbp, %rcx
 5324 0b4e E8ADF4FF 		call	_ZN8UnitTest10CheckEqualI12BufferStatusS1_EEvRNS_11TestResultsERKT_RKT0_RKNS_11TestDetailsE.c
 5324      FF
 5325              	.LEHE117:
 5326              	.L338:
 5327 0b53 31C9     		xorl	%ecx, %ecx
 5328 0b55 BA008001 		movl	$98304, %edx
 5328      00
 5329 0b5a BE090000 		movl	$9, %esi
 5329      00
 5330 0b5f 4C89E7   		movq	%r12, %rdi
 5331              	.LEHB118:
 5332 0b62 E8000000 		call	bufAppendConst@PLT
 5332      00
 5333              	.LEHE118:
 5334 0b67 89442404 		movl	%eax, 4(%rsp)
 5335              	.LEHB119:
 5336 0b6b E8000000 		call	_ZN8UnitTest11CurrentTest7DetailsEv@PLT
 5336      00
 5337 0b70 488B30   		movq	(%rax), %rsi
 5338 0b73 BA860100 		movl	$390, %edx
 5338      00
 5339 0b78 4889EF   		movq	%rbp, %rdi
 5340 0b7b E8000000 		call	_ZN8UnitTest11TestDetailsC1ERKS0_i@PLT
 5340      00
 5341 0b80 C7442408 		movl	$0, 8(%rsp)
 5341      00000000 
 5342 0b88 E8000000 		call	_ZN8UnitTest11CurrentTest7ResultsEv@PLT
 5342      00
 5343 0b8d 488B38   		movq	(%rax), %rdi
 5344 0b90 488D5424 		leaq	4(%rsp), %rdx
 5344      04
 5345 0b95 488D7424 		leaq	8(%rsp), %rsi
 5345      08
 5346 0b9a 4889E9   		movq	%rbp, %rcx
 5347 0b9d E85EF4FF 		call	_ZN8UnitTest10CheckEqualI12BufferStatusS1_EEvRNS_11TestResultsERKT_RKT0_RKNS_11TestDetailsE.c
 5347      FF
 5348              	.LEHE119:
 5349              	.L341:
 5350              	.LEHB120:
 5351 0ba2 E8000000 		call	_ZN8UnitTest11CurrentTest7DetailsEv@PLT
 5351      00
 5352 0ba7 488B30   		movq	(%rax), %rsi
 5353 0baa BA870100 		movl	$391, %edx
 5353      00
 5354 0baf 4889EF   		movq	%rbp, %rdi
 5355 0bb2 E8000000 		call	_ZN8UnitTest11TestDetailsC1ERKS0_i@PLT
 5355      00
 5356 0bb7 48C74424 		movq	$98304, 8(%rsp)
 5356      08008001 
 5356      00
 5357 0bc0 E8000000 		call	_ZN8UnitTest11CurrentTest7ResultsEv@PLT
 5357      00
 5358 0bc5 488B38   		movq	(%rax), %rdi
 5359 0bc8 488D5424 		leaq	24(%rsp), %rdx
 5359      18
 5360 0bcd 488D7424 		leaq	8(%rsp), %rsi
 5360      08
 5361 0bd2 4889E9   		movq	%rbp, %rcx
 5362 0bd5 E8000000 		call	_ZN8UnitTest10CheckEqualImmEEvRNS_11TestResultsERKT_RKT0_RKNS_11TestDetailsE
 5362      00
 5363              	.LEHE120:
 5364              	.L344:
 5365              	.LEHB121:
 5366 0bda E8000000 		call	_ZN8UnitTest11CurrentTest7DetailsEv@PLT
 5366      00
 5367 0bdf 488B30   		movq	(%rax), %rsi
 5368 0be2 BA880100 		movl	$392, %edx
 5368      00
 5369 0be7 4889EF   		movq	%rbp, %rdi
 5370 0bea E8000000 		call	_ZN8UnitTest11TestDetailsC1ERKS0_i@PLT
 5370      00
 5371 0bef 48C74424 		movq	$131072, 8(%rsp)
 5371      08000002 
 5371      00
 5372 0bf8 E8000000 		call	_ZN8UnitTest11CurrentTest7ResultsEv@PLT
 5372      00
 5373 0bfd 488B38   		movq	(%rax), %rdi
 5374 0c00 488D5424 		leaq	32(%rsp), %rdx
 5374      20
 5375 0c05 488D7424 		leaq	8(%rsp), %rsi
 5375      08
 5376 0c0a 4889E9   		movq	%rbp, %rcx
 5377 0c0d E8000000 		call	_ZN8UnitTest10CheckEqualImmEEvRNS_11TestResultsERKT_RKT0_RKNS_11TestDetailsE
 5377      00
 5378              	.LEHE121:
 5379              	.L347:
 5380 0c12 4C89E7   		movq	%r12, %rdi
 5381              	.LEHB122:
 5382 0c15 E8000000 		call	bufDestroy@PLT
 5382      00
 5383              	.LEHE122:
 5384 0c1a 488B4424 		movq	88(%rsp), %rax
 5384      58
 5385 0c1f 64482B04 		subq	%fs:40, %rax
 5385      25280000 
 5385      00
 5386 0c28 750A     		jne	.L360
 5387 0c2a 4883C460 		addq	$96, %rsp
 5388              		.cfi_remember_state
 5389              		.cfi_def_cfa_offset 32
 5390 0c2e 5D       		popq	%rbp
 5391              		.cfi_def_cfa_offset 24
 5392 0c2f 415C     		popq	%r12
 5393              		.cfi_def_cfa_offset 16
 5394 0c31 415D     		popq	%r13
 5395              		.cfi_def_cfa_offset 8
 5396 0c33 C3       		ret
 5397              	.L360:
 5398              		.cfi_restore_state
 5399 0c34 E8000000 		call	__stack_chk_fail@PLT
 5399      00
 5400              	.L356:
 5401 0c39 F30F1EFA 		endbr64
 5402 0c3d 4889C7   		movq	%rax, %rdi
 5403 0c40 E9000000 		jmp	.L346
 5403      00
 5404              	.L354:
 5405 0c45 F30F1EFA 		endbr64
 5406 0c49 4889C7   		movq	%rax, %rdi
 5407 0c4c E9000000 		jmp	.L343
 5407      00
 5408              	.L352:
 5409 0c51 F30F1EFA 		endbr64
 5410 0c55 4889C7   		movq	%rax, %rdi
 5411 0c58 E9000000 		jmp	.L340
 5411      00
 5412              	.L350:
 5413 0c5d F30F1EFA 		endbr64
 5414 0c61 4889C7   		movq	%rax, %rdi
 5415 0c64 E9000000 		jmp	.L337
 5415      00
 5416              		.section	.gcc_except_table
 5417              		.align 4
 5418              	.LLSDA1295:
 5419 009c FF       		.byte	0xff
 5420 009d 9B       		.byte	0x9b
 5421 009e 2D       		.uleb128 .LLSDATT1295-.LLSDATTD1295
 5422              	.LLSDATTD1295:
 5423 009f 01       		.byte	0x1
 5424 00a0 25       		.uleb128 .LLSDACSE1295-.LLSDACSB1295
 5425              	.LLSDACSB1295:
 5426 00a1 2E       		.uleb128 .LEHB116-.LFB1295
 5427 00a2 05       		.uleb128 .LEHE116-.LEHB116
 5428 00a3 00       		.uleb128 0
 5429 00a4 00       		.uleb128 0
 5430 00a5 37       		.uleb128 .LEHB117-.LFB1295
 5431 00a6 3C       		.uleb128 .LEHE117-.LEHB117
 5432 00a7 FD02     		.uleb128 .L350-.LFB1295
 5433 00a9 01       		.uleb128 0x1
 5434 00aa 8201     		.uleb128 .LEHB118-.LFB1295
 5435 00ac 05       		.uleb128 .LEHE118-.LEHB118
 5436 00ad 00       		.uleb128 0
 5437 00ae 00       		.uleb128 0
 5438 00af 8B01     		.uleb128 .LEHB119-.LFB1295
 5439 00b1 37       		.uleb128 .LEHE119-.LEHB119
 5440 00b2 F102     		.uleb128 .L352-.LFB1295
 5441 00b4 01       		.uleb128 0x1
 5442 00b5 C201     		.uleb128 .LEHB120-.LFB1295
 5443 00b7 38       		.uleb128 .LEHE120-.LEHB120
 5444 00b8 E502     		.uleb128 .L354-.LFB1295
 5445 00ba 01       		.uleb128 0x1
 5446 00bb FA01     		.uleb128 .LEHB121-.LFB1295
 5447 00bd 38       		.uleb128 .LEHE121-.LEHB121
 5448 00be D902     		.uleb128 .L356-.LFB1295
 5449 00c0 01       		.uleb128 0x1
 5450 00c1 B502     		.uleb128 .LEHB122-.LFB1295
 5451 00c3 05       		.uleb128 .LEHE122-.LEHB122
 5452 00c4 00       		.uleb128 0
 5453 00c5 00       		.uleb128 0
 5454              	.LLSDACSE1295:
 5455 00c6 01       		.byte	0x1
 5456 00c7 00       		.byte	0
 5457              		.align 4
 5458 00c8 00000000 		.long	0
 5459              	
 5460              	.LLSDATT1295:
 5461              		.text
 5462              		.cfi_endproc
 5463              		.section	.text.unlikely
 5464              		.cfi_startproc
 5465              		.cfi_personality 0x9b,DW.ref.__gxx_personality_v0
 5466              		.cfi_lsda 0x1b,.LLSDAC1295
 5468              	_ZNK28TestCore_testHugeAppendConst7RunImplEv.cold:
 5469              	.LFSB1295:
 5470              	.L346:
 5471              		.cfi_def_cfa_offset 128
 5472              		.cfi_offset 6, -32
 5473              		.cfi_offset 12, -24
 5474              		.cfi_offset 13, -16
 5475 00ce E8000000 		call	__cxa_begin_catch@PLT
 5475      00
 5476              	.LEHB123:
