   1              		.file	"testSvf2Csvf.cpp"
   2              		.text
   3              	.Ltext0:
   4              		.file 0 "/home/pong/FPGALink/makestuff/libs/libfpgalink/tests-unit" "testSvf2Csvf.cpp"
   5              		.section	.rodata
   6              	.LC0:
   7 0000 44656661 		.string	"DefaultSuite"
   7      756C7453 
   7      75697465 
   7      00
   8              		.section	.text._ZN13UnitTestSuite12GetSuiteNameEv,"axG",@progbits,_ZN13UnitTestSuite12GetSuiteName
   9              		.weak	_ZN13UnitTestSuite12GetSuiteNameEv
  11              	_ZN13UnitTestSuite12GetSuiteNameEv:
  12              	.LFB0:
  13              		.file 1 "/home/pong/FPGALink/makestuff/libs/libutpp/TestSuite.h"
   1:/home/pong/FPGALink/makestuff/libs/libutpp/TestSuite.h **** #ifndef UNITTEST_TESTSUITE_H
   2:/home/pong/FPGALink/makestuff/libs/libutpp/TestSuite.h **** #define UNITTEST_TESTSUITE_H
   3:/home/pong/FPGALink/makestuff/libs/libutpp/TestSuite.h **** 
   4:/home/pong/FPGALink/makestuff/libs/libutpp/TestSuite.h **** namespace UnitTestSuite {
   5:/home/pong/FPGALink/makestuff/libs/libutpp/TestSuite.h **** 
   6:/home/pong/FPGALink/makestuff/libs/libutpp/TestSuite.h ****     inline char const* GetSuiteName ()
   7:/home/pong/FPGALink/makestuff/libs/libutpp/TestSuite.h ****     {
  14              		.loc 1 7 5
  15              		.cfi_startproc
  16 0000 F30F1EFA 		endbr64
  17 0004 55       		pushq	%rbp
  18              		.cfi_def_cfa_offset 16
  19              		.cfi_offset 6, -16
  20 0005 4889E5   		movq	%rsp, %rbp
  21              		.cfi_def_cfa_register 6
   8:/home/pong/FPGALink/makestuff/libs/libutpp/TestSuite.h ****         return "DefaultSuite";
  22              		.loc 1 8 16
  23 0008 488D0500 		leaq	.LC0(%rip), %rax
  23      000000
   9:/home/pong/FPGALink/makestuff/libs/libutpp/TestSuite.h ****     }
  24              		.loc 1 9 5
  25 000f 5D       		popq	%rbp
  26              		.cfi_def_cfa 7, 8
  27 0010 C3       		ret
  28              		.cfi_endproc
  29              	.LFE0:
  31              		.section	.text._ZN8UnitTest15MemoryOutStreamC1Ev,"axG",@progbits,_ZN8UnitTest15MemoryOutStreamC1Ev
  32              		.align 2
  33              		.weak	_ZN8UnitTest15MemoryOutStreamC1Ev
  35              	_ZN8UnitTest15MemoryOutStreamC1Ev:
  36              	.LFB1129:
  37              		.file 2 "/home/pong/FPGALink/makestuff/libs/libutpp/MemoryOutStream.h"
   1:/home/pong/FPGALink/makestuff/libs/libutpp/MemoryOutStream.h **** #ifndef UNITTEST_MEMORYOUTSTREAM_H
   2:/home/pong/FPGALink/makestuff/libs/libutpp/MemoryOutStream.h **** #define UNITTEST_MEMORYOUTSTREAM_H
   3:/home/pong/FPGALink/makestuff/libs/libutpp/MemoryOutStream.h **** 
   4:/home/pong/FPGALink/makestuff/libs/libutpp/MemoryOutStream.h **** #include "Config.h"
   5:/home/pong/FPGALink/makestuff/libs/libutpp/MemoryOutStream.h **** 
   6:/home/pong/FPGALink/makestuff/libs/libutpp/MemoryOutStream.h **** #ifndef UNITTEST_USE_CUSTOM_STREAMS
   7:/home/pong/FPGALink/makestuff/libs/libutpp/MemoryOutStream.h **** 
   8:/home/pong/FPGALink/makestuff/libs/libutpp/MemoryOutStream.h **** #include <sstream>
   9:/home/pong/FPGALink/makestuff/libs/libutpp/MemoryOutStream.h **** 
  10:/home/pong/FPGALink/makestuff/libs/libutpp/MemoryOutStream.h **** namespace UnitTest
  11:/home/pong/FPGALink/makestuff/libs/libutpp/MemoryOutStream.h **** {
  12:/home/pong/FPGALink/makestuff/libs/libutpp/MemoryOutStream.h **** 
  13:/home/pong/FPGALink/makestuff/libs/libutpp/MemoryOutStream.h **** class MemoryOutStream : public std::ostringstream
  14:/home/pong/FPGALink/makestuff/libs/libutpp/MemoryOutStream.h **** {
  15:/home/pong/FPGALink/makestuff/libs/libutpp/MemoryOutStream.h **** public:
  16:/home/pong/FPGALink/makestuff/libs/libutpp/MemoryOutStream.h ****     MemoryOutStream() {}
  38              		.loc 2 16 5
  39              		.cfi_startproc
  40              		.cfi_personality 0x9b,DW.ref.__gxx_personality_v0
  41              		.cfi_lsda 0x1b,.LLSDA1129
  42 0000 F30F1EFA 		endbr64
  43 0004 55       		pushq	%rbp
  44              		.cfi_def_cfa_offset 16
  45              		.cfi_offset 6, -16
  46 0005 4889E5   		movq	%rsp, %rbp
  47              		.cfi_def_cfa_register 6
  48 0008 53       		pushq	%rbx
  49 0009 4883EC18 		subq	$24, %rsp
  50              		.cfi_offset 3, -24
  51 000d 48897DE8 		movq	%rdi, -24(%rbp)
  52              	.LBB2:
  53              		.loc 2 16 23
  54 0011 488B45E8 		movq	-24(%rbp), %rax
  55 0015 48059000 		addq	$144, %rax
  55      0000
  56 001b 4889C7   		movq	%rax, %rdi
  57              	.LEHB0:
  58 001e E8000000 		call	_ZNSt9basic_iosIcSt11char_traitsIcEEC2Ev@PLT
  58      00
  59              	.LEHE0:
  60 0023 488B45E8 		movq	-24(%rbp), %rax
  61 0027 488D1500 		leaq	8+_ZTTN8UnitTest15MemoryOutStreamE(%rip), %rdx
  61      000000
  62 002e 4889D6   		movq	%rdx, %rsi
  63 0031 4889C7   		movq	%rax, %rdi
  64              	.LEHB1:
  65 0034 E8000000 		call	_ZNSt7__cxx1119basic_ostringstreamIcSt11char_traitsIcESaIcEEC2Ev@PLT
  65      00
  66              	.LEHE1:
  67              		.loc 2 16 23 is_stmt 0 discriminator 2
  68 0039 488D1500 		leaq	24+_ZTVN8UnitTest15MemoryOutStreamE(%rip), %rdx
  68      000000
  69 0040 488B45E8 		movq	-24(%rbp), %rax
  70 0044 488910   		movq	%rdx, (%rax)
  71 0047 488B45E8 		movq	-24(%rbp), %rax
  72 004b 48059000 		addq	$144, %rax
  72      0000
  73 0051 488D1500 		leaq	64+_ZTVN8UnitTest15MemoryOutStreamE(%rip), %rdx
  73      000000
  74 0058 488910   		movq	%rdx, (%rax)
  75 005b 488B45E8 		movq	-24(%rbp), %rax
  76 005f 4883C070 		addq	$112, %rax
  77 0063 4889C7   		movq	%rax, %rdi
  78              	.LEHB2:
  79 0066 E8000000 		call	_ZNSt7__cxx1112basic_stringIcSt11char_traitsIcESaIcEEC1Ev@PLT
  79      00
  80              	.LEHE2:
  81              	.LBE2:
  82              		.loc 2 16 24 is_stmt 1
  83 006b EB43     		jmp	.L8
  84              	.L7:
  85 006d F30F1EFA 		endbr64
  86              	.LBB3:
  87 0071 4889C3   		movq	%rax, %rbx
  88 0074 488B45E8 		movq	-24(%rbp), %rax
  89 0078 488D1500 		leaq	8+_ZTTN8UnitTest15MemoryOutStreamE(%rip), %rdx
  89      000000
  90 007f 4889D6   		movq	%rdx, %rsi
  91 0082 4889C7   		movq	%rax, %rdi
  92 0085 E8000000 		call	_ZNSt7__cxx1119basic_ostringstreamIcSt11char_traitsIcESaIcEED2Ev@PLT
  92      00
  93 008a EB07     		jmp	.L5
  94              	.L6:
  95 008c F30F1EFA 		endbr64
  96 0090 4889C3   		movq	%rax, %rbx
  97              	.L5:
  98              		.loc 2 16 24 is_stmt 0 discriminator 1
  99 0093 488B45E8 		movq	-24(%rbp), %rax
 100 0097 48059000 		addq	$144, %rax
 100      0000
 101 009d 4889C7   		movq	%rax, %rdi
 102 00a0 E8000000 		call	_ZNSt9basic_iosIcSt11char_traitsIcEED2Ev@PLT
 102      00
 103 00a5 4889D8   		movq	%rbx, %rax
 104 00a8 4889C7   		movq	%rax, %rdi
 105              	.LEHB3:
 106 00ab E8000000 		call	_Unwind_Resume@PLT
 106      00
 107              	.LEHE3:
 108              	.L8:
 109              	.LBE3:
 110              		.loc 2 16 24
 111 00b0 488B5DF8 		movq	-8(%rbp), %rbx
 112 00b4 C9       		leave
 113              		.cfi_def_cfa 7, 8
 114 00b5 C3       		ret
 115              		.cfi_endproc
 116              	.LFE1129:
 117              		.globl	__gxx_personality_v0
 118              		.section	.gcc_except_table._ZN8UnitTest15MemoryOutStreamC1Ev,"aG",@progbits,_ZN8UnitTest15MemoryOu
 119              	.LLSDA1129:
 120 0000 FF       		.byte	0xff
 121 0001 FF       		.byte	0xff
 122 0002 01       		.byte	0x1
 123 0003 12       		.uleb128 .LLSDACSE1129-.LLSDACSB1129
 124              	.LLSDACSB1129:
 125 0004 1E       		.uleb128 .LEHB0-.LFB1129
 126 0005 05       		.uleb128 .LEHE0-.LEHB0
 127 0006 00       		.uleb128 0
 128 0007 00       		.uleb128 0
 129 0008 34       		.uleb128 .LEHB1-.LFB1129
 130 0009 05       		.uleb128 .LEHE1-.LEHB1
 131 000a 8C01     		.uleb128 .L6-.LFB1129
 132 000c 00       		.uleb128 0
 133 000d 66       		.uleb128 .LEHB2-.LFB1129
 134 000e 05       		.uleb128 .LEHE2-.LEHB2
 135 000f 6D       		.uleb128 .L7-.LFB1129
 136 0010 00       		.uleb128 0
 137 0011 AB01     		.uleb128 .LEHB3-.LFB1129
 138 0013 05       		.uleb128 .LEHE3-.LEHB3
 139 0014 00       		.uleb128 0
 140 0015 00       		.uleb128 0
 141              	.LLSDACSE1129:
 142              		.section	.text._ZN8UnitTest15MemoryOutStreamC1Ev,"axG",@progbits,_ZN8UnitTest15MemoryOutStreamC1Ev
 144              		.section	.rodata
 145              	.LC1:
 146 000d 25303258 		.string	"%02X"
 146      00
 147 0012 00000000 		.align 8
 147      0000
 148              	.LC2:
 149 0018 556E6861 		.string	"Unhandled exception in CHECK_EQUAL(FL_SUCCESS, fStatus)"
 149      6E646C65 
 149      64206578 
 149      63657074 
 149      696F6E20 
 150              		.align 8
 151              	.LC3:
 152 0050 556E6861 		.string	"Unhandled exception in CHECK_EQUAL(expectedLength, buf->length)"
 152      6E646C65 
 152      64206578 
 152      63657074 
 152      696F6E20 
 153              		.align 8
 154              	.LC4:
 155 0090 556E6861 		.string	"Unhandled exception in CHECK_EQUAL(expected, result)"
 155      6E646C65 
 155      64206578 
 155      63657074 
 155      696F6E20 
 156              		.text
 157              		.globl	_Z13testReadBytesP6BufferPKc
 159              	_Z13testReadBytesP6BufferPKc:
 160              	.LFB1145:
 161              		.file 3 "testSvf2Csvf.cpp"
   1:testSvf2Csvf.cpp **** /*
   2:testSvf2Csvf.cpp ****  * Copyright (C) 2009-2012 Chris McClelland
   3:testSvf2Csvf.cpp ****  *
   4:testSvf2Csvf.cpp ****  * This program is free software: you can redistribute it and/or modify
   5:testSvf2Csvf.cpp ****  * it under the terms of the GNU Lesser General Public License as published by
   6:testSvf2Csvf.cpp ****  * the Free Software Foundation, either version 3 of the License, or
   7:testSvf2Csvf.cpp ****  * (at your option) any later version.
   8:testSvf2Csvf.cpp ****  *
   9:testSvf2Csvf.cpp ****  * This program is distributed in the hope that it will be useful,
  10:testSvf2Csvf.cpp ****  * but WITHOUT ANY WARRANTY; without even the implied warranty of
  11:testSvf2Csvf.cpp ****  * MERCHANTABILITY or FITNESS FOR A PARTICULAR PURPOSE.  See the
  12:testSvf2Csvf.cpp ****  * GNU Lesser General Public License for more details.
  13:testSvf2Csvf.cpp ****  *
  14:testSvf2Csvf.cpp ****  * You should have received a copy of the GNU Lesser General Public License
  15:testSvf2Csvf.cpp ****  * along with this program.  If not, see <http://www.gnu.org/licenses/>.
  16:testSvf2Csvf.cpp ****  */
  17:testSvf2Csvf.cpp **** #include <cstdio>
  18:testSvf2Csvf.cpp **** #include <cstring>
  19:testSvf2Csvf.cpp **** #include <UnitTest++.h>
  20:testSvf2Csvf.cpp **** #include <makestuff.h>
  21:testSvf2Csvf.cpp **** #include <libbuffer.h>
  22:testSvf2Csvf.cpp **** #include "../svf2csvf.h"
  23:testSvf2Csvf.cpp **** #include "../xsvf.h"
  24:testSvf2Csvf.cpp **** 
  25:testSvf2Csvf.cpp **** using namespace std;
  26:testSvf2Csvf.cpp **** 
  27:testSvf2Csvf.cpp **** void testReadBytes(struct Buffer *buf, const char *expected) {
 162              		.loc 3 27 62 is_stmt 1
 163              		.cfi_startproc
 164              		.cfi_personality 0x9b,DW.ref.__gxx_personality_v0
 165              		.cfi_lsda 0x1b,.LLSDA1145
 166 0000 F30F1EFA 		endbr64
 167 0004 55       		pushq	%rbp
 168              		.cfi_def_cfa_offset 16
 169              		.cfi_offset 6, -16
 170 0005 4889E5   		movq	%rsp, %rbp
 171              		.cfi_def_cfa_register 6
 172 0008 53       		pushq	%rbx
 173 0009 4881EC58 		subq	$1112, %rsp
 173      040000
 174              		.cfi_offset 3, -24
 175 0010 4889BDA8 		movq	%rdi, -1112(%rbp)
 175      FBFFFF
 176 0017 4889B5A0 		movq	%rsi, -1120(%rbp)
 176      FBFFFF
 177              		.loc 3 27 62
 178 001e 64488B04 		movq	%fs:40, %rax
 178      25280000 
 178      00
 179 0027 488945E8 		movq	%rax, -24(%rbp)
 180 002b 31C0     		xorl	%eax, %eax
  28:testSvf2Csvf.cpp **** 	FLStatus fStatus;
  29:testSvf2Csvf.cpp **** 	char result[1024];
  30:testSvf2Csvf.cpp **** 	const uint32 expectedLength = (uint32)strlen(expected)/2;
 181              		.loc 3 30 46
 182 002d 488B85A0 		movq	-1120(%rbp), %rax
 182      FBFFFF
 183 0034 4889C7   		movq	%rax, %rdi
 184 0037 E8000000 		call	strlen@PLT
 184      00
 185              		.loc 3 30 56
 186 003c D1E8     		shrl	%eax
 187              		.loc 3 30 15
 188 003e 8985B4FB 		movl	%eax, -1100(%rbp)
 188      FFFF
  31:testSvf2Csvf.cpp **** 	bufZeroLength(buf);
 189              		.loc 3 31 15
 190 0044 488B85A8 		movq	-1112(%rbp), %rax
 190      FBFFFF
 191 004b 4889C7   		movq	%rax, %rdi
 192              	.LEHB4:
 193 004e E8000000 		call	bufZeroLength@PLT
 193      00
  32:testSvf2Csvf.cpp **** 	fStatus = readBytes(buf, expected, NULL);
 194              		.loc 3 32 21
 195 0053 488B8DA0 		movq	-1120(%rbp), %rcx
 195      FBFFFF
 196 005a 488B85A8 		movq	-1112(%rbp), %rax
 196      FBFFFF
 197 0061 BA000000 		movl	$0, %edx
 197      00
 198 0066 4889CE   		movq	%rcx, %rsi
 199 0069 4889C7   		movq	%rax, %rdi
 200 006c E8000000 		call	readBytes@PLT
 200      00
 201              	.LEHE4:
 202              		.loc 3 32 10
 203 0071 8985B0FB 		movl	%eax, -1104(%rbp)
 203      FFFF
 204              	.LEHB5:
  33:testSvf2Csvf.cpp **** 	CHECK_EQUAL(FL_SUCCESS, fStatus);
 205              		.loc 3 33 2
 206 0077 E8000000 		call	_ZN8UnitTest11CurrentTest7DetailsEv@PLT
 206      00
 207 007c 488B08   		movq	(%rax), %rcx
 208 007f 488D85C0 		leaq	-1088(%rbp), %rax
 208      FBFFFF
 209 0086 BA210000 		movl	$33, %edx
 209      00
 210 008b 4889CE   		movq	%rcx, %rsi
 211 008e 4889C7   		movq	%rax, %rdi
 212 0091 E8000000 		call	_ZN8UnitTest11TestDetailsC1ERKS0_i@PLT
 212      00
 213              		.loc 3 33 2 is_stmt 0 discriminator 4
 214 0096 C785B8FB 		movl	$0, -1096(%rbp)
 214      FFFF0000 
 214      0000
 215 00a0 E8000000 		call	_ZN8UnitTest11CurrentTest7ResultsEv@PLT
 215      00
 216 00a5 488B00   		movq	(%rax), %rax
 217 00a8 488D8DC0 		leaq	-1088(%rbp), %rcx
 217      FBFFFF
 218 00af 488D95B0 		leaq	-1104(%rbp), %rdx
 218      FBFFFF
 219 00b6 488DB5B8 		leaq	-1096(%rbp), %rsi
 219      FBFFFF
 220 00bd 4889C7   		movq	%rax, %rdi
 221 00c0 E8000000 		call	_ZN8UnitTest10CheckEqualI8FLStatusS1_EEvRNS_11TestResultsERKT_RKT0_RKNS_11TestDetailsE
 221      00
 222              	.LEHE5:
 223              	.L13:
 224              	.LEHB6:
  34:testSvf2Csvf.cpp **** 	CHECK_EQUAL(expectedLength, buf->length);
 225              		.loc 3 34 2 is_stmt 1
 226 00c5 E8000000 		call	_ZN8UnitTest11CurrentTest7DetailsEv@PLT
 226      00
 227 00ca 488B08   		movq	(%rax), %rcx
 228 00cd 488D85C0 		leaq	-1088(%rbp), %rax
 228      FBFFFF
 229 00d4 BA220000 		movl	$34, %edx
 229      00
 230 00d9 4889CE   		movq	%rcx, %rsi
 231 00dc 4889C7   		movq	%rax, %rdi
 232 00df E8000000 		call	_ZN8UnitTest11TestDetailsC1ERKS0_i@PLT
 232      00
 233              		.loc 3 34 2 is_stmt 0 discriminator 4
 234 00e4 488B85A8 		movq	-1112(%rbp), %rax
 234      FBFFFF
 235 00eb 488D5808 		leaq	8(%rax), %rbx
 236 00ef E8000000 		call	_ZN8UnitTest11CurrentTest7ResultsEv@PLT
 236      00
 237 00f4 488B00   		movq	(%rax), %rax
 238 00f7 488D95C0 		leaq	-1088(%rbp), %rdx
 238      FBFFFF
 239 00fe 488DB5B4 		leaq	-1100(%rbp), %rsi
 239      FBFFFF
 240 0105 4889D1   		movq	%rdx, %rcx
 241 0108 4889DA   		movq	%rbx, %rdx
 242 010b 4889C7   		movq	%rax, %rdi
 243 010e E8000000 		call	_ZN8UnitTest10CheckEqualIjmEEvRNS_11TestResultsERKT_RKT0_RKNS_11TestDetailsE
 243      00
 244              	.LEHE6:
 245              	.L16:
 246              	.LBB4:
  35:testSvf2Csvf.cpp **** 	for ( uint32 i = 0; i < 2*buf->length; i++ ) {
 247              		.loc 3 35 15 is_stmt 1
 248 0113 C785BCFB 		movl	$0, -1092(%rbp)
 248      FFFF0000 
 248      0000
 249              		.loc 3 35 2
 250 011d EB4D     		jmp	.L10
 251              	.L11:
  36:testSvf2Csvf.cpp **** 		sprintf(result + 2*i, "%02X", buf->data[i]);
 252              		.loc 3 36 38 discriminator 3
 253 011f 488B85A8 		movq	-1112(%rbp), %rax
 253      FBFFFF
 254 0126 488B10   		movq	(%rax), %rdx
 255              		.loc 3 36 43 discriminator 3
 256 0129 8B85BCFB 		movl	-1092(%rbp), %eax
 256      FFFF
 257              		.loc 3 36 44 discriminator 3
 258 012f 4801D0   		addq	%rdx, %rax
 259 0132 0FB600   		movzbl	(%rax), %eax
 260              		.loc 3 36 10 discriminator 3
 261 0135 0FB6C0   		movzbl	%al, %eax
 262              		.loc 3 36 21 discriminator 3
 263 0138 8B95BCFB 		movl	-1092(%rbp), %edx
 263      FFFF
 264 013e 01D2     		addl	%edx, %edx
 265 0140 89D1     		movl	%edx, %ecx
 266              		.loc 3 36 10 discriminator 3
 267 0142 488D95E0 		leaq	-1056(%rbp), %rdx
 267      FBFFFF
 268 0149 4801D1   		addq	%rdx, %rcx
 269 014c 89C2     		movl	%eax, %edx
 270 014e 488D0500 		leaq	.LC1(%rip), %rax
 270      000000
 271 0155 4889C6   		movq	%rax, %rsi
 272 0158 4889CF   		movq	%rcx, %rdi
 273 015b B8000000 		movl	$0, %eax
 273      00
 274 0160 E8000000 		call	sprintf@PLT
 274      00
  35:testSvf2Csvf.cpp **** 	for ( uint32 i = 0; i < 2*buf->length; i++ ) {
 275              		.loc 3 35 2 discriminator 3
 276 0165 8385BCFB 		addl	$1, -1092(%rbp)
 276      FFFF01
 277              	.L10:
  35:testSvf2Csvf.cpp **** 	for ( uint32 i = 0; i < 2*buf->length; i++ ) {
 278              		.loc 3 35 22 discriminator 1
 279 016c 8B95BCFB 		movl	-1092(%rbp), %edx
 279      FFFF
  35:testSvf2Csvf.cpp **** 	for ( uint32 i = 0; i < 2*buf->length; i++ ) {
 280              		.loc 3 35 33 discriminator 1
 281 0172 488B85A8 		movq	-1112(%rbp), %rax
 281      FBFFFF
 282 0179 488B4008 		movq	8(%rax), %rax
  35:testSvf2Csvf.cpp **** 	for ( uint32 i = 0; i < 2*buf->length; i++ ) {
 283              		.loc 3 35 27 discriminator 1
 284 017d 4801C0   		addq	%rax, %rax
  35:testSvf2Csvf.cpp **** 	for ( uint32 i = 0; i < 2*buf->length; i++ ) {
 285              		.loc 3 35 24 discriminator 1
 286 0180 4839C2   		cmpq	%rax, %rdx
 287 0183 729A     		jb	.L11
 288              	.LBE4:
  37:testSvf2Csvf.cpp **** 	}
  38:testSvf2Csvf.cpp **** 	result[2*buf->length] = '\0';
 289              		.loc 3 38 16
 290 0185 488B85A8 		movq	-1112(%rbp), %rax
 290      FBFFFF
 291 018c 488B4008 		movq	8(%rax), %rax
 292              		.loc 3 38 10
 293 0190 4801C0   		addq	%rax, %rax
 294              		.loc 3 38 24
 295 0193 C68405E0 		movb	$0, -1056(%rbp,%rax)
 295      FBFFFF00 
 296              	.LEHB7:
  39:testSvf2Csvf.cpp **** 	CHECK_EQUAL(expected, result);
 297              		.loc 3 39 2
 298 019b E8000000 		call	_ZN8UnitTest11CurrentTest7DetailsEv@PLT
 298      00
 299 01a0 488B08   		movq	(%rax), %rcx
 300 01a3 488D85C0 		leaq	-1088(%rbp), %rax
 300      FBFFFF
 301 01aa BA270000 		movl	$39, %edx
 301      00
 302 01af 4889CE   		movq	%rcx, %rsi
 303 01b2 4889C7   		movq	%rax, %rdi
 304 01b5 E8000000 		call	_ZN8UnitTest11TestDetailsC1ERKS0_i@PLT
 304      00
 305              		.loc 3 39 2 is_stmt 0 discriminator 4
 306 01ba E8000000 		call	_ZN8UnitTest11CurrentTest7ResultsEv@PLT
 306      00
 307 01bf 488B00   		movq	(%rax), %rax
 308 01c2 488D8DC0 		leaq	-1088(%rbp), %rcx
 308      FBFFFF
 309 01c9 488D95E0 		leaq	-1056(%rbp), %rdx
 309      FBFFFF
 310 01d0 488BB5A0 		movq	-1120(%rbp), %rsi
 310      FBFFFF
 311 01d7 4889C7   		movq	%rax, %rdi
 312 01da E8000000 		call	_ZN8UnitTest10CheckEqualERNS_11TestResultsEPKcPcRKNS_11TestDetailsE@PLT
 312      00
 313              	.LEHE7:
  40:testSvf2Csvf.cpp **** }
 314              		.loc 3 40 1 is_stmt 1
 315 01df E9440100 		jmp	.L9
 315      00
 316              	.L22:
 317 01e4 F30F1EFA 		endbr64
  33:testSvf2Csvf.cpp **** 	CHECK_EQUAL(expectedLength, buf->length);
 318              		.loc 3 33 2
 319 01e8 4889C7   		movq	%rax, %rdi
 320 01eb E8000000 		call	__cxa_begin_catch@PLT
 320      00
 321              	.LEHB8:
 322 01f0 E8000000 		call	_ZN8UnitTest11CurrentTest7ResultsEv@PLT
 322      00
  33:testSvf2Csvf.cpp **** 	CHECK_EQUAL(expectedLength, buf->length);
 323              		.loc 3 33 2 is_stmt 0 discriminator 3
 324 01f5 488B18   		movq	(%rax), %rbx
 325 01f8 E8000000 		call	_ZN8UnitTest11CurrentTest7DetailsEv@PLT
 325      00
  33:testSvf2Csvf.cpp **** 	CHECK_EQUAL(expectedLength, buf->length);
 326              		.loc 3 33 2 discriminator 11
 327 01fd 488B08   		movq	(%rax), %rcx
 328 0200 488D85C0 		leaq	-1088(%rbp), %rax
 328      FBFFFF
 329 0207 BA210000 		movl	$33, %edx
 329      00
 330 020c 4889CE   		movq	%rcx, %rsi
 331 020f 4889C7   		movq	%rax, %rdi
 332 0212 E8000000 		call	_ZN8UnitTest11TestDetailsC1ERKS0_i@PLT
 332      00
  33:testSvf2Csvf.cpp **** 	CHECK_EQUAL(expectedLength, buf->length);
 333              		.loc 3 33 2 discriminator 15
 334 0217 488D85C0 		leaq	-1088(%rbp), %rax
 334      FBFFFF
 335 021e 488D1500 		leaq	.LC2(%rip), %rdx
 335      000000
 336 0225 4889C6   		movq	%rax, %rsi
 337 0228 4889DF   		movq	%rbx, %rdi
 338 022b E8000000 		call	_ZN8UnitTest11TestResults13OnTestFailureERKNS_11TestDetailsEPKc@PLT
 338      00
 339              	.LEHE8:
 340              	.LEHB9:
  33:testSvf2Csvf.cpp **** 	CHECK_EQUAL(expectedLength, buf->length);
 341              		.loc 3 33 2 discriminator 17
 342 0230 E8000000 		call	__cxa_end_catch@PLT
 342      00
 343              	.LEHE9:
 344 0235 E98BFEFF 		jmp	.L13
 344      FF
 345              	.L23:
 346 023a F30F1EFA 		endbr64
  33:testSvf2Csvf.cpp **** 	CHECK_EQUAL(expectedLength, buf->length);
 347              		.loc 3 33 2
 348 023e 4889C3   		movq	%rax, %rbx
 349 0241 E8000000 		call	__cxa_end_catch@PLT
 349      00
 350 0246 4889D8   		movq	%rbx, %rax
 351 0249 4889C7   		movq	%rax, %rdi
 352              	.LEHB10:
 353 024c E8000000 		call	_Unwind_Resume@PLT
 353      00
 354              	.LEHE10:
 355              	.L24:
 356 0251 F30F1EFA 		endbr64
  34:testSvf2Csvf.cpp **** 	for ( uint32 i = 0; i < 2*buf->length; i++ ) {
 357              		.loc 3 34 2 is_stmt 1
 358 0255 4889C7   		movq	%rax, %rdi
 359 0258 E8000000 		call	__cxa_begin_catch@PLT
 359      00
 360              	.LEHB11:
 361 025d E8000000 		call	_ZN8UnitTest11CurrentTest7ResultsEv@PLT
 361      00
  34:testSvf2Csvf.cpp **** 	for ( uint32 i = 0; i < 2*buf->length; i++ ) {
 362              		.loc 3 34 2 is_stmt 0 discriminator 3
 363 0262 488B18   		movq	(%rax), %rbx
 364 0265 E8000000 		call	_ZN8UnitTest11CurrentTest7DetailsEv@PLT
 364      00
  34:testSvf2Csvf.cpp **** 	for ( uint32 i = 0; i < 2*buf->length; i++ ) {
 365              		.loc 3 34 2 discriminator 11
 366 026a 488B08   		movq	(%rax), %rcx
 367 026d 488D85C0 		leaq	-1088(%rbp), %rax
 367      FBFFFF
 368 0274 BA220000 		movl	$34, %edx
 368      00
 369 0279 4889CE   		movq	%rcx, %rsi
 370 027c 4889C7   		movq	%rax, %rdi
 371 027f E8000000 		call	_ZN8UnitTest11TestDetailsC1ERKS0_i@PLT
 371      00
  34:testSvf2Csvf.cpp **** 	for ( uint32 i = 0; i < 2*buf->length; i++ ) {
 372              		.loc 3 34 2 discriminator 15
 373 0284 488D85C0 		leaq	-1088(%rbp), %rax
 373      FBFFFF
 374 028b 488D1500 		leaq	.LC3(%rip), %rdx
 374      000000
 375 0292 4889C6   		movq	%rax, %rsi
 376 0295 4889DF   		movq	%rbx, %rdi
 377 0298 E8000000 		call	_ZN8UnitTest11TestResults13OnTestFailureERKNS_11TestDetailsEPKc@PLT
 377      00
 378              	.LEHE11:
 379              	.LEHB12:
  34:testSvf2Csvf.cpp **** 	for ( uint32 i = 0; i < 2*buf->length; i++ ) {
 380              		.loc 3 34 2 discriminator 17
 381 029d E8000000 		call	__cxa_end_catch@PLT
 381      00
 382              	.LEHE12:
 383 02a2 E96CFEFF 		jmp	.L16
 383      FF
 384              	.L25:
 385 02a7 F30F1EFA 		endbr64
  34:testSvf2Csvf.cpp **** 	for ( uint32 i = 0; i < 2*buf->length; i++ ) {
 386              		.loc 3 34 2
 387 02ab 4889C3   		movq	%rax, %rbx
 388 02ae E8000000 		call	__cxa_end_catch@PLT
 388      00
 389 02b3 4889D8   		movq	%rbx, %rax
 390 02b6 4889C7   		movq	%rax, %rdi
 391              	.LEHB13:
 392 02b9 E8000000 		call	_Unwind_Resume@PLT
 392      00
 393              	.LEHE13:
 394              	.L26:
 395 02be F30F1EFA 		endbr64
  39:testSvf2Csvf.cpp **** }
 396              		.loc 3 39 2 is_stmt 1
 397 02c2 4889C7   		movq	%rax, %rdi
 398 02c5 E8000000 		call	__cxa_begin_catch@PLT
 398      00
 399              	.LEHB14:
 400 02ca E8000000 		call	_ZN8UnitTest11CurrentTest7ResultsEv@PLT
 400      00
  39:testSvf2Csvf.cpp **** }
 401              		.loc 3 39 2 is_stmt 0 discriminator 3
 402 02cf 488B18   		movq	(%rax), %rbx
 403 02d2 E8000000 		call	_ZN8UnitTest11CurrentTest7DetailsEv@PLT
 403      00
  39:testSvf2Csvf.cpp **** }
 404              		.loc 3 39 2 discriminator 11
 405 02d7 488B08   		movq	(%rax), %rcx
 406 02da 488D85C0 		leaq	-1088(%rbp), %rax
 406      FBFFFF
 407 02e1 BA270000 		movl	$39, %edx
 407      00
 408 02e6 4889CE   		movq	%rcx, %rsi
 409 02e9 4889C7   		movq	%rax, %rdi
 410 02ec E8000000 		call	_ZN8UnitTest11TestDetailsC1ERKS0_i@PLT
 410      00
  39:testSvf2Csvf.cpp **** }
 411              		.loc 3 39 2 discriminator 15
 412 02f1 488D85C0 		leaq	-1088(%rbp), %rax
 412      FBFFFF
 413 02f8 488D1500 		leaq	.LC4(%rip), %rdx
 413      000000
 414 02ff 4889C6   		movq	%rax, %rsi
 415 0302 4889DF   		movq	%rbx, %rdi
 416 0305 E8000000 		call	_ZN8UnitTest11TestResults13OnTestFailureERKNS_11TestDetailsEPKc@PLT
 416      00
 417              	.LEHE14:
 418              	.LEHB15:
  39:testSvf2Csvf.cpp **** }
 419              		.loc 3 39 2 discriminator 17
 420 030a E8000000 		call	__cxa_end_catch@PLT
 420      00
 421              	.LEHE15:
 422              		.loc 3 40 1 is_stmt 1 discriminator 17
 423 030f EB17     		jmp	.L9
 424              	.L27:
 425 0311 F30F1EFA 		endbr64
  39:testSvf2Csvf.cpp **** }
 426              		.loc 3 39 2
 427 0315 4889C3   		movq	%rax, %rbx
 428 0318 E8000000 		call	__cxa_end_catch@PLT
 428      00
 429 031d 4889D8   		movq	%rbx, %rax
 430 0320 4889C7   		movq	%rax, %rdi
 431              	.LEHB16:
 432 0323 E8000000 		call	_Unwind_Resume@PLT
 432      00
 433              	.LEHE16:
 434              	.L9:
 435              		.loc 3 40 1
 436 0328 488B45E8 		movq	-24(%rbp), %rax
 437 032c 64482B04 		subq	%fs:40, %rax
 437      25280000 
 437      00
 438 0335 7405     		je	.L21
 439 0337 E8000000 		call	__stack_chk_fail@PLT
 439      00
 440              	.L21:
 441 033c 488B5DF8 		movq	-8(%rbp), %rbx
 442 0340 C9       		leave
 443              		.cfi_def_cfa 7, 8
 444 0341 C3       		ret
 445              		.cfi_endproc
 446              	.LFE1145:
 447              		.section	.gcc_except_table,"a",@progbits
 448              		.align 4
 449              	.LLSDA1145:
 450 0000 FF       		.byte	0xff
 451 0001 9B       		.byte	0x9b
 452 0002 4D       		.uleb128 .LLSDATT1145-.LLSDATTD1145
 453              	.LLSDATTD1145:
 454 0003 01       		.byte	0x1
 455 0004 45       		.uleb128 .LLSDACSE1145-.LLSDACSB1145
 456              	.LLSDACSB1145:
 457 0005 4E       		.uleb128 .LEHB4-.LFB1145
 458 0006 23       		.uleb128 .LEHE4-.LEHB4
 459 0007 00       		.uleb128 0
 460 0008 00       		.uleb128 0
 461 0009 77       		.uleb128 .LEHB5-.LFB1145
 462 000a 4E       		.uleb128 .LEHE5-.LEHB5
 463 000b E403     		.uleb128 .L22-.LFB1145
 464 000d 01       		.uleb128 0x1
 465 000e C501     		.uleb128 .LEHB6-.LFB1145
 466 0010 4E       		.uleb128 .LEHE6-.LEHB6
 467 0011 D104     		.uleb128 .L24-.LFB1145
 468 0013 01       		.uleb128 0x1
 469 0014 9B03     		.uleb128 .LEHB7-.LFB1145
 470 0016 44       		.uleb128 .LEHE7-.LEHB7
 471 0017 BE05     		.uleb128 .L26-.LFB1145
 472 0019 01       		.uleb128 0x1
 473 001a F003     		.uleb128 .LEHB8-.LFB1145
 474 001c 40       		.uleb128 .LEHE8-.LEHB8
 475 001d BA04     		.uleb128 .L23-.LFB1145
 476 001f 00       		.uleb128 0
 477 0020 B004     		.uleb128 .LEHB9-.LFB1145
 478 0022 05       		.uleb128 .LEHE9-.LEHB9
 479 0023 00       		.uleb128 0
 480 0024 00       		.uleb128 0
 481 0025 CC04     		.uleb128 .LEHB10-.LFB1145
 482 0027 05       		.uleb128 .LEHE10-.LEHB10
 483 0028 00       		.uleb128 0
 484 0029 00       		.uleb128 0
 485 002a DD04     		.uleb128 .LEHB11-.LFB1145
 486 002c 40       		.uleb128 .LEHE11-.LEHB11
 487 002d A705     		.uleb128 .L25-.LFB1145
 488 002f 00       		.uleb128 0
 489 0030 9D05     		.uleb128 .LEHB12-.LFB1145
 490 0032 05       		.uleb128 .LEHE12-.LEHB12
 491 0033 00       		.uleb128 0
 492 0034 00       		.uleb128 0
 493 0035 B905     		.uleb128 .LEHB13-.LFB1145
 494 0037 05       		.uleb128 .LEHE13-.LEHB13
 495 0038 00       		.uleb128 0
 496 0039 00       		.uleb128 0
 497 003a CA05     		.uleb128 .LEHB14-.LFB1145
 498 003c 40       		.uleb128 .LEHE14-.LEHB14
 499 003d 9106     		.uleb128 .L27-.LFB1145
 500 003f 00       		.uleb128 0
 501 0040 8A06     		.uleb128 .LEHB15-.LFB1145
 502 0042 05       		.uleb128 .LEHE15-.LEHB15
 503 0043 00       		.uleb128 0
 504 0044 00       		.uleb128 0
 505 0045 A306     		.uleb128 .LEHB16-.LFB1145
 506 0047 05       		.uleb128 .LEHE16-.LEHB16
 507 0048 00       		.uleb128 0
 508 0049 00       		.uleb128 0
 509              	.LLSDACSE1145:
 510 004a 01       		.byte	0x1
 511 004b 00       		.byte	0
 512              		.align 4
 513 004c 00000000 		.long	0
 514              	
 515              	.LLSDATT1145:
 516              		.text
 518              		.section	.rodata
 519              	.LC5:
 520 00c5 74657374 		.string	"testSvf2Csvf.cpp"
 520      53766632 
 520      43737666 
 520      2E637070 
 520      00
 521              	.LC6:
 522 00d6 46504741 		.string	"FPGALink_testReadBytes"
 522      4C696E6B 
 522      5F746573 
 522      74526561 
 522      64427974 
 523              		.section	.text._ZN26TestFPGALink_testReadBytesC2Ev,"axG",@progbits,_ZN26TestFPGALink_testReadBytes
 524              		.align 2
 525              		.weak	_ZN26TestFPGALink_testReadBytesC2Ev
 527              	_ZN26TestFPGALink_testReadBytesC2Ev:
 528              	.LFB1147:
  41:testSvf2Csvf.cpp **** 
  42:testSvf2Csvf.cpp **** TEST(FPGALink_testReadBytes) {
 529              		.loc 3 42 1
 530              		.cfi_startproc
 531 0000 F30F1EFA 		endbr64
 532 0004 55       		pushq	%rbp
 533              		.cfi_def_cfa_offset 16
 534              		.cfi_offset 6, -16
 535 0005 4889E5   		movq	%rsp, %rbp
 536              		.cfi_def_cfa_register 6
 537 0008 53       		pushq	%rbx
 538 0009 4883EC18 		subq	$24, %rsp
 539              		.cfi_offset 3, -24
 540 000d 48897DE8 		movq	%rdi, -24(%rbp)
 541              	.LBB5:
 542              		.loc 3 42 1
 543 0011 488B5DE8 		movq	-24(%rbp), %rbx
 544 0015 E8000000 		call	_ZN13UnitTestSuite12GetSuiteNameEv
 544      00
 545 001a 4889C2   		movq	%rax, %rdx
 546 001d 41B82A00 		movl	$42, %r8d
 546      0000
 547 0023 488D0500 		leaq	.LC5(%rip), %rax
 547      000000
 548 002a 4889C1   		movq	%rax, %rcx
 549 002d 488D0500 		leaq	.LC6(%rip), %rax
 549      000000
 550 0034 4889C6   		movq	%rax, %rsi
 551 0037 4889DF   		movq	%rbx, %rdi
 552 003a E8000000 		call	_ZN8UnitTest4TestC2EPKcS2_S2_i@PLT
 552      00
 553 003f 488D1500 		leaq	16+_ZTV26TestFPGALink_testReadBytes(%rip), %rdx
 553      000000
 554 0046 488B45E8 		movq	-24(%rbp), %rax
 555 004a 488910   		movq	%rdx, (%rax)
 556              	.LBE5:
 557 004d 90       		nop
 558 004e 488B5DF8 		movq	-8(%rbp), %rbx
 559 0052 C9       		leave
 560              		.cfi_def_cfa 7, 8
 561 0053 C3       		ret
 562              		.cfi_endproc
 563              	.LFE1147:
 565              		.weak	_ZN26TestFPGALink_testReadBytesC1Ev
 566              		.set	_ZN26TestFPGALink_testReadBytesC1Ev,_ZN26TestFPGALink_testReadBytesC2Ev
 567              		.globl	testFPGALink_testReadBytesInstance
 568              		.bss
 569              		.align 32
 572              	testFPGALink_testReadBytesInstance:
 573 0000 00000000 		.zero	56
 573      00000000 
 573      00000000 
 573      00000000 
 573      00000000 
 574              		.globl	adderFPGALink_testReadBytes
 577              	adderFPGALink_testReadBytes:
 578 0038 00       		.zero	1
 579              		.section	.rodata
 580              	.LC7:
 581 00ed 464500   		.string	"FE"
 582              	.LC8:
 583 00f0 43414645 		.string	"CAFE"
 583      00
 584              	.LC9:
 585 00f5 46303044 		.string	"F00D1E"
 585      314500
 586              	.LC10:
 587 00fc 44454144 		.string	"DEADF00D"
 587      46303044 
 587      00
 588              	.LC11:
 589 0105 43414645 		.string	"CAFEF00D1E"
 589      46303044 
 589      314500
 590              	.LC12:
 591 0110 44454144 		.string	"DEADCAFEBABE"
 591      43414645 
 591      42414245 
 591      00
 592 011d 000000   		.align 8
 593              	.LC13:
 594 0120 556E6861 		.string	"Unhandled exception in CHECK_EQUAL(BUF_SUCCESS, bStatus)"
 594      6E646C65 
 594      64206578 
 594      63657074 
 594      696F6E20 
 595              		.text
 596              		.align 2
 597              		.globl	_ZNK26TestFPGALink_testReadBytes7RunImplEv
 599              	_ZNK26TestFPGALink_testReadBytes7RunImplEv:
 600              	.LFB1149:
 601              		.loc 3 42 30
 602              		.cfi_startproc
 603              		.cfi_personality 0x9b,DW.ref.__gxx_personality_v0
 604              		.cfi_lsda 0x1b,.LLSDA1149
 605 0342 F30F1EFA 		endbr64
 606 0346 55       		pushq	%rbp
 607              		.cfi_def_cfa_offset 16
 608              		.cfi_offset 6, -16
 609 0347 4889E5   		movq	%rsp, %rbp
 610              		.cfi_def_cfa_register 6
 611 034a 53       		pushq	%rbx
 612 034b 4883EC78 		subq	$120, %rsp
 613              		.cfi_offset 3, -24
 614 034f 48897D88 		movq	%rdi, -120(%rbp)
 615              		.loc 3 42 30
 616 0353 64488B04 		movq	%fs:40, %rax
 616      25280000 
 616      00
 617 035c 488945E8 		movq	%rax, -24(%rbp)
 618 0360 31C0     		xorl	%eax, %eax
  43:testSvf2Csvf.cpp **** 	struct Buffer lineBuf;
  44:testSvf2Csvf.cpp **** 	BufferStatus bStatus;
  45:testSvf2Csvf.cpp **** 	bStatus = bufInitialise(&lineBuf, 1024, 0x00, NULL);
 619              		.loc 3 45 25
 620 0362 488D45A0 		leaq	-96(%rbp), %rax
 621 0366 B9000000 		movl	$0, %ecx
 621      00
 622 036b BA000000 		movl	$0, %edx
 622      00
 623 0370 BE000400 		movl	$1024, %esi
 623      00
 624 0375 4889C7   		movq	%rax, %rdi
 625              	.LEHB17:
 626 0378 E8000000 		call	bufInitialise@PLT
 626      00
 627              	.LEHE17:
 628              		.loc 3 45 10
 629 037d 894598   		movl	%eax, -104(%rbp)
 630              	.LEHB18:
  46:testSvf2Csvf.cpp **** 	CHECK_EQUAL(BUF_SUCCESS, bStatus);
 631              		.loc 3 46 2
 632 0380 E8000000 		call	_ZN8UnitTest11CurrentTest7DetailsEv@PLT
 632      00
 633 0385 488B08   		movq	(%rax), %rcx
 634 0388 488D45C0 		leaq	-64(%rbp), %rax
 635 038c BA2E0000 		movl	$46, %edx
 635      00
 636 0391 4889CE   		movq	%rcx, %rsi
 637 0394 4889C7   		movq	%rax, %rdi
 638 0397 E8000000 		call	_ZN8UnitTest11TestDetailsC1ERKS0_i@PLT
 638      00
 639              		.loc 3 46 2 is_stmt 0 discriminator 4
 640 039c C7459C00 		movl	$0, -100(%rbp)
 640      000000
 641 03a3 E8000000 		call	_ZN8UnitTest11CurrentTest7ResultsEv@PLT
 641      00
 642 03a8 488B00   		movq	(%rax), %rax
 643 03ab 488D4DC0 		leaq	-64(%rbp), %rcx
 644 03af 488D5598 		leaq	-104(%rbp), %rdx
 645 03b3 488D759C 		leaq	-100(%rbp), %rsi
 646 03b7 4889C7   		movq	%rax, %rdi
 647 03ba E8000000 		call	_ZN8UnitTest10CheckEqualI12BufferStatusS1_EEvRNS_11TestResultsERKT_RKT0_RKNS_11TestDetailsE
 647      00
 648              	.LEHE18:
 649              	.L31:
  47:testSvf2Csvf.cpp **** 
  48:testSvf2Csvf.cpp **** 	testReadBytes(&lineBuf, "FE");
 650              		.loc 3 48 15 is_stmt 1
 651 03bf 488D45A0 		leaq	-96(%rbp), %rax
 652 03c3 488D1500 		leaq	.LC7(%rip), %rdx
 652      000000
 653 03ca 4889D6   		movq	%rdx, %rsi
 654 03cd 4889C7   		movq	%rax, %rdi
 655              	.LEHB19:
 656 03d0 E8000000 		call	_Z13testReadBytesP6BufferPKc
 656      00
  49:testSvf2Csvf.cpp **** 	testReadBytes(&lineBuf, "CAFE");
 657              		.loc 3 49 15
 658 03d5 488D45A0 		leaq	-96(%rbp), %rax
 659 03d9 488D1500 		leaq	.LC8(%rip), %rdx
 659      000000
 660 03e0 4889D6   		movq	%rdx, %rsi
 661 03e3 4889C7   		movq	%rax, %rdi
 662 03e6 E8000000 		call	_Z13testReadBytesP6BufferPKc
 662      00
  50:testSvf2Csvf.cpp **** 	testReadBytes(&lineBuf, "F00D1E");
 663              		.loc 3 50 15
 664 03eb 488D45A0 		leaq	-96(%rbp), %rax
 665 03ef 488D1500 		leaq	.LC9(%rip), %rdx
 665      000000
 666 03f6 4889D6   		movq	%rdx, %rsi
 667 03f9 4889C7   		movq	%rax, %rdi
 668 03fc E8000000 		call	_Z13testReadBytesP6BufferPKc
 668      00
  51:testSvf2Csvf.cpp **** 	testReadBytes(&lineBuf, "DEADF00D");
 669              		.loc 3 51 15
 670 0401 488D45A0 		leaq	-96(%rbp), %rax
 671 0405 488D1500 		leaq	.LC10(%rip), %rdx
 671      000000
 672 040c 4889D6   		movq	%rdx, %rsi
 673 040f 4889C7   		movq	%rax, %rdi
 674 0412 E8000000 		call	_Z13testReadBytesP6BufferPKc
 674      00
  52:testSvf2Csvf.cpp **** 	testReadBytes(&lineBuf, "CAFEF00D1E");
 675              		.loc 3 52 15
 676 0417 488D45A0 		leaq	-96(%rbp), %rax
 677 041b 488D1500 		leaq	.LC11(%rip), %rdx
 677      000000
 678 0422 4889D6   		movq	%rdx, %rsi
 679 0425 4889C7   		movq	%rax, %rdi
 680 0428 E8000000 		call	_Z13testReadBytesP6BufferPKc
 680      00
  53:testSvf2Csvf.cpp **** 	testReadBytes(&lineBuf, "DEADCAFEBABE");
 681              		.loc 3 53 15
 682 042d 488D45A0 		leaq	-96(%rbp), %rax
 683 0431 488D1500 		leaq	.LC12(%rip), %rdx
 683      000000
 684 0438 4889D6   		movq	%rdx, %rsi
 685 043b 4889C7   		movq	%rax, %rdi
 686 043e E8000000 		call	_Z13testReadBytesP6BufferPKc
 686      00
  54:testSvf2Csvf.cpp **** 
  55:testSvf2Csvf.cpp **** 	bufDestroy(&lineBuf);
 687              		.loc 3 55 12
 688 0443 488D45A0 		leaq	-96(%rbp), %rax
 689 0447 4889C7   		movq	%rax, %rdi
 690 044a E8000000 		call	bufDestroy@PLT
 690      00
 691              	.LEHE19:
  56:testSvf2Csvf.cpp **** }
 692              		.loc 3 56 1
 693 044f 90       		nop
 694 0450 488B45E8 		movq	-24(%rbp), %rax
 695 0454 64482B04 		subq	%fs:40, %rax
 695      25280000 
 695      00
 696 045d 746E     		je	.L33
 697 045f EB67     		jmp	.L36
 698              	.L34:
 699 0461 F30F1EFA 		endbr64
  46:testSvf2Csvf.cpp **** 
 700              		.loc 3 46 2
 701 0465 4889C7   		movq	%rax, %rdi
 702 0468 E8000000 		call	__cxa_begin_catch@PLT
 702      00
 703              	.LEHB20:
 704 046d E8000000 		call	_ZN8UnitTest11CurrentTest7ResultsEv@PLT
 704      00
  46:testSvf2Csvf.cpp **** 
 705              		.loc 3 46 2 is_stmt 0 discriminator 3
 706 0472 488B18   		movq	(%rax), %rbx
 707 0475 E8000000 		call	_ZN8UnitTest11CurrentTest7DetailsEv@PLT
 707      00
  46:testSvf2Csvf.cpp **** 
 708              		.loc 3 46 2 discriminator 11
 709 047a 488B08   		movq	(%rax), %rcx
 710 047d 488D45C0 		leaq	-64(%rbp), %rax
 711 0481 BA2E0000 		movl	$46, %edx
 711      00
 712 0486 4889CE   		movq	%rcx, %rsi
 713 0489 4889C7   		movq	%rax, %rdi
 714 048c E8000000 		call	_ZN8UnitTest11TestDetailsC1ERKS0_i@PLT
 714      00
  46:testSvf2Csvf.cpp **** 
 715              		.loc 3 46 2 discriminator 15
 716 0491 488D45C0 		leaq	-64(%rbp), %rax
 717 0495 488D1500 		leaq	.LC13(%rip), %rdx
 717      000000
 718 049c 4889C6   		movq	%rax, %rsi
 719 049f 4889DF   		movq	%rbx, %rdi
 720 04a2 E8000000 		call	_ZN8UnitTest11TestResults13OnTestFailureERKNS_11TestDetailsEPKc@PLT
 720      00
 721              	.LEHE20:
 722              	.LEHB21:
  46:testSvf2Csvf.cpp **** 
 723              		.loc 3 46 2 discriminator 17
 724 04a7 E8000000 		call	__cxa_end_catch@PLT
 724      00
 725              	.LEHE21:
 726 04ac E90EFFFF 		jmp	.L31
 726      FF
 727              	.L35:
 728 04b1 F30F1EFA 		endbr64
  46:testSvf2Csvf.cpp **** 
 729              		.loc 3 46 2
 730 04b5 4889C3   		movq	%rax, %rbx
 731 04b8 E8000000 		call	__cxa_end_catch@PLT
 731      00
 732 04bd 4889D8   		movq	%rbx, %rax
 733 04c0 4889C7   		movq	%rax, %rdi
 734              	.LEHB22:
 735 04c3 E8000000 		call	_Unwind_Resume@PLT
 735      00
 736              	.LEHE22:
 737              	.L36:
 738              		.loc 3 56 1 is_stmt 1
 739 04c8 E8000000 		call	__stack_chk_fail@PLT
 739      00
 740              	.L33:
 741 04cd 488B5DF8 		movq	-8(%rbp), %rbx
 742 04d1 C9       		leave
 743              		.cfi_def_cfa 7, 8
 744 04d2 C3       		ret
 745              		.cfi_endproc
 746              	.LFE1149:
 747              		.section	.gcc_except_table
 748              		.align 4
 749              	.LLSDA1149:
 750 0050 FF       		.byte	0xff
 751 0051 9B       		.byte	0x9b
 752 0052 29       		.uleb128 .LLSDATT1149-.LLSDATTD1149
 753              	.LLSDATTD1149:
 754 0053 01       		.byte	0x1
 755 0054 1E       		.uleb128 .LLSDACSE1149-.LLSDACSB1149
 756              	.LLSDACSB1149:
 757 0055 36       		.uleb128 .LEHB17-.LFB1149
 758 0056 05       		.uleb128 .LEHE17-.LEHB17
 759 0057 00       		.uleb128 0
 760 0058 00       		.uleb128 0
 761 0059 3E       		.uleb128 .LEHB18-.LFB1149
 762 005a 3F       		.uleb128 .LEHE18-.LEHB18
 763 005b 9F02     		.uleb128 .L34-.LFB1149
 764 005d 01       		.uleb128 0x1
 765 005e 8E01     		.uleb128 .LEHB19-.LFB1149
 766 0060 7F       		.uleb128 .LEHE19-.LEHB19
 767 0061 00       		.uleb128 0
 768 0062 00       		.uleb128 0
 769 0063 AB02     		.uleb128 .LEHB20-.LFB1149
 770 0065 3A       		.uleb128 .LEHE20-.LEHB20
 771 0066 EF02     		.uleb128 .L35-.LFB1149
 772 0068 00       		.uleb128 0
 773 0069 E502     		.uleb128 .LEHB21-.LFB1149
 774 006b 05       		.uleb128 .LEHE21-.LEHB21
 775 006c 00       		.uleb128 0
 776 006d 00       		.uleb128 0
 777 006e 8103     		.uleb128 .LEHB22-.LFB1149
 778 0070 05       		.uleb128 .LEHE22-.LEHB22
 779 0071 00       		.uleb128 0
 780 0072 00       		.uleb128 0
 781              	.LLSDACSE1149:
 782 0073 01       		.byte	0x1
 783 0074 00       		.byte	0
 784 0075 000000   		.align 4
 785 0078 00000000 		.long	0
 786              	
 787              	.LLSDATT1149:
 788              		.text
 790              		.section	.rodata
 791 0159 00000000 		.align 8
 791      000000
 792              	.LC14:
 793 0160 556E6861 		.string	"Unhandled exception in CHECK_EQUAL(strlen(expectedHex)/2, lineBuf.length)"
 793      6E646C65 
 793      64206578 
 793      63657074 
 793      696F6E20 
 794 01aa 00000000 		.align 8
 794      0000
 795              	.LC15:
 796 01b0 556E6861 		.string	"Unhandled exception in CHECK_EQUAL(expectedHex, resultHex)"
 796      6E646C65 
 796      64206578 
 796      63657074 
 796      696F6E20 
 797              		.text
 798              		.globl	_Z9testShiftPKcjS0_jS0_jS0_
 800              	_Z9testShiftPKcjS0_jS0_jS0_:
 801              	.LFB1150:
  57:testSvf2Csvf.cpp **** 
  58:testSvf2Csvf.cpp **** void testShift(const char *line, uint32 lineBits, const char *head, uint32 headBits, const char *ta
 802              		.loc 3 58 146
 803              		.cfi_startproc
 804              		.cfi_personality 0x9b,DW.ref.__gxx_personality_v0
 805              		.cfi_lsda 0x1b,.LLSDA1150
 806 04d3 F30F1EFA 		endbr64
 807 04d7 55       		pushq	%rbp
 808              		.cfi_def_cfa_offset 16
 809              		.cfi_offset 6, -16
 810 04d8 4889E5   		movq	%rsp, %rbp
 811              		.cfi_def_cfa_register 6
 812 04db 53       		pushq	%rbx
 813 04dc 4881ECE8 		subq	$1256, %rsp
 813      040000
 814              		.cfi_offset 3, -24
 815 04e3 4889BD38 		movq	%rdi, -1224(%rbp)
 815      FBFFFF
 816 04ea 89B534FB 		movl	%esi, -1228(%rbp)
 816      FFFF
 817 04f0 48899528 		movq	%rdx, -1240(%rbp)
 817      FBFFFF
 818 04f7 898D30FB 		movl	%ecx, -1232(%rbp)
 818      FFFF
 819 04fd 4C898520 		movq	%r8, -1248(%rbp)
 819      FBFFFF
 820 0504 44898D1C 		movl	%r9d, -1252(%rbp)
 820      FBFFFF
 821 050b 488B4510 		movq	16(%rbp), %rax
 822 050f 48898510 		movq	%rax, -1264(%rbp)
 822      FBFFFF
 823              		.loc 3 58 146
 824 0516 64488B04 		movq	%fs:40, %rax
 824      25280000 
 824      00
 825 051f 488945E8 		movq	%rax, -24(%rbp)
 826 0523 31C0     		xorl	%eax, %eax
  59:testSvf2Csvf.cpp **** 	struct Buffer lineBuf;
  60:testSvf2Csvf.cpp **** 	struct Buffer headBuf;
  61:testSvf2Csvf.cpp **** 	struct Buffer tailBuf;
  62:testSvf2Csvf.cpp **** 	BufferStatus bStatus;
  63:testSvf2Csvf.cpp **** 	FLStatus fStatus;
  64:testSvf2Csvf.cpp **** 	char resultHex[1024];
  65:testSvf2Csvf.cpp **** 	bStatus = bufInitialise(&lineBuf, 1024, 0x00, NULL);
 827              		.loc 3 65 25
 828 0525 488D8560 		leaq	-1184(%rbp), %rax
 828      FBFFFF
 829 052c B9000000 		movl	$0, %ecx
 829      00
 830 0531 BA000000 		movl	$0, %edx
 830      00
 831 0536 BE000400 		movl	$1024, %esi
 831      00
 832 053b 4889C7   		movq	%rax, %rdi
 833              	.LEHB23:
 834 053e E8000000 		call	bufInitialise@PLT
 834      00
 835              	.LEHE23:
 836              		.loc 3 65 10
 837 0543 89854CFB 		movl	%eax, -1204(%rbp)
 837      FFFF
 838              	.LEHB24:
  66:testSvf2Csvf.cpp **** 	CHECK_EQUAL(BUF_SUCCESS, bStatus);
 839              		.loc 3 66 2
 840 0549 E8000000 		call	_ZN8UnitTest11CurrentTest7DetailsEv@PLT
 840      00
 841 054e 488B08   		movq	(%rax), %rcx
 842 0551 488D85C0 		leaq	-1088(%rbp), %rax
 842      FBFFFF
 843 0558 BA420000 		movl	$66, %edx
 843      00
 844 055d 4889CE   		movq	%rcx, %rsi
 845 0560 4889C7   		movq	%rax, %rdi
 846 0563 E8000000 		call	_ZN8UnitTest11TestDetailsC1ERKS0_i@PLT
 846      00
 847              		.loc 3 66 2 is_stmt 0 discriminator 4
 848 0568 C785A0FB 		movl	$0, -1120(%rbp)
 848      FFFF0000 
 848      0000
 849 0572 E8000000 		call	_ZN8UnitTest11CurrentTest7ResultsEv@PLT
 849      00
 850 0577 488B00   		movq	(%rax), %rax
 851 057a 488D8DC0 		leaq	-1088(%rbp), %rcx
 851      FBFFFF
 852 0581 488D954C 		leaq	-1204(%rbp), %rdx
 852      FBFFFF
 853 0588 488DB5A0 		leaq	-1120(%rbp), %rsi
 853      FBFFFF
 854 058f 4889C7   		movq	%rax, %rdi
 855 0592 E8000000 		call	_ZN8UnitTest10CheckEqualI12BufferStatusS1_EEvRNS_11TestResultsERKT_RKT0_RKNS_11TestDetailsE
 855      00
 856              	.LEHE24:
 857              	.L41:
  67:testSvf2Csvf.cpp **** 	bStatus = bufInitialise(&headBuf, 1024, 0x00, NULL);
 858              		.loc 3 67 25 is_stmt 1
 859 0597 488D8580 		leaq	-1152(%rbp), %rax
 859      FBFFFF
 860 059e B9000000 		movl	$0, %ecx
 860      00
 861 05a3 BA000000 		movl	$0, %edx
 861      00
 862 05a8 BE000400 		movl	$1024, %esi
 862      00
 863 05ad 4889C7   		movq	%rax, %rdi
 864              	.LEHB25:
 865 05b0 E8000000 		call	bufInitialise@PLT
 865      00
 866              	.LEHE25:
 867              		.loc 3 67 10
 868 05b5 89854CFB 		movl	%eax, -1204(%rbp)
 868      FFFF
 869              	.LEHB26:
  68:testSvf2Csvf.cpp **** 	CHECK_EQUAL(BUF_SUCCESS, bStatus);
 870              		.loc 3 68 2
 871 05bb E8000000 		call	_ZN8UnitTest11CurrentTest7DetailsEv@PLT
 871      00
 872 05c0 488B08   		movq	(%rax), %rcx
 873 05c3 488D85C0 		leaq	-1088(%rbp), %rax
 873      FBFFFF
 874 05ca BA440000 		movl	$68, %edx
 874      00
 875 05cf 4889CE   		movq	%rcx, %rsi
 876 05d2 4889C7   		movq	%rax, %rdi
 877 05d5 E8000000 		call	_ZN8UnitTest11TestDetailsC1ERKS0_i@PLT
 877      00
 878              		.loc 3 68 2 is_stmt 0 discriminator 4
 879 05da C785A0FB 		movl	$0, -1120(%rbp)
 879      FFFF0000 
 879      0000
 880 05e4 E8000000 		call	_ZN8UnitTest11CurrentTest7ResultsEv@PLT
 880      00
 881 05e9 488B00   		movq	(%rax), %rax
 882 05ec 488D8DC0 		leaq	-1088(%rbp), %rcx
 882      FBFFFF
 883 05f3 488D954C 		leaq	-1204(%rbp), %rdx
 883      FBFFFF
 884 05fa 488DB5A0 		leaq	-1120(%rbp), %rsi
 884      FBFFFF
 885 0601 4889C7   		movq	%rax, %rdi
 886 0604 E8000000 		call	_ZN8UnitTest10CheckEqualI12BufferStatusS1_EEvRNS_11TestResultsERKT_RKT0_RKNS_11TestDetailsE
 886      00
 887              	.LEHE26:
 888              	.L44:
  69:testSvf2Csvf.cpp **** 	bStatus = bufInitialise(&tailBuf, 1024, 0x00, NULL);
 889              		.loc 3 69 25 is_stmt 1
 890 0609 488D85A0 		leaq	-1120(%rbp), %rax
 890      FBFFFF
 891 0610 B9000000 		movl	$0, %ecx
 891      00
 892 0615 BA000000 		movl	$0, %edx
 892      00
 893 061a BE000400 		movl	$1024, %esi
 893      00
 894 061f 4889C7   		movq	%rax, %rdi
 895              	.LEHB27:
 896 0622 E8000000 		call	bufInitialise@PLT
 896      00
 897              	.LEHE27:
 898              		.loc 3 69 10
 899 0627 89854CFB 		movl	%eax, -1204(%rbp)
 899      FFFF
 900              	.LEHB28:
  70:testSvf2Csvf.cpp **** 	CHECK_EQUAL(BUF_SUCCESS, bStatus);
 901              		.loc 3 70 2
 902 062d E8000000 		call	_ZN8UnitTest11CurrentTest7DetailsEv@PLT
 902      00
 903 0632 488B08   		movq	(%rax), %rcx
 904 0635 488D85C0 		leaq	-1088(%rbp), %rax
 904      FBFFFF
 905 063c BA460000 		movl	$70, %edx
 905      00
 906 0641 4889CE   		movq	%rcx, %rsi
 907 0644 4889C7   		movq	%rax, %rdi
 908 0647 E8000000 		call	_ZN8UnitTest11TestDetailsC1ERKS0_i@PLT
 908      00
 909              		.loc 3 70 2 is_stmt 0 discriminator 4
 910 064c C78558FB 		movl	$0, -1192(%rbp)
 910      FFFF0000 
 910      0000
 911 0656 E8000000 		call	_ZN8UnitTest11CurrentTest7ResultsEv@PLT
 911      00
 912 065b 488B00   		movq	(%rax), %rax
 913 065e 488D8DC0 		leaq	-1088(%rbp), %rcx
 913      FBFFFF
 914 0665 488D954C 		leaq	-1204(%rbp), %rdx
 914      FBFFFF
 915 066c 488DB558 		leaq	-1192(%rbp), %rsi
 915      FBFFFF
 916 0673 4889C7   		movq	%rax, %rdi
 917 0676 E8000000 		call	_ZN8UnitTest10CheckEqualI12BufferStatusS1_EEvRNS_11TestResultsERKT_RKT0_RKNS_11TestDetailsE
 917      00
 918              	.LEHE28:
 919              	.L47:
  71:testSvf2Csvf.cpp **** 	fStatus = readBytes(&lineBuf, line, NULL);
 920              		.loc 3 71 21 is_stmt 1
 921 067b 488B8D38 		movq	-1224(%rbp), %rcx
 921      FBFFFF
 922 0682 488D8560 		leaq	-1184(%rbp), %rax
 922      FBFFFF
 923 0689 BA000000 		movl	$0, %edx
 923      00
 924 068e 4889CE   		movq	%rcx, %rsi
 925 0691 4889C7   		movq	%rax, %rdi
 926              	.LEHB29:
 927 0694 E8000000 		call	readBytes@PLT
 927      00
 928              	.LEHE29:
 929              		.loc 3 71 10
 930 0699 898550FB 		movl	%eax, -1200(%rbp)
 930      FFFF
 931              	.LEHB30:
  72:testSvf2Csvf.cpp **** 	CHECK_EQUAL(FL_SUCCESS, fStatus);
 932              		.loc 3 72 2
 933 069f E8000000 		call	_ZN8UnitTest11CurrentTest7DetailsEv@PLT
 933      00
 934 06a4 488B08   		movq	(%rax), %rcx
 935 06a7 488D85C0 		leaq	-1088(%rbp), %rax
 935      FBFFFF
 936 06ae BA480000 		movl	$72, %edx
 936      00
 937 06b3 4889CE   		movq	%rcx, %rsi
 938 06b6 4889C7   		movq	%rax, %rdi
 939 06b9 E8000000 		call	_ZN8UnitTest11TestDetailsC1ERKS0_i@PLT
 939      00
 940              		.loc 3 72 2 is_stmt 0 discriminator 4
 941 06be C78558FB 		movl	$0, -1192(%rbp)
 941      FFFF0000 
 941      0000
 942 06c8 E8000000 		call	_ZN8UnitTest11CurrentTest7ResultsEv@PLT
 942      00
 943 06cd 488B00   		movq	(%rax), %rax
 944 06d0 488D8DC0 		leaq	-1088(%rbp), %rcx
 944      FBFFFF
 945 06d7 488D9550 		leaq	-1200(%rbp), %rdx
 945      FBFFFF
 946 06de 488DB558 		leaq	-1192(%rbp), %rsi
 946      FBFFFF
 947 06e5 4889C7   		movq	%rax, %rdi
 948 06e8 E8000000 		call	_ZN8UnitTest10CheckEqualI8FLStatusS1_EEvRNS_11TestResultsERKT_RKT0_RKNS_11TestDetailsE
 948      00
 949              	.LEHE30:
 950              	.L50:
  73:testSvf2Csvf.cpp **** 	fStatus = readBytes(&headBuf, head, NULL);
 951              		.loc 3 73 21 is_stmt 1
 952 06ed 488B8D28 		movq	-1240(%rbp), %rcx
 952      FBFFFF
 953 06f4 488D8580 		leaq	-1152(%rbp), %rax
 953      FBFFFF
 954 06fb BA000000 		movl	$0, %edx
 954      00
 955 0700 4889CE   		movq	%rcx, %rsi
 956 0703 4889C7   		movq	%rax, %rdi
 957              	.LEHB31:
 958 0706 E8000000 		call	readBytes@PLT
 958      00
 959              	.LEHE31:
 960              		.loc 3 73 10
 961 070b 898550FB 		movl	%eax, -1200(%rbp)
 961      FFFF
 962              	.LEHB32:
  74:testSvf2Csvf.cpp **** 	CHECK_EQUAL(FL_SUCCESS, fStatus);
 963              		.loc 3 74 2
 964 0711 E8000000 		call	_ZN8UnitTest11CurrentTest7DetailsEv@PLT
 964      00
 965 0716 488B08   		movq	(%rax), %rcx
 966 0719 488D85C0 		leaq	-1088(%rbp), %rax
 966      FBFFFF
 967 0720 BA4A0000 		movl	$74, %edx
 967      00
 968 0725 4889CE   		movq	%rcx, %rsi
 969 0728 4889C7   		movq	%rax, %rdi
 970 072b E8000000 		call	_ZN8UnitTest11TestDetailsC1ERKS0_i@PLT
 970      00
 971              		.loc 3 74 2 is_stmt 0 discriminator 4
 972 0730 C78558FB 		movl	$0, -1192(%rbp)
 972      FFFF0000 
 972      0000
 973 073a E8000000 		call	_ZN8UnitTest11CurrentTest7ResultsEv@PLT
 973      00
 974 073f 488B00   		movq	(%rax), %rax
 975 0742 488D8DC0 		leaq	-1088(%rbp), %rcx
 975      FBFFFF
 976 0749 488D9550 		leaq	-1200(%rbp), %rdx
 976      FBFFFF
 977 0750 488DB558 		leaq	-1192(%rbp), %rsi
 977      FBFFFF
 978 0757 4889C7   		movq	%rax, %rdi
 979 075a E8000000 		call	_ZN8UnitTest10CheckEqualI8FLStatusS1_EEvRNS_11TestResultsERKT_RKT0_RKNS_11TestDetailsE
 979      00
 980              	.LEHE32:
 981              	.L53:
  75:testSvf2Csvf.cpp **** 	fStatus = readBytes(&tailBuf, tail, NULL);
 982              		.loc 3 75 21 is_stmt 1
 983 075f 488B8D20 		movq	-1248(%rbp), %rcx
 983      FBFFFF
 984 0766 488D85A0 		leaq	-1120(%rbp), %rax
 984      FBFFFF
 985 076d BA000000 		movl	$0, %edx
 985      00
 986 0772 4889CE   		movq	%rcx, %rsi
 987 0775 4889C7   		movq	%rax, %rdi
 988              	.LEHB33:
 989 0778 E8000000 		call	readBytes@PLT
 989      00
 990              	.LEHE33:
 991              		.loc 3 75 10
 992 077d 898550FB 		movl	%eax, -1200(%rbp)
 992      FFFF
 993              	.LEHB34:
  76:testSvf2Csvf.cpp **** 	CHECK_EQUAL(FL_SUCCESS, fStatus);
 994              		.loc 3 76 2
 995 0783 E8000000 		call	_ZN8UnitTest11CurrentTest7DetailsEv@PLT
 995      00
 996 0788 488B08   		movq	(%rax), %rcx
 997 078b 488D85C0 		leaq	-1088(%rbp), %rax
 997      FBFFFF
 998 0792 BA4C0000 		movl	$76, %edx
 998      00
 999 0797 4889CE   		movq	%rcx, %rsi
 1000 079a 4889C7   		movq	%rax, %rdi
 1001 079d E8000000 		call	_ZN8UnitTest11TestDetailsC1ERKS0_i@PLT
 1001      00
 1002              		.loc 3 76 2 is_stmt 0 discriminator 4
 1003 07a2 C78558FB 		movl	$0, -1192(%rbp)
 1003      FFFF0000 
 1003      0000
 1004 07ac E8000000 		call	_ZN8UnitTest11CurrentTest7ResultsEv@PLT
 1004      00
 1005 07b1 488B00   		movq	(%rax), %rax
 1006 07b4 488D8DC0 		leaq	-1088(%rbp), %rcx
 1006      FBFFFF
 1007 07bb 488D9550 		leaq	-1200(%rbp), %rdx
 1007      FBFFFF
 1008 07c2 488DB558 		leaq	-1192(%rbp), %rsi
 1008      FBFFFF
 1009 07c9 4889C7   		movq	%rax, %rdi
 1010 07cc E8000000 		call	_ZN8UnitTest10CheckEqualI8FLStatusS1_EEvRNS_11TestResultsERKT_RKT0_RKNS_11TestDetailsE
 1010      00
 1011              	.LEHE34:
 1012              	.L56:
  77:testSvf2Csvf.cpp **** 	fStatus = headTail(&lineBuf, &headBuf, &tailBuf, lineBits, headBits, tailBits, NULL);
 1013              		.loc 3 77 20 is_stmt 1
 1014 07d1 448B851C 		movl	-1252(%rbp), %r8d
 1014      FBFFFF
 1015 07d8 8BBD30FB 		movl	-1232(%rbp), %edi
 1015      FFFF
 1016 07de 8B8D34FB 		movl	-1228(%rbp), %ecx
 1016      FFFF
 1017 07e4 488D95A0 		leaq	-1120(%rbp), %rdx
 1017      FBFFFF
 1018 07eb 488DB580 		leaq	-1152(%rbp), %rsi
 1018      FBFFFF
 1019 07f2 488D8560 		leaq	-1184(%rbp), %rax
 1019      FBFFFF
 1020 07f9 4883EC08 		subq	$8, %rsp
 1021 07fd 6A00     		pushq	$0
 1022 07ff 4589C1   		movl	%r8d, %r9d
 1023 0802 4189F8   		movl	%edi, %r8d
 1024 0805 4889C7   		movq	%rax, %rdi
 1025              	.LEHB35:
 1026 0808 E8000000 		call	headTail@PLT
 1026      00
 1027              	.LEHE35:
 1028 080d 4883C410 		addq	$16, %rsp
 1029              		.loc 3 77 10
 1030 0811 898550FB 		movl	%eax, -1200(%rbp)
 1030      FFFF
 1031              	.LEHB36:
  78:testSvf2Csvf.cpp **** 	CHECK_EQUAL(FL_SUCCESS, fStatus);
 1032              		.loc 3 78 2
 1033 0817 E8000000 		call	_ZN8UnitTest11CurrentTest7DetailsEv@PLT
 1033      00
 1034 081c 488B08   		movq	(%rax), %rcx
 1035 081f 488D85C0 		leaq	-1088(%rbp), %rax
 1035      FBFFFF
 1036 0826 BA4E0000 		movl	$78, %edx
 1036      00
 1037 082b 4889CE   		movq	%rcx, %rsi
 1038 082e 4889C7   		movq	%rax, %rdi
 1039 0831 E8000000 		call	_ZN8UnitTest11TestDetailsC1ERKS0_i@PLT
 1039      00
 1040              		.loc 3 78 2 is_stmt 0 discriminator 4
 1041 0836 C78558FB 		movl	$0, -1192(%rbp)
 1041      FFFF0000 
 1041      0000
 1042 0840 E8000000 		call	_ZN8UnitTest11CurrentTest7ResultsEv@PLT
 1042      00
 1043 0845 488B00   		movq	(%rax), %rax
 1044 0848 488D8DC0 		leaq	-1088(%rbp), %rcx
 1044      FBFFFF
 1045 084f 488D9550 		leaq	-1200(%rbp), %rdx
 1045      FBFFFF
 1046 0856 488DB558 		leaq	-1192(%rbp), %rsi
 1046      FBFFFF
 1047 085d 4889C7   		movq	%rax, %rdi
 1048 0860 E8000000 		call	_ZN8UnitTest10CheckEqualI8FLStatusS1_EEvRNS_11TestResultsERKT_RKT0_RKNS_11TestDetailsE
 1048      00
 1049              	.LEHE36:
 1050              	.L59:
 1051              	.LEHB37:
  79:testSvf2Csvf.cpp **** 	CHECK_EQUAL(strlen(expectedHex)/2, lineBuf.length);
 1052              		.loc 3 79 2 is_stmt 1
 1053 0865 E8000000 		call	_ZN8UnitTest11CurrentTest7DetailsEv@PLT
 1053      00
 1054 086a 488B08   		movq	(%rax), %rcx
 1055 086d 488D85C0 		leaq	-1088(%rbp), %rax
 1055      FBFFFF
 1056 0874 BA4F0000 		movl	$79, %edx
 1056      00
 1057 0879 4889CE   		movq	%rcx, %rsi
 1058 087c 4889C7   		movq	%rax, %rdi
 1059 087f E8000000 		call	_ZN8UnitTest11TestDetailsC1ERKS0_i@PLT
 1059      00
 1060              		.loc 3 79 2 is_stmt 0 discriminator 4
 1061 0884 488B8510 		movq	-1264(%rbp), %rax
 1061      FBFFFF
 1062 088b 4889C7   		movq	%rax, %rdi
 1063 088e E8000000 		call	strlen@PLT
 1063      00
 1064 0893 48D1E8   		shrq	%rax
 1065 0896 48898558 		movq	%rax, -1192(%rbp)
 1065      FBFFFF
 1066 089d E8000000 		call	_ZN8UnitTest11CurrentTest7ResultsEv@PLT
 1066      00
 1067 08a2 488B00   		movq	(%rax), %rax
 1068 08a5 488D95C0 		leaq	-1088(%rbp), %rdx
 1068      FBFFFF
 1069 08ac 488D8D60 		leaq	-1184(%rbp), %rcx
 1069      FBFFFF
 1070 08b3 488D7908 		leaq	8(%rcx), %rdi
 1071 08b7 488DB558 		leaq	-1192(%rbp), %rsi
 1071      FBFFFF
 1072 08be 4889D1   		movq	%rdx, %rcx
 1073 08c1 4889FA   		movq	%rdi, %rdx
 1074 08c4 4889C7   		movq	%rax, %rdi
 1075 08c7 E8000000 		call	_ZN8UnitTest10CheckEqualImmEEvRNS_11TestResultsERKT_RKT0_RKNS_11TestDetailsE
 1075      00
 1076              	.LEHE37:
 1077              	.L62:
 1078              	.LBB6:
  80:testSvf2Csvf.cpp **** 	for ( uint32 i = 0; i < 2*lineBuf.length; i++ ) {
 1079              		.loc 3 80 15 is_stmt 1
 1080 08cc C78554FB 		movl	$0, -1196(%rbp)
 1080      FFFF0000 
 1080      0000
 1081              		.loc 3 80 2
 1082 08d6 EB4A     		jmp	.L38
 1083              	.L39:
  81:testSvf2Csvf.cpp ****         sprintf(resultHex + 2*i, "%02X", lineBuf.data[i]);
 1084              		.loc 3 81 50 discriminator 3
 1085 08d8 488B9560 		movq	-1184(%rbp), %rdx
 1085      FBFFFF
 1086              		.loc 3 81 55 discriminator 3
 1087 08df 8B8554FB 		movl	-1196(%rbp), %eax
 1087      FFFF
 1088              		.loc 3 81 56 discriminator 3
 1089 08e5 4801D0   		addq	%rdx, %rax
 1090 08e8 0FB600   		movzbl	(%rax), %eax
 1091              		.loc 3 81 16 discriminator 3
 1092 08eb 0FB6C0   		movzbl	%al, %eax
 1093              		.loc 3 81 30 discriminator 3
 1094 08ee 8B9554FB 		movl	-1196(%rbp), %edx
 1094      FFFF
 1095 08f4 01D2     		addl	%edx, %edx
 1096 08f6 89D1     		movl	%edx, %ecx
 1097              		.loc 3 81 16 discriminator 3
 1098 08f8 488D95E0 		leaq	-1056(%rbp), %rdx
 1098      FBFFFF
 1099 08ff 4801D1   		addq	%rdx, %rcx
 1100 0902 89C2     		movl	%eax, %edx
 1101 0904 488D0500 		leaq	.LC1(%rip), %rax
 1101      000000
 1102 090b 4889C6   		movq	%rax, %rsi
 1103 090e 4889CF   		movq	%rcx, %rdi
 1104 0911 B8000000 		movl	$0, %eax
 1104      00
 1105 0916 E8000000 		call	sprintf@PLT
 1105      00
  80:testSvf2Csvf.cpp **** 	for ( uint32 i = 0; i < 2*lineBuf.length; i++ ) {
 1106              		.loc 3 80 2 discriminator 3
 1107 091b 838554FB 		addl	$1, -1196(%rbp)
 1107      FFFF01
 1108              	.L38:
  80:testSvf2Csvf.cpp **** 	for ( uint32 i = 0; i < 2*lineBuf.length; i++ ) {
 1109              		.loc 3 80 22 discriminator 1
 1110 0922 8B8554FB 		movl	-1196(%rbp), %eax
 1110      FFFF
  80:testSvf2Csvf.cpp **** 	for ( uint32 i = 0; i < 2*lineBuf.length; i++ ) {
 1111              		.loc 3 80 36 discriminator 1
 1112 0928 488B9568 		movq	-1176(%rbp), %rdx
 1112      FBFFFF
  80:testSvf2Csvf.cpp **** 	for ( uint32 i = 0; i < 2*lineBuf.length; i++ ) {
 1113              		.loc 3 80 27 discriminator 1
 1114 092f 4801D2   		addq	%rdx, %rdx
  80:testSvf2Csvf.cpp **** 	for ( uint32 i = 0; i < 2*lineBuf.length; i++ ) {
 1115              		.loc 3 80 24 discriminator 1
 1116 0932 4839D0   		cmpq	%rdx, %rax
 1117 0935 72A1     		jb	.L39
 1118              	.LBE6:
  82:testSvf2Csvf.cpp ****     }
  83:testSvf2Csvf.cpp ****     resultHex[2*lineBuf.length] = '\0';
 1119              		.loc 3 83 25
 1120 0937 488B8568 		movq	-1176(%rbp), %rax
 1120      FBFFFF
 1121              		.loc 3 83 16
 1122 093e 4801C0   		addq	%rax, %rax
 1123              		.loc 3 83 33
 1124 0941 C68405E0 		movb	$0, -1056(%rbp,%rax)
 1124      FBFFFF00 
 1125              	.LEHB38:
  84:testSvf2Csvf.cpp ****     CHECK_EQUAL(expectedHex, resultHex);
 1126              		.loc 3 84 5
 1127 0949 E8000000 		call	_ZN8UnitTest11CurrentTest7DetailsEv@PLT
 1127      00
 1128 094e 488B08   		movq	(%rax), %rcx
 1129 0951 488D85C0 		leaq	-1088(%rbp), %rax
 1129      FBFFFF
 1130 0958 BA540000 		movl	$84, %edx
 1130      00
 1131 095d 4889CE   		movq	%rcx, %rsi
 1132 0960 4889C7   		movq	%rax, %rdi
 1133 0963 E8000000 		call	_ZN8UnitTest11TestDetailsC1ERKS0_i@PLT
 1133      00
 1134              		.loc 3 84 5 is_stmt 0 discriminator 4
 1135 0968 E8000000 		call	_ZN8UnitTest11CurrentTest7ResultsEv@PLT
 1135      00
 1136 096d 488B00   		movq	(%rax), %rax
 1137 0970 488D8DC0 		leaq	-1088(%rbp), %rcx
 1137      FBFFFF
 1138 0977 488D95E0 		leaq	-1056(%rbp), %rdx
 1138      FBFFFF
 1139 097e 488BB510 		movq	-1264(%rbp), %rsi
 1139      FBFFFF
 1140 0985 4889C7   		movq	%rax, %rdi
 1141 0988 E8000000 		call	_ZN8UnitTest10CheckEqualERNS_11TestResultsEPKcPcRKNS_11TestDetailsE@PLT
 1141      00
 1142              	.LEHE38:
 1143              	.L65:
  85:testSvf2Csvf.cpp **** 	bufDestroy(&tailBuf);
 1144              		.loc 3 85 12 is_stmt 1
 1145 098d 488D85A0 		leaq	-1120(%rbp), %rax
 1145      FBFFFF
 1146 0994 4889C7   		movq	%rax, %rdi
 1147              	.LEHB39:
 1148 0997 E8000000 		call	bufDestroy@PLT
 1148      00
  86:testSvf2Csvf.cpp **** 	bufDestroy(&headBuf);
 1149              		.loc 3 86 12
 1150 099c 488D8580 		leaq	-1152(%rbp), %rax
 1150      FBFFFF
 1151 09a3 4889C7   		movq	%rax, %rdi
 1152 09a6 E8000000 		call	bufDestroy@PLT
 1152      00
  87:testSvf2Csvf.cpp **** 	bufDestroy(&lineBuf);
 1153              		.loc 3 87 12
 1154 09ab 488D8560 		leaq	-1184(%rbp), %rax
 1154      FBFFFF
 1155 09b2 4889C7   		movq	%rax, %rdi
 1156 09b5 E8000000 		call	bufDestroy@PLT
 1156      00
 1157              	.LEHE39:
  88:testSvf2Csvf.cpp **** }	
 1158              		.loc 3 88 1
 1159 09ba 90       		nop
 1160 09bb 488B45E8 		movq	-24(%rbp), %rax
 1161 09bf 64482B04 		subq	%fs:40, %rax
 1161      25280000 
 1161      00
 1162 09c8 0F84DF03 		je	.L67
 1162      0000
 1163 09ce E9D50300 		jmp	.L86
 1163      00
 1164              	.L68:
 1165 09d3 F30F1EFA 		endbr64
  66:testSvf2Csvf.cpp **** 	bStatus = bufInitialise(&headBuf, 1024, 0x00, NULL);
 1166              		.loc 3 66 2
 1167 09d7 4889C7   		movq	%rax, %rdi
 1168 09da E8000000 		call	__cxa_begin_catch@PLT
 1168      00
 1169              	.LEHB40:
 1170 09df E8000000 		call	_ZN8UnitTest11CurrentTest7ResultsEv@PLT
 1170      00
  66:testSvf2Csvf.cpp **** 	bStatus = bufInitialise(&headBuf, 1024, 0x00, NULL);
 1171              		.loc 3 66 2 is_stmt 0 discriminator 3
 1172 09e4 488B18   		movq	(%rax), %rbx
 1173 09e7 E8000000 		call	_ZN8UnitTest11CurrentTest7DetailsEv@PLT
 1173      00
  66:testSvf2Csvf.cpp **** 	bStatus = bufInitialise(&headBuf, 1024, 0x00, NULL);
 1174              		.loc 3 66 2 discriminator 11
 1175 09ec 488B08   		movq	(%rax), %rcx
 1176 09ef 488D85C0 		leaq	-1088(%rbp), %rax
 1176      FBFFFF
 1177 09f6 BA420000 		movl	$66, %edx
 1177      00
 1178 09fb 4889CE   		movq	%rcx, %rsi
 1179 09fe 4889C7   		movq	%rax, %rdi
 1180 0a01 E8000000 		call	_ZN8UnitTest11TestDetailsC1ERKS0_i@PLT
 1180      00
  66:testSvf2Csvf.cpp **** 	bStatus = bufInitialise(&headBuf, 1024, 0x00, NULL);
 1181              		.loc 3 66 2 discriminator 15
 1182 0a06 488D85C0 		leaq	-1088(%rbp), %rax
 1182      FBFFFF
 1183 0a0d 488D1500 		leaq	.LC13(%rip), %rdx
 1183      000000
 1184 0a14 4889C6   		movq	%rax, %rsi
 1185 0a17 4889DF   		movq	%rbx, %rdi
 1186 0a1a E8000000 		call	_ZN8UnitTest11TestResults13OnTestFailureERKNS_11TestDetailsEPKc@PLT
 1186      00
 1187              	.LEHE40:
 1188              	.LEHB41:
  66:testSvf2Csvf.cpp **** 	bStatus = bufInitialise(&headBuf, 1024, 0x00, NULL);
 1189              		.loc 3 66 2 discriminator 17
 1190 0a1f E8000000 		call	__cxa_end_catch@PLT
 1190      00
 1191              	.LEHE41:
 1192 0a24 E96EFBFF 		jmp	.L41
 1192      FF
 1193              	.L69:
 1194 0a29 F30F1EFA 		endbr64
  66:testSvf2Csvf.cpp **** 	bStatus = bufInitialise(&headBuf, 1024, 0x00, NULL);
 1195              		.loc 3 66 2
 1196 0a2d 4889C3   		movq	%rax, %rbx
 1197 0a30 E8000000 		call	__cxa_end_catch@PLT
 1197      00
 1198 0a35 4889D8   		movq	%rbx, %rax
 1199 0a38 4889C7   		movq	%rax, %rdi
 1200              	.LEHB42:
 1201 0a3b E8000000 		call	_Unwind_Resume@PLT
 1201      00
 1202              	.LEHE42:
 1203              	.L70:
 1204 0a40 F30F1EFA 		endbr64
  68:testSvf2Csvf.cpp **** 	bStatus = bufInitialise(&tailBuf, 1024, 0x00, NULL);
 1205              		.loc 3 68 2 is_stmt 1
 1206 0a44 4889C7   		movq	%rax, %rdi
 1207 0a47 E8000000 		call	__cxa_begin_catch@PLT
 1207      00
 1208              	.LEHB43:
 1209 0a4c E8000000 		call	_ZN8UnitTest11CurrentTest7ResultsEv@PLT
 1209      00
  68:testSvf2Csvf.cpp **** 	bStatus = bufInitialise(&tailBuf, 1024, 0x00, NULL);
 1210              		.loc 3 68 2 is_stmt 0 discriminator 3
 1211 0a51 488B18   		movq	(%rax), %rbx
 1212 0a54 E8000000 		call	_ZN8UnitTest11CurrentTest7DetailsEv@PLT
 1212      00
  68:testSvf2Csvf.cpp **** 	bStatus = bufInitialise(&tailBuf, 1024, 0x00, NULL);
 1213              		.loc 3 68 2 discriminator 11
 1214 0a59 488B08   		movq	(%rax), %rcx
 1215 0a5c 488D85C0 		leaq	-1088(%rbp), %rax
 1215      FBFFFF
 1216 0a63 BA440000 		movl	$68, %edx
 1216      00
 1217 0a68 4889CE   		movq	%rcx, %rsi
 1218 0a6b 4889C7   		movq	%rax, %rdi
 1219 0a6e E8000000 		call	_ZN8UnitTest11TestDetailsC1ERKS0_i@PLT
 1219      00
  68:testSvf2Csvf.cpp **** 	bStatus = bufInitialise(&tailBuf, 1024, 0x00, NULL);
 1220              		.loc 3 68 2 discriminator 15
 1221 0a73 488D85C0 		leaq	-1088(%rbp), %rax
 1221      FBFFFF
 1222 0a7a 488D1500 		leaq	.LC13(%rip), %rdx
 1222      000000
 1223 0a81 4889C6   		movq	%rax, %rsi
 1224 0a84 4889DF   		movq	%rbx, %rdi
 1225 0a87 E8000000 		call	_ZN8UnitTest11TestResults13OnTestFailureERKNS_11TestDetailsEPKc@PLT
 1225      00
 1226              	.LEHE43:
 1227              	.LEHB44:
  68:testSvf2Csvf.cpp **** 	bStatus = bufInitialise(&tailBuf, 1024, 0x00, NULL);
 1228              		.loc 3 68 2 discriminator 17
 1229 0a8c E8000000 		call	__cxa_end_catch@PLT
 1229      00
 1230              	.LEHE44:
 1231 0a91 E973FBFF 		jmp	.L44
 1231      FF
 1232              	.L71:
 1233 0a96 F30F1EFA 		endbr64
  68:testSvf2Csvf.cpp **** 	bStatus = bufInitialise(&tailBuf, 1024, 0x00, NULL);
 1234              		.loc 3 68 2
 1235 0a9a 4889C3   		movq	%rax, %rbx
 1236 0a9d E8000000 		call	__cxa_end_catch@PLT
 1236      00
 1237 0aa2 4889D8   		movq	%rbx, %rax
 1238 0aa5 4889C7   		movq	%rax, %rdi
 1239              	.LEHB45:
 1240 0aa8 E8000000 		call	_Unwind_Resume@PLT
 1240      00
 1241              	.LEHE45:
 1242              	.L72:
 1243 0aad F30F1EFA 		endbr64
  70:testSvf2Csvf.cpp **** 	fStatus = readBytes(&lineBuf, line, NULL);
 1244              		.loc 3 70 2 is_stmt 1
 1245 0ab1 4889C7   		movq	%rax, %rdi
 1246 0ab4 E8000000 		call	__cxa_begin_catch@PLT
 1246      00
 1247              	.LEHB46:
 1248 0ab9 E8000000 		call	_ZN8UnitTest11CurrentTest7ResultsEv@PLT
 1248      00
  70:testSvf2Csvf.cpp **** 	fStatus = readBytes(&lineBuf, line, NULL);
 1249              		.loc 3 70 2 is_stmt 0 discriminator 3
 1250 0abe 488B18   		movq	(%rax), %rbx
 1251 0ac1 E8000000 		call	_ZN8UnitTest11CurrentTest7DetailsEv@PLT
 1251      00
  70:testSvf2Csvf.cpp **** 	fStatus = readBytes(&lineBuf, line, NULL);
 1252              		.loc 3 70 2 discriminator 11
 1253 0ac6 488B08   		movq	(%rax), %rcx
 1254 0ac9 488D85C0 		leaq	-1088(%rbp), %rax
 1254      FBFFFF
 1255 0ad0 BA460000 		movl	$70, %edx
 1255      00
 1256 0ad5 4889CE   		movq	%rcx, %rsi
 1257 0ad8 4889C7   		movq	%rax, %rdi
 1258 0adb E8000000 		call	_ZN8UnitTest11TestDetailsC1ERKS0_i@PLT
 1258      00
  70:testSvf2Csvf.cpp **** 	fStatus = readBytes(&lineBuf, line, NULL);
 1259              		.loc 3 70 2 discriminator 15
 1260 0ae0 488D85C0 		leaq	-1088(%rbp), %rax
 1260      FBFFFF
 1261 0ae7 488D1500 		leaq	.LC13(%rip), %rdx
 1261      000000
 1262 0aee 4889C6   		movq	%rax, %rsi
 1263 0af1 4889DF   		movq	%rbx, %rdi
 1264 0af4 E8000000 		call	_ZN8UnitTest11TestResults13OnTestFailureERKNS_11TestDetailsEPKc@PLT
 1264      00
 1265              	.LEHE46:
 1266              	.LEHB47:
  70:testSvf2Csvf.cpp **** 	fStatus = readBytes(&lineBuf, line, NULL);
 1267              		.loc 3 70 2 discriminator 17
 1268 0af9 E8000000 		call	__cxa_end_catch@PLT
 1268      00
 1269              	.LEHE47:
 1270 0afe E978FBFF 		jmp	.L47
 1270      FF
 1271              	.L73:
 1272 0b03 F30F1EFA 		endbr64
  70:testSvf2Csvf.cpp **** 	fStatus = readBytes(&lineBuf, line, NULL);
 1273              		.loc 3 70 2
 1274 0b07 4889C3   		movq	%rax, %rbx
 1275 0b0a E8000000 		call	__cxa_end_catch@PLT
 1275      00
 1276 0b0f 4889D8   		movq	%rbx, %rax
 1277 0b12 4889C7   		movq	%rax, %rdi
 1278              	.LEHB48:
 1279 0b15 E8000000 		call	_Unwind_Resume@PLT
 1279      00
 1280              	.LEHE48:
 1281              	.L74:
 1282 0b1a F30F1EFA 		endbr64
  72:testSvf2Csvf.cpp **** 	fStatus = readBytes(&headBuf, head, NULL);
 1283              		.loc 3 72 2 is_stmt 1
 1284 0b1e 4889C7   		movq	%rax, %rdi
 1285 0b21 E8000000 		call	__cxa_begin_catch@PLT
 1285      00
 1286              	.LEHB49:
 1287 0b26 E8000000 		call	_ZN8UnitTest11CurrentTest7ResultsEv@PLT
 1287      00
  72:testSvf2Csvf.cpp **** 	fStatus = readBytes(&headBuf, head, NULL);
 1288              		.loc 3 72 2 is_stmt 0 discriminator 3
 1289 0b2b 488B18   		movq	(%rax), %rbx
 1290 0b2e E8000000 		call	_ZN8UnitTest11CurrentTest7DetailsEv@PLT
 1290      00
  72:testSvf2Csvf.cpp **** 	fStatus = readBytes(&headBuf, head, NULL);
 1291              		.loc 3 72 2 discriminator 11
 1292 0b33 488B08   		movq	(%rax), %rcx
 1293 0b36 488D85C0 		leaq	-1088(%rbp), %rax
 1293      FBFFFF
 1294 0b3d BA480000 		movl	$72, %edx
 1294      00
 1295 0b42 4889CE   		movq	%rcx, %rsi
 1296 0b45 4889C7   		movq	%rax, %rdi
 1297 0b48 E8000000 		call	_ZN8UnitTest11TestDetailsC1ERKS0_i@PLT
 1297      00
  72:testSvf2Csvf.cpp **** 	fStatus = readBytes(&headBuf, head, NULL);
 1298              		.loc 3 72 2 discriminator 15
 1299 0b4d 488D85C0 		leaq	-1088(%rbp), %rax
 1299      FBFFFF
 1300 0b54 488D1500 		leaq	.LC2(%rip), %rdx
 1300      000000
 1301 0b5b 4889C6   		movq	%rax, %rsi
 1302 0b5e 4889DF   		movq	%rbx, %rdi
 1303 0b61 E8000000 		call	_ZN8UnitTest11TestResults13OnTestFailureERKNS_11TestDetailsEPKc@PLT
 1303      00
 1304              	.LEHE49:
 1305              	.LEHB50:
  72:testSvf2Csvf.cpp **** 	fStatus = readBytes(&headBuf, head, NULL);
 1306              		.loc 3 72 2 discriminator 17
 1307 0b66 E8000000 		call	__cxa_end_catch@PLT
 1307      00
 1308              	.LEHE50:
 1309 0b6b E97DFBFF 		jmp	.L50
 1309      FF
 1310              	.L75:
 1311 0b70 F30F1EFA 		endbr64
  72:testSvf2Csvf.cpp **** 	fStatus = readBytes(&headBuf, head, NULL);
 1312              		.loc 3 72 2
 1313 0b74 4889C3   		movq	%rax, %rbx
 1314 0b77 E8000000 		call	__cxa_end_catch@PLT
 1314      00
 1315 0b7c 4889D8   		movq	%rbx, %rax
 1316 0b7f 4889C7   		movq	%rax, %rdi
 1317              	.LEHB51:
 1318 0b82 E8000000 		call	_Unwind_Resume@PLT
 1318      00
 1319              	.LEHE51:
 1320              	.L76:
 1321 0b87 F30F1EFA 		endbr64
  74:testSvf2Csvf.cpp **** 	fStatus = readBytes(&tailBuf, tail, NULL);
 1322              		.loc 3 74 2 is_stmt 1
 1323 0b8b 4889C7   		movq	%rax, %rdi
 1324 0b8e E8000000 		call	__cxa_begin_catch@PLT
 1324      00
 1325              	.LEHB52:
 1326 0b93 E8000000 		call	_ZN8UnitTest11CurrentTest7ResultsEv@PLT
 1326      00
  74:testSvf2Csvf.cpp **** 	fStatus = readBytes(&tailBuf, tail, NULL);
 1327              		.loc 3 74 2 is_stmt 0 discriminator 3
 1328 0b98 488B18   		movq	(%rax), %rbx
 1329 0b9b E8000000 		call	_ZN8UnitTest11CurrentTest7DetailsEv@PLT
 1329      00
  74:testSvf2Csvf.cpp **** 	fStatus = readBytes(&tailBuf, tail, NULL);
 1330              		.loc 3 74 2 discriminator 11
 1331 0ba0 488B08   		movq	(%rax), %rcx
 1332 0ba3 488D85C0 		leaq	-1088(%rbp), %rax
 1332      FBFFFF
 1333 0baa BA4A0000 		movl	$74, %edx
 1333      00
 1334 0baf 4889CE   		movq	%rcx, %rsi
 1335 0bb2 4889C7   		movq	%rax, %rdi
 1336 0bb5 E8000000 		call	_ZN8UnitTest11TestDetailsC1ERKS0_i@PLT
 1336      00
  74:testSvf2Csvf.cpp **** 	fStatus = readBytes(&tailBuf, tail, NULL);
 1337              		.loc 3 74 2 discriminator 15
 1338 0bba 488D85C0 		leaq	-1088(%rbp), %rax
 1338      FBFFFF
 1339 0bc1 488D1500 		leaq	.LC2(%rip), %rdx
 1339      000000
 1340 0bc8 4889C6   		movq	%rax, %rsi
 1341 0bcb 4889DF   		movq	%rbx, %rdi
 1342 0bce E8000000 		call	_ZN8UnitTest11TestResults13OnTestFailureERKNS_11TestDetailsEPKc@PLT
 1342      00
 1343              	.LEHE52:
 1344              	.LEHB53:
  74:testSvf2Csvf.cpp **** 	fStatus = readBytes(&tailBuf, tail, NULL);
 1345              		.loc 3 74 2 discriminator 17
 1346 0bd3 E8000000 		call	__cxa_end_catch@PLT
 1346      00
 1347              	.LEHE53:
 1348 0bd8 E982FBFF 		jmp	.L53
 1348      FF
 1349              	.L77:
 1350 0bdd F30F1EFA 		endbr64
  74:testSvf2Csvf.cpp **** 	fStatus = readBytes(&tailBuf, tail, NULL);
 1351              		.loc 3 74 2
 1352 0be1 4889C3   		movq	%rax, %rbx
 1353 0be4 E8000000 		call	__cxa_end_catch@PLT
 1353      00
 1354 0be9 4889D8   		movq	%rbx, %rax
 1355 0bec 4889C7   		movq	%rax, %rdi
 1356              	.LEHB54:
 1357 0bef E8000000 		call	_Unwind_Resume@PLT
 1357      00
 1358              	.LEHE54:
 1359              	.L78:
 1360 0bf4 F30F1EFA 		endbr64
  76:testSvf2Csvf.cpp **** 	fStatus = headTail(&lineBuf, &headBuf, &tailBuf, lineBits, headBits, tailBits, NULL);
 1361              		.loc 3 76 2 is_stmt 1
 1362 0bf8 4889C7   		movq	%rax, %rdi
 1363 0bfb E8000000 		call	__cxa_begin_catch@PLT
 1363      00
 1364              	.LEHB55:
 1365 0c00 E8000000 		call	_ZN8UnitTest11CurrentTest7ResultsEv@PLT
 1365      00
  76:testSvf2Csvf.cpp **** 	fStatus = headTail(&lineBuf, &headBuf, &tailBuf, lineBits, headBits, tailBits, NULL);
 1366              		.loc 3 76 2 is_stmt 0 discriminator 3
 1367 0c05 488B18   		movq	(%rax), %rbx
 1368 0c08 E8000000 		call	_ZN8UnitTest11CurrentTest7DetailsEv@PLT
 1368      00
  76:testSvf2Csvf.cpp **** 	fStatus = headTail(&lineBuf, &headBuf, &tailBuf, lineBits, headBits, tailBits, NULL);
 1369              		.loc 3 76 2 discriminator 11
 1370 0c0d 488B08   		movq	(%rax), %rcx
 1371 0c10 488D85C0 		leaq	-1088(%rbp), %rax
 1371      FBFFFF
 1372 0c17 BA4C0000 		movl	$76, %edx
 1372      00
 1373 0c1c 4889CE   		movq	%rcx, %rsi
 1374 0c1f 4889C7   		movq	%rax, %rdi
 1375 0c22 E8000000 		call	_ZN8UnitTest11TestDetailsC1ERKS0_i@PLT
 1375      00
  76:testSvf2Csvf.cpp **** 	fStatus = headTail(&lineBuf, &headBuf, &tailBuf, lineBits, headBits, tailBits, NULL);
 1376              		.loc 3 76 2 discriminator 15
 1377 0c27 488D85C0 		leaq	-1088(%rbp), %rax
 1377      FBFFFF
 1378 0c2e 488D1500 		leaq	.LC2(%rip), %rdx
 1378      000000
 1379 0c35 4889C6   		movq	%rax, %rsi
 1380 0c38 4889DF   		movq	%rbx, %rdi
 1381 0c3b E8000000 		call	_ZN8UnitTest11TestResults13OnTestFailureERKNS_11TestDetailsEPKc@PLT
 1381      00
 1382              	.LEHE55:
 1383              	.LEHB56:
  76:testSvf2Csvf.cpp **** 	fStatus = headTail(&lineBuf, &headBuf, &tailBuf, lineBits, headBits, tailBits, NULL);
 1384              		.loc 3 76 2 discriminator 17
 1385 0c40 E8000000 		call	__cxa_end_catch@PLT
 1385      00
 1386              	.LEHE56:
 1387 0c45 E987FBFF 		jmp	.L56
 1387      FF
 1388              	.L79:
 1389 0c4a F30F1EFA 		endbr64
  76:testSvf2Csvf.cpp **** 	fStatus = headTail(&lineBuf, &headBuf, &tailBuf, lineBits, headBits, tailBits, NULL);
 1390              		.loc 3 76 2
 1391 0c4e 4889C3   		movq	%rax, %rbx
 1392 0c51 E8000000 		call	__cxa_end_catch@PLT
 1392      00
 1393 0c56 4889D8   		movq	%rbx, %rax
 1394 0c59 4889C7   		movq	%rax, %rdi
 1395              	.LEHB57:
 1396 0c5c E8000000 		call	_Unwind_Resume@PLT
 1396      00
 1397              	.LEHE57:
 1398              	.L80:
 1399 0c61 F30F1EFA 		endbr64
  78:testSvf2Csvf.cpp **** 	CHECK_EQUAL(strlen(expectedHex)/2, lineBuf.length);
 1400              		.loc 3 78 2 is_stmt 1
 1401 0c65 4889C7   		movq	%rax, %rdi
 1402 0c68 E8000000 		call	__cxa_begin_catch@PLT
 1402      00
 1403              	.LEHB58:
 1404 0c6d E8000000 		call	_ZN8UnitTest11CurrentTest7ResultsEv@PLT
 1404      00
  78:testSvf2Csvf.cpp **** 	CHECK_EQUAL(strlen(expectedHex)/2, lineBuf.length);
 1405              		.loc 3 78 2 is_stmt 0 discriminator 3
 1406 0c72 488B18   		movq	(%rax), %rbx
 1407 0c75 E8000000 		call	_ZN8UnitTest11CurrentTest7DetailsEv@PLT
 1407      00
  78:testSvf2Csvf.cpp **** 	CHECK_EQUAL(strlen(expectedHex)/2, lineBuf.length);
 1408              		.loc 3 78 2 discriminator 11
 1409 0c7a 488B08   		movq	(%rax), %rcx
 1410 0c7d 488D85C0 		leaq	-1088(%rbp), %rax
 1410      FBFFFF
 1411 0c84 BA4E0000 		movl	$78, %edx
 1411      00
 1412 0c89 4889CE   		movq	%rcx, %rsi
 1413 0c8c 4889C7   		movq	%rax, %rdi
 1414 0c8f E8000000 		call	_ZN8UnitTest11TestDetailsC1ERKS0_i@PLT
 1414      00
  78:testSvf2Csvf.cpp **** 	CHECK_EQUAL(strlen(expectedHex)/2, lineBuf.length);
 1415              		.loc 3 78 2 discriminator 15
 1416 0c94 488D85C0 		leaq	-1088(%rbp), %rax
 1416      FBFFFF
 1417 0c9b 488D1500 		leaq	.LC2(%rip), %rdx
 1417      000000
 1418 0ca2 4889C6   		movq	%rax, %rsi
 1419 0ca5 4889DF   		movq	%rbx, %rdi
 1420 0ca8 E8000000 		call	_ZN8UnitTest11TestResults13OnTestFailureERKNS_11TestDetailsEPKc@PLT
 1420      00
 1421              	.LEHE58:
 1422              	.LEHB59:
  78:testSvf2Csvf.cpp **** 	CHECK_EQUAL(strlen(expectedHex)/2, lineBuf.length);
 1423              		.loc 3 78 2 discriminator 17
 1424 0cad E8000000 		call	__cxa_end_catch@PLT
 1424      00
 1425              	.LEHE59:
 1426 0cb2 E9AEFBFF 		jmp	.L59
 1426      FF
 1427              	.L81:
 1428 0cb7 F30F1EFA 		endbr64
  78:testSvf2Csvf.cpp **** 	CHECK_EQUAL(strlen(expectedHex)/2, lineBuf.length);
 1429              		.loc 3 78 2
 1430 0cbb 4889C3   		movq	%rax, %rbx
 1431 0cbe E8000000 		call	__cxa_end_catch@PLT
 1431      00
 1432 0cc3 4889D8   		movq	%rbx, %rax
 1433 0cc6 4889C7   		movq	%rax, %rdi
 1434              	.LEHB60:
 1435 0cc9 E8000000 		call	_Unwind_Resume@PLT
 1435      00
 1436              	.LEHE60:
 1437              	.L82:
 1438 0cce F30F1EFA 		endbr64
  79:testSvf2Csvf.cpp **** 	for ( uint32 i = 0; i < 2*lineBuf.length; i++ ) {
 1439              		.loc 3 79 2 is_stmt 1
 1440 0cd2 4889C7   		movq	%rax, %rdi
 1441 0cd5 E8000000 		call	__cxa_begin_catch@PLT
 1441      00
 1442              	.LEHB61:
 1443 0cda E8000000 		call	_ZN8UnitTest11CurrentTest7ResultsEv@PLT
 1443      00
  79:testSvf2Csvf.cpp **** 	for ( uint32 i = 0; i < 2*lineBuf.length; i++ ) {
 1444              		.loc 3 79 2 is_stmt 0 discriminator 3
 1445 0cdf 488B18   		movq	(%rax), %rbx
 1446 0ce2 E8000000 		call	_ZN8UnitTest11CurrentTest7DetailsEv@PLT
 1446      00
  79:testSvf2Csvf.cpp **** 	for ( uint32 i = 0; i < 2*lineBuf.length; i++ ) {
 1447              		.loc 3 79 2 discriminator 11
 1448 0ce7 488B08   		movq	(%rax), %rcx
 1449 0cea 488D85C0 		leaq	-1088(%rbp), %rax
 1449      FBFFFF
 1450 0cf1 BA4F0000 		movl	$79, %edx
 1450      00
 1451 0cf6 4889CE   		movq	%rcx, %rsi
 1452 0cf9 4889C7   		movq	%rax, %rdi
 1453 0cfc E8000000 		call	_ZN8UnitTest11TestDetailsC1ERKS0_i@PLT
 1453      00
  79:testSvf2Csvf.cpp **** 	for ( uint32 i = 0; i < 2*lineBuf.length; i++ ) {
 1454              		.loc 3 79 2 discriminator 15
 1455 0d01 488D85C0 		leaq	-1088(%rbp), %rax
 1455      FBFFFF
 1456 0d08 488D1500 		leaq	.LC14(%rip), %rdx
 1456      000000
 1457 0d0f 4889C6   		movq	%rax, %rsi
 1458 0d12 4889DF   		movq	%rbx, %rdi
 1459 0d15 E8000000 		call	_ZN8UnitTest11TestResults13OnTestFailureERKNS_11TestDetailsEPKc@PLT
 1459      00
 1460              	.LEHE61:
 1461              	.LEHB62:
  79:testSvf2Csvf.cpp **** 	for ( uint32 i = 0; i < 2*lineBuf.length; i++ ) {
 1462              		.loc 3 79 2 discriminator 17
 1463 0d1a E8000000 		call	__cxa_end_catch@PLT
 1463      00
 1464              	.LEHE62:
 1465 0d1f E9A8FBFF 		jmp	.L62
 1465      FF
 1466              	.L83:
 1467 0d24 F30F1EFA 		endbr64
  79:testSvf2Csvf.cpp **** 	for ( uint32 i = 0; i < 2*lineBuf.length; i++ ) {
 1468              		.loc 3 79 2
 1469 0d28 4889C3   		movq	%rax, %rbx
 1470 0d2b E8000000 		call	__cxa_end_catch@PLT
 1470      00
 1471 0d30 4889D8   		movq	%rbx, %rax
 1472 0d33 4889C7   		movq	%rax, %rdi
 1473              	.LEHB63:
 1474 0d36 E8000000 		call	_Unwind_Resume@PLT
 1474      00
 1475              	.LEHE63:
 1476              	.L84:
 1477 0d3b F30F1EFA 		endbr64
  84:testSvf2Csvf.cpp **** 	bufDestroy(&tailBuf);
 1478              		.loc 3 84 5 is_stmt 1
 1479 0d3f 4889C7   		movq	%rax, %rdi
 1480 0d42 E8000000 		call	__cxa_begin_catch@PLT
 1480      00
 1481              	.LEHB64:
 1482 0d47 E8000000 		call	_ZN8UnitTest11CurrentTest7ResultsEv@PLT
 1482      00
  84:testSvf2Csvf.cpp **** 	bufDestroy(&tailBuf);
 1483              		.loc 3 84 5 is_stmt 0 discriminator 3
 1484 0d4c 488B18   		movq	(%rax), %rbx
 1485 0d4f E8000000 		call	_ZN8UnitTest11CurrentTest7DetailsEv@PLT
 1485      00
  84:testSvf2Csvf.cpp **** 	bufDestroy(&tailBuf);
 1486              		.loc 3 84 5 discriminator 11
 1487 0d54 488B08   		movq	(%rax), %rcx
 1488 0d57 488D85C0 		leaq	-1088(%rbp), %rax
 1488      FBFFFF
 1489 0d5e BA540000 		movl	$84, %edx
 1489      00
 1490 0d63 4889CE   		movq	%rcx, %rsi
 1491 0d66 4889C7   		movq	%rax, %rdi
 1492 0d69 E8000000 		call	_ZN8UnitTest11TestDetailsC1ERKS0_i@PLT
 1492      00
  84:testSvf2Csvf.cpp **** 	bufDestroy(&tailBuf);
 1493              		.loc 3 84 5 discriminator 15
 1494 0d6e 488D85C0 		leaq	-1088(%rbp), %rax
 1494      FBFFFF
 1495 0d75 488D1500 		leaq	.LC15(%rip), %rdx
 1495      000000
 1496 0d7c 4889C6   		movq	%rax, %rsi
 1497 0d7f 4889DF   		movq	%rbx, %rdi
 1498 0d82 E8000000 		call	_ZN8UnitTest11TestResults13OnTestFailureERKNS_11TestDetailsEPKc@PLT
 1498      00
 1499              	.LEHE64:
 1500              	.LEHB65:
  84:testSvf2Csvf.cpp **** 	bufDestroy(&tailBuf);
 1501              		.loc 3 84 5 discriminator 17
 1502 0d87 E8000000 		call	__cxa_end_catch@PLT
 1502      00
 1503              	.LEHE65:
 1504 0d8c E9FCFBFF 		jmp	.L65
 1504      FF
 1505              	.L85:
 1506 0d91 F30F1EFA 		endbr64
  84:testSvf2Csvf.cpp **** 	bufDestroy(&tailBuf);
 1507              		.loc 3 84 5
 1508 0d95 4889C3   		movq	%rax, %rbx
 1509 0d98 E8000000 		call	__cxa_end_catch@PLT
 1509      00
 1510 0d9d 4889D8   		movq	%rbx, %rax
 1511 0da0 4889C7   		movq	%rax, %rdi
 1512              	.LEHB66:
 1513 0da3 E8000000 		call	_Unwind_Resume@PLT
 1513      00
 1514              	.LEHE66:
 1515              	.L86:
 1516              		.loc 3 88 1 is_stmt 1
 1517 0da8 E8000000 		call	__stack_chk_fail@PLT
 1517      00
 1518              	.L67:
 1519 0dad 488B5DF8 		movq	-8(%rbp), %rbx
 1520 0db1 C9       		leave
 1521              		.cfi_def_cfa 7, 8
 1522 0db2 C3       		ret
 1523              		.cfi_endproc
 1524              	.LFE1150:
 1525              		.section	.gcc_except_table
 1526              		.align 4
 1527              	.LLSDA1150:
 1528 007c FF       		.byte	0xff
 1529 007d 9B       		.byte	0x9b
 1530 007e F801     		.uleb128 .LLSDATT1150-.LLSDATTD1150
 1531              	.LLSDATTD1150:
 1532 0080 01       		.byte	0x1
 1533 0081 EC01     		.uleb128 .LLSDACSE1150-.LLSDACSB1150
 1534              	.LLSDACSB1150:
 1535 0083 6B       		.uleb128 .LEHB23-.LFB1150
 1536 0084 05       		.uleb128 .LEHE23-.LEHB23
 1537 0085 00       		.uleb128 0
 1538 0086 00       		.uleb128 0
 1539 0087 76       		.uleb128 .LEHB24-.LFB1150
 1540 0088 4E       		.uleb128 .LEHE24-.LEHB24
 1541 0089 800A     		.uleb128 .L68-.LFB1150
 1542 008b 01       		.uleb128 0x1
 1543 008c DD01     		.uleb128 .LEHB25-.LFB1150
 1544 008e 05       		.uleb128 .LEHE25-.LEHB25
 1545 008f 00       		.uleb128 0
 1546 0090 00       		.uleb128 0
 1547 0091 E801     		.uleb128 .LEHB26-.LFB1150
 1548 0093 4E       		.uleb128 .LEHE26-.LEHB26
 1549 0094 ED0A     		.uleb128 .L70-.LFB1150
 1550 0096 01       		.uleb128 0x1
 1551 0097 CF02     		.uleb128 .LEHB27-.LFB1150
 1552 0099 05       		.uleb128 .LEHE27-.LEHB27
 1553 009a 00       		.uleb128 0
 1554 009b 00       		.uleb128 0
 1555 009c DA02     		.uleb128 .LEHB28-.LFB1150
 1556 009e 4E       		.uleb128 .LEHE28-.LEHB28
 1557 009f DA0B     		.uleb128 .L72-.LFB1150
 1558 00a1 01       		.uleb128 0x1
 1559 00a2 C103     		.uleb128 .LEHB29-.LFB1150
 1560 00a4 05       		.uleb128 .LEHE29-.LEHB29
 1561 00a5 00       		.uleb128 0
 1562 00a6 00       		.uleb128 0
 1563 00a7 CC03     		.uleb128 .LEHB30-.LFB1150
 1564 00a9 4E       		.uleb128 .LEHE30-.LEHB30
 1565 00aa C70C     		.uleb128 .L74-.LFB1150
 1566 00ac 01       		.uleb128 0x1
 1567 00ad B304     		.uleb128 .LEHB31-.LFB1150
 1568 00af 05       		.uleb128 .LEHE31-.LEHB31
 1569 00b0 00       		.uleb128 0
 1570 00b1 00       		.uleb128 0
 1571 00b2 BE04     		.uleb128 .LEHB32-.LFB1150
 1572 00b4 4E       		.uleb128 .LEHE32-.LEHB32
 1573 00b5 B40D     		.uleb128 .L76-.LFB1150
 1574 00b7 01       		.uleb128 0x1
 1575 00b8 A505     		.uleb128 .LEHB33-.LFB1150
 1576 00ba 05       		.uleb128 .LEHE33-.LEHB33
 1577 00bb 00       		.uleb128 0
 1578 00bc 00       		.uleb128 0
 1579 00bd B005     		.uleb128 .LEHB34-.LFB1150
 1580 00bf 4E       		.uleb128 .LEHE34-.LEHB34
 1581 00c0 A10E     		.uleb128 .L78-.LFB1150
 1582 00c2 01       		.uleb128 0x1
 1583 00c3 B506     		.uleb128 .LEHB35-.LFB1150
 1584 00c5 05       		.uleb128 .LEHE35-.LEHB35
 1585 00c6 00       		.uleb128 0
 1586 00c7 00       		.uleb128 0
 1587 00c8 C406     		.uleb128 .LEHB36-.LFB1150
 1588 00ca 4E       		.uleb128 .LEHE36-.LEHB36
 1589 00cb 8E0F     		.uleb128 .L80-.LFB1150
 1590 00cd 01       		.uleb128 0x1
 1591 00ce 9207     		.uleb128 .LEHB37-.LFB1150
 1592 00d0 67       		.uleb128 .LEHE37-.LEHB37
 1593 00d1 FB0F     		.uleb128 .L82-.LFB1150
 1594 00d3 01       		.uleb128 0x1
 1595 00d4 F608     		.uleb128 .LEHB38-.LFB1150
 1596 00d6 44       		.uleb128 .LEHE38-.LEHB38
 1597 00d7 E810     		.uleb128 .L84-.LFB1150
 1598 00d9 01       		.uleb128 0x1
 1599 00da C409     		.uleb128 .LEHB39-.LFB1150
 1600 00dc 23       		.uleb128 .LEHE39-.LEHB39
 1601 00dd 00       		.uleb128 0
 1602 00de 00       		.uleb128 0
 1603 00df 8C0A     		.uleb128 .LEHB40-.LFB1150
 1604 00e1 40       		.uleb128 .LEHE40-.LEHB40
 1605 00e2 D60A     		.uleb128 .L69-.LFB1150
 1606 00e4 00       		.uleb128 0
 1607 00e5 CC0A     		.uleb128 .LEHB41-.LFB1150
 1608 00e7 05       		.uleb128 .LEHE41-.LEHB41
 1609 00e8 00       		.uleb128 0
 1610 00e9 00       		.uleb128 0
 1611 00ea E80A     		.uleb128 .LEHB42-.LFB1150
 1612 00ec 05       		.uleb128 .LEHE42-.LEHB42
 1613 00ed 00       		.uleb128 0
 1614 00ee 00       		.uleb128 0
 1615 00ef F90A     		.uleb128 .LEHB43-.LFB1150
 1616 00f1 40       		.uleb128 .LEHE43-.LEHB43
 1617 00f2 C30B     		.uleb128 .L71-.LFB1150
 1618 00f4 00       		.uleb128 0
 1619 00f5 B90B     		.uleb128 .LEHB44-.LFB1150
 1620 00f7 05       		.uleb128 .LEHE44-.LEHB44
 1621 00f8 00       		.uleb128 0
 1622 00f9 00       		.uleb128 0
 1623 00fa D50B     		.uleb128 .LEHB45-.LFB1150
 1624 00fc 05       		.uleb128 .LEHE45-.LEHB45
 1625 00fd 00       		.uleb128 0
 1626 00fe 00       		.uleb128 0
 1627 00ff E60B     		.uleb128 .LEHB46-.LFB1150
 1628 0101 40       		.uleb128 .LEHE46-.LEHB46
 1629 0102 B00C     		.uleb128 .L73-.LFB1150
 1630 0104 00       		.uleb128 0
 1631 0105 A60C     		.uleb128 .LEHB47-.LFB1150
 1632 0107 05       		.uleb128 .LEHE47-.LEHB47
 1633 0108 00       		.uleb128 0
 1634 0109 00       		.uleb128 0
 1635 010a C20C     		.uleb128 .LEHB48-.LFB1150
 1636 010c 05       		.uleb128 .LEHE48-.LEHB48
 1637 010d 00       		.uleb128 0
 1638 010e 00       		.uleb128 0
 1639 010f D30C     		.uleb128 .LEHB49-.LFB1150
 1640 0111 40       		.uleb128 .LEHE49-.LEHB49
 1641 0112 9D0D     		.uleb128 .L75-.LFB1150
 1642 0114 00       		.uleb128 0
 1643 0115 930D     		.uleb128 .LEHB50-.LFB1150
 1644 0117 05       		.uleb128 .LEHE50-.LEHB50
 1645 0118 00       		.uleb128 0
 1646 0119 00       		.uleb128 0
 1647 011a AF0D     		.uleb128 .LEHB51-.LFB1150
 1648 011c 05       		.uleb128 .LEHE51-.LEHB51
 1649 011d 00       		.uleb128 0
 1650 011e 00       		.uleb128 0
 1651 011f C00D     		.uleb128 .LEHB52-.LFB1150
 1652 0121 40       		.uleb128 .LEHE52-.LEHB52
 1653 0122 8A0E     		.uleb128 .L77-.LFB1150
 1654 0124 00       		.uleb128 0
 1655 0125 800E     		.uleb128 .LEHB53-.LFB1150
 1656 0127 05       		.uleb128 .LEHE53-.LEHB53
 1657 0128 00       		.uleb128 0
 1658 0129 00       		.uleb128 0
 1659 012a 9C0E     		.uleb128 .LEHB54-.LFB1150
 1660 012c 05       		.uleb128 .LEHE54-.LEHB54
 1661 012d 00       		.uleb128 0
 1662 012e 00       		.uleb128 0
 1663 012f AD0E     		.uleb128 .LEHB55-.LFB1150
 1664 0131 40       		.uleb128 .LEHE55-.LEHB55
 1665 0132 F70E     		.uleb128 .L79-.LFB1150
 1666 0134 00       		.uleb128 0
 1667 0135 ED0E     		.uleb128 .LEHB56-.LFB1150
 1668 0137 05       		.uleb128 .LEHE56-.LEHB56
 1669 0138 00       		.uleb128 0
 1670 0139 00       		.uleb128 0
 1671 013a 890F     		.uleb128 .LEHB57-.LFB1150
 1672 013c 05       		.uleb128 .LEHE57-.LEHB57
 1673 013d 00       		.uleb128 0
 1674 013e 00       		.uleb128 0
 1675 013f 9A0F     		.uleb128 .LEHB58-.LFB1150
 1676 0141 40       		.uleb128 .LEHE58-.LEHB58
 1677 0142 E40F     		.uleb128 .L81-.LFB1150
 1678 0144 00       		.uleb128 0
 1679 0145 DA0F     		.uleb128 .LEHB59-.LFB1150
 1680 0147 05       		.uleb128 .LEHE59-.LEHB59
 1681 0148 00       		.uleb128 0
 1682 0149 00       		.uleb128 0
 1683 014a F60F     		.uleb128 .LEHB60-.LFB1150
 1684 014c 05       		.uleb128 .LEHE60-.LEHB60
 1685 014d 00       		.uleb128 0
 1686 014e 00       		.uleb128 0
 1687 014f 8710     		.uleb128 .LEHB61-.LFB1150
 1688 0151 40       		.uleb128 .LEHE61-.LEHB61
 1689 0152 D110     		.uleb128 .L83-.LFB1150
 1690 0154 00       		.uleb128 0
 1691 0155 C710     		.uleb128 .LEHB62-.LFB1150
 1692 0157 05       		.uleb128 .LEHE62-.LEHB62
 1693 0158 00       		.uleb128 0
 1694 0159 00       		.uleb128 0
 1695 015a E310     		.uleb128 .LEHB63-.LFB1150
 1696 015c 05       		.uleb128 .LEHE63-.LEHB63
 1697 015d 00       		.uleb128 0
 1698 015e 00       		.uleb128 0
 1699 015f F410     		.uleb128 .LEHB64-.LFB1150
 1700 0161 40       		.uleb128 .LEHE64-.LEHB64
 1701 0162 BE11     		.uleb128 .L85-.LFB1150
 1702 0164 00       		.uleb128 0
 1703 0165 B411     		.uleb128 .LEHB65-.LFB1150
 1704 0167 05       		.uleb128 .LEHE65-.LEHB65
 1705 0168 00       		.uleb128 0
 1706 0169 00       		.uleb128 0
 1707 016a D011     		.uleb128 .LEHB66-.LFB1150
 1708 016c 05       		.uleb128 .LEHE66-.LEHB66
 1709 016d 00       		.uleb128 0
 1710 016e 00       		.uleb128 0
 1711              	.LLSDACSE1150:
 1712 016f 01       		.byte	0x1
 1713 0170 00       		.byte	0
 1714 0171 000000   		.align 4
 1715 0174 00000000 		.long	0
 1716              	
 1717              	.LLSDATT1150:
 1718              		.text
 1720              		.section	.rodata
 1721              	.LC16:
 1722 01eb 46504741 		.string	"FPGALink_testShift"
 1722      4C696E6B 
 1722      5F746573 
 1722      74536869 
 1722      667400
 1723              		.section	.text._ZN22TestFPGALink_testShiftC2Ev,"axG",@progbits,_ZN22TestFPGALink_testShiftC5Ev,com
 1724              		.align 2
 1725              		.weak	_ZN22TestFPGALink_testShiftC2Ev
 1727              	_ZN22TestFPGALink_testShiftC2Ev:
 1728              	.LFB1152:
  89:testSvf2Csvf.cpp **** 
  90:testSvf2Csvf.cpp **** TEST(FPGALink_testShift) {
 1729              		.loc 3 90 1
 1730              		.cfi_startproc
 1731 0000 F30F1EFA 		endbr64
 1732 0004 55       		pushq	%rbp
 1733              		.cfi_def_cfa_offset 16
 1734              		.cfi_offset 6, -16
 1735 0005 4889E5   		movq	%rsp, %rbp
 1736              		.cfi_def_cfa_register 6
 1737 0008 53       		pushq	%rbx
 1738 0009 4883EC18 		subq	$24, %rsp
 1739              		.cfi_offset 3, -24
 1740 000d 48897DE8 		movq	%rdi, -24(%rbp)
 1741              	.LBB7:
 1742              		.loc 3 90 1
 1743 0011 488B5DE8 		movq	-24(%rbp), %rbx
 1744 0015 E8000000 		call	_ZN13UnitTestSuite12GetSuiteNameEv
 1744      00
 1745 001a 4889C2   		movq	%rax, %rdx
 1746 001d 41B85A00 		movl	$90, %r8d
 1746      0000
 1747 0023 488D0500 		leaq	.LC5(%rip), %rax
 1747      000000
 1748 002a 4889C1   		movq	%rax, %rcx
 1749 002d 488D0500 		leaq	.LC16(%rip), %rax
 1749      000000
 1750 0034 4889C6   		movq	%rax, %rsi
 1751 0037 4889DF   		movq	%rbx, %rdi
 1752 003a E8000000 		call	_ZN8UnitTest4TestC2EPKcS2_S2_i@PLT
 1752      00
 1753 003f 488D1500 		leaq	16+_ZTV22TestFPGALink_testShift(%rip), %rdx
 1753      000000
 1754 0046 488B45E8 		movq	-24(%rbp), %rax
 1755 004a 488910   		movq	%rdx, (%rax)
 1756              	.LBE7:
 1757 004d 90       		nop
 1758 004e 488B5DF8 		movq	-8(%rbp), %rbx
 1759 0052 C9       		leave
 1760              		.cfi_def_cfa 7, 8
 1761 0053 C3       		ret
 1762              		.cfi_endproc
 1763              	.LFE1152:
 1765              		.weak	_ZN22TestFPGALink_testShiftC1Ev
 1766              		.set	_ZN22TestFPGALink_testShiftC1Ev,_ZN22TestFPGALink_testShiftC2Ev
 1767              		.globl	testFPGALink_testShiftInstance
 1768              		.bss
 1769 0039 00000000 		.align 32
 1769      000000
 1772              	testFPGALink_testShiftInstance:
 1773 0040 00000000 		.zero	56
 1773      00000000 
 1773      00000000 
 1773      00000000 
 1773      00000000 
 1774              		.globl	adderFPGALink_testShift
 1777              	adderFPGALink_testShift:
 1778 0078 00       		.zero	1
 1779              		.section	.rodata
 1780              	.LC17:
 1781 01fe 303600   		.string	"06"
 1782              	.LC18:
 1783 0201 303000   		.string	"00"
 1784              	.LC19:
 1785 0204 46314332 		.string	"F1C2E093"
 1785      45303933 
 1785      00
 1786              	.LC20:
 1787 020d 30364631 		.string	"06F1C2E093"
 1787      43324530 
 1787      393300
 1788              	.LC21:
 1789 0218 303100   		.string	"01"
 1790              	.LC22:
 1791 021b 30444533 		.string	"0DE385C127"
 1791      38354331 
 1791      323700
 1792              	.LC23:
 1793 0226 303200   		.string	"02"
 1794              	.LC24:
 1795 0229 31424337 		.string	"1BC70B824E"
 1795      30423832 
 1795      344500
 1796              	.LC25:
 1797 0234 33373845 		.string	"378E17049E"
 1797      31373034 
 1797      394500
 1798              	.LC26:
 1799 023f 304100   		.string	"0A"
 1800              	.LC27:
 1801 0242 36463143 		.string	"6F1C2E093A"
 1801      32453039 
 1801      334100
 1802              	.LC28:
 1803 024d 313500   		.string	"15"
 1804              	.LC29:
 1805 0250 44453338 		.string	"DE385C1275"
 1805      35433132 
 1805      373500
 1806              	.LC30:
 1807 025b 323500   		.string	"25"
 1808              	.LC31:
 1809 025e 30314243 		.string	"01BC70B824E5"
 1809      37304238 
 1809      32344535 
 1809      00
 1810              	.LC32:
 1811 026b 373500   		.string	"75"
 1812              	.LC33:
 1813 026e 30333738 		.string	"0378E17049F5"
 1813      45313730 
 1813      34394635 
 1813      00
 1814              	.LC34:
 1815 027b 653500   		.string	"e5"
 1816              	.LC35:
 1817 027e 30364631 		.string	"06F1C2E093E5"
 1817      43324530 
 1817      39334535 
 1817      00
 1818              	.LC36:
 1819 028b 30313135 		.string	"0115"
 1819      00
 1820              	.LC37:
 1821 0290 30444533 		.string	"0DE385C12715"
 1821      38354331 
 1821      32373135 
 1821      00
 1822              	.LC38:
 1823 029d 30333135 		.string	"0315"
 1823      00
 1824              	.LC39:
 1825 02a2 31424337 		.string	"1BC70B824F15"
 1825      30423832 
 1825      34463135 
 1825      00
 1826              	.LC40:
 1827 02af 30373135 		.string	"0715"
 1827      00
 1828              	.LC41:
 1829 02b4 33373845 		.string	"378E17049F15"
 1829      31373034 
 1829      39463135 
 1829      00
 1830              	.LC42:
 1831 02c1 30633135 		.string	"0c15"
 1831      00
 1832              	.LC43:
 1833 02c6 36463143 		.string	"6F1C2E093C15"
 1833      32453039 
 1833      33433135 
 1833      00
 1834              	.LC44:
 1835 02d3 31633135 		.string	"1c15"
 1835      00
 1836              	.LC45:
 1837 02d8 44453338 		.string	"DE385C127C15"
 1837      35433132 
 1837      37433135 
 1837      00
 1838              	.LC46:
 1839 02e5 32633135 		.string	"2c15"
 1839      00
 1840              	.LC47:
 1841 02ea 30314243 		.string	"01BC70B824EC15"
 1841      37304238 
 1841      32344543 
 1841      313500
 1842              	.LC48:
 1843 02f9 34303135 		.string	"4015"
 1843      00
 1844              	.LC49:
 1845 02fe 30333738 		.string	"0378E17049C015"
 1845      45313730 
 1845      34394330 
 1845      313500
 1846              	.LC50:
 1847 030d 38303135 		.string	"8015"
 1847      00
 1848              	.LC51:
 1849 0312 30364631 		.string	"06F1C2E0938015"
 1849      43324530 
 1849      39333830 
 1849      313500
 1850              	.LC52:
 1851 0321 30313830 		.string	"018015"
 1851      313500
 1852              	.LC53:
 1853 0328 30444533 		.string	"0DE385C1278015"
 1853      38354331 
 1853      32373830 
 1853      313500
 1854              	.LC54:
 1855 0337 30414631 		.string	"0AF1C2E093"
 1855      43324530 
 1855      393300
 1856              	.LC55:
 1857 0342 31354533 		.string	"15E385C127"
 1857      38354331 
 1857      323700
 1858              	.LC56:
 1859 034d 32424337 		.string	"2BC70B824E"
 1859      30423832 
 1859      344500
 1860              	.LC57:
 1861 0358 35373845 		.string	"578E17049E"
 1861      31373034 
 1861      394500
 1862              	.LC58:
 1863 0363 41463143 		.string	"AF1C2E093A"
 1863      32453039 
 1863      334100
 1864              	.LC59:
 1865 036e 30313545 		.string	"015E385C1275"
 1865      33383543 
 1865      31323735 
 1865      00
 1866              	.LC60:
 1867 037b 30324243 		.string	"02BC70B824E5"
 1867      37304238 
 1867      32344535 
 1867      00
 1868              	.LC61:
 1869 0388 30353738 		.string	"0578E17049F5"
 1869      45313730 
 1869      34394635 
 1869      00
 1870              	.LC62:
 1871 0395 30414631 		.string	"0AF1C2E093E5"
 1871      43324530 
 1871      39334535 
 1871      00
 1872              	.LC63:
 1873 03a2 31354533 		.string	"15E385C12715"
 1873      38354331 
 1873      32373135 
 1873      00
 1874              	.LC64:
 1875 03af 32424337 		.string	"2BC70B824F15"
 1875      30423832 
 1875      34463135 
 1875      00
 1876              	.LC65:
 1877 03bc 35373845 		.string	"578E17049F15"
 1877      31373034 
 1877      39463135 
 1877      00
 1878              	.LC66:
 1879 03c9 41463143 		.string	"AF1C2E093C15"
 1879      32453039 
 1879      33433135 
 1879      00
 1880              	.LC67:
 1881 03d6 30313545 		.string	"015E385C127C15"
 1881      33383543 
 1881      31323743 
 1881      313500
 1882              	.LC68:
 1883 03e5 30324243 		.string	"02BC70B824EC15"
 1883      37304238 
 1883      32344543 
 1883      313500
 1884              	.LC69:
 1885 03f4 30353738 		.string	"0578E17049C015"
 1885      45313730 
 1885      34394330 
 1885      313500
 1886              	.LC70:
 1887 0403 30414631 		.string	"0AF1C2E0938015"
 1887      43324530 
 1887      39333830 
 1887      313500
 1888              	.LC71:
 1889 0412 31354533 		.string	"15E385C1278015"
 1889      38354331 
 1889      32373830 
 1889      313500
 1890              	.LC72:
 1891 0421 30313335 		.string	"0135"
 1891      00
 1892              	.LC73:
 1893 0426 30313335 		.string	"0135F1C2E093"
 1893      46314332 
 1893      45303933 
 1893      00
 1894              	.LC74:
 1895 0433 30323642 		.string	"026BE385C127"
 1895      45333835 
 1895      43313237 
 1895      00
 1896              	.LC75:
 1897 0440 30344437 		.string	"04D7C70B824E"
 1897      43373042 
 1897      38323445 
 1897      00
 1898              	.LC76:
 1899 044d 30394146 		.string	"09AF8E17049E"
 1899      38453137 
 1899      30343945 
 1899      00
 1900              	.LC77:
 1901 045a 31333546 		.string	"135F1C2E093A"
 1901      31433245 
 1901      30393341 
 1901      00
 1902              	.LC78:
 1903 0467 32364245 		.string	"26BE385C1275"
 1903      33383543 
 1903      31323735 
 1903      00
 1904              	.LC79:
 1905 0474 34443743 		.string	"4D7C70B824E5"
 1905      37304238 
 1905      32344535 
 1905      00
 1906              	.LC80:
 1907 0481 39414638 		.string	"9AF8E17049F5"
 1907      45313730 
 1907      34394635 
 1907      00
 1908              	.LC81:
 1909 048e 30313335 		.string	"0135F1C2E093E5"
 1909      46314332 
 1909      45303933 
 1909      453500
 1910              	.LC82:
 1911 049d 30323642 		.string	"026BE385C12715"
 1911      45333835 
 1911      43313237 
 1911      313500
 1912              	.LC83:
 1913 04ac 30344437 		.string	"04D7C70B824F15"
 1913      43373042 
 1913      38323446 
 1913      313500
 1914              	.LC84:
 1915 04bb 30394146 		.string	"09AF8E17049F15"
 1915      38453137 
 1915      30343946 
 1915      313500
 1916              	.LC85:
 1917 04ca 31333546 		.string	"135F1C2E093C15"
 1917      31433245 
 1917      30393343 
 1917      313500
 1918              	.LC86:
 1919 04d9 32364245 		.string	"26BE385C127C15"
 1919      33383543 
 1919      31323743 
 1919      313500
 1920              	.LC87:
 1921 04e8 34443743 		.string	"4D7C70B824EC15"
 1921      37304238 
 1921      32344543 
 1921      313500
 1922              	.LC88:
 1923 04f7 39414638 		.string	"9AF8E17049C015"
 1923      45313730 
 1923      34394330 
 1923      313500
 1924              	.LC89:
 1925 0506 30313335 		.string	"0135F1C2E0938015"
 1925      46314332 
 1925      45303933 
 1925      38303135 
 1925      00
 1926              	.LC90:
 1927 0517 30323642 		.string	"026BE385C1278015"
 1927      45333835 
 1927      43313237 
 1927      38303135 
 1927      00
 1928              	.LC91:
 1929 0528 37314332 		.string	"71C2E093"
 1929      45303933 
 1929      00
 1930              	.LC92:
 1931 0531 39414631 		.string	"9AF1C2E093"
 1931      43324530 
 1931      393300
 1932              	.LC93:
 1933 053c 30313335 		.string	"0135E385C127"
 1933      45333835 
 1933      43313237 
 1933      00
 1934              	.LC94:
 1935 0549 30323642 		.string	"026BC70B824E"
 1935      43373042 
 1935      38323445 
 1935      00
 1936              	.LC95:
 1937 0556 30344437 		.string	"04D78E17049E"
 1937      38453137 
 1937      30343945 
 1937      00
 1938              	.LC96:
 1939 0563 30394146 		.string	"09AF1C2E093A"
 1939      31433245 
 1939      30393341 
 1939      00
 1940              	.LC97:
 1941 0570 31333545 		.string	"135E385C1275"
 1941      33383543 
 1941      31323735 
 1941      00
 1942              	.LC98:
 1943 057d 32364243 		.string	"26BC70B824E5"
 1943      37304238 
 1943      32344535 
 1943      00
 1944              	.LC99:
 1945 058a 34443738 		.string	"4D78E17049F5"
 1945      45313730 
 1945      34394635 
 1945      00
 1946              	.LC100:
 1947 0597 39414631 		.string	"9AF1C2E093E5"
 1947      43324530 
 1947      39334535 
 1947      00
 1948              	.LC101:
 1949 05a4 30313335 		.string	"0135E385C12715"
 1949      45333835 
 1949      43313237 
 1949      313500
 1950              	.LC102:
 1951 05b3 30323642 		.string	"026BC70B824F15"
 1951      43373042 
 1951      38323446 
 1951      313500
 1952              	.LC103:
 1953 05c2 30344437 		.string	"04D78E17049F15"
 1953      38453137 
 1953      30343946 
 1953      313500
 1954              	.LC104:
 1955 05d1 30394146 		.string	"09AF1C2E093C15"
 1955      31433245 
 1955      30393343 
 1955      313500
 1956              	.LC105:
 1957 05e0 31333545 		.string	"135E385C127C15"
 1957      33383543 
 1957      31323743 
 1957      313500
 1958              	.LC106:
 1959 05ef 32364243 		.string	"26BC70B824EC15"
 1959      37304238 
 1959      32344543 
 1959      313500
 1960              	.LC107:
 1961 05fe 34443738 		.string	"4D78E17049C015"
 1961      45313730 
 1961      34394330 
 1961      313500
 1962              	.LC108:
 1963 060d 39414631 		.string	"9AF1C2E0938015"
 1963      43324530 
 1963      39333830 
 1963      313500
 1964              	.LC109:
 1965 061c 30313335 		.string	"0135E385C1278015"
 1965      45333835 
 1965      43313237 
 1965      38303135 
 1965      00
 1966              	.LC110:
 1967 062d 00       		.string	""
 1968              	.LC111:
 1969 062e 35343233 		.string	"5423DF3A8F129B2C91B9425D"
 1969      44463341 
 1969      38463132 
 1969      39423243 
 1969      39314239 
 1970              	.LC112:
 1971 0647 44343233 		.string	"D423DF3A8F129B2C91B9425D"
 1971      44463341 
 1971      38463132 
 1971      39423243 
 1971      39314239 
 1972              	.LC113:
 1973 0660 41383437 		.string	"A847BE751E253659237284BB"
 1973      42453735 
 1973      31453235 
 1973      33363539 
 1973      32333732 
 1974              		.text
 1975 0db3 90       		.align 2
 1976              		.globl	_ZNK22TestFPGALink_testShift7RunImplEv
 1978              	_ZNK22TestFPGALink_testShift7RunImplEv:
 1979              	.LFB1154:
 1980              		.loc 3 90 26
 1981              		.cfi_startproc
 1982 0db4 F30F1EFA 		endbr64
 1983 0db8 55       		pushq	%rbp
 1984              		.cfi_def_cfa_offset 16
 1985              		.cfi_offset 6, -16
 1986 0db9 4889E5   		movq	%rsp, %rbp
 1987              		.cfi_def_cfa_register 6
 1988 0dbc 4883EC10 		subq	$16, %rsp
 1989 0dc0 48897DF8 		movq	%rdi, -8(%rbp)
  91:testSvf2Csvf.cpp **** 	testShift(
 1990              		.loc 3 91 11
 1991 0dc4 4883EC08 		subq	$8, %rsp
 1992 0dc8 488D0500 		leaq	.LC20(%rip), %rax
 1992      000000
 1993 0dcf 50       		pushq	%rax
 1994 0dd0 41B90300 		movl	$3, %r9d
 1994      0000
 1995 0dd6 4C8D0500 		leaq	.LC17(%rip), %r8
 1995      000000
 1996 0ddd B9000000 		movl	$0, %ecx
 1996      00
 1997 0de2 488D0500 		leaq	.LC18(%rip), %rax
 1997      000000
 1998 0de9 4889C2   		movq	%rax, %rdx
 1999 0dec BE200000 		movl	$32, %esi
 1999      00
 2000 0df1 488D0500 		leaq	.LC19(%rip), %rax
 2000      000000
 2001 0df8 4889C7   		movq	%rax, %rdi
 2002 0dfb E8000000 		call	_Z9testShiftPKcjS0_jS0_jS0_
 2002      00
 2003 0e00 4883C410 		addq	$16, %rsp
  92:testSvf2Csvf.cpp **** 		"F1C2E093", 32,
  93:testSvf2Csvf.cpp **** 		"00", 0,
  94:testSvf2Csvf.cpp **** 		"06", 3,
  95:testSvf2Csvf.cpp **** 		"06F1C2E093"
  96:testSvf2Csvf.cpp **** 	);
  97:testSvf2Csvf.cpp **** 	testShift(
 2004              		.loc 3 97 11
 2005 0e04 4883EC08 		subq	$8, %rsp
 2006 0e08 488D0500 		leaq	.LC22(%rip), %rax
 2006      000000
 2007 0e0f 50       		pushq	%rax
 2008 0e10 41B90300 		movl	$3, %r9d
 2008      0000
 2009 0e16 4C8D0500 		leaq	.LC17(%rip), %r8
 2009      000000
 2010 0e1d B9010000 		movl	$1, %ecx
 2010      00
 2011 0e22 488D0500 		leaq	.LC21(%rip), %rax
 2011      000000
 2012 0e29 4889C2   		movq	%rax, %rdx
 2013 0e2c BE200000 		movl	$32, %esi
 2013      00
 2014 0e31 488D0500 		leaq	.LC19(%rip), %rax
 2014      000000
 2015 0e38 4889C7   		movq	%rax, %rdi
 2016 0e3b E8000000 		call	_Z9testShiftPKcjS0_jS0_jS0_
 2016      00
 2017 0e40 4883C410 		addq	$16, %rsp
  98:testSvf2Csvf.cpp **** 		"F1C2E093", 32,
  99:testSvf2Csvf.cpp **** 		"01", 1,
 100:testSvf2Csvf.cpp **** 		"06", 3,
 101:testSvf2Csvf.cpp **** 		"0DE385C127"
 102:testSvf2Csvf.cpp **** 	);
 103:testSvf2Csvf.cpp **** 	testShift(
 2018              		.loc 3 103 11
 2019 0e44 4883EC08 		subq	$8, %rsp
 2020 0e48 488D0500 		leaq	.LC24(%rip), %rax
 2020      000000
 2021 0e4f 50       		pushq	%rax
 2022 0e50 41B90300 		movl	$3, %r9d
 2022      0000
 2023 0e56 4C8D0500 		leaq	.LC17(%rip), %r8
 2023      000000
 2024 0e5d B9020000 		movl	$2, %ecx
 2024      00
 2025 0e62 488D0500 		leaq	.LC23(%rip), %rax
 2025      000000
 2026 0e69 4889C2   		movq	%rax, %rdx
 2027 0e6c BE200000 		movl	$32, %esi
 2027      00
 2028 0e71 488D0500 		leaq	.LC19(%rip), %rax
 2028      000000
 2029 0e78 4889C7   		movq	%rax, %rdi
 2030 0e7b E8000000 		call	_Z9testShiftPKcjS0_jS0_jS0_
 2030      00
 2031 0e80 4883C410 		addq	$16, %rsp
 104:testSvf2Csvf.cpp **** 		"F1C2E093", 32,
 105:testSvf2Csvf.cpp **** 		"02", 2,
 106:testSvf2Csvf.cpp **** 		"06", 3,
 107:testSvf2Csvf.cpp **** 		"1BC70B824E"
 108:testSvf2Csvf.cpp **** 	);
 109:testSvf2Csvf.cpp **** 	testShift(
 2032              		.loc 3 109 11
 2033 0e84 4883EC08 		subq	$8, %rsp
 2034 0e88 488D0500 		leaq	.LC25(%rip), %rax
 2034      000000
 2035 0e8f 50       		pushq	%rax
 2036 0e90 41B90300 		movl	$3, %r9d
 2036      0000
 2037 0e96 4C8D0500 		leaq	.LC17(%rip), %r8
 2037      000000
 2038 0e9d B9030000 		movl	$3, %ecx
 2038      00
 2039 0ea2 488D0500 		leaq	.LC17(%rip), %rax
 2039      000000
 2040 0ea9 4889C2   		movq	%rax, %rdx
 2041 0eac BE200000 		movl	$32, %esi
 2041      00
 2042 0eb1 488D0500 		leaq	.LC19(%rip), %rax
 2042      000000
 2043 0eb8 4889C7   		movq	%rax, %rdi
 2044 0ebb E8000000 		call	_Z9testShiftPKcjS0_jS0_jS0_
 2044      00
 2045 0ec0 4883C410 		addq	$16, %rsp
 110:testSvf2Csvf.cpp **** 		"F1C2E093", 32,
 111:testSvf2Csvf.cpp **** 		"06", 3,
 112:testSvf2Csvf.cpp **** 		"06", 3,
 113:testSvf2Csvf.cpp **** 		"378E17049E"
 114:testSvf2Csvf.cpp **** 	);
 115:testSvf2Csvf.cpp **** 	testShift(
 2046              		.loc 3 115 11
 2047 0ec4 4883EC08 		subq	$8, %rsp
 2048 0ec8 488D0500 		leaq	.LC27(%rip), %rax
 2048      000000
 2049 0ecf 50       		pushq	%rax
 2050 0ed0 41B90300 		movl	$3, %r9d
 2050      0000
 2051 0ed6 4C8D0500 		leaq	.LC17(%rip), %r8
 2051      000000
 2052 0edd B9040000 		movl	$4, %ecx
 2052      00
 2053 0ee2 488D0500 		leaq	.LC26(%rip), %rax
 2053      000000
 2054 0ee9 4889C2   		movq	%rax, %rdx
 2055 0eec BE200000 		movl	$32, %esi
 2055      00
 2056 0ef1 488D0500 		leaq	.LC19(%rip), %rax
 2056      000000
 2057 0ef8 4889C7   		movq	%rax, %rdi
 2058 0efb E8000000 		call	_Z9testShiftPKcjS0_jS0_jS0_
 2058      00
 2059 0f00 4883C410 		addq	$16, %rsp
 116:testSvf2Csvf.cpp **** 		"F1C2E093", 32,
 117:testSvf2Csvf.cpp **** 		"0A", 4,
 118:testSvf2Csvf.cpp **** 		"06", 3,
 119:testSvf2Csvf.cpp **** 		"6F1C2E093A"
 120:testSvf2Csvf.cpp **** 	);
 121:testSvf2Csvf.cpp **** 	testShift(
 2060              		.loc 3 121 11
 2061 0f04 4883EC08 		subq	$8, %rsp
 2062 0f08 488D0500 		leaq	.LC29(%rip), %rax
 2062      000000
 2063 0f0f 50       		pushq	%rax
 2064 0f10 41B90300 		movl	$3, %r9d
 2064      0000
 2065 0f16 4C8D0500 		leaq	.LC17(%rip), %r8
 2065      000000
 2066 0f1d B9050000 		movl	$5, %ecx
 2066      00
 2067 0f22 488D0500 		leaq	.LC28(%rip), %rax
 2067      000000
 2068 0f29 4889C2   		movq	%rax, %rdx
 2069 0f2c BE200000 		movl	$32, %esi
 2069      00
 2070 0f31 488D0500 		leaq	.LC19(%rip), %rax
 2070      000000
 2071 0f38 4889C7   		movq	%rax, %rdi
 2072 0f3b E8000000 		call	_Z9testShiftPKcjS0_jS0_jS0_
 2072      00
 2073 0f40 4883C410 		addq	$16, %rsp
 122:testSvf2Csvf.cpp **** 		"F1C2E093", 32,
 123:testSvf2Csvf.cpp **** 		"15", 5,
 124:testSvf2Csvf.cpp **** 		"06", 3,
 125:testSvf2Csvf.cpp **** 		"DE385C1275"
 126:testSvf2Csvf.cpp **** 	);
 127:testSvf2Csvf.cpp **** 	testShift(
 2074              		.loc 3 127 11
 2075 0f44 4883EC08 		subq	$8, %rsp
 2076 0f48 488D0500 		leaq	.LC31(%rip), %rax
 2076      000000
 2077 0f4f 50       		pushq	%rax
 2078 0f50 41B90300 		movl	$3, %r9d
 2078      0000
 2079 0f56 4C8D0500 		leaq	.LC17(%rip), %r8
 2079      000000
 2080 0f5d B9060000 		movl	$6, %ecx
 2080      00
 2081 0f62 488D0500 		leaq	.LC30(%rip), %rax
 2081      000000
 2082 0f69 4889C2   		movq	%rax, %rdx
 2083 0f6c BE200000 		movl	$32, %esi
 2083      00
 2084 0f71 488D0500 		leaq	.LC19(%rip), %rax
 2084      000000
 2085 0f78 4889C7   		movq	%rax, %rdi
 2086 0f7b E8000000 		call	_Z9testShiftPKcjS0_jS0_jS0_
 2086      00
 2087 0f80 4883C410 		addq	$16, %rsp
 128:testSvf2Csvf.cpp **** 		"F1C2E093", 32,
 129:testSvf2Csvf.cpp **** 		"25", 6,
 130:testSvf2Csvf.cpp **** 		"06", 3,
 131:testSvf2Csvf.cpp **** 		"01BC70B824E5"
 132:testSvf2Csvf.cpp **** 	);
 133:testSvf2Csvf.cpp **** 	testShift(
 2088              		.loc 3 133 11
 2089 0f84 4883EC08 		subq	$8, %rsp
 2090 0f88 488D0500 		leaq	.LC33(%rip), %rax
 2090      000000
 2091 0f8f 50       		pushq	%rax
 2092 0f90 41B90300 		movl	$3, %r9d
 2092      0000
 2093 0f96 4C8D0500 		leaq	.LC17(%rip), %r8
 2093      000000
 2094 0f9d B9070000 		movl	$7, %ecx
 2094      00
 2095 0fa2 488D0500 		leaq	.LC32(%rip), %rax
 2095      000000
 2096 0fa9 4889C2   		movq	%rax, %rdx
 2097 0fac BE200000 		movl	$32, %esi
 2097      00
 2098 0fb1 488D0500 		leaq	.LC19(%rip), %rax
 2098      000000
 2099 0fb8 4889C7   		movq	%rax, %rdi
 2100 0fbb E8000000 		call	_Z9testShiftPKcjS0_jS0_jS0_
 2100      00
 2101 0fc0 4883C410 		addq	$16, %rsp
 134:testSvf2Csvf.cpp **** 		"F1C2E093", 32,
 135:testSvf2Csvf.cpp **** 		"75", 7,
 136:testSvf2Csvf.cpp **** 		"06", 3,
 137:testSvf2Csvf.cpp **** 		"0378E17049F5"
 138:testSvf2Csvf.cpp **** 	);
 139:testSvf2Csvf.cpp **** 	testShift(
 2102              		.loc 3 139 11
 2103 0fc4 4883EC08 		subq	$8, %rsp
 2104 0fc8 488D0500 		leaq	.LC35(%rip), %rax
 2104      000000
 2105 0fcf 50       		pushq	%rax
 2106 0fd0 41B90300 		movl	$3, %r9d
 2106      0000
 2107 0fd6 4C8D0500 		leaq	.LC17(%rip), %r8
 2107      000000
 2108 0fdd B9080000 		movl	$8, %ecx
 2108      00
 2109 0fe2 488D0500 		leaq	.LC34(%rip), %rax
 2109      000000
 2110 0fe9 4889C2   		movq	%rax, %rdx
 2111 0fec BE200000 		movl	$32, %esi
 2111      00
 2112 0ff1 488D0500 		leaq	.LC19(%rip), %rax
 2112      000000
 2113 0ff8 4889C7   		movq	%rax, %rdi
 2114 0ffb E8000000 		call	_Z9testShiftPKcjS0_jS0_jS0_
 2114      00
 2115 1000 4883C410 		addq	$16, %rsp
 140:testSvf2Csvf.cpp **** 		"F1C2E093", 32,
 141:testSvf2Csvf.cpp **** 		"e5", 8,
 142:testSvf2Csvf.cpp **** 		"06", 3,
 143:testSvf2Csvf.cpp **** 		"06F1C2E093E5"
 144:testSvf2Csvf.cpp **** 	);
 145:testSvf2Csvf.cpp **** 	testShift(
 2116              		.loc 3 145 11
 2117 1004 4883EC08 		subq	$8, %rsp
 2118 1008 488D0500 		leaq	.LC37(%rip), %rax
 2118      000000
 2119 100f 50       		pushq	%rax
 2120 1010 41B90300 		movl	$3, %r9d
 2120      0000
 2121 1016 4C8D0500 		leaq	.LC17(%rip), %r8
 2121      000000
 2122 101d B9090000 		movl	$9, %ecx
 2122      00
 2123 1022 488D0500 		leaq	.LC36(%rip), %rax
 2123      000000
 2124 1029 4889C2   		movq	%rax, %rdx
 2125 102c BE200000 		movl	$32, %esi
 2125      00
 2126 1031 488D0500 		leaq	.LC19(%rip), %rax
 2126      000000
 2127 1038 4889C7   		movq	%rax, %rdi
 2128 103b E8000000 		call	_Z9testShiftPKcjS0_jS0_jS0_
 2128      00
 2129 1040 4883C410 		addq	$16, %rsp
 146:testSvf2Csvf.cpp **** 		"F1C2E093", 32,
 147:testSvf2Csvf.cpp **** 		"0115", 9,
 148:testSvf2Csvf.cpp **** 		"06", 3,
 149:testSvf2Csvf.cpp **** 		"0DE385C12715"
 150:testSvf2Csvf.cpp **** 	);
 151:testSvf2Csvf.cpp **** 	testShift(
 2130              		.loc 3 151 11
 2131 1044 4883EC08 		subq	$8, %rsp
 2132 1048 488D0500 		leaq	.LC39(%rip), %rax
 2132      000000
 2133 104f 50       		pushq	%rax
 2134 1050 41B90300 		movl	$3, %r9d
 2134      0000
 2135 1056 4C8D0500 		leaq	.LC17(%rip), %r8
 2135      000000
 2136 105d B90A0000 		movl	$10, %ecx
 2136      00
 2137 1062 488D0500 		leaq	.LC38(%rip), %rax
 2137      000000
 2138 1069 4889C2   		movq	%rax, %rdx
 2139 106c BE200000 		movl	$32, %esi
 2139      00
 2140 1071 488D0500 		leaq	.LC19(%rip), %rax
 2140      000000
 2141 1078 4889C7   		movq	%rax, %rdi
 2142 107b E8000000 		call	_Z9testShiftPKcjS0_jS0_jS0_
 2142      00
 2143 1080 4883C410 		addq	$16, %rsp
 152:testSvf2Csvf.cpp **** 		"F1C2E093", 32,
 153:testSvf2Csvf.cpp **** 		"0315", 10,
 154:testSvf2Csvf.cpp **** 		"06", 3,
 155:testSvf2Csvf.cpp **** 		"1BC70B824F15"
 156:testSvf2Csvf.cpp **** 	);
 157:testSvf2Csvf.cpp **** 	testShift(
 2144              		.loc 3 157 11
 2145 1084 4883EC08 		subq	$8, %rsp
 2146 1088 488D0500 		leaq	.LC41(%rip), %rax
 2146      000000
 2147 108f 50       		pushq	%rax
 2148 1090 41B90300 		movl	$3, %r9d
 2148      0000
 2149 1096 4C8D0500 		leaq	.LC17(%rip), %r8
 2149      000000
 2150 109d B90B0000 		movl	$11, %ecx
 2150      00
 2151 10a2 488D0500 		leaq	.LC40(%rip), %rax
 2151      000000
 2152 10a9 4889C2   		movq	%rax, %rdx
 2153 10ac BE200000 		movl	$32, %esi
 2153      00
 2154 10b1 488D0500 		leaq	.LC19(%rip), %rax
 2154      000000
 2155 10b8 4889C7   		movq	%rax, %rdi
 2156 10bb E8000000 		call	_Z9testShiftPKcjS0_jS0_jS0_
 2156      00
 2157 10c0 4883C410 		addq	$16, %rsp
 158:testSvf2Csvf.cpp **** 		"F1C2E093", 32,
 159:testSvf2Csvf.cpp **** 		"0715", 11,
 160:testSvf2Csvf.cpp **** 		"06", 3,
 161:testSvf2Csvf.cpp **** 		"378E17049F15"
 162:testSvf2Csvf.cpp **** 	);
 163:testSvf2Csvf.cpp **** 	testShift(
 2158              		.loc 3 163 11
 2159 10c4 4883EC08 		subq	$8, %rsp
 2160 10c8 488D0500 		leaq	.LC43(%rip), %rax
 2160      000000
 2161 10cf 50       		pushq	%rax
 2162 10d0 41B90300 		movl	$3, %r9d
 2162      0000
 2163 10d6 4C8D0500 		leaq	.LC17(%rip), %r8
 2163      000000
 2164 10dd B90C0000 		movl	$12, %ecx
 2164      00
 2165 10e2 488D0500 		leaq	.LC42(%rip), %rax
 2165      000000
 2166 10e9 4889C2   		movq	%rax, %rdx
 2167 10ec BE200000 		movl	$32, %esi
 2167      00
 2168 10f1 488D0500 		leaq	.LC19(%rip), %rax
 2168      000000
 2169 10f8 4889C7   		movq	%rax, %rdi
 2170 10fb E8000000 		call	_Z9testShiftPKcjS0_jS0_jS0_
 2170      00
 2171 1100 4883C410 		addq	$16, %rsp
 164:testSvf2Csvf.cpp **** 		"F1C2E093", 32,
 165:testSvf2Csvf.cpp **** 		"0c15", 12,
 166:testSvf2Csvf.cpp **** 		"06", 3,
 167:testSvf2Csvf.cpp **** 		"6F1C2E093C15"
 168:testSvf2Csvf.cpp **** 	);
 169:testSvf2Csvf.cpp **** 	testShift(
 2172              		.loc 3 169 11
 2173 1104 4883EC08 		subq	$8, %rsp
 2174 1108 488D0500 		leaq	.LC45(%rip), %rax
 2174      000000
 2175 110f 50       		pushq	%rax
 2176 1110 41B90300 		movl	$3, %r9d
 2176      0000
 2177 1116 4C8D0500 		leaq	.LC17(%rip), %r8
 2177      000000
 2178 111d B90D0000 		movl	$13, %ecx
 2178      00
 2179 1122 488D0500 		leaq	.LC44(%rip), %rax
 2179      000000
 2180 1129 4889C2   		movq	%rax, %rdx
 2181 112c BE200000 		movl	$32, %esi
 2181      00
 2182 1131 488D0500 		leaq	.LC19(%rip), %rax
 2182      000000
 2183 1138 4889C7   		movq	%rax, %rdi
 2184 113b E8000000 		call	_Z9testShiftPKcjS0_jS0_jS0_
 2184      00
 2185 1140 4883C410 		addq	$16, %rsp
 170:testSvf2Csvf.cpp **** 		"F1C2E093", 32,
 171:testSvf2Csvf.cpp **** 		"1c15", 13,
 172:testSvf2Csvf.cpp **** 		"06", 3,
 173:testSvf2Csvf.cpp **** 		"DE385C127C15"
 174:testSvf2Csvf.cpp **** 	);
 175:testSvf2Csvf.cpp **** 	testShift(
 2186              		.loc 3 175 11
 2187 1144 4883EC08 		subq	$8, %rsp
 2188 1148 488D0500 		leaq	.LC47(%rip), %rax
 2188      000000
 2189 114f 50       		pushq	%rax
 2190 1150 41B90300 		movl	$3, %r9d
 2190      0000
 2191 1156 4C8D0500 		leaq	.LC17(%rip), %r8
 2191      000000
 2192 115d B90E0000 		movl	$14, %ecx
 2192      00
 2193 1162 488D0500 		leaq	.LC46(%rip), %rax
 2193      000000
 2194 1169 4889C2   		movq	%rax, %rdx
 2195 116c BE200000 		movl	$32, %esi
 2195      00
 2196 1171 488D0500 		leaq	.LC19(%rip), %rax
 2196      000000
 2197 1178 4889C7   		movq	%rax, %rdi
 2198 117b E8000000 		call	_Z9testShiftPKcjS0_jS0_jS0_
 2198      00
 2199 1180 4883C410 		addq	$16, %rsp
 176:testSvf2Csvf.cpp **** 		"F1C2E093", 32,
 177:testSvf2Csvf.cpp **** 		"2c15", 14,
 178:testSvf2Csvf.cpp **** 		"06", 3,
 179:testSvf2Csvf.cpp **** 		"01BC70B824EC15"
 180:testSvf2Csvf.cpp **** 	);
 181:testSvf2Csvf.cpp **** 	testShift(
 2200              		.loc 3 181 11
 2201 1184 4883EC08 		subq	$8, %rsp
 2202 1188 488D0500 		leaq	.LC49(%rip), %rax
 2202      000000
 2203 118f 50       		pushq	%rax
 2204 1190 41B90300 		movl	$3, %r9d
 2204      0000
 2205 1196 4C8D0500 		leaq	.LC17(%rip), %r8
 2205      000000
 2206 119d B90F0000 		movl	$15, %ecx
 2206      00
 2207 11a2 488D0500 		leaq	.LC48(%rip), %rax
 2207      000000
 2208 11a9 4889C2   		movq	%rax, %rdx
 2209 11ac BE200000 		movl	$32, %esi
 2209      00
 2210 11b1 488D0500 		leaq	.LC19(%rip), %rax
 2210      000000
 2211 11b8 4889C7   		movq	%rax, %rdi
 2212 11bb E8000000 		call	_Z9testShiftPKcjS0_jS0_jS0_
 2212      00
 2213 11c0 4883C410 		addq	$16, %rsp
 182:testSvf2Csvf.cpp **** 		"F1C2E093", 32,
 183:testSvf2Csvf.cpp **** 		"4015", 15,
 184:testSvf2Csvf.cpp **** 		"06", 3,
 185:testSvf2Csvf.cpp **** 		"0378E17049C015"
 186:testSvf2Csvf.cpp **** 	);
 187:testSvf2Csvf.cpp **** 	testShift(
 2214              		.loc 3 187 11
 2215 11c4 4883EC08 		subq	$8, %rsp
 2216 11c8 488D0500 		leaq	.LC51(%rip), %rax
 2216      000000
 2217 11cf 50       		pushq	%rax
 2218 11d0 41B90300 		movl	$3, %r9d
 2218      0000
 2219 11d6 4C8D0500 		leaq	.LC17(%rip), %r8
 2219      000000
 2220 11dd B9100000 		movl	$16, %ecx
 2220      00
 2221 11e2 488D0500 		leaq	.LC50(%rip), %rax
 2221      000000
 2222 11e9 4889C2   		movq	%rax, %rdx
 2223 11ec BE200000 		movl	$32, %esi
 2223      00
 2224 11f1 488D0500 		leaq	.LC19(%rip), %rax
 2224      000000
 2225 11f8 4889C7   		movq	%rax, %rdi
 2226 11fb E8000000 		call	_Z9testShiftPKcjS0_jS0_jS0_
 2226      00
 2227 1200 4883C410 		addq	$16, %rsp
 188:testSvf2Csvf.cpp **** 		"F1C2E093", 32,
 189:testSvf2Csvf.cpp **** 		"8015", 16,
 190:testSvf2Csvf.cpp **** 		"06", 3,
 191:testSvf2Csvf.cpp **** 		"06F1C2E0938015"
 192:testSvf2Csvf.cpp **** 	);
 193:testSvf2Csvf.cpp **** 	testShift(
 2228              		.loc 3 193 11
 2229 1204 4883EC08 		subq	$8, %rsp
 2230 1208 488D0500 		leaq	.LC53(%rip), %rax
 2230      000000
 2231 120f 50       		pushq	%rax
 2232 1210 41B90300 		movl	$3, %r9d
 2232      0000
 2233 1216 4C8D0500 		leaq	.LC17(%rip), %r8
 2233      000000
 2234 121d B9110000 		movl	$17, %ecx
 2234      00
 2235 1222 488D0500 		leaq	.LC52(%rip), %rax
 2235      000000
 2236 1229 4889C2   		movq	%rax, %rdx
 2237 122c BE200000 		movl	$32, %esi
 2237      00
 2238 1231 488D0500 		leaq	.LC19(%rip), %rax
 2238      000000
 2239 1238 4889C7   		movq	%rax, %rdi
 2240 123b E8000000 		call	_Z9testShiftPKcjS0_jS0_jS0_
 2240      00
 2241 1240 4883C410 		addq	$16, %rsp
 194:testSvf2Csvf.cpp **** 		"F1C2E093", 32,
 195:testSvf2Csvf.cpp **** 		"018015", 17,
 196:testSvf2Csvf.cpp **** 		"06", 3,
 197:testSvf2Csvf.cpp **** 		"0DE385C1278015"
 198:testSvf2Csvf.cpp **** 	);
 199:testSvf2Csvf.cpp **** 	testShift(
 2242              		.loc 3 199 11
 2243 1244 4883EC08 		subq	$8, %rsp
 2244 1248 488D0500 		leaq	.LC54(%rip), %rax
 2244      000000
 2245 124f 50       		pushq	%rax
 2246 1250 41B90400 		movl	$4, %r9d
 2246      0000
 2247 1256 4C8D0500 		leaq	.LC26(%rip), %r8
 2247      000000
 2248 125d B9000000 		movl	$0, %ecx
 2248      00
 2249 1262 488D0500 		leaq	.LC18(%rip), %rax
 2249      000000
 2250 1269 4889C2   		movq	%rax, %rdx
 2251 126c BE200000 		movl	$32, %esi
 2251      00
 2252 1271 488D0500 		leaq	.LC19(%rip), %rax
 2252      000000
 2253 1278 4889C7   		movq	%rax, %rdi
 2254 127b E8000000 		call	_Z9testShiftPKcjS0_jS0_jS0_
 2254      00
 2255 1280 4883C410 		addq	$16, %rsp
 200:testSvf2Csvf.cpp **** 		"F1C2E093", 32,
 201:testSvf2Csvf.cpp **** 		"00", 0,
 202:testSvf2Csvf.cpp **** 		"0A", 4,
 203:testSvf2Csvf.cpp **** 		"0AF1C2E093"
 204:testSvf2Csvf.cpp **** 	);
 205:testSvf2Csvf.cpp **** 	testShift(
 2256              		.loc 3 205 11
 2257 1284 4883EC08 		subq	$8, %rsp
 2258 1288 488D0500 		leaq	.LC55(%rip), %rax
 2258      000000
 2259 128f 50       		pushq	%rax
 2260 1290 41B90400 		movl	$4, %r9d
 2260      0000
 2261 1296 4C8D0500 		leaq	.LC26(%rip), %r8
 2261      000000
 2262 129d B9010000 		movl	$1, %ecx
 2262      00
 2263 12a2 488D0500 		leaq	.LC21(%rip), %rax
 2263      000000
 2264 12a9 4889C2   		movq	%rax, %rdx
 2265 12ac BE200000 		movl	$32, %esi
 2265      00
 2266 12b1 488D0500 		leaq	.LC19(%rip), %rax
 2266      000000
 2267 12b8 4889C7   		movq	%rax, %rdi
 2268 12bb E8000000 		call	_Z9testShiftPKcjS0_jS0_jS0_
 2268      00
 2269 12c0 4883C410 		addq	$16, %rsp
 206:testSvf2Csvf.cpp **** 		"F1C2E093", 32,
 207:testSvf2Csvf.cpp **** 		"01", 1,
 208:testSvf2Csvf.cpp **** 		"0A", 4,
 209:testSvf2Csvf.cpp **** 		"15E385C127"
 210:testSvf2Csvf.cpp **** 	);
 211:testSvf2Csvf.cpp **** 	testShift(
 2270              		.loc 3 211 11
 2271 12c4 4883EC08 		subq	$8, %rsp
 2272 12c8 488D0500 		leaq	.LC56(%rip), %rax
 2272      000000
 2273 12cf 50       		pushq	%rax
 2274 12d0 41B90400 		movl	$4, %r9d
 2274      0000
 2275 12d6 4C8D0500 		leaq	.LC26(%rip), %r8
 2275      000000
 2276 12dd B9020000 		movl	$2, %ecx
 2276      00
 2277 12e2 488D0500 		leaq	.LC23(%rip), %rax
 2277      000000
 2278 12e9 4889C2   		movq	%rax, %rdx
 2279 12ec BE200000 		movl	$32, %esi
 2279      00
 2280 12f1 488D0500 		leaq	.LC19(%rip), %rax
 2280      000000
 2281 12f8 4889C7   		movq	%rax, %rdi
 2282 12fb E8000000 		call	_Z9testShiftPKcjS0_jS0_jS0_
 2282      00
 2283 1300 4883C410 		addq	$16, %rsp
 212:testSvf2Csvf.cpp **** 		"F1C2E093", 32,
 213:testSvf2Csvf.cpp **** 		"02", 2,
 214:testSvf2Csvf.cpp **** 		"0A", 4,
 215:testSvf2Csvf.cpp **** 		"2BC70B824E"
 216:testSvf2Csvf.cpp **** 	);
 217:testSvf2Csvf.cpp **** 	testShift(
 2284              		.loc 3 217 11
 2285 1304 4883EC08 		subq	$8, %rsp
 2286 1308 488D0500 		leaq	.LC57(%rip), %rax
 2286      000000
 2287 130f 50       		pushq	%rax
 2288 1310 41B90400 		movl	$4, %r9d
 2288      0000
 2289 1316 4C8D0500 		leaq	.LC26(%rip), %r8
 2289      000000
 2290 131d B9030000 		movl	$3, %ecx
 2290      00
 2291 1322 488D0500 		leaq	.LC17(%rip), %rax
 2291      000000
 2292 1329 4889C2   		movq	%rax, %rdx
 2293 132c BE200000 		movl	$32, %esi
 2293      00
 2294 1331 488D0500 		leaq	.LC19(%rip), %rax
 2294      000000
 2295 1338 4889C7   		movq	%rax, %rdi
 2296 133b E8000000 		call	_Z9testShiftPKcjS0_jS0_jS0_
 2296      00
 2297 1340 4883C410 		addq	$16, %rsp
 218:testSvf2Csvf.cpp **** 		"F1C2E093", 32,
 219:testSvf2Csvf.cpp **** 		"06", 3,
 220:testSvf2Csvf.cpp **** 		"0A", 4,
 221:testSvf2Csvf.cpp **** 		"578E17049E"
 222:testSvf2Csvf.cpp **** 	);
 223:testSvf2Csvf.cpp **** 	testShift(
 2298              		.loc 3 223 11
 2299 1344 4883EC08 		subq	$8, %rsp
 2300 1348 488D0500 		leaq	.LC58(%rip), %rax
 2300      000000
 2301 134f 50       		pushq	%rax
 2302 1350 41B90400 		movl	$4, %r9d
 2302      0000
 2303 1356 4C8D0500 		leaq	.LC26(%rip), %r8
 2303      000000
 2304 135d B9040000 		movl	$4, %ecx
 2304      00
 2305 1362 488D0500 		leaq	.LC26(%rip), %rax
 2305      000000
 2306 1369 4889C2   		movq	%rax, %rdx
 2307 136c BE200000 		movl	$32, %esi
 2307      00
 2308 1371 488D0500 		leaq	.LC19(%rip), %rax
 2308      000000
 2309 1378 4889C7   		movq	%rax, %rdi
 2310 137b E8000000 		call	_Z9testShiftPKcjS0_jS0_jS0_
 2310      00
 2311 1380 4883C410 		addq	$16, %rsp
 224:testSvf2Csvf.cpp **** 		"F1C2E093", 32,
 225:testSvf2Csvf.cpp **** 		"0A", 4,
 226:testSvf2Csvf.cpp **** 		"0A", 4,
 227:testSvf2Csvf.cpp **** 		"AF1C2E093A"
 228:testSvf2Csvf.cpp **** 	);
 229:testSvf2Csvf.cpp **** 	testShift(
 2312              		.loc 3 229 11
 2313 1384 4883EC08 		subq	$8, %rsp
 2314 1388 488D0500 		leaq	.LC59(%rip), %rax
 2314      000000
 2315 138f 50       		pushq	%rax
 2316 1390 41B90400 		movl	$4, %r9d
 2316      0000
 2317 1396 4C8D0500 		leaq	.LC26(%rip), %r8
 2317      000000
 2318 139d B9050000 		movl	$5, %ecx
 2318      00
 2319 13a2 488D0500 		leaq	.LC28(%rip), %rax
 2319      000000
 2320 13a9 4889C2   		movq	%rax, %rdx
 2321 13ac BE200000 		movl	$32, %esi
 2321      00
 2322 13b1 488D0500 		leaq	.LC19(%rip), %rax
 2322      000000
 2323 13b8 4889C7   		movq	%rax, %rdi
 2324 13bb E8000000 		call	_Z9testShiftPKcjS0_jS0_jS0_
 2324      00
 2325 13c0 4883C410 		addq	$16, %rsp
 230:testSvf2Csvf.cpp **** 		"F1C2E093", 32,
 231:testSvf2Csvf.cpp **** 		"15", 5,
 232:testSvf2Csvf.cpp **** 		"0A", 4,
 233:testSvf2Csvf.cpp **** 		"015E385C1275"
 234:testSvf2Csvf.cpp **** 	);
 235:testSvf2Csvf.cpp **** 	testShift(
 2326              		.loc 3 235 11
 2327 13c4 4883EC08 		subq	$8, %rsp
 2328 13c8 488D0500 		leaq	.LC60(%rip), %rax
 2328      000000
 2329 13cf 50       		pushq	%rax
 2330 13d0 41B90400 		movl	$4, %r9d
 2330      0000
 2331 13d6 4C8D0500 		leaq	.LC26(%rip), %r8
 2331      000000
 2332 13dd B9060000 		movl	$6, %ecx
 2332      00
 2333 13e2 488D0500 		leaq	.LC30(%rip), %rax
 2333      000000
 2334 13e9 4889C2   		movq	%rax, %rdx
 2335 13ec BE200000 		movl	$32, %esi
 2335      00
 2336 13f1 488D0500 		leaq	.LC19(%rip), %rax
 2336      000000
 2337 13f8 4889C7   		movq	%rax, %rdi
 2338 13fb E8000000 		call	_Z9testShiftPKcjS0_jS0_jS0_
 2338      00
 2339 1400 4883C410 		addq	$16, %rsp
 236:testSvf2Csvf.cpp **** 		"F1C2E093", 32,
 237:testSvf2Csvf.cpp **** 		"25", 6,
 238:testSvf2Csvf.cpp **** 		"0A", 4,
 239:testSvf2Csvf.cpp **** 		"02BC70B824E5"
 240:testSvf2Csvf.cpp **** 	);
 241:testSvf2Csvf.cpp **** 	testShift(
 2340              		.loc 3 241 11
 2341 1404 4883EC08 		subq	$8, %rsp
 2342 1408 488D0500 		leaq	.LC61(%rip), %rax
 2342      000000
 2343 140f 50       		pushq	%rax
 2344 1410 41B90400 		movl	$4, %r9d
 2344      0000
 2345 1416 4C8D0500 		leaq	.LC26(%rip), %r8
 2345      000000
 2346 141d B9070000 		movl	$7, %ecx
 2346      00
 2347 1422 488D0500 		leaq	.LC32(%rip), %rax
 2347      000000
 2348 1429 4889C2   		movq	%rax, %rdx
 2349 142c BE200000 		movl	$32, %esi
 2349      00
 2350 1431 488D0500 		leaq	.LC19(%rip), %rax
 2350      000000
 2351 1438 4889C7   		movq	%rax, %rdi
 2352 143b E8000000 		call	_Z9testShiftPKcjS0_jS0_jS0_
 2352      00
 2353 1440 4883C410 		addq	$16, %rsp
 242:testSvf2Csvf.cpp **** 		"F1C2E093", 32,
 243:testSvf2Csvf.cpp **** 		"75", 7,
 244:testSvf2Csvf.cpp **** 		"0A", 4,
 245:testSvf2Csvf.cpp **** 		"0578E17049F5"
 246:testSvf2Csvf.cpp **** 	);
 247:testSvf2Csvf.cpp **** 	testShift(
 2354              		.loc 3 247 11
 2355 1444 4883EC08 		subq	$8, %rsp
 2356 1448 488D0500 		leaq	.LC62(%rip), %rax
 2356      000000
 2357 144f 50       		pushq	%rax
 2358 1450 41B90400 		movl	$4, %r9d
 2358      0000
 2359 1456 4C8D0500 		leaq	.LC26(%rip), %r8
 2359      000000
 2360 145d B9080000 		movl	$8, %ecx
 2360      00
 2361 1462 488D0500 		leaq	.LC34(%rip), %rax
 2361      000000
 2362 1469 4889C2   		movq	%rax, %rdx
 2363 146c BE200000 		movl	$32, %esi
 2363      00
 2364 1471 488D0500 		leaq	.LC19(%rip), %rax
 2364      000000
 2365 1478 4889C7   		movq	%rax, %rdi
 2366 147b E8000000 		call	_Z9testShiftPKcjS0_jS0_jS0_
 2366      00
 2367 1480 4883C410 		addq	$16, %rsp
 248:testSvf2Csvf.cpp **** 		"F1C2E093", 32,
 249:testSvf2Csvf.cpp **** 		"e5", 8,
 250:testSvf2Csvf.cpp **** 		"0A", 4,
 251:testSvf2Csvf.cpp **** 		"0AF1C2E093E5"
 252:testSvf2Csvf.cpp **** 	);
 253:testSvf2Csvf.cpp **** 	testShift(
 2368              		.loc 3 253 11
 2369 1484 4883EC08 		subq	$8, %rsp
 2370 1488 488D0500 		leaq	.LC63(%rip), %rax
 2370      000000
 2371 148f 50       		pushq	%rax
 2372 1490 41B90400 		movl	$4, %r9d
 2372      0000
 2373 1496 4C8D0500 		leaq	.LC26(%rip), %r8
 2373      000000
 2374 149d B9090000 		movl	$9, %ecx
 2374      00
 2375 14a2 488D0500 		leaq	.LC36(%rip), %rax
 2375      000000
 2376 14a9 4889C2   		movq	%rax, %rdx
 2377 14ac BE200000 		movl	$32, %esi
 2377      00
 2378 14b1 488D0500 		leaq	.LC19(%rip), %rax
 2378      000000
 2379 14b8 4889C7   		movq	%rax, %rdi
 2380 14bb E8000000 		call	_Z9testShiftPKcjS0_jS0_jS0_
 2380      00
 2381 14c0 4883C410 		addq	$16, %rsp
 254:testSvf2Csvf.cpp **** 		"F1C2E093", 32,
 255:testSvf2Csvf.cpp **** 		"0115", 9,
 256:testSvf2Csvf.cpp **** 		"0A", 4,
 257:testSvf2Csvf.cpp **** 		"15E385C12715"
 258:testSvf2Csvf.cpp **** 	);
 259:testSvf2Csvf.cpp **** 	testShift(
 2382              		.loc 3 259 11
 2383 14c4 4883EC08 		subq	$8, %rsp
 2384 14c8 488D0500 		leaq	.LC64(%rip), %rax
 2384      000000
 2385 14cf 50       		pushq	%rax
 2386 14d0 41B90400 		movl	$4, %r9d
 2386      0000
 2387 14d6 4C8D0500 		leaq	.LC26(%rip), %r8
 2387      000000
 2388 14dd B90A0000 		movl	$10, %ecx
 2388      00
 2389 14e2 488D0500 		leaq	.LC38(%rip), %rax
 2389      000000
 2390 14e9 4889C2   		movq	%rax, %rdx
 2391 14ec BE200000 		movl	$32, %esi
 2391      00
 2392 14f1 488D0500 		leaq	.LC19(%rip), %rax
 2392      000000
 2393 14f8 4889C7   		movq	%rax, %rdi
 2394 14fb E8000000 		call	_Z9testShiftPKcjS0_jS0_jS0_
 2394      00
 2395 1500 4883C410 		addq	$16, %rsp
 260:testSvf2Csvf.cpp **** 		"F1C2E093", 32,
 261:testSvf2Csvf.cpp **** 		"0315", 10,
 262:testSvf2Csvf.cpp **** 		"0A", 4,
 263:testSvf2Csvf.cpp **** 		"2BC70B824F15"
 264:testSvf2Csvf.cpp **** 	);
 265:testSvf2Csvf.cpp **** 	testShift(
 2396              		.loc 3 265 11
 2397 1504 4883EC08 		subq	$8, %rsp
 2398 1508 488D0500 		leaq	.LC65(%rip), %rax
 2398      000000
 2399 150f 50       		pushq	%rax
 2400 1510 41B90400 		movl	$4, %r9d
 2400      0000
 2401 1516 4C8D0500 		leaq	.LC26(%rip), %r8
 2401      000000
 2402 151d B90B0000 		movl	$11, %ecx
 2402      00
 2403 1522 488D0500 		leaq	.LC40(%rip), %rax
 2403      000000
 2404 1529 4889C2   		movq	%rax, %rdx
 2405 152c BE200000 		movl	$32, %esi
 2405      00
 2406 1531 488D0500 		leaq	.LC19(%rip), %rax
 2406      000000
 2407 1538 4889C7   		movq	%rax, %rdi
 2408 153b E8000000 		call	_Z9testShiftPKcjS0_jS0_jS0_
 2408      00
 2409 1540 4883C410 		addq	$16, %rsp
 266:testSvf2Csvf.cpp **** 		"F1C2E093", 32,
 267:testSvf2Csvf.cpp **** 		"0715", 11,
 268:testSvf2Csvf.cpp **** 		"0A", 4,
 269:testSvf2Csvf.cpp **** 		"578E17049F15"
 270:testSvf2Csvf.cpp **** 	);
 271:testSvf2Csvf.cpp **** 	testShift(
 2410              		.loc 3 271 11
 2411 1544 4883EC08 		subq	$8, %rsp
 2412 1548 488D0500 		leaq	.LC66(%rip), %rax
 2412      000000
 2413 154f 50       		pushq	%rax
 2414 1550 41B90400 		movl	$4, %r9d
 2414      0000
 2415 1556 4C8D0500 		leaq	.LC26(%rip), %r8
 2415      000000
 2416 155d B90C0000 		movl	$12, %ecx
 2416      00
 2417 1562 488D0500 		leaq	.LC42(%rip), %rax
 2417      000000
 2418 1569 4889C2   		movq	%rax, %rdx
 2419 156c BE200000 		movl	$32, %esi
 2419      00
 2420 1571 488D0500 		leaq	.LC19(%rip), %rax
 2420      000000
 2421 1578 4889C7   		movq	%rax, %rdi
 2422 157b E8000000 		call	_Z9testShiftPKcjS0_jS0_jS0_
 2422      00
 2423 1580 4883C410 		addq	$16, %rsp
 272:testSvf2Csvf.cpp **** 		"F1C2E093", 32,
 273:testSvf2Csvf.cpp **** 		"0c15", 12,
 274:testSvf2Csvf.cpp **** 		"0A", 4,
 275:testSvf2Csvf.cpp **** 		"AF1C2E093C15"
 276:testSvf2Csvf.cpp **** 	);
 277:testSvf2Csvf.cpp **** 	testShift(
 2424              		.loc 3 277 11
 2425 1584 4883EC08 		subq	$8, %rsp
 2426 1588 488D0500 		leaq	.LC67(%rip), %rax
 2426      000000
 2427 158f 50       		pushq	%rax
 2428 1590 41B90400 		movl	$4, %r9d
 2428      0000
 2429 1596 4C8D0500 		leaq	.LC26(%rip), %r8
 2429      000000
 2430 159d B90D0000 		movl	$13, %ecx
 2430      00
 2431 15a2 488D0500 		leaq	.LC44(%rip), %rax
 2431      000000
 2432 15a9 4889C2   		movq	%rax, %rdx
 2433 15ac BE200000 		movl	$32, %esi
 2433      00
 2434 15b1 488D0500 		leaq	.LC19(%rip), %rax
 2434      000000
 2435 15b8 4889C7   		movq	%rax, %rdi
 2436 15bb E8000000 		call	_Z9testShiftPKcjS0_jS0_jS0_
 2436      00
 2437 15c0 4883C410 		addq	$16, %rsp
 278:testSvf2Csvf.cpp **** 		"F1C2E093", 32,
 279:testSvf2Csvf.cpp **** 		"1c15", 13,
 280:testSvf2Csvf.cpp **** 		"0A", 4,
 281:testSvf2Csvf.cpp **** 		"015E385C127C15"
 282:testSvf2Csvf.cpp **** 	);
 283:testSvf2Csvf.cpp **** 	testShift(
 2438              		.loc 3 283 11
 2439 15c4 4883EC08 		subq	$8, %rsp
 2440 15c8 488D0500 		leaq	.LC68(%rip), %rax
 2440      000000
 2441 15cf 50       		pushq	%rax
 2442 15d0 41B90400 		movl	$4, %r9d
 2442      0000
 2443 15d6 4C8D0500 		leaq	.LC26(%rip), %r8
 2443      000000
 2444 15dd B90E0000 		movl	$14, %ecx
 2444      00
 2445 15e2 488D0500 		leaq	.LC46(%rip), %rax
 2445      000000
 2446 15e9 4889C2   		movq	%rax, %rdx
 2447 15ec BE200000 		movl	$32, %esi
 2447      00
 2448 15f1 488D0500 		leaq	.LC19(%rip), %rax
 2448      000000
 2449 15f8 4889C7   		movq	%rax, %rdi
 2450 15fb E8000000 		call	_Z9testShiftPKcjS0_jS0_jS0_
 2450      00
 2451 1600 4883C410 		addq	$16, %rsp
 284:testSvf2Csvf.cpp **** 		"F1C2E093", 32,
 285:testSvf2Csvf.cpp **** 		"2c15", 14,
 286:testSvf2Csvf.cpp **** 		"0A", 4,
 287:testSvf2Csvf.cpp **** 		"02BC70B824EC15"
 288:testSvf2Csvf.cpp **** 	);
 289:testSvf2Csvf.cpp **** 	testShift(
 2452              		.loc 3 289 11
 2453 1604 4883EC08 		subq	$8, %rsp
 2454 1608 488D0500 		leaq	.LC69(%rip), %rax
 2454      000000
 2455 160f 50       		pushq	%rax
 2456 1610 41B90400 		movl	$4, %r9d
 2456      0000
 2457 1616 4C8D0500 		leaq	.LC26(%rip), %r8
 2457      000000
 2458 161d B90F0000 		movl	$15, %ecx
 2458      00
 2459 1622 488D0500 		leaq	.LC48(%rip), %rax
 2459      000000
 2460 1629 4889C2   		movq	%rax, %rdx
 2461 162c BE200000 		movl	$32, %esi
 2461      00
 2462 1631 488D0500 		leaq	.LC19(%rip), %rax
 2462      000000
 2463 1638 4889C7   		movq	%rax, %rdi
 2464 163b E8000000 		call	_Z9testShiftPKcjS0_jS0_jS0_
 2464      00
 2465 1640 4883C410 		addq	$16, %rsp
 290:testSvf2Csvf.cpp **** 		"F1C2E093", 32,
 291:testSvf2Csvf.cpp **** 		"4015", 15,
 292:testSvf2Csvf.cpp **** 		"0A", 4,
 293:testSvf2Csvf.cpp **** 		"0578E17049C015"
 294:testSvf2Csvf.cpp **** 	);
 295:testSvf2Csvf.cpp **** 	testShift(
 2466              		.loc 3 295 11
 2467 1644 4883EC08 		subq	$8, %rsp
 2468 1648 488D0500 		leaq	.LC70(%rip), %rax
 2468      000000
 2469 164f 50       		pushq	%rax
 2470 1650 41B90400 		movl	$4, %r9d
 2470      0000
 2471 1656 4C8D0500 		leaq	.LC26(%rip), %r8
 2471      000000
 2472 165d B9100000 		movl	$16, %ecx
 2472      00
 2473 1662 488D0500 		leaq	.LC50(%rip), %rax
 2473      000000
 2474 1669 4889C2   		movq	%rax, %rdx
 2475 166c BE200000 		movl	$32, %esi
 2475      00
 2476 1671 488D0500 		leaq	.LC19(%rip), %rax
 2476      000000
 2477 1678 4889C7   		movq	%rax, %rdi
 2478 167b E8000000 		call	_Z9testShiftPKcjS0_jS0_jS0_
 2478      00
 2479 1680 4883C410 		addq	$16, %rsp
 296:testSvf2Csvf.cpp **** 		"F1C2E093", 32,
 297:testSvf2Csvf.cpp **** 		"8015", 16,
 298:testSvf2Csvf.cpp **** 		"0A", 4,
 299:testSvf2Csvf.cpp **** 		"0AF1C2E0938015"
 300:testSvf2Csvf.cpp **** 	);
 301:testSvf2Csvf.cpp **** 	testShift(
 2480              		.loc 3 301 11
 2481 1684 4883EC08 		subq	$8, %rsp
 2482 1688 488D0500 		leaq	.LC71(%rip), %rax
 2482      000000
 2483 168f 50       		pushq	%rax
 2484 1690 41B90400 		movl	$4, %r9d
 2484      0000
 2485 1696 4C8D0500 		leaq	.LC26(%rip), %r8
 2485      000000
 2486 169d B9110000 		movl	$17, %ecx
 2486      00
 2487 16a2 488D0500 		leaq	.LC52(%rip), %rax
 2487      000000
 2488 16a9 4889C2   		movq	%rax, %rdx
 2489 16ac BE200000 		movl	$32, %esi
 2489      00
 2490 16b1 488D0500 		leaq	.LC19(%rip), %rax
 2490      000000
 2491 16b8 4889C7   		movq	%rax, %rdi
 2492 16bb E8000000 		call	_Z9testShiftPKcjS0_jS0_jS0_
 2492      00
 2493 16c0 4883C410 		addq	$16, %rsp
 302:testSvf2Csvf.cpp **** 		"F1C2E093", 32,
 303:testSvf2Csvf.cpp **** 		"018015", 17,
 304:testSvf2Csvf.cpp **** 		"0A", 4,
 305:testSvf2Csvf.cpp **** 		"15E385C1278015"
 306:testSvf2Csvf.cpp **** 	);
 307:testSvf2Csvf.cpp **** 	testShift(
 2494              		.loc 3 307 11
 2495 16c4 4883EC08 		subq	$8, %rsp
 2496 16c8 488D0500 		leaq	.LC73(%rip), %rax
 2496      000000
 2497 16cf 50       		pushq	%rax
 2498 16d0 41B90900 		movl	$9, %r9d
 2498      0000
 2499 16d6 4C8D0500 		leaq	.LC72(%rip), %r8
 2499      000000
 2500 16dd B9000000 		movl	$0, %ecx
 2500      00
 2501 16e2 488D0500 		leaq	.LC18(%rip), %rax
 2501      000000
 2502 16e9 4889C2   		movq	%rax, %rdx
 2503 16ec BE200000 		movl	$32, %esi
 2503      00
 2504 16f1 488D0500 		leaq	.LC19(%rip), %rax
 2504      000000
 2505 16f8 4889C7   		movq	%rax, %rdi
 2506 16fb E8000000 		call	_Z9testShiftPKcjS0_jS0_jS0_
 2506      00
 2507 1700 4883C410 		addq	$16, %rsp
 308:testSvf2Csvf.cpp **** 		"F1C2E093", 32,
 309:testSvf2Csvf.cpp **** 		"00", 0,
 310:testSvf2Csvf.cpp **** 		"0135", 9,
 311:testSvf2Csvf.cpp **** 		"0135F1C2E093"
 312:testSvf2Csvf.cpp **** 	);
 313:testSvf2Csvf.cpp **** 	testShift(
 2508              		.loc 3 313 11
 2509 1704 4883EC08 		subq	$8, %rsp
 2510 1708 488D0500 		leaq	.LC74(%rip), %rax
 2510      000000
 2511 170f 50       		pushq	%rax
 2512 1710 41B90900 		movl	$9, %r9d
 2512      0000
 2513 1716 4C8D0500 		leaq	.LC72(%rip), %r8
 2513      000000
 2514 171d B9010000 		movl	$1, %ecx
 2514      00
 2515 1722 488D0500 		leaq	.LC21(%rip), %rax
 2515      000000
 2516 1729 4889C2   		movq	%rax, %rdx
 2517 172c BE200000 		movl	$32, %esi
 2517      00
 2518 1731 488D0500 		leaq	.LC19(%rip), %rax
 2518      000000
 2519 1738 4889C7   		movq	%rax, %rdi
 2520 173b E8000000 		call	_Z9testShiftPKcjS0_jS0_jS0_
 2520      00
 2521 1740 4883C410 		addq	$16, %rsp
 314:testSvf2Csvf.cpp **** 		"F1C2E093", 32,
 315:testSvf2Csvf.cpp **** 		"01", 1,
 316:testSvf2Csvf.cpp **** 		"0135", 9,
 317:testSvf2Csvf.cpp **** 		"026BE385C127"
 318:testSvf2Csvf.cpp **** 	);
 319:testSvf2Csvf.cpp **** 	testShift(
 2522              		.loc 3 319 11
 2523 1744 4883EC08 		subq	$8, %rsp
 2524 1748 488D0500 		leaq	.LC75(%rip), %rax
 2524      000000
 2525 174f 50       		pushq	%rax
 2526 1750 41B90900 		movl	$9, %r9d
 2526      0000
 2527 1756 4C8D0500 		leaq	.LC72(%rip), %r8
 2527      000000
 2528 175d B9020000 		movl	$2, %ecx
 2528      00
 2529 1762 488D0500 		leaq	.LC23(%rip), %rax
 2529      000000
 2530 1769 4889C2   		movq	%rax, %rdx
 2531 176c BE200000 		movl	$32, %esi
 2531      00
 2532 1771 488D0500 		leaq	.LC19(%rip), %rax
 2532      000000
 2533 1778 4889C7   		movq	%rax, %rdi
 2534 177b E8000000 		call	_Z9testShiftPKcjS0_jS0_jS0_
 2534      00
 2535 1780 4883C410 		addq	$16, %rsp
 320:testSvf2Csvf.cpp **** 		"F1C2E093", 32,
 321:testSvf2Csvf.cpp **** 		"02", 2,
 322:testSvf2Csvf.cpp **** 		"0135", 9,
 323:testSvf2Csvf.cpp **** 		"04D7C70B824E"
 324:testSvf2Csvf.cpp **** 	);
 325:testSvf2Csvf.cpp **** 	testShift(
 2536              		.loc 3 325 11
 2537 1784 4883EC08 		subq	$8, %rsp
 2538 1788 488D0500 		leaq	.LC76(%rip), %rax
 2538      000000
 2539 178f 50       		pushq	%rax
 2540 1790 41B90900 		movl	$9, %r9d
 2540      0000
 2541 1796 4C8D0500 		leaq	.LC72(%rip), %r8
 2541      000000
 2542 179d B9030000 		movl	$3, %ecx
 2542      00
 2543 17a2 488D0500 		leaq	.LC17(%rip), %rax
 2543      000000
 2544 17a9 4889C2   		movq	%rax, %rdx
 2545 17ac BE200000 		movl	$32, %esi
 2545      00
 2546 17b1 488D0500 		leaq	.LC19(%rip), %rax
 2546      000000
 2547 17b8 4889C7   		movq	%rax, %rdi
 2548 17bb E8000000 		call	_Z9testShiftPKcjS0_jS0_jS0_
 2548      00
 2549 17c0 4883C410 		addq	$16, %rsp
 326:testSvf2Csvf.cpp **** 		"F1C2E093", 32,
 327:testSvf2Csvf.cpp **** 		"06", 3,
 328:testSvf2Csvf.cpp **** 		"0135", 9,
 329:testSvf2Csvf.cpp **** 		"09AF8E17049E"
 330:testSvf2Csvf.cpp **** 	);
 331:testSvf2Csvf.cpp **** 	testShift(
 2550              		.loc 3 331 11
 2551 17c4 4883EC08 		subq	$8, %rsp
 2552 17c8 488D0500 		leaq	.LC77(%rip), %rax
 2552      000000
 2553 17cf 50       		pushq	%rax
 2554 17d0 41B90900 		movl	$9, %r9d
 2554      0000
 2555 17d6 4C8D0500 		leaq	.LC72(%rip), %r8
 2555      000000
 2556 17dd B9040000 		movl	$4, %ecx
 2556      00
 2557 17e2 488D0500 		leaq	.LC26(%rip), %rax
 2557      000000
 2558 17e9 4889C2   		movq	%rax, %rdx
 2559 17ec BE200000 		movl	$32, %esi
 2559      00
 2560 17f1 488D0500 		leaq	.LC19(%rip), %rax
 2560      000000
 2561 17f8 4889C7   		movq	%rax, %rdi
 2562 17fb E8000000 		call	_Z9testShiftPKcjS0_jS0_jS0_
 2562      00
 2563 1800 4883C410 		addq	$16, %rsp
 332:testSvf2Csvf.cpp **** 		"F1C2E093", 32,
 333:testSvf2Csvf.cpp **** 		"0A", 4,
 334:testSvf2Csvf.cpp **** 		"0135", 9,
 335:testSvf2Csvf.cpp **** 		"135F1C2E093A"
 336:testSvf2Csvf.cpp **** 	);
 337:testSvf2Csvf.cpp **** 	testShift(
 2564              		.loc 3 337 11
 2565 1804 4883EC08 		subq	$8, %rsp
 2566 1808 488D0500 		leaq	.LC78(%rip), %rax
 2566      000000
 2567 180f 50       		pushq	%rax
 2568 1810 41B90900 		movl	$9, %r9d
 2568      0000
 2569 1816 4C8D0500 		leaq	.LC72(%rip), %r8
 2569      000000
 2570 181d B9050000 		movl	$5, %ecx
 2570      00
 2571 1822 488D0500 		leaq	.LC28(%rip), %rax
 2571      000000
 2572 1829 4889C2   		movq	%rax, %rdx
 2573 182c BE200000 		movl	$32, %esi
 2573      00
 2574 1831 488D0500 		leaq	.LC19(%rip), %rax
 2574      000000
 2575 1838 4889C7   		movq	%rax, %rdi
 2576 183b E8000000 		call	_Z9testShiftPKcjS0_jS0_jS0_
 2576      00
 2577 1840 4883C410 		addq	$16, %rsp
 338:testSvf2Csvf.cpp **** 		"F1C2E093", 32,
 339:testSvf2Csvf.cpp **** 		"15", 5,
 340:testSvf2Csvf.cpp **** 		"0135", 9,
 341:testSvf2Csvf.cpp **** 		"26BE385C1275"
 342:testSvf2Csvf.cpp **** 	);
 343:testSvf2Csvf.cpp **** 	testShift(
 2578              		.loc 3 343 11
 2579 1844 4883EC08 		subq	$8, %rsp
 2580 1848 488D0500 		leaq	.LC79(%rip), %rax
 2580      000000
 2581 184f 50       		pushq	%rax
 2582 1850 41B90900 		movl	$9, %r9d
 2582      0000
 2583 1856 4C8D0500 		leaq	.LC72(%rip), %r8
 2583      000000
 2584 185d B9060000 		movl	$6, %ecx
 2584      00
 2585 1862 488D0500 		leaq	.LC30(%rip), %rax
 2585      000000
 2586 1869 4889C2   		movq	%rax, %rdx
 2587 186c BE200000 		movl	$32, %esi
 2587      00
 2588 1871 488D0500 		leaq	.LC19(%rip), %rax
 2588      000000
 2589 1878 4889C7   		movq	%rax, %rdi
 2590 187b E8000000 		call	_Z9testShiftPKcjS0_jS0_jS0_
 2590      00
 2591 1880 4883C410 		addq	$16, %rsp
 344:testSvf2Csvf.cpp **** 		"F1C2E093", 32,
 345:testSvf2Csvf.cpp **** 		"25", 6,
 346:testSvf2Csvf.cpp **** 		"0135", 9,
 347:testSvf2Csvf.cpp **** 		"4D7C70B824E5"
 348:testSvf2Csvf.cpp **** 	);
 349:testSvf2Csvf.cpp **** 	testShift(
 2592              		.loc 3 349 11
 2593 1884 4883EC08 		subq	$8, %rsp
 2594 1888 488D0500 		leaq	.LC80(%rip), %rax
 2594      000000
 2595 188f 50       		pushq	%rax
 2596 1890 41B90900 		movl	$9, %r9d
 2596      0000
 2597 1896 4C8D0500 		leaq	.LC72(%rip), %r8
 2597      000000
 2598 189d B9070000 		movl	$7, %ecx
 2598      00
 2599 18a2 488D0500 		leaq	.LC32(%rip), %rax
 2599      000000
 2600 18a9 4889C2   		movq	%rax, %rdx
 2601 18ac BE200000 		movl	$32, %esi
 2601      00
 2602 18b1 488D0500 		leaq	.LC19(%rip), %rax
 2602      000000
 2603 18b8 4889C7   		movq	%rax, %rdi
 2604 18bb E8000000 		call	_Z9testShiftPKcjS0_jS0_jS0_
 2604      00
 2605 18c0 4883C410 		addq	$16, %rsp
 350:testSvf2Csvf.cpp **** 		"F1C2E093", 32,
 351:testSvf2Csvf.cpp **** 		"75", 7,
 352:testSvf2Csvf.cpp **** 		"0135", 9,
 353:testSvf2Csvf.cpp **** 		"9AF8E17049F5"
 354:testSvf2Csvf.cpp **** 	);
 355:testSvf2Csvf.cpp **** 	testShift(
 2606              		.loc 3 355 11
 2607 18c4 4883EC08 		subq	$8, %rsp
 2608 18c8 488D0500 		leaq	.LC81(%rip), %rax
 2608      000000
 2609 18cf 50       		pushq	%rax
 2610 18d0 41B90900 		movl	$9, %r9d
 2610      0000
 2611 18d6 4C8D0500 		leaq	.LC72(%rip), %r8
 2611      000000
 2612 18dd B9080000 		movl	$8, %ecx
 2612      00
 2613 18e2 488D0500 		leaq	.LC34(%rip), %rax
 2613      000000
 2614 18e9 4889C2   		movq	%rax, %rdx
 2615 18ec BE200000 		movl	$32, %esi
 2615      00
 2616 18f1 488D0500 		leaq	.LC19(%rip), %rax
 2616      000000
 2617 18f8 4889C7   		movq	%rax, %rdi
 2618 18fb E8000000 		call	_Z9testShiftPKcjS0_jS0_jS0_
 2618      00
 2619 1900 4883C410 		addq	$16, %rsp
 356:testSvf2Csvf.cpp **** 		"F1C2E093", 32,
 357:testSvf2Csvf.cpp **** 		"e5", 8,
 358:testSvf2Csvf.cpp **** 		"0135", 9,
 359:testSvf2Csvf.cpp **** 		"0135F1C2E093E5"
 360:testSvf2Csvf.cpp **** 	);
 361:testSvf2Csvf.cpp **** 	testShift(
 2620              		.loc 3 361 11
 2621 1904 4883EC08 		subq	$8, %rsp
 2622 1908 488D0500 		leaq	.LC82(%rip), %rax
 2622      000000
 2623 190f 50       		pushq	%rax
 2624 1910 41B90900 		movl	$9, %r9d
 2624      0000
 2625 1916 4C8D0500 		leaq	.LC72(%rip), %r8
 2625      000000
 2626 191d B9090000 		movl	$9, %ecx
 2626      00
 2627 1922 488D0500 		leaq	.LC36(%rip), %rax
 2627      000000
 2628 1929 4889C2   		movq	%rax, %rdx
 2629 192c BE200000 		movl	$32, %esi
 2629      00
 2630 1931 488D0500 		leaq	.LC19(%rip), %rax
 2630      000000
 2631 1938 4889C7   		movq	%rax, %rdi
 2632 193b E8000000 		call	_Z9testShiftPKcjS0_jS0_jS0_
 2632      00
 2633 1940 4883C410 		addq	$16, %rsp
 362:testSvf2Csvf.cpp **** 		"F1C2E093", 32,
 363:testSvf2Csvf.cpp **** 		"0115", 9,
 364:testSvf2Csvf.cpp **** 		"0135", 9,
 365:testSvf2Csvf.cpp **** 		"026BE385C12715"
 366:testSvf2Csvf.cpp **** 	);
 367:testSvf2Csvf.cpp **** 	testShift(
 2634              		.loc 3 367 11
 2635 1944 4883EC08 		subq	$8, %rsp
 2636 1948 488D0500 		leaq	.LC83(%rip), %rax
 2636      000000
 2637 194f 50       		pushq	%rax
 2638 1950 41B90900 		movl	$9, %r9d
 2638      0000
 2639 1956 4C8D0500 		leaq	.LC72(%rip), %r8
 2639      000000
 2640 195d B90A0000 		movl	$10, %ecx
 2640      00
 2641 1962 488D0500 		leaq	.LC38(%rip), %rax
 2641      000000
 2642 1969 4889C2   		movq	%rax, %rdx
 2643 196c BE200000 		movl	$32, %esi
 2643      00
 2644 1971 488D0500 		leaq	.LC19(%rip), %rax
 2644      000000
 2645 1978 4889C7   		movq	%rax, %rdi
 2646 197b E8000000 		call	_Z9testShiftPKcjS0_jS0_jS0_
 2646      00
 2647 1980 4883C410 		addq	$16, %rsp
 368:testSvf2Csvf.cpp **** 		"F1C2E093", 32,
 369:testSvf2Csvf.cpp **** 		"0315", 10,
 370:testSvf2Csvf.cpp **** 		"0135", 9,
 371:testSvf2Csvf.cpp **** 		"04D7C70B824F15"
 372:testSvf2Csvf.cpp **** 	);
 373:testSvf2Csvf.cpp **** 	testShift(
 2648              		.loc 3 373 11
 2649 1984 4883EC08 		subq	$8, %rsp
 2650 1988 488D0500 		leaq	.LC84(%rip), %rax
 2650      000000
 2651 198f 50       		pushq	%rax
 2652 1990 41B90900 		movl	$9, %r9d
 2652      0000
 2653 1996 4C8D0500 		leaq	.LC72(%rip), %r8
 2653      000000
 2654 199d B90B0000 		movl	$11, %ecx
 2654      00
 2655 19a2 488D0500 		leaq	.LC40(%rip), %rax
 2655      000000
 2656 19a9 4889C2   		movq	%rax, %rdx
 2657 19ac BE200000 		movl	$32, %esi
 2657      00
 2658 19b1 488D0500 		leaq	.LC19(%rip), %rax
 2658      000000
 2659 19b8 4889C7   		movq	%rax, %rdi
 2660 19bb E8000000 		call	_Z9testShiftPKcjS0_jS0_jS0_
 2660      00
 2661 19c0 4883C410 		addq	$16, %rsp
 374:testSvf2Csvf.cpp **** 		"F1C2E093", 32,
 375:testSvf2Csvf.cpp **** 		"0715", 11,
 376:testSvf2Csvf.cpp **** 		"0135", 9,
 377:testSvf2Csvf.cpp **** 		"09AF8E17049F15"
 378:testSvf2Csvf.cpp **** 	);
 379:testSvf2Csvf.cpp **** 	testShift(
 2662              		.loc 3 379 11
 2663 19c4 4883EC08 		subq	$8, %rsp
 2664 19c8 488D0500 		leaq	.LC85(%rip), %rax
 2664      000000
 2665 19cf 50       		pushq	%rax
 2666 19d0 41B90900 		movl	$9, %r9d
 2666      0000
 2667 19d6 4C8D0500 		leaq	.LC72(%rip), %r8
 2667      000000
 2668 19dd B90C0000 		movl	$12, %ecx
 2668      00
 2669 19e2 488D0500 		leaq	.LC42(%rip), %rax
 2669      000000
 2670 19e9 4889C2   		movq	%rax, %rdx
 2671 19ec BE200000 		movl	$32, %esi
 2671      00
 2672 19f1 488D0500 		leaq	.LC19(%rip), %rax
 2672      000000
 2673 19f8 4889C7   		movq	%rax, %rdi
 2674 19fb E8000000 		call	_Z9testShiftPKcjS0_jS0_jS0_
 2674      00
 2675 1a00 4883C410 		addq	$16, %rsp
 380:testSvf2Csvf.cpp **** 		"F1C2E093", 32,
 381:testSvf2Csvf.cpp **** 		"0c15", 12,
 382:testSvf2Csvf.cpp **** 		"0135", 9,
 383:testSvf2Csvf.cpp **** 		"135F1C2E093C15"
 384:testSvf2Csvf.cpp **** 	);
 385:testSvf2Csvf.cpp **** 	testShift(
 2676              		.loc 3 385 11
 2677 1a04 4883EC08 		subq	$8, %rsp
 2678 1a08 488D0500 		leaq	.LC86(%rip), %rax
 2678      000000
 2679 1a0f 50       		pushq	%rax
 2680 1a10 41B90900 		movl	$9, %r9d
 2680      0000
 2681 1a16 4C8D0500 		leaq	.LC72(%rip), %r8
 2681      000000
 2682 1a1d B90D0000 		movl	$13, %ecx
 2682      00
 2683 1a22 488D0500 		leaq	.LC44(%rip), %rax
 2683      000000
 2684 1a29 4889C2   		movq	%rax, %rdx
 2685 1a2c BE200000 		movl	$32, %esi
 2685      00
 2686 1a31 488D0500 		leaq	.LC19(%rip), %rax
 2686      000000
 2687 1a38 4889C7   		movq	%rax, %rdi
 2688 1a3b E8000000 		call	_Z9testShiftPKcjS0_jS0_jS0_
 2688      00
 2689 1a40 4883C410 		addq	$16, %rsp
 386:testSvf2Csvf.cpp **** 		"F1C2E093", 32,
 387:testSvf2Csvf.cpp **** 		"1c15", 13,
 388:testSvf2Csvf.cpp **** 		"0135", 9,
 389:testSvf2Csvf.cpp **** 		"26BE385C127C15"
 390:testSvf2Csvf.cpp **** 	);
 391:testSvf2Csvf.cpp **** 	testShift(
 2690              		.loc 3 391 11
 2691 1a44 4883EC08 		subq	$8, %rsp
 2692 1a48 488D0500 		leaq	.LC87(%rip), %rax
 2692      000000
 2693 1a4f 50       		pushq	%rax
 2694 1a50 41B90900 		movl	$9, %r9d
 2694      0000
 2695 1a56 4C8D0500 		leaq	.LC72(%rip), %r8
 2695      000000
 2696 1a5d B90E0000 		movl	$14, %ecx
 2696      00
 2697 1a62 488D0500 		leaq	.LC46(%rip), %rax
 2697      000000
 2698 1a69 4889C2   		movq	%rax, %rdx
 2699 1a6c BE200000 		movl	$32, %esi
 2699      00
 2700 1a71 488D0500 		leaq	.LC19(%rip), %rax
 2700      000000
 2701 1a78 4889C7   		movq	%rax, %rdi
 2702 1a7b E8000000 		call	_Z9testShiftPKcjS0_jS0_jS0_
 2702      00
 2703 1a80 4883C410 		addq	$16, %rsp
 392:testSvf2Csvf.cpp **** 		"F1C2E093", 32,
 393:testSvf2Csvf.cpp **** 		"2c15", 14,
 394:testSvf2Csvf.cpp **** 		"0135", 9,
 395:testSvf2Csvf.cpp **** 		"4D7C70B824EC15"
 396:testSvf2Csvf.cpp **** 	);
 397:testSvf2Csvf.cpp **** 	testShift(
 2704              		.loc 3 397 11
 2705 1a84 4883EC08 		subq	$8, %rsp
 2706 1a88 488D0500 		leaq	.LC88(%rip), %rax
 2706      000000
 2707 1a8f 50       		pushq	%rax
 2708 1a90 41B90900 		movl	$9, %r9d
 2708      0000
 2709 1a96 4C8D0500 		leaq	.LC72(%rip), %r8
 2709      000000
 2710 1a9d B90F0000 		movl	$15, %ecx
 2710      00
 2711 1aa2 488D0500 		leaq	.LC48(%rip), %rax
 2711      000000
 2712 1aa9 4889C2   		movq	%rax, %rdx
 2713 1aac BE200000 		movl	$32, %esi
 2713      00
 2714 1ab1 488D0500 		leaq	.LC19(%rip), %rax
 2714      000000
 2715 1ab8 4889C7   		movq	%rax, %rdi
 2716 1abb E8000000 		call	_Z9testShiftPKcjS0_jS0_jS0_
 2716      00
 2717 1ac0 4883C410 		addq	$16, %rsp
 398:testSvf2Csvf.cpp **** 		"F1C2E093", 32,
 399:testSvf2Csvf.cpp **** 		"4015", 15,
 400:testSvf2Csvf.cpp **** 		"0135", 9,
 401:testSvf2Csvf.cpp **** 		"9AF8E17049C015"
 402:testSvf2Csvf.cpp **** 	);
 403:testSvf2Csvf.cpp **** 	testShift(
 2718              		.loc 3 403 11
 2719 1ac4 4883EC08 		subq	$8, %rsp
 2720 1ac8 488D0500 		leaq	.LC89(%rip), %rax
 2720      000000
 2721 1acf 50       		pushq	%rax
 2722 1ad0 41B90900 		movl	$9, %r9d
 2722      0000
 2723 1ad6 4C8D0500 		leaq	.LC72(%rip), %r8
 2723      000000
 2724 1add B9100000 		movl	$16, %ecx
 2724      00
 2725 1ae2 488D0500 		leaq	.LC50(%rip), %rax
 2725      000000
 2726 1ae9 4889C2   		movq	%rax, %rdx
 2727 1aec BE200000 		movl	$32, %esi
 2727      00
 2728 1af1 488D0500 		leaq	.LC19(%rip), %rax
 2728      000000
 2729 1af8 4889C7   		movq	%rax, %rdi
 2730 1afb E8000000 		call	_Z9testShiftPKcjS0_jS0_jS0_
 2730      00
 2731 1b00 4883C410 		addq	$16, %rsp
 404:testSvf2Csvf.cpp **** 		"F1C2E093", 32,
 405:testSvf2Csvf.cpp **** 		"8015", 16,
 406:testSvf2Csvf.cpp **** 		"0135", 9,
 407:testSvf2Csvf.cpp **** 		"0135F1C2E0938015"
 408:testSvf2Csvf.cpp **** 	);
 409:testSvf2Csvf.cpp **** 	testShift(
 2732              		.loc 3 409 11
 2733 1b04 4883EC08 		subq	$8, %rsp
 2734 1b08 488D0500 		leaq	.LC90(%rip), %rax
 2734      000000
 2735 1b0f 50       		pushq	%rax
 2736 1b10 41B90900 		movl	$9, %r9d
 2736      0000
 2737 1b16 4C8D0500 		leaq	.LC72(%rip), %r8
 2737      000000
 2738 1b1d B9110000 		movl	$17, %ecx
 2738      00
 2739 1b22 488D0500 		leaq	.LC52(%rip), %rax
 2739      000000
 2740 1b29 4889C2   		movq	%rax, %rdx
 2741 1b2c BE200000 		movl	$32, %esi
 2741      00
 2742 1b31 488D0500 		leaq	.LC19(%rip), %rax
 2742      000000
 2743 1b38 4889C7   		movq	%rax, %rdi
 2744 1b3b E8000000 		call	_Z9testShiftPKcjS0_jS0_jS0_
 2744      00
 2745 1b40 4883C410 		addq	$16, %rsp
 410:testSvf2Csvf.cpp **** 		"F1C2E093", 32,
 411:testSvf2Csvf.cpp **** 		"018015", 17,
 412:testSvf2Csvf.cpp **** 		"0135", 9,
 413:testSvf2Csvf.cpp **** 		"026BE385C1278015"
 414:testSvf2Csvf.cpp **** 	);
 415:testSvf2Csvf.cpp **** 	testShift(
 2746              		.loc 3 415 11
 2747 1b44 4883EC08 		subq	$8, %rsp
 2748 1b48 488D0500 		leaq	.LC92(%rip), %rax
 2748      000000
 2749 1b4f 50       		pushq	%rax
 2750 1b50 41B90900 		movl	$9, %r9d
 2750      0000
 2751 1b56 4C8D0500 		leaq	.LC72(%rip), %r8
 2751      000000
 2752 1b5d B9000000 		movl	$0, %ecx
 2752      00
 2753 1b62 488D0500 		leaq	.LC18(%rip), %rax
 2753      000000
 2754 1b69 4889C2   		movq	%rax, %rdx
 2755 1b6c BE1F0000 		movl	$31, %esi
 2755      00
 2756 1b71 488D0500 		leaq	.LC91(%rip), %rax
 2756      000000
 2757 1b78 4889C7   		movq	%rax, %rdi
 2758 1b7b E8000000 		call	_Z9testShiftPKcjS0_jS0_jS0_
 2758      00
 2759 1b80 4883C410 		addq	$16, %rsp
 416:testSvf2Csvf.cpp **** 		"71C2E093", 31,
 417:testSvf2Csvf.cpp **** 		"00", 0,
 418:testSvf2Csvf.cpp **** 		"0135", 9,
 419:testSvf2Csvf.cpp **** 		"9AF1C2E093"
 420:testSvf2Csvf.cpp **** 	);
 421:testSvf2Csvf.cpp **** 	testShift(
 2760              		.loc 3 421 11
 2761 1b84 4883EC08 		subq	$8, %rsp
 2762 1b88 488D0500 		leaq	.LC93(%rip), %rax
 2762      000000
 2763 1b8f 50       		pushq	%rax
 2764 1b90 41B90900 		movl	$9, %r9d
 2764      0000
 2765 1b96 4C8D0500 		leaq	.LC72(%rip), %r8
 2765      000000
 2766 1b9d B9010000 		movl	$1, %ecx
 2766      00
 2767 1ba2 488D0500 		leaq	.LC21(%rip), %rax
 2767      000000
 2768 1ba9 4889C2   		movq	%rax, %rdx
 2769 1bac BE1F0000 		movl	$31, %esi
 2769      00
 2770 1bb1 488D0500 		leaq	.LC91(%rip), %rax
 2770      000000
 2771 1bb8 4889C7   		movq	%rax, %rdi
 2772 1bbb E8000000 		call	_Z9testShiftPKcjS0_jS0_jS0_
 2772      00
 2773 1bc0 4883C410 		addq	$16, %rsp
 422:testSvf2Csvf.cpp **** 		"71C2E093", 31,
 423:testSvf2Csvf.cpp **** 		"01", 1,
 424:testSvf2Csvf.cpp **** 		"0135", 9,
 425:testSvf2Csvf.cpp **** 		"0135E385C127"
 426:testSvf2Csvf.cpp **** 	);
 427:testSvf2Csvf.cpp **** 	testShift(
 2774              		.loc 3 427 11
 2775 1bc4 4883EC08 		subq	$8, %rsp
 2776 1bc8 488D0500 		leaq	.LC94(%rip), %rax
 2776      000000
 2777 1bcf 50       		pushq	%rax
 2778 1bd0 41B90900 		movl	$9, %r9d
 2778      0000
 2779 1bd6 4C8D0500 		leaq	.LC72(%rip), %r8
 2779      000000
 2780 1bdd B9020000 		movl	$2, %ecx
 2780      00
 2781 1be2 488D0500 		leaq	.LC23(%rip), %rax
 2781      000000
 2782 1be9 4889C2   		movq	%rax, %rdx
 2783 1bec BE1F0000 		movl	$31, %esi
 2783      00
 2784 1bf1 488D0500 		leaq	.LC91(%rip), %rax
 2784      000000
 2785 1bf8 4889C7   		movq	%rax, %rdi
 2786 1bfb E8000000 		call	_Z9testShiftPKcjS0_jS0_jS0_
 2786      00
 2787 1c00 4883C410 		addq	$16, %rsp
 428:testSvf2Csvf.cpp **** 		"71C2E093", 31,
 429:testSvf2Csvf.cpp **** 		"02", 2,
 430:testSvf2Csvf.cpp **** 		"0135", 9,
 431:testSvf2Csvf.cpp **** 		"026BC70B824E"
 432:testSvf2Csvf.cpp **** 	);
 433:testSvf2Csvf.cpp **** 	testShift(
 2788              		.loc 3 433 11
 2789 1c04 4883EC08 		subq	$8, %rsp
 2790 1c08 488D0500 		leaq	.LC95(%rip), %rax
 2790      000000
 2791 1c0f 50       		pushq	%rax
 2792 1c10 41B90900 		movl	$9, %r9d
 2792      0000
 2793 1c16 4C8D0500 		leaq	.LC72(%rip), %r8
 2793      000000
 2794 1c1d B9030000 		movl	$3, %ecx
 2794      00
 2795 1c22 488D0500 		leaq	.LC17(%rip), %rax
 2795      000000
 2796 1c29 4889C2   		movq	%rax, %rdx
 2797 1c2c BE1F0000 		movl	$31, %esi
 2797      00
 2798 1c31 488D0500 		leaq	.LC91(%rip), %rax
 2798      000000
 2799 1c38 4889C7   		movq	%rax, %rdi
 2800 1c3b E8000000 		call	_Z9testShiftPKcjS0_jS0_jS0_
 2800      00
 2801 1c40 4883C410 		addq	$16, %rsp
 434:testSvf2Csvf.cpp **** 		"71C2E093", 31,
 435:testSvf2Csvf.cpp **** 		"06", 3,
 436:testSvf2Csvf.cpp **** 		"0135", 9,
 437:testSvf2Csvf.cpp **** 		"04D78E17049E"
 438:testSvf2Csvf.cpp **** 	);
 439:testSvf2Csvf.cpp **** 	testShift(
 2802              		.loc 3 439 11
 2803 1c44 4883EC08 		subq	$8, %rsp
 2804 1c48 488D0500 		leaq	.LC96(%rip), %rax
 2804      000000
 2805 1c4f 50       		pushq	%rax
 2806 1c50 41B90900 		movl	$9, %r9d
 2806      0000
 2807 1c56 4C8D0500 		leaq	.LC72(%rip), %r8
 2807      000000
 2808 1c5d B9040000 		movl	$4, %ecx
 2808      00
 2809 1c62 488D0500 		leaq	.LC26(%rip), %rax
 2809      000000
 2810 1c69 4889C2   		movq	%rax, %rdx
 2811 1c6c BE1F0000 		movl	$31, %esi
 2811      00
 2812 1c71 488D0500 		leaq	.LC91(%rip), %rax
 2812      000000
 2813 1c78 4889C7   		movq	%rax, %rdi
 2814 1c7b E8000000 		call	_Z9testShiftPKcjS0_jS0_jS0_
 2814      00
 2815 1c80 4883C410 		addq	$16, %rsp
 440:testSvf2Csvf.cpp **** 		"71C2E093", 31,
 441:testSvf2Csvf.cpp **** 		"0A", 4,
 442:testSvf2Csvf.cpp **** 		"0135", 9,
 443:testSvf2Csvf.cpp **** 		"09AF1C2E093A"
 444:testSvf2Csvf.cpp **** 	);
 445:testSvf2Csvf.cpp **** 	testShift(
 2816              		.loc 3 445 11
 2817 1c84 4883EC08 		subq	$8, %rsp
 2818 1c88 488D0500 		leaq	.LC97(%rip), %rax
 2818      000000
 2819 1c8f 50       		pushq	%rax
 2820 1c90 41B90900 		movl	$9, %r9d
 2820      0000
 2821 1c96 4C8D0500 		leaq	.LC72(%rip), %r8
 2821      000000
 2822 1c9d B9050000 		movl	$5, %ecx
 2822      00
 2823 1ca2 488D0500 		leaq	.LC28(%rip), %rax
 2823      000000
 2824 1ca9 4889C2   		movq	%rax, %rdx
 2825 1cac BE1F0000 		movl	$31, %esi
 2825      00
 2826 1cb1 488D0500 		leaq	.LC91(%rip), %rax
 2826      000000
 2827 1cb8 4889C7   		movq	%rax, %rdi
 2828 1cbb E8000000 		call	_Z9testShiftPKcjS0_jS0_jS0_
 2828      00
 2829 1cc0 4883C410 		addq	$16, %rsp
 446:testSvf2Csvf.cpp **** 		"71C2E093", 31,
 447:testSvf2Csvf.cpp **** 		"15", 5,
 448:testSvf2Csvf.cpp **** 		"0135", 9,
 449:testSvf2Csvf.cpp **** 		"135E385C1275"
 450:testSvf2Csvf.cpp **** 	);
 451:testSvf2Csvf.cpp **** 	testShift(
 2830              		.loc 3 451 11
 2831 1cc4 4883EC08 		subq	$8, %rsp
 2832 1cc8 488D0500 		leaq	.LC98(%rip), %rax
 2832      000000
 2833 1ccf 50       		pushq	%rax
 2834 1cd0 41B90900 		movl	$9, %r9d
 2834      0000
 2835 1cd6 4C8D0500 		leaq	.LC72(%rip), %r8
 2835      000000
 2836 1cdd B9060000 		movl	$6, %ecx
 2836      00
 2837 1ce2 488D0500 		leaq	.LC30(%rip), %rax
 2837      000000
 2838 1ce9 4889C2   		movq	%rax, %rdx
 2839 1cec BE1F0000 		movl	$31, %esi
 2839      00
 2840 1cf1 488D0500 		leaq	.LC91(%rip), %rax
 2840      000000
 2841 1cf8 4889C7   		movq	%rax, %rdi
 2842 1cfb E8000000 		call	_Z9testShiftPKcjS0_jS0_jS0_
 2842      00
 2843 1d00 4883C410 		addq	$16, %rsp
 452:testSvf2Csvf.cpp **** 		"71C2E093", 31,
 453:testSvf2Csvf.cpp **** 		"25", 6,
 454:testSvf2Csvf.cpp **** 		"0135", 9,
 455:testSvf2Csvf.cpp **** 		"26BC70B824E5"
 456:testSvf2Csvf.cpp **** 	);
 457:testSvf2Csvf.cpp **** 	testShift(
 2844              		.loc 3 457 11
 2845 1d04 4883EC08 		subq	$8, %rsp
 2846 1d08 488D0500 		leaq	.LC99(%rip), %rax
 2846      000000
 2847 1d0f 50       		pushq	%rax
 2848 1d10 41B90900 		movl	$9, %r9d
 2848      0000
 2849 1d16 4C8D0500 		leaq	.LC72(%rip), %r8
 2849      000000
 2850 1d1d B9070000 		movl	$7, %ecx
 2850      00
 2851 1d22 488D0500 		leaq	.LC32(%rip), %rax
 2851      000000
 2852 1d29 4889C2   		movq	%rax, %rdx
 2853 1d2c BE1F0000 		movl	$31, %esi
 2853      00
 2854 1d31 488D0500 		leaq	.LC91(%rip), %rax
 2854      000000
 2855 1d38 4889C7   		movq	%rax, %rdi
 2856 1d3b E8000000 		call	_Z9testShiftPKcjS0_jS0_jS0_
 2856      00
 2857 1d40 4883C410 		addq	$16, %rsp
 458:testSvf2Csvf.cpp **** 		"71C2E093", 31,
 459:testSvf2Csvf.cpp **** 		"75", 7,
 460:testSvf2Csvf.cpp **** 		"0135", 9,
 461:testSvf2Csvf.cpp **** 		"4D78E17049F5"
 462:testSvf2Csvf.cpp **** 	);
 463:testSvf2Csvf.cpp **** 	testShift(
 2858              		.loc 3 463 11
 2859 1d44 4883EC08 		subq	$8, %rsp
 2860 1d48 488D0500 		leaq	.LC100(%rip), %rax
 2860      000000
 2861 1d4f 50       		pushq	%rax
 2862 1d50 41B90900 		movl	$9, %r9d
 2862      0000
 2863 1d56 4C8D0500 		leaq	.LC72(%rip), %r8
 2863      000000
 2864 1d5d B9080000 		movl	$8, %ecx
 2864      00
 2865 1d62 488D0500 		leaq	.LC34(%rip), %rax
 2865      000000
 2866 1d69 4889C2   		movq	%rax, %rdx
 2867 1d6c BE1F0000 		movl	$31, %esi
 2867      00
 2868 1d71 488D0500 		leaq	.LC91(%rip), %rax
 2868      000000
 2869 1d78 4889C7   		movq	%rax, %rdi
 2870 1d7b E8000000 		call	_Z9testShiftPKcjS0_jS0_jS0_
 2870      00
 2871 1d80 4883C410 		addq	$16, %rsp
 464:testSvf2Csvf.cpp **** 		"71C2E093", 31,
 465:testSvf2Csvf.cpp **** 		"e5", 8,
 466:testSvf2Csvf.cpp **** 		"0135", 9,
 467:testSvf2Csvf.cpp **** 		"9AF1C2E093E5"
 468:testSvf2Csvf.cpp **** 	);
 469:testSvf2Csvf.cpp **** 	testShift(
 2872              		.loc 3 469 11
 2873 1d84 4883EC08 		subq	$8, %rsp
 2874 1d88 488D0500 		leaq	.LC101(%rip), %rax
 2874      000000
 2875 1d8f 50       		pushq	%rax
 2876 1d90 41B90900 		movl	$9, %r9d
 2876      0000
 2877 1d96 4C8D0500 		leaq	.LC72(%rip), %r8
 2877      000000
 2878 1d9d B9090000 		movl	$9, %ecx
 2878      00
 2879 1da2 488D0500 		leaq	.LC36(%rip), %rax
 2879      000000
 2880 1da9 4889C2   		movq	%rax, %rdx
 2881 1dac BE1F0000 		movl	$31, %esi
 2881      00
 2882 1db1 488D0500 		leaq	.LC91(%rip), %rax
 2882      000000
 2883 1db8 4889C7   		movq	%rax, %rdi
 2884 1dbb E8000000 		call	_Z9testShiftPKcjS0_jS0_jS0_
 2884      00
 2885 1dc0 4883C410 		addq	$16, %rsp
 470:testSvf2Csvf.cpp **** 		"71C2E093", 31,
 471:testSvf2Csvf.cpp **** 		"0115", 9,
 472:testSvf2Csvf.cpp **** 		"0135", 9,
 473:testSvf2Csvf.cpp **** 		"0135E385C12715"
 474:testSvf2Csvf.cpp **** 	);
 475:testSvf2Csvf.cpp **** 	testShift(
 2886              		.loc 3 475 11
 2887 1dc4 4883EC08 		subq	$8, %rsp
 2888 1dc8 488D0500 		leaq	.LC102(%rip), %rax
 2888      000000
 2889 1dcf 50       		pushq	%rax
 2890 1dd0 41B90900 		movl	$9, %r9d
 2890      0000
 2891 1dd6 4C8D0500 		leaq	.LC72(%rip), %r8
 2891      000000
 2892 1ddd B90A0000 		movl	$10, %ecx
 2892      00
 2893 1de2 488D0500 		leaq	.LC38(%rip), %rax
 2893      000000
 2894 1de9 4889C2   		movq	%rax, %rdx
 2895 1dec BE1F0000 		movl	$31, %esi
 2895      00
 2896 1df1 488D0500 		leaq	.LC91(%rip), %rax
 2896      000000
 2897 1df8 4889C7   		movq	%rax, %rdi
 2898 1dfb E8000000 		call	_Z9testShiftPKcjS0_jS0_jS0_
 2898      00
 2899 1e00 4883C410 		addq	$16, %rsp
 476:testSvf2Csvf.cpp **** 		"71C2E093", 31,
 477:testSvf2Csvf.cpp **** 		"0315", 10,
 478:testSvf2Csvf.cpp **** 		"0135", 9,
 479:testSvf2Csvf.cpp **** 		"026BC70B824F15"
 480:testSvf2Csvf.cpp **** 	);
 481:testSvf2Csvf.cpp **** 	testShift(
 2900              		.loc 3 481 11
 2901 1e04 4883EC08 		subq	$8, %rsp
 2902 1e08 488D0500 		leaq	.LC103(%rip), %rax
 2902      000000
 2903 1e0f 50       		pushq	%rax
 2904 1e10 41B90900 		movl	$9, %r9d
 2904      0000
 2905 1e16 4C8D0500 		leaq	.LC72(%rip), %r8
 2905      000000
 2906 1e1d B90B0000 		movl	$11, %ecx
 2906      00
 2907 1e22 488D0500 		leaq	.LC40(%rip), %rax
 2907      000000
 2908 1e29 4889C2   		movq	%rax, %rdx
 2909 1e2c BE1F0000 		movl	$31, %esi
 2909      00
 2910 1e31 488D0500 		leaq	.LC91(%rip), %rax
 2910      000000
 2911 1e38 4889C7   		movq	%rax, %rdi
 2912 1e3b E8000000 		call	_Z9testShiftPKcjS0_jS0_jS0_
 2912      00
 2913 1e40 4883C410 		addq	$16, %rsp
 482:testSvf2Csvf.cpp **** 		"71C2E093", 31,
 483:testSvf2Csvf.cpp **** 		"0715", 11,
 484:testSvf2Csvf.cpp **** 		"0135", 9,
 485:testSvf2Csvf.cpp **** 		"04D78E17049F15"
 486:testSvf2Csvf.cpp **** 	);
 487:testSvf2Csvf.cpp **** 	testShift(
 2914              		.loc 3 487 11
 2915 1e44 4883EC08 		subq	$8, %rsp
 2916 1e48 488D0500 		leaq	.LC104(%rip), %rax
 2916      000000
 2917 1e4f 50       		pushq	%rax
 2918 1e50 41B90900 		movl	$9, %r9d
 2918      0000
 2919 1e56 4C8D0500 		leaq	.LC72(%rip), %r8
 2919      000000
 2920 1e5d B90C0000 		movl	$12, %ecx
 2920      00
 2921 1e62 488D0500 		leaq	.LC42(%rip), %rax
 2921      000000
 2922 1e69 4889C2   		movq	%rax, %rdx
 2923 1e6c BE1F0000 		movl	$31, %esi
 2923      00
 2924 1e71 488D0500 		leaq	.LC91(%rip), %rax
 2924      000000
 2925 1e78 4889C7   		movq	%rax, %rdi
 2926 1e7b E8000000 		call	_Z9testShiftPKcjS0_jS0_jS0_
 2926      00
 2927 1e80 4883C410 		addq	$16, %rsp
 488:testSvf2Csvf.cpp **** 		"71C2E093", 31,
 489:testSvf2Csvf.cpp **** 		"0c15", 12,
 490:testSvf2Csvf.cpp **** 		"0135", 9,
 491:testSvf2Csvf.cpp **** 		"09AF1C2E093C15"
 492:testSvf2Csvf.cpp **** 	);
 493:testSvf2Csvf.cpp **** 	testShift(
 2928              		.loc 3 493 11
 2929 1e84 4883EC08 		subq	$8, %rsp
 2930 1e88 488D0500 		leaq	.LC105(%rip), %rax
 2930      000000
 2931 1e8f 50       		pushq	%rax
 2932 1e90 41B90900 		movl	$9, %r9d
 2932      0000
 2933 1e96 4C8D0500 		leaq	.LC72(%rip), %r8
 2933      000000
 2934 1e9d B90D0000 		movl	$13, %ecx
 2934      00
 2935 1ea2 488D0500 		leaq	.LC44(%rip), %rax
 2935      000000
 2936 1ea9 4889C2   		movq	%rax, %rdx
 2937 1eac BE1F0000 		movl	$31, %esi
 2937      00
 2938 1eb1 488D0500 		leaq	.LC91(%rip), %rax
 2938      000000
 2939 1eb8 4889C7   		movq	%rax, %rdi
 2940 1ebb E8000000 		call	_Z9testShiftPKcjS0_jS0_jS0_
 2940      00
 2941 1ec0 4883C410 		addq	$16, %rsp
 494:testSvf2Csvf.cpp **** 		"71C2E093", 31,
 495:testSvf2Csvf.cpp **** 		"1c15", 13,
 496:testSvf2Csvf.cpp **** 		"0135", 9,
 497:testSvf2Csvf.cpp **** 		"135E385C127C15"
 498:testSvf2Csvf.cpp **** 	);
 499:testSvf2Csvf.cpp **** 	testShift(
 2942              		.loc 3 499 11
 2943 1ec4 4883EC08 		subq	$8, %rsp
 2944 1ec8 488D0500 		leaq	.LC106(%rip), %rax
 2944      000000
 2945 1ecf 50       		pushq	%rax
 2946 1ed0 41B90900 		movl	$9, %r9d
 2946      0000
 2947 1ed6 4C8D0500 		leaq	.LC72(%rip), %r8
 2947      000000
 2948 1edd B90E0000 		movl	$14, %ecx
 2948      00
 2949 1ee2 488D0500 		leaq	.LC46(%rip), %rax
 2949      000000
 2950 1ee9 4889C2   		movq	%rax, %rdx
 2951 1eec BE1F0000 		movl	$31, %esi
 2951      00
 2952 1ef1 488D0500 		leaq	.LC91(%rip), %rax
 2952      000000
 2953 1ef8 4889C7   		movq	%rax, %rdi
 2954 1efb E8000000 		call	_Z9testShiftPKcjS0_jS0_jS0_
 2954      00
 2955 1f00 4883C410 		addq	$16, %rsp
 500:testSvf2Csvf.cpp **** 		"71C2E093", 31,
 501:testSvf2Csvf.cpp **** 		"2c15", 14,
 502:testSvf2Csvf.cpp **** 		"0135", 9,
 503:testSvf2Csvf.cpp **** 		"26BC70B824EC15"
 504:testSvf2Csvf.cpp **** 	);
 505:testSvf2Csvf.cpp **** 	testShift(
 2956              		.loc 3 505 11
 2957 1f04 4883EC08 		subq	$8, %rsp
 2958 1f08 488D0500 		leaq	.LC107(%rip), %rax
 2958      000000
 2959 1f0f 50       		pushq	%rax
 2960 1f10 41B90900 		movl	$9, %r9d
 2960      0000
 2961 1f16 4C8D0500 		leaq	.LC72(%rip), %r8
 2961      000000
 2962 1f1d B90F0000 		movl	$15, %ecx
 2962      00
 2963 1f22 488D0500 		leaq	.LC48(%rip), %rax
 2963      000000
 2964 1f29 4889C2   		movq	%rax, %rdx
 2965 1f2c BE1F0000 		movl	$31, %esi
 2965      00
 2966 1f31 488D0500 		leaq	.LC91(%rip), %rax
 2966      000000
 2967 1f38 4889C7   		movq	%rax, %rdi
 2968 1f3b E8000000 		call	_Z9testShiftPKcjS0_jS0_jS0_
 2968      00
 2969 1f40 4883C410 		addq	$16, %rsp
 506:testSvf2Csvf.cpp **** 		"71C2E093", 31,
 507:testSvf2Csvf.cpp **** 		"4015", 15,
 508:testSvf2Csvf.cpp **** 		"0135", 9,
 509:testSvf2Csvf.cpp **** 		"4D78E17049C015"
 510:testSvf2Csvf.cpp **** 	);
 511:testSvf2Csvf.cpp **** 	testShift(
 2970              		.loc 3 511 11
 2971 1f44 4883EC08 		subq	$8, %rsp
 2972 1f48 488D0500 		leaq	.LC108(%rip), %rax
 2972      000000
 2973 1f4f 50       		pushq	%rax
 2974 1f50 41B90900 		movl	$9, %r9d
 2974      0000
 2975 1f56 4C8D0500 		leaq	.LC72(%rip), %r8
 2975      000000
 2976 1f5d B9100000 		movl	$16, %ecx
 2976      00
 2977 1f62 488D0500 		leaq	.LC50(%rip), %rax
 2977      000000
 2978 1f69 4889C2   		movq	%rax, %rdx
 2979 1f6c BE1F0000 		movl	$31, %esi
 2979      00
 2980 1f71 488D0500 		leaq	.LC91(%rip), %rax
 2980      000000
 2981 1f78 4889C7   		movq	%rax, %rdi
 2982 1f7b E8000000 		call	_Z9testShiftPKcjS0_jS0_jS0_
 2982      00
 2983 1f80 4883C410 		addq	$16, %rsp
 512:testSvf2Csvf.cpp **** 		"71C2E093", 31,
 513:testSvf2Csvf.cpp **** 		"8015", 16,
 514:testSvf2Csvf.cpp **** 		"0135", 9,
 515:testSvf2Csvf.cpp **** 		"9AF1C2E0938015"
 516:testSvf2Csvf.cpp **** 	);
 517:testSvf2Csvf.cpp **** 	testShift(
 2984              		.loc 3 517 11
 2985 1f84 4883EC08 		subq	$8, %rsp
 2986 1f88 488D0500 		leaq	.LC109(%rip), %rax
 2986      000000
 2987 1f8f 50       		pushq	%rax
 2988 1f90 41B90900 		movl	$9, %r9d
 2988      0000
 2989 1f96 4C8D0500 		leaq	.LC72(%rip), %r8
 2989      000000
 2990 1f9d B9110000 		movl	$17, %ecx
 2990      00
 2991 1fa2 488D0500 		leaq	.LC52(%rip), %rax
 2991      000000
 2992 1fa9 4889C2   		movq	%rax, %rdx
 2993 1fac BE1F0000 		movl	$31, %esi
 2993      00
 2994 1fb1 488D0500 		leaq	.LC91(%rip), %rax
 2994      000000
 2995 1fb8 4889C7   		movq	%rax, %rdi
 2996 1fbb E8000000 		call	_Z9testShiftPKcjS0_jS0_jS0_
 2996      00
 2997 1fc0 4883C410 		addq	$16, %rsp
 518:testSvf2Csvf.cpp **** 		"71C2E093", 31,
 519:testSvf2Csvf.cpp **** 		"018015", 17,
 520:testSvf2Csvf.cpp **** 		"0135", 9,
 521:testSvf2Csvf.cpp **** 		"0135E385C1278015"
 522:testSvf2Csvf.cpp **** 	);
 523:testSvf2Csvf.cpp **** 	testShift(
 2998              		.loc 3 523 11
 2999 1fc4 4883EC08 		subq	$8, %rsp
 3000 1fc8 488D0500 		leaq	.LC112(%rip), %rax
 3000      000000
 3001 1fcf 50       		pushq	%rax
 3002 1fd0 41B90100 		movl	$1, %r9d
 3002      0000
 3003 1fd6 4C8D0500 		leaq	.LC21(%rip), %r8
 3003      000000
 3004 1fdd B9000000 		movl	$0, %ecx
 3004      00
 3005 1fe2 488D0500 		leaq	.LC110(%rip), %rax
 3005      000000
 3006 1fe9 4889C2   		movq	%rax, %rdx
 3007 1fec BE5F0000 		movl	$95, %esi
 3007      00
 3008 1ff1 488D0500 		leaq	.LC111(%rip), %rax
 3008      000000
 3009 1ff8 4889C7   		movq	%rax, %rdi
 3010 1ffb E8000000 		call	_Z9testShiftPKcjS0_jS0_jS0_
 3010      00
 3011 2000 4883C410 		addq	$16, %rsp
 524:testSvf2Csvf.cpp **** 		"5423DF3A8F129B2C91B9425D", 95,
 525:testSvf2Csvf.cpp **** 		"", 0,
 526:testSvf2Csvf.cpp **** 		"01", 1,
 527:testSvf2Csvf.cpp **** 		"D423DF3A8F129B2C91B9425D"
 528:testSvf2Csvf.cpp **** 	);
 529:testSvf2Csvf.cpp **** 	testShift(
 3012              		.loc 3 529 11
 3013 2004 4883EC08 		subq	$8, %rsp
 3014 2008 488D0500 		leaq	.LC113(%rip), %rax
 3014      000000
 3015 200f 50       		pushq	%rax
 3016 2010 41B90000 		movl	$0, %r9d
 3016      0000
 3017 2016 4C8D0500 		leaq	.LC110(%rip), %r8
 3017      000000
 3018 201d B9010000 		movl	$1, %ecx
 3018      00
 3019 2022 488D0500 		leaq	.LC21(%rip), %rax
 3019      000000
 3020 2029 4889C2   		movq	%rax, %rdx
 3021 202c BE5F0000 		movl	$95, %esi
 3021      00
 3022 2031 488D0500 		leaq	.LC111(%rip), %rax
 3022      000000
 3023 2038 4889C7   		movq	%rax, %rdi
 3024 203b E8000000 		call	_Z9testShiftPKcjS0_jS0_jS0_
 3024      00
 3025 2040 4883C410 		addq	$16, %rsp
 530:testSvf2Csvf.cpp **** 		"5423DF3A8F129B2C91B9425D", 95,
 531:testSvf2Csvf.cpp **** 		"01", 1,
 532:testSvf2Csvf.cpp **** 		"", 0,
 533:testSvf2Csvf.cpp **** 		"A847BE751E253659237284BB"
 534:testSvf2Csvf.cpp **** 	);
 535:testSvf2Csvf.cpp **** }
 3026              		.loc 3 535 1
 3027 2044 90       		nop
 3028 2045 C9       		leave
 3029              		.cfi_def_cfa 7, 8
 3030 2046 C3       		ret
 3031              		.cfi_endproc
 3032              	.LFE1154:
 3034              		.globl	_Z11parseStringP12ParseContextPKcP6Buffer
 3036              	_Z11parseStringP12ParseContextPKcP6Buffer:
 3037              	.LFB1155:
 536:testSvf2Csvf.cpp **** 
 537:testSvf2Csvf.cpp **** void parseString(ParseContext *cxt, const char *str, struct Buffer *csvfBuf) {
 3038              		.loc 3 537 78
 3039              		.cfi_startproc
 3040              		.cfi_personality 0x9b,DW.ref.__gxx_personality_v0
 3041              		.cfi_lsda 0x1b,.LLSDA1155
 3042 2047 F30F1EFA 		endbr64
 3043 204b 55       		pushq	%rbp
 3044              		.cfi_def_cfa_offset 16
 3045              		.cfi_offset 6, -16
 3046 204c 4889E5   		movq	%rsp, %rbp
 3047              		.cfi_def_cfa_register 6
 3048 204f 53       		pushq	%rbx
 3049 2050 4881EC88 		subq	$136, %rsp
 3049      000000
 3050              		.cfi_offset 3, -24
 3051 2057 48897D88 		movq	%rdi, -120(%rbp)
 3052 205b 48897580 		movq	%rsi, -128(%rbp)
 3053 205f 48899578 		movq	%rdx, -136(%rbp)
 3053      FFFFFF
 3054              		.loc 3 537 78
 3055 2066 64488B04 		movq	%fs:40, %rax
 3055      25280000 
 3055      00
 3056 206f 488945E8 		movq	%rax, -24(%rbp)
 3057 2073 31C0     		xorl	%eax, %eax
 538:testSvf2Csvf.cpp **** 	Buffer line;
 539:testSvf2Csvf.cpp **** 	BufferStatus bStatus;
 540:testSvf2Csvf.cpp **** 	FLStatus fStatus;
 541:testSvf2Csvf.cpp **** 	const uint32 lineLen = (uint32)strlen(str) + 1;
 3058              		.loc 3 541 39
 3059 2075 488B4580 		movq	-128(%rbp), %rax
 3060 2079 4889C7   		movq	%rax, %rdi
 3061 207c E8000000 		call	strlen@PLT
 3061      00
 3062              		.loc 3 541 15
 3063 2081 83C001   		addl	$1, %eax
 3064 2084 89459C   		movl	%eax, -100(%rbp)
 542:testSvf2Csvf.cpp **** 	bStatus = bufInitialise(&line, lineLen, 0, NULL);
 3065              		.loc 3 542 25
 3066 2087 8B759C   		movl	-100(%rbp), %esi
 3067 208a 488D45A0 		leaq	-96(%rbp), %rax
 3068 208e B9000000 		movl	$0, %ecx
 3068      00
 3069 2093 BA000000 		movl	$0, %edx
 3069      00
 3070 2098 4889C7   		movq	%rax, %rdi
 3071              	.LEHB67:
 3072 209b E8000000 		call	bufInitialise@PLT
 3072      00
 3073              	.LEHE67:
 3074              		.loc 3 542 10
 3075 20a0 894590   		movl	%eax, -112(%rbp)
 3076              	.LEHB68:
 543:testSvf2Csvf.cpp **** 	CHECK_EQUAL(BUF_SUCCESS, bStatus);
 3077              		.loc 3 543 2
 3078 20a3 E8000000 		call	_ZN8UnitTest11CurrentTest7DetailsEv@PLT
 3078      00
 3079 20a8 488B08   		movq	(%rax), %rcx
 3080 20ab 488D45C0 		leaq	-64(%rbp), %rax
 3081 20af BA1F0200 		movl	$543, %edx
 3081      00
 3082 20b4 4889CE   		movq	%rcx, %rsi
 3083 20b7 4889C7   		movq	%rax, %rdi
 3084 20ba E8000000 		call	_ZN8UnitTest11TestDetailsC1ERKS0_i@PLT
 3084      00
 3085              		.loc 3 543 2 is_stmt 0 discriminator 4
 3086 20bf C7459800 		movl	$0, -104(%rbp)
 3086      000000
 3087 20c6 E8000000 		call	_ZN8UnitTest11CurrentTest7ResultsEv@PLT
 3087      00
 3088 20cb 488B00   		movq	(%rax), %rax
 3089 20ce 488D4DC0 		leaq	-64(%rbp), %rcx
 3090 20d2 488D5590 		leaq	-112(%rbp), %rdx
 3091 20d6 488D7598 		leaq	-104(%rbp), %rsi
 3092 20da 4889C7   		movq	%rax, %rdi
 3093 20dd E8000000 		call	_ZN8UnitTest10CheckEqualI12BufferStatusS1_EEvRNS_11TestResultsERKT_RKT0_RKNS_11TestDetailsE
 3093      00
 3094              	.LEHE68:
 3095              	.L91:
 544:testSvf2Csvf.cpp **** 	bStatus = bufAppendBlock(&line, (const uint8 *)str, lineLen, NULL);
 3096              		.loc 3 544 26 is_stmt 1
 3097 20e2 8B559C   		movl	-100(%rbp), %edx
 3098 20e5 488B7580 		movq	-128(%rbp), %rsi
 3099 20e9 488D45A0 		leaq	-96(%rbp), %rax
 3100 20ed B9000000 		movl	$0, %ecx
 3100      00
 3101 20f2 4889C7   		movq	%rax, %rdi
 3102              	.LEHB69:
 3103 20f5 E8000000 		call	bufAppendBlock@PLT
 3103      00
 3104              	.LEHE69:
 3105              		.loc 3 544 10
 3106 20fa 894590   		movl	%eax, -112(%rbp)
 3107              	.LEHB70:
 545:testSvf2Csvf.cpp **** 	CHECK_EQUAL(BUF_SUCCESS, bStatus);
 3108              		.loc 3 545 2
 3109 20fd E8000000 		call	_ZN8UnitTest11CurrentTest7DetailsEv@PLT
 3109      00
 3110 2102 488B08   		movq	(%rax), %rcx
 3111 2105 488D45C0 		leaq	-64(%rbp), %rax
 3112 2109 BA210200 		movl	$545, %edx
 3112      00
 3113 210e 4889CE   		movq	%rcx, %rsi
 3114 2111 4889C7   		movq	%rax, %rdi
 3115 2114 E8000000 		call	_ZN8UnitTest11TestDetailsC1ERKS0_i@PLT
 3115      00
 3116              		.loc 3 545 2 is_stmt 0 discriminator 4
 3117 2119 C7459800 		movl	$0, -104(%rbp)
 3117      000000
 3118 2120 E8000000 		call	_ZN8UnitTest11CurrentTest7ResultsEv@PLT
 3118      00
 3119 2125 488B00   		movq	(%rax), %rax
 3120 2128 488D4DC0 		leaq	-64(%rbp), %rcx
 3121 212c 488D5590 		leaq	-112(%rbp), %rdx
 3122 2130 488D7598 		leaq	-104(%rbp), %rsi
 3123 2134 4889C7   		movq	%rax, %rdi
 3124 2137 E8000000 		call	_ZN8UnitTest10CheckEqualI12BufferStatusS1_EEvRNS_11TestResultsERKT_RKT0_RKNS_11TestDetailsE
 3124      00
 3125              	.LEHE70:
 3126              	.L94:
 546:testSvf2Csvf.cpp **** 	fStatus = parseLine(cxt, &line, csvfBuf, NULL, NULL);
 3127              		.loc 3 546 21 is_stmt 1
 3128 213c 488B9578 		movq	-136(%rbp), %rdx
 3128      FFFFFF
 3129 2143 488D75A0 		leaq	-96(%rbp), %rsi
 3130 2147 488B4588 		movq	-120(%rbp), %rax
 3131 214b 41B80000 		movl	$0, %r8d
 3131      0000
 3132 2151 B9000000 		movl	$0, %ecx
 3132      00
 3133 2156 4889C7   		movq	%rax, %rdi
 3134              	.LEHB71:
 3135 2159 E8000000 		call	parseLine@PLT
 3135      00
 3136              	.LEHE71:
 3137              		.loc 3 546 10
 3138 215e 894594   		movl	%eax, -108(%rbp)
 3139              	.LEHB72:
 547:testSvf2Csvf.cpp **** 	CHECK_EQUAL(FL_SUCCESS, fStatus);
 3140              		.loc 3 547 2
 3141 2161 E8000000 		call	_ZN8UnitTest11CurrentTest7DetailsEv@PLT
 3141      00
 3142 2166 488B08   		movq	(%rax), %rcx
 3143 2169 488D45C0 		leaq	-64(%rbp), %rax
 3144 216d BA230200 		movl	$547, %edx
 3144      00
 3145 2172 4889CE   		movq	%rcx, %rsi
 3146 2175 4889C7   		movq	%rax, %rdi
 3147 2178 E8000000 		call	_ZN8UnitTest11TestDetailsC1ERKS0_i@PLT
 3147      00
 3148              		.loc 3 547 2 is_stmt 0 discriminator 4
 3149 217d C7459800 		movl	$0, -104(%rbp)
 3149      000000
 3150 2184 E8000000 		call	_ZN8UnitTest11CurrentTest7ResultsEv@PLT
 3150      00
 3151 2189 488B00   		movq	(%rax), %rax
 3152 218c 488D4DC0 		leaq	-64(%rbp), %rcx
 3153 2190 488D5594 		leaq	-108(%rbp), %rdx
 3154 2194 488D7598 		leaq	-104(%rbp), %rsi
 3155 2198 4889C7   		movq	%rax, %rdi
 3156 219b E8000000 		call	_ZN8UnitTest10CheckEqualI8FLStatusS1_EEvRNS_11TestResultsERKT_RKT0_RKNS_11TestDetailsE
 3156      00
 3157              	.LEHE72:
 3158              	.L97:
 548:testSvf2Csvf.cpp **** 	bufDestroy(&line);
 3159              		.loc 3 548 12 is_stmt 1
 3160 21a0 488D45A0 		leaq	-96(%rbp), %rax
 3161 21a4 4889C7   		movq	%rax, %rdi
 3162              	.LEHB73:
 3163 21a7 E8000000 		call	bufDestroy@PLT
 3163      00
 3164              	.LEHE73:
 549:testSvf2Csvf.cpp **** }
 3165              		.loc 3 549 1
 3166 21ac 90       		nop
 3167 21ad 488B45E8 		movq	-24(%rbp), %rax
 3168 21b1 64482B04 		subq	%fs:40, %rax
 3168      25280000 
 3168      00
 3169 21ba 0F843F01 		je	.L99
 3169      0000
 3170 21c0 E9350100 		jmp	.L106
 3170      00
 3171              	.L100:
 3172 21c5 F30F1EFA 		endbr64
 543:testSvf2Csvf.cpp **** 	bStatus = bufAppendBlock(&line, (const uint8 *)str, lineLen, NULL);
 3173              		.loc 3 543 2
 3174 21c9 4889C7   		movq	%rax, %rdi
 3175 21cc E8000000 		call	__cxa_begin_catch@PLT
 3175      00
 3176              	.LEHB74:
 3177 21d1 E8000000 		call	_ZN8UnitTest11CurrentTest7ResultsEv@PLT
 3177      00
 543:testSvf2Csvf.cpp **** 	bStatus = bufAppendBlock(&line, (const uint8 *)str, lineLen, NULL);
 3178              		.loc 3 543 2 is_stmt 0 discriminator 3
 3179 21d6 488B18   		movq	(%rax), %rbx
 3180 21d9 E8000000 		call	_ZN8UnitTest11CurrentTest7DetailsEv@PLT
 3180      00
 543:testSvf2Csvf.cpp **** 	bStatus = bufAppendBlock(&line, (const uint8 *)str, lineLen, NULL);
 3181              		.loc 3 543 2 discriminator 11
 3182 21de 488B08   		movq	(%rax), %rcx
 3183 21e1 488D45C0 		leaq	-64(%rbp), %rax
 3184 21e5 BA1F0200 		movl	$543, %edx
 3184      00
 3185 21ea 4889CE   		movq	%rcx, %rsi
 3186 21ed 4889C7   		movq	%rax, %rdi
 3187 21f0 E8000000 		call	_ZN8UnitTest11TestDetailsC1ERKS0_i@PLT
 3187      00
 543:testSvf2Csvf.cpp **** 	bStatus = bufAppendBlock(&line, (const uint8 *)str, lineLen, NULL);
 3188              		.loc 3 543 2 discriminator 15
 3189 21f5 488D45C0 		leaq	-64(%rbp), %rax
 3190 21f9 488D1500 		leaq	.LC13(%rip), %rdx
 3190      000000
 3191 2200 4889C6   		movq	%rax, %rsi
 3192 2203 4889DF   		movq	%rbx, %rdi
 3193 2206 E8000000 		call	_ZN8UnitTest11TestResults13OnTestFailureERKNS_11TestDetailsEPKc@PLT
 3193      00
 3194              	.LEHE74:
 3195              	.LEHB75:
 543:testSvf2Csvf.cpp **** 	bStatus = bufAppendBlock(&line, (const uint8 *)str, lineLen, NULL);
 3196              		.loc 3 543 2 discriminator 17
 3197 220b E8000000 		call	__cxa_end_catch@PLT
 3197      00
 3198              	.LEHE75:
 3199 2210 E9CDFEFF 		jmp	.L91
 3199      FF
 3200              	.L101:
 3201 2215 F30F1EFA 		endbr64
 543:testSvf2Csvf.cpp **** 	bStatus = bufAppendBlock(&line, (const uint8 *)str, lineLen, NULL);
 3202              		.loc 3 543 2
 3203 2219 4889C3   		movq	%rax, %rbx
 3204 221c E8000000 		call	__cxa_end_catch@PLT
 3204      00
 3205 2221 4889D8   		movq	%rbx, %rax
 3206 2224 4889C7   		movq	%rax, %rdi
 3207              	.LEHB76:
 3208 2227 E8000000 		call	_Unwind_Resume@PLT
 3208      00
 3209              	.LEHE76:
 3210              	.L102:
 3211 222c F30F1EFA 		endbr64
 545:testSvf2Csvf.cpp **** 	fStatus = parseLine(cxt, &line, csvfBuf, NULL, NULL);
 3212              		.loc 3 545 2 is_stmt 1
 3213 2230 4889C7   		movq	%rax, %rdi
 3214 2233 E8000000 		call	__cxa_begin_catch@PLT
 3214      00
 3215              	.LEHB77:
 3216 2238 E8000000 		call	_ZN8UnitTest11CurrentTest7ResultsEv@PLT
 3216      00
 545:testSvf2Csvf.cpp **** 	fStatus = parseLine(cxt, &line, csvfBuf, NULL, NULL);
 3217              		.loc 3 545 2 is_stmt 0 discriminator 3
 3218 223d 488B18   		movq	(%rax), %rbx
 3219 2240 E8000000 		call	_ZN8UnitTest11CurrentTest7DetailsEv@PLT
 3219      00
 545:testSvf2Csvf.cpp **** 	fStatus = parseLine(cxt, &line, csvfBuf, NULL, NULL);
 3220              		.loc 3 545 2 discriminator 11
 3221 2245 488B08   		movq	(%rax), %rcx
 3222 2248 488D45C0 		leaq	-64(%rbp), %rax
 3223 224c BA210200 		movl	$545, %edx
 3223      00
 3224 2251 4889CE   		movq	%rcx, %rsi
 3225 2254 4889C7   		movq	%rax, %rdi
 3226 2257 E8000000 		call	_ZN8UnitTest11TestDetailsC1ERKS0_i@PLT
 3226      00
 545:testSvf2Csvf.cpp **** 	fStatus = parseLine(cxt, &line, csvfBuf, NULL, NULL);
 3227              		.loc 3 545 2 discriminator 15
 3228 225c 488D45C0 		leaq	-64(%rbp), %rax
 3229 2260 488D1500 		leaq	.LC13(%rip), %rdx
 3229      000000
 3230 2267 4889C6   		movq	%rax, %rsi
 3231 226a 4889DF   		movq	%rbx, %rdi
 3232 226d E8000000 		call	_ZN8UnitTest11TestResults13OnTestFailureERKNS_11TestDetailsEPKc@PLT
 3232      00
 3233              	.LEHE77:
 3234              	.LEHB78:
 545:testSvf2Csvf.cpp **** 	fStatus = parseLine(cxt, &line, csvfBuf, NULL, NULL);
 3235              		.loc 3 545 2 discriminator 17
 3236 2272 E8000000 		call	__cxa_end_catch@PLT
 3236      00
 3237              	.LEHE78:
 3238 2277 E9C0FEFF 		jmp	.L94
 3238      FF
 3239              	.L103:
 3240 227c F30F1EFA 		endbr64
 545:testSvf2Csvf.cpp **** 	fStatus = parseLine(cxt, &line, csvfBuf, NULL, NULL);
 3241              		.loc 3 545 2
 3242 2280 4889C3   		movq	%rax, %rbx
 3243 2283 E8000000 		call	__cxa_end_catch@PLT
 3243      00
 3244 2288 4889D8   		movq	%rbx, %rax
 3245 228b 4889C7   		movq	%rax, %rdi
 3246              	.LEHB79:
 3247 228e E8000000 		call	_Unwind_Resume@PLT
 3247      00
 3248              	.LEHE79:
 3249              	.L104:
 3250 2293 F30F1EFA 		endbr64
 547:testSvf2Csvf.cpp **** 	bufDestroy(&line);
 3251              		.loc 3 547 2 is_stmt 1
 3252 2297 4889C7   		movq	%rax, %rdi
 3253 229a E8000000 		call	__cxa_begin_catch@PLT
 3253      00
 3254              	.LEHB80:
 3255 229f E8000000 		call	_ZN8UnitTest11CurrentTest7ResultsEv@PLT
 3255      00
 547:testSvf2Csvf.cpp **** 	bufDestroy(&line);
 3256              		.loc 3 547 2 is_stmt 0 discriminator 3
 3257 22a4 488B18   		movq	(%rax), %rbx
 3258 22a7 E8000000 		call	_ZN8UnitTest11CurrentTest7DetailsEv@PLT
 3258      00
 547:testSvf2Csvf.cpp **** 	bufDestroy(&line);
 3259              		.loc 3 547 2 discriminator 11
 3260 22ac 488B08   		movq	(%rax), %rcx
 3261 22af 488D45C0 		leaq	-64(%rbp), %rax
 3262 22b3 BA230200 		movl	$547, %edx
 3262      00
 3263 22b8 4889CE   		movq	%rcx, %rsi
 3264 22bb 4889C7   		movq	%rax, %rdi
 3265 22be E8000000 		call	_ZN8UnitTest11TestDetailsC1ERKS0_i@PLT
 3265      00
 547:testSvf2Csvf.cpp **** 	bufDestroy(&line);
 3266              		.loc 3 547 2 discriminator 15
 3267 22c3 488D45C0 		leaq	-64(%rbp), %rax
 3268 22c7 488D1500 		leaq	.LC2(%rip), %rdx
 3268      000000
 3269 22ce 4889C6   		movq	%rax, %rsi
 3270 22d1 4889DF   		movq	%rbx, %rdi
 3271 22d4 E8000000 		call	_ZN8UnitTest11TestResults13OnTestFailureERKNS_11TestDetailsEPKc@PLT
 3271      00
 3272              	.LEHE80:
 3273              	.LEHB81:
 547:testSvf2Csvf.cpp **** 	bufDestroy(&line);
 3274              		.loc 3 547 2 discriminator 17
 3275 22d9 E8000000 		call	__cxa_end_catch@PLT
 3275      00
 3276              	.LEHE81:
 3277 22de E9BDFEFF 		jmp	.L97
 3277      FF
 3278              	.L105:
 3279 22e3 F30F1EFA 		endbr64
 547:testSvf2Csvf.cpp **** 	bufDestroy(&line);
 3280              		.loc 3 547 2
 3281 22e7 4889C3   		movq	%rax, %rbx
 3282 22ea E8000000 		call	__cxa_end_catch@PLT
 3282      00
 3283 22ef 4889D8   		movq	%rbx, %rax
 3284 22f2 4889C7   		movq	%rax, %rdi
 3285              	.LEHB82:
 3286 22f5 E8000000 		call	_Unwind_Resume@PLT
 3286      00
 3287              	.LEHE82:
 3288              	.L106:
 3289              		.loc 3 549 1 is_stmt 1
 3290 22fa E8000000 		call	__stack_chk_fail@PLT
 3290      00
 3291              	.L99:
 3292 22ff 488B5DF8 		movq	-8(%rbp), %rbx
 3293 2303 C9       		leave
 3294              		.cfi_def_cfa 7, 8
 3295 2304 C3       		ret
 3296              		.cfi_endproc
 3297              	.LFE1155:
 3298              		.section	.gcc_except_table
 3299              		.align 4
 3300              	.LLSDA1155:
 3301 0178 FF       		.byte	0xff
 3302 0179 9B       		.byte	0x9b
 3303 017a 5D       		.uleb128 .LLSDATT1155-.LLSDATTD1155
 3304              	.LLSDATTD1155:
 3305 017b 01       		.byte	0x1
 3306 017c 54       		.uleb128 .LLSDACSE1155-.LLSDACSB1155
 3307              	.LLSDACSB1155:
 3308 017d 54       		.uleb128 .LEHB67-.LFB1155
 3309 017e 05       		.uleb128 .LEHE67-.LEHB67
 3310 017f 00       		.uleb128 0
 3311 0180 00       		.uleb128 0
 3312 0181 5C       		.uleb128 .LEHB68-.LFB1155
 3313 0182 3F       		.uleb128 .LEHE68-.LEHB68
 3314 0183 FE02     		.uleb128 .L100-.LFB1155
 3315 0185 01       		.uleb128 0x1
 3316 0186 AE01     		.uleb128 .LEHB69-.LFB1155
 3317 0188 05       		.uleb128 .LEHE69-.LEHB69
 3318 0189 00       		.uleb128 0
 3319 018a 00       		.uleb128 0
 3320 018b B601     		.uleb128 .LEHB70-.LFB1155
 3321 018d 3F       		.uleb128 .LEHE70-.LEHB70
 3322 018e E503     		.uleb128 .L102-.LFB1155
 3323 0190 01       		.uleb128 0x1
 3324 0191 9202     		.uleb128 .LEHB71-.LFB1155
 3325 0193 05       		.uleb128 .LEHE71-.LEHB71
 3326 0194 00       		.uleb128 0
 3327 0195 00       		.uleb128 0
 3328 0196 9A02     		.uleb128 .LEHB72-.LFB1155
 3329 0198 3F       		.uleb128 .LEHE72-.LEHB72
 3330 0199 CC04     		.uleb128 .L104-.LFB1155
 3331 019b 01       		.uleb128 0x1
 3332 019c E002     		.uleb128 .LEHB73-.LFB1155
 3333 019e 05       		.uleb128 .LEHE73-.LEHB73
 3334 019f 00       		.uleb128 0
 3335 01a0 00       		.uleb128 0
 3336 01a1 8A03     		.uleb128 .LEHB74-.LFB1155
 3337 01a3 3A       		.uleb128 .LEHE74-.LEHB74
 3338 01a4 CE03     		.uleb128 .L101-.LFB1155
 3339 01a6 00       		.uleb128 0
 3340 01a7 C403     		.uleb128 .LEHB75-.LFB1155
 3341 01a9 05       		.uleb128 .LEHE75-.LEHB75
 3342 01aa 00       		.uleb128 0
 3343 01ab 00       		.uleb128 0
 3344 01ac E003     		.uleb128 .LEHB76-.LFB1155
 3345 01ae 05       		.uleb128 .LEHE76-.LEHB76
 3346 01af 00       		.uleb128 0
 3347 01b0 00       		.uleb128 0
 3348 01b1 F103     		.uleb128 .LEHB77-.LFB1155
 3349 01b3 3A       		.uleb128 .LEHE77-.LEHB77
 3350 01b4 B504     		.uleb128 .L103-.LFB1155
 3351 01b6 00       		.uleb128 0
 3352 01b7 AB04     		.uleb128 .LEHB78-.LFB1155
 3353 01b9 05       		.uleb128 .LEHE78-.LEHB78
 3354 01ba 00       		.uleb128 0
 3355 01bb 00       		.uleb128 0
 3356 01bc C704     		.uleb128 .LEHB79-.LFB1155
 3357 01be 05       		.uleb128 .LEHE79-.LEHB79
 3358 01bf 00       		.uleb128 0
 3359 01c0 00       		.uleb128 0
 3360 01c1 D804     		.uleb128 .LEHB80-.LFB1155
 3361 01c3 3A       		.uleb128 .LEHE80-.LEHB80
 3362 01c4 9C05     		.uleb128 .L105-.LFB1155
 3363 01c6 00       		.uleb128 0
 3364 01c7 9205     		.uleb128 .LEHB81-.LFB1155
 3365 01c9 05       		.uleb128 .LEHE81-.LEHB81
 3366 01ca 00       		.uleb128 0
 3367 01cb 00       		.uleb128 0
 3368 01cc AE05     		.uleb128 .LEHB82-.LFB1155
 3369 01ce 05       		.uleb128 .LEHE82-.LEHB82
 3370 01cf 00       		.uleb128 0
 3371 01d0 00       		.uleb128 0
 3372              	.LLSDACSE1155:
 3373 01d1 01       		.byte	0x1
 3374 01d2 00       		.byte	0
 3375 01d3 00       		.align 4
 3376 01d4 00000000 		.long	0
 3377              	
 3378              	.LLSDATT1155:
 3379              		.text
 3381              		.globl	_Z12renderBufferRPcPK6Buffer
 3383              	_Z12renderBufferRPcPK6Buffer:
 3384              	.LFB1156:
 550:testSvf2Csvf.cpp **** 
 551:testSvf2Csvf.cpp **** void renderBuffer(char *&p, const Buffer *buf) {
 3385              		.loc 3 551 48
 3386              		.cfi_startproc
 3387 2305 F30F1EFA 		endbr64
 3388 2309 55       		pushq	%rbp
 3389              		.cfi_def_cfa_offset 16
 3390              		.cfi_offset 6, -16
 3391 230a 4889E5   		movq	%rsp, %rbp
 3392              		.cfi_def_cfa_register 6
 3393 230d 4883EC20 		subq	$32, %rsp
 3394 2311 48897DE8 		movq	%rdi, -24(%rbp)
 3395 2315 488975E0 		movq	%rsi, -32(%rbp)
 552:testSvf2Csvf.cpp **** 	const char *src = (const char *)buf->data;
 3396              		.loc 3 552 14
 3397 2319 488B45E0 		movq	-32(%rbp), %rax
 3398 231d 488B00   		movq	(%rax), %rax
 3399 2320 488945F8 		movq	%rax, -8(%rbp)
 553:testSvf2Csvf.cpp **** 	uint32 length = (uint32)buf->length;
 3400              		.loc 3 553 31
 3401 2324 488B45E0 		movq	-32(%rbp), %rax
 3402 2328 488B4008 		movq	8(%rax), %rax
 3403              		.loc 3 553 9
 3404 232c 8945F4   		movl	%eax, -12(%rbp)
 554:testSvf2Csvf.cpp **** 	*p++ = '{';
 3405              		.loc 3 554 3
 3406 232f 488B45E8 		movq	-24(%rbp), %rax
 3407 2333 488B00   		movq	(%rax), %rax
 3408              		.loc 3 554 4
 3409 2336 488D4801 		leaq	1(%rax), %rcx
 3410 233a 488B55E8 		movq	-24(%rbp), %rdx
 3411 233e 48890A   		movq	%rcx, (%rdx)
 3412              		.loc 3 554 7
 3413 2341 C6007B   		movb	$123, (%rax)
 555:testSvf2Csvf.cpp **** 	while ( length-- ) {
 3414              		.loc 3 555 2
 3415 2344 EB42     		jmp	.L108
 3416              	.L109:
 556:testSvf2Csvf.cpp **** 		sprintf(p, "%02X", *src & 0xFF);
 3417              		.loc 3 556 22
 3418 2346 488B45F8 		movq	-8(%rbp), %rax
 3419 234a 0FB600   		movzbl	(%rax), %eax
 3420 234d 0FBEC0   		movsbl	%al, %eax
 3421              		.loc 3 556 10
 3422 2350 0FB6D0   		movzbl	%al, %edx
 3423 2353 488B45E8 		movq	-24(%rbp), %rax
 3424 2357 488B00   		movq	(%rax), %rax
 3425 235a 488D0D00 		leaq	.LC1(%rip), %rcx
 3425      000000
 3426 2361 4889CE   		movq	%rcx, %rsi
 3427 2364 4889C7   		movq	%rax, %rdi
 3428 2367 B8000000 		movl	$0, %eax
 3428      00
 3429 236c E8000000 		call	sprintf@PLT
 3429      00
 557:testSvf2Csvf.cpp **** 		src++;
 3430              		.loc 3 557 6
 3431 2371 488345F8 		addq	$1, -8(%rbp)
 3431      01
 558:testSvf2Csvf.cpp **** 		p += 2;
 3432              		.loc 3 558 5
 3433 2376 488B45E8 		movq	-24(%rbp), %rax
 3434 237a 488B00   		movq	(%rax), %rax
 3435 237d 488D5002 		leaq	2(%rax), %rdx
 3436 2381 488B45E8 		movq	-24(%rbp), %rax
 3437 2385 488910   		movq	%rdx, (%rax)
 3438              	.L108:
 555:testSvf2Csvf.cpp **** 		sprintf(p, "%02X", *src & 0xFF);
 3439              		.loc 3 555 16
 3440 2388 8B45F4   		movl	-12(%rbp), %eax
 3441 238b 8D50FF   		leal	-1(%rax), %edx
 3442 238e 8955F4   		movl	%edx, -12(%rbp)
 3443 2391 85C0     		testl	%eax, %eax
 3444 2393 0F95C0   		setne	%al
 3445 2396 84C0     		testb	%al, %al
 3446 2398 75AC     		jne	.L109
 559:testSvf2Csvf.cpp **** 	}
 560:testSvf2Csvf.cpp **** 	*p++ = '}';
 3447              		.loc 3 560 3
 3448 239a 488B45E8 		movq	-24(%rbp), %rax
 3449 239e 488B00   		movq	(%rax), %rax
 3450              		.loc 3 560 4
 3451 23a1 488D4801 		leaq	1(%rax), %rcx
 3452 23a5 488B55E8 		movq	-24(%rbp), %rdx
 3453 23a9 48890A   		movq	%rcx, (%rdx)
 3454              		.loc 3 560 7
 3455 23ac C6007D   		movb	$125, (%rax)
 561:testSvf2Csvf.cpp **** }
 3456              		.loc 3 561 1
 3457 23af 90       		nop
 3458 23b0 C9       		leave
 3459              		.cfi_def_cfa 7, 8
 3460 23b1 C3       		ret
 3461              		.cfi_endproc
 3462              	.LFE1156:
 3464              		.section	.rodata
 3465              	.LC114:
 3466 0679 25642C20 		.string	"%d, "
 3466      00
 3467              		.text
 3468              		.globl	_Z14renderBitStoreRPcPK8BitStore
 3470              	_Z14renderBitStoreRPcPK8BitStore:
 3471              	.LFB1157:
 562:testSvf2Csvf.cpp **** 
 563:testSvf2Csvf.cpp **** void renderBitStore(char *&p, const BitStore *store) {
 3472              		.loc 3 563 54
 3473              		.cfi_startproc
 3474 23b2 F30F1EFA 		endbr64
 3475 23b6 55       		pushq	%rbp
 3476              		.cfi_def_cfa_offset 16
 3477              		.cfi_offset 6, -16
 3478 23b7 4889E5   		movq	%rsp, %rbp
 3479              		.cfi_def_cfa_register 6
 3480 23ba 53       		pushq	%rbx
 3481 23bb 4883EC18 		subq	$24, %rsp
 3482              		.cfi_offset 3, -24
 3483 23bf 48897DE8 		movq	%rdi, -24(%rbp)
 3484 23c3 488975E0 		movq	%rsi, -32(%rbp)
 564:testSvf2Csvf.cpp **** 	sprintf(p, "%d, ", store->numBits);
 3485              		.loc 3 564 28
 3486 23c7 488B45E0 		movq	-32(%rbp), %rax
 3487 23cb 8B10     		movl	(%rax), %edx
 3488              		.loc 3 564 9
 3489 23cd 488B45E8 		movq	-24(%rbp), %rax
 3490 23d1 488B00   		movq	(%rax), %rax
 3491 23d4 488D0D00 		leaq	.LC114(%rip), %rcx
 3491      000000
 3492 23db 4889CE   		movq	%rcx, %rsi
 3493 23de 4889C7   		movq	%rax, %rdi
 3494 23e1 B8000000 		movl	$0, %eax
 3494      00
 3495 23e6 E8000000 		call	sprintf@PLT
 3495      00
 565:testSvf2Csvf.cpp **** 	p += strlen(p);
 3496              		.loc 3 565 4
 3497 23eb 488B45E8 		movq	-24(%rbp), %rax
 3498 23ef 488B18   		movq	(%rax), %rbx
 3499              		.loc 3 565 13
 3500 23f2 488B45E8 		movq	-24(%rbp), %rax
 3501 23f6 488B00   		movq	(%rax), %rax
 3502 23f9 4889C7   		movq	%rax, %rdi
 3503 23fc E8000000 		call	strlen@PLT
 3503      00
 3504              		.loc 3 565 4
 3505 2401 488D1403 		leaq	(%rbx,%rax), %rdx
 3506 2405 488B45E8 		movq	-24(%rbp), %rax
 3507 2409 488910   		movq	%rdx, (%rax)
 566:testSvf2Csvf.cpp **** 	renderBuffer(p, &store->tdi);
 3508              		.loc 3 566 14
 3509 240c 488B45E0 		movq	-32(%rbp), %rax
 3510 2410 488D5008 		leaq	8(%rax), %rdx
 3511 2414 488B45E8 		movq	-24(%rbp), %rax
 3512 2418 4889D6   		movq	%rdx, %rsi
 3513 241b 4889C7   		movq	%rax, %rdi
 3514 241e E8000000 		call	_Z12renderBufferRPcPK6Buffer
 3514      00
 567:testSvf2Csvf.cpp **** 	*p++ = ','; *p++ = ' ';
 3515              		.loc 3 567 3
 3516 2423 488B45E8 		movq	-24(%rbp), %rax
 3517 2427 488B00   		movq	(%rax), %rax
 3518              		.loc 3 567 4
 3519 242a 488D4801 		leaq	1(%rax), %rcx
 3520 242e 488B55E8 		movq	-24(%rbp), %rdx
 3521 2432 48890A   		movq	%rcx, (%rdx)
 3522              		.loc 3 567 7
 3523 2435 C6002C   		movb	$44, (%rax)
 3524              		.loc 3 567 15
 3525 2438 488B45E8 		movq	-24(%rbp), %rax
 3526 243c 488B00   		movq	(%rax), %rax
 3527              		.loc 3 567 16
 3528 243f 488D4801 		leaq	1(%rax), %rcx
 3529 2443 488B55E8 		movq	-24(%rbp), %rdx
 3530 2447 48890A   		movq	%rcx, (%rdx)
 3531              		.loc 3 567 19
 3532 244a C60020   		movb	$32, (%rax)
 568:testSvf2Csvf.cpp **** 	renderBuffer(p, &store->tdo);
 3533              		.loc 3 568 14
 3534 244d 488B45E0 		movq	-32(%rbp), %rax
 3535 2451 488D5028 		leaq	40(%rax), %rdx
 3536 2455 488B45E8 		movq	-24(%rbp), %rax
 3537 2459 4889D6   		movq	%rdx, %rsi
 3538 245c 4889C7   		movq	%rax, %rdi
 3539 245f E8000000 		call	_Z12renderBufferRPcPK6Buffer
 3539      00
 569:testSvf2Csvf.cpp **** 	*p++ = ','; *p++ = ' ';
 3540              		.loc 3 569 3
 3541 2464 488B45E8 		movq	-24(%rbp), %rax
 3542 2468 488B00   		movq	(%rax), %rax
 3543              		.loc 3 569 4
 3544 246b 488D4801 		leaq	1(%rax), %rcx
 3545 246f 488B55E8 		movq	-24(%rbp), %rdx
 3546 2473 48890A   		movq	%rcx, (%rdx)
 3547              		.loc 3 569 7
 3548 2476 C6002C   		movb	$44, (%rax)
 3549              		.loc 3 569 15
 3550 2479 488B45E8 		movq	-24(%rbp), %rax
 3551 247d 488B00   		movq	(%rax), %rax
 3552              		.loc 3 569 16
 3553 2480 488D4801 		leaq	1(%rax), %rcx
 3554 2484 488B55E8 		movq	-24(%rbp), %rdx
 3555 2488 48890A   		movq	%rcx, (%rdx)
 3556              		.loc 3 569 19
 3557 248b C60020   		movb	$32, (%rax)
 570:testSvf2Csvf.cpp **** 	renderBuffer(p, &store->mask);
 3558              		.loc 3 570 14
 3559 248e 488B45E0 		movq	-32(%rbp), %rax
 3560 2492 488D5048 		leaq	72(%rax), %rdx
 3561 2496 488B45E8 		movq	-24(%rbp), %rax
 3562 249a 4889D6   		movq	%rdx, %rsi
 3563 249d 4889C7   		movq	%rax, %rdi
 3564 24a0 E8000000 		call	_Z12renderBufferRPcPK6Buffer
 3564      00
 571:testSvf2Csvf.cpp **** }
 3565              		.loc 3 571 1
 3566 24a5 90       		nop
 3567 24a6 488B5DF8 		movq	-8(%rbp), %rbx
 3568 24aa C9       		leave
 3569              		.cfi_def_cfa 7, 8
 3570 24ab C3       		ret
 3571              		.cfi_endproc
 3572              	.LFE1157:
 3574              		.local	_ZZ9renderCxtPK12ParseContextE6result
 3575              		.comm	_ZZ9renderCxtPK12ParseContextE6result,1024,32
 3576              		.globl	_Z9renderCxtPK12ParseContext
 3578              	_Z9renderCxtPK12ParseContext:
 3579              	.LFB1158:
 572:testSvf2Csvf.cpp **** 
 573:testSvf2Csvf.cpp **** const char *renderCxt(const ParseContext *cxt) {
 3580              		.loc 3 573 48
 3581              		.cfi_startproc
 3582 24ac F30F1EFA 		endbr64
 3583 24b0 55       		pushq	%rbp
 3584              		.cfi_def_cfa_offset 16
 3585              		.cfi_offset 6, -16
 3586 24b1 4889E5   		movq	%rsp, %rbp
 3587              		.cfi_def_cfa_register 6
 3588 24b4 4883EC20 		subq	$32, %rsp
 3589 24b8 48897DE8 		movq	%rdi, -24(%rbp)
 3590              		.loc 3 573 48
 3591 24bc 64488B04 		movq	%fs:40, %rax
 3591      25280000 
 3591      00
 3592 24c5 488945F8 		movq	%rax, -8(%rbp)
 3593 24c9 31C0     		xorl	%eax, %eax
 574:testSvf2Csvf.cpp **** 	static char result[1024];
 575:testSvf2Csvf.cpp **** 	char *p = result;
 3594              		.loc 3 575 8
 3595 24cb 488D0500 		leaq	_ZZ9renderCxtPK12ParseContextE6result(%rip), %rax
 3595      000000
 3596 24d2 488945F0 		movq	%rax, -16(%rbp)
 576:testSvf2Csvf.cpp **** 
 577:testSvf2Csvf.cpp **** 	renderBitStore(p, &cxt->dataHead);
 3597              		.loc 3 577 16
 3598 24d6 488B55E8 		movq	-24(%rbp), %rdx
 3599 24da 488D45F0 		leaq	-16(%rbp), %rax
 3600 24de 4889D6   		movq	%rdx, %rsi
 3601 24e1 4889C7   		movq	%rax, %rdi
 3602 24e4 E8000000 		call	_Z14renderBitStoreRPcPK8BitStore
 3602      00
 578:testSvf2Csvf.cpp **** 	*p++ = ','; *p++ = ' ';
 3603              		.loc 3 578 4
 3604 24e9 488B45F0 		movq	-16(%rbp), %rax
 3605 24ed 488D5001 		leaq	1(%rax), %rdx
 3606 24f1 488955F0 		movq	%rdx, -16(%rbp)
 3607              		.loc 3 578 7
 3608 24f5 C6002C   		movb	$44, (%rax)
 3609              		.loc 3 578 16
 3610 24f8 488B45F0 		movq	-16(%rbp), %rax
 3611 24fc 488D5001 		leaq	1(%rax), %rdx
 3612 2500 488955F0 		movq	%rdx, -16(%rbp)
 3613              		.loc 3 578 19
 3614 2504 C60020   		movb	$32, (%rax)
 579:testSvf2Csvf.cpp **** 	renderBitStore(p, &cxt->insnHead);
 3615              		.loc 3 579 16
 3616 2507 488B45E8 		movq	-24(%rbp), %rax
 3617 250b 488D5068 		leaq	104(%rax), %rdx
 3618 250f 488D45F0 		leaq	-16(%rbp), %rax
 3619 2513 4889D6   		movq	%rdx, %rsi
 3620 2516 4889C7   		movq	%rax, %rdi
 3621 2519 E8000000 		call	_Z14renderBitStoreRPcPK8BitStore
 3621      00
 580:testSvf2Csvf.cpp **** 	*p++ = ','; *p++ = ' ';
 3622              		.loc 3 580 4
 3623 251e 488B45F0 		movq	-16(%rbp), %rax
 3624 2522 488D5001 		leaq	1(%rax), %rdx
 3625 2526 488955F0 		movq	%rdx, -16(%rbp)
 3626              		.loc 3 580 7
 3627 252a C6002C   		movb	$44, (%rax)
 3628              		.loc 3 580 16
 3629 252d 488B45F0 		movq	-16(%rbp), %rax
 3630 2531 488D5001 		leaq	1(%rax), %rdx
 3631 2535 488955F0 		movq	%rdx, -16(%rbp)
 3632              		.loc 3 580 19
 3633 2539 C60020   		movb	$32, (%rax)
 581:testSvf2Csvf.cpp **** 
 582:testSvf2Csvf.cpp **** 	renderBitStore(p, &cxt->dataBody);
 3634              		.loc 3 582 16
 3635 253c 488B45E8 		movq	-24(%rbp), %rax
 3636 2540 488D90D0 		leaq	208(%rax), %rdx
 3636      000000
 3637 2547 488D45F0 		leaq	-16(%rbp), %rax
 3638 254b 4889D6   		movq	%rdx, %rsi
 3639 254e 4889C7   		movq	%rax, %rdi
 3640 2551 E8000000 		call	_Z14renderBitStoreRPcPK8BitStore
 3640      00
 583:testSvf2Csvf.cpp **** 	*p++ = ','; *p++ = ' ';
 3641              		.loc 3 583 4
 3642 2556 488B45F0 		movq	-16(%rbp), %rax
 3643 255a 488D5001 		leaq	1(%rax), %rdx
 3644 255e 488955F0 		movq	%rdx, -16(%rbp)
 3645              		.loc 3 583 7
 3646 2562 C6002C   		movb	$44, (%rax)
 3647              		.loc 3 583 16
 3648 2565 488B45F0 		movq	-16(%rbp), %rax
 3649 2569 488D5001 		leaq	1(%rax), %rdx
 3650 256d 488955F0 		movq	%rdx, -16(%rbp)
 3651              		.loc 3 583 19
 3652 2571 C60020   		movb	$32, (%rax)
 584:testSvf2Csvf.cpp **** 	renderBitStore(p, &cxt->insnBody);
 3653              		.loc 3 584 16
 3654 2574 488B45E8 		movq	-24(%rbp), %rax
 3655 2578 488D9038 		leaq	312(%rax), %rdx
 3655      010000
 3656 257f 488D45F0 		leaq	-16(%rbp), %rax
 3657 2583 4889D6   		movq	%rdx, %rsi
 3658 2586 4889C7   		movq	%rax, %rdi
 3659 2589 E8000000 		call	_Z14renderBitStoreRPcPK8BitStore
 3659      00
 585:testSvf2Csvf.cpp **** 	*p++ = ','; *p++ = ' ';
 3660              		.loc 3 585 4
 3661 258e 488B45F0 		movq	-16(%rbp), %rax
 3662 2592 488D5001 		leaq	1(%rax), %rdx
 3663 2596 488955F0 		movq	%rdx, -16(%rbp)
 3664              		.loc 3 585 7
 3665 259a C6002C   		movb	$44, (%rax)
 3666              		.loc 3 585 16
 3667 259d 488B45F0 		movq	-16(%rbp), %rax
 3668 25a1 488D5001 		leaq	1(%rax), %rdx
 3669 25a5 488955F0 		movq	%rdx, -16(%rbp)
 3670              		.loc 3 585 19
 3671 25a9 C60020   		movb	$32, (%rax)
 586:testSvf2Csvf.cpp **** 
 587:testSvf2Csvf.cpp **** 	renderBitStore(p, &cxt->dataTail);
 3672              		.loc 3 587 16
 3673 25ac 488B45E8 		movq	-24(%rbp), %rax
 3674 25b0 488D90A0 		leaq	416(%rax), %rdx
 3674      010000
 3675 25b7 488D45F0 		leaq	-16(%rbp), %rax
 3676 25bb 4889D6   		movq	%rdx, %rsi
 3677 25be 4889C7   		movq	%rax, %rdi
 3678 25c1 E8000000 		call	_Z14renderBitStoreRPcPK8BitStore
 3678      00
 588:testSvf2Csvf.cpp **** 	*p++ = ','; *p++ = ' ';
 3679              		.loc 3 588 4
 3680 25c6 488B45F0 		movq	-16(%rbp), %rax
 3681 25ca 488D5001 		leaq	1(%rax), %rdx
 3682 25ce 488955F0 		movq	%rdx, -16(%rbp)
 3683              		.loc 3 588 7
 3684 25d2 C6002C   		movb	$44, (%rax)
 3685              		.loc 3 588 16
 3686 25d5 488B45F0 		movq	-16(%rbp), %rax
 3687 25d9 488D5001 		leaq	1(%rax), %rdx
 3688 25dd 488955F0 		movq	%rdx, -16(%rbp)
 3689              		.loc 3 588 19
 3690 25e1 C60020   		movb	$32, (%rax)
 589:testSvf2Csvf.cpp **** 	renderBitStore(p, &cxt->insnTail);
 3691              		.loc 3 589 16
 3692 25e4 488B45E8 		movq	-24(%rbp), %rax
 3693 25e8 488D9008 		leaq	520(%rax), %rdx
 3693      020000
 3694 25ef 488D45F0 		leaq	-16(%rbp), %rax
 3695 25f3 4889D6   		movq	%rdx, %rsi
 3696 25f6 4889C7   		movq	%rax, %rdi
 3697 25f9 E8000000 		call	_Z14renderBitStoreRPcPK8BitStore
 3697      00
 590:testSvf2Csvf.cpp **** 	
 591:testSvf2Csvf.cpp **** 	*p = '\0';
 3698              		.loc 3 591 2
 3699 25fe 488B45F0 		movq	-16(%rbp), %rax
 3700              		.loc 3 591 5
 3701 2602 C60000   		movb	$0, (%rax)
 592:testSvf2Csvf.cpp **** 
 593:testSvf2Csvf.cpp **** 	return result;
 3702              		.loc 3 593 9
 3703 2605 488D0500 		leaq	_ZZ9renderCxtPK12ParseContextE6result(%rip), %rax
 3703      000000
 594:testSvf2Csvf.cpp **** }
 3704              		.loc 3 594 1
 3705 260c 488B55F8 		movq	-8(%rbp), %rdx
 3706 2610 64482B14 		subq	%fs:40, %rdx
 3706      25280000 
 3706      00
 3707 2619 7405     		je	.L113
 3708 261b E8000000 		call	__stack_chk_fail@PLT
 3708      00
 3709              	.L113:
 3710 2620 C9       		leave
 3711              		.cfi_def_cfa 7, 8
 3712 2621 C3       		ret
 3713              		.cfi_endproc
 3714              	.LFE1158:
 3716              		.section	.rodata
 3717              	.LC115:
 3718 067e 46504741 		.string	"FPGALink_testParse"
 3718      4C696E6B 
 3718      5F746573 
 3718      74506172 
 3718      736500
 3719              		.section	.text._ZN22TestFPGALink_testParseC2Ev,"axG",@progbits,_ZN22TestFPGALink_testParseC5Ev,com
 3720              		.align 2
 3721              		.weak	_ZN22TestFPGALink_testParseC2Ev
 3723              	_ZN22TestFPGALink_testParseC2Ev:
 3724              	.LFB1160:
 595:testSvf2Csvf.cpp **** 
 596:testSvf2Csvf.cpp **** TEST(FPGALink_testParse) {
 3725              		.loc 3 596 1
 3726              		.cfi_startproc
 3727 0000 F30F1EFA 		endbr64
 3728 0004 55       		pushq	%rbp
 3729              		.cfi_def_cfa_offset 16
 3730              		.cfi_offset 6, -16
 3731 0005 4889E5   		movq	%rsp, %rbp
 3732              		.cfi_def_cfa_register 6
 3733 0008 53       		pushq	%rbx
 3734 0009 4883EC18 		subq	$24, %rsp
 3735              		.cfi_offset 3, -24
 3736 000d 48897DE8 		movq	%rdi, -24(%rbp)
 3737              	.LBB8:
 3738              		.loc 3 596 1
 3739 0011 488B5DE8 		movq	-24(%rbp), %rbx
 3740 0015 E8000000 		call	_ZN13UnitTestSuite12GetSuiteNameEv
 3740      00
 3741 001a 4889C2   		movq	%rax, %rdx
 3742 001d 41B85402 		movl	$596, %r8d
 3742      0000
 3743 0023 488D0500 		leaq	.LC5(%rip), %rax
 3743      000000
 3744 002a 4889C1   		movq	%rax, %rcx
 3745 002d 488D0500 		leaq	.LC115(%rip), %rax
 3745      000000
 3746 0034 4889C6   		movq	%rax, %rsi
 3747 0037 4889DF   		movq	%rbx, %rdi
 3748 003a E8000000 		call	_ZN8UnitTest4TestC2EPKcS2_S2_i@PLT
 3748      00
 3749 003f 488D1500 		leaq	16+_ZTV22TestFPGALink_testParse(%rip), %rdx
 3749      000000
 3750 0046 488B45E8 		movq	-24(%rbp), %rax
 3751 004a 488910   		movq	%rdx, (%rax)
 3752              	.LBE8:
 3753 004d 90       		nop
 3754 004e 488B5DF8 		movq	-8(%rbp), %rbx
 3755 0052 C9       		leave
 3756              		.cfi_def_cfa 7, 8
 3757 0053 C3       		ret
 3758              		.cfi_endproc
 3759              	.LFE1160:
 3761              		.weak	_ZN22TestFPGALink_testParseC1Ev
 3762              		.set	_ZN22TestFPGALink_testParseC1Ev,_ZN22TestFPGALink_testParseC2Ev
 3763              		.globl	testFPGALink_testParseInstance
 3764              		.bss
 3765 0079 00000000 		.align 32
 3765      000000
 3768              	testFPGALink_testParseInstance:
 3769 0080 00000000 		.zero	56
 3769      00000000 
 3769      00000000 
 3769      00000000 
 3769      00000000 
 3770              		.globl	adderFPGALink_testParse
 3773              	adderFPGALink_testParse:
 3774 00b8 00       		.zero	1
 3775              		.section	.rodata
 3776              	.LC116:
 3777 0691 48445220 		.string	"HDR 8 TDI (aa)"
 3777      38205444 
 3777      49202861 
 3777      612900
 3778              		.align 8
 3779              	.LC117:
 3780 06a0 382C207B 		.string	"8, {AA}, {00}, {FF}, 0, {}, {}, {}, 0, {}, {}, {}, 0, {}, {}, {}, 0, {}, {}, {}, 0, {}, {
 3780      41417D2C 
 3780      207B3030 
 3780      7D2C207B 
 3780      46467D2C 
 3781              	.LC118:
 3782 06ff 48445220 		.string	"HDR 8 MASK (55)"
 3782      38204D41 
 3782      534B2028 
 3782      35352900 
 3783 070f 00       		.align 8
 3784              	.LC119:
 3785 0710 382C207B 		.string	"8, {AA}, {00}, {55}, 0, {}, {}, {}, 0, {}, {}, {}, 0, {}, {}, {}, 0, {}, {}, {}, 0, {}, {
 3785      41417D2C 
 3785      207B3030 
 3785      7D2C207B 
 3785      35357D2C 
 3786              	.LC120:
 3787 076f 48445220 		.string	"HDR 6 TDI (3A)"
 3787      36205444 
 3787      49202833 
 3787      412900
 3788 077e 0000     		.align 8
 3789              	.LC121:
 3790 0780 362C207B 		.string	"6, {3A}, {00}, {FF}, 0, {}, {}, {}, 0, {}, {}, {}, 0, {}, {}, {}, 0, {}, {}, {}, 0, {}, {
 3790      33417D2C 
 3790      207B3030 
 3790      7D2C207B 
 3790      46467D2C 
 3791 07df 00       		.align 8
 3792              	.LC122:
 3793 07e0 556E6861 		.string	"Unhandled exception in CHECK_EQUAL(\"8, {AA}, {00}, {FF}, \" \"0, {}, {}, {}, \" \"0, {},
 3793      6E646C65 
 3793      64206578 
 3793      63657074 
 3793      696F6E20 
 3794 0885 000000   		.align 8
 3795              	.LC123:
 3796 0888 556E6861 		.string	"Unhandled exception in CHECK_EQUAL(\"8, {AA}, {00}, {55}, \" \"0, {}, {}, {}, \" \"0, {},
 3796      6E646C65 
 3796      64206578 
 3796      63657074 
 3796      696F6E20 
 3797 092d 000000   		.align 8
 3798              	.LC124:
 3799 0930 556E6861 		.string	"Unhandled exception in CHECK_EQUAL(\"6, {3A}, {00}, {FF}, \" \"0, {}, {}, {}, \" \"0, {},
 3799      6E646C65 
 3799      64206578 
 3799      63657074 
 3799      696F6E20 
 3800              		.text
 3801              		.align 2
 3802              		.globl	_ZNK22TestFPGALink_testParse7RunImplEv
 3804              	_ZNK22TestFPGALink_testParse7RunImplEv:
 3805              	.LFB1162:
 3806              		.loc 3 596 26
 3807              		.cfi_startproc
 3808              		.cfi_personality 0x9b,DW.ref.__gxx_personality_v0
 3809              		.cfi_lsda 0x1b,.LLSDA1162
 3810 2622 F30F1EFA 		endbr64
 3811 2626 55       		pushq	%rbp
 3812              		.cfi_def_cfa_offset 16
 3813              		.cfi_offset 6, -16
 3814 2627 4889E5   		movq	%rsp, %rbp
 3815              		.cfi_def_cfa_register 6
 3816 262a 53       		pushq	%rbx
 3817 262b 4881EC18 		subq	$792, %rsp
 3817      030000
 3818              		.cfi_offset 3, -24
 3819 2632 4889BDE8 		movq	%rdi, -792(%rbp)
 3819      FCFFFF
 3820              		.loc 3 596 26
 3821 2639 64488B04 		movq	%fs:40, %rax
 3821      25280000 
 3821      00
 3822 2642 488945E8 		movq	%rax, -24(%rbp)
 3823 2646 31C0     		xorl	%eax, %eax
 597:testSvf2Csvf.cpp **** 	FLStatus fStatus;
 598:testSvf2Csvf.cpp **** 	struct ParseContext cxt;
 599:testSvf2Csvf.cpp **** 	struct Buffer csvfBuf;
 600:testSvf2Csvf.cpp **** 	BufferStatus bStatus;
 601:testSvf2Csvf.cpp **** 	bStatus = bufInitialise(&csvfBuf, 1024, 0x00, NULL);
 3824              		.loc 3 601 25
 3825 2648 488D8500 		leaq	-768(%rbp), %rax
 3825      FDFFFF
 3826 264f B9000000 		movl	$0, %ecx
 3826      00
 3827 2654 BA000000 		movl	$0, %edx
 3827      00
 3828 2659 BE000400 		movl	$1024, %esi
 3828      00
 3829 265e 4889C7   		movq	%rax, %rdi
 3830              	.LEHB83:
 3831 2661 E8000000 		call	bufInitialise@PLT
 3831      00
 3832              	.LEHE83:
 3833              		.loc 3 601 10
 3834 2666 8985F8FC 		movl	%eax, -776(%rbp)
 3834      FFFF
 3835              	.LEHB84:
 602:testSvf2Csvf.cpp **** 	CHECK_EQUAL(BUF_SUCCESS, bStatus);
 3836              		.loc 3 602 2
 3837 266c E8000000 		call	_ZN8UnitTest11CurrentTest7DetailsEv@PLT
 3837      00
 3838 2671 488B08   		movq	(%rax), %rcx
 3839 2674 488D8540 		leaq	-704(%rbp), %rax
 3839      FDFFFF
 3840 267b BA5A0200 		movl	$602, %edx
 3840      00
 3841 2680 4889CE   		movq	%rcx, %rsi
 3842 2683 4889C7   		movq	%rax, %rdi
 3843 2686 E8000000 		call	_ZN8UnitTest11TestDetailsC1ERKS0_i@PLT
 3843      00
 3844              		.loc 3 602 2 is_stmt 0 discriminator 4
 3845 268b C78520FD 		movl	$0, -736(%rbp)
 3845      FFFF0000 
 3845      0000
 3846 2695 E8000000 		call	_ZN8UnitTest11CurrentTest7ResultsEv@PLT
 3846      00
 3847 269a 488B00   		movq	(%rax), %rax
 3848 269d 488D8D40 		leaq	-704(%rbp), %rcx
 3848      FDFFFF
 3849 26a4 488D95F8 		leaq	-776(%rbp), %rdx
 3849      FCFFFF
 3850 26ab 488DB520 		leaq	-736(%rbp), %rsi
 3850      FDFFFF
 3851 26b2 4889C7   		movq	%rax, %rdi
 3852 26b5 E8000000 		call	_ZN8UnitTest10CheckEqualI12BufferStatusS1_EEvRNS_11TestResultsERKT_RKT0_RKNS_11TestDetailsE
 3852      00
 3853              	.LEHE84:
 3854              	.L117:
 603:testSvf2Csvf.cpp **** 	fStatus = cxtInitialise(&cxt, NULL);
 3855              		.loc 3 603 25 is_stmt 1
 3856 26ba 488D8540 		leaq	-704(%rbp), %rax
 3856      FDFFFF
 3857 26c1 BE000000 		movl	$0, %esi
 3857      00
 3858 26c6 4889C7   		movq	%rax, %rdi
 3859              	.LEHB85:
 3860 26c9 E8000000 		call	cxtInitialise@PLT
 3860      00
 3861              	.LEHE85:
 3862              		.loc 3 603 10
 3863 26ce 8985F4FC 		movl	%eax, -780(%rbp)
 3863      FFFF
 3864              	.LEHB86:
 604:testSvf2Csvf.cpp **** 	CHECK_EQUAL(FL_SUCCESS, fStatus);
 3865              		.loc 3 604 2
 3866 26d4 E8000000 		call	_ZN8UnitTest11CurrentTest7DetailsEv@PLT
 3866      00
 3867 26d9 488B08   		movq	(%rax), %rcx
 3868 26dc 488D8520 		leaq	-736(%rbp), %rax
 3868      FDFFFF
 3869 26e3 BA5C0200 		movl	$604, %edx
 3869      00
 3870 26e8 4889CE   		movq	%rcx, %rsi
 3871 26eb 4889C7   		movq	%rax, %rdi
 3872 26ee E8000000 		call	_ZN8UnitTest11TestDetailsC1ERKS0_i@PLT
 3872      00
 3873              		.loc 3 604 2 is_stmt 0 discriminator 4
 3874 26f3 C785FCFC 		movl	$0, -772(%rbp)
 3874      FFFF0000 
 3874      0000
 3875 26fd E8000000 		call	_ZN8UnitTest11CurrentTest7ResultsEv@PLT
 3875      00
 3876 2702 488B00   		movq	(%rax), %rax
 3877 2705 488D8D20 		leaq	-736(%rbp), %rcx
 3877      FDFFFF
 3878 270c 488D95F4 		leaq	-780(%rbp), %rdx
 3878      FCFFFF
 3879 2713 488DB5FC 		leaq	-772(%rbp), %rsi
 3879      FCFFFF
 3880 271a 4889C7   		movq	%rax, %rdi
 3881 271d E8000000 		call	_ZN8UnitTest10CheckEqualI8FLStatusS1_EEvRNS_11TestResultsERKT_RKT0_RKNS_11TestDetailsE
 3881      00
 3882              	.LEHE86:
 3883              	.L120:
 605:testSvf2Csvf.cpp **** 
 606:testSvf2Csvf.cpp **** 	// HDR, HIR, SDR, SIR, TDR, TIR
 607:testSvf2Csvf.cpp **** 	parseString(&cxt, "HDR 8 TDI (aa)", &csvfBuf);
 3884              		.loc 3 607 13 is_stmt 1
 3885 2722 488D9500 		leaq	-768(%rbp), %rdx
 3885      FDFFFF
 3886 2729 488D8540 		leaq	-704(%rbp), %rax
 3886      FDFFFF
 3887 2730 488D0D00 		leaq	.LC116(%rip), %rcx
 3887      000000
 3888 2737 4889CE   		movq	%rcx, %rsi
 3889 273a 4889C7   		movq	%rax, %rdi
 3890              	.LEHB87:
 3891 273d E8000000 		call	_Z11parseStringP12ParseContextPKcP6Buffer
 3891      00
 3892              	.LEHE87:
 3893              	.LEHB88:
 608:testSvf2Csvf.cpp **** 	CHECK_EQUAL(
 3894              		.loc 3 608 2
 3895 2742 E8000000 		call	_ZN8UnitTest11CurrentTest7DetailsEv@PLT
 3895      00
 3896 2747 488B08   		movq	(%rax), %rcx
 3897 274a 488D8520 		leaq	-736(%rbp), %rax
 3897      FDFFFF
 3898 2751 BA600200 		movl	$608, %edx
 3898      00
 3899 2756 4889CE   		movq	%rcx, %rsi
 3900 2759 4889C7   		movq	%rax, %rdi
 3901 275c E8000000 		call	_ZN8UnitTest11TestDetailsC1ERKS0_i@PLT
 3901      00
 3902              		.loc 3 608 2 is_stmt 0 discriminator 4
 3903 2761 488D8540 		leaq	-704(%rbp), %rax
 3903      FDFFFF
 3904 2768 4889C7   		movq	%rax, %rdi
 3905 276b E8000000 		call	_Z9renderCxtPK12ParseContext
 3905      00
 3906 2770 4889C3   		movq	%rax, %rbx
 3907 2773 E8000000 		call	_ZN8UnitTest11CurrentTest7ResultsEv@PLT
 3907      00
 3908 2778 488B00   		movq	(%rax), %rax
 3909 277b 488D9520 		leaq	-736(%rbp), %rdx
 3909      FDFFFF
 3910 2782 4889D1   		movq	%rdx, %rcx
 3911 2785 4889DA   		movq	%rbx, %rdx
 3912 2788 488D3500 		leaq	.LC117(%rip), %rsi
 3912      000000
 3913 278f 4889C7   		movq	%rax, %rdi
 3914 2792 E8000000 		call	_ZN8UnitTest10CheckEqualERNS_11TestResultsEPKcS3_RKNS_11TestDetailsE@PLT
 3914      00
 3915              	.LEHE88:
 3916              	.L123:
 609:testSvf2Csvf.cpp **** 		"8, {AA}, {00}, {FF}, "    // HDR
 610:testSvf2Csvf.cpp **** 		"0, {}, {}, {}, "          // HIR
 611:testSvf2Csvf.cpp **** 		"0, {}, {}, {}, "          // SDR
 612:testSvf2Csvf.cpp **** 		"0, {}, {}, {}, "          // SIR
 613:testSvf2Csvf.cpp **** 		"0, {}, {}, {}, "          // TDR
 614:testSvf2Csvf.cpp **** 		"0, {}, {}, {}",           // TIR
 615:testSvf2Csvf.cpp **** 		renderCxt(&cxt));
 616:testSvf2Csvf.cpp **** 
 617:testSvf2Csvf.cpp **** 	// HDR, HIR, SDR, SIR, TDR, TIR
 618:testSvf2Csvf.cpp **** 	parseString(&cxt, "HDR 8 MASK (55)", &csvfBuf);
 3917              		.loc 3 618 13 is_stmt 1
 3918 2797 488D9500 		leaq	-768(%rbp), %rdx
 3918      FDFFFF
 3919 279e 488D8540 		leaq	-704(%rbp), %rax
 3919      FDFFFF
 3920 27a5 488D0D00 		leaq	.LC118(%rip), %rcx
 3920      000000
 3921 27ac 4889CE   		movq	%rcx, %rsi
 3922 27af 4889C7   		movq	%rax, %rdi
 3923              	.LEHB89:
 3924 27b2 E8000000 		call	_Z11parseStringP12ParseContextPKcP6Buffer
 3924      00
 3925              	.LEHE89:
 3926              	.LEHB90:
 619:testSvf2Csvf.cpp **** 	CHECK_EQUAL(
 3927              		.loc 3 619 2
 3928 27b7 E8000000 		call	_ZN8UnitTest11CurrentTest7DetailsEv@PLT
 3928      00
 3929 27bc 488B08   		movq	(%rax), %rcx
 3930 27bf 488D8520 		leaq	-736(%rbp), %rax
 3930      FDFFFF
 3931 27c6 BA6B0200 		movl	$619, %edx
 3931      00
 3932 27cb 4889CE   		movq	%rcx, %rsi
 3933 27ce 4889C7   		movq	%rax, %rdi
 3934 27d1 E8000000 		call	_ZN8UnitTest11TestDetailsC1ERKS0_i@PLT
 3934      00
 3935              		.loc 3 619 2 is_stmt 0 discriminator 4
 3936 27d6 488D8540 		leaq	-704(%rbp), %rax
 3936      FDFFFF
 3937 27dd 4889C7   		movq	%rax, %rdi
 3938 27e0 E8000000 		call	_Z9renderCxtPK12ParseContext
 3938      00
 3939 27e5 4889C3   		movq	%rax, %rbx
 3940 27e8 E8000000 		call	_ZN8UnitTest11CurrentTest7ResultsEv@PLT
 3940      00
 3941 27ed 488B00   		movq	(%rax), %rax
 3942 27f0 488D9520 		leaq	-736(%rbp), %rdx
 3942      FDFFFF
 3943 27f7 4889D1   		movq	%rdx, %rcx
 3944 27fa 4889DA   		movq	%rbx, %rdx
 3945 27fd 488D3500 		leaq	.LC119(%rip), %rsi
 3945      000000
 3946 2804 4889C7   		movq	%rax, %rdi
 3947 2807 E8000000 		call	_ZN8UnitTest10CheckEqualERNS_11TestResultsEPKcS3_RKNS_11TestDetailsE@PLT
 3947      00
 3948              	.LEHE90:
 3949              	.L126:
 620:testSvf2Csvf.cpp **** 		"8, {AA}, {00}, {55}, "    // HDR
 621:testSvf2Csvf.cpp **** 		"0, {}, {}, {}, "          // HIR
 622:testSvf2Csvf.cpp **** 		"0, {}, {}, {}, "          // SDR
 623:testSvf2Csvf.cpp **** 		"0, {}, {}, {}, "          // SIR
 624:testSvf2Csvf.cpp **** 		"0, {}, {}, {}, "          // TDR
 625:testSvf2Csvf.cpp **** 		"0, {}, {}, {}",           // TIR
 626:testSvf2Csvf.cpp **** 		renderCxt(&cxt));
 627:testSvf2Csvf.cpp **** 
 628:testSvf2Csvf.cpp **** 	// HDR, HIR, SDR, SIR, TDR, TIR
 629:testSvf2Csvf.cpp **** 	parseString(&cxt, "HDR 6 TDI (3A)", &csvfBuf);
 3950              		.loc 3 629 13 is_stmt 1
 3951 280c 488D9500 		leaq	-768(%rbp), %rdx
 3951      FDFFFF
 3952 2813 488D8540 		leaq	-704(%rbp), %rax
 3952      FDFFFF
 3953 281a 488D0D00 		leaq	.LC120(%rip), %rcx
 3953      000000
 3954 2821 4889CE   		movq	%rcx, %rsi
 3955 2824 4889C7   		movq	%rax, %rdi
 3956              	.LEHB91:
 3957 2827 E8000000 		call	_Z11parseStringP12ParseContextPKcP6Buffer
 3957      00
 3958              	.LEHE91:
 3959              	.LEHB92:
 630:testSvf2Csvf.cpp **** 	CHECK_EQUAL(
 3960              		.loc 3 630 2
 3961 282c E8000000 		call	_ZN8UnitTest11CurrentTest7DetailsEv@PLT
 3961      00
 3962 2831 488B08   		movq	(%rax), %rcx
 3963 2834 488D8520 		leaq	-736(%rbp), %rax
 3963      FDFFFF
 3964 283b BA760200 		movl	$630, %edx
 3964      00
 3965 2840 4889CE   		movq	%rcx, %rsi
 3966 2843 4889C7   		movq	%rax, %rdi
 3967 2846 E8000000 		call	_ZN8UnitTest11TestDetailsC1ERKS0_i@PLT
 3967      00
 3968              		.loc 3 630 2 is_stmt 0 discriminator 4
 3969 284b 488D8540 		leaq	-704(%rbp), %rax
 3969      FDFFFF
 3970 2852 4889C7   		movq	%rax, %rdi
 3971 2855 E8000000 		call	_Z9renderCxtPK12ParseContext
 3971      00
 3972 285a 4889C3   		movq	%rax, %rbx
 3973 285d E8000000 		call	_ZN8UnitTest11CurrentTest7ResultsEv@PLT
 3973      00
 3974 2862 488B00   		movq	(%rax), %rax
 3975 2865 488D9520 		leaq	-736(%rbp), %rdx
 3975      FDFFFF
 3976 286c 4889D1   		movq	%rdx, %rcx
 3977 286f 4889DA   		movq	%rbx, %rdx
 3978 2872 488D3500 		leaq	.LC121(%rip), %rsi
 3978      000000
 3979 2879 4889C7   		movq	%rax, %rdi
 3980 287c E8000000 		call	_ZN8UnitTest10CheckEqualERNS_11TestResultsEPKcS3_RKNS_11TestDetailsE@PLT
 3980      00
 3981              	.LEHE92:
 3982              	.L129:
 631:testSvf2Csvf.cpp **** 		"6, {3A}, {00}, {FF}, "    // HDR
 632:testSvf2Csvf.cpp **** 		"0, {}, {}, {}, "          // HIR
 633:testSvf2Csvf.cpp **** 		"0, {}, {}, {}, "          // SDR
 634:testSvf2Csvf.cpp **** 		"0, {}, {}, {}, "          // SIR
 635:testSvf2Csvf.cpp **** 		"0, {}, {}, {}, "          // TDR
 636:testSvf2Csvf.cpp **** 		"0, {}, {}, {}",           // TIR
 637:testSvf2Csvf.cpp **** 		renderCxt(&cxt));
 638:testSvf2Csvf.cpp **** 
 639:testSvf2Csvf.cpp **** 	cxtDestroy(&cxt);
 3983              		.loc 3 639 12 is_stmt 1
 3984 2881 488D8540 		leaq	-704(%rbp), %rax
 3984      FDFFFF
 3985 2888 4889C7   		movq	%rax, %rdi
 3986              	.LEHB93:
 3987 288b E8000000 		call	cxtDestroy@PLT
 3987      00
 640:testSvf2Csvf.cpp **** 	bufDestroy(&csvfBuf);
 3988              		.loc 3 640 12
 3989 2890 488D8500 		leaq	-768(%rbp), %rax
 3989      FDFFFF
 3990 2897 4889C7   		movq	%rax, %rdi
 3991 289a E8000000 		call	bufDestroy@PLT
 3991      00
 3992              	.LEHE93:
 641:testSvf2Csvf.cpp **** }
 3993              		.loc 3 641 1
 3994 289f 90       		nop
 3995 28a0 488B45E8 		movq	-24(%rbp), %rax
 3996 28a4 64482B04 		subq	%fs:40, %rax
 3996      25280000 
 3996      00
 3997 28ad 0F842B02 		je	.L131
 3997      0000
 3998 28b3 E9210200 		jmp	.L142
 3998      00
 3999              	.L132:
 4000 28b8 F30F1EFA 		endbr64
 602:testSvf2Csvf.cpp **** 	fStatus = cxtInitialise(&cxt, NULL);
 4001              		.loc 3 602 2
 4002 28bc 4889C7   		movq	%rax, %rdi
 4003 28bf E8000000 		call	__cxa_begin_catch@PLT
 4003      00
 4004              	.LEHB94:
 4005 28c4 E8000000 		call	_ZN8UnitTest11CurrentTest7ResultsEv@PLT
 4005      00
 602:testSvf2Csvf.cpp **** 	fStatus = cxtInitialise(&cxt, NULL);
 4006              		.loc 3 602 2 is_stmt 0 discriminator 3
 4007 28c9 488B18   		movq	(%rax), %rbx
 4008 28cc E8000000 		call	_ZN8UnitTest11CurrentTest7DetailsEv@PLT
 4008      00
 602:testSvf2Csvf.cpp **** 	fStatus = cxtInitialise(&cxt, NULL);
 4009              		.loc 3 602 2 discriminator 11
 4010 28d1 488B08   		movq	(%rax), %rcx
 4011 28d4 488D8540 		leaq	-704(%rbp), %rax
 4011      FDFFFF
 4012 28db BA5A0200 		movl	$602, %edx
 4012      00
 4013 28e0 4889CE   		movq	%rcx, %rsi
 4014 28e3 4889C7   		movq	%rax, %rdi
 4015 28e6 E8000000 		call	_ZN8UnitTest11TestDetailsC1ERKS0_i@PLT
 4015      00
 602:testSvf2Csvf.cpp **** 	fStatus = cxtInitialise(&cxt, NULL);
 4016              		.loc 3 602 2 discriminator 15
 4017 28eb 488D8540 		leaq	-704(%rbp), %rax
 4017      FDFFFF
 4018 28f2 488D1500 		leaq	.LC13(%rip), %rdx
 4018      000000
 4019 28f9 4889C6   		movq	%rax, %rsi
 4020 28fc 4889DF   		movq	%rbx, %rdi
 4021 28ff E8000000 		call	_ZN8UnitTest11TestResults13OnTestFailureERKNS_11TestDetailsEPKc@PLT
 4021      00
 4022              	.LEHE94:
 4023              	.LEHB95:
 602:testSvf2Csvf.cpp **** 	fStatus = cxtInitialise(&cxt, NULL);
 4024              		.loc 3 602 2 discriminator 17
 4025 2904 E8000000 		call	__cxa_end_catch@PLT
 4025      00
 4026              	.LEHE95:
 4027 2909 E9ACFDFF 		jmp	.L117
 4027      FF
 4028              	.L133:
 4029 290e F30F1EFA 		endbr64
 602:testSvf2Csvf.cpp **** 	fStatus = cxtInitialise(&cxt, NULL);
 4030              		.loc 3 602 2
 4031 2912 4889C3   		movq	%rax, %rbx
 4032 2915 E8000000 		call	__cxa_end_catch@PLT
 4032      00
 4033 291a 4889D8   		movq	%rbx, %rax
 4034 291d 4889C7   		movq	%rax, %rdi
 4035              	.LEHB96:
 4036 2920 E8000000 		call	_Unwind_Resume@PLT
 4036      00
 4037              	.LEHE96:
 4038              	.L134:
 4039 2925 F30F1EFA 		endbr64
 604:testSvf2Csvf.cpp **** 
 4040              		.loc 3 604 2 is_stmt 1
 4041 2929 4889C7   		movq	%rax, %rdi
 4042 292c E8000000 		call	__cxa_begin_catch@PLT
 4042      00
 4043              	.LEHB97:
 4044 2931 E8000000 		call	_ZN8UnitTest11CurrentTest7ResultsEv@PLT
 4044      00
 604:testSvf2Csvf.cpp **** 
 4045              		.loc 3 604 2 is_stmt 0 discriminator 3
 4046 2936 488B18   		movq	(%rax), %rbx
 4047 2939 E8000000 		call	_ZN8UnitTest11CurrentTest7DetailsEv@PLT
 4047      00
 604:testSvf2Csvf.cpp **** 
 4048              		.loc 3 604 2 discriminator 11
 4049 293e 488B08   		movq	(%rax), %rcx
 4050 2941 488D8520 		leaq	-736(%rbp), %rax
 4050      FDFFFF
 4051 2948 BA5C0200 		movl	$604, %edx
 4051      00
 4052 294d 4889CE   		movq	%rcx, %rsi
 4053 2950 4889C7   		movq	%rax, %rdi
 4054 2953 E8000000 		call	_ZN8UnitTest11TestDetailsC1ERKS0_i@PLT
 4054      00
 604:testSvf2Csvf.cpp **** 
 4055              		.loc 3 604 2 discriminator 15
 4056 2958 488D8520 		leaq	-736(%rbp), %rax
 4056      FDFFFF
 4057 295f 488D1500 		leaq	.LC2(%rip), %rdx
 4057      000000
 4058 2966 4889C6   		movq	%rax, %rsi
 4059 2969 4889DF   		movq	%rbx, %rdi
 4060 296c E8000000 		call	_ZN8UnitTest11TestResults13OnTestFailureERKNS_11TestDetailsEPKc@PLT
 4060      00
 4061              	.LEHE97:
 4062              	.LEHB98:
 604:testSvf2Csvf.cpp **** 
 4063              		.loc 3 604 2 discriminator 17
 4064 2971 E8000000 		call	__cxa_end_catch@PLT
 4064      00
 4065              	.LEHE98:
 4066 2976 E9A7FDFF 		jmp	.L120
 4066      FF
 4067              	.L135:
 4068 297b F30F1EFA 		endbr64
 604:testSvf2Csvf.cpp **** 
 4069              		.loc 3 604 2
 4070 297f 4889C3   		movq	%rax, %rbx
 4071 2982 E8000000 		call	__cxa_end_catch@PLT
 4071      00
 4072 2987 4889D8   		movq	%rbx, %rax
 4073 298a 4889C7   		movq	%rax, %rdi
 4074              	.LEHB99:
 4075 298d E8000000 		call	_Unwind_Resume@PLT
 4075      00
 4076              	.LEHE99:
 4077              	.L136:
 4078 2992 F30F1EFA 		endbr64
 608:testSvf2Csvf.cpp **** 		"8, {AA}, {00}, {FF}, "    // HDR
 4079              		.loc 3 608 2 is_stmt 1
 4080 2996 4889C7   		movq	%rax, %rdi
 4081 2999 E8000000 		call	__cxa_begin_catch@PLT
 4081      00
 4082              	.LEHB100:
 4083 299e E8000000 		call	_ZN8UnitTest11CurrentTest7ResultsEv@PLT
 4083      00
 608:testSvf2Csvf.cpp **** 		"8, {AA}, {00}, {FF}, "    // HDR
 4084              		.loc 3 608 2 is_stmt 0 discriminator 3
 4085 29a3 488B18   		movq	(%rax), %rbx
 4086 29a6 E8000000 		call	_ZN8UnitTest11CurrentTest7DetailsEv@PLT
 4086      00
 608:testSvf2Csvf.cpp **** 		"8, {AA}, {00}, {FF}, "    // HDR
 4087              		.loc 3 608 2 discriminator 11
 4088 29ab 488B08   		movq	(%rax), %rcx
 4089 29ae 488D8520 		leaq	-736(%rbp), %rax
 4089      FDFFFF
 4090 29b5 BA600200 		movl	$608, %edx
 4090      00
 4091 29ba 4889CE   		movq	%rcx, %rsi
 4092 29bd 4889C7   		movq	%rax, %rdi
 4093 29c0 E8000000 		call	_ZN8UnitTest11TestDetailsC1ERKS0_i@PLT
 4093      00
 608:testSvf2Csvf.cpp **** 		"8, {AA}, {00}, {FF}, "    // HDR
 4094              		.loc 3 608 2 discriminator 15
 4095 29c5 488D8520 		leaq	-736(%rbp), %rax
 4095      FDFFFF
 4096 29cc 488D1500 		leaq	.LC122(%rip), %rdx
 4096      000000
 4097 29d3 4889C6   		movq	%rax, %rsi
 4098 29d6 4889DF   		movq	%rbx, %rdi
 4099 29d9 E8000000 		call	_ZN8UnitTest11TestResults13OnTestFailureERKNS_11TestDetailsEPKc@PLT
 4099      00
 4100              	.LEHE100:
 4101              	.LEHB101:
 608:testSvf2Csvf.cpp **** 		"8, {AA}, {00}, {FF}, "    // HDR
 4102              		.loc 3 608 2 discriminator 17
 4103 29de E8000000 		call	__cxa_end_catch@PLT
 4103      00
 4104              	.LEHE101:
 4105 29e3 E9AFFDFF 		jmp	.L123
 4105      FF
 4106              	.L137:
 4107 29e8 F30F1EFA 		endbr64
 608:testSvf2Csvf.cpp **** 		"8, {AA}, {00}, {FF}, "    // HDR
 4108              		.loc 3 608 2
 4109 29ec 4889C3   		movq	%rax, %rbx
 4110 29ef E8000000 		call	__cxa_end_catch@PLT
 4110      00
 4111 29f4 4889D8   		movq	%rbx, %rax
 4112 29f7 4889C7   		movq	%rax, %rdi
 4113              	.LEHB102:
 4114 29fa E8000000 		call	_Unwind_Resume@PLT
 4114      00
 4115              	.LEHE102:
 4116              	.L138:
 4117 29ff F30F1EFA 		endbr64
 619:testSvf2Csvf.cpp **** 		"8, {AA}, {00}, {55}, "    // HDR
 4118              		.loc 3 619 2 is_stmt 1
 4119 2a03 4889C7   		movq	%rax, %rdi
 4120 2a06 E8000000 		call	__cxa_begin_catch@PLT
 4120      00
 4121              	.LEHB103:
 4122 2a0b E8000000 		call	_ZN8UnitTest11CurrentTest7ResultsEv@PLT
 4122      00
 619:testSvf2Csvf.cpp **** 		"8, {AA}, {00}, {55}, "    // HDR
 4123              		.loc 3 619 2 is_stmt 0 discriminator 3
 4124 2a10 488B18   		movq	(%rax), %rbx
 4125 2a13 E8000000 		call	_ZN8UnitTest11CurrentTest7DetailsEv@PLT
 4125      00
 619:testSvf2Csvf.cpp **** 		"8, {AA}, {00}, {55}, "    // HDR
 4126              		.loc 3 619 2 discriminator 11
 4127 2a18 488B08   		movq	(%rax), %rcx
 4128 2a1b 488D8520 		leaq	-736(%rbp), %rax
 4128      FDFFFF
 4129 2a22 BA6B0200 		movl	$619, %edx
 4129      00
 4130 2a27 4889CE   		movq	%rcx, %rsi
 4131 2a2a 4889C7   		movq	%rax, %rdi
 4132 2a2d E8000000 		call	_ZN8UnitTest11TestDetailsC1ERKS0_i@PLT
 4132      00
 619:testSvf2Csvf.cpp **** 		"8, {AA}, {00}, {55}, "    // HDR
 4133              		.loc 3 619 2 discriminator 15
 4134 2a32 488D8520 		leaq	-736(%rbp), %rax
 4134      FDFFFF
 4135 2a39 488D1500 		leaq	.LC123(%rip), %rdx
 4135      000000
 4136 2a40 4889C6   		movq	%rax, %rsi
 4137 2a43 4889DF   		movq	%rbx, %rdi
 4138 2a46 E8000000 		call	_ZN8UnitTest11TestResults13OnTestFailureERKNS_11TestDetailsEPKc@PLT
 4138      00
 4139              	.LEHE103:
 4140              	.LEHB104:
 619:testSvf2Csvf.cpp **** 		"8, {AA}, {00}, {55}, "    // HDR
 4141              		.loc 3 619 2 discriminator 17
 4142 2a4b E8000000 		call	__cxa_end_catch@PLT
 4142      00
 4143              	.LEHE104:
 4144 2a50 E9B7FDFF 		jmp	.L126
 4144      FF
 4145              	.L139:
 4146 2a55 F30F1EFA 		endbr64
 619:testSvf2Csvf.cpp **** 		"8, {AA}, {00}, {55}, "    // HDR
 4147              		.loc 3 619 2
 4148 2a59 4889C3   		movq	%rax, %rbx
 4149 2a5c E8000000 		call	__cxa_end_catch@PLT
 4149      00
 4150 2a61 4889D8   		movq	%rbx, %rax
 4151 2a64 4889C7   		movq	%rax, %rdi
 4152              	.LEHB105:
 4153 2a67 E8000000 		call	_Unwind_Resume@PLT
 4153      00
 4154              	.LEHE105:
 4155              	.L140:
 4156 2a6c F30F1EFA 		endbr64
 630:testSvf2Csvf.cpp **** 		"6, {3A}, {00}, {FF}, "    // HDR
 4157              		.loc 3 630 2 is_stmt 1
 4158 2a70 4889C7   		movq	%rax, %rdi
 4159 2a73 E8000000 		call	__cxa_begin_catch@PLT
 4159      00
 4160              	.LEHB106:
 4161 2a78 E8000000 		call	_ZN8UnitTest11CurrentTest7ResultsEv@PLT
 4161      00
 630:testSvf2Csvf.cpp **** 		"6, {3A}, {00}, {FF}, "    // HDR
 4162              		.loc 3 630 2 is_stmt 0 discriminator 3
 4163 2a7d 488B18   		movq	(%rax), %rbx
 4164 2a80 E8000000 		call	_ZN8UnitTest11CurrentTest7DetailsEv@PLT
 4164      00
 630:testSvf2Csvf.cpp **** 		"6, {3A}, {00}, {FF}, "    // HDR
 4165              		.loc 3 630 2 discriminator 11
 4166 2a85 488B08   		movq	(%rax), %rcx
 4167 2a88 488D8520 		leaq	-736(%rbp), %rax
 4167      FDFFFF
 4168 2a8f BA760200 		movl	$630, %edx
 4168      00
 4169 2a94 4889CE   		movq	%rcx, %rsi
 4170 2a97 4889C7   		movq	%rax, %rdi
 4171 2a9a E8000000 		call	_ZN8UnitTest11TestDetailsC1ERKS0_i@PLT
 4171      00
 630:testSvf2Csvf.cpp **** 		"6, {3A}, {00}, {FF}, "    // HDR
 4172              		.loc 3 630 2 discriminator 15
 4173 2a9f 488D8520 		leaq	-736(%rbp), %rax
 4173      FDFFFF
 4174 2aa6 488D1500 		leaq	.LC124(%rip), %rdx
 4174      000000
 4175 2aad 4889C6   		movq	%rax, %rsi
 4176 2ab0 4889DF   		movq	%rbx, %rdi
 4177 2ab3 E8000000 		call	_ZN8UnitTest11TestResults13OnTestFailureERKNS_11TestDetailsEPKc@PLT
 4177      00
 4178              	.LEHE106:
 4179              	.LEHB107:
 630:testSvf2Csvf.cpp **** 		"6, {3A}, {00}, {FF}, "    // HDR
 4180              		.loc 3 630 2 discriminator 17
 4181 2ab8 E8000000 		call	__cxa_end_catch@PLT
 4181      00
 4182              	.LEHE107:
 4183 2abd E9BFFDFF 		jmp	.L129
 4183      FF
 4184              	.L141:
 4185 2ac2 F30F1EFA 		endbr64
 630:testSvf2Csvf.cpp **** 		"6, {3A}, {00}, {FF}, "    // HDR
 4186              		.loc 3 630 2
 4187 2ac6 4889C3   		movq	%rax, %rbx
 4188 2ac9 E8000000 		call	__cxa_end_catch@PLT
 4188      00
 4189 2ace 4889D8   		movq	%rbx, %rax
 4190 2ad1 4889C7   		movq	%rax, %rdi
 4191              	.LEHB108:
 4192 2ad4 E8000000 		call	_Unwind_Resume@PLT
 4192      00
 4193              	.LEHE108:
 4194              	.L142:
 4195              		.loc 3 641 1 is_stmt 1
 4196 2ad9 E8000000 		call	__stack_chk_fail@PLT
 4196      00
 4197              	.L131:
 4198 2ade 488B5DF8 		movq	-8(%rbp), %rbx
 4199 2ae2 C9       		leave
 4200              		.cfi_def_cfa 7, 8
 4201 2ae3 C3       		ret
 4202              		.cfi_endproc
 4203              	.LFE1162:
 4204              		.section	.gcc_except_table
 4205              		.align 4
 4206              	.LLSDA1162:
 4207 01d8 FF       		.byte	0xff
 4208 01d9 9B       		.byte	0x9b
 4209 01da 9401     		.uleb128 .LLSDATT1162-.LLSDATTD1162
 4210              	.LLSDATTD1162:
 4211 01dc 01       		.byte	0x1
 4212 01dd 8A01     		.uleb128 .LLSDACSE1162-.LLSDACSB1162
 4213              	.LLSDACSB1162:
 4214 01df 3F       		.uleb128 .LEHB83-.LFB1162
 4215 01e0 05       		.uleb128 .LEHE83-.LEHB83
 4216 01e1 00       		.uleb128 0
 4217 01e2 00       		.uleb128 0
 4218 01e3 4A       		.uleb128 .LEHB84-.LFB1162
 4219 01e4 4E       		.uleb128 .LEHE84-.LEHB84
 4220 01e5 9605     		.uleb128 .L132-.LFB1162
 4221 01e7 01       		.uleb128 0x1
 4222 01e8 A701     		.uleb128 .LEHB85-.LFB1162
 4223 01ea 05       		.uleb128 .LEHE85-.LEHB85
 4224 01eb 00       		.uleb128 0
 4225 01ec 00       		.uleb128 0
 4226 01ed B201     		.uleb128 .LEHB86-.LFB1162
 4227 01ef 4E       		.uleb128 .LEHE86-.LEHB86
 4228 01f0 8306     		.uleb128 .L134-.LFB1162
 4229 01f2 01       		.uleb128 0x1
 4230 01f3 9B02     		.uleb128 .LEHB87-.LFB1162
 4231 01f5 05       		.uleb128 .LEHE87-.LEHB87
 4232 01f6 00       		.uleb128 0
 4233 01f7 00       		.uleb128 0
 4234 01f8 A002     		.uleb128 .LEHB88-.LFB1162
 4235 01fa 55       		.uleb128 .LEHE88-.LEHB88
 4236 01fb F006     		.uleb128 .L136-.LFB1162
 4237 01fd 01       		.uleb128 0x1
 4238 01fe 9003     		.uleb128 .LEHB89-.LFB1162
 4239 0200 05       		.uleb128 .LEHE89-.LEHB89
 4240 0201 00       		.uleb128 0
 4241 0202 00       		.uleb128 0
 4242 0203 9503     		.uleb128 .LEHB90-.LFB1162
 4243 0205 55       		.uleb128 .LEHE90-.LEHB90
 4244 0206 DD07     		.uleb128 .L138-.LFB1162
 4245 0208 01       		.uleb128 0x1
 4246 0209 8504     		.uleb128 .LEHB91-.LFB1162
 4247 020b 05       		.uleb128 .LEHE91-.LEHB91
 4248 020c 00       		.uleb128 0
 4249 020d 00       		.uleb128 0
 4250 020e 8A04     		.uleb128 .LEHB92-.LFB1162
 4251 0210 55       		.uleb128 .LEHE92-.LEHB92
 4252 0211 CA08     		.uleb128 .L140-.LFB1162
 4253 0213 01       		.uleb128 0x1
 4254 0214 E904     		.uleb128 .LEHB93-.LFB1162
 4255 0216 14       		.uleb128 .LEHE93-.LEHB93
 4256 0217 00       		.uleb128 0
 4257 0218 00       		.uleb128 0
 4258 0219 A205     		.uleb128 .LEHB94-.LFB1162
 4259 021b 40       		.uleb128 .LEHE94-.LEHB94
 4260 021c EC05     		.uleb128 .L133-.LFB1162
 4261 021e 00       		.uleb128 0
 4262 021f E205     		.uleb128 .LEHB95-.LFB1162
 4263 0221 05       		.uleb128 .LEHE95-.LEHB95
 4264 0222 00       		.uleb128 0
 4265 0223 00       		.uleb128 0
 4266 0224 FE05     		.uleb128 .LEHB96-.LFB1162
 4267 0226 05       		.uleb128 .LEHE96-.LEHB96
 4268 0227 00       		.uleb128 0
 4269 0228 00       		.uleb128 0
 4270 0229 8F06     		.uleb128 .LEHB97-.LFB1162
 4271 022b 40       		.uleb128 .LEHE97-.LEHB97
 4272 022c D906     		.uleb128 .L135-.LFB1162
 4273 022e 00       		.uleb128 0
 4274 022f CF06     		.uleb128 .LEHB98-.LFB1162
 4275 0231 05       		.uleb128 .LEHE98-.LEHB98
 4276 0232 00       		.uleb128 0
 4277 0233 00       		.uleb128 0
 4278 0234 EB06     		.uleb128 .LEHB99-.LFB1162
 4279 0236 05       		.uleb128 .LEHE99-.LEHB99
 4280 0237 00       		.uleb128 0
 4281 0238 00       		.uleb128 0
 4282 0239 FC06     		.uleb128 .LEHB100-.LFB1162
 4283 023b 40       		.uleb128 .LEHE100-.LEHB100
 4284 023c C607     		.uleb128 .L137-.LFB1162
 4285 023e 00       		.uleb128 0
 4286 023f BC07     		.uleb128 .LEHB101-.LFB1162
 4287 0241 05       		.uleb128 .LEHE101-.LEHB101
 4288 0242 00       		.uleb128 0
 4289 0243 00       		.uleb128 0
 4290 0244 D807     		.uleb128 .LEHB102-.LFB1162
 4291 0246 05       		.uleb128 .LEHE102-.LEHB102
 4292 0247 00       		.uleb128 0
 4293 0248 00       		.uleb128 0
 4294 0249 E907     		.uleb128 .LEHB103-.LFB1162
 4295 024b 40       		.uleb128 .LEHE103-.LEHB103
 4296 024c B308     		.uleb128 .L139-.LFB1162
 4297 024e 00       		.uleb128 0
 4298 024f A908     		.uleb128 .LEHB104-.LFB1162
 4299 0251 05       		.uleb128 .LEHE104-.LEHB104
 4300 0252 00       		.uleb128 0
 4301 0253 00       		.uleb128 0
 4302 0254 C508     		.uleb128 .LEHB105-.LFB1162
 4303 0256 05       		.uleb128 .LEHE105-.LEHB105
 4304 0257 00       		.uleb128 0
 4305 0258 00       		.uleb128 0
 4306 0259 D608     		.uleb128 .LEHB106-.LFB1162
 4307 025b 40       		.uleb128 .LEHE106-.LEHB106
 4308 025c A009     		.uleb128 .L141-.LFB1162
 4309 025e 00       		.uleb128 0
 4310 025f 9609     		.uleb128 .LEHB107-.LFB1162
 4311 0261 05       		.uleb128 .LEHE107-.LEHB107
 4312 0262 00       		.uleb128 0
 4313 0263 00       		.uleb128 0
 4314 0264 B209     		.uleb128 .LEHB108-.LFB1162
 4315 0266 05       		.uleb128 .LEHE108-.LEHB108
 4316 0267 00       		.uleb128 0
 4317 0268 00       		.uleb128 0
 4318              	.LLSDACSE1162:
 4319 0269 01       		.byte	0x1
 4320 026a 00       		.byte	0
 4321 026b 00       		.align 4
 4322 026c 00000000 		.long	0
 4323              	
 4324              	.LLSDATT1162:
 4325              		.text
 4327              		.section	.rodata
 4328              	.LC125:
 4329 09d5 20205B25 		.string	"  [%d] %s:%s\n"
 4329      645D2025 
 4329      733A2573 
 4329      0A00
 4330 09e3 00000000 		.align 8
 4330      00
 4331              	.LC126:
 4332 09e8 556E6861 		.string	"Unhandled exception in CHECK_EQUAL(sExpected, sActual)"
 4332      6E646C65 
 4332      64206578 
 4332      63657074 
 4332      696F6E20 
 4333 0a1f 00       		.align 8
 4334              	.LC127:
 4335 0a20 556E6861 		.string	"Unhandled exception in CHECK_EQUAL(expected, actual)"
 4335      6E646C65 
 4335      64206578 
 4335      63657074 
 4335      696F6E20 
 4336              		.text
 4338              	_ZL7compareiPKhS0_:
 4339              	.LFB1163:
 642:testSvf2Csvf.cpp **** 
 643:testSvf2Csvf.cpp **** static void compare(int j, CmdPtr pExpected, CmdPtr pActual) {
 4340              		.loc 3 643 62
 4341              		.cfi_startproc
 4342              		.cfi_personality 0x9b,DW.ref.__gxx_personality_v0
 4343              		.cfi_lsda 0x1b,.LLSDA1163
 4344 2ae4 F30F1EFA 		endbr64
 4345 2ae8 55       		pushq	%rbp
 4346              		.cfi_def_cfa_offset 16
 4347              		.cfi_offset 6, -16
 4348 2ae9 4889E5   		movq	%rsp, %rbp
 4349              		.cfi_def_cfa_register 6
 4350 2aec 53       		pushq	%rbx
 4351 2aed 4883EC78 		subq	$120, %rsp
 4352              		.cfi_offset 3, -24
 4353 2af1 897D9C   		movl	%edi, -100(%rbp)
 4354 2af4 48897590 		movq	%rsi, -112(%rbp)
 4355 2af8 48895588 		movq	%rdx, -120(%rbp)
 4356              		.loc 3 643 62
 4357 2afc 64488B04 		movq	%fs:40, %rax
 4357      25280000 
 4357      00
 4358 2b05 488945E8 		movq	%rax, -24(%rbp)
 4359 2b09 31C0     		xorl	%eax, %eax
 644:testSvf2Csvf.cpp **** 	const char *const sExpected = getCmdName(pExpected);
 4360              		.loc 3 644 42
 4361 2b0b 488B4590 		movq	-112(%rbp), %rax
 4362 2b0f 4889C7   		movq	%rax, %rdi
 4363              	.LEHB109:
 4364 2b12 E8000000 		call	getCmdName@PLT
 4364      00
 4365 2b17 488945B0 		movq	%rax, -80(%rbp)
 645:testSvf2Csvf.cpp **** 	const char *const sActual = getCmdName(pActual);
 4366              		.loc 3 645 40
 4367 2b1b 488B4588 		movq	-120(%rbp), %rax
 4368 2b1f 4889C7   		movq	%rax, %rdi
 4369 2b22 E8000000 		call	getCmdName@PLT
 4369      00
 4370 2b27 488945B8 		movq	%rax, -72(%rbp)
 646:testSvf2Csvf.cpp **** 	uint32 expected = pExpected[0];
 4371              		.loc 3 646 31
 4372 2b2b 488B4590 		movq	-112(%rbp), %rax
 4373 2b2f 0FB600   		movzbl	(%rax), %eax
 4374 2b32 0FB6C0   		movzbl	%al, %eax
 4375              		.loc 3 646 9
 4376 2b35 8945A8   		movl	%eax, -88(%rbp)
 647:testSvf2Csvf.cpp **** 	uint32 actual = pActual[0];
 4377              		.loc 3 647 27
 4378 2b38 488B4588 		movq	-120(%rbp), %rax
 4379 2b3c 0FB600   		movzbl	(%rax), %eax
 4380 2b3f 0FB6C0   		movzbl	%al, %eax
 4381              		.loc 3 647 9
 4382 2b42 8945AC   		movl	%eax, -84(%rbp)
 648:testSvf2Csvf.cpp **** 	printf("  [%d] %s:%s\n", j, sExpected, sActual);
 4383              		.loc 3 648 8
 4384 2b45 488B4DB8 		movq	-72(%rbp), %rcx
 4385 2b49 488B55B0 		movq	-80(%rbp), %rdx
 4386 2b4d 8B459C   		movl	-100(%rbp), %eax
 4387 2b50 89C6     		movl	%eax, %esi
 4388 2b52 488D0500 		leaq	.LC125(%rip), %rax
 4388      000000
 4389 2b59 4889C7   		movq	%rax, %rdi
 4390 2b5c B8000000 		movl	$0, %eax
 4390      00
 4391 2b61 E8000000 		call	printf@PLT
 4391      00
 4392              	.LEHE109:
 4393              	.LEHB110:
 649:testSvf2Csvf.cpp **** 	CHECK_EQUAL(sExpected, sActual);
 4394              		.loc 3 649 2
 4395 2b66 E8000000 		call	_ZN8UnitTest11CurrentTest7DetailsEv@PLT
 4395      00
 4396 2b6b 488B08   		movq	(%rax), %rcx
 4397 2b6e 488D45C0 		leaq	-64(%rbp), %rax
 4398 2b72 BA890200 		movl	$649, %edx
 4398      00
 4399 2b77 4889CE   		movq	%rcx, %rsi
 4400 2b7a 4889C7   		movq	%rax, %rdi
 4401 2b7d E8000000 		call	_ZN8UnitTest11TestDetailsC1ERKS0_i@PLT
 4401      00
 4402              		.loc 3 649 2 is_stmt 0 discriminator 4
 4403 2b82 E8000000 		call	_ZN8UnitTest11CurrentTest7ResultsEv@PLT
 4403      00
 4404 2b87 488B00   		movq	(%rax), %rax
 4405 2b8a 488D4DC0 		leaq	-64(%rbp), %rcx
 4406 2b8e 488B55B8 		movq	-72(%rbp), %rdx
 4407 2b92 488B75B0 		movq	-80(%rbp), %rsi
 4408 2b96 4889C7   		movq	%rax, %rdi
 4409 2b99 E8000000 		call	_ZN8UnitTest10CheckEqualERNS_11TestResultsEPKcS3_RKNS_11TestDetailsE@PLT
 4409      00
 4410              	.LEHE110:
 4411              	.L146:
 650:testSvf2Csvf.cpp **** 	if ( expected == XRUNTEST && actual == XRUNTEST ) {
 4412              		.loc 3 650 16 is_stmt 1
 4413 2b9e 8B45A8   		movl	-88(%rbp), %eax
 4414              		.loc 3 650 2
 4415 2ba1 83F804   		cmpl	$4, %eax
 4416 2ba4 0F853A01 		jne	.L155
 4416      0000
 4417              		.loc 3 650 38 discriminator 1
 4418 2baa 8B45AC   		movl	-84(%rbp), %eax
 4419              		.loc 3 650 28 discriminator 1
 4420 2bad 83F804   		cmpl	$4, %eax
 4421 2bb0 0F852E01 		jne	.L155
 4421      0000
 651:testSvf2Csvf.cpp **** 		expected = readLongBE(pExpected + 1);
 4422              		.loc 3 651 24
 4423 2bb6 488B4590 		movq	-112(%rbp), %rax
 4424 2bba 4883C001 		addq	$1, %rax
 4425 2bbe 4889C7   		movq	%rax, %rdi
 4426              	.LEHB111:
 4427 2bc1 E8000000 		call	readLongBE@PLT
 4427      00
 4428              		.loc 3 651 12
 4429 2bc6 8945A8   		movl	%eax, -88(%rbp)
 652:testSvf2Csvf.cpp **** 		actual = readLongBE(pActual + 1);
 4430              		.loc 3 652 22
 4431 2bc9 488B4588 		movq	-120(%rbp), %rax
 4432 2bcd 4883C001 		addq	$1, %rax
 4433 2bd1 4889C7   		movq	%rax, %rdi
 4434 2bd4 E8000000 		call	readLongBE@PLT
 4434      00
 4435              	.LEHE111:
 4436              		.loc 3 652 10
 4437 2bd9 8945AC   		movl	%eax, -84(%rbp)
 4438              	.LEHB112:
 653:testSvf2Csvf.cpp **** 		CHECK_EQUAL(expected, actual);
 4439              		.loc 3 653 3
 4440 2bdc E8000000 		call	_ZN8UnitTest11CurrentTest7DetailsEv@PLT
 4440      00
 4441 2be1 488B08   		movq	(%rax), %rcx
 4442 2be4 488D45C0 		leaq	-64(%rbp), %rax
 4443 2be8 BA8D0200 		movl	$653, %edx
 4443      00
 4444 2bed 4889CE   		movq	%rcx, %rsi
 4445 2bf0 4889C7   		movq	%rax, %rdi
 4446 2bf3 E8000000 		call	_ZN8UnitTest11TestDetailsC1ERKS0_i@PLT
 4446      00
 4447              		.loc 3 653 3 is_stmt 0 discriminator 4
 4448 2bf8 E8000000 		call	_ZN8UnitTest11CurrentTest7ResultsEv@PLT
 4448      00
 4449 2bfd 488B00   		movq	(%rax), %rax
 4450 2c00 488D4DC0 		leaq	-64(%rbp), %rcx
 4451 2c04 488D55AC 		leaq	-84(%rbp), %rdx
 4452 2c08 488D75A8 		leaq	-88(%rbp), %rsi
 4453 2c0c 4889C7   		movq	%rax, %rdi
 4454 2c0f E8000000 		call	_ZN8UnitTest10CheckEqualIjjEEvRNS_11TestResultsERKT_RKT0_RKNS_11TestDetailsE
 4454      00
 4455              	.LEHE112:
 654:testSvf2Csvf.cpp **** 	}
 655:testSvf2Csvf.cpp **** }
 4456              		.loc 3 655 1 is_stmt 1
 4457 2c14 E9CB0000 		jmp	.L155
 4457      00
 4458              	.L151:
 4459 2c19 F30F1EFA 		endbr64
 649:testSvf2Csvf.cpp **** 	if ( expected == XRUNTEST && actual == XRUNTEST ) {
 4460              		.loc 3 649 2
 4461 2c1d 4889C7   		movq	%rax, %rdi
 4462 2c20 E8000000 		call	__cxa_begin_catch@PLT
 4462      00
 4463              	.LEHB113:
 4464 2c25 E8000000 		call	_ZN8UnitTest11CurrentTest7ResultsEv@PLT
 4464      00
 649:testSvf2Csvf.cpp **** 	if ( expected == XRUNTEST && actual == XRUNTEST ) {
 4465              		.loc 3 649 2 is_stmt 0 discriminator 3
 4466 2c2a 488B18   		movq	(%rax), %rbx
 4467 2c2d E8000000 		call	_ZN8UnitTest11CurrentTest7DetailsEv@PLT
 4467      00
 649:testSvf2Csvf.cpp **** 	if ( expected == XRUNTEST && actual == XRUNTEST ) {
 4468              		.loc 3 649 2 discriminator 11
 4469 2c32 488B08   		movq	(%rax), %rcx
 4470 2c35 488D45C0 		leaq	-64(%rbp), %rax
 4471 2c39 BA890200 		movl	$649, %edx
 4471      00
 4472 2c3e 4889CE   		movq	%rcx, %rsi
 4473 2c41 4889C7   		movq	%rax, %rdi
 4474 2c44 E8000000 		call	_ZN8UnitTest11TestDetailsC1ERKS0_i@PLT
 4474      00
 649:testSvf2Csvf.cpp **** 	if ( expected == XRUNTEST && actual == XRUNTEST ) {
 4475              		.loc 3 649 2 discriminator 15
 4476 2c49 488D45C0 		leaq	-64(%rbp), %rax
 4477 2c4d 488D1500 		leaq	.LC126(%rip), %rdx
 4477      000000
 4478 2c54 4889C6   		movq	%rax, %rsi
 4479 2c57 4889DF   		movq	%rbx, %rdi
 4480 2c5a E8000000 		call	_ZN8UnitTest11TestResults13OnTestFailureERKNS_11TestDetailsEPKc@PLT
 4480      00
 4481              	.LEHE113:
 4482              	.LEHB114:
 649:testSvf2Csvf.cpp **** 	if ( expected == XRUNTEST && actual == XRUNTEST ) {
 4483              		.loc 3 649 2 discriminator 17
 4484 2c5f E8000000 		call	__cxa_end_catch@PLT
 4484      00
 4485              	.LEHE114:
 4486 2c64 E935FFFF 		jmp	.L146
 4486      FF
 4487              	.L152:
 4488 2c69 F30F1EFA 		endbr64
 649:testSvf2Csvf.cpp **** 	if ( expected == XRUNTEST && actual == XRUNTEST ) {
 4489              		.loc 3 649 2
 4490 2c6d 4889C3   		movq	%rax, %rbx
 4491 2c70 E8000000 		call	__cxa_end_catch@PLT
 4491      00
 4492 2c75 4889D8   		movq	%rbx, %rax
 4493 2c78 4889C7   		movq	%rax, %rdi
 4494              	.LEHB115:
 4495 2c7b E8000000 		call	_Unwind_Resume@PLT
 4495      00
 4496              	.LEHE115:
 4497              	.L153:
 4498 2c80 F30F1EFA 		endbr64
 653:testSvf2Csvf.cpp **** 		CHECK_EQUAL(expected, actual);
 4499              		.loc 3 653 3 is_stmt 1
 4500 2c84 4889C7   		movq	%rax, %rdi
 4501 2c87 E8000000 		call	__cxa_begin_catch@PLT
 4501      00
 4502              	.LEHB116:
 4503 2c8c E8000000 		call	_ZN8UnitTest11CurrentTest7ResultsEv@PLT
 4503      00
 653:testSvf2Csvf.cpp **** 		CHECK_EQUAL(expected, actual);
 4504              		.loc 3 653 3 is_stmt 0 discriminator 3
 4505 2c91 488B18   		movq	(%rax), %rbx
 4506 2c94 E8000000 		call	_ZN8UnitTest11CurrentTest7DetailsEv@PLT
 4506      00
 653:testSvf2Csvf.cpp **** 		CHECK_EQUAL(expected, actual);
 4507              		.loc 3 653 3 discriminator 11
 4508 2c99 488B08   		movq	(%rax), %rcx
 4509 2c9c 488D45C0 		leaq	-64(%rbp), %rax
 4510 2ca0 BA8D0200 		movl	$653, %edx
 4510      00
 4511 2ca5 4889CE   		movq	%rcx, %rsi
 4512 2ca8 4889C7   		movq	%rax, %rdi
 4513 2cab E8000000 		call	_ZN8UnitTest11TestDetailsC1ERKS0_i@PLT
 4513      00
 653:testSvf2Csvf.cpp **** 		CHECK_EQUAL(expected, actual);
 4514              		.loc 3 653 3 discriminator 15
 4515 2cb0 488D45C0 		leaq	-64(%rbp), %rax
 4516 2cb4 488D1500 		leaq	.LC127(%rip), %rdx
 4516      000000
 4517 2cbb 4889C6   		movq	%rax, %rsi
 4518 2cbe 4889DF   		movq	%rbx, %rdi
 4519 2cc1 E8000000 		call	_ZN8UnitTest11TestResults13OnTestFailureERKNS_11TestDetailsEPKc@PLT
 4519      00
 4520              	.LEHE116:
 4521              	.LEHB117:
 653:testSvf2Csvf.cpp **** 		CHECK_EQUAL(expected, actual);
 4522              		.loc 3 653 3 discriminator 17
 4523 2cc6 E8000000 		call	__cxa_end_catch@PLT
 4523      00
 4524              	.LEHE117:
 4525              		.loc 3 655 1 is_stmt 1 discriminator 17
 4526 2ccb EB17     		jmp	.L155
 4527              	.L154:
 4528 2ccd F30F1EFA 		endbr64
 653:testSvf2Csvf.cpp **** 		CHECK_EQUAL(expected, actual);
 4529              		.loc 3 653 3
 4530 2cd1 4889C3   		movq	%rax, %rbx
 4531 2cd4 E8000000 		call	__cxa_end_catch@PLT
 4531      00
 4532 2cd9 4889D8   		movq	%rbx, %rax
 4533 2cdc 4889C7   		movq	%rax, %rdi
 4534              	.LEHB118:
 4535 2cdf E8000000 		call	_Unwind_Resume@PLT
 4535      00
 4536              	.LEHE118:
 4537              	.L155:
 4538              		.loc 3 655 1
 4539 2ce4 90       		nop
 4540 2ce5 488B45E8 		movq	-24(%rbp), %rax
 4541 2ce9 64482B04 		subq	%fs:40, %rax
 4541      25280000 
 4541      00
 4542 2cf2 7405     		je	.L150
 4543 2cf4 E8000000 		call	__stack_chk_fail@PLT
 4543      00
 4544              	.L150:
 4545 2cf9 488B5DF8 		movq	-8(%rbp), %rbx
 4546 2cfd C9       		leave
 4547              		.cfi_def_cfa 7, 8
 4548 2cfe C3       		ret
 4549              		.cfi_endproc
 4550              	.LFE1163:
 4551              		.section	.gcc_except_table
 4552              		.align 4
 4553              	.LLSDA1163:
 4554 0270 FF       		.byte	0xff
 4555 0271 9B       		.byte	0x9b
 4556 0272 3D       		.uleb128 .LLSDATT1163-.LLSDATTD1163
 4557              	.LLSDATTD1163:
 4558 0273 01       		.byte	0x1
 4559 0274 35       		.uleb128 .LLSDACSE1163-.LLSDACSB1163
 4560              	.LLSDACSB1163:
 4561 0275 2E       		.uleb128 .LEHB109-.LFB1163
 4562 0276 54       		.uleb128 .LEHE109-.LEHB109
 4563 0277 00       		.uleb128 0
 4564 0278 00       		.uleb128 0
 4565 0279 8201     		.uleb128 .LEHB110-.LFB1163
 4566 027b 38       		.uleb128 .LEHE110-.LEHB110
 4567 027c B502     		.uleb128 .L151-.LFB1163
 4568 027e 01       		.uleb128 0x1
 4569 027f DD01     		.uleb128 .LEHB111-.LFB1163
 4570 0281 18       		.uleb128 .LEHE111-.LEHB111
 4571 0282 00       		.uleb128 0
 4572 0283 00       		.uleb128 0
 4573 0284 F801     		.uleb128 .LEHB112-.LFB1163
 4574 0286 38       		.uleb128 .LEHE112-.LEHB112
 4575 0287 9C03     		.uleb128 .L153-.LFB1163
 4576 0289 01       		.uleb128 0x1
 4577 028a C102     		.uleb128 .LEHB113-.LFB1163
 4578 028c 3A       		.uleb128 .LEHE113-.LEHB113
 4579 028d 8503     		.uleb128 .L152-.LFB1163
 4580 028f 00       		.uleb128 0
 4581 0290 FB02     		.uleb128 .LEHB114-.LFB1163
 4582 0292 05       		.uleb128 .LEHE114-.LEHB114
 4583 0293 00       		.uleb128 0
 4584 0294 00       		.uleb128 0
 4585 0295 9703     		.uleb128 .LEHB115-.LFB1163
 4586 0297 05       		.uleb128 .LEHE115-.LEHB115
 4587 0298 00       		.uleb128 0
 4588 0299 00       		.uleb128 0
 4589 029a A803     		.uleb128 .LEHB116-.LFB1163
 4590 029c 3A       		.uleb128 .LEHE116-.LEHB116
 4591 029d E903     		.uleb128 .L154-.LFB1163
 4592 029f 00       		.uleb128 0
 4593 02a0 E203     		.uleb128 .LEHB117-.LFB1163
 4594 02a2 05       		.uleb128 .LEHE117-.LEHB117
 4595 02a3 00       		.uleb128 0
 4596 02a4 00       		.uleb128 0
 4597 02a5 FB03     		.uleb128 .LEHB118-.LFB1163
 4598 02a7 05       		.uleb128 .LEHE118-.LEHB118
 4599 02a8 00       		.uleb128 0
 4600 02a9 00       		.uleb128 0
 4601              	.LLSDACSE1163:
 4602 02aa 01       		.byte	0x1
 4603 02ab 00       		.byte	0
 4604              		.align 4
 4605 02ac 00000000 		.long	0
 4606              	
 4607              	.LLSDATT1163:
 4608              		.text
 4610              		.section	.rodata
 4611              	.LC128:
 4612 0a55 46504741 		.string	"FPGALink_testProcessIndex"
 4612      4C696E6B 
 4612      5F746573 
 4612      7450726F 
 4612      63657373 
 4613              		.section	.text._ZN29TestFPGALink_testProcessIndexC2Ev,"axG",@progbits,_ZN29TestFPGALink_testProces
 4614              		.align 2
 4615              		.weak	_ZN29TestFPGALink_testProcessIndexC2Ev
 4617              	_ZN29TestFPGALink_testProcessIndexC2Ev:
 4618              	.LFB1165:
 656:testSvf2Csvf.cpp **** 
 657:testSvf2Csvf.cpp **** TEST(FPGALink_testProcessIndex) {
 4619              		.loc 3 657 1
 4620              		.cfi_startproc
 4621 0000 F30F1EFA 		endbr64
 4622 0004 55       		pushq	%rbp
 4623              		.cfi_def_cfa_offset 16
 4624              		.cfi_offset 6, -16
 4625 0005 4889E5   		movq	%rsp, %rbp
 4626              		.cfi_def_cfa_register 6
 4627 0008 53       		pushq	%rbx
 4628 0009 4883EC18 		subq	$24, %rsp
 4629              		.cfi_offset 3, -24
 4630 000d 48897DE8 		movq	%rdi, -24(%rbp)
 4631              	.LBB9:
 4632              		.loc 3 657 1
 4633 0011 488B5DE8 		movq	-24(%rbp), %rbx
 4634 0015 E8000000 		call	_ZN13UnitTestSuite12GetSuiteNameEv
 4634      00
 4635 001a 4889C2   		movq	%rax, %rdx
 4636 001d 41B89102 		movl	$657, %r8d
 4636      0000
 4637 0023 488D0500 		leaq	.LC5(%rip), %rax
 4637      000000
 4638 002a 4889C1   		movq	%rax, %rcx
 4639 002d 488D0500 		leaq	.LC128(%rip), %rax
 4639      000000
 4640 0034 4889C6   		movq	%rax, %rsi
 4641 0037 4889DF   		movq	%rbx, %rdi
 4642 003a E8000000 		call	_ZN8UnitTest4TestC2EPKcS2_S2_i@PLT
 4642      00
 4643 003f 488D1500 		leaq	16+_ZTV29TestFPGALink_testProcessIndex(%rip), %rdx
 4643      000000
 4644 0046 488B45E8 		movq	-24(%rbp), %rax
 4645 004a 488910   		movq	%rdx, (%rax)
 4646              	.LBE9:
 4647 004d 90       		nop
 4648 004e 488B5DF8 		movq	-8(%rbp), %rbx
 4649 0052 C9       		leave
 4650              		.cfi_def_cfa 7, 8
 4651 0053 C3       		ret
 4652              		.cfi_endproc
 4653              	.LFE1165:
 4655              		.weak	_ZN29TestFPGALink_testProcessIndexC1Ev
 4656              		.set	_ZN29TestFPGALink_testProcessIndexC1Ev,_ZN29TestFPGALink_testProcessIndexC2Ev
 4657              		.globl	testFPGALink_testProcessIndexInstance
 4658              		.bss
 4659 00b9 00000000 		.align 32
 4659      000000
 4662              	testFPGALink_testProcessIndexInstance:
 4663 00c0 00000000 		.zero	56
 4663      00000000 
 4663      00000000 
 4663      00000000 
 4663      00000000 
 4664              		.globl	adderFPGALink_testProcessIndex
 4667              	adderFPGALink_testProcessIndex:
 4668 00f8 00       		.zero	1
 4669              		.section	.rodata
 4670              	.LC129:
 4671 0a6f 44617461 		.string	"Dataset %d\n"
 4671      73657420 
 4671      25640A00 
 4672              	.LC130:
 4673 0a7b 2A2A7045 		.string	"**pExpected == XCOMPLETE"
 4673      78706563 
 4673      74656420 
 4673      3D3D2058 
 4673      434F4D50 
 4674              	.LC131:
 4675 0a94 2A2A7041 		.string	"**pActual == XCOMPLETE"
 4675      63747561 
 4675      6C203D3D 
 4675      2058434F 
 4675      4D504C45 
 4676 0aab 00000000 		.align 8
 4676      00
 4677              	.LC132:
 4678 0ab0 556E6861 		.string	"Unhandled exception in CHECK(**pExpected == XCOMPLETE)"
 4678      6E646C65 
 4678      64206578 
 4678      63657074 
 4678      696F6E20 
 4679 0ae7 00       		.align 8
 4680              	.LC133:
 4681 0ae8 556E6861 		.string	"Unhandled exception in CHECK(**pActual == XCOMPLETE)"
 4681      6E646C65 
 4681      64206578 
 4681      63657074 
 4681      696F6E20 
 4682              		.text
 4683 2cff 90       		.align 2
 4684              		.globl	_ZNK29TestFPGALink_testProcessIndex7RunImplEv
 4686              	_ZNK29TestFPGALink_testProcessIndex7RunImplEv:
 4687              	.LFB1167:
 4688              		.loc 3 657 33
 4689              		.cfi_startproc
 4690              		.cfi_personality 0x9b,DW.ref.__gxx_personality_v0
 4691              		.cfi_lsda 0x1b,.LLSDA1167
 4692 2d00 F30F1EFA 		endbr64
 4693 2d04 55       		pushq	%rbp
 4694              		.cfi_def_cfa_offset 16
 4695              		.cfi_offset 6, -16
 4696 2d05 4889E5   		movq	%rsp, %rbp
 4697              		.cfi_def_cfa_register 6
 4698 2d08 53       		pushq	%rbx
 4699 2d09 4881EC00 		subq	$4096, %rsp
 4699      100000
 4700 2d10 48830C24 		orq	$0, (%rsp)
 4700      00
 4701 2d15 4881EC00 		subq	$4096, %rsp
 4701      100000
 4702 2d1c 48830C24 		orq	$0, (%rsp)
 4702      00
 4703 2d21 4881ECE8 		subq	$1256, %rsp
 4703      040000
 4704              		.cfi_offset 3, -24
 4705 2d28 4889BD18 		movq	%rdi, -9448(%rbp)
 4705      DBFFFF
 4706              		.loc 3 657 33
 4707 2d2f 64488B04 		movq	%fs:40, %rax
 4707      25280000 
 4707      00
 4708 2d38 488945E8 		movq	%rax, -24(%rbp)
 4709 2d3c 31C0     		xorl	%eax, %eax
 658:testSvf2Csvf.cpp **** 	int i, j, num;
 659:testSvf2Csvf.cpp **** 	const CmdPtr *pExpected;
 660:testSvf2Csvf.cpp **** 	const CmdPtr *pActual;
 661:testSvf2Csvf.cpp **** 	CmdArray xruntest0  = {XRUNTEST, 0x00, 0x00, 0x00, 0x00};
 4710              		.loc 3 661 11
 4711 2d3e C745D904 		movl	$4, -39(%rbp)
 4711      000000
 4712 2d45 C645DD00 		movb	$0, -35(%rbp)
 662:testSvf2Csvf.cpp **** 	CmdArray xruntest1  = {XRUNTEST, 0x00, 0x00, 0x00, 0x0A};
 4713              		.loc 3 662 11
 4714 2d49 C745DE04 		movl	$4, -34(%rbp)
 4714      000000
 4715 2d50 C645E20A 		movb	$10, -30(%rbp)
 663:testSvf2Csvf.cpp **** 	CmdArray xruntest2  = {XRUNTEST, 0x00, 0x00, 0x27, 0x10};
 4716              		.loc 3 663 11
 4717 2d54 C745E304 		movl	$654311428, -29(%rbp)
 4717      000027
 4718 2d5b C645E710 		movb	$16, -25(%rbp)
 664:testSvf2Csvf.cpp **** 	CmdArray xcomplete = {XCOMPLETE};
 4719              		.loc 3 664 11
 4720 2d5f C645D300 		movb	$0, -45(%rbp)
 665:testSvf2Csvf.cpp **** 	CmdArray xsdr      = {XSDR};
 4721              		.loc 3 665 11
 4722 2d63 C645D403 		movb	$3, -44(%rbp)
 666:testSvf2Csvf.cpp **** 	CmdArray xsdrsize  = {XSDRSIZE};
 4723              		.loc 3 666 11
 4724 2d67 C645D508 		movb	$8, -43(%rbp)
 667:testSvf2Csvf.cpp **** 	CmdArray xsdrtdo   = {XSDRTDO};
 4725              		.loc 3 667 11
 4726 2d6b C645D609 		movb	$9, -42(%rbp)
 668:testSvf2Csvf.cpp **** 	CmdArray xsir      = {XSIR};
 4727              		.loc 3 668 11
 4728 2d6f C645D702 		movb	$2, -41(%rbp)
 669:testSvf2Csvf.cpp **** 	CmdArray xtdomask  = {XTDOMASK};
 4729              		.loc 3 669 11
 4730 2d73 C645D801 		movb	$1, -40(%rbp)
 670:testSvf2Csvf.cpp **** 	const CmdPtr src0[] = {
 671:testSvf2Csvf.cpp **** 		xsir,
 672:testSvf2Csvf.cpp **** 		xsdrsize,
 673:testSvf2Csvf.cpp **** 		xtdomask,
 674:testSvf2Csvf.cpp **** 		xsdrtdo,
 675:testSvf2Csvf.cpp **** 		xsir,
 676:testSvf2Csvf.cpp **** 		xsdrtdo,
 677:testSvf2Csvf.cpp **** 		xsir,
 678:testSvf2Csvf.cpp **** 		xsdrtdo,
 679:testSvf2Csvf.cpp **** 		xsir,
 680:testSvf2Csvf.cpp **** 		xsir,
 681:testSvf2Csvf.cpp **** 		xsdrtdo,
 682:testSvf2Csvf.cpp **** 		xsir,
 683:testSvf2Csvf.cpp **** 		xruntest1,
 684:testSvf2Csvf.cpp **** 		xsir,
 685:testSvf2Csvf.cpp **** 		xsir,
 686:testSvf2Csvf.cpp **** 		xruntest2,
 687:testSvf2Csvf.cpp **** 		xsir,
 688:testSvf2Csvf.cpp **** 		xsdrsize,
 689:testSvf2Csvf.cpp **** 		xsdr,
 690:testSvf2Csvf.cpp **** 		xruntest1,
 691:testSvf2Csvf.cpp **** 		xsir,
 692:testSvf2Csvf.cpp **** 		xsdrsize,
 693:testSvf2Csvf.cpp **** 		xsdr,
 694:testSvf2Csvf.cpp **** 		xsdr,
 695:testSvf2Csvf.cpp **** 		xsdr,
 696:testSvf2Csvf.cpp **** 		xsdr,
 697:testSvf2Csvf.cpp **** 		xsdr,
 698:testSvf2Csvf.cpp **** 		xsdr,
 699:testSvf2Csvf.cpp **** 		xsdr,
 700:testSvf2Csvf.cpp **** 		xsdr,
 701:testSvf2Csvf.cpp **** 		xsdr,
 702:testSvf2Csvf.cpp **** 		xsdr,
 703:testSvf2Csvf.cpp **** 		xcomplete
 704:testSvf2Csvf.cpp **** 	};
 4731              		.loc 3 704 2
 4732 2d77 488D45D7 		leaq	-41(%rbp), %rax
 4733 2d7b 48898590 		movq	%rax, -8816(%rbp)
 4733      DDFFFF
 4734 2d82 488D45D5 		leaq	-43(%rbp), %rax
 4735 2d86 48898598 		movq	%rax, -8808(%rbp)
 4735      DDFFFF
 4736 2d8d 488D45D8 		leaq	-40(%rbp), %rax
 4737 2d91 488985A0 		movq	%rax, -8800(%rbp)
 4737      DDFFFF
 4738 2d98 488D45D6 		leaq	-42(%rbp), %rax
 4739 2d9c 488985A8 		movq	%rax, -8792(%rbp)
 4739      DDFFFF
 4740 2da3 488D45D7 		leaq	-41(%rbp), %rax
 4741 2da7 488985B0 		movq	%rax, -8784(%rbp)
 4741      DDFFFF
 4742 2dae 488D45D6 		leaq	-42(%rbp), %rax
 4743 2db2 488985B8 		movq	%rax, -8776(%rbp)
 4743      DDFFFF
 4744 2db9 488D45D7 		leaq	-41(%rbp), %rax
 4745 2dbd 488985C0 		movq	%rax, -8768(%rbp)
 4745      DDFFFF
 4746 2dc4 488D45D6 		leaq	-42(%rbp), %rax
 4747 2dc8 488985C8 		movq	%rax, -8760(%rbp)
 4747      DDFFFF
 4748 2dcf 488D45D7 		leaq	-41(%rbp), %rax
 4749 2dd3 488985D0 		movq	%rax, -8752(%rbp)
 4749      DDFFFF
 4750 2dda 488D45D7 		leaq	-41(%rbp), %rax
 4751 2dde 488985D8 		movq	%rax, -8744(%rbp)
 4751      DDFFFF
 4752 2de5 488D45D6 		leaq	-42(%rbp), %rax
 4753 2de9 488985E0 		movq	%rax, -8736(%rbp)
 4753      DDFFFF
 4754 2df0 488D45D7 		leaq	-41(%rbp), %rax
 4755 2df4 488985E8 		movq	%rax, -8728(%rbp)
 4755      DDFFFF
 4756 2dfb 488D45DE 		leaq	-34(%rbp), %rax
 4757 2dff 488985F0 		movq	%rax, -8720(%rbp)
 4757      DDFFFF
 4758 2e06 488D45D7 		leaq	-41(%rbp), %rax
 4759 2e0a 488985F8 		movq	%rax, -8712(%rbp)
 4759      DDFFFF
 4760 2e11 488D45D7 		leaq	-41(%rbp), %rax
 4761 2e15 48898500 		movq	%rax, -8704(%rbp)
 4761      DEFFFF
 4762 2e1c 488D45E3 		leaq	-29(%rbp), %rax
 4763 2e20 48898508 		movq	%rax, -8696(%rbp)
 4763      DEFFFF
 4764 2e27 488D45D7 		leaq	-41(%rbp), %rax
 4765 2e2b 48898510 		movq	%rax, -8688(%rbp)
 4765      DEFFFF
 4766 2e32 488D45D5 		leaq	-43(%rbp), %rax
 4767 2e36 48898518 		movq	%rax, -8680(%rbp)
 4767      DEFFFF
 4768 2e3d 488D45D4 		leaq	-44(%rbp), %rax
 4769 2e41 48898520 		movq	%rax, -8672(%rbp)
 4769      DEFFFF
 4770 2e48 488D45DE 		leaq	-34(%rbp), %rax
 4771 2e4c 48898528 		movq	%rax, -8664(%rbp)
 4771      DEFFFF
 4772 2e53 488D45D7 		leaq	-41(%rbp), %rax
 4773 2e57 48898530 		movq	%rax, -8656(%rbp)
 4773      DEFFFF
 4774 2e5e 488D45D5 		leaq	-43(%rbp), %rax
 4775 2e62 48898538 		movq	%rax, -8648(%rbp)
 4775      DEFFFF
 4776 2e69 488D45D4 		leaq	-44(%rbp), %rax
 4777 2e6d 48898540 		movq	%rax, -8640(%rbp)
 4777      DEFFFF
 4778 2e74 488D45D4 		leaq	-44(%rbp), %rax
 4779 2e78 48898548 		movq	%rax, -8632(%rbp)
 4779      DEFFFF
 4780 2e7f 488D45D4 		leaq	-44(%rbp), %rax
 4781 2e83 48898550 		movq	%rax, -8624(%rbp)
 4781      DEFFFF
 4782 2e8a 488D45D4 		leaq	-44(%rbp), %rax
 4783 2e8e 48898558 		movq	%rax, -8616(%rbp)
 4783      DEFFFF
 4784 2e95 488D45D4 		leaq	-44(%rbp), %rax
 4785 2e99 48898560 		movq	%rax, -8608(%rbp)
 4785      DEFFFF
 4786 2ea0 488D45D4 		leaq	-44(%rbp), %rax
 4787 2ea4 48898568 		movq	%rax, -8600(%rbp)
 4787      DEFFFF
 4788 2eab 488D45D4 		leaq	-44(%rbp), %rax
 4789 2eaf 48898570 		movq	%rax, -8592(%rbp)
 4789      DEFFFF
 4790 2eb6 488D45D4 		leaq	-44(%rbp), %rax
 4791 2eba 48898578 		movq	%rax, -8584(%rbp)
 4791      DEFFFF
 4792 2ec1 488D45D4 		leaq	-44(%rbp), %rax
 4793 2ec5 48898580 		movq	%rax, -8576(%rbp)
 4793      DEFFFF
 4794 2ecc 488D45D4 		leaq	-44(%rbp), %rax
 4795 2ed0 48898588 		movq	%rax, -8568(%rbp)
 4795      DEFFFF
 4796 2ed7 488D45D3 		leaq	-45(%rbp), %rax
 4797 2edb 48898590 		movq	%rax, -8560(%rbp)
 4797      DEFFFF
 705:testSvf2Csvf.cpp **** 	const CmdPtr exp0[] = {
 706:testSvf2Csvf.cpp **** 		xruntest0,
 707:testSvf2Csvf.cpp **** 		xsir,
 708:testSvf2Csvf.cpp **** 		xsdrsize,
 709:testSvf2Csvf.cpp **** 		xtdomask,
 710:testSvf2Csvf.cpp **** 		xsdrtdo,
 711:testSvf2Csvf.cpp **** 		xsir,
 712:testSvf2Csvf.cpp **** 		xsdrtdo,
 713:testSvf2Csvf.cpp **** 		xsir,
 714:testSvf2Csvf.cpp **** 		xsdrtdo,
 715:testSvf2Csvf.cpp **** 		xsir,
 716:testSvf2Csvf.cpp **** 		xsir,
 717:testSvf2Csvf.cpp **** 		xsdrtdo,
 718:testSvf2Csvf.cpp **** 		xruntest1,
 719:testSvf2Csvf.cpp **** 		xsir,
 720:testSvf2Csvf.cpp **** 		xruntest0,
 721:testSvf2Csvf.cpp **** 		xsir,
 722:testSvf2Csvf.cpp **** 		xruntest2,
 723:testSvf2Csvf.cpp **** 		xsir,
 724:testSvf2Csvf.cpp **** 		xruntest0,
 725:testSvf2Csvf.cpp **** 		xsir,
 726:testSvf2Csvf.cpp **** 		xruntest1,
 727:testSvf2Csvf.cpp **** 		xsdrsize,
 728:testSvf2Csvf.cpp **** 		xsdr,
 729:testSvf2Csvf.cpp **** 		xruntest0,
 730:testSvf2Csvf.cpp **** 		xsir,
 731:testSvf2Csvf.cpp **** 		xsdrsize,
 732:testSvf2Csvf.cpp **** 		xsdr,
 733:testSvf2Csvf.cpp **** 		xsdr,
 734:testSvf2Csvf.cpp **** 		xsdr,
 735:testSvf2Csvf.cpp **** 		xsdr,
 736:testSvf2Csvf.cpp **** 		xsdr,
 737:testSvf2Csvf.cpp **** 		xsdr,
 738:testSvf2Csvf.cpp **** 		xsdr,
 739:testSvf2Csvf.cpp **** 		xsdr,
 740:testSvf2Csvf.cpp **** 		xsdr,
 741:testSvf2Csvf.cpp **** 		xsdr,
 742:testSvf2Csvf.cpp **** 		xcomplete
 743:testSvf2Csvf.cpp **** 	};
 4798              		.loc 3 743 2
 4799 2ee2 488D45D9 		leaq	-39(%rbp), %rax
 4800 2ee6 488985A0 		movq	%rax, -8544(%rbp)
 4800      DEFFFF
 4801 2eed 488D45D7 		leaq	-41(%rbp), %rax
 4802 2ef1 488985A8 		movq	%rax, -8536(%rbp)
 4802      DEFFFF
 4803 2ef8 488D45D5 		leaq	-43(%rbp), %rax
 4804 2efc 488985B0 		movq	%rax, -8528(%rbp)
 4804      DEFFFF
 4805 2f03 488D45D8 		leaq	-40(%rbp), %rax
 4806 2f07 488985B8 		movq	%rax, -8520(%rbp)
 4806      DEFFFF
 4807 2f0e 488D45D6 		leaq	-42(%rbp), %rax
 4808 2f12 488985C0 		movq	%rax, -8512(%rbp)
 4808      DEFFFF
 4809 2f19 488D45D7 		leaq	-41(%rbp), %rax
 4810 2f1d 488985C8 		movq	%rax, -8504(%rbp)
 4810      DEFFFF
 4811 2f24 488D45D6 		leaq	-42(%rbp), %rax
 4812 2f28 488985D0 		movq	%rax, -8496(%rbp)
 4812      DEFFFF
 4813 2f2f 488D45D7 		leaq	-41(%rbp), %rax
 4814 2f33 488985D8 		movq	%rax, -8488(%rbp)
 4814      DEFFFF
 4815 2f3a 488D45D6 		leaq	-42(%rbp), %rax
 4816 2f3e 488985E0 		movq	%rax, -8480(%rbp)
 4816      DEFFFF
 4817 2f45 488D45D7 		leaq	-41(%rbp), %rax
 4818 2f49 488985E8 		movq	%rax, -8472(%rbp)
 4818      DEFFFF
 4819 2f50 488D45D7 		leaq	-41(%rbp), %rax
 4820 2f54 488985F0 		movq	%rax, -8464(%rbp)
 4820      DEFFFF
 4821 2f5b 488D45D6 		leaq	-42(%rbp), %rax
 4822 2f5f 488985F8 		movq	%rax, -8456(%rbp)
 4822      DEFFFF
 4823 2f66 488D45DE 		leaq	-34(%rbp), %rax
 4824 2f6a 48898500 		movq	%rax, -8448(%rbp)
 4824      DFFFFF
 4825 2f71 488D45D7 		leaq	-41(%rbp), %rax
 4826 2f75 48898508 		movq	%rax, -8440(%rbp)
 4826      DFFFFF
 4827 2f7c 488D45D9 		leaq	-39(%rbp), %rax
 4828 2f80 48898510 		movq	%rax, -8432(%rbp)
 4828      DFFFFF
 4829 2f87 488D45D7 		leaq	-41(%rbp), %rax
 4830 2f8b 48898518 		movq	%rax, -8424(%rbp)
 4830      DFFFFF
 4831 2f92 488D45E3 		leaq	-29(%rbp), %rax
 4832 2f96 48898520 		movq	%rax, -8416(%rbp)
 4832      DFFFFF
 4833 2f9d 488D45D7 		leaq	-41(%rbp), %rax
 4834 2fa1 48898528 		movq	%rax, -8408(%rbp)
 4834      DFFFFF
 4835 2fa8 488D45D9 		leaq	-39(%rbp), %rax
 4836 2fac 48898530 		movq	%rax, -8400(%rbp)
 4836      DFFFFF
 4837 2fb3 488D45D7 		leaq	-41(%rbp), %rax
 4838 2fb7 48898538 		movq	%rax, -8392(%rbp)
 4838      DFFFFF
 4839 2fbe 488D45DE 		leaq	-34(%rbp), %rax
 4840 2fc2 48898540 		movq	%rax, -8384(%rbp)
 4840      DFFFFF
 4841 2fc9 488D45D5 		leaq	-43(%rbp), %rax
 4842 2fcd 48898548 		movq	%rax, -8376(%rbp)
 4842      DFFFFF
 4843 2fd4 488D45D4 		leaq	-44(%rbp), %rax
 4844 2fd8 48898550 		movq	%rax, -8368(%rbp)
 4844      DFFFFF
 4845 2fdf 488D45D9 		leaq	-39(%rbp), %rax
 4846 2fe3 48898558 		movq	%rax, -8360(%rbp)
 4846      DFFFFF
 4847 2fea 488D45D7 		leaq	-41(%rbp), %rax
 4848 2fee 48898560 		movq	%rax, -8352(%rbp)
 4848      DFFFFF
 4849 2ff5 488D45D5 		leaq	-43(%rbp), %rax
 4850 2ff9 48898568 		movq	%rax, -8344(%rbp)
 4850      DFFFFF
 4851 3000 488D45D4 		leaq	-44(%rbp), %rax
 4852 3004 48898570 		movq	%rax, -8336(%rbp)
 4852      DFFFFF
 4853 300b 488D45D4 		leaq	-44(%rbp), %rax
 4854 300f 48898578 		movq	%rax, -8328(%rbp)
 4854      DFFFFF
 4855 3016 488D45D4 		leaq	-44(%rbp), %rax
 4856 301a 48898580 		movq	%rax, -8320(%rbp)
 4856      DFFFFF
 4857 3021 488D45D4 		leaq	-44(%rbp), %rax
 4858 3025 48898588 		movq	%rax, -8312(%rbp)
 4858      DFFFFF
 4859 302c 488D45D4 		leaq	-44(%rbp), %rax
 4860 3030 48898590 		movq	%rax, -8304(%rbp)
 4860      DFFFFF
 4861 3037 488D45D4 		leaq	-44(%rbp), %rax
 4862 303b 48898598 		movq	%rax, -8296(%rbp)
 4862      DFFFFF
 4863 3042 488D45D4 		leaq	-44(%rbp), %rax
 4864 3046 488985A0 		movq	%rax, -8288(%rbp)
 4864      DFFFFF
 4865 304d 488D45D4 		leaq	-44(%rbp), %rax
 4866 3051 488985A8 		movq	%rax, -8280(%rbp)
 4866      DFFFFF
 4867 3058 488D45D4 		leaq	-44(%rbp), %rax
 4868 305c 488985B0 		movq	%rax, -8272(%rbp)
 4868      DFFFFF
 4869 3063 488D45D4 		leaq	-44(%rbp), %rax
 4870 3067 488985B8 		movq	%rax, -8264(%rbp)
 4870      DFFFFF
 4871 306e 488D45D3 		leaq	-45(%rbp), %rax
 4872 3072 488985C0 		movq	%rax, -8256(%rbp)
 4872      DFFFFF
 744:testSvf2Csvf.cpp **** 	const CmdPtr src1[] = {
 745:testSvf2Csvf.cpp **** 		xsir,
 746:testSvf2Csvf.cpp **** 		xsdrsize,
 747:testSvf2Csvf.cpp **** 		xsdr,
 748:testSvf2Csvf.cpp **** 		xsdr,
 749:testSvf2Csvf.cpp **** 		xcomplete
 750:testSvf2Csvf.cpp **** 	};
 4873              		.loc 3 750 2
 4874 3079 488D45D7 		leaq	-41(%rbp), %rax
 4875 307d 48898560 		movq	%rax, -9376(%rbp)
 4875      DBFFFF
 4876 3084 488D45D5 		leaq	-43(%rbp), %rax
 4877 3088 48898568 		movq	%rax, -9368(%rbp)
 4877      DBFFFF
 4878 308f 488D45D4 		leaq	-44(%rbp), %rax
 4879 3093 48898570 		movq	%rax, -9360(%rbp)
 4879      DBFFFF
 4880 309a 488D45D4 		leaq	-44(%rbp), %rax
 4881 309e 48898578 		movq	%rax, -9352(%rbp)
 4881      DBFFFF
 4882 30a5 488D45D3 		leaq	-45(%rbp), %rax
 4883 30a9 48898580 		movq	%rax, -9344(%rbp)
 4883      DBFFFF
 751:testSvf2Csvf.cpp **** 	const CmdPtr exp1[] = {
 752:testSvf2Csvf.cpp **** 		xruntest0,
 753:testSvf2Csvf.cpp **** 		xsir,
 754:testSvf2Csvf.cpp **** 		xsdrsize,
 755:testSvf2Csvf.cpp **** 		xsdr,
 756:testSvf2Csvf.cpp **** 		xsdr,
 757:testSvf2Csvf.cpp **** 		xcomplete
 758:testSvf2Csvf.cpp **** 	};
 4884              		.loc 3 758 2
 4885 30b0 488D45D9 		leaq	-39(%rbp), %rax
 4886 30b4 488985F0 		movq	%rax, -9232(%rbp)
 4886      DBFFFF
 4887 30bb 488D45D7 		leaq	-41(%rbp), %rax
 4888 30bf 488985F8 		movq	%rax, -9224(%rbp)
 4888      DBFFFF
 4889 30c6 488D45D5 		leaq	-43(%rbp), %rax
 4890 30ca 48898500 		movq	%rax, -9216(%rbp)
 4890      DCFFFF
 4891 30d1 488D45D4 		leaq	-44(%rbp), %rax
 4892 30d5 48898508 		movq	%rax, -9208(%rbp)
 4892      DCFFFF
 4893 30dc 488D45D4 		leaq	-44(%rbp), %rax
 4894 30e0 48898510 		movq	%rax, -9200(%rbp)
 4894      DCFFFF
 4895 30e7 488D45D3 		leaq	-45(%rbp), %rax
 4896 30eb 48898518 		movq	%rax, -9192(%rbp)
 4896      DCFFFF
 759:testSvf2Csvf.cpp **** 	const CmdPtr src2[] = {
 760:testSvf2Csvf.cpp **** 		xsir,
 761:testSvf2Csvf.cpp **** 		xsdrsize,
 762:testSvf2Csvf.cpp **** 		xsdr,
 763:testSvf2Csvf.cpp **** 		xsdr,
 764:testSvf2Csvf.cpp **** 		xruntest1,
 765:testSvf2Csvf.cpp **** 		xcomplete
 766:testSvf2Csvf.cpp **** 	};
 4897              		.loc 3 766 2
 4898 30f2 488D45D7 		leaq	-41(%rbp), %rax
 4899 30f6 48898520 		movq	%rax, -9184(%rbp)
 4899      DCFFFF
 4900 30fd 488D45D5 		leaq	-43(%rbp), %rax
 4901 3101 48898528 		movq	%rax, -9176(%rbp)
 4901      DCFFFF
 4902 3108 488D45D4 		leaq	-44(%rbp), %rax
 4903 310c 48898530 		movq	%rax, -9168(%rbp)
 4903      DCFFFF
 4904 3113 488D45D4 		leaq	-44(%rbp), %rax
 4905 3117 48898538 		movq	%rax, -9160(%rbp)
 4905      DCFFFF
 4906 311e 488D45DE 		leaq	-34(%rbp), %rax
 4907 3122 48898540 		movq	%rax, -9152(%rbp)
 4907      DCFFFF
 4908 3129 488D45D3 		leaq	-45(%rbp), %rax
 4909 312d 48898548 		movq	%rax, -9144(%rbp)
 4909      DCFFFF
 767:testSvf2Csvf.cpp **** 	const CmdPtr exp2[] = {
 768:testSvf2Csvf.cpp **** 		xruntest0,
 769:testSvf2Csvf.cpp **** 		xsir,
 770:testSvf2Csvf.cpp **** 		xsdrsize,
 771:testSvf2Csvf.cpp **** 		xsdr,
 772:testSvf2Csvf.cpp **** 		xruntest1,
 773:testSvf2Csvf.cpp **** 		xsdr,
 774:testSvf2Csvf.cpp **** 		xcomplete
 775:testSvf2Csvf.cpp **** 	};
 4910              		.loc 3 775 2
 4911 3134 488D45D9 		leaq	-39(%rbp), %rax
 4912 3138 48898580 		movq	%rax, -9088(%rbp)
 4912      DCFFFF
 4913 313f 488D45D7 		leaq	-41(%rbp), %rax
 4914 3143 48898588 		movq	%rax, -9080(%rbp)
 4914      DCFFFF
 4915 314a 488D45D5 		leaq	-43(%rbp), %rax
 4916 314e 48898590 		movq	%rax, -9072(%rbp)
 4916      DCFFFF
 4917 3155 488D45D4 		leaq	-44(%rbp), %rax
 4918 3159 48898598 		movq	%rax, -9064(%rbp)
 4918      DCFFFF
 4919 3160 488D45DE 		leaq	-34(%rbp), %rax
 4920 3164 488985A0 		movq	%rax, -9056(%rbp)
 4920      DCFFFF
 4921 316b 488D45D4 		leaq	-44(%rbp), %rax
 4922 316f 488985A8 		movq	%rax, -9048(%rbp)
 4922      DCFFFF
 4923 3176 488D45D3 		leaq	-45(%rbp), %rax
 4924 317a 488985B0 		movq	%rax, -9040(%rbp)
 4924      DCFFFF
 776:testSvf2Csvf.cpp **** 	const CmdPtr src3[] = {
 777:testSvf2Csvf.cpp **** 		xsir,
 778:testSvf2Csvf.cpp **** 		xsdrsize,
 779:testSvf2Csvf.cpp **** 		xsdr,
 780:testSvf2Csvf.cpp **** 		xruntest1,
 781:testSvf2Csvf.cpp **** 		xsdr,
 782:testSvf2Csvf.cpp **** 		xcomplete
 783:testSvf2Csvf.cpp **** 	};
 4925              		.loc 3 783 2
 4926 3181 488D45D7 		leaq	-41(%rbp), %rax
 4927 3185 48898550 		movq	%rax, -9136(%rbp)
 4927      DCFFFF
 4928 318c 488D45D5 		leaq	-43(%rbp), %rax
 4929 3190 48898558 		movq	%rax, -9128(%rbp)
 4929      DCFFFF
 4930 3197 488D45D4 		leaq	-44(%rbp), %rax
 4931 319b 48898560 		movq	%rax, -9120(%rbp)
 4931      DCFFFF
 4932 31a2 488D45DE 		leaq	-34(%rbp), %rax
 4933 31a6 48898568 		movq	%rax, -9112(%rbp)
 4933      DCFFFF
 4934 31ad 488D45D4 		leaq	-44(%rbp), %rax
 4935 31b1 48898570 		movq	%rax, -9104(%rbp)
 4935      DCFFFF
 4936 31b8 488D45D3 		leaq	-45(%rbp), %rax
 4937 31bc 48898578 		movq	%rax, -9096(%rbp)
 4937      DCFFFF
 784:testSvf2Csvf.cpp **** 	const CmdPtr exp3[] = {
 785:testSvf2Csvf.cpp **** 		xruntest0,
 786:testSvf2Csvf.cpp **** 		xsir,
 787:testSvf2Csvf.cpp **** 		xruntest1,
 788:testSvf2Csvf.cpp **** 		xsdrsize,
 789:testSvf2Csvf.cpp **** 		xsdr,
 790:testSvf2Csvf.cpp **** 		xruntest0,
 791:testSvf2Csvf.cpp **** 		xsdr,
 792:testSvf2Csvf.cpp **** 		xcomplete
 793:testSvf2Csvf.cpp **** 	};
 4938              		.loc 3 793 2
 4939 31c3 488D45D9 		leaq	-39(%rbp), %rax
 4940 31c7 488985C0 		movq	%rax, -9024(%rbp)
 4940      DCFFFF
 4941 31ce 488D45D7 		leaq	-41(%rbp), %rax
 4942 31d2 488985C8 		movq	%rax, -9016(%rbp)
 4942      DCFFFF
 4943 31d9 488D45DE 		leaq	-34(%rbp), %rax
 4944 31dd 488985D0 		movq	%rax, -9008(%rbp)
 4944      DCFFFF
 4945 31e4 488D45D5 		leaq	-43(%rbp), %rax
 4946 31e8 488985D8 		movq	%rax, -9000(%rbp)
 4946      DCFFFF
 4947 31ef 488D45D4 		leaq	-44(%rbp), %rax
 4948 31f3 488985E0 		movq	%rax, -8992(%rbp)
 4948      DCFFFF
 4949 31fa 488D45D9 		leaq	-39(%rbp), %rax
 4950 31fe 488985E8 		movq	%rax, -8984(%rbp)
 4950      DCFFFF
 4951 3205 488D45D4 		leaq	-44(%rbp), %rax
 4952 3209 488985F0 		movq	%rax, -8976(%rbp)
 4952      DCFFFF
 4953 3210 488D45D3 		leaq	-45(%rbp), %rax
 4954 3214 488985F8 		movq	%rax, -8968(%rbp)
 4954      DCFFFF
 794:testSvf2Csvf.cpp **** 	const CmdPtr src4[] = {
 795:testSvf2Csvf.cpp **** 		xsir,
 796:testSvf2Csvf.cpp **** 		xsdrsize,
 797:testSvf2Csvf.cpp **** 		xtdomask,
 798:testSvf2Csvf.cpp **** 		xsdrtdo,
 799:testSvf2Csvf.cpp **** 		xsdrsize,
 800:testSvf2Csvf.cpp **** 		xsdr,
 801:testSvf2Csvf.cpp **** 		xruntest1,
 802:testSvf2Csvf.cpp **** 		xcomplete
 803:testSvf2Csvf.cpp **** 	};
 4955              		.loc 3 803 2
 4956 321b 488D45D7 		leaq	-41(%rbp), %rax
 4957 321f 48898500 		movq	%rax, -8960(%rbp)
 4957      DDFFFF
 4958 3226 488D45D5 		leaq	-43(%rbp), %rax
 4959 322a 48898508 		movq	%rax, -8952(%rbp)
 4959      DDFFFF
 4960 3231 488D45D8 		leaq	-40(%rbp), %rax
 4961 3235 48898510 		movq	%rax, -8944(%rbp)
 4961      DDFFFF
 4962 323c 488D45D6 		leaq	-42(%rbp), %rax
 4963 3240 48898518 		movq	%rax, -8936(%rbp)
 4963      DDFFFF
 4964 3247 488D45D5 		leaq	-43(%rbp), %rax
 4965 324b 48898520 		movq	%rax, -8928(%rbp)
 4965      DDFFFF
 4966 3252 488D45D4 		leaq	-44(%rbp), %rax
 4967 3256 48898528 		movq	%rax, -8920(%rbp)
 4967      DDFFFF
 4968 325d 488D45DE 		leaq	-34(%rbp), %rax
 4969 3261 48898530 		movq	%rax, -8912(%rbp)
 4969      DDFFFF
 4970 3268 488D45D3 		leaq	-45(%rbp), %rax
 4971 326c 48898538 		movq	%rax, -8904(%rbp)
 4971      DDFFFF
 804:testSvf2Csvf.cpp **** 	const CmdPtr exp4[] = {
 805:testSvf2Csvf.cpp **** 		xruntest0,
 806:testSvf2Csvf.cpp **** 		xsir,
 807:testSvf2Csvf.cpp **** 		xsdrsize,
 808:testSvf2Csvf.cpp **** 		xtdomask,
 809:testSvf2Csvf.cpp **** 		xsdrtdo,
 810:testSvf2Csvf.cpp **** 		xruntest1,
 811:testSvf2Csvf.cpp **** 		xsdrsize,
 812:testSvf2Csvf.cpp **** 		xsdr,
 813:testSvf2Csvf.cpp **** 		xcomplete
 814:testSvf2Csvf.cpp **** 	};
 4972              		.loc 3 814 2
 4973 3273 488D45D9 		leaq	-39(%rbp), %rax
 4974 3277 48898540 		movq	%rax, -8896(%rbp)
 4974      DDFFFF
 4975 327e 488D45D7 		leaq	-41(%rbp), %rax
 4976 3282 48898548 		movq	%rax, -8888(%rbp)
 4976      DDFFFF
 4977 3289 488D45D5 		leaq	-43(%rbp), %rax
 4978 328d 48898550 		movq	%rax, -8880(%rbp)
 4978      DDFFFF
 4979 3294 488D45D8 		leaq	-40(%rbp), %rax
 4980 3298 48898558 		movq	%rax, -8872(%rbp)
 4980      DDFFFF
 4981 329f 488D45D6 		leaq	-42(%rbp), %rax
 4982 32a3 48898560 		movq	%rax, -8864(%rbp)
 4982      DDFFFF
 4983 32aa 488D45DE 		leaq	-34(%rbp), %rax
 4984 32ae 48898568 		movq	%rax, -8856(%rbp)
 4984      DDFFFF
 4985 32b5 488D45D5 		leaq	-43(%rbp), %rax
 4986 32b9 48898570 		movq	%rax, -8848(%rbp)
 4986      DDFFFF
 4987 32c0 488D45D4 		leaq	-44(%rbp), %rax
 4988 32c4 48898578 		movq	%rax, -8840(%rbp)
 4988      DDFFFF
 4989 32cb 488D45D3 		leaq	-45(%rbp), %rax
 4990 32cf 48898580 		movq	%rax, -8832(%rbp)
 4990      DDFFFF
 815:testSvf2Csvf.cpp **** 	const CmdPtr *const src[] = {src0, src1, src2, src3, src4};
 4991              		.loc 3 815 59
 4992 32d6 488D8590 		leaq	-8816(%rbp), %rax
 4992      DDFFFF
 4993 32dd 48898590 		movq	%rax, -9328(%rbp)
 4993      DBFFFF
 4994 32e4 488D8560 		leaq	-9376(%rbp), %rax
 4994      DBFFFF
 4995 32eb 48898598 		movq	%rax, -9320(%rbp)
 4995      DBFFFF
 4996 32f2 488D8520 		leaq	-9184(%rbp), %rax
 4996      DCFFFF
 4997 32f9 488985A0 		movq	%rax, -9312(%rbp)
 4997      DBFFFF
 4998 3300 488D8550 		leaq	-9136(%rbp), %rax
 4998      DCFFFF
 4999 3307 488985A8 		movq	%rax, -9304(%rbp)
 4999      DBFFFF
 5000 330e 488D8500 		leaq	-8960(%rbp), %rax
 5000      DDFFFF
 5001 3315 488985B0 		movq	%rax, -9296(%rbp)
 5001      DBFFFF
 816:testSvf2Csvf.cpp **** 	const CmdPtr *const exp[] = {exp0, exp1, exp2, exp3, exp4};
 5002              		.loc 3 816 59
 5003 331c 488D85A0 		leaq	-8544(%rbp), %rax
 5003      DEFFFF
 5004 3323 488985C0 		movq	%rax, -9280(%rbp)
 5004      DBFFFF
 5005 332a 488D85F0 		leaq	-9232(%rbp), %rax
 5005      DBFFFF
 5006 3331 488985C8 		movq	%rax, -9272(%rbp)
 5006      DBFFFF
 5007 3338 488D8580 		leaq	-9088(%rbp), %rax
 5007      DCFFFF
 5008 333f 488985D0 		movq	%rax, -9264(%rbp)
 5008      DBFFFF
 5009 3346 488D85C0 		leaq	-9024(%rbp), %rax
 5009      DCFFFF
 5010 334d 488985D8 		movq	%rax, -9256(%rbp)
 5010      DBFFFF
 5011 3354 488D8540 		leaq	-8896(%rbp), %rax
 5011      DDFFFF
 5012 335b 488985E0 		movq	%rax, -9248(%rbp)
 5012      DBFFFF
 817:testSvf2Csvf.cpp **** 	const uint8 *dst[1024];  // worst case 2x
 818:testSvf2Csvf.cpp **** 	num = sizeof(src) / sizeof(src[0]);
 5013              		.loc 3 818 6
 5014 3362 C7852CDB 		movl	$5, -9428(%rbp)
 5014      FFFF0500 
 5014      0000
 819:testSvf2Csvf.cpp **** 	for ( i = 0; i < num; i++ ) {
 5015              		.loc 3 819 10
 5016 336c C78524DB 		movl	$0, -9436(%rbp)
 5016      FFFF0000 
 5016      0000
 5017              		.loc 3 819 2
 5018 3376 E9EA0100 		jmp	.L158
 5018      00
 5019              	.L164:
 820:testSvf2Csvf.cpp **** 		printf("Dataset %d\n", i);
 5020              		.loc 3 820 9
 5021 337b 8B8524DB 		movl	-9436(%rbp), %eax
 5021      FFFF
 5022 3381 89C6     		movl	%eax, %esi
 5023 3383 488D0500 		leaq	.LC129(%rip), %rax
 5023      000000
 5024 338a 4889C7   		movq	%rax, %rdi
 5025 338d B8000000 		movl	$0, %eax
 5025      00
 5026              	.LEHB119:
 5027 3392 E8000000 		call	printf@PLT
 5027      00
 821:testSvf2Csvf.cpp **** 		processIndex(src[i], dst);
 5028              		.loc 3 821 21
 5029 3397 8B8524DB 		movl	-9436(%rbp), %eax
 5029      FFFF
 5030 339d 4898     		cltq
 5031 339f 488B84C5 		movq	-9328(%rbp,%rax,8), %rax
 5031      90DBFFFF 
 5032              		.loc 3 821 15
 5033 33a7 488D95D0 		leaq	-8240(%rbp), %rdx
 5033      DFFFFF
 5034 33ae 4889D6   		movq	%rdx, %rsi
 5035 33b1 4889C7   		movq	%rax, %rdi
 5036 33b4 E8000000 		call	processIndex@PLT
 5036      00
 822:testSvf2Csvf.cpp **** 		pExpected = exp[i];
 5037              		.loc 3 822 13
 5038 33b9 8B8524DB 		movl	-9436(%rbp), %eax
 5038      FFFF
 5039 33bf 4898     		cltq
 5040 33c1 488B84C5 		movq	-9280(%rbp,%rax,8), %rax
 5040      C0DBFFFF 
 5041 33c9 48898530 		movq	%rax, -9424(%rbp)
 5041      DBFFFF
 823:testSvf2Csvf.cpp **** 		pActual = dst;
 5042              		.loc 3 823 11
 5043 33d0 488D85D0 		leaq	-8240(%rbp), %rax
 5043      DFFFFF
 5044 33d7 48898538 		movq	%rax, -9416(%rbp)
 5044      DBFFFF
 824:testSvf2Csvf.cpp **** 		j = 0;
 5045              		.loc 3 824 5
 5046 33de C78528DB 		movl	$0, -9432(%rbp)
 5046      FFFF0000 
 5046      0000
 825:testSvf2Csvf.cpp **** 		while ( **pExpected != XCOMPLETE && **pActual != XCOMPLETE ) {
 5047              		.loc 3 825 3
 5048 33e8 EB43     		jmp	.L159
 5049              	.L161:
 826:testSvf2Csvf.cpp **** 			compare(j++, *pExpected++, *pActual++);
 5050              		.loc 3 826 39
 5051 33ea 488B8538 		movq	-9416(%rbp), %rax
 5051      DBFFFF
 5052 33f1 488D5008 		leaq	8(%rax), %rdx
 5053 33f5 48899538 		movq	%rdx, -9416(%rbp)
 5053      DBFFFF
 5054              		.loc 3 826 11
 5055 33fc 488B10   		movq	(%rax), %rdx
 5056              		.loc 3 826 27
 5057 33ff 488B8530 		movq	-9424(%rbp), %rax
 5057      DBFFFF
 5058 3406 488D4808 		leaq	8(%rax), %rcx
 5059 340a 48898D30 		movq	%rcx, -9424(%rbp)
 5059      DBFFFF
 5060              		.loc 3 826 11
 5061 3411 488B08   		movq	(%rax), %rcx
 5062 3414 8B8528DB 		movl	-9432(%rbp), %eax
 5062      FFFF
 5063 341a 8D7001   		leal	1(%rax), %esi
 5064 341d 89B528DB 		movl	%esi, -9432(%rbp)
 5064      FFFF
 5065 3423 4889CE   		movq	%rcx, %rsi
 5066 3426 89C7     		movl	%eax, %edi
 5067 3428 E8B7F6FF 		call	_ZL7compareiPKhS0_
 5067      FF
 5068              	.L159:
 825:testSvf2Csvf.cpp **** 		while ( **pExpected != XCOMPLETE && **pActual != XCOMPLETE ) {
 5069              		.loc 3 825 12
 5070 342d 488B8530 		movq	-9424(%rbp), %rax
 5070      DBFFFF
 5071 3434 488B00   		movq	(%rax), %rax
 825:testSvf2Csvf.cpp **** 		while ( **pExpected != XCOMPLETE && **pActual != XCOMPLETE ) {
 5072              		.loc 3 825 11
 5073 3437 0FB600   		movzbl	(%rax), %eax
 825:testSvf2Csvf.cpp **** 		while ( **pExpected != XCOMPLETE && **pActual != XCOMPLETE ) {
 5074              		.loc 3 825 36
 5075 343a 84C0     		testb	%al, %al
 5076 343c 7411     		je	.L160
 825:testSvf2Csvf.cpp **** 		while ( **pExpected != XCOMPLETE && **pActual != XCOMPLETE ) {
 5077              		.loc 3 825 40 discriminator 1
 5078 343e 488B8538 		movq	-9416(%rbp), %rax
 5078      DBFFFF
 5079 3445 488B00   		movq	(%rax), %rax
 825:testSvf2Csvf.cpp **** 		while ( **pExpected != XCOMPLETE && **pActual != XCOMPLETE ) {
 5080              		.loc 3 825 39 discriminator 1
 5081 3448 0FB600   		movzbl	(%rax), %eax
 825:testSvf2Csvf.cpp **** 		while ( **pExpected != XCOMPLETE && **pActual != XCOMPLETE ) {
 5082              		.loc 3 825 36 discriminator 1
 5083 344b 84C0     		testb	%al, %al
 5084 344d 759B     		jne	.L161
 5085              	.L160:
 827:testSvf2Csvf.cpp **** 		}
 828:testSvf2Csvf.cpp **** 		printf("  [%d] %s:%s\n", j, getCmdName(*pExpected), getCmdName(*pActual));
 5086              		.loc 3 828 9
 5087 344f 488B8538 		movq	-9416(%rbp), %rax
 5087      DBFFFF
 5088 3456 488B00   		movq	(%rax), %rax
 5089 3459 4889C7   		movq	%rax, %rdi
 5090 345c E8000000 		call	getCmdName@PLT
 5090      00
 5091 3461 4889C3   		movq	%rax, %rbx
 5092 3464 488B8530 		movq	-9424(%rbp), %rax
 5092      DBFFFF
 5093 346b 488B00   		movq	(%rax), %rax
 5094 346e 4889C7   		movq	%rax, %rdi
 5095 3471 E8000000 		call	getCmdName@PLT
 5095      00
 5096 3476 4889C2   		movq	%rax, %rdx
 5097 3479 8B8528DB 		movl	-9432(%rbp), %eax
 5097      FFFF
 5098 347f 4889D9   		movq	%rbx, %rcx
 5099 3482 89C6     		movl	%eax, %esi
 5100 3484 488D0500 		leaq	.LC125(%rip), %rax
 5100      000000
 5101 348b 4889C7   		movq	%rax, %rdi
 5102 348e B8000000 		movl	$0, %eax
 5102      00
 5103 3493 E8000000 		call	printf@PLT
 5103      00
 5104              	.LEHE119:
 829:testSvf2Csvf.cpp **** 		CHECK(**pExpected == XCOMPLETE);
 5105              		.loc 3 829 3
 5106 3498 488B8530 		movq	-9424(%rbp), %rax
 5106      DBFFFF
 5107 349f 488B00   		movq	(%rax), %rax
 5108 34a2 0FB600   		movzbl	(%rax), %eax
 5109 34a5 84C0     		testb	%al, %al
 5110 34a7 0F94C0   		sete	%al
 5111 34aa 0FB6C0   		movzbl	%al, %eax
 5112 34ad 89C7     		movl	%eax, %edi
 5113 34af E8000000 		call	_ZN8UnitTest5CheckIbEEbT_
 5113      00
 5114 34b4 83F001   		xorl	$1, %eax
 5115 34b7 84C0     		testb	%al, %al
 5116 34b9 7440     		je	.L162
 5117              	.LEHB120:
 5118              		.loc 3 829 3 is_stmt 0 discriminator 1
 5119 34bb E8000000 		call	_ZN8UnitTest11CurrentTest7ResultsEv@PLT
 5119      00
 5120 34c0 488B18   		movq	(%rax), %rbx
 5121 34c3 E8000000 		call	_ZN8UnitTest11CurrentTest7DetailsEv@PLT
 5121      00
 5122              		.loc 3 829 3 discriminator 3
 5123 34c8 488B08   		movq	(%rax), %rcx
 5124 34cb 488D8540 		leaq	-9408(%rbp), %rax
 5124      DBFFFF
 5125 34d2 BA3D0300 		movl	$829, %edx
 5125      00
 5126 34d7 4889CE   		movq	%rcx, %rsi
 5127 34da 4889C7   		movq	%rax, %rdi
 5128 34dd E8000000 		call	_ZN8UnitTest11TestDetailsC1ERKS0_i@PLT
 5128      00
 5129              		.loc 3 829 3 discriminator 7
 5130 34e2 488D8540 		leaq	-9408(%rbp), %rax
 5130      DBFFFF
 5131 34e9 488D1500 		leaq	.LC130(%rip), %rdx
 5131      000000
 5132 34f0 4889C6   		movq	%rax, %rsi
 5133 34f3 4889DF   		movq	%rbx, %rdi
 5134 34f6 E8000000 		call	_ZN8UnitTest11TestResults13OnTestFailureERKNS_11TestDetailsEPKc@PLT
 5134      00
 5135              	.LEHE120:
 5136              	.L162:
 830:testSvf2Csvf.cpp **** 		CHECK(**pActual == XCOMPLETE);
 5137              		.loc 3 830 3 is_stmt 1
 5138 34fb 488B8538 		movq	-9416(%rbp), %rax
 5138      DBFFFF
 5139 3502 488B00   		movq	(%rax), %rax
 5140 3505 0FB600   		movzbl	(%rax), %eax
 5141 3508 84C0     		testb	%al, %al
 5142 350a 0F94C0   		sete	%al
 5143 350d 0FB6C0   		movzbl	%al, %eax
 5144 3510 89C7     		movl	%eax, %edi
 5145 3512 E8000000 		call	_ZN8UnitTest5CheckIbEEbT_
 5145      00
 5146 3517 83F001   		xorl	$1, %eax
 5147 351a 84C0     		testb	%al, %al
 5148 351c 7440     		je	.L163
 5149              	.LEHB121:
 5150              		.loc 3 830 3 is_stmt 0 discriminator 1
 5151 351e E8000000 		call	_ZN8UnitTest11CurrentTest7ResultsEv@PLT
 5151      00
 5152 3523 488B18   		movq	(%rax), %rbx
 5153 3526 E8000000 		call	_ZN8UnitTest11CurrentTest7DetailsEv@PLT
 5153      00
 5154              		.loc 3 830 3 discriminator 3
 5155 352b 488B08   		movq	(%rax), %rcx
 5156 352e 488D8540 		leaq	-9408(%rbp), %rax
 5156      DBFFFF
 5157 3535 BA3E0300 		movl	$830, %edx
 5157      00
 5158 353a 4889CE   		movq	%rcx, %rsi
 5159 353d 4889C7   		movq	%rax, %rdi
 5160 3540 E8000000 		call	_ZN8UnitTest11TestDetailsC1ERKS0_i@PLT
 5160      00
 5161              		.loc 3 830 3 discriminator 7
 5162 3545 488D8540 		leaq	-9408(%rbp), %rax
 5162      DBFFFF
 5163 354c 488D1500 		leaq	.LC131(%rip), %rdx
 5163      000000
 5164 3553 4889C6   		movq	%rax, %rsi
 5165 3556 4889DF   		movq	%rbx, %rdi
 5166 3559 E8000000 		call	_ZN8UnitTest11TestResults13OnTestFailureERKNS_11TestDetailsEPKc@PLT
 5166      00
 5167              	.LEHE121:
 5168              	.L163:
 819:testSvf2Csvf.cpp **** 		printf("Dataset %d\n", i);
 5169              		.loc 3 819 2 is_stmt 1 discriminator 2
 5170 355e 838524DB 		addl	$1, -9436(%rbp)
 5170      FFFF01
 5171              	.L158:
 819:testSvf2Csvf.cpp **** 		printf("Dataset %d\n", i);
 5172              		.loc 3 819 17 discriminator 1
 5173 3565 8B8524DB 		movl	-9436(%rbp), %eax
 5173      FFFF
 5174 356b 3B852CDB 		cmpl	-9428(%rbp), %eax
 5174      FFFF
 5175 3571 0F8C04FE 		jl	.L164
 5175      FFFF
 831:testSvf2Csvf.cpp **** 	}
 832:testSvf2Csvf.cpp **** }
 5176              		.loc 3 832 1
 5177 3577 E9DA0000 		jmp	.L174
 5177      00
 5178              	.L170:
 5179 357c F30F1EFA 		endbr64
 829:testSvf2Csvf.cpp **** 		CHECK(**pActual == XCOMPLETE);
 5180              		.loc 3 829 3
 5181 3580 4889C7   		movq	%rax, %rdi
 5182 3583 E8000000 		call	__cxa_begin_catch@PLT
 5182      00
 5183              	.LEHB122:
 5184 3588 E8000000 		call	_ZN8UnitTest11CurrentTest7ResultsEv@PLT
 5184      00
 829:testSvf2Csvf.cpp **** 		CHECK(**pActual == XCOMPLETE);
 5185              		.loc 3 829 3 is_stmt 0 discriminator 6
 5186 358d 488B18   		movq	(%rax), %rbx
 5187 3590 E8000000 		call	_ZN8UnitTest11CurrentTest7DetailsEv@PLT
 5187      00
 829:testSvf2Csvf.cpp **** 		CHECK(**pActual == XCOMPLETE);
 5188              		.loc 3 829 3 discriminator 12
 5189 3595 488B08   		movq	(%rax), %rcx
 5190 3598 488D8540 		leaq	-9408(%rbp), %rax
 5190      DBFFFF
 5191 359f BA3D0300 		movl	$829, %edx
 5191      00
 5192 35a4 4889CE   		movq	%rcx, %rsi
 5193 35a7 4889C7   		movq	%rax, %rdi
 5194 35aa E8000000 		call	_ZN8UnitTest11TestDetailsC1ERKS0_i@PLT
 5194      00
 829:testSvf2Csvf.cpp **** 		CHECK(**pActual == XCOMPLETE);
 5195              		.loc 3 829 3 discriminator 16
 5196 35af 488D8540 		leaq	-9408(%rbp), %rax
 5196      DBFFFF
 5197 35b6 488D1500 		leaq	.LC132(%rip), %rdx
 5197      000000
 5198 35bd 4889C6   		movq	%rax, %rsi
 5199 35c0 4889DF   		movq	%rbx, %rdi
 5200 35c3 E8000000 		call	_ZN8UnitTest11TestResults13OnTestFailureERKNS_11TestDetailsEPKc@PLT
 5200      00
 5201              	.LEHE122:
 5202              	.LEHB123:
 829:testSvf2Csvf.cpp **** 		CHECK(**pActual == XCOMPLETE);
 5203              		.loc 3 829 3 discriminator 18
 5204 35c8 E8000000 		call	__cxa_end_catch@PLT
 5204      00
 5205              	.LEHE123:
 5206 35cd E929FFFF 		jmp	.L162
 5206      FF
 5207              	.L171:
 5208 35d2 F30F1EFA 		endbr64
 829:testSvf2Csvf.cpp **** 		CHECK(**pActual == XCOMPLETE);
 5209              		.loc 3 829 3
 5210 35d6 4889C3   		movq	%rax, %rbx
 5211 35d9 E8000000 		call	__cxa_end_catch@PLT
 5211      00
 5212 35de 4889D8   		movq	%rbx, %rax
 5213 35e1 4889C7   		movq	%rax, %rdi
 5214              	.LEHB124:
 5215 35e4 E8000000 		call	_Unwind_Resume@PLT
 5215      00
 5216              	.LEHE124:
 5217              	.L172:
 5218 35e9 F30F1EFA 		endbr64
 830:testSvf2Csvf.cpp **** 	}
 5219              		.loc 3 830 3 is_stmt 1
 5220 35ed 4889C7   		movq	%rax, %rdi
 5221 35f0 E8000000 		call	__cxa_begin_catch@PLT
 5221      00
 5222              	.LEHB125:
 5223 35f5 E8000000 		call	_ZN8UnitTest11CurrentTest7ResultsEv@PLT
 5223      00
 830:testSvf2Csvf.cpp **** 	}
 5224              		.loc 3 830 3 is_stmt 0 discriminator 6
 5225 35fa 488B18   		movq	(%rax), %rbx
 5226 35fd E8000000 		call	_ZN8UnitTest11CurrentTest7DetailsEv@PLT
 5226      00
 830:testSvf2Csvf.cpp **** 	}
 5227              		.loc 3 830 3 discriminator 12
 5228 3602 488B08   		movq	(%rax), %rcx
 5229 3605 488D8540 		leaq	-9408(%rbp), %rax
 5229      DBFFFF
 5230 360c BA3E0300 		movl	$830, %edx
 5230      00
 5231 3611 4889CE   		movq	%rcx, %rsi
 5232 3614 4889C7   		movq	%rax, %rdi
 5233 3617 E8000000 		call	_ZN8UnitTest11TestDetailsC1ERKS0_i@PLT
 5233      00
 830:testSvf2Csvf.cpp **** 	}
 5234              		.loc 3 830 3 discriminator 16
 5235 361c 488D8540 		leaq	-9408(%rbp), %rax
 5235      DBFFFF
 5236 3623 488D1500 		leaq	.LC133(%rip), %rdx
 5236      000000
 5237 362a 4889C6   		movq	%rax, %rsi
 5238 362d 4889DF   		movq	%rbx, %rdi
 5239 3630 E8000000 		call	_ZN8UnitTest11TestResults13OnTestFailureERKNS_11TestDetailsEPKc@PLT
 5239      00
 5240              	.LEHE125:
 5241              	.LEHB126:
 830:testSvf2Csvf.cpp **** 	}
 5242              		.loc 3 830 3 discriminator 18
 5243 3635 E8000000 		call	__cxa_end_catch@PLT
 5243      00
 5244              	.LEHE126:
 5245 363a E91FFFFF 		jmp	.L163
 5245      FF
 5246              	.L173:
 5247 363f F30F1EFA 		endbr64
 830:testSvf2Csvf.cpp **** 	}
 5248              		.loc 3 830 3
 5249 3643 4889C3   		movq	%rax, %rbx
 5250 3646 E8000000 		call	__cxa_end_catch@PLT
 5250      00
 5251 364b 4889D8   		movq	%rbx, %rax
 5252 364e 4889C7   		movq	%rax, %rdi
 5253              	.LEHB127:
 5254 3651 E8000000 		call	_Unwind_Resume@PLT
 5254      00
 5255              	.LEHE127:
 5256              	.L174:
 5257              		.loc 3 832 1 is_stmt 1
 5258 3656 488B45E8 		movq	-24(%rbp), %rax
 5259 365a 64482B04 		subq	%fs:40, %rax
 5259      25280000 
 5259      00
 5260 3663 7405     		je	.L169
 5261 3665 E8000000 		call	__stack_chk_fail@PLT
 5261      00
 5262              	.L169:
 5263 366a 488B5DF8 		movq	-8(%rbp), %rbx
 5264 366e C9       		leave
 5265              		.cfi_def_cfa 7, 8
 5266 366f C3       		ret
 5267              		.cfi_endproc
 5268              	.LFE1167:
 5269              		.section	.gcc_except_table
 5270              		.align 4
 5271              	.LLSDA1167:
 5272 02b0 FF       		.byte	0xff
 5273 02b1 9B       		.byte	0x9b
 5274 02b2 3D       		.uleb128 .LLSDATT1167-.LLSDATTD1167
 5275              	.LLSDATTD1167:
 5276 02b3 01       		.byte	0x1
 5277 02b4 32       		.uleb128 .LLSDACSE1167-.LLSDACSB1167
 5278              	.LLSDACSB1167:
 5279 02b5 920D     		.uleb128 .LEHB119-.LFB1167
 5280 02b7 8602     		.uleb128 .LEHE119-.LEHB119
 5281 02b9 00       		.uleb128 0
 5282 02ba 00       		.uleb128 0
 5283 02bb BB0F     		.uleb128 .LEHB120-.LFB1167
 5284 02bd 40       		.uleb128 .LEHE120-.LEHB120
 5285 02be FC10     		.uleb128 .L170-.LFB1167
 5286 02c0 01       		.uleb128 0x1
 5287 02c1 9E10     		.uleb128 .LEHB121-.LFB1167
 5288 02c3 40       		.uleb128 .LEHE121-.LEHB121
 5289 02c4 E911     		.uleb128 .L172-.LFB1167
 5290 02c6 01       		.uleb128 0x1
 5291 02c7 8811     		.uleb128 .LEHB122-.LFB1167
 5292 02c9 40       		.uleb128 .LEHE122-.LEHB122
 5293 02ca D211     		.uleb128 .L171-.LFB1167
 5294 02cc 00       		.uleb128 0
 5295 02cd C811     		.uleb128 .LEHB123-.LFB1167
 5296 02cf 05       		.uleb128 .LEHE123-.LEHB123
 5297 02d0 00       		.uleb128 0
 5298 02d1 00       		.uleb128 0
 5299 02d2 E411     		.uleb128 .LEHB124-.LFB1167
 5300 02d4 05       		.uleb128 .LEHE124-.LEHB124
 5301 02d5 00       		.uleb128 0
 5302 02d6 00       		.uleb128 0
 5303 02d7 F511     		.uleb128 .LEHB125-.LFB1167
 5304 02d9 40       		.uleb128 .LEHE125-.LEHB125
 5305 02da BF12     		.uleb128 .L173-.LFB1167
 5306 02dc 00       		.uleb128 0
 5307 02dd B512     		.uleb128 .LEHB126-.LFB1167
 5308 02df 05       		.uleb128 .LEHE126-.LEHB126
 5309 02e0 00       		.uleb128 0
 5310 02e1 00       		.uleb128 0
 5311 02e2 D112     		.uleb128 .LEHB127-.LFB1167
 5312 02e4 05       		.uleb128 .LEHE127-.LEHB127
 5313 02e5 00       		.uleb128 0
 5314 02e6 00       		.uleb128 0
 5315              	.LLSDACSE1167:
 5316 02e7 01       		.byte	0x1
 5317 02e8 00       		.byte	0
 5318 02e9 000000   		.align 4
 5319 02ec 00000000 		.long	0
 5320              	
 5321              	.LLSDATT1167:
 5322              		.text
 5324              		.section	.rodata
 5325              	.LC134:
 5326 0b1d 46504741 		.string	"FPGALink_testBuildIndex"
 5326      4C696E6B 
 5326      5F746573 
 5326      74427569 
 5326      6C64496E 
 5327              		.section	.text._ZN27TestFPGALink_testBuildIndexC2Ev,"axG",@progbits,_ZN27TestFPGALink_testBuildInd
 5328              		.align 2
 5329              		.weak	_ZN27TestFPGALink_testBuildIndexC2Ev
 5331              	_ZN27TestFPGALink_testBuildIndexC2Ev:
 5332              	.LFB1169:
 833:testSvf2Csvf.cpp **** 
 834:testSvf2Csvf.cpp **** TEST(FPGALink_testBuildIndex) {
 5333              		.loc 3 834 1
 5334              		.cfi_startproc
 5335 0000 F30F1EFA 		endbr64
 5336 0004 55       		pushq	%rbp
 5337              		.cfi_def_cfa_offset 16
 5338              		.cfi_offset 6, -16
 5339 0005 4889E5   		movq	%rsp, %rbp
 5340              		.cfi_def_cfa_register 6
 5341 0008 53       		pushq	%rbx
 5342 0009 4883EC18 		subq	$24, %rsp
 5343              		.cfi_offset 3, -24
 5344 000d 48897DE8 		movq	%rdi, -24(%rbp)
 5345              	.LBB10:
 5346              		.loc 3 834 1
 5347 0011 488B5DE8 		movq	-24(%rbp), %rbx
 5348 0015 E8000000 		call	_ZN13UnitTestSuite12GetSuiteNameEv
 5348      00
 5349 001a 4889C2   		movq	%rax, %rdx
 5350 001d 41B84203 		movl	$834, %r8d
 5350      0000
 5351 0023 488D0500 		leaq	.LC5(%rip), %rax
 5351      000000
 5352 002a 4889C1   		movq	%rax, %rcx
 5353 002d 488D0500 		leaq	.LC134(%rip), %rax
 5353      000000
 5354 0034 4889C6   		movq	%rax, %rsi
 5355 0037 4889DF   		movq	%rbx, %rdi
 5356 003a E8000000 		call	_ZN8UnitTest4TestC2EPKcS2_S2_i@PLT
 5356      00
 5357 003f 488D1500 		leaq	16+_ZTV27TestFPGALink_testBuildIndex(%rip), %rdx
 5357      000000
 5358 0046 488B45E8 		movq	-24(%rbp), %rax
 5359 004a 488910   		movq	%rdx, (%rax)
 5360              	.LBE10:
 5361 004d 90       		nop
 5362 004e 488B5DF8 		movq	-8(%rbp), %rbx
 5363 0052 C9       		leave
 5364              		.cfi_def_cfa 7, 8
 5365 0053 C3       		ret
 5366              		.cfi_endproc
 5367              	.LFE1169:
 5369              		.weak	_ZN27TestFPGALink_testBuildIndexC1Ev
 5370              		.set	_ZN27TestFPGALink_testBuildIndexC1Ev,_ZN27TestFPGALink_testBuildIndexC2Ev
 5371              		.globl	testFPGALink_testBuildIndexInstance
 5372              		.bss
 5373 00f9 00000000 		.align 32
 5373      000000
 5376              	testFPGALink_testBuildIndexInstance:
 5377 0100 00000000 		.zero	56
 5377      00000000 
 5377      00000000 
 5377      00000000 
 5377      00000000 
 5378              		.globl	adderFPGALink_testBuildIndex
 5381              	adderFPGALink_testBuildIndex:
 5382 0138 00       		.zero	1
 5383              		.text
 5384              		.align 2
 5385              		.globl	_ZNK27TestFPGALink_testBuildIndex7RunImplEv
 5387              	_ZNK27TestFPGALink_testBuildIndex7RunImplEv:
 5388              	.LFB1171:
 5389              		.loc 3 834 31
 5390              		.cfi_startproc
 5391              		.cfi_personality 0x9b,DW.ref.__gxx_personality_v0
 5392              		.cfi_lsda 0x1b,.LLSDA1171
 5393 3670 F30F1EFA 		endbr64
 5394 3674 55       		pushq	%rbp
 5395              		.cfi_def_cfa_offset 16
 5396              		.cfi_offset 6, -16
 5397 3675 4889E5   		movq	%rsp, %rbp
 5398              		.cfi_def_cfa_register 6
 5399 3678 53       		pushq	%rbx
 5400 3679 4881EC58 		subq	$856, %rsp
 5400      030000
 5401              		.cfi_offset 3, -24
 5402 3680 4889BDA8 		movq	%rdi, -856(%rbp)
 5402      FCFFFF
 5403              		.loc 3 834 31
 5404 3687 64488B04 		movq	%fs:40, %rax
 5404      25280000 
 5404      00
 5405 3690 488945E8 		movq	%rax, -24(%rbp)
 5406 3694 31C0     		xorl	%eax, %eax
 835:testSvf2Csvf.cpp **** 	const uint8 src[] = {
 5407              		.loc 3 835 14
 5408 3696 48B80206 		movabsq	$2305843009348503042, %rax
 5408      09080000 
 5408      0020
 5409 36a0 48BA01FF 		movabsq	$-7854267785810018559, %rdx
 5409      FFFF0F09 
 5409      0093
 5410 36aa 488945C0 		movq	%rax, -64(%rbp)
 5411 36ae 488955C8 		movq	%rdx, -56(%rbp)
 5412 36b2 48B80080 		movabsq	$2517883255029760, %rax
 5412      006100F2 
 5412      0800
 5413 36bc 48BA0000 		movabsq	$4398097170432, %rdx
 5413      05030004 
 5413      0000
 5414 36c6 488945D0 		movq	%rax, -48(%rbp)
 5415 36ca 488955D8 		movq	%rdx, -40(%rbp)
 5416 36ce 66C745E0 		movw	$4096, -32(%rbp)
 5416      0010
 5417 36d4 C645E200 		movb	$0, -30(%rbp)
 836:testSvf2Csvf.cpp **** 		0x02, 0x06, 0x09, 0x08,  0x00, 0x00, 0x00, 0x20,
 837:testSvf2Csvf.cpp **** 		0x01, 0xFF, 0xFF, 0xFF,  0x0F, 0x09, 0x00, 0x93,
 838:testSvf2Csvf.cpp **** 		0x00, 0x80, 0x00, 0x61,  0x00, 0xF2, 0x08, 0x00,
 839:testSvf2Csvf.cpp **** 		0x00, 0x00, 0x05, 0x03,  0x00, 0x04, 0x00, 0x00,
 840:testSvf2Csvf.cpp **** 		0x00, 0x10, 0x00
 841:testSvf2Csvf.cpp **** 	};
 842:testSvf2Csvf.cpp **** 	const size_t len = sizeof(src);
 5418              		.loc 3 842 15
 5419 36d8 48C785C8 		movq	$35, -824(%rbp)
 5419      FCFFFF23 
 5419      000000
 843:testSvf2Csvf.cpp **** 	struct Buffer csvfBuf;
 844:testSvf2Csvf.cpp **** 	FLStatus fStatus;
 845:testSvf2Csvf.cpp **** 	struct ParseContext cxt;
 846:testSvf2Csvf.cpp **** 	BufferStatus bStatus = bufInitialise(&csvfBuf, len, 0x00, NULL);
 5420              		.loc 3 846 38
 5421 36e3 488D85D0 		leaq	-816(%rbp), %rax
 5421      FCFFFF
 5422 36ea B9000000 		movl	$0, %ecx
 5422      00
 5423 36ef BA000000 		movl	$0, %edx
 5423      00
 5424 36f4 BE230000 		movl	$35, %esi
 5424      00
 5425 36f9 4889C7   		movq	%rax, %rdi
 5426              	.LEHB128:
 5427 36fc E8000000 		call	bufInitialise@PLT
 5427      00
 5428              	.LEHE128:
 5429              		.loc 3 846 64
 5430 3701 8985C0FC 		movl	%eax, -832(%rbp)
 5430      FFFF
 5431              	.LEHB129:
 847:testSvf2Csvf.cpp **** 	CHECK_EQUAL(BUF_SUCCESS, bStatus);
 5432              		.loc 3 847 2
 5433 3707 E8000000 		call	_ZN8UnitTest11CurrentTest7DetailsEv@PLT
 5433      00
 5434 370c 488B08   		movq	(%rax), %rcx
 5435 370f 488D8510 		leaq	-752(%rbp), %rax
 5435      FDFFFF
 5436 3716 BA4F0300 		movl	$847, %edx
 5436      00
 5437 371b 4889CE   		movq	%rcx, %rsi
 5438 371e 4889C7   		movq	%rax, %rdi
 5439 3721 E8000000 		call	_ZN8UnitTest11TestDetailsC1ERKS0_i@PLT
 5439      00
 5440              		.loc 3 847 2 is_stmt 0 discriminator 4
 5441 3726 C785F0FC 		movl	$0, -784(%rbp)
 5441      FFFF0000 
 5441      0000
 5442 3730 E8000000 		call	_ZN8UnitTest11CurrentTest7ResultsEv@PLT
 5442      00
 5443 3735 488B00   		movq	(%rax), %rax
 5444 3738 488D8D10 		leaq	-752(%rbp), %rcx
 5444      FDFFFF
 5445 373f 488D95C0 		leaq	-832(%rbp), %rdx
 5445      FCFFFF
 5446 3746 488DB5F0 		leaq	-784(%rbp), %rsi
 5446      FCFFFF
 5447 374d 4889C7   		movq	%rax, %rdi
 5448 3750 E8000000 		call	_ZN8UnitTest10CheckEqualI12BufferStatusS1_EEvRNS_11TestResultsERKT_RKT0_RKNS_11TestDetailsE
 5448      00
 5449              	.LEHE129:
 5450              	.L178:
 848:testSvf2Csvf.cpp **** 	memset(&cxt, 0, sizeof(cxt));
 5451              		.loc 3 848 8 is_stmt 1
 5452 3755 488D8510 		leaq	-752(%rbp), %rax
 5452      FDFFFF
 5453 375c BAA80200 		movl	$680, %edx
 5453      00
 5454 3761 BE000000 		movl	$0, %esi
 5454      00
 5455 3766 4889C7   		movq	%rax, %rdi
 5456 3769 E8000000 		call	memset@PLT
 5456      00
 849:testSvf2Csvf.cpp **** 	cxt.numCommands = 8;
 5457              		.loc 3 849 18
 5458 376e C745AC08 		movl	$8, -84(%rbp)
 5458      000000
 850:testSvf2Csvf.cpp **** 	bStatus = bufAppendBlock(&csvfBuf, src, len, NULL);
 5459              		.loc 3 850 26
 5460 3775 488D75C0 		leaq	-64(%rbp), %rsi
 5461 3779 488D85D0 		leaq	-816(%rbp), %rax
 5461      FCFFFF
 5462 3780 B9000000 		movl	$0, %ecx
 5462      00
 5463 3785 BA230000 		movl	$35, %edx
 5463      00
 5464 378a 4889C7   		movq	%rax, %rdi
 5465              	.LEHB130:
 5466 378d E8000000 		call	bufAppendBlock@PLT
 5466      00
 5467              	.LEHE130:
 5468              		.loc 3 850 10
 5469 3792 8985C0FC 		movl	%eax, -832(%rbp)
 5469      FFFF
 5470              	.LEHB131:
 851:testSvf2Csvf.cpp **** 	CHECK_EQUAL(BUF_SUCCESS, bStatus);
 5471              		.loc 3 851 2
 5472 3798 E8000000 		call	_ZN8UnitTest11CurrentTest7DetailsEv@PLT
 5472      00
 5473 379d 488B08   		movq	(%rax), %rcx
 5474 37a0 488D85F0 		leaq	-784(%rbp), %rax
 5474      FCFFFF
 5475 37a7 BA530300 		movl	$851, %edx
 5475      00
 5476 37ac 4889CE   		movq	%rcx, %rsi
 5477 37af 4889C7   		movq	%rax, %rdi
 5478 37b2 E8000000 		call	_ZN8UnitTest11TestDetailsC1ERKS0_i@PLT
 5478      00
 5479              		.loc 3 851 2 is_stmt 0 discriminator 4
 5480 37b7 C785C4FC 		movl	$0, -828(%rbp)
 5480      FFFF0000 
 5480      0000
 5481 37c1 E8000000 		call	_ZN8UnitTest11CurrentTest7ResultsEv@PLT
 5481      00
 5482 37c6 488B00   		movq	(%rax), %rax
 5483 37c9 488D8DF0 		leaq	-784(%rbp), %rcx
 5483      FCFFFF
 5484 37d0 488D95C0 		leaq	-832(%rbp), %rdx
 5484      FCFFFF
 5485 37d7 488DB5C4 		leaq	-828(%rbp), %rsi
 5485      FCFFFF
 5486 37de 4889C7   		movq	%rax, %rdi
 5487 37e1 E8000000 		call	_ZN8UnitTest10CheckEqualI12BufferStatusS1_EEvRNS_11TestResultsERKT_RKT0_RKNS_11TestDetailsE
 5487      00
 5488              	.LEHE131:
 5489              	.L181:
 852:testSvf2Csvf.cpp **** 	fStatus = buildIndex(&cxt, &csvfBuf, NULL);
 5490              		.loc 3 852 22 is_stmt 1
 5491 37e6 488D8DD0 		leaq	-816(%rbp), %rcx
 5491      FCFFFF
 5492 37ed 488D8510 		leaq	-752(%rbp), %rax
 5492      FDFFFF
 5493 37f4 BA000000 		movl	$0, %edx
 5493      00
 5494 37f9 4889CE   		movq	%rcx, %rsi
 5495 37fc 4889C7   		movq	%rax, %rdi
 5496              	.LEHB132:
 5497 37ff E8000000 		call	buildIndex@PLT
 5497      00
 5498              	.LEHE132:
 5499              		.loc 3 852 10
 5500 3804 8985BCFC 		movl	%eax, -836(%rbp)
 5500      FFFF
 5501              	.LEHB133:
 853:testSvf2Csvf.cpp **** 	CHECK_EQUAL(FL_SUCCESS, fStatus);
 5502              		.loc 3 853 2
 5503 380a E8000000 		call	_ZN8UnitTest11CurrentTest7DetailsEv@PLT
 5503      00
 5504 380f 488B08   		movq	(%rax), %rcx
 5505 3812 488D85F0 		leaq	-784(%rbp), %rax
 5505      FCFFFF
 5506 3819 BA550300 		movl	$853, %edx
 5506      00
 5507 381e 4889CE   		movq	%rcx, %rsi
 5508 3821 4889C7   		movq	%rax, %rdi
 5509 3824 E8000000 		call	_ZN8UnitTest11TestDetailsC1ERKS0_i@PLT
 5509      00
 5510              		.loc 3 853 2 is_stmt 0 discriminator 4
 5511 3829 C785C4FC 		movl	$0, -828(%rbp)
 5511      FFFF0000 
 5511      0000
 5512 3833 E8000000 		call	_ZN8UnitTest11CurrentTest7ResultsEv@PLT
 5512      00
 5513 3838 488B00   		movq	(%rax), %rax
 5514 383b 488D8DF0 		leaq	-784(%rbp), %rcx
 5514      FCFFFF
 5515 3842 488D95BC 		leaq	-836(%rbp), %rdx
 5515      FCFFFF
 5516 3849 488DB5C4 		leaq	-828(%rbp), %rsi
 5516      FCFFFF
 5517 3850 4889C7   		movq	%rax, %rdi
 5518 3853 E8000000 		call	_ZN8UnitTest10CheckEqualI8FLStatusS1_EEvRNS_11TestResultsERKT_RKT0_RKNS_11TestDetailsE
 5518      00
 5519              	.LEHE133:
 5520              	.L184:
 854:testSvf2Csvf.cpp **** 	bufDestroy(&csvfBuf);
 5521              		.loc 3 854 12 is_stmt 1
 5522 3858 488D85D0 		leaq	-816(%rbp), %rax
 5522      FCFFFF
 5523 385f 4889C7   		movq	%rax, %rdi
 5524              	.LEHB134:
 5525 3862 E8000000 		call	bufDestroy@PLT
 5525      00
 5526              	.LEHE134:
 855:testSvf2Csvf.cpp **** }
 5527              		.loc 3 855 1
 5528 3867 90       		nop
 5529 3868 488B45E8 		movq	-24(%rbp), %rax
 5530 386c 64482B04 		subq	%fs:40, %rax
 5530      25280000 
 5530      00
 5531 3875 0F845101 		je	.L186
 5531      0000
 5532 387b E9470100 		jmp	.L193
 5532      00
 5533              	.L187:
 5534 3880 F30F1EFA 		endbr64
 847:testSvf2Csvf.cpp **** 	memset(&cxt, 0, sizeof(cxt));
 5535              		.loc 3 847 2
 5536 3884 4889C7   		movq	%rax, %rdi
 5537 3887 E8000000 		call	__cxa_begin_catch@PLT
 5537      00
 5538              	.LEHB135:
 5539 388c E8000000 		call	_ZN8UnitTest11CurrentTest7ResultsEv@PLT
 5539      00
 847:testSvf2Csvf.cpp **** 	memset(&cxt, 0, sizeof(cxt));
 5540              		.loc 3 847 2 is_stmt 0 discriminator 3
 5541 3891 488B18   		movq	(%rax), %rbx
 5542 3894 E8000000 		call	_ZN8UnitTest11CurrentTest7DetailsEv@PLT
 5542      00
 847:testSvf2Csvf.cpp **** 	memset(&cxt, 0, sizeof(cxt));
 5543              		.loc 3 847 2 discriminator 11
 5544 3899 488B08   		movq	(%rax), %rcx
 5545 389c 488D8510 		leaq	-752(%rbp), %rax
 5545      FDFFFF
 5546 38a3 BA4F0300 		movl	$847, %edx
 5546      00
 5547 38a8 4889CE   		movq	%rcx, %rsi
 5548 38ab 4889C7   		movq	%rax, %rdi
 5549 38ae E8000000 		call	_ZN8UnitTest11TestDetailsC1ERKS0_i@PLT
 5549      00
 847:testSvf2Csvf.cpp **** 	memset(&cxt, 0, sizeof(cxt));
 5550              		.loc 3 847 2 discriminator 15
 5551 38b3 488D8510 		leaq	-752(%rbp), %rax
 5551      FDFFFF
 5552 38ba 488D1500 		leaq	.LC13(%rip), %rdx
 5552      000000
 5553 38c1 4889C6   		movq	%rax, %rsi
 5554 38c4 4889DF   		movq	%rbx, %rdi
 5555 38c7 E8000000 		call	_ZN8UnitTest11TestResults13OnTestFailureERKNS_11TestDetailsEPKc@PLT
 5555      00
 5556              	.LEHE135:
 5557              	.LEHB136:
 847:testSvf2Csvf.cpp **** 	memset(&cxt, 0, sizeof(cxt));
 5558              		.loc 3 847 2 discriminator 17
 5559 38cc E8000000 		call	__cxa_end_catch@PLT
 5559      00
 5560              	.LEHE136:
 5561 38d1 E97FFEFF 		jmp	.L178
 5561      FF
 5562              	.L188:
 5563 38d6 F30F1EFA 		endbr64
 847:testSvf2Csvf.cpp **** 	memset(&cxt, 0, sizeof(cxt));
 5564              		.loc 3 847 2
 5565 38da 4889C3   		movq	%rax, %rbx
 5566 38dd E8000000 		call	__cxa_end_catch@PLT
 5566      00
 5567 38e2 4889D8   		movq	%rbx, %rax
 5568 38e5 4889C7   		movq	%rax, %rdi
 5569              	.LEHB137:
 5570 38e8 E8000000 		call	_Unwind_Resume@PLT
 5570      00
 5571              	.LEHE137:
 5572              	.L189:
 5573 38ed F30F1EFA 		endbr64
 851:testSvf2Csvf.cpp **** 	fStatus = buildIndex(&cxt, &csvfBuf, NULL);
 5574              		.loc 3 851 2 is_stmt 1
 5575 38f1 4889C7   		movq	%rax, %rdi
 5576 38f4 E8000000 		call	__cxa_begin_catch@PLT
 5576      00
 5577              	.LEHB138:
 5578 38f9 E8000000 		call	_ZN8UnitTest11CurrentTest7ResultsEv@PLT
 5578      00
 851:testSvf2Csvf.cpp **** 	fStatus = buildIndex(&cxt, &csvfBuf, NULL);
 5579              		.loc 3 851 2 is_stmt 0 discriminator 3
 5580 38fe 488B18   		movq	(%rax), %rbx
 5581 3901 E8000000 		call	_ZN8UnitTest11CurrentTest7DetailsEv@PLT
 5581      00
 851:testSvf2Csvf.cpp **** 	fStatus = buildIndex(&cxt, &csvfBuf, NULL);
 5582              		.loc 3 851 2 discriminator 11
 5583 3906 488B08   		movq	(%rax), %rcx
 5584 3909 488D85F0 		leaq	-784(%rbp), %rax
 5584      FCFFFF
 5585 3910 BA530300 		movl	$851, %edx
 5585      00
 5586 3915 4889CE   		movq	%rcx, %rsi
 5587 3918 4889C7   		movq	%rax, %rdi
 5588 391b E8000000 		call	_ZN8UnitTest11TestDetailsC1ERKS0_i@PLT
 5588      00
 851:testSvf2Csvf.cpp **** 	fStatus = buildIndex(&cxt, &csvfBuf, NULL);
 5589              		.loc 3 851 2 discriminator 15
 5590 3920 488D85F0 		leaq	-784(%rbp), %rax
 5590      FCFFFF
 5591 3927 488D1500 		leaq	.LC13(%rip), %rdx
 5591      000000
 5592 392e 4889C6   		movq	%rax, %rsi
 5593 3931 4889DF   		movq	%rbx, %rdi
 5594 3934 E8000000 		call	_ZN8UnitTest11TestResults13OnTestFailureERKNS_11TestDetailsEPKc@PLT
 5594      00
 5595              	.LEHE138:
 5596              	.LEHB139:
 851:testSvf2Csvf.cpp **** 	fStatus = buildIndex(&cxt, &csvfBuf, NULL);
 5597              		.loc 3 851 2 discriminator 17
 5598 3939 E8000000 		call	__cxa_end_catch@PLT
 5598      00
 5599              	.LEHE139:
 5600 393e E9A3FEFF 		jmp	.L181
 5600      FF
 5601              	.L190:
 5602 3943 F30F1EFA 		endbr64
 851:testSvf2Csvf.cpp **** 	fStatus = buildIndex(&cxt, &csvfBuf, NULL);
 5603              		.loc 3 851 2
 5604 3947 4889C3   		movq	%rax, %rbx
 5605 394a E8000000 		call	__cxa_end_catch@PLT
 5605      00
 5606 394f 4889D8   		movq	%rbx, %rax
 5607 3952 4889C7   		movq	%rax, %rdi
 5608              	.LEHB140:
 5609 3955 E8000000 		call	_Unwind_Resume@PLT
 5609      00
 5610              	.LEHE140:
 5611              	.L191:
 5612 395a F30F1EFA 		endbr64
 853:testSvf2Csvf.cpp **** 	bufDestroy(&csvfBuf);
 5613              		.loc 3 853 2 is_stmt 1
 5614 395e 4889C7   		movq	%rax, %rdi
 5615 3961 E8000000 		call	__cxa_begin_catch@PLT
 5615      00
 5616              	.LEHB141:
 5617 3966 E8000000 		call	_ZN8UnitTest11CurrentTest7ResultsEv@PLT
 5617      00
 853:testSvf2Csvf.cpp **** 	bufDestroy(&csvfBuf);
 5618              		.loc 3 853 2 is_stmt 0 discriminator 3
 5619 396b 488B18   		movq	(%rax), %rbx
 5620 396e E8000000 		call	_ZN8UnitTest11CurrentTest7DetailsEv@PLT
 5620      00
 853:testSvf2Csvf.cpp **** 	bufDestroy(&csvfBuf);
 5621              		.loc 3 853 2 discriminator 11
 5622 3973 488B08   		movq	(%rax), %rcx
 5623 3976 488D85F0 		leaq	-784(%rbp), %rax
 5623      FCFFFF
 5624 397d BA550300 		movl	$853, %edx
 5624      00
 5625 3982 4889CE   		movq	%rcx, %rsi
 5626 3985 4889C7   		movq	%rax, %rdi
 5627 3988 E8000000 		call	_ZN8UnitTest11TestDetailsC1ERKS0_i@PLT
 5627      00
 853:testSvf2Csvf.cpp **** 	bufDestroy(&csvfBuf);
 5628              		.loc 3 853 2 discriminator 15
 5629 398d 488D85F0 		leaq	-784(%rbp), %rax
 5629      FCFFFF
 5630 3994 488D1500 		leaq	.LC2(%rip), %rdx
 5630      000000
 5631 399b 4889C6   		movq	%rax, %rsi
 5632 399e 4889DF   		movq	%rbx, %rdi
 5633 39a1 E8000000 		call	_ZN8UnitTest11TestResults13OnTestFailureERKNS_11TestDetailsEPKc@PLT
 5633      00
 5634              	.LEHE141:
 5635              	.LEHB142:
 853:testSvf2Csvf.cpp **** 	bufDestroy(&csvfBuf);
 5636              		.loc 3 853 2 discriminator 17
 5637 39a6 E8000000 		call	__cxa_end_catch@PLT
 5637      00
 5638              	.LEHE142:
 5639 39ab E9A8FEFF 		jmp	.L184
 5639      FF
 5640              	.L192:
 5641 39b0 F30F1EFA 		endbr64
 853:testSvf2Csvf.cpp **** 	bufDestroy(&csvfBuf);
 5642              		.loc 3 853 2
 5643 39b4 4889C3   		movq	%rax, %rbx
 5644 39b7 E8000000 		call	__cxa_end_catch@PLT
 5644      00
 5645 39bc 4889D8   		movq	%rbx, %rax
 5646 39bf 4889C7   		movq	%rax, %rdi
 5647              	.LEHB143:
 5648 39c2 E8000000 		call	_Unwind_Resume@PLT
 5648      00
 5649              	.LEHE143:
 5650              	.L193:
 5651              		.loc 3 855 1 is_stmt 1
 5652 39c7 E8000000 		call	__stack_chk_fail@PLT
 5652      00
 5653              	.L186:
 5654 39cc 488B5DF8 		movq	-8(%rbp), %rbx
 5655 39d0 C9       		leave
 5656              		.cfi_def_cfa 7, 8
 5657 39d1 C3       		ret
 5658              		.cfi_endproc
 5659              	.LFE1171:
 5660              		.section	.gcc_except_table
 5661              		.align 4
 5662              	.LLSDA1171:
 5663 02f0 FF       		.byte	0xff
 5664 02f1 9B       		.byte	0x9b
 5665 02f2 61       		.uleb128 .LLSDATT1171-.LLSDATTD1171
 5666              	.LLSDATTD1171:
 5667 02f3 01       		.byte	0x1
 5668 02f4 56       		.uleb128 .LLSDACSE1171-.LLSDACSB1171
 5669              	.LLSDACSB1171:
 5670 02f5 8C01     		.uleb128 .LEHB128-.LFB1171
 5671 02f7 05       		.uleb128 .LEHE128-.LEHB128
 5672 02f8 00       		.uleb128 0
 5673 02f9 00       		.uleb128 0
 5674 02fa 9701     		.uleb128 .LEHB129-.LFB1171
 5675 02fc 4E       		.uleb128 .LEHE129-.LEHB129
 5676 02fd 9004     		.uleb128 .L187-.LFB1171
 5677 02ff 01       		.uleb128 0x1
 5678 0300 9D02     		.uleb128 .LEHB130-.LFB1171
 5679 0302 05       		.uleb128 .LEHE130-.LEHB130
 5680 0303 00       		.uleb128 0
 5681 0304 00       		.uleb128 0
 5682 0305 A802     		.uleb128 .LEHB131-.LFB1171
 5683 0307 4E       		.uleb128 .LEHE131-.LEHB131
 5684 0308 FD04     		.uleb128 .L189-.LFB1171
 5685 030a 01       		.uleb128 0x1
 5686 030b 8F03     		.uleb128 .LEHB132-.LFB1171
 5687 030d 05       		.uleb128 .LEHE132-.LEHB132
 5688 030e 00       		.uleb128 0
 5689 030f 00       		.uleb128 0
 5690 0310 9A03     		.uleb128 .LEHB133-.LFB1171
 5691 0312 4E       		.uleb128 .LEHE133-.LEHB133
 5692 0313 EA05     		.uleb128 .L191-.LFB1171
 5693 0315 01       		.uleb128 0x1
 5694 0316 F203     		.uleb128 .LEHB134-.LFB1171
 5695 0318 05       		.uleb128 .LEHE134-.LEHB134
 5696 0319 00       		.uleb128 0
 5697 031a 00       		.uleb128 0
 5698 031b 9C04     		.uleb128 .LEHB135-.LFB1171
 5699 031d 40       		.uleb128 .LEHE135-.LEHB135
 5700 031e E604     		.uleb128 .L188-.LFB1171
 5701 0320 00       		.uleb128 0
 5702 0321 DC04     		.uleb128 .LEHB136-.LFB1171
 5703 0323 05       		.uleb128 .LEHE136-.LEHB136
 5704 0324 00       		.uleb128 0
 5705 0325 00       		.uleb128 0
 5706 0326 F804     		.uleb128 .LEHB137-.LFB1171
 5707 0328 05       		.uleb128 .LEHE137-.LEHB137
 5708 0329 00       		.uleb128 0
 5709 032a 00       		.uleb128 0
 5710 032b 8905     		.uleb128 .LEHB138-.LFB1171
 5711 032d 40       		.uleb128 .LEHE138-.LEHB138
 5712 032e D305     		.uleb128 .L190-.LFB1171
 5713 0330 00       		.uleb128 0
 5714 0331 C905     		.uleb128 .LEHB139-.LFB1171
 5715 0333 05       		.uleb128 .LEHE139-.LEHB139
 5716 0334 00       		.uleb128 0
 5717 0335 00       		.uleb128 0
 5718 0336 E505     		.uleb128 .LEHB140-.LFB1171
 5719 0338 05       		.uleb128 .LEHE140-.LEHB140
 5720 0339 00       		.uleb128 0
 5721 033a 00       		.uleb128 0
 5722 033b F605     		.uleb128 .LEHB141-.LFB1171
 5723 033d 40       		.uleb128 .LEHE141-.LEHB141
 5724 033e C006     		.uleb128 .L192-.LFB1171
 5725 0340 00       		.uleb128 0
 5726 0341 B606     		.uleb128 .LEHB142-.LFB1171
 5727 0343 05       		.uleb128 .LEHE142-.LEHB142
 5728 0344 00       		.uleb128 0
 5729 0345 00       		.uleb128 0
 5730 0346 D206     		.uleb128 .LEHB143-.LFB1171
 5731 0348 05       		.uleb128 .LEHE143-.LEHB143
 5732 0349 00       		.uleb128 0
 5733 034a 00       		.uleb128 0
 5734              	.LLSDACSE1171:
 5735 034b 01       		.byte	0x1
 5736 034c 00       		.byte	0
 5737 034d 000000   		.align 4
 5738 0350 00000000 		.long	0
 5739              	
 5740              	.LLSDATT1171:
 5741              		.text
 5743              		.section	.text._ZN8UnitTest15MemoryOutStreamD1Ev,"axG",@progbits,_ZN8UnitTest15MemoryOutStreamD1Ev
 5744              		.align 2
 5745              		.weak	_ZN8UnitTest15MemoryOutStreamD1Ev
 5747              	_ZN8UnitTest15MemoryOutStreamD1Ev:
 5748              	.LFB1202:
  13:/home/pong/FPGALink/makestuff/libs/libutpp/MemoryOutStream.h **** {
 5749              		.loc 2 13 7
 5750              		.cfi_startproc
 5751              		.cfi_personality 0x9b,DW.ref.__gxx_personality_v0
 5752              		.cfi_lsda 0x1b,.LLSDA1202
 5753 0000 F30F1EFA 		endbr64
 5754 0004 55       		pushq	%rbp
 5755              		.cfi_def_cfa_offset 16
 5756              		.cfi_offset 6, -16
 5757 0005 4889E5   		movq	%rsp, %rbp
 5758              		.cfi_def_cfa_register 6
 5759 0008 53       		pushq	%rbx
 5760 0009 4883EC18 		subq	$24, %rsp
 5761              		.cfi_offset 3, -24
 5762 000d 48897DE8 		movq	%rdi, -24(%rbp)
 5763              	.LBB11:
  13:/home/pong/FPGALink/makestuff/libs/libutpp/MemoryOutStream.h **** {
 5764              		.loc 2 13 7
 5765 0011 488D1500 		leaq	24+_ZTVN8UnitTest15MemoryOutStreamE(%rip), %rdx
 5765      000000
 5766 0018 488B45E8 		movq	-24(%rbp), %rax
 5767 001c 488910   		movq	%rdx, (%rax)
 5768 001f 488B45E8 		movq	-24(%rbp), %rax
 5769 0023 48059000 		addq	$144, %rax
 5769      0000
 5770 0029 488D1500 		leaq	64+_ZTVN8UnitTest15MemoryOutStreamE(%rip), %rdx
 5770      000000
 5771 0030 488910   		movq	%rdx, (%rax)
 5772 0033 488B45E8 		movq	-24(%rbp), %rax
 5773 0037 4883C070 		addq	$112, %rax
 5774 003b 4889C7   		movq	%rax, %rdi
 5775              	.LEHB144:
 5776 003e E8000000 		call	_ZNSt7__cxx1112basic_stringIcSt11char_traitsIcESaIcEED1Ev@PLT
 5776      00
 5777              	.LEHE144:
  13:/home/pong/FPGALink/makestuff/libs/libutpp/MemoryOutStream.h **** {
 5778              		.loc 2 13 7 is_stmt 0 discriminator 2
 5779 0043 488B45E8 		movq	-24(%rbp), %rax
 5780 0047 488D1500 		leaq	8+_ZTTN8UnitTest15MemoryOutStreamE(%rip), %rdx
 5780      000000
 5781 004e 4889D6   		movq	%rdx, %rsi
 5782 0051 4889C7   		movq	%rax, %rdi
 5783              	.LEHB145:
 5784 0054 E8000000 		call	_ZNSt7__cxx1119basic_ostringstreamIcSt11char_traitsIcESaIcEED2Ev@PLT
 5784      00
 5785              	.LEHE145:
  13:/home/pong/FPGALink/makestuff/libs/libutpp/MemoryOutStream.h **** {
 5786              		.loc 2 13 7 discriminator 4
 5787 0059 488B45E8 		movq	-24(%rbp), %rax
 5788 005d 48059000 		addq	$144, %rax
 5788      0000
 5789 0063 4889C7   		movq	%rax, %rdi
 5790              	.LEHB146:
 5791 0066 E8000000 		call	_ZNSt9basic_iosIcSt11char_traitsIcEED2Ev@PLT
 5791      00
 5792              	.LEHE146:
 5793              	.LBE11:
 5794 006b EB43     		jmp	.L199
 5795              	.L197:
 5796 006d F30F1EFA 		endbr64
 5797              	.LBB12:
  13:/home/pong/FPGALink/makestuff/libs/libutpp/MemoryOutStream.h **** {
 5798              		.loc 2 13 7
 5799 0071 4889C3   		movq	%rax, %rbx
 5800 0074 488B45E8 		movq	-24(%rbp), %rax
 5801 0078 488D1500 		leaq	8+_ZTTN8UnitTest15MemoryOutStreamE(%rip), %rdx
 5801      000000
 5802 007f 4889D6   		movq	%rdx, %rsi
 5803 0082 4889C7   		movq	%rax, %rdi
 5804 0085 E8000000 		call	_ZNSt7__cxx1119basic_ostringstreamIcSt11char_traitsIcESaIcEED2Ev@PLT
 5804      00
 5805 008a EB07     		jmp	.L196
 5806              	.L198:
 5807 008c F30F1EFA 		endbr64
 5808 0090 4889C3   		movq	%rax, %rbx
 5809              	.L196:
  13:/home/pong/FPGALink/makestuff/libs/libutpp/MemoryOutStream.h **** {
 5810              		.loc 2 13 7 discriminator 3
 5811 0093 488B45E8 		movq	-24(%rbp), %rax
 5812 0097 48059000 		addq	$144, %rax
 5812      0000
 5813 009d 4889C7   		movq	%rax, %rdi
 5814 00a0 E8000000 		call	_ZNSt9basic_iosIcSt11char_traitsIcEED2Ev@PLT
 5814      00
 5815 00a5 4889D8   		movq	%rbx, %rax
 5816 00a8 4889C7   		movq	%rax, %rdi
 5817              	.LEHB147:
 5818 00ab E8000000 		call	_Unwind_Resume@PLT
 5818      00
 5819              	.LEHE147:
 5820              	.L199:
 5821              	.LBE12:
  13:/home/pong/FPGALink/makestuff/libs/libutpp/MemoryOutStream.h **** {
 5822              		.loc 2 13 7
 5823 00b0 488B5DF8 		movq	-8(%rbp), %rbx
 5824 00b4 C9       		leave
 5825              		.cfi_def_cfa 7, 8
 5826 00b5 C3       		ret
 5827              		.cfi_endproc
 5828              	.LFE1202:
 5829              		.section	.gcc_except_table
 5830              	.LLSDA1202:
 5831 0354 FF       		.byte	0xff
 5832 0355 FF       		.byte	0xff
 5833 0356 01       		.byte	0x1
 5834 0357 12       		.uleb128 .LLSDACSE1202-.LLSDACSB1202
 5835              	.LLSDACSB1202:
 5836 0358 3E       		.uleb128 .LEHB144-.LFB1202
 5837 0359 05       		.uleb128 .LEHE144-.LEHB144
 5838 035a 6D       		.uleb128 .L197-.LFB1202
 5839 035b 00       		.uleb128 0
 5840 035c 54       		.uleb128 .LEHB145-.LFB1202
 5841 035d 05       		.uleb128 .LEHE145-.LEHB145
 5842 035e 8C01     		.uleb128 .L198-.LFB1202
 5843 0360 00       		.uleb128 0
 5844 0361 66       		.uleb128 .LEHB146-.LFB1202
 5845 0362 05       		.uleb128 .LEHE146-.LEHB146
 5846 0363 00       		.uleb128 0
 5847 0364 00       		.uleb128 0
 5848 0365 AB01     		.uleb128 .LEHB147-.LFB1202
 5849 0367 05       		.uleb128 .LEHE147-.LEHB147
 5850 0368 00       		.uleb128 0
 5851 0369 00       		.uleb128 0
 5852              	.LLSDACSE1202:
 5853              		.section	.text._ZN8UnitTest15MemoryOutStreamD1Ev,"axG",@progbits,_ZN8UnitTest15MemoryOutStreamD1Ev
 5855              		.set	.LTHUNK0,_ZN8UnitTest15MemoryOutStreamD1Ev
 5856              		.weak	_ZTv0_n24_N8UnitTest15MemoryOutStreamD1Ev
 5858              	_ZTv0_n24_N8UnitTest15MemoryOutStreamD1Ev:
 5859              	.LFB1285:
  13:/home/pong/FPGALink/makestuff/libs/libutpp/MemoryOutStream.h **** {
 5860              		.loc 2 13 7 is_stmt 1
 5861              		.cfi_startproc
 5862 00b6 F30F1EFA 		endbr64
 5863 00ba 4C8B17   		movq	(%rdi), %r10
 5864 00bd 49037AE8 		addq	-24(%r10), %rdi
 5865 00c1 E93AFFFF 		jmp	.LTHUNK0
 5865      FF
 5866              		.cfi_endproc
 5867              	.LFE1285:
 5869              		.section	.text._ZN8UnitTest15MemoryOutStreamD0Ev,"axG",@progbits,_ZN8UnitTest15MemoryOutStreamD0Ev
 5870              		.align 2
 5871              		.weak	_ZN8UnitTest15MemoryOutStreamD0Ev
 5873              	_ZN8UnitTest15MemoryOutStreamD0Ev:
 5874              	.LFB1203:
  13:/home/pong/FPGALink/makestuff/libs/libutpp/MemoryOutStream.h **** {
 5875              		.loc 2 13 7
 5876              		.cfi_startproc
 5877              		.cfi_personality 0x9b,DW.ref.__gxx_personality_v0
 5878              		.cfi_lsda 0x1b,.LLSDA1203
 5879 0000 F30F1EFA 		endbr64
 5880 0004 55       		pushq	%rbp
 5881              		.cfi_def_cfa_offset 16
 5882              		.cfi_offset 6, -16
 5883 0005 4889E5   		movq	%rsp, %rbp
 5884              		.cfi_def_cfa_register 6
 5885 0008 53       		pushq	%rbx
 5886 0009 4883EC18 		subq	$24, %rsp
 5887              		.cfi_offset 3, -24
 5888 000d 48897DE8 		movq	%rdi, -24(%rbp)
  13:/home/pong/FPGALink/makestuff/libs/libutpp/MemoryOutStream.h **** {
 5889              		.loc 2 13 7
 5890 0011 488B45E8 		movq	-24(%rbp), %rax
 5891 0015 4889C7   		movq	%rax, %rdi
 5892              	.LEHB148:
 5893 0018 E8000000 		call	_ZN8UnitTest15MemoryOutStreamD1Ev
 5893      00
 5894              	.LEHE148:
  13:/home/pong/FPGALink/makestuff/libs/libutpp/MemoryOutStream.h **** {
 5895              		.loc 2 13 7 is_stmt 0 discriminator 2
 5896 001d 488B45E8 		movq	-24(%rbp), %rax
 5897 0021 4889C7   		movq	%rax, %rdi
 5898 0024 E8000000 		call	_ZdlPv@PLT
 5898      00
 5899 0029 EB1E     		jmp	.L203
 5900              	.L202:
 5901 002b F30F1EFA 		endbr64
  13:/home/pong/FPGALink/makestuff/libs/libutpp/MemoryOutStream.h **** {
 5902              		.loc 2 13 7
 5903 002f 4889C3   		movq	%rax, %rbx
 5904 0032 488B45E8 		movq	-24(%rbp), %rax
 5905 0036 4889C7   		movq	%rax, %rdi
 5906 0039 E8000000 		call	_ZdlPv@PLT
 5906      00
 5907 003e 4889D8   		movq	%rbx, %rax
 5908 0041 4889C7   		movq	%rax, %rdi
 5909              	.LEHB149:
 5910 0044 E8000000 		call	_Unwind_Resume@PLT
 5910      00
 5911              	.LEHE149:
 5912              	.L203:
 5913 0049 488B5DF8 		movq	-8(%rbp), %rbx
 5914 004d C9       		leave
 5915              		.cfi_def_cfa 7, 8
 5916 004e C3       		ret
 5917              		.cfi_endproc
 5918              	.LFE1203:
 5919              		.section	.gcc_except_table
 5920              	.LLSDA1203:
 5921 036a FF       		.byte	0xff
 5922 036b FF       		.byte	0xff
 5923 036c 01       		.byte	0x1
 5924 036d 08       		.uleb128 .LLSDACSE1203-.LLSDACSB1203
 5925              	.LLSDACSB1203:
 5926 036e 18       		.uleb128 .LEHB148-.LFB1203
 5927 036f 05       		.uleb128 .LEHE148-.LEHB148
 5928 0370 2B       		.uleb128 .L202-.LFB1203
 5929 0371 00       		.uleb128 0
 5930 0372 44       		.uleb128 .LEHB149-.LFB1203
 5931 0373 05       		.uleb128 .LEHE149-.LEHB149
 5932 0374 00       		.uleb128 0
 5933 0375 00       		.uleb128 0
 5934              	.LLSDACSE1203:
 5935              		.section	.text._ZN8UnitTest15MemoryOutStreamD0Ev,"axG",@progbits,_ZN8UnitTest15MemoryOutStreamD0Ev
 5937              		.set	.LTHUNK1,_ZN8UnitTest15MemoryOutStreamD0Ev
 5938              		.weak	_ZTv0_n24_N8UnitTest15MemoryOutStreamD0Ev
 5940              	_ZTv0_n24_N8UnitTest15MemoryOutStreamD0Ev:
 5941              	.LFB1286:
  13:/home/pong/FPGALink/makestuff/libs/libutpp/MemoryOutStream.h **** {
 5942              		.loc 2 13 7 is_stmt 1
 5943              		.cfi_startproc
 5944 004f F30F1EFA 		endbr64
 5945 0053 4C8B17   		movq	(%rdi), %r10
 5946 0056 49037AE8 		addq	-24(%r10), %rdi
 5947 005a EBA4     		jmp	.LTHUNK1
 5948              		.cfi_endproc
 5949              	.LFE1286:
 5951              		.section	.rodata
 5952              	.LC135:
 5953 0b35 45787065 		.string	"Expected "
 5953      63746564 
 5953      2000
 5954              	.LC136:
 5955 0b3f 20627574 		.string	" but was "
 5955      20776173 
 5955      2000
 5956              		.section	.text._ZN8UnitTest10CheckEqualI8FLStatusS1_EEvRNS_11TestResultsERKT_RKT0_RKNS_11TestDetai
 5957              		.weak	_ZN8UnitTest10CheckEqualI8FLStatusS1_EEvRNS_11TestResultsERKT_RKT0_RKNS_11TestDetailsE
 5959              	_ZN8UnitTest10CheckEqualI8FLStatusS1_EEvRNS_11TestResultsERKT_RKT0_RKNS_11TestDetailsE:
 5960              	.LFB1199:
 5961              		.file 4 "/home/pong/FPGALink/makestuff/libs/libutpp/Checks.h"
   1:/home/pong/FPGALink/makestuff/libs/libutpp/Checks.h **** #ifndef UNITTEST_CHECKS_H
   2:/home/pong/FPGALink/makestuff/libs/libutpp/Checks.h **** #define UNITTEST_CHECKS_H
   3:/home/pong/FPGALink/makestuff/libs/libutpp/Checks.h **** 
   4:/home/pong/FPGALink/makestuff/libs/libutpp/Checks.h **** #include "Config.h"
   5:/home/pong/FPGALink/makestuff/libs/libutpp/Checks.h **** #include "TestResults.h"
   6:/home/pong/FPGALink/makestuff/libs/libutpp/Checks.h **** #include "MemoryOutStream.h"
   7:/home/pong/FPGALink/makestuff/libs/libutpp/Checks.h **** 
   8:/home/pong/FPGALink/makestuff/libs/libutpp/Checks.h **** namespace UnitTest {
   9:/home/pong/FPGALink/makestuff/libs/libutpp/Checks.h **** 
  10:/home/pong/FPGALink/makestuff/libs/libutpp/Checks.h **** 
  11:/home/pong/FPGALink/makestuff/libs/libutpp/Checks.h **** template< typename Value >
  12:/home/pong/FPGALink/makestuff/libs/libutpp/Checks.h **** bool Check(Value const value)
  13:/home/pong/FPGALink/makestuff/libs/libutpp/Checks.h **** {
  14:/home/pong/FPGALink/makestuff/libs/libutpp/Checks.h ****     return !!value; // doing double negative to avoid silly VS warnings
  15:/home/pong/FPGALink/makestuff/libs/libutpp/Checks.h **** }
  16:/home/pong/FPGALink/makestuff/libs/libutpp/Checks.h **** 
  17:/home/pong/FPGALink/makestuff/libs/libutpp/Checks.h **** 
  18:/home/pong/FPGALink/makestuff/libs/libutpp/Checks.h **** template< typename Expected, typename Actual >
  19:/home/pong/FPGALink/makestuff/libs/libutpp/Checks.h **** void CheckEqual(TestResults& results, Expected const& expected, Actual const& actual, TestDetails c
 5962              		.loc 4 19 6
 5963              		.cfi_startproc
 5964              		.cfi_personality 0x9b,DW.ref.__gxx_personality_v0
 5965              		.cfi_lsda 0x1b,.LLSDA1199
 5966 0000 F30F1EFA 		endbr64
 5967 0004 55       		pushq	%rbp
 5968              		.cfi_def_cfa_offset 16
 5969              		.cfi_offset 6, -16
 5970 0005 4889E5   		movq	%rsp, %rbp
 5971              		.cfi_def_cfa_register 6
 5972 0008 53       		pushq	%rbx
 5973 0009 4881ECC8 		subq	$456, %rsp
 5973      010000
 5974              		.cfi_offset 3, -24
 5975 0010 4889BD48 		movq	%rdi, -440(%rbp)
 5975      FEFFFF
 5976 0017 4889B540 		movq	%rsi, -448(%rbp)
 5976      FEFFFF
 5977 001e 48899538 		movq	%rdx, -456(%rbp)
 5977      FEFFFF
 5978 0025 48898D30 		movq	%rcx, -464(%rbp)
 5978      FEFFFF
 5979              		.loc 4 19 6
 5980 002c 64488B04 		movq	%fs:40, %rax
 5980      25280000 
 5980      00
 5981 0035 488945E8 		movq	%rax, -24(%rbp)
 5982 0039 31C0     		xorl	%eax, %eax
 5983              	.LBB13:
  20:/home/pong/FPGALink/makestuff/libs/libutpp/Checks.h **** {
  21:/home/pong/FPGALink/makestuff/libs/libutpp/Checks.h ****     if (!(expected == actual))
 5984              		.loc 4 21 20
 5985 003b 488B8540 		movq	-448(%rbp), %rax
 5985      FEFFFF
 5986 0042 8B10     		movl	(%rax), %edx
 5987 0044 488B8538 		movq	-456(%rbp), %rax
 5987      FEFFFF
 5988 004b 8B00     		movl	(%rax), %eax
 5989              		.loc 4 21 5
 5990 004d 39C2     		cmpl	%eax, %edx
 5991 004f 0F84C600 		je	.L209
 5991      0000
 5992              	.LBB14:
  22:/home/pong/FPGALink/makestuff/libs/libutpp/Checks.h ****     {
  23:/home/pong/FPGALink/makestuff/libs/libutpp/Checks.h ****         UnitTest::MemoryOutStream stream;
 5993              		.loc 4 23 35
 5994 0055 488D8550 		leaq	-432(%rbp), %rax
 5994      FEFFFF
 5995 005c 4889C7   		movq	%rax, %rdi
 5996              	.LEHB150:
 5997 005f E8000000 		call	_ZN8UnitTest15MemoryOutStreamC1Ev
 5997      00
 5998              	.LEHE150:
  24:/home/pong/FPGALink/makestuff/libs/libutpp/Checks.h ****         stream << "Expected " << expected << " but was " << actual;
 5999              		.loc 4 24 16
 6000 0064 488D8550 		leaq	-432(%rbp), %rax
 6000      FEFFFF
 6001 006b 488D1500 		leaq	.LC135(%rip), %rdx
 6001      000000
 6002 0072 4889D6   		movq	%rdx, %rsi
 6003 0075 4889C7   		movq	%rax, %rdi
 6004              	.LEHB151:
 6005 0078 E8000000 		call	_ZStlsISt11char_traitsIcEERSt13basic_ostreamIcT_ES5_PKc@PLT
 6005      00
 6006 007d 4889C2   		movq	%rax, %rdx
 6007              		.loc 4 24 43
 6008 0080 488B8540 		movq	-448(%rbp), %rax
 6008      FEFFFF
 6009 0087 8B00     		movl	(%rax), %eax
 6010 0089 89C6     		movl	%eax, %esi
 6011 008b 4889D7   		movq	%rdx, %rdi
 6012 008e E8000000 		call	_ZNSolsEi@PLT
 6012      00
 6013              		.loc 4 24 43 is_stmt 0 discriminator 1
 6014 0093 4889C2   		movq	%rax, %rdx
 6015 0096 488D0500 		leaq	.LC136(%rip), %rax
 6015      000000
 6016 009d 4889C6   		movq	%rax, %rsi
 6017 00a0 4889D7   		movq	%rdx, %rdi
 6018 00a3 E8000000 		call	_ZStlsISt11char_traitsIcEERSt13basic_ostreamIcT_ES5_PKc@PLT
 6018      00
 6019              		.loc 4 24 43 discriminator 2
 6020 00a8 4889C2   		movq	%rax, %rdx
 6021              		.loc 4 24 58 is_stmt 1 discriminator 2
 6022 00ab 488B8538 		movq	-456(%rbp), %rax
 6022      FEFFFF
 6023 00b2 8B00     		movl	(%rax), %eax
 6024 00b4 89C6     		movl	%eax, %esi
 6025 00b6 4889D7   		movq	%rdx, %rdi
 6026 00b9 E8000000 		call	_ZNSolsEi@PLT
 6026      00
  25:/home/pong/FPGALink/makestuff/libs/libutpp/Checks.h **** 
  26:/home/pong/FPGALink/makestuff/libs/libutpp/Checks.h ****         results.OnTestFailure(details, stream.GetText());
 6027              		.loc 4 26 30
 6028 00be 488D8550 		leaq	-432(%rbp), %rax
 6028      FEFFFF
 6029 00c5 4889C7   		movq	%rax, %rdi
 6030 00c8 E8000000 		call	_ZNK8UnitTest15MemoryOutStream7GetTextEv@PLT
 6030      00
 6031 00cd 4889C2   		movq	%rax, %rdx
 6032 00d0 488B8D30 		movq	-464(%rbp), %rcx
 6032      FEFFFF
 6033 00d7 488B8548 		movq	-440(%rbp), %rax
 6033      FEFFFF
 6034 00de 4889CE   		movq	%rcx, %rsi
 6035 00e1 4889C7   		movq	%rax, %rdi
 6036 00e4 E8000000 		call	_ZN8UnitTest11TestResults13OnTestFailureERKNS_11TestDetailsEPKc@PLT
 6036      00
 6037              	.LEHE151:
  27:/home/pong/FPGALink/makestuff/libs/libutpp/Checks.h ****     }
 6038              		.loc 4 27 5
 6039 00e9 488D8550 		leaq	-432(%rbp), %rax
 6039      FEFFFF
 6040 00f0 4889C7   		movq	%rax, %rdi
 6041              	.LEHB152:
 6042 00f3 E8000000 		call	_ZN8UnitTest15MemoryOutStreamD1Ev
 6042      00
 6043              	.LEHE152:
 6044              	.LBE14:
 6045              	.LBE13:
  28:/home/pong/FPGALink/makestuff/libs/libutpp/Checks.h **** }
 6046              		.loc 4 28 1
 6047 00f8 EB21     		jmp	.L209
 6048              	.L208:
 6049 00fa F30F1EFA 		endbr64
 6050              	.LBB16:
 6051              	.LBB15:
  27:/home/pong/FPGALink/makestuff/libs/libutpp/Checks.h ****     }
 6052              		.loc 4 27 5
 6053 00fe 4889C3   		movq	%rax, %rbx
 6054 0101 488D8550 		leaq	-432(%rbp), %rax
 6054      FEFFFF
 6055 0108 4889C7   		movq	%rax, %rdi
 6056 010b E8000000 		call	_ZN8UnitTest15MemoryOutStreamD1Ev
 6056      00
 6057 0110 4889D8   		movq	%rbx, %rax
 6058 0113 4889C7   		movq	%rax, %rdi
 6059              	.LEHB153:
 6060 0116 E8000000 		call	_Unwind_Resume@PLT
 6060      00
 6061              	.LEHE153:
 6062              	.L209:
 6063              	.LBE15:
 6064              	.LBE16:
 6065              		.loc 4 28 1
 6066 011b 90       		nop
 6067 011c 488B45E8 		movq	-24(%rbp), %rax
 6068 0120 64482B04 		subq	%fs:40, %rax
 6068      25280000 
 6068      00
 6069 0129 7405     		je	.L207
 6070 012b E8000000 		call	__stack_chk_fail@PLT
 6070      00
 6071              	.L207:
 6072 0130 488B5DF8 		movq	-8(%rbp), %rbx
 6073 0134 C9       		leave
 6074              		.cfi_def_cfa 7, 8
 6075 0135 C3       		ret
 6076              		.cfi_endproc
 6077              	.LFE1199:
 6078              		.section	.gcc_except_table
 6079              	.LLSDA1199:
 6080 0376 FF       		.byte	0xff
 6081 0377 FF       		.byte	0xff
 6082 0378 01       		.byte	0x1
 6083 0379 13       		.uleb128 .LLSDACSE1199-.LLSDACSB1199
 6084              	.LLSDACSB1199:
 6085 037a 5F       		.uleb128 .LEHB150-.LFB1199
 6086 037b 05       		.uleb128 .LEHE150-.LEHB150
 6087 037c 00       		.uleb128 0
 6088 037d 00       		.uleb128 0
 6089 037e 78       		.uleb128 .LEHB151-.LFB1199
 6090 037f 71       		.uleb128 .LEHE151-.LEHB151
 6091 0380 FA01     		.uleb128 .L208-.LFB1199
 6092 0382 00       		.uleb128 0
 6093 0383 F301     		.uleb128 .LEHB152-.LFB1199
 6094 0385 05       		.uleb128 .LEHE152-.LEHB152
 6095 0386 00       		.uleb128 0
 6096 0387 00       		.uleb128 0
 6097 0388 9602     		.uleb128 .LEHB153-.LFB1199
 6098 038a 05       		.uleb128 .LEHE153-.LEHB153
 6099 038b 00       		.uleb128 0
 6100 038c 00       		.uleb128 0
 6101              	.LLSDACSE1199:
 6102              		.section	.text._ZN8UnitTest10CheckEqualI8FLStatusS1_EEvRNS_11TestResultsERKT_RKT0_RKNS_11TestDetai
 6104              		.section	.text._ZN8UnitTest10CheckEqualIjmEEvRNS_11TestResultsERKT_RKT0_RKNS_11TestDetailsE,"axG",
 6105              		.weak	_ZN8UnitTest10CheckEqualIjmEEvRNS_11TestResultsERKT_RKT0_RKNS_11TestDetailsE
 6107              	_ZN8UnitTest10CheckEqualIjmEEvRNS_11TestResultsERKT_RKT0_RKNS_11TestDetailsE:
 6108              	.LFB1204:
  19:/home/pong/FPGALink/makestuff/libs/libutpp/Checks.h **** {
 6109              		.loc 4 19 6
 6110              		.cfi_startproc
 6111              		.cfi_personality 0x9b,DW.ref.__gxx_personality_v0
 6112              		.cfi_lsda 0x1b,.LLSDA1204
 6113 0000 F30F1EFA 		endbr64
 6114 0004 55       		pushq	%rbp
 6115              		.cfi_def_cfa_offset 16
 6116              		.cfi_offset 6, -16
 6117 0005 4889E5   		movq	%rsp, %rbp
 6118              		.cfi_def_cfa_register 6
 6119 0008 53       		pushq	%rbx
 6120 0009 4881ECC8 		subq	$456, %rsp
 6120      010000
 6121              		.cfi_offset 3, -24
 6122 0010 4889BD48 		movq	%rdi, -440(%rbp)
 6122      FEFFFF
 6123 0017 4889B540 		movq	%rsi, -448(%rbp)
 6123      FEFFFF
 6124 001e 48899538 		movq	%rdx, -456(%rbp)
 6124      FEFFFF
 6125 0025 48898D30 		movq	%rcx, -464(%rbp)
 6125      FEFFFF
  19:/home/pong/FPGALink/makestuff/libs/libutpp/Checks.h **** {
 6126              		.loc 4 19 6
 6127 002c 64488B04 		movq	%fs:40, %rax
 6127      25280000 
 6127      00
 6128 0035 488945E8 		movq	%rax, -24(%rbp)
 6129 0039 31C0     		xorl	%eax, %eax
 6130              	.LBB17:
  21:/home/pong/FPGALink/makestuff/libs/libutpp/Checks.h ****     {
 6131              		.loc 4 21 20
 6132 003b 488B8540 		movq	-448(%rbp), %rax
 6132      FEFFFF
 6133 0042 8B00     		movl	(%rax), %eax
 6134 0044 89C2     		movl	%eax, %edx
 6135 0046 488B8538 		movq	-456(%rbp), %rax
 6135      FEFFFF
 6136 004d 488B00   		movq	(%rax), %rax
  21:/home/pong/FPGALink/makestuff/libs/libutpp/Checks.h ****     {
 6137              		.loc 4 21 5
 6138 0050 4839C2   		cmpq	%rax, %rdx
 6139 0053 0F84C800 		je	.L215
 6139      0000
 6140              	.LBB18:
  23:/home/pong/FPGALink/makestuff/libs/libutpp/Checks.h ****         stream << "Expected " << expected << " but was " << actual;
 6141              		.loc 4 23 35
 6142 0059 488D8550 		leaq	-432(%rbp), %rax
 6142      FEFFFF
 6143 0060 4889C7   		movq	%rax, %rdi
 6144              	.LEHB154:
 6145 0063 E8000000 		call	_ZN8UnitTest15MemoryOutStreamC1Ev
 6145      00
 6146              	.LEHE154:
  24:/home/pong/FPGALink/makestuff/libs/libutpp/Checks.h **** 
 6147              		.loc 4 24 16
 6148 0068 488D8550 		leaq	-432(%rbp), %rax
 6148      FEFFFF
 6149 006f 488D1500 		leaq	.LC135(%rip), %rdx
 6149      000000
 6150 0076 4889D6   		movq	%rdx, %rsi
 6151 0079 4889C7   		movq	%rax, %rdi
 6152              	.LEHB155:
 6153 007c E8000000 		call	_ZStlsISt11char_traitsIcEERSt13basic_ostreamIcT_ES5_PKc@PLT
 6153      00
 6154 0081 4889C2   		movq	%rax, %rdx
  24:/home/pong/FPGALink/makestuff/libs/libutpp/Checks.h **** 
 6155              		.loc 4 24 31
 6156 0084 488B8540 		movq	-448(%rbp), %rax
 6156      FEFFFF
 6157 008b 8B00     		movl	(%rax), %eax
 6158 008d 89C6     		movl	%eax, %esi
 6159 008f 4889D7   		movq	%rdx, %rdi
 6160 0092 E8000000 		call	_ZNSolsEj@PLT
 6160      00
  24:/home/pong/FPGALink/makestuff/libs/libutpp/Checks.h **** 
 6161              		.loc 4 24 31 is_stmt 0 discriminator 1
 6162 0097 4889C2   		movq	%rax, %rdx
  24:/home/pong/FPGALink/makestuff/libs/libutpp/Checks.h **** 
 6163              		.loc 4 24 43 is_stmt 1 discriminator 1
 6164 009a 488D0500 		leaq	.LC136(%rip), %rax
 6164      000000
 6165 00a1 4889C6   		movq	%rax, %rsi
 6166 00a4 4889D7   		movq	%rdx, %rdi
 6167 00a7 E8000000 		call	_ZStlsISt11char_traitsIcEERSt13basic_ostreamIcT_ES5_PKc@PLT
 6167      00
  24:/home/pong/FPGALink/makestuff/libs/libutpp/Checks.h **** 
 6168              		.loc 4 24 43 is_stmt 0 discriminator 2
 6169 00ac 4889C2   		movq	%rax, %rdx
  24:/home/pong/FPGALink/makestuff/libs/libutpp/Checks.h **** 
 6170              		.loc 4 24 58 is_stmt 1 discriminator 2
 6171 00af 488B8538 		movq	-456(%rbp), %rax
 6171      FEFFFF
 6172 00b6 488B00   		movq	(%rax), %rax
 6173 00b9 4889C6   		movq	%rax, %rsi
 6174 00bc 4889D7   		movq	%rdx, %rdi
 6175 00bf E8000000 		call	_ZNSolsEm@PLT
 6175      00
  26:/home/pong/FPGALink/makestuff/libs/libutpp/Checks.h ****     }
 6176              		.loc 4 26 30
 6177 00c4 488D8550 		leaq	-432(%rbp), %rax
 6177      FEFFFF
 6178 00cb 4889C7   		movq	%rax, %rdi
 6179 00ce E8000000 		call	_ZNK8UnitTest15MemoryOutStream7GetTextEv@PLT
 6179      00
 6180 00d3 4889C2   		movq	%rax, %rdx
 6181 00d6 488B8D30 		movq	-464(%rbp), %rcx
 6181      FEFFFF
 6182 00dd 488B8548 		movq	-440(%rbp), %rax
 6182      FEFFFF
 6183 00e4 4889CE   		movq	%rcx, %rsi
 6184 00e7 4889C7   		movq	%rax, %rdi
 6185 00ea E8000000 		call	_ZN8UnitTest11TestResults13OnTestFailureERKNS_11TestDetailsEPKc@PLT
 6185      00
 6186              	.LEHE155:
  27:/home/pong/FPGALink/makestuff/libs/libutpp/Checks.h **** }
 6187              		.loc 4 27 5
 6188 00ef 488D8550 		leaq	-432(%rbp), %rax
 6188      FEFFFF
 6189 00f6 4889C7   		movq	%rax, %rdi
 6190              	.LEHB156:
 6191 00f9 E8000000 		call	_ZN8UnitTest15MemoryOutStreamD1Ev
 6191      00
 6192              	.LEHE156:
 6193              	.LBE18:
 6194              	.LBE17:
 6195              		.loc 4 28 1
 6196 00fe EB21     		jmp	.L215
 6197              	.L214:
 6198 0100 F30F1EFA 		endbr64
 6199              	.LBB20:
 6200              	.LBB19:
  27:/home/pong/FPGALink/makestuff/libs/libutpp/Checks.h **** }
 6201              		.loc 4 27 5
 6202 0104 4889C3   		movq	%rax, %rbx
 6203 0107 488D8550 		leaq	-432(%rbp), %rax
 6203      FEFFFF
 6204 010e 4889C7   		movq	%rax, %rdi
 6205 0111 E8000000 		call	_ZN8UnitTest15MemoryOutStreamD1Ev
 6205      00
 6206 0116 4889D8   		movq	%rbx, %rax
 6207 0119 4889C7   		movq	%rax, %rdi
 6208              	.LEHB157:
 6209 011c E8000000 		call	_Unwind_Resume@PLT
 6209      00
 6210              	.LEHE157:
 6211              	.L215:
 6212              	.LBE19:
 6213              	.LBE20:
 6214              		.loc 4 28 1
 6215 0121 90       		nop
 6216 0122 488B45E8 		movq	-24(%rbp), %rax
 6217 0126 64482B04 		subq	%fs:40, %rax
 6217      25280000 
 6217      00
 6218 012f 7405     		je	.L213
 6219 0131 E8000000 		call	__stack_chk_fail@PLT
 6219      00
 6220              	.L213:
 6221 0136 488B5DF8 		movq	-8(%rbp), %rbx
 6222 013a C9       		leave
 6223              		.cfi_def_cfa 7, 8
 6224 013b C3       		ret
 6225              		.cfi_endproc
 6226              	.LFE1204:
 6227              		.section	.gcc_except_table
 6228              	.LLSDA1204:
 6229 038d FF       		.byte	0xff
 6230 038e FF       		.byte	0xff
 6231 038f 01       		.byte	0x1
 6232 0390 13       		.uleb128 .LLSDACSE1204-.LLSDACSB1204
 6233              	.LLSDACSB1204:
 6234 0391 63       		.uleb128 .LEHB154-.LFB1204
 6235 0392 05       		.uleb128 .LEHE154-.LEHB154
 6236 0393 00       		.uleb128 0
 6237 0394 00       		.uleb128 0
 6238 0395 7C       		.uleb128 .LEHB155-.LFB1204
 6239 0396 73       		.uleb128 .LEHE155-.LEHB155
 6240 0397 8002     		.uleb128 .L214-.LFB1204
 6241 0399 00       		.uleb128 0
 6242 039a F901     		.uleb128 .LEHB156-.LFB1204
 6243 039c 05       		.uleb128 .LEHE156-.LEHB156
 6244 039d 00       		.uleb128 0
 6245 039e 00       		.uleb128 0
 6246 039f 9C02     		.uleb128 .LEHB157-.LFB1204
 6247 03a1 05       		.uleb128 .LEHE157-.LEHB157
 6248 03a2 00       		.uleb128 0
 6249 03a3 00       		.uleb128 0
 6250              	.LLSDACSE1204:
 6251              		.section	.text._ZN8UnitTest10CheckEqualIjmEEvRNS_11TestResultsERKT_RKT0_RKNS_11TestDetailsE,"axG",
 6253              		.section	.text._ZN8UnitTest10CheckEqualI12BufferStatusS1_EEvRNS_11TestResultsERKT_RKT0_RKNS_11Test
 6254              		.weak	_ZN8UnitTest10CheckEqualI12BufferStatusS1_EEvRNS_11TestResultsERKT_RKT0_RKNS_11TestDetailsE
 6256              	_ZN8UnitTest10CheckEqualI12BufferStatusS1_EEvRNS_11TestResultsERKT_RKT0_RKNS_11TestDetailsE:
 6257              	.LFB1205:
  19:/home/pong/FPGALink/makestuff/libs/libutpp/Checks.h **** {
 6258              		.loc 4 19 6
 6259              		.cfi_startproc
 6260              		.cfi_personality 0x9b,DW.ref.__gxx_personality_v0
 6261              		.cfi_lsda 0x1b,.LLSDA1205
 6262 0000 F30F1EFA 		endbr64
 6263 0004 55       		pushq	%rbp
 6264              		.cfi_def_cfa_offset 16
 6265              		.cfi_offset 6, -16
 6266 0005 4889E5   		movq	%rsp, %rbp
 6267              		.cfi_def_cfa_register 6
 6268 0008 53       		pushq	%rbx
 6269 0009 4881ECC8 		subq	$456, %rsp
 6269      010000
 6270              		.cfi_offset 3, -24
 6271 0010 4889BD48 		movq	%rdi, -440(%rbp)
 6271      FEFFFF
 6272 0017 4889B540 		movq	%rsi, -448(%rbp)
 6272      FEFFFF
 6273 001e 48899538 		movq	%rdx, -456(%rbp)
 6273      FEFFFF
 6274 0025 48898D30 		movq	%rcx, -464(%rbp)
 6274      FEFFFF
  19:/home/pong/FPGALink/makestuff/libs/libutpp/Checks.h **** {
 6275              		.loc 4 19 6
 6276 002c 64488B04 		movq	%fs:40, %rax
 6276      25280000 
 6276      00
 6277 0035 488945E8 		movq	%rax, -24(%rbp)
 6278 0039 31C0     		xorl	%eax, %eax
 6279              	.LBB21:
  21:/home/pong/FPGALink/makestuff/libs/libutpp/Checks.h ****     {
 6280              		.loc 4 21 20
 6281 003b 488B8540 		movq	-448(%rbp), %rax
 6281      FEFFFF
 6282 0042 8B10     		movl	(%rax), %edx
 6283 0044 488B8538 		movq	-456(%rbp), %rax
 6283      FEFFFF
 6284 004b 8B00     		movl	(%rax), %eax
  21:/home/pong/FPGALink/makestuff/libs/libutpp/Checks.h ****     {
 6285              		.loc 4 21 5
 6286 004d 39C2     		cmpl	%eax, %edx
 6287 004f 0F84C600 		je	.L221
 6287      0000
 6288              	.LBB22:
  23:/home/pong/FPGALink/makestuff/libs/libutpp/Checks.h ****         stream << "Expected " << expected << " but was " << actual;
 6289              		.loc 4 23 35
 6290 0055 488D8550 		leaq	-432(%rbp), %rax
 6290      FEFFFF
 6291 005c 4889C7   		movq	%rax, %rdi
 6292              	.LEHB158:
 6293 005f E8000000 		call	_ZN8UnitTest15MemoryOutStreamC1Ev
 6293      00
 6294              	.LEHE158:
  24:/home/pong/FPGALink/makestuff/libs/libutpp/Checks.h **** 
 6295              		.loc 4 24 16
 6296 0064 488D8550 		leaq	-432(%rbp), %rax
 6296      FEFFFF
 6297 006b 488D1500 		leaq	.LC135(%rip), %rdx
 6297      000000
 6298 0072 4889D6   		movq	%rdx, %rsi
 6299 0075 4889C7   		movq	%rax, %rdi
 6300              	.LEHB159:
 6301 0078 E8000000 		call	_ZStlsISt11char_traitsIcEERSt13basic_ostreamIcT_ES5_PKc@PLT
 6301      00
 6302 007d 4889C2   		movq	%rax, %rdx
  24:/home/pong/FPGALink/makestuff/libs/libutpp/Checks.h **** 
 6303              		.loc 4 24 43
 6304 0080 488B8540 		movq	-448(%rbp), %rax
 6304      FEFFFF
 6305 0087 8B00     		movl	(%rax), %eax
 6306 0089 89C6     		movl	%eax, %esi
 6307 008b 4889D7   		movq	%rdx, %rdi
 6308 008e E8000000 		call	_ZNSolsEi@PLT
 6308      00
  24:/home/pong/FPGALink/makestuff/libs/libutpp/Checks.h **** 
 6309              		.loc 4 24 43 is_stmt 0 discriminator 1
 6310 0093 4889C2   		movq	%rax, %rdx
 6311 0096 488D0500 		leaq	.LC136(%rip), %rax
 6311      000000
 6312 009d 4889C6   		movq	%rax, %rsi
 6313 00a0 4889D7   		movq	%rdx, %rdi
 6314 00a3 E8000000 		call	_ZStlsISt11char_traitsIcEERSt13basic_ostreamIcT_ES5_PKc@PLT
 6314      00
  24:/home/pong/FPGALink/makestuff/libs/libutpp/Checks.h **** 
 6315              		.loc 4 24 43 discriminator 2
 6316 00a8 4889C2   		movq	%rax, %rdx
  24:/home/pong/FPGALink/makestuff/libs/libutpp/Checks.h **** 
 6317              		.loc 4 24 58 is_stmt 1 discriminator 2
 6318 00ab 488B8538 		movq	-456(%rbp), %rax
 6318      FEFFFF
 6319 00b2 8B00     		movl	(%rax), %eax
 6320 00b4 89C6     		movl	%eax, %esi
 6321 00b6 4889D7   		movq	%rdx, %rdi
 6322 00b9 E8000000 		call	_ZNSolsEi@PLT
 6322      00
  26:/home/pong/FPGALink/makestuff/libs/libutpp/Checks.h ****     }
 6323              		.loc 4 26 30
 6324 00be 488D8550 		leaq	-432(%rbp), %rax
 6324      FEFFFF
 6325 00c5 4889C7   		movq	%rax, %rdi
 6326 00c8 E8000000 		call	_ZNK8UnitTest15MemoryOutStream7GetTextEv@PLT
 6326      00
 6327 00cd 4889C2   		movq	%rax, %rdx
 6328 00d0 488B8D30 		movq	-464(%rbp), %rcx
 6328      FEFFFF
 6329 00d7 488B8548 		movq	-440(%rbp), %rax
 6329      FEFFFF
 6330 00de 4889CE   		movq	%rcx, %rsi
 6331 00e1 4889C7   		movq	%rax, %rdi
 6332 00e4 E8000000 		call	_ZN8UnitTest11TestResults13OnTestFailureERKNS_11TestDetailsEPKc@PLT
 6332      00
 6333              	.LEHE159:
  27:/home/pong/FPGALink/makestuff/libs/libutpp/Checks.h **** }
 6334              		.loc 4 27 5
 6335 00e9 488D8550 		leaq	-432(%rbp), %rax
 6335      FEFFFF
 6336 00f0 4889C7   		movq	%rax, %rdi
 6337              	.LEHB160:
 6338 00f3 E8000000 		call	_ZN8UnitTest15MemoryOutStreamD1Ev
 6338      00
 6339              	.LEHE160:
 6340              	.LBE22:
 6341              	.LBE21:
 6342              		.loc 4 28 1
 6343 00f8 EB21     		jmp	.L221
 6344              	.L220:
 6345 00fa F30F1EFA 		endbr64
 6346              	.LBB24:
 6347              	.LBB23:
  27:/home/pong/FPGALink/makestuff/libs/libutpp/Checks.h **** }
 6348              		.loc 4 27 5
 6349 00fe 4889C3   		movq	%rax, %rbx
 6350 0101 488D8550 		leaq	-432(%rbp), %rax
 6350      FEFFFF
 6351 0108 4889C7   		movq	%rax, %rdi
 6352 010b E8000000 		call	_ZN8UnitTest15MemoryOutStreamD1Ev
 6352      00
 6353 0110 4889D8   		movq	%rbx, %rax
 6354 0113 4889C7   		movq	%rax, %rdi
 6355              	.LEHB161:
 6356 0116 E8000000 		call	_Unwind_Resume@PLT
 6356      00
 6357              	.LEHE161:
 6358              	.L221:
 6359              	.LBE23:
 6360              	.LBE24:
 6361              		.loc 4 28 1
 6362 011b 90       		nop
 6363 011c 488B45E8 		movq	-24(%rbp), %rax
 6364 0120 64482B04 		subq	%fs:40, %rax
 6364      25280000 
 6364      00
 6365 0129 7405     		je	.L219
 6366 012b E8000000 		call	__stack_chk_fail@PLT
 6366      00
 6367              	.L219:
 6368 0130 488B5DF8 		movq	-8(%rbp), %rbx
 6369 0134 C9       		leave
 6370              		.cfi_def_cfa 7, 8
 6371 0135 C3       		ret
 6372              		.cfi_endproc
 6373              	.LFE1205:
 6374              		.section	.gcc_except_table
 6375              	.LLSDA1205:
 6376 03a4 FF       		.byte	0xff
 6377 03a5 FF       		.byte	0xff
 6378 03a6 01       		.byte	0x1
 6379 03a7 13       		.uleb128 .LLSDACSE1205-.LLSDACSB1205
 6380              	.LLSDACSB1205:
 6381 03a8 5F       		.uleb128 .LEHB158-.LFB1205
 6382 03a9 05       		.uleb128 .LEHE158-.LEHB158
 6383 03aa 00       		.uleb128 0
 6384 03ab 00       		.uleb128 0
 6385 03ac 78       		.uleb128 .LEHB159-.LFB1205
 6386 03ad 71       		.uleb128 .LEHE159-.LEHB159
 6387 03ae FA01     		.uleb128 .L220-.LFB1205
 6388 03b0 00       		.uleb128 0
 6389 03b1 F301     		.uleb128 .LEHB160-.LFB1205
 6390 03b3 05       		.uleb128 .LEHE160-.LEHB160
 6391 03b4 00       		.uleb128 0
 6392 03b5 00       		.uleb128 0
 6393 03b6 9602     		.uleb128 .LEHB161-.LFB1205
 6394 03b8 05       		.uleb128 .LEHE161-.LEHB161
 6395 03b9 00       		.uleb128 0
 6396 03ba 00       		.uleb128 0
 6397              	.LLSDACSE1205:
 6398              		.section	.text._ZN8UnitTest10CheckEqualI12BufferStatusS1_EEvRNS_11TestResultsERKT_RKT0_RKNS_11Test
 6400              		.section	.text._ZN8UnitTest10CheckEqualImmEEvRNS_11TestResultsERKT_RKT0_RKNS_11TestDetailsE,"axG",
 6401              		.weak	_ZN8UnitTest10CheckEqualImmEEvRNS_11TestResultsERKT_RKT0_RKNS_11TestDetailsE
 6403              	_ZN8UnitTest10CheckEqualImmEEvRNS_11TestResultsERKT_RKT0_RKNS_11TestDetailsE:
 6404              	.LFB1206:
  19:/home/pong/FPGALink/makestuff/libs/libutpp/Checks.h **** {
 6405              		.loc 4 19 6
 6406              		.cfi_startproc
 6407              		.cfi_personality 0x9b,DW.ref.__gxx_personality_v0
 6408              		.cfi_lsda 0x1b,.LLSDA1206
 6409 0000 F30F1EFA 		endbr64
 6410 0004 55       		pushq	%rbp
 6411              		.cfi_def_cfa_offset 16
 6412              		.cfi_offset 6, -16
 6413 0005 4889E5   		movq	%rsp, %rbp
 6414              		.cfi_def_cfa_register 6
 6415 0008 53       		pushq	%rbx
 6416 0009 4881ECC8 		subq	$456, %rsp
 6416      010000
 6417              		.cfi_offset 3, -24
 6418 0010 4889BD48 		movq	%rdi, -440(%rbp)
 6418      FEFFFF
 6419 0017 4889B540 		movq	%rsi, -448(%rbp)
 6419      FEFFFF
 6420 001e 48899538 		movq	%rdx, -456(%rbp)
 6420      FEFFFF
 6421 0025 48898D30 		movq	%rcx, -464(%rbp)
 6421      FEFFFF
  19:/home/pong/FPGALink/makestuff/libs/libutpp/Checks.h **** {
 6422              		.loc 4 19 6
 6423 002c 64488B04 		movq	%fs:40, %rax
 6423      25280000 
 6423      00
 6424 0035 488945E8 		movq	%rax, -24(%rbp)
 6425 0039 31C0     		xorl	%eax, %eax
 6426              	.LBB25:
  21:/home/pong/FPGALink/makestuff/libs/libutpp/Checks.h ****     {
 6427              		.loc 4 21 20
 6428 003b 488B8540 		movq	-448(%rbp), %rax
 6428      FEFFFF
 6429 0042 488B10   		movq	(%rax), %rdx
 6430 0045 488B8538 		movq	-456(%rbp), %rax
 6430      FEFFFF
 6431 004c 488B00   		movq	(%rax), %rax
  21:/home/pong/FPGALink/makestuff/libs/libutpp/Checks.h ****     {
 6432              		.loc 4 21 5
 6433 004f 4839C2   		cmpq	%rax, %rdx
 6434 0052 0F84CA00 		je	.L227
 6434      0000
 6435              	.LBB26:
  23:/home/pong/FPGALink/makestuff/libs/libutpp/Checks.h ****         stream << "Expected " << expected << " but was " << actual;
 6436              		.loc 4 23 35
 6437 0058 488D8550 		leaq	-432(%rbp), %rax
 6437      FEFFFF
 6438 005f 4889C7   		movq	%rax, %rdi
 6439              	.LEHB162:
 6440 0062 E8000000 		call	_ZN8UnitTest15MemoryOutStreamC1Ev
 6440      00
 6441              	.LEHE162:
  24:/home/pong/FPGALink/makestuff/libs/libutpp/Checks.h **** 
 6442              		.loc 4 24 16
 6443 0067 488D8550 		leaq	-432(%rbp), %rax
 6443      FEFFFF
 6444 006e 488D1500 		leaq	.LC135(%rip), %rdx
 6444      000000
 6445 0075 4889D6   		movq	%rdx, %rsi
 6446 0078 4889C7   		movq	%rax, %rdi
 6447              	.LEHB163:
 6448 007b E8000000 		call	_ZStlsISt11char_traitsIcEERSt13basic_ostreamIcT_ES5_PKc@PLT
 6448      00
 6449 0080 4889C2   		movq	%rax, %rdx
  24:/home/pong/FPGALink/makestuff/libs/libutpp/Checks.h **** 
 6450              		.loc 4 24 31
 6451 0083 488B8540 		movq	-448(%rbp), %rax
 6451      FEFFFF
 6452 008a 488B00   		movq	(%rax), %rax
 6453 008d 4889C6   		movq	%rax, %rsi
 6454 0090 4889D7   		movq	%rdx, %rdi
 6455 0093 E8000000 		call	_ZNSolsEm@PLT
 6455      00
  24:/home/pong/FPGALink/makestuff/libs/libutpp/Checks.h **** 
 6456              		.loc 4 24 31 is_stmt 0 discriminator 1
 6457 0098 4889C2   		movq	%rax, %rdx
  24:/home/pong/FPGALink/makestuff/libs/libutpp/Checks.h **** 
 6458              		.loc 4 24 43 is_stmt 1 discriminator 1
 6459 009b 488D0500 		leaq	.LC136(%rip), %rax
 6459      000000
 6460 00a2 4889C6   		movq	%rax, %rsi
 6461 00a5 4889D7   		movq	%rdx, %rdi
 6462 00a8 E8000000 		call	_ZStlsISt11char_traitsIcEERSt13basic_ostreamIcT_ES5_PKc@PLT
 6462      00
  24:/home/pong/FPGALink/makestuff/libs/libutpp/Checks.h **** 
 6463              		.loc 4 24 43 is_stmt 0 discriminator 2
 6464 00ad 4889C2   		movq	%rax, %rdx
  24:/home/pong/FPGALink/makestuff/libs/libutpp/Checks.h **** 
 6465              		.loc 4 24 58 is_stmt 1 discriminator 2
 6466 00b0 488B8538 		movq	-456(%rbp), %rax
 6466      FEFFFF
 6467 00b7 488B00   		movq	(%rax), %rax
 6468 00ba 4889C6   		movq	%rax, %rsi
 6469 00bd 4889D7   		movq	%rdx, %rdi
 6470 00c0 E8000000 		call	_ZNSolsEm@PLT
 6470      00
  26:/home/pong/FPGALink/makestuff/libs/libutpp/Checks.h ****     }
 6471              		.loc 4 26 30
 6472 00c5 488D8550 		leaq	-432(%rbp), %rax
 6472      FEFFFF
 6473 00cc 4889C7   		movq	%rax, %rdi
 6474 00cf E8000000 		call	_ZNK8UnitTest15MemoryOutStream7GetTextEv@PLT
 6474      00
 6475 00d4 4889C2   		movq	%rax, %rdx
 6476 00d7 488B8D30 		movq	-464(%rbp), %rcx
 6476      FEFFFF
 6477 00de 488B8548 		movq	-440(%rbp), %rax
 6477      FEFFFF
 6478 00e5 4889CE   		movq	%rcx, %rsi
 6479 00e8 4889C7   		movq	%rax, %rdi
 6480 00eb E8000000 		call	_ZN8UnitTest11TestResults13OnTestFailureERKNS_11TestDetailsEPKc@PLT
 6480      00
 6481              	.LEHE163:
  27:/home/pong/FPGALink/makestuff/libs/libutpp/Checks.h **** }
 6482              		.loc 4 27 5
 6483 00f0 488D8550 		leaq	-432(%rbp), %rax
 6483      FEFFFF
 6484 00f7 4889C7   		movq	%rax, %rdi
 6485              	.LEHB164:
 6486 00fa E8000000 		call	_ZN8UnitTest15MemoryOutStreamD1Ev
 6486      00
 6487              	.LEHE164:
 6488              	.LBE26:
 6489              	.LBE25:
 6490              		.loc 4 28 1
 6491 00ff EB21     		jmp	.L227
 6492              	.L226:
 6493 0101 F30F1EFA 		endbr64
 6494              	.LBB28:
 6495              	.LBB27:
  27:/home/pong/FPGALink/makestuff/libs/libutpp/Checks.h **** }
 6496              		.loc 4 27 5
 6497 0105 4889C3   		movq	%rax, %rbx
 6498 0108 488D8550 		leaq	-432(%rbp), %rax
 6498      FEFFFF
 6499 010f 4889C7   		movq	%rax, %rdi
 6500 0112 E8000000 		call	_ZN8UnitTest15MemoryOutStreamD1Ev
 6500      00
 6501 0117 4889D8   		movq	%rbx, %rax
 6502 011a 4889C7   		movq	%rax, %rdi
 6503              	.LEHB165:
 6504 011d E8000000 		call	_Unwind_Resume@PLT
 6504      00
 6505              	.LEHE165:
 6506              	.L227:
 6507              	.LBE27:
 6508              	.LBE28:
 6509              		.loc 4 28 1
 6510 0122 90       		nop
 6511 0123 488B45E8 		movq	-24(%rbp), %rax
 6512 0127 64482B04 		subq	%fs:40, %rax
 6512      25280000 
 6512      00
 6513 0130 7405     		je	.L225
 6514 0132 E8000000 		call	__stack_chk_fail@PLT
 6514      00
 6515              	.L225:
 6516 0137 488B5DF8 		movq	-8(%rbp), %rbx
 6517 013b C9       		leave
 6518              		.cfi_def_cfa 7, 8
 6519 013c C3       		ret
 6520              		.cfi_endproc
 6521              	.LFE1206:
 6522              		.section	.gcc_except_table
 6523              	.LLSDA1206:
 6524 03bb FF       		.byte	0xff
 6525 03bc FF       		.byte	0xff
 6526 03bd 01       		.byte	0x1
 6527 03be 13       		.uleb128 .LLSDACSE1206-.LLSDACSB1206
 6528              	.LLSDACSB1206:
 6529 03bf 62       		.uleb128 .LEHB162-.LFB1206
 6530 03c0 05       		.uleb128 .LEHE162-.LEHB162
 6531 03c1 00       		.uleb128 0
 6532 03c2 00       		.uleb128 0
 6533 03c3 7B       		.uleb128 .LEHB163-.LFB1206
 6534 03c4 75       		.uleb128 .LEHE163-.LEHB163
 6535 03c5 8102     		.uleb128 .L226-.LFB1206
 6536 03c7 00       		.uleb128 0
 6537 03c8 FA01     		.uleb128 .LEHB164-.LFB1206
 6538 03ca 05       		.uleb128 .LEHE164-.LEHB164
 6539 03cb 00       		.uleb128 0
 6540 03cc 00       		.uleb128 0
 6541 03cd 9D02     		.uleb128 .LEHB165-.LFB1206
 6542 03cf 05       		.uleb128 .LEHE165-.LEHB165
 6543 03d0 00       		.uleb128 0
 6544 03d1 00       		.uleb128 0
 6545              	.LLSDACSE1206:
 6546              		.section	.text._ZN8UnitTest10CheckEqualImmEEvRNS_11TestResultsERKT_RKT0_RKNS_11TestDetailsE,"axG",
 6548              		.section	.text._ZN8UnitTest10CheckEqualIjjEEvRNS_11TestResultsERKT_RKT0_RKNS_11TestDetailsE,"axG",
 6549              		.weak	_ZN8UnitTest10CheckEqualIjjEEvRNS_11TestResultsERKT_RKT0_RKNS_11TestDetailsE
 6551              	_ZN8UnitTest10CheckEqualIjjEEvRNS_11TestResultsERKT_RKT0_RKNS_11TestDetailsE:
 6552              	.LFB1207:
  19:/home/pong/FPGALink/makestuff/libs/libutpp/Checks.h **** {
 6553              		.loc 4 19 6
 6554              		.cfi_startproc
 6555              		.cfi_personality 0x9b,DW.ref.__gxx_personality_v0
 6556              		.cfi_lsda 0x1b,.LLSDA1207
 6557 0000 F30F1EFA 		endbr64
 6558 0004 55       		pushq	%rbp
 6559              		.cfi_def_cfa_offset 16
 6560              		.cfi_offset 6, -16
 6561 0005 4889E5   		movq	%rsp, %rbp
 6562              		.cfi_def_cfa_register 6
 6563 0008 53       		pushq	%rbx
 6564 0009 4881ECC8 		subq	$456, %rsp
 6564      010000
 6565              		.cfi_offset 3, -24
 6566 0010 4889BD48 		movq	%rdi, -440(%rbp)
 6566      FEFFFF
 6567 0017 4889B540 		movq	%rsi, -448(%rbp)
 6567      FEFFFF
 6568 001e 48899538 		movq	%rdx, -456(%rbp)
 6568      FEFFFF
 6569 0025 48898D30 		movq	%rcx, -464(%rbp)
 6569      FEFFFF
  19:/home/pong/FPGALink/makestuff/libs/libutpp/Checks.h **** {
 6570              		.loc 4 19 6
 6571 002c 64488B04 		movq	%fs:40, %rax
 6571      25280000 
 6571      00
 6572 0035 488945E8 		movq	%rax, -24(%rbp)
 6573 0039 31C0     		xorl	%eax, %eax
 6574              	.LBB29:
  21:/home/pong/FPGALink/makestuff/libs/libutpp/Checks.h ****     {
 6575              		.loc 4 21 20
 6576 003b 488B8540 		movq	-448(%rbp), %rax
 6576      FEFFFF
 6577 0042 8B10     		movl	(%rax), %edx
 6578 0044 488B8538 		movq	-456(%rbp), %rax
 6578      FEFFFF
 6579 004b 8B00     		movl	(%rax), %eax
  21:/home/pong/FPGALink/makestuff/libs/libutpp/Checks.h ****     {
 6580              		.loc 4 21 5
 6581 004d 39C2     		cmpl	%eax, %edx
 6582 004f 0F84C600 		je	.L233
 6582      0000
 6583              	.LBB30:
  23:/home/pong/FPGALink/makestuff/libs/libutpp/Checks.h ****         stream << "Expected " << expected << " but was " << actual;
 6584              		.loc 4 23 35
 6585 0055 488D8550 		leaq	-432(%rbp), %rax
 6585      FEFFFF
 6586 005c 4889C7   		movq	%rax, %rdi
 6587              	.LEHB166:
 6588 005f E8000000 		call	_ZN8UnitTest15MemoryOutStreamC1Ev
 6588      00
 6589              	.LEHE166:
  24:/home/pong/FPGALink/makestuff/libs/libutpp/Checks.h **** 
 6590              		.loc 4 24 16
 6591 0064 488D8550 		leaq	-432(%rbp), %rax
 6591      FEFFFF
 6592 006b 488D1500 		leaq	.LC135(%rip), %rdx
 6592      000000
 6593 0072 4889D6   		movq	%rdx, %rsi
 6594 0075 4889C7   		movq	%rax, %rdi
 6595              	.LEHB167:
 6596 0078 E8000000 		call	_ZStlsISt11char_traitsIcEERSt13basic_ostreamIcT_ES5_PKc@PLT
 6596      00
 6597 007d 4889C2   		movq	%rax, %rdx
  24:/home/pong/FPGALink/makestuff/libs/libutpp/Checks.h **** 
 6598              		.loc 4 24 31
 6599 0080 488B8540 		movq	-448(%rbp), %rax
 6599      FEFFFF
 6600 0087 8B00     		movl	(%rax), %eax
 6601 0089 89C6     		movl	%eax, %esi
 6602 008b 4889D7   		movq	%rdx, %rdi
 6603 008e E8000000 		call	_ZNSolsEj@PLT
 6603      00
  24:/home/pong/FPGALink/makestuff/libs/libutpp/Checks.h **** 
 6604              		.loc 4 24 31 is_stmt 0 discriminator 1
 6605 0093 4889C2   		movq	%rax, %rdx
  24:/home/pong/FPGALink/makestuff/libs/libutpp/Checks.h **** 
 6606              		.loc 4 24 43 is_stmt 1 discriminator 1
 6607 0096 488D0500 		leaq	.LC136(%rip), %rax
 6607      000000
 6608 009d 4889C6   		movq	%rax, %rsi
 6609 00a0 4889D7   		movq	%rdx, %rdi
 6610 00a3 E8000000 		call	_ZStlsISt11char_traitsIcEERSt13basic_ostreamIcT_ES5_PKc@PLT
 6610      00
  24:/home/pong/FPGALink/makestuff/libs/libutpp/Checks.h **** 
 6611              		.loc 4 24 43 is_stmt 0 discriminator 2
 6612 00a8 4889C2   		movq	%rax, %rdx
  24:/home/pong/FPGALink/makestuff/libs/libutpp/Checks.h **** 
 6613              		.loc 4 24 58 is_stmt 1 discriminator 2
 6614 00ab 488B8538 		movq	-456(%rbp), %rax
 6614      FEFFFF
 6615 00b2 8B00     		movl	(%rax), %eax
 6616 00b4 89C6     		movl	%eax, %esi
 6617 00b6 4889D7   		movq	%rdx, %rdi
 6618 00b9 E8000000 		call	_ZNSolsEj@PLT
 6618      00
  26:/home/pong/FPGALink/makestuff/libs/libutpp/Checks.h ****     }
 6619              		.loc 4 26 30
 6620 00be 488D8550 		leaq	-432(%rbp), %rax
 6620      FEFFFF
 6621 00c5 4889C7   		movq	%rax, %rdi
 6622 00c8 E8000000 		call	_ZNK8UnitTest15MemoryOutStream7GetTextEv@PLT
 6622      00
 6623 00cd 4889C2   		movq	%rax, %rdx
 6624 00d0 488B8D30 		movq	-464(%rbp), %rcx
 6624      FEFFFF
 6625 00d7 488B8548 		movq	-440(%rbp), %rax
 6625      FEFFFF
 6626 00de 4889CE   		movq	%rcx, %rsi
 6627 00e1 4889C7   		movq	%rax, %rdi
 6628 00e4 E8000000 		call	_ZN8UnitTest11TestResults13OnTestFailureERKNS_11TestDetailsEPKc@PLT
 6628      00
 6629              	.LEHE167:
  27:/home/pong/FPGALink/makestuff/libs/libutpp/Checks.h **** }
 6630              		.loc 4 27 5
 6631 00e9 488D8550 		leaq	-432(%rbp), %rax
 6631      FEFFFF
 6632 00f0 4889C7   		movq	%rax, %rdi
 6633              	.LEHB168:
 6634 00f3 E8000000 		call	_ZN8UnitTest15MemoryOutStreamD1Ev
 6634      00
 6635              	.LEHE168:
 6636              	.LBE30:
 6637              	.LBE29:
 6638              		.loc 4 28 1
 6639 00f8 EB21     		jmp	.L233
 6640              	.L232:
 6641 00fa F30F1EFA 		endbr64
 6642              	.LBB32:
 6643              	.LBB31:
  27:/home/pong/FPGALink/makestuff/libs/libutpp/Checks.h **** }
 6644              		.loc 4 27 5
 6645 00fe 4889C3   		movq	%rax, %rbx
 6646 0101 488D8550 		leaq	-432(%rbp), %rax
 6646      FEFFFF
 6647 0108 4889C7   		movq	%rax, %rdi
 6648 010b E8000000 		call	_ZN8UnitTest15MemoryOutStreamD1Ev
 6648      00
 6649 0110 4889D8   		movq	%rbx, %rax
 6650 0113 4889C7   		movq	%rax, %rdi
 6651              	.LEHB169:
 6652 0116 E8000000 		call	_Unwind_Resume@PLT
 6652      00
 6653              	.LEHE169:
 6654              	.L233:
 6655              	.LBE31:
 6656              	.LBE32:
 6657              		.loc 4 28 1
 6658 011b 90       		nop
 6659 011c 488B45E8 		movq	-24(%rbp), %rax
 6660 0120 64482B04 		subq	%fs:40, %rax
 6660      25280000 
 6660      00
 6661 0129 7405     		je	.L231
 6662 012b E8000000 		call	__stack_chk_fail@PLT
 6662      00
 6663              	.L231:
 6664 0130 488B5DF8 		movq	-8(%rbp), %rbx
 6665 0134 C9       		leave
 6666              		.cfi_def_cfa 7, 8
 6667 0135 C3       		ret
 6668              		.cfi_endproc
 6669              	.LFE1207:
 6670              		.section	.gcc_except_table
 6671              	.LLSDA1207:
 6672 03d2 FF       		.byte	0xff
 6673 03d3 FF       		.byte	0xff
 6674 03d4 01       		.byte	0x1
 6675 03d5 13       		.uleb128 .LLSDACSE1207-.LLSDACSB1207
 6676              	.LLSDACSB1207:
 6677 03d6 5F       		.uleb128 .LEHB166-.LFB1207
 6678 03d7 05       		.uleb128 .LEHE166-.LEHB166
 6679 03d8 00       		.uleb128 0
 6680 03d9 00       		.uleb128 0
 6681 03da 78       		.uleb128 .LEHB167-.LFB1207
 6682 03db 71       		.uleb128 .LEHE167-.LEHB167
 6683 03dc FA01     		.uleb128 .L232-.LFB1207
 6684 03de 00       		.uleb128 0
 6685 03df F301     		.uleb128 .LEHB168-.LFB1207
 6686 03e1 05       		.uleb128 .LEHE168-.LEHB168
 6687 03e2 00       		.uleb128 0
 6688 03e3 00       		.uleb128 0
 6689 03e4 9602     		.uleb128 .LEHB169-.LFB1207
 6690 03e6 05       		.uleb128 .LEHE169-.LEHB169
 6691 03e7 00       		.uleb128 0
 6692 03e8 00       		.uleb128 0
 6693              	.LLSDACSE1207:
 6694              		.section	.text._ZN8UnitTest10CheckEqualIjjEEvRNS_11TestResultsERKT_RKT0_RKNS_11TestDetailsE,"axG",
 6696              		.section	.text._ZN8UnitTest5CheckIbEEbT_,"axG",@progbits,_ZN8UnitTest5CheckIbEEbT_,comdat
 6697              		.weak	_ZN8UnitTest5CheckIbEEbT_
 6699              	_ZN8UnitTest5CheckIbEEbT_:
 6700              	.LFB1208:
  12:/home/pong/FPGALink/makestuff/libs/libutpp/Checks.h **** {
 6701              		.loc 4 12 6
 6702              		.cfi_startproc
 6703 0000 F30F1EFA 		endbr64
 6704 0004 55       		pushq	%rbp
 6705              		.cfi_def_cfa_offset 16
 6706              		.cfi_offset 6, -16
 6707 0005 4889E5   		movq	%rsp, %rbp
 6708              		.cfi_def_cfa_register 6
 6709 0008 89F8     		movl	%edi, %eax
 6710 000a 8845FC   		movb	%al, -4(%rbp)
  14:/home/pong/FPGALink/makestuff/libs/libutpp/Checks.h **** }
 6711              		.loc 4 14 14
 6712 000d 0FB645FC 		movzbl	-4(%rbp), %eax
  15:/home/pong/FPGALink/makestuff/libs/libutpp/Checks.h **** 
 6713              		.loc 4 15 1
 6714 0011 5D       		popq	%rbp
 6715              		.cfi_def_cfa 7, 8
 6716 0012 C3       		ret
 6717              		.cfi_endproc
 6718              	.LFE1208:
 6720              		.weak	_ZTV27TestFPGALink_testBuildIndex
 6721              		.section	.data.rel.ro.local._ZTV27TestFPGALink_testBuildIndex,"awG",@progbits,_ZTV27TestFPGALink_t
 6722              		.align 8
 6725              	_ZTV27TestFPGALink_testBuildIndex:
 6726 0000 00000000 		.quad	0
 6726      00000000 
 6727 0008 00000000 		.quad	_ZTI27TestFPGALink_testBuildIndex
 6727      00000000 
 6728 0010 00000000 		.quad	_ZN27TestFPGALink_testBuildIndexD1Ev
 6728      00000000 
 6729 0018 00000000 		.quad	_ZN27TestFPGALink_testBuildIndexD0Ev
 6729      00000000 
 6730 0020 00000000 		.quad	_ZNK27TestFPGALink_testBuildIndex7RunImplEv
 6730      00000000 
 6731              		.section	.text._ZN27TestFPGALink_testBuildIndexD2Ev,"axG",@progbits,_ZN27TestFPGALink_testBuildInd
 6732              		.align 2
 6733              		.weak	_ZN27TestFPGALink_testBuildIndexD2Ev
 6735              	_ZN27TestFPGALink_testBuildIndexD2Ev:
 6736              	.LFB1264:
 834:testSvf2Csvf.cpp **** 	const uint8 src[] = {
 6737              		.loc 3 834 1
 6738              		.cfi_startproc
 6739 0000 F30F1EFA 		endbr64
 6740 0004 55       		pushq	%rbp
 6741              		.cfi_def_cfa_offset 16
 6742              		.cfi_offset 6, -16
 6743 0005 4889E5   		movq	%rsp, %rbp
 6744              		.cfi_def_cfa_register 6
 6745 0008 4883EC10 		subq	$16, %rsp
 6746 000c 48897DF8 		movq	%rdi, -8(%rbp)
 6747              	.LBB33:
 834:testSvf2Csvf.cpp **** 	const uint8 src[] = {
 6748              		.loc 3 834 1
 6749 0010 488D1500 		leaq	16+_ZTV27TestFPGALink_testBuildIndex(%rip), %rdx
 6749      000000
 6750 0017 488B45F8 		movq	-8(%rbp), %rax
 6751 001b 488910   		movq	%rdx, (%rax)
 6752 001e 488B45F8 		movq	-8(%rbp), %rax
 6753 0022 4889C7   		movq	%rax, %rdi
 6754 0025 E8000000 		call	_ZN8UnitTest4TestD2Ev@PLT
 6754      00
 6755              	.LBE33:
 6756 002a 90       		nop
 6757 002b C9       		leave
 6758              		.cfi_def_cfa 7, 8
 6759 002c C3       		ret
 6760              		.cfi_endproc
 6761              	.LFE1264:
 6763              		.weak	_ZN27TestFPGALink_testBuildIndexD1Ev
 6764              		.set	_ZN27TestFPGALink_testBuildIndexD1Ev,_ZN27TestFPGALink_testBuildIndexD2Ev
 6765              		.section	.text._ZN27TestFPGALink_testBuildIndexD0Ev,"axG",@progbits,_ZN27TestFPGALink_testBuildInd
 6766              		.align 2
 6767              		.weak	_ZN27TestFPGALink_testBuildIndexD0Ev
 6769              	_ZN27TestFPGALink_testBuildIndexD0Ev:
 6770              	.LFB1266:
 834:testSvf2Csvf.cpp **** 	const uint8 src[] = {
 6771              		.loc 3 834 1
 6772              		.cfi_startproc
 6773              		.cfi_personality 0x9b,DW.ref.__gxx_personality_v0
 6774              		.cfi_lsda 0x1b,.LLSDA1266
 6775 0000 F30F1EFA 		endbr64
 6776 0004 55       		pushq	%rbp
 6777              		.cfi_def_cfa_offset 16
 6778              		.cfi_offset 6, -16
 6779 0005 4889E5   		movq	%rsp, %rbp
 6780              		.cfi_def_cfa_register 6
 6781 0008 53       		pushq	%rbx
 6782 0009 4883EC18 		subq	$24, %rsp
 6783              		.cfi_offset 3, -24
 6784 000d 48897DE8 		movq	%rdi, -24(%rbp)
 834:testSvf2Csvf.cpp **** 	const uint8 src[] = {
 6785              		.loc 3 834 1
 6786 0011 488B45E8 		movq	-24(%rbp), %rax
 6787 0015 4889C7   		movq	%rax, %rdi
 6788              	.LEHB170:
 6789 0018 E8000000 		call	_ZN27TestFPGALink_testBuildIndexD1Ev
 6789      00
 6790              	.LEHE170:
 834:testSvf2Csvf.cpp **** 	const uint8 src[] = {
 6791              		.loc 3 834 1 is_stmt 0 discriminator 2
 6792 001d 488B45E8 		movq	-24(%rbp), %rax
 6793 0021 4889C7   		movq	%rax, %rdi
 6794 0024 E8000000 		call	_ZdlPv@PLT
 6794      00
 6795 0029 EB1E     		jmp	.L240
 6796              	.L239:
 6797 002b F30F1EFA 		endbr64
 834:testSvf2Csvf.cpp **** 	const uint8 src[] = {
 6798              		.loc 3 834 1
 6799 002f 4889C3   		movq	%rax, %rbx
 6800 0032 488B45E8 		movq	-24(%rbp), %rax
 6801 0036 4889C7   		movq	%rax, %rdi
 6802 0039 E8000000 		call	_ZdlPv@PLT
 6802      00
 6803 003e 4889D8   		movq	%rbx, %rax
 6804 0041 4889C7   		movq	%rax, %rdi
 6805              	.LEHB171:
 6806 0044 E8000000 		call	_Unwind_Resume@PLT
 6806      00
 6807              	.LEHE171:
 6808              	.L240:
 6809 0049 488B5DF8 		movq	-8(%rbp), %rbx
 6810 004d C9       		leave
 6811              		.cfi_def_cfa 7, 8
 6812 004e C3       		ret
 6813              		.cfi_endproc
 6814              	.LFE1266:
 6815              		.section	.gcc_except_table
 6816              	.LLSDA1266:
 6817 03e9 FF       		.byte	0xff
 6818 03ea FF       		.byte	0xff
 6819 03eb 01       		.byte	0x1
 6820 03ec 08       		.uleb128 .LLSDACSE1266-.LLSDACSB1266
 6821              	.LLSDACSB1266:
 6822 03ed 18       		.uleb128 .LEHB170-.LFB1266
 6823 03ee 05       		.uleb128 .LEHE170-.LEHB170
 6824 03ef 2B       		.uleb128 .L239-.LFB1266
 6825 03f0 00       		.uleb128 0
 6826 03f1 44       		.uleb128 .LEHB171-.LFB1266
 6827 03f2 05       		.uleb128 .LEHE171-.LEHB171
 6828 03f3 00       		.uleb128 0
 6829 03f4 00       		.uleb128 0
 6830              	.LLSDACSE1266:
 6831              		.section	.text._ZN27TestFPGALink_testBuildIndexD0Ev,"axG",@progbits,_ZN27TestFPGALink_testBuildInd
 6833              		.weak	_ZTV29TestFPGALink_testProcessIndex
 6834              		.section	.data.rel.ro.local._ZTV29TestFPGALink_testProcessIndex,"awG",@progbits,_ZTV29TestFPGALink
 6835              		.align 8
 6838              	_ZTV29TestFPGALink_testProcessIndex:
 6839 0000 00000000 		.quad	0
 6839      00000000 
 6840 0008 00000000 		.quad	_ZTI29TestFPGALink_testProcessIndex
 6840      00000000 
 6841 0010 00000000 		.quad	_ZN29TestFPGALink_testProcessIndexD1Ev
 6841      00000000 
 6842 0018 00000000 		.quad	_ZN29TestFPGALink_testProcessIndexD0Ev
 6842      00000000 
 6843 0020 00000000 		.quad	_ZNK29TestFPGALink_testProcessIndex7RunImplEv
 6843      00000000 
 6844              		.section	.text._ZN29TestFPGALink_testProcessIndexD2Ev,"axG",@progbits,_ZN29TestFPGALink_testProces
 6845              		.align 2
 6846              		.weak	_ZN29TestFPGALink_testProcessIndexD2Ev
 6848              	_ZN29TestFPGALink_testProcessIndexD2Ev:
 6849              	.LFB1268:
 657:testSvf2Csvf.cpp **** 	int i, j, num;
 6850              		.loc 3 657 1 is_stmt 1
 6851              		.cfi_startproc
 6852 0000 F30F1EFA 		endbr64
 6853 0004 55       		pushq	%rbp
 6854              		.cfi_def_cfa_offset 16
 6855              		.cfi_offset 6, -16
 6856 0005 4889E5   		movq	%rsp, %rbp
 6857              		.cfi_def_cfa_register 6
 6858 0008 4883EC10 		subq	$16, %rsp
 6859 000c 48897DF8 		movq	%rdi, -8(%rbp)
 6860              	.LBB34:
 657:testSvf2Csvf.cpp **** 	int i, j, num;
 6861              		.loc 3 657 1
 6862 0010 488D1500 		leaq	16+_ZTV29TestFPGALink_testProcessIndex(%rip), %rdx
 6862      000000
 6863 0017 488B45F8 		movq	-8(%rbp), %rax
 6864 001b 488910   		movq	%rdx, (%rax)
 6865 001e 488B45F8 		movq	-8(%rbp), %rax
 6866 0022 4889C7   		movq	%rax, %rdi
 6867 0025 E8000000 		call	_ZN8UnitTest4TestD2Ev@PLT
 6867      00
 6868              	.LBE34:
 6869 002a 90       		nop
 6870 002b C9       		leave
 6871              		.cfi_def_cfa 7, 8
 6872 002c C3       		ret
 6873              		.cfi_endproc
 6874              	.LFE1268:
 6876              		.weak	_ZN29TestFPGALink_testProcessIndexD1Ev
 6877              		.set	_ZN29TestFPGALink_testProcessIndexD1Ev,_ZN29TestFPGALink_testProcessIndexD2Ev
 6878              		.section	.text._ZN29TestFPGALink_testProcessIndexD0Ev,"axG",@progbits,_ZN29TestFPGALink_testProces
 6879              		.align 2
 6880              		.weak	_ZN29TestFPGALink_testProcessIndexD0Ev
 6882              	_ZN29TestFPGALink_testProcessIndexD0Ev:
 6883              	.LFB1270:
 657:testSvf2Csvf.cpp **** 	int i, j, num;
 6884              		.loc 3 657 1
 6885              		.cfi_startproc
 6886              		.cfi_personality 0x9b,DW.ref.__gxx_personality_v0
 6887              		.cfi_lsda 0x1b,.LLSDA1270
 6888 0000 F30F1EFA 		endbr64
 6889 0004 55       		pushq	%rbp
 6890              		.cfi_def_cfa_offset 16
 6891              		.cfi_offset 6, -16
 6892 0005 4889E5   		movq	%rsp, %rbp
 6893              		.cfi_def_cfa_register 6
 6894 0008 53       		pushq	%rbx
 6895 0009 4883EC18 		subq	$24, %rsp
 6896              		.cfi_offset 3, -24
 6897 000d 48897DE8 		movq	%rdi, -24(%rbp)
 657:testSvf2Csvf.cpp **** 	int i, j, num;
 6898              		.loc 3 657 1
 6899 0011 488B45E8 		movq	-24(%rbp), %rax
 6900 0015 4889C7   		movq	%rax, %rdi
 6901              	.LEHB172:
 6902 0018 E8000000 		call	_ZN29TestFPGALink_testProcessIndexD1Ev
 6902      00
 6903              	.LEHE172:
 657:testSvf2Csvf.cpp **** 	int i, j, num;
 6904              		.loc 3 657 1 is_stmt 0 discriminator 2
 6905 001d 488B45E8 		movq	-24(%rbp), %rax
 6906 0021 4889C7   		movq	%rax, %rdi
 6907 0024 E8000000 		call	_ZdlPv@PLT
 6907      00
 6908 0029 EB1E     		jmp	.L245
 6909              	.L244:
 6910 002b F30F1EFA 		endbr64
 657:testSvf2Csvf.cpp **** 	int i, j, num;
 6911              		.loc 3 657 1
 6912 002f 4889C3   		movq	%rax, %rbx
 6913 0032 488B45E8 		movq	-24(%rbp), %rax
 6914 0036 4889C7   		movq	%rax, %rdi
 6915 0039 E8000000 		call	_ZdlPv@PLT
 6915      00
 6916 003e 4889D8   		movq	%rbx, %rax
 6917 0041 4889C7   		movq	%rax, %rdi
 6918              	.LEHB173:
 6919 0044 E8000000 		call	_Unwind_Resume@PLT
 6919      00
 6920              	.LEHE173:
 6921              	.L245:
 6922 0049 488B5DF8 		movq	-8(%rbp), %rbx
 6923 004d C9       		leave
 6924              		.cfi_def_cfa 7, 8
 6925 004e C3       		ret
 6926              		.cfi_endproc
 6927              	.LFE1270:
 6928              		.section	.gcc_except_table
 6929              	.LLSDA1270:
 6930 03f5 FF       		.byte	0xff
 6931 03f6 FF       		.byte	0xff
 6932 03f7 01       		.byte	0x1
 6933 03f8 08       		.uleb128 .LLSDACSE1270-.LLSDACSB1270
 6934              	.LLSDACSB1270:
 6935 03f9 18       		.uleb128 .LEHB172-.LFB1270
 6936 03fa 05       		.uleb128 .LEHE172-.LEHB172
 6937 03fb 2B       		.uleb128 .L244-.LFB1270
 6938 03fc 00       		.uleb128 0
 6939 03fd 44       		.uleb128 .LEHB173-.LFB1270
 6940 03fe 05       		.uleb128 .LEHE173-.LEHB173
 6941 03ff 00       		.uleb128 0
 6942 0400 00       		.uleb128 0
 6943              	.LLSDACSE1270:
 6944              		.section	.text._ZN29TestFPGALink_testProcessIndexD0Ev,"axG",@progbits,_ZN29TestFPGALink_testProces
 6946              		.weak	_ZTV22TestFPGALink_testParse
 6947              		.section	.data.rel.ro.local._ZTV22TestFPGALink_testParse,"awG",@progbits,_ZTV22TestFPGALink_testPa
 6948              		.align 8
 6951              	_ZTV22TestFPGALink_testParse:
 6952 0000 00000000 		.quad	0
 6952      00000000 
 6953 0008 00000000 		.quad	_ZTI22TestFPGALink_testParse
 6953      00000000 
 6954 0010 00000000 		.quad	_ZN22TestFPGALink_testParseD1Ev
 6954      00000000 
 6955 0018 00000000 		.quad	_ZN22TestFPGALink_testParseD0Ev
 6955      00000000 
 6956 0020 00000000 		.quad	_ZNK22TestFPGALink_testParse7RunImplEv
 6956      00000000 
 6957              		.section	.text._ZN22TestFPGALink_testParseD2Ev,"axG",@progbits,_ZN22TestFPGALink_testParseD5Ev,com
 6958              		.align 2
 6959              		.weak	_ZN22TestFPGALink_testParseD2Ev
 6961              	_ZN22TestFPGALink_testParseD2Ev:
 6962              	.LFB1272:
 596:testSvf2Csvf.cpp **** 	FLStatus fStatus;
 6963              		.loc 3 596 1 is_stmt 1
 6964              		.cfi_startproc
 6965 0000 F30F1EFA 		endbr64
 6966 0004 55       		pushq	%rbp
 6967              		.cfi_def_cfa_offset 16
 6968              		.cfi_offset 6, -16
 6969 0005 4889E5   		movq	%rsp, %rbp
 6970              		.cfi_def_cfa_register 6
 6971 0008 4883EC10 		subq	$16, %rsp
 6972 000c 48897DF8 		movq	%rdi, -8(%rbp)
 6973              	.LBB35:
 596:testSvf2Csvf.cpp **** 	FLStatus fStatus;
 6974              		.loc 3 596 1
 6975 0010 488D1500 		leaq	16+_ZTV22TestFPGALink_testParse(%rip), %rdx
 6975      000000
 6976 0017 488B45F8 		movq	-8(%rbp), %rax
 6977 001b 488910   		movq	%rdx, (%rax)
 6978 001e 488B45F8 		movq	-8(%rbp), %rax
 6979 0022 4889C7   		movq	%rax, %rdi
 6980 0025 E8000000 		call	_ZN8UnitTest4TestD2Ev@PLT
 6980      00
 6981              	.LBE35:
 6982 002a 90       		nop
 6983 002b C9       		leave
 6984              		.cfi_def_cfa 7, 8
 6985 002c C3       		ret
 6986              		.cfi_endproc
 6987              	.LFE1272:
 6989              		.weak	_ZN22TestFPGALink_testParseD1Ev
 6990              		.set	_ZN22TestFPGALink_testParseD1Ev,_ZN22TestFPGALink_testParseD2Ev
 6991              		.section	.text._ZN22TestFPGALink_testParseD0Ev,"axG",@progbits,_ZN22TestFPGALink_testParseD5Ev,com
 6992              		.align 2
 6993              		.weak	_ZN22TestFPGALink_testParseD0Ev
 6995              	_ZN22TestFPGALink_testParseD0Ev:
 6996              	.LFB1274:
 596:testSvf2Csvf.cpp **** 	FLStatus fStatus;
 6997              		.loc 3 596 1
 6998              		.cfi_startproc
 6999              		.cfi_personality 0x9b,DW.ref.__gxx_personality_v0
 7000              		.cfi_lsda 0x1b,.LLSDA1274
 7001 0000 F30F1EFA 		endbr64
 7002 0004 55       		pushq	%rbp
 7003              		.cfi_def_cfa_offset 16
 7004              		.cfi_offset 6, -16
 7005 0005 4889E5   		movq	%rsp, %rbp
 7006              		.cfi_def_cfa_register 6
 7007 0008 53       		pushq	%rbx
 7008 0009 4883EC18 		subq	$24, %rsp
 7009              		.cfi_offset 3, -24
 7010 000d 48897DE8 		movq	%rdi, -24(%rbp)
 596:testSvf2Csvf.cpp **** 	FLStatus fStatus;
 7011              		.loc 3 596 1
 7012 0011 488B45E8 		movq	-24(%rbp), %rax
 7013 0015 4889C7   		movq	%rax, %rdi
 7014              	.LEHB174:
 7015 0018 E8000000 		call	_ZN22TestFPGALink_testParseD1Ev
 7015      00
 7016              	.LEHE174:
 596:testSvf2Csvf.cpp **** 	FLStatus fStatus;
 7017              		.loc 3 596 1 is_stmt 0 discriminator 2
 7018 001d 488B45E8 		movq	-24(%rbp), %rax
 7019 0021 4889C7   		movq	%rax, %rdi
 7020 0024 E8000000 		call	_ZdlPv@PLT
 7020      00
 7021 0029 EB1E     		jmp	.L250
 7022              	.L249:
 7023 002b F30F1EFA 		endbr64
 596:testSvf2Csvf.cpp **** 	FLStatus fStatus;
 7024              		.loc 3 596 1
 7025 002f 4889C3   		movq	%rax, %rbx
 7026 0032 488B45E8 		movq	-24(%rbp), %rax
 7027 0036 4889C7   		movq	%rax, %rdi
 7028 0039 E8000000 		call	_ZdlPv@PLT
 7028      00
 7029 003e 4889D8   		movq	%rbx, %rax
 7030 0041 4889C7   		movq	%rax, %rdi
 7031              	.LEHB175:
 7032 0044 E8000000 		call	_Unwind_Resume@PLT
 7032      00
 7033              	.LEHE175:
 7034              	.L250:
 7035 0049 488B5DF8 		movq	-8(%rbp), %rbx
 7036 004d C9       		leave
 7037              		.cfi_def_cfa 7, 8
 7038 004e C3       		ret
 7039              		.cfi_endproc
 7040              	.LFE1274:
 7041              		.section	.gcc_except_table
 7042              	.LLSDA1274:
 7043 0401 FF       		.byte	0xff
 7044 0402 FF       		.byte	0xff
 7045 0403 01       		.byte	0x1
 7046 0404 08       		.uleb128 .LLSDACSE1274-.LLSDACSB1274
 7047              	.LLSDACSB1274:
 7048 0405 18       		.uleb128 .LEHB174-.LFB1274
 7049 0406 05       		.uleb128 .LEHE174-.LEHB174
 7050 0407 2B       		.uleb128 .L249-.LFB1274
 7051 0408 00       		.uleb128 0
 7052 0409 44       		.uleb128 .LEHB175-.LFB1274
 7053 040a 05       		.uleb128 .LEHE175-.LEHB175
 7054 040b 00       		.uleb128 0
 7055 040c 00       		.uleb128 0
 7056              	.LLSDACSE1274:
 7057              		.section	.text._ZN22TestFPGALink_testParseD0Ev,"axG",@progbits,_ZN22TestFPGALink_testParseD5Ev,com
 7059              		.weak	_ZTV22TestFPGALink_testShift
 7060              		.section	.data.rel.ro.local._ZTV22TestFPGALink_testShift,"awG",@progbits,_ZTV22TestFPGALink_testSh
 7061              		.align 8
 7064              	_ZTV22TestFPGALink_testShift:
 7065 0000 00000000 		.quad	0
 7065      00000000 
 7066 0008 00000000 		.quad	_ZTI22TestFPGALink_testShift
 7066      00000000 
 7067 0010 00000000 		.quad	_ZN22TestFPGALink_testShiftD1Ev
 7067      00000000 
 7068 0018 00000000 		.quad	_ZN22TestFPGALink_testShiftD0Ev
 7068      00000000 
 7069 0020 00000000 		.quad	_ZNK22TestFPGALink_testShift7RunImplEv
 7069      00000000 
 7070              		.section	.text._ZN22TestFPGALink_testShiftD2Ev,"axG",@progbits,_ZN22TestFPGALink_testShiftD5Ev,com
 7071              		.align 2
 7072              		.weak	_ZN22TestFPGALink_testShiftD2Ev
 7074              	_ZN22TestFPGALink_testShiftD2Ev:
 7075              	.LFB1276:
  90:testSvf2Csvf.cpp **** 	testShift(
 7076              		.loc 3 90 1 is_stmt 1
 7077              		.cfi_startproc
 7078 0000 F30F1EFA 		endbr64
 7079 0004 55       		pushq	%rbp
 7080              		.cfi_def_cfa_offset 16
 7081              		.cfi_offset 6, -16
 7082 0005 4889E5   		movq	%rsp, %rbp
 7083              		.cfi_def_cfa_register 6
 7084 0008 4883EC10 		subq	$16, %rsp
 7085 000c 48897DF8 		movq	%rdi, -8(%rbp)
 7086              	.LBB36:
  90:testSvf2Csvf.cpp **** 	testShift(
 7087              		.loc 3 90 1
 7088 0010 488D1500 		leaq	16+_ZTV22TestFPGALink_testShift(%rip), %rdx
 7088      000000
 7089 0017 488B45F8 		movq	-8(%rbp), %rax
 7090 001b 488910   		movq	%rdx, (%rax)
 7091 001e 488B45F8 		movq	-8(%rbp), %rax
 7092 0022 4889C7   		movq	%rax, %rdi
 7093 0025 E8000000 		call	_ZN8UnitTest4TestD2Ev@PLT
 7093      00
 7094              	.LBE36:
 7095 002a 90       		nop
 7096 002b C9       		leave
 7097              		.cfi_def_cfa 7, 8
 7098 002c C3       		ret
 7099              		.cfi_endproc
 7100              	.LFE1276:
 7102              		.weak	_ZN22TestFPGALink_testShiftD1Ev
 7103              		.set	_ZN22TestFPGALink_testShiftD1Ev,_ZN22TestFPGALink_testShiftD2Ev
 7104              		.section	.text._ZN22TestFPGALink_testShiftD0Ev,"axG",@progbits,_ZN22TestFPGALink_testShiftD5Ev,com
 7105              		.align 2
 7106              		.weak	_ZN22TestFPGALink_testShiftD0Ev
 7108              	_ZN22TestFPGALink_testShiftD0Ev:
 7109              	.LFB1278:
  90:testSvf2Csvf.cpp **** 	testShift(
 7110              		.loc 3 90 1
 7111              		.cfi_startproc
 7112              		.cfi_personality 0x9b,DW.ref.__gxx_personality_v0
 7113              		.cfi_lsda 0x1b,.LLSDA1278
 7114 0000 F30F1EFA 		endbr64
 7115 0004 55       		pushq	%rbp
 7116              		.cfi_def_cfa_offset 16
 7117              		.cfi_offset 6, -16
 7118 0005 4889E5   		movq	%rsp, %rbp
 7119              		.cfi_def_cfa_register 6
 7120 0008 53       		pushq	%rbx
 7121 0009 4883EC18 		subq	$24, %rsp
 7122              		.cfi_offset 3, -24
 7123 000d 48897DE8 		movq	%rdi, -24(%rbp)
  90:testSvf2Csvf.cpp **** 	testShift(
 7124              		.loc 3 90 1
 7125 0011 488B45E8 		movq	-24(%rbp), %rax
 7126 0015 4889C7   		movq	%rax, %rdi
 7127              	.LEHB176:
 7128 0018 E8000000 		call	_ZN22TestFPGALink_testShiftD1Ev
 7128      00
 7129              	.LEHE176:
  90:testSvf2Csvf.cpp **** 	testShift(
 7130              		.loc 3 90 1 is_stmt 0 discriminator 2
 7131 001d 488B45E8 		movq	-24(%rbp), %rax
 7132 0021 4889C7   		movq	%rax, %rdi
 7133 0024 E8000000 		call	_ZdlPv@PLT
 7133      00
 7134 0029 EB1E     		jmp	.L255
 7135              	.L254:
 7136 002b F30F1EFA 		endbr64
  90:testSvf2Csvf.cpp **** 	testShift(
 7137              		.loc 3 90 1
 7138 002f 4889C3   		movq	%rax, %rbx
 7139 0032 488B45E8 		movq	-24(%rbp), %rax
 7140 0036 4889C7   		movq	%rax, %rdi
 7141 0039 E8000000 		call	_ZdlPv@PLT
 7141      00
 7142 003e 4889D8   		movq	%rbx, %rax
 7143 0041 4889C7   		movq	%rax, %rdi
 7144              	.LEHB177:
 7145 0044 E8000000 		call	_Unwind_Resume@PLT
 7145      00
 7146              	.LEHE177:
 7147              	.L255:
 7148 0049 488B5DF8 		movq	-8(%rbp), %rbx
 7149 004d C9       		leave
 7150              		.cfi_def_cfa 7, 8
 7151 004e C3       		ret
 7152              		.cfi_endproc
 7153              	.LFE1278:
 7154              		.section	.gcc_except_table
 7155              	.LLSDA1278:
 7156 040d FF       		.byte	0xff
 7157 040e FF       		.byte	0xff
 7158 040f 01       		.byte	0x1
 7159 0410 08       		.uleb128 .LLSDACSE1278-.LLSDACSB1278
 7160              	.LLSDACSB1278:
 7161 0411 18       		.uleb128 .LEHB176-.LFB1278
 7162 0412 05       		.uleb128 .LEHE176-.LEHB176
 7163 0413 2B       		.uleb128 .L254-.LFB1278
 7164 0414 00       		.uleb128 0
 7165 0415 44       		.uleb128 .LEHB177-.LFB1278
 7166 0416 05       		.uleb128 .LEHE177-.LEHB177
 7167 0417 00       		.uleb128 0
 7168 0418 00       		.uleb128 0
 7169              	.LLSDACSE1278:
 7170              		.section	.text._ZN22TestFPGALink_testShiftD0Ev,"axG",@progbits,_ZN22TestFPGALink_testShiftD5Ev,com
 7172              		.weak	_ZTV26TestFPGALink_testReadBytes
 7173              		.section	.data.rel.ro.local._ZTV26TestFPGALink_testReadBytes,"awG",@progbits,_ZTV26TestFPGALink_te
 7174              		.align 8
 7177              	_ZTV26TestFPGALink_testReadBytes:
 7178 0000 00000000 		.quad	0
 7178      00000000 
 7179 0008 00000000 		.quad	_ZTI26TestFPGALink_testReadBytes
 7179      00000000 
 7180 0010 00000000 		.quad	_ZN26TestFPGALink_testReadBytesD1Ev
 7180      00000000 
 7181 0018 00000000 		.quad	_ZN26TestFPGALink_testReadBytesD0Ev
 7181      00000000 
 7182 0020 00000000 		.quad	_ZNK26TestFPGALink_testReadBytes7RunImplEv
 7182      00000000 
 7183              		.section	.text._ZN26TestFPGALink_testReadBytesD2Ev,"axG",@progbits,_ZN26TestFPGALink_testReadBytes
 7184              		.align 2
 7185              		.weak	_ZN26TestFPGALink_testReadBytesD2Ev
 7187              	_ZN26TestFPGALink_testReadBytesD2Ev:
 7188              	.LFB1280:
  42:testSvf2Csvf.cpp **** 	struct Buffer lineBuf;
 7189              		.loc 3 42 1 is_stmt 1
 7190              		.cfi_startproc
 7191 0000 F30F1EFA 		endbr64
 7192 0004 55       		pushq	%rbp
 7193              		.cfi_def_cfa_offset 16
 7194              		.cfi_offset 6, -16
 7195 0005 4889E5   		movq	%rsp, %rbp
 7196              		.cfi_def_cfa_register 6
 7197 0008 4883EC10 		subq	$16, %rsp
 7198 000c 48897DF8 		movq	%rdi, -8(%rbp)
 7199              	.LBB37:
  42:testSvf2Csvf.cpp **** 	struct Buffer lineBuf;
 7200              		.loc 3 42 1
 7201 0010 488D1500 		leaq	16+_ZTV26TestFPGALink_testReadBytes(%rip), %rdx
 7201      000000
 7202 0017 488B45F8 		movq	-8(%rbp), %rax
 7203 001b 488910   		movq	%rdx, (%rax)
 7204 001e 488B45F8 		movq	-8(%rbp), %rax
 7205 0022 4889C7   		movq	%rax, %rdi
 7206 0025 E8000000 		call	_ZN8UnitTest4TestD2Ev@PLT
 7206      00
 7207              	.LBE37:
 7208 002a 90       		nop
 7209 002b C9       		leave
 7210              		.cfi_def_cfa 7, 8
 7211 002c C3       		ret
 7212              		.cfi_endproc
 7213              	.LFE1280:
 7215              		.weak	_ZN26TestFPGALink_testReadBytesD1Ev
 7216              		.set	_ZN26TestFPGALink_testReadBytesD1Ev,_ZN26TestFPGALink_testReadBytesD2Ev
 7217              		.section	.text._ZN26TestFPGALink_testReadBytesD0Ev,"axG",@progbits,_ZN26TestFPGALink_testReadBytes
 7218              		.align 2
 7219              		.weak	_ZN26TestFPGALink_testReadBytesD0Ev
 7221              	_ZN26TestFPGALink_testReadBytesD0Ev:
 7222              	.LFB1282:
  42:testSvf2Csvf.cpp **** 	struct Buffer lineBuf;
 7223              		.loc 3 42 1
 7224              		.cfi_startproc
 7225              		.cfi_personality 0x9b,DW.ref.__gxx_personality_v0
 7226              		.cfi_lsda 0x1b,.LLSDA1282
 7227 0000 F30F1EFA 		endbr64
 7228 0004 55       		pushq	%rbp
 7229              		.cfi_def_cfa_offset 16
 7230              		.cfi_offset 6, -16
 7231 0005 4889E5   		movq	%rsp, %rbp
 7232              		.cfi_def_cfa_register 6
 7233 0008 53       		pushq	%rbx
 7234 0009 4883EC18 		subq	$24, %rsp
 7235              		.cfi_offset 3, -24
 7236 000d 48897DE8 		movq	%rdi, -24(%rbp)
  42:testSvf2Csvf.cpp **** 	struct Buffer lineBuf;
 7237              		.loc 3 42 1
 7238 0011 488B45E8 		movq	-24(%rbp), %rax
 7239 0015 4889C7   		movq	%rax, %rdi
 7240              	.LEHB178:
 7241 0018 E8000000 		call	_ZN26TestFPGALink_testReadBytesD1Ev
 7241      00
 7242              	.LEHE178:
  42:testSvf2Csvf.cpp **** 	struct Buffer lineBuf;
 7243              		.loc 3 42 1 is_stmt 0 discriminator 2
 7244 001d 488B45E8 		movq	-24(%rbp), %rax
 7245 0021 4889C7   		movq	%rax, %rdi
 7246 0024 E8000000 		call	_ZdlPv@PLT
 7246      00
 7247 0029 EB1E     		jmp	.L260
 7248              	.L259:
 7249 002b F30F1EFA 		endbr64
  42:testSvf2Csvf.cpp **** 	struct Buffer lineBuf;
 7250              		.loc 3 42 1
 7251 002f 4889C3   		movq	%rax, %rbx
 7252 0032 488B45E8 		movq	-24(%rbp), %rax
 7253 0036 4889C7   		movq	%rax, %rdi
 7254 0039 E8000000 		call	_ZdlPv@PLT
 7254      00
 7255 003e 4889D8   		movq	%rbx, %rax
 7256 0041 4889C7   		movq	%rax, %rdi
 7257              	.LEHB179:
 7258 0044 E8000000 		call	_Unwind_Resume@PLT
 7258      00
 7259              	.LEHE179:
 7260              	.L260:
 7261 0049 488B5DF8 		movq	-8(%rbp), %rbx
 7262 004d C9       		leave
 7263              		.cfi_def_cfa 7, 8
 7264 004e C3       		ret
 7265              		.cfi_endproc
 7266              	.LFE1282:
 7267              		.section	.gcc_except_table
 7268              	.LLSDA1282:
 7269 0419 FF       		.byte	0xff
 7270 041a FF       		.byte	0xff
 7271 041b 01       		.byte	0x1
 7272 041c 08       		.uleb128 .LLSDACSE1282-.LLSDACSB1282
 7273              	.LLSDACSB1282:
 7274 041d 18       		.uleb128 .LEHB178-.LFB1282
 7275 041e 05       		.uleb128 .LEHE178-.LEHB178
 7276 041f 2B       		.uleb128 .L259-.LFB1282
 7277 0420 00       		.uleb128 0
 7278 0421 44       		.uleb128 .LEHB179-.LFB1282
 7279 0422 05       		.uleb128 .LEHE179-.LEHB179
 7280 0423 00       		.uleb128 0
 7281 0424 00       		.uleb128 0
 7282              	.LLSDACSE1282:
 7283              		.section	.text._ZN26TestFPGALink_testReadBytesD0Ev,"axG",@progbits,_ZN26TestFPGALink_testReadBytes
 7285              		.weak	_ZTVN8UnitTest15MemoryOutStreamE
 7286              		.section	.data.rel.ro.local._ZTVN8UnitTest15MemoryOutStreamE,"awG",@progbits,_ZTVN8UnitTest15Memor
 7287              		.align 8
 7290              	_ZTVN8UnitTest15MemoryOutStreamE:
 7291 0000 90000000 		.quad	144
 7291      00000000 
 7292 0008 00000000 		.quad	0
 7292      00000000 
 7293 0010 00000000 		.quad	_ZTIN8UnitTest15MemoryOutStreamE
 7293      00000000 
 7294 0018 00000000 		.quad	_ZN8UnitTest15MemoryOutStreamD1Ev
 7294      00000000 
 7295 0020 00000000 		.quad	_ZN8UnitTest15MemoryOutStreamD0Ev
 7295      00000000 
 7296 0028 70FFFFFF 		.quad	-144
 7296      FFFFFFFF 
 7297 0030 70FFFFFF 		.quad	-144
 7297      FFFFFFFF 
 7298 0038 00000000 		.quad	_ZTIN8UnitTest15MemoryOutStreamE
 7298      00000000 
 7299 0040 00000000 		.quad	_ZTv0_n24_N8UnitTest15MemoryOutStreamD1Ev
 7299      00000000 
 7300 0048 00000000 		.quad	_ZTv0_n24_N8UnitTest15MemoryOutStreamD0Ev
 7300      00000000 
 7301              		.weak	_ZTTN8UnitTest15MemoryOutStreamE
 7302              		.section	.data.rel.ro.local._ZTTN8UnitTest15MemoryOutStreamE,"awG",@progbits,_ZTVN8UnitTest15Memor
 7303              		.align 8
 7306              	_ZTTN8UnitTest15MemoryOutStreamE:
 7307 0000 00000000 		.quad	_ZTVN8UnitTest15MemoryOutStreamE+24
 7307      00000000 
 7308 0008 00000000 		.quad	_ZTCN8UnitTest15MemoryOutStreamE0_NSt7__cxx1119basic_ostringstreamIcSt11char_traitsIcESaIcEE
 7308      00000000 
 7309 0010 00000000 		.quad	_ZTCN8UnitTest15MemoryOutStreamE0_So+24
 7309      00000000 
 7310 0018 00000000 		.quad	_ZTCN8UnitTest15MemoryOutStreamE0_So+64
 7310      00000000 
 7311 0020 00000000 		.quad	_ZTCN8UnitTest15MemoryOutStreamE0_NSt7__cxx1119basic_ostringstreamIcSt11char_traitsIcESaIcEE
 7311      00000000 
 7312 0028 00000000 		.quad	_ZTVN8UnitTest15MemoryOutStreamE+64
 7312      00000000 
 7313              		.hidden	_ZTCN8UnitTest15MemoryOutStreamE0_NSt7__cxx1119basic_ostringstreamIcSt11char_traitsIcESaIc
 7314              		.weak	_ZTCN8UnitTest15MemoryOutStreamE0_NSt7__cxx1119basic_ostringstreamIcSt11char_traitsIcESaIcEE
 7315              		.section	.data.rel.ro._ZTCN8UnitTest15MemoryOutStreamE0_NSt7__cxx1119basic_ostringstreamIcSt11char
 7316              		.align 8
 7319              	_ZTCN8UnitTest15MemoryOutStreamE0_NSt7__cxx1119basic_ostringstreamIcSt11char_traitsIcESaIcEEE:
 7320 0000 90000000 		.quad	144
 7320      00000000 
 7321 0008 00000000 		.quad	0
 7321      00000000 
 7322 0010 00000000 		.quad	_ZTINSt7__cxx1119basic_ostringstreamIcSt11char_traitsIcESaIcEEE
 7322      00000000 
 7323 0018 00000000 		.quad	0
 7323      00000000 
 7324 0020 00000000 		.quad	0
 7324      00000000 
 7325 0028 70FFFFFF 		.quad	-144
 7325      FFFFFFFF 
 7326 0030 70FFFFFF 		.quad	-144
 7326      FFFFFFFF 
 7327 0038 00000000 		.quad	_ZTINSt7__cxx1119basic_ostringstreamIcSt11char_traitsIcESaIcEEE
 7327      00000000 
 7328 0040 00000000 		.quad	0
 7328      00000000 
 7329 0048 00000000 		.quad	0
 7329      00000000 
 7330              		.hidden	_ZTCN8UnitTest15MemoryOutStreamE0_So
 7331              		.weak	_ZTCN8UnitTest15MemoryOutStreamE0_So
 7332              		.section	.data.rel.ro._ZTCN8UnitTest15MemoryOutStreamE0_So,"awG",@progbits,_ZTVN8UnitTest15MemoryO
 7333              		.align 8
 7336              	_ZTCN8UnitTest15MemoryOutStreamE0_So:
 7337 0000 90000000 		.quad	144
 7337      00000000 
 7338 0008 00000000 		.quad	0
 7338      00000000 
 7339 0010 00000000 		.quad	_ZTISo
 7339      00000000 
 7340 0018 00000000 		.quad	0
 7340      00000000 
 7341 0020 00000000 		.quad	0
 7341      00000000 
 7342 0028 70FFFFFF 		.quad	-144
 7342      FFFFFFFF 
 7343 0030 70FFFFFF 		.quad	-144
 7343      FFFFFFFF 
 7344 0038 00000000 		.quad	_ZTISo
 7344      00000000 
 7345 0040 00000000 		.quad	0
 7345      00000000 
 7346 0048 00000000 		.quad	0
 7346      00000000 
 7347              		.weak	_ZTI27TestFPGALink_testBuildIndex
 7348              		.section	.data.rel.ro._ZTI27TestFPGALink_testBuildIndex,"awG",@progbits,_ZTI27TestFPGALink_testBui
 7349              		.align 8
 7352              	_ZTI27TestFPGALink_testBuildIndex:
 7353 0000 00000000 		.quad	_ZTVN10__cxxabiv120__si_class_type_infoE+16
 7353      00000000 
 7354 0008 00000000 		.quad	_ZTS27TestFPGALink_testBuildIndex
 7354      00000000 
 7355 0010 00000000 		.quad	_ZTIN8UnitTest4TestE
 7355      00000000 
 7356              		.weak	_ZTS27TestFPGALink_testBuildIndex
 7357              		.section	.rodata._ZTS27TestFPGALink_testBuildIndex,"aG",@progbits,_ZTS27TestFPGALink_testBuildInde
 7358              		.align 16
 7361              	_ZTS27TestFPGALink_testBuildIndex:
 7362 0000 32375465 		.string	"27TestFPGALink_testBuildIndex"
 7362      73744650 
 7362      47414C69 
 7362      6E6B5F74 
 7362      65737442 
 7363              		.weak	_ZTI29TestFPGALink_testProcessIndex
 7364              		.section	.data.rel.ro._ZTI29TestFPGALink_testProcessIndex,"awG",@progbits,_ZTI29TestFPGALink_testP
 7365              		.align 8
 7368              	_ZTI29TestFPGALink_testProcessIndex:
 7369 0000 00000000 		.quad	_ZTVN10__cxxabiv120__si_class_type_infoE+16
 7369      00000000 
 7370 0008 00000000 		.quad	_ZTS29TestFPGALink_testProcessIndex
 7370      00000000 
 7371 0010 00000000 		.quad	_ZTIN8UnitTest4TestE
 7371      00000000 
 7372              		.weak	_ZTS29TestFPGALink_testProcessIndex
 7373              		.section	.rodata._ZTS29TestFPGALink_testProcessIndex,"aG",@progbits,_ZTS29TestFPGALink_testProcess
 7374              		.align 32
 7377              	_ZTS29TestFPGALink_testProcessIndex:
 7378 0000 32395465 		.string	"29TestFPGALink_testProcessIndex"
 7378      73744650 
 7378      47414C69 
 7378      6E6B5F74 
 7378      65737450 
 7379              		.weak	_ZTI22TestFPGALink_testParse
 7380              		.section	.data.rel.ro._ZTI22TestFPGALink_testParse,"awG",@progbits,_ZTI22TestFPGALink_testParse,co
 7381              		.align 8
 7384              	_ZTI22TestFPGALink_testParse:
 7385 0000 00000000 		.quad	_ZTVN10__cxxabiv120__si_class_type_infoE+16
 7385      00000000 
 7386 0008 00000000 		.quad	_ZTS22TestFPGALink_testParse
 7386      00000000 
 7387 0010 00000000 		.quad	_ZTIN8UnitTest4TestE
 7387      00000000 
 7388              		.weak	_ZTS22TestFPGALink_testParse
 7389              		.section	.rodata._ZTS22TestFPGALink_testParse,"aG",@progbits,_ZTS22TestFPGALink_testParse,comdat
 7390              		.align 16
 7393              	_ZTS22TestFPGALink_testParse:
 7394 0000 32325465 		.string	"22TestFPGALink_testParse"
 7394      73744650 
 7394      47414C69 
 7394      6E6B5F74 
 7394      65737450 
 7395              		.weak	_ZTI22TestFPGALink_testShift
 7396              		.section	.data.rel.ro._ZTI22TestFPGALink_testShift,"awG",@progbits,_ZTI22TestFPGALink_testShift,co
 7397              		.align 8
 7400              	_ZTI22TestFPGALink_testShift:
 7401 0000 00000000 		.quad	_ZTVN10__cxxabiv120__si_class_type_infoE+16
 7401      00000000 
 7402 0008 00000000 		.quad	_ZTS22TestFPGALink_testShift
 7402      00000000 
 7403 0010 00000000 		.quad	_ZTIN8UnitTest4TestE
 7403      00000000 
 7404              		.weak	_ZTS22TestFPGALink_testShift
 7405              		.section	.rodata._ZTS22TestFPGALink_testShift,"aG",@progbits,_ZTS22TestFPGALink_testShift,comdat
 7406              		.align 16
 7409              	_ZTS22TestFPGALink_testShift:
 7410 0000 32325465 		.string	"22TestFPGALink_testShift"
 7410      73744650 
 7410      47414C69 
 7410      6E6B5F74 
 7410      65737453 
 7411              		.weak	_ZTI26TestFPGALink_testReadBytes
 7412              		.section	.data.rel.ro._ZTI26TestFPGALink_testReadBytes,"awG",@progbits,_ZTI26TestFPGALink_testRead
 7413              		.align 8
 7416              	_ZTI26TestFPGALink_testReadBytes:
 7417 0000 00000000 		.quad	_ZTVN10__cxxabiv120__si_class_type_infoE+16
 7417      00000000 
 7418 0008 00000000 		.quad	_ZTS26TestFPGALink_testReadBytes
 7418      00000000 
 7419 0010 00000000 		.quad	_ZTIN8UnitTest4TestE
 7419      00000000 
 7420              		.weak	_ZTS26TestFPGALink_testReadBytes
 7421              		.section	.rodata._ZTS26TestFPGALink_testReadBytes,"aG",@progbits,_ZTS26TestFPGALink_testReadBytes,
 7422              		.align 16
 7425              	_ZTS26TestFPGALink_testReadBytes:
 7426 0000 32365465 		.string	"26TestFPGALink_testReadBytes"
 7426      73744650 
 7426      47414C69 
 7426      6E6B5F74 
 7426      65737452 
 7427              		.weak	_ZTIN8UnitTest15MemoryOutStreamE
 7428              		.section	.data.rel.ro._ZTIN8UnitTest15MemoryOutStreamE,"awG",@progbits,_ZTIN8UnitTest15MemoryOutSt
 7429              		.align 8
 7432              	_ZTIN8UnitTest15MemoryOutStreamE:
 7433 0000 00000000 		.quad	_ZTVN10__cxxabiv120__si_class_type_infoE+16
 7433      00000000 
 7434 0008 00000000 		.quad	_ZTSN8UnitTest15MemoryOutStreamE
 7434      00000000 
 7435 0010 00000000 		.quad	_ZTINSt7__cxx1119basic_ostringstreamIcSt11char_traitsIcESaIcEEE
 7435      00000000 
 7436              		.weak	_ZTSN8UnitTest15MemoryOutStreamE
 7437              		.section	.rodata._ZTSN8UnitTest15MemoryOutStreamE,"aG",@progbits,_ZTSN8UnitTest15MemoryOutStreamE,
 7438              		.align 16
 7441              	_ZTSN8UnitTest15MemoryOutStreamE:
 7442 0000 4E38556E 		.string	"N8UnitTest15MemoryOutStreamE"
 7442      69745465 
 7442      73743135 
 7442      4D656D6F 
 7442      72794F75 
 7443              		.text
 7445              	_Z41__static_initialization_and_destruction_0ii:
 7446              	.LFB1283:
 7447              		.loc 3 855 1 is_stmt 1
 7448              		.cfi_startproc
 7449 39d2 F30F1EFA 		endbr64
 7450 39d6 55       		pushq	%rbp
 7451              		.cfi_def_cfa_offset 16
 7452              		.cfi_offset 6, -16
 7453 39d7 4889E5   		movq	%rsp, %rbp
 7454              		.cfi_def_cfa_register 6
 7455 39da 4883EC10 		subq	$16, %rsp
 7456 39de 897DFC   		movl	%edi, -4(%rbp)
 7457 39e1 8975F8   		movl	%esi, -8(%rbp)
 7458              		.loc 3 855 1
 7459 39e4 837DFC01 		cmpl	$1, -4(%rbp)
 7460 39e8 0F85BB01 		jne	.L263
 7460      0000
 7461              		.loc 3 855 1 is_stmt 0 discriminator 1
 7462 39ee 817DF8FF 		cmpl	$65535, -8(%rbp)
 7462      FF0000
 7463 39f5 0F85AE01 		jne	.L263
 7463      0000
  42:testSvf2Csvf.cpp **** 	struct Buffer lineBuf;
 7464              		.loc 3 42 1 is_stmt 1
 7465 39fb 488D0500 		leaq	testFPGALink_testReadBytesInstance(%rip), %rax
 7465      000000
 7466 3a02 4889C7   		movq	%rax, %rdi
 7467 3a05 E8000000 		call	_ZN26TestFPGALink_testReadBytesC1Ev
 7467      00
 7468 3a0a 488D0500 		leaq	__dso_handle(%rip), %rax
 7468      000000
 7469 3a11 4889C2   		movq	%rax, %rdx
 7470 3a14 488D0500 		leaq	testFPGALink_testReadBytesInstance(%rip), %rax
 7470      000000
 7471 3a1b 4889C6   		movq	%rax, %rsi
 7472 3a1e 488D0500 		leaq	_ZN26TestFPGALink_testReadBytesD1Ev(%rip), %rax
 7472      000000
 7473 3a25 4889C7   		movq	%rax, %rdi
 7474 3a28 E8000000 		call	__cxa_atexit@PLT
 7474      00
 7475 3a2d E8000000 		call	_ZN8UnitTest4Test11GetTestListEv@PLT
 7475      00
 7476 3a32 4889C1   		movq	%rax, %rcx
 7477 3a35 488D0500 		leaq	testFPGALink_testReadBytesInstance(%rip), %rax
 7477      000000
 7478 3a3c 4889C2   		movq	%rax, %rdx
 7479 3a3f 4889CE   		movq	%rcx, %rsi
 7480 3a42 488D0500 		leaq	adderFPGALink_testReadBytes(%rip), %rax
 7480      000000
 7481 3a49 4889C7   		movq	%rax, %rdi
 7482 3a4c E8000000 		call	_ZN8UnitTest9ListAdderC1ERNS_8TestListEPNS_4TestE@PLT
 7482      00
  90:testSvf2Csvf.cpp **** 	testShift(
 7483              		.loc 3 90 1
 7484 3a51 488D0500 		leaq	testFPGALink_testShiftInstance(%rip), %rax
 7484      000000
 7485 3a58 4889C7   		movq	%rax, %rdi
 7486 3a5b E8000000 		call	_ZN22TestFPGALink_testShiftC1Ev
 7486      00
 7487 3a60 488D0500 		leaq	__dso_handle(%rip), %rax
 7487      000000
 7488 3a67 4889C2   		movq	%rax, %rdx
 7489 3a6a 488D0500 		leaq	testFPGALink_testShiftInstance(%rip), %rax
 7489      000000
 7490 3a71 4889C6   		movq	%rax, %rsi
 7491 3a74 488D0500 		leaq	_ZN22TestFPGALink_testShiftD1Ev(%rip), %rax
 7491      000000
 7492 3a7b 4889C7   		movq	%rax, %rdi
 7493 3a7e E8000000 		call	__cxa_atexit@PLT
 7493      00
 7494 3a83 E8000000 		call	_ZN8UnitTest4Test11GetTestListEv@PLT
 7494      00
 7495 3a88 4889C1   		movq	%rax, %rcx
 7496 3a8b 488D0500 		leaq	testFPGALink_testShiftInstance(%rip), %rax
 7496      000000
 7497 3a92 4889C2   		movq	%rax, %rdx
 7498 3a95 4889CE   		movq	%rcx, %rsi
 7499 3a98 488D0500 		leaq	adderFPGALink_testShift(%rip), %rax
 7499      000000
 7500 3a9f 4889C7   		movq	%rax, %rdi
 7501 3aa2 E8000000 		call	_ZN8UnitTest9ListAdderC1ERNS_8TestListEPNS_4TestE@PLT
 7501      00
 596:testSvf2Csvf.cpp **** 	FLStatus fStatus;
 7502              		.loc 3 596 1
 7503 3aa7 488D0500 		leaq	testFPGALink_testParseInstance(%rip), %rax
 7503      000000
 7504 3aae 4889C7   		movq	%rax, %rdi
 7505 3ab1 E8000000 		call	_ZN22TestFPGALink_testParseC1Ev
 7505      00
 7506 3ab6 488D0500 		leaq	__dso_handle(%rip), %rax
 7506      000000
 7507 3abd 4889C2   		movq	%rax, %rdx
 7508 3ac0 488D0500 		leaq	testFPGALink_testParseInstance(%rip), %rax
 7508      000000
 7509 3ac7 4889C6   		movq	%rax, %rsi
 7510 3aca 488D0500 		leaq	_ZN22TestFPGALink_testParseD1Ev(%rip), %rax
 7510      000000
 7511 3ad1 4889C7   		movq	%rax, %rdi
 7512 3ad4 E8000000 		call	__cxa_atexit@PLT
 7512      00
 7513 3ad9 E8000000 		call	_ZN8UnitTest4Test11GetTestListEv@PLT
 7513      00
 7514 3ade 4889C1   		movq	%rax, %rcx
 7515 3ae1 488D0500 		leaq	testFPGALink_testParseInstance(%rip), %rax
 7515      000000
 7516 3ae8 4889C2   		movq	%rax, %rdx
 7517 3aeb 4889CE   		movq	%rcx, %rsi
 7518 3aee 488D0500 		leaq	adderFPGALink_testParse(%rip), %rax
 7518      000000
 7519 3af5 4889C7   		movq	%rax, %rdi
 7520 3af8 E8000000 		call	_ZN8UnitTest9ListAdderC1ERNS_8TestListEPNS_4TestE@PLT
 7520      00
 657:testSvf2Csvf.cpp **** 	int i, j, num;
 7521              		.loc 3 657 1
 7522 3afd 488D0500 		leaq	testFPGALink_testProcessIndexInstance(%rip), %rax
 7522      000000
 7523 3b04 4889C7   		movq	%rax, %rdi
 7524 3b07 E8000000 		call	_ZN29TestFPGALink_testProcessIndexC1Ev
 7524      00
 7525 3b0c 488D0500 		leaq	__dso_handle(%rip), %rax
 7525      000000
 7526 3b13 4889C2   		movq	%rax, %rdx
 7527 3b16 488D0500 		leaq	testFPGALink_testProcessIndexInstance(%rip), %rax
 7527      000000
 7528 3b1d 4889C6   		movq	%rax, %rsi
 7529 3b20 488D0500 		leaq	_ZN29TestFPGALink_testProcessIndexD1Ev(%rip), %rax
 7529      000000
 7530 3b27 4889C7   		movq	%rax, %rdi
 7531 3b2a E8000000 		call	__cxa_atexit@PLT
 7531      00
 7532 3b2f E8000000 		call	_ZN8UnitTest4Test11GetTestListEv@PLT
 7532      00
 7533 3b34 4889C1   		movq	%rax, %rcx
 7534 3b37 488D0500 		leaq	testFPGALink_testProcessIndexInstance(%rip), %rax
 7534      000000
 7535 3b3e 4889C2   		movq	%rax, %rdx
 7536 3b41 4889CE   		movq	%rcx, %rsi
 7537 3b44 488D0500 		leaq	adderFPGALink_testProcessIndex(%rip), %rax
 7537      000000
 7538 3b4b 4889C7   		movq	%rax, %rdi
 7539 3b4e E8000000 		call	_ZN8UnitTest9ListAdderC1ERNS_8TestListEPNS_4TestE@PLT
 7539      00
 834:testSvf2Csvf.cpp **** 	const uint8 src[] = {
 7540              		.loc 3 834 1
 7541 3b53 488D0500 		leaq	testFPGALink_testBuildIndexInstance(%rip), %rax
 7541      000000
 7542 3b5a 4889C7   		movq	%rax, %rdi
 7543 3b5d E8000000 		call	_ZN27TestFPGALink_testBuildIndexC1Ev
 7543      00
 7544 3b62 488D0500 		leaq	__dso_handle(%rip), %rax
 7544      000000
 7545 3b69 4889C2   		movq	%rax, %rdx
 7546 3b6c 488D0500 		leaq	testFPGALink_testBuildIndexInstance(%rip), %rax
 7546      000000
 7547 3b73 4889C6   		movq	%rax, %rsi
 7548 3b76 488D0500 		leaq	_ZN27TestFPGALink_testBuildIndexD1Ev(%rip), %rax
 7548      000000
 7549 3b7d 4889C7   		movq	%rax, %rdi
 7550 3b80 E8000000 		call	__cxa_atexit@PLT
 7550      00
 7551 3b85 E8000000 		call	_ZN8UnitTest4Test11GetTestListEv@PLT
 7551      00
 7552 3b8a 4889C1   		movq	%rax, %rcx
 7553 3b8d 488D0500 		leaq	testFPGALink_testBuildIndexInstance(%rip), %rax
 7553      000000
 7554 3b94 4889C2   		movq	%rax, %rdx
 7555 3b97 4889CE   		movq	%rcx, %rsi
 7556 3b9a 488D0500 		leaq	adderFPGALink_testBuildIndex(%rip), %rax
 7556      000000
 7557 3ba1 4889C7   		movq	%rax, %rdi
 7558 3ba4 E8000000 		call	_ZN8UnitTest9ListAdderC1ERNS_8TestListEPNS_4TestE@PLT
 7558      00
 7559              	.L263:
 7560              		.loc 3 855 1
 7561 3ba9 90       		nop
 7562 3baa C9       		leave
 7563              		.cfi_def_cfa 7, 8
 7564 3bab C3       		ret
 7565              		.cfi_endproc
 7566              	.LFE1283:
 7569              	_GLOBAL__sub_I__Z13testReadBytesP6BufferPKc:
 7570              	.LFB1284:
 7571              		.loc 3 855 1
 7572              		.cfi_startproc
 7573 3bac F30F1EFA 		endbr64
 7574 3bb0 55       		pushq	%rbp
 7575              		.cfi_def_cfa_offset 16
 7576              		.cfi_offset 6, -16
 7577 3bb1 4889E5   		movq	%rsp, %rbp
 7578              		.cfi_def_cfa_register 6
 7579              		.loc 3 855 1
 7580 3bb4 BEFFFF00 		movl	$65535, %esi
 7580      00
 7581 3bb9 BF010000 		movl	$1, %edi
 7581      00
 7582 3bbe E80FFEFF 		call	_Z41__static_initialization_and_destruction_0ii
 7582      FF
 7583 3bc3 5D       		popq	%rbp
 7584              		.cfi_def_cfa 7, 8
 7585 3bc4 C3       		ret
 7586              		.cfi_endproc
 7587              	.LFE1284:
 7589              		.section	.init_array,"aw"
 7590              		.align 8
 7591 0000 00000000 		.quad	_GLOBAL__sub_I__Z13testReadBytesP6BufferPKc
 7591      00000000 
 7592              		.text
 7593              	.Letext0:
 7594              		.file 5 "<built-in>"
 7595              		.file 6 "/usr/lib/gcc/x86_64-linux-gnu/11/include/stddef.h"
 7596              		.file 7 "/usr/include/x86_64-linux-gnu/bits/types.h"
 7597              		.file 8 "/usr/include/x86_64-linux-gnu/bits/types/__mbstate_t.h"
 7598              		.file 9 "/usr/include/x86_64-linux-gnu/bits/types/__fpos_t.h"
 7599              		.file 10 "/usr/include/x86_64-linux-gnu/bits/types/__FILE.h"
 7600              		.file 11 "/usr/include/x86_64-linux-gnu/bits/types/struct_FILE.h"
 7601              		.file 12 "/usr/include/x86_64-linux-gnu/bits/types/FILE.h"
 7602              		.file 13 "/usr/include/stdio.h"
 7603              		.file 14 "/usr/include/c++/11/cstdio"
 7604              		.file 15 "/usr/include/c++/11/cstring"
 7605              		.file 16 "/usr/include/c++/11/cwchar"
 7606              		.file 17 "/usr/include/c++/11/bits/char_traits.h"
 7607              		.file 18 "/usr/include/x86_64-linux-gnu/c++/11/bits/c++config.h"
 7608              		.file 19 "/usr/include/c++/11/clocale"
 7609              		.file 20 "/usr/include/c++/11/bits/allocator.h"
 7610              		.file 21 "/usr/include/c++/11/bits/basic_string.h"
 7611              		.file 22 "/usr/include/c++/11/bits/basic_string.tcc"
 7612              		.file 23 "/usr/include/c++/11/sstream"
 7613              		.file 24 "/usr/include/c++/11/bits/stringfwd.h"
 7614              		.file 25 "/usr/include/c++/11/cwctype"
 7615              		.file 26 "/usr/include/c++/11/bits/ostream.tcc"
 7616              		.file 27 "/usr/include/c++/11/ostream"
 7617              		.file 28 "/usr/include/c++/11/bits/basic_ios.h"
 7618              		.file 29 "/usr/include/c++/11/debug/debug.h"
 7619              		.file 30 "/usr/include/c++/11/bits/predefined_ops.h"
 7620              		.file 31 "/usr/include/c++/11/ext/new_allocator.h"
 7621              		.file 32 "/usr/include/c++/11/ext/alloc_traits.h"
 7622              		.file 33 "/usr/include/string.h"
 7623              		.file 34 "/home/pong/FPGALink/makestuff/libs/libutpp/TestDetails.h"
 7624              		.file 35 "/home/pong/FPGALink/makestuff/libs/libutpp/TestList.h"
 7625              		.file 36 "/home/pong/FPGALink/makestuff/libs/libutpp/Test.h"
 7626              		.file 37 "/home/pong/FPGALink/makestuff/libs/libutpp/TestResults.h"
 7627              		.file 38 "/home/pong/FPGALink/makestuff/libs/libutpp/CurrentTest.h"
 7628              		.file 39 "/usr/include/x86_64-linux-gnu/bits/types/wint_t.h"
 7629              		.file 40 "/usr/include/x86_64-linux-gnu/bits/types/mbstate_t.h"
 7630              		.file 41 "/usr/include/wchar.h"
 7631              		.file 42 "/usr/include/x86_64-linux-gnu/bits/types/struct_tm.h"
 7632              		.file 43 "/usr/include/locale.h"
 7633              		.file 44 "/usr/include/x86_64-linux-gnu/bits/wctype-wchar.h"
 7634              		.file 45 "/usr/include/wctype.h"
 7635              		.file 46 "/home/pong/FPGALink/makestuff/common/makestuff.h"
 7636              		.file 47 "/home/pong/FPGALink/makestuff/libs/libbuffer/libbuffer.h"
 7637              		.file 48 "../libfpgalink.h"
 7638              		.file 49 "../svf2csvf.h"
 7639              		.file 50 "../xsvf.h"
 7640              		.file 51 "/usr/include/c++/11/new"
 22258              		.align 8
 22261              	DW.ref.__gxx_personality_v0:
 22262 0000 00000000 		.quad	__gxx_personality_v0
 22262      00000000 
 22263              		.hidden	__dso_handle
 22264              		.ident	"GCC: (Ubuntu 11.3.0-1ubuntu1~22.04) 11.3.0"
 22265              		.section	.note.GNU-stack,"",@progbits
 22266              		.section	.note.gnu.property,"a"
 22267              		.align 8
 22268 0000 04000000 		.long	1f - 0f
 22269 0004 10000000 		.long	4f - 1f
 22270 0008 05000000 		.long	5
 22271              	0:
 22272 000c 474E5500 		.string	"GNU"
 22273              	1:
 22274              		.align 8
 22275 0010 020000C0 		.long	0xc0000002
 22276 0014 04000000 		.long	3f - 2f
 22277              	2:
 22278 0018 03000000 		.long	0x3
 22279              	3:
 22280 001c 00000000 		.align 8
 22281              	4:
DEFINED SYMBOLS
                            *ABS*:0000000000000000 testSvf2Csvf.cpp
     /tmp/cc0MCLF4.s:11     .text._ZN13UnitTestSuite12GetSuiteNameEv:0000000000000000 _ZN13UnitTestSuite12GetSuiteNameEv
     /tmp/cc0MCLF4.s:35     .text._ZN8UnitTest15MemoryOutStreamC1Ev:0000000000000000 _ZN8UnitTest15MemoryOutStreamC1Ev
     /tmp/cc0MCLF4.s:22261  .data.rel.local.DW.ref.__gxx_personality_v0:0000000000000000 DW.ref.__gxx_personality_v0
     /tmp/cc0MCLF4.s:7306   .data.rel.ro.local._ZTTN8UnitTest15MemoryOutStreamE:0000000000000000 _ZTTN8UnitTest15MemoryOutStreamE
     /tmp/cc0MCLF4.s:7290   .data.rel.ro.local._ZTVN8UnitTest15MemoryOutStreamE:0000000000000000 _ZTVN8UnitTest15MemoryOutStreamE
     /tmp/cc0MCLF4.s:159    .text:0000000000000000 _Z13testReadBytesP6BufferPKc
     /tmp/cc0MCLF4.s:5959   .text._ZN8UnitTest10CheckEqualI8FLStatusS1_EEvRNS_11TestResultsERKT_RKT0_RKNS_11TestDetailsE:0000000000000000 _ZN8UnitTest10CheckEqualI8FLStatusS1_EEvRNS_11TestResultsERKT_RKT0_RKNS_11TestDetailsE
     /tmp/cc0MCLF4.s:6107   .text._ZN8UnitTest10CheckEqualIjmEEvRNS_11TestResultsERKT_RKT0_RKNS_11TestDetailsE:0000000000000000 _ZN8UnitTest10CheckEqualIjmEEvRNS_11TestResultsERKT_RKT0_RKNS_11TestDetailsE
     /tmp/cc0MCLF4.s:527    .text._ZN26TestFPGALink_testReadBytesC2Ev:0000000000000000 _ZN26TestFPGALink_testReadBytesC2Ev
     /tmp/cc0MCLF4.s:7177   .data.rel.ro.local._ZTV26TestFPGALink_testReadBytes:0000000000000000 _ZTV26TestFPGALink_testReadBytes
     /tmp/cc0MCLF4.s:527    .text._ZN26TestFPGALink_testReadBytesC2Ev:0000000000000000 _ZN26TestFPGALink_testReadBytesC1Ev
     /tmp/cc0MCLF4.s:572    .bss:0000000000000000 testFPGALink_testReadBytesInstance
     /tmp/cc0MCLF4.s:577    .bss:0000000000000038 adderFPGALink_testReadBytes
     /tmp/cc0MCLF4.s:599    .text:0000000000000342 _ZNK26TestFPGALink_testReadBytes7RunImplEv
     /tmp/cc0MCLF4.s:6256   .text._ZN8UnitTest10CheckEqualI12BufferStatusS1_EEvRNS_11TestResultsERKT_RKT0_RKNS_11TestDetailsE:0000000000000000 _ZN8UnitTest10CheckEqualI12BufferStatusS1_EEvRNS_11TestResultsERKT_RKT0_RKNS_11TestDetailsE
     /tmp/cc0MCLF4.s:800    .text:00000000000004d3 _Z9testShiftPKcjS0_jS0_jS0_
     /tmp/cc0MCLF4.s:6403   .text._ZN8UnitTest10CheckEqualImmEEvRNS_11TestResultsERKT_RKT0_RKNS_11TestDetailsE:0000000000000000 _ZN8UnitTest10CheckEqualImmEEvRNS_11TestResultsERKT_RKT0_RKNS_11TestDetailsE
     /tmp/cc0MCLF4.s:1727   .text._ZN22TestFPGALink_testShiftC2Ev:0000000000000000 _ZN22TestFPGALink_testShiftC2Ev
     /tmp/cc0MCLF4.s:7064   .data.rel.ro.local._ZTV22TestFPGALink_testShift:0000000000000000 _ZTV22TestFPGALink_testShift
     /tmp/cc0MCLF4.s:1727   .text._ZN22TestFPGALink_testShiftC2Ev:0000000000000000 _ZN22TestFPGALink_testShiftC1Ev
     /tmp/cc0MCLF4.s:1772   .bss:0000000000000040 testFPGALink_testShiftInstance
     /tmp/cc0MCLF4.s:1777   .bss:0000000000000078 adderFPGALink_testShift
     /tmp/cc0MCLF4.s:1978   .text:0000000000000db4 _ZNK22TestFPGALink_testShift7RunImplEv
     /tmp/cc0MCLF4.s:3036   .text:0000000000002047 _Z11parseStringP12ParseContextPKcP6Buffer
     /tmp/cc0MCLF4.s:3383   .text:0000000000002305 _Z12renderBufferRPcPK6Buffer
     /tmp/cc0MCLF4.s:3470   .text:00000000000023b2 _Z14renderBitStoreRPcPK8BitStore
     /tmp/cc0MCLF4.s:3575   .bss:0000000000000140 _ZZ9renderCxtPK12ParseContextE6result
     /tmp/cc0MCLF4.s:3578   .text:00000000000024ac _Z9renderCxtPK12ParseContext
     /tmp/cc0MCLF4.s:3723   .text._ZN22TestFPGALink_testParseC2Ev:0000000000000000 _ZN22TestFPGALink_testParseC2Ev
     /tmp/cc0MCLF4.s:6951   .data.rel.ro.local._ZTV22TestFPGALink_testParse:0000000000000000 _ZTV22TestFPGALink_testParse
     /tmp/cc0MCLF4.s:3723   .text._ZN22TestFPGALink_testParseC2Ev:0000000000000000 _ZN22TestFPGALink_testParseC1Ev
     /tmp/cc0MCLF4.s:3768   .bss:0000000000000080 testFPGALink_testParseInstance
     /tmp/cc0MCLF4.s:3773   .bss:00000000000000b8 adderFPGALink_testParse
     /tmp/cc0MCLF4.s:3804   .text:0000000000002622 _ZNK22TestFPGALink_testParse7RunImplEv
     /tmp/cc0MCLF4.s:4338   .text:0000000000002ae4 _ZL7compareiPKhS0_
     /tmp/cc0MCLF4.s:6551   .text._ZN8UnitTest10CheckEqualIjjEEvRNS_11TestResultsERKT_RKT0_RKNS_11TestDetailsE:0000000000000000 _ZN8UnitTest10CheckEqualIjjEEvRNS_11TestResultsERKT_RKT0_RKNS_11TestDetailsE
     /tmp/cc0MCLF4.s:4617   .text._ZN29TestFPGALink_testProcessIndexC2Ev:0000000000000000 _ZN29TestFPGALink_testProcessIndexC2Ev
     /tmp/cc0MCLF4.s:6838   .data.rel.ro.local._ZTV29TestFPGALink_testProcessIndex:0000000000000000 _ZTV29TestFPGALink_testProcessIndex
     /tmp/cc0MCLF4.s:4617   .text._ZN29TestFPGALink_testProcessIndexC2Ev:0000000000000000 _ZN29TestFPGALink_testProcessIndexC1Ev
     /tmp/cc0MCLF4.s:4662   .bss:00000000000000c0 testFPGALink_testProcessIndexInstance
     /tmp/cc0MCLF4.s:4667   .bss:00000000000000f8 adderFPGALink_testProcessIndex
     /tmp/cc0MCLF4.s:4686   .text:0000000000002d00 _ZNK29TestFPGALink_testProcessIndex7RunImplEv
     /tmp/cc0MCLF4.s:6699   .text._ZN8UnitTest5CheckIbEEbT_:0000000000000000 _ZN8UnitTest5CheckIbEEbT_
     /tmp/cc0MCLF4.s:5331   .text._ZN27TestFPGALink_testBuildIndexC2Ev:0000000000000000 _ZN27TestFPGALink_testBuildIndexC2Ev
     /tmp/cc0MCLF4.s:6725   .data.rel.ro.local._ZTV27TestFPGALink_testBuildIndex:0000000000000000 _ZTV27TestFPGALink_testBuildIndex
     /tmp/cc0MCLF4.s:5331   .text._ZN27TestFPGALink_testBuildIndexC2Ev:0000000000000000 _ZN27TestFPGALink_testBuildIndexC1Ev
     /tmp/cc0MCLF4.s:5376   .bss:0000000000000100 testFPGALink_testBuildIndexInstance
     /tmp/cc0MCLF4.s:5381   .bss:0000000000000138 adderFPGALink_testBuildIndex
     /tmp/cc0MCLF4.s:5387   .text:0000000000003670 _ZNK27TestFPGALink_testBuildIndex7RunImplEv
     /tmp/cc0MCLF4.s:5747   .text._ZN8UnitTest15MemoryOutStreamD1Ev:0000000000000000 _ZN8UnitTest15MemoryOutStreamD1Ev
     /tmp/cc0MCLF4.s:5858   .text._ZN8UnitTest15MemoryOutStreamD1Ev:00000000000000b6 _ZTv0_n24_N8UnitTest15MemoryOutStreamD1Ev
     /tmp/cc0MCLF4.s:5873   .text._ZN8UnitTest15MemoryOutStreamD0Ev:0000000000000000 _ZN8UnitTest15MemoryOutStreamD0Ev
     /tmp/cc0MCLF4.s:5940   .text._ZN8UnitTest15MemoryOutStreamD0Ev:000000000000004f _ZTv0_n24_N8UnitTest15MemoryOutStreamD0Ev
     /tmp/cc0MCLF4.s:7352   .data.rel.ro._ZTI27TestFPGALink_testBuildIndex:0000000000000000 _ZTI27TestFPGALink_testBuildIndex
     /tmp/cc0MCLF4.s:6735   .text._ZN27TestFPGALink_testBuildIndexD2Ev:0000000000000000 _ZN27TestFPGALink_testBuildIndexD1Ev
     /tmp/cc0MCLF4.s:6769   .text._ZN27TestFPGALink_testBuildIndexD0Ev:0000000000000000 _ZN27TestFPGALink_testBuildIndexD0Ev
     /tmp/cc0MCLF4.s:6735   .text._ZN27TestFPGALink_testBuildIndexD2Ev:0000000000000000 _ZN27TestFPGALink_testBuildIndexD2Ev
     /tmp/cc0MCLF4.s:7368   .data.rel.ro._ZTI29TestFPGALink_testProcessIndex:0000000000000000 _ZTI29TestFPGALink_testProcessIndex
     /tmp/cc0MCLF4.s:6848   .text._ZN29TestFPGALink_testProcessIndexD2Ev:0000000000000000 _ZN29TestFPGALink_testProcessIndexD1Ev
     /tmp/cc0MCLF4.s:6882   .text._ZN29TestFPGALink_testProcessIndexD0Ev:0000000000000000 _ZN29TestFPGALink_testProcessIndexD0Ev
     /tmp/cc0MCLF4.s:6848   .text._ZN29TestFPGALink_testProcessIndexD2Ev:0000000000000000 _ZN29TestFPGALink_testProcessIndexD2Ev
     /tmp/cc0MCLF4.s:7384   .data.rel.ro._ZTI22TestFPGALink_testParse:0000000000000000 _ZTI22TestFPGALink_testParse
     /tmp/cc0MCLF4.s:6961   .text._ZN22TestFPGALink_testParseD2Ev:0000000000000000 _ZN22TestFPGALink_testParseD1Ev
     /tmp/cc0MCLF4.s:6995   .text._ZN22TestFPGALink_testParseD0Ev:0000000000000000 _ZN22TestFPGALink_testParseD0Ev
     /tmp/cc0MCLF4.s:6961   .text._ZN22TestFPGALink_testParseD2Ev:0000000000000000 _ZN22TestFPGALink_testParseD2Ev
     /tmp/cc0MCLF4.s:7400   .data.rel.ro._ZTI22TestFPGALink_testShift:0000000000000000 _ZTI22TestFPGALink_testShift
     /tmp/cc0MCLF4.s:7074   .text._ZN22TestFPGALink_testShiftD2Ev:0000000000000000 _ZN22TestFPGALink_testShiftD1Ev
     /tmp/cc0MCLF4.s:7108   .text._ZN22TestFPGALink_testShiftD0Ev:0000000000000000 _ZN22TestFPGALink_testShiftD0Ev
     /tmp/cc0MCLF4.s:7074   .text._ZN22TestFPGALink_testShiftD2Ev:0000000000000000 _ZN22TestFPGALink_testShiftD2Ev
     /tmp/cc0MCLF4.s:7416   .data.rel.ro._ZTI26TestFPGALink_testReadBytes:0000000000000000 _ZTI26TestFPGALink_testReadBytes
     /tmp/cc0MCLF4.s:7187   .text._ZN26TestFPGALink_testReadBytesD2Ev:0000000000000000 _ZN26TestFPGALink_testReadBytesD1Ev
     /tmp/cc0MCLF4.s:7221   .text._ZN26TestFPGALink_testReadBytesD0Ev:0000000000000000 _ZN26TestFPGALink_testReadBytesD0Ev
     /tmp/cc0MCLF4.s:7187   .text._ZN26TestFPGALink_testReadBytesD2Ev:0000000000000000 _ZN26TestFPGALink_testReadBytesD2Ev
     /tmp/cc0MCLF4.s:7432   .data.rel.ro._ZTIN8UnitTest15MemoryOutStreamE:0000000000000000 _ZTIN8UnitTest15MemoryOutStreamE
     /tmp/cc0MCLF4.s:7319   .data.rel.ro._ZTCN8UnitTest15MemoryOutStreamE0_NSt7__cxx1119basic_ostringstreamIcSt11char_traitsIcESaIcEEE:0000000000000000 _ZTCN8UnitTest15MemoryOutStreamE0_NSt7__cxx1119basic_ostringstreamIcSt11char_traitsIcESaIcEEE
     /tmp/cc0MCLF4.s:7336   .data.rel.ro._ZTCN8UnitTest15MemoryOutStreamE0_So:0000000000000000 _ZTCN8UnitTest15MemoryOutStreamE0_So
     /tmp/cc0MCLF4.s:7361   .rodata._ZTS27TestFPGALink_testBuildIndex:0000000000000000 _ZTS27TestFPGALink_testBuildIndex
     /tmp/cc0MCLF4.s:7377   .rodata._ZTS29TestFPGALink_testProcessIndex:0000000000000000 _ZTS29TestFPGALink_testProcessIndex
     /tmp/cc0MCLF4.s:7393   .rodata._ZTS22TestFPGALink_testParse:0000000000000000 _ZTS22TestFPGALink_testParse
     /tmp/cc0MCLF4.s:7409   .rodata._ZTS22TestFPGALink_testShift:0000000000000000 _ZTS22TestFPGALink_testShift
     /tmp/cc0MCLF4.s:7425   .rodata._ZTS26TestFPGALink_testReadBytes:0000000000000000 _ZTS26TestFPGALink_testReadBytes
     /tmp/cc0MCLF4.s:7441   .rodata._ZTSN8UnitTest15MemoryOutStreamE:0000000000000000 _ZTSN8UnitTest15MemoryOutStreamE
     /tmp/cc0MCLF4.s:7445   .text:00000000000039d2 _Z41__static_initialization_and_destruction_0ii
     /tmp/cc0MCLF4.s:7569   .text:0000000000003bac _GLOBAL__sub_I__Z13testReadBytesP6BufferPKc
                           .group:0000000000000000 _ZN26TestFPGALink_testReadBytesC5Ev
                           .group:0000000000000000 _ZN22TestFPGALink_testShiftC5Ev
                           .group:0000000000000000 _ZN22TestFPGALink_testParseC5Ev
                           .group:0000000000000000 _ZN29TestFPGALink_testProcessIndexC5Ev
                           .group:0000000000000000 _ZN27TestFPGALink_testBuildIndexC5Ev
                           .group:0000000000000000 _ZN27TestFPGALink_testBuildIndexD5Ev
                           .group:0000000000000000 _ZN29TestFPGALink_testProcessIndexD5Ev
                           .group:0000000000000000 _ZN22TestFPGALink_testParseD5Ev
                           .group:0000000000000000 _ZN22TestFPGALink_testShiftD5Ev
                           .group:0000000000000000 _ZN26TestFPGALink_testReadBytesD5Ev

UNDEFINED SYMBOLS
_ZNSt9basic_iosIcSt11char_traitsIcEEC2Ev
_ZNSt7__cxx1119basic_ostringstreamIcSt11char_traitsIcESaIcEEC2Ev
_ZNSt7__cxx1112basic_stringIcSt11char_traitsIcESaIcEEC1Ev
_ZNSt7__cxx1119basic_ostringstreamIcSt11char_traitsIcESaIcEED2Ev
_ZNSt9basic_iosIcSt11char_traitsIcEED2Ev
_Unwind_Resume
__gxx_personality_v0
strlen
bufZeroLength
readBytes
_ZN8UnitTest11CurrentTest7DetailsEv
_ZN8UnitTest11TestDetailsC1ERKS0_i
_ZN8UnitTest11CurrentTest7ResultsEv
sprintf
_ZN8UnitTest10CheckEqualERNS_11TestResultsEPKcPcRKNS_11TestDetailsE
__cxa_begin_catch
_ZN8UnitTest11TestResults13OnTestFailureERKNS_11TestDetailsEPKc
__cxa_end_catch
__stack_chk_fail
_ZN8UnitTest4TestC2EPKcS2_S2_i
bufInitialise
bufDestroy
headTail
bufAppendBlock
parseLine
cxtInitialise
_ZN8UnitTest10CheckEqualERNS_11TestResultsEPKcS3_RKNS_11TestDetailsE
cxtDestroy
getCmdName
printf
readLongBE
processIndex
memset
buildIndex
_ZNSt7__cxx1112basic_stringIcSt11char_traitsIcESaIcEED1Ev
_ZdlPv
_ZStlsISt11char_traitsIcEERSt13basic_ostreamIcT_ES5_PKc
_ZNSolsEi
_ZNK8UnitTest15MemoryOutStream7GetTextEv
_ZNSolsEj
_ZNSolsEm
_ZN8UnitTest4TestD2Ev
_ZTINSt7__cxx1119basic_ostringstreamIcSt11char_traitsIcESaIcEEE
_ZTISo
_ZTVN10__cxxabiv120__si_class_type_infoE
_ZTIN8UnitTest4TestE
__dso_handle
__cxa_atexit
_ZN8UnitTest4Test11GetTestListEv
_ZN8UnitTest9ListAdderC1ERNS_8TestListEPNS_4TestE
