   1              		.file	"testSvf2Csvf.cpp"
   2              		.text
   3              	.Ltext0:
   4              		.file 0 "/home/pong/FPGALink/makestuff/libs/libfpgalink/tests-unit" "testSvf2Csvf.cpp"
   5              		.section	.rodata
   6              	.LC0:
   7 0000 44656661 		.string	"DefaultSuite"
   7      756C7453 
   7      75697465 
   7      00
   8              		.section	.text._ZN13UnitTestSuite12GetSuiteNameEv,"axG",@progbits,_ZN13UnitTestSuite12GetSuiteName
   9              		.weak	_ZN13UnitTestSuite12GetSuiteNameEv
  11              	_ZN13UnitTestSuite12GetSuiteNameEv:
  12              	.LFB0:
  13              		.file 1 "/home/pong/FPGALink/makestuff/libs/libutpp/TestSuite.h"
   1:/home/pong/FPGALink/makestuff/libs/libutpp/TestSuite.h **** #ifndef UNITTEST_TESTSUITE_H
   2:/home/pong/FPGALink/makestuff/libs/libutpp/TestSuite.h **** #define UNITTEST_TESTSUITE_H
   3:/home/pong/FPGALink/makestuff/libs/libutpp/TestSuite.h **** 
   4:/home/pong/FPGALink/makestuff/libs/libutpp/TestSuite.h **** namespace UnitTestSuite {
   5:/home/pong/FPGALink/makestuff/libs/libutpp/TestSuite.h **** 
   6:/home/pong/FPGALink/makestuff/libs/libutpp/TestSuite.h ****     inline char const* GetSuiteName ()
   7:/home/pong/FPGALink/makestuff/libs/libutpp/TestSuite.h ****     {
  14              		.loc 1 7 5
  15              		.cfi_startproc
  16 0000 F30F1EFA 		endbr64
  17 0004 55       		pushq	%rbp
  18              		.cfi_def_cfa_offset 16
  19              		.cfi_offset 6, -16
  20 0005 4889E5   		movq	%rsp, %rbp
  21              		.cfi_def_cfa_register 6
   8:/home/pong/FPGALink/makestuff/libs/libutpp/TestSuite.h ****         return "DefaultSuite";
  22              		.loc 1 8 16
  23 0008 488D0500 		leaq	.LC0(%rip), %rax
  23      000000
   9:/home/pong/FPGALink/makestuff/libs/libutpp/TestSuite.h ****     }
  24              		.loc 1 9 5
  25 000f 5D       		popq	%rbp
  26              		.cfi_def_cfa 7, 8
  27 0010 C3       		ret
  28              		.cfi_endproc
  29              	.LFE0:
  31              		.section	.text._ZN8UnitTest15MemoryOutStreamC1Ev,"axG",@progbits,_ZN8UnitTest15MemoryOutStreamC1Ev
  32              		.align 2
  33              		.weak	_ZN8UnitTest15MemoryOutStreamC1Ev
  35              	_ZN8UnitTest15MemoryOutStreamC1Ev:
  36              	.LFB1129:
  37              		.file 2 "/home/pong/FPGALink/makestuff/libs/libutpp/MemoryOutStream.h"
   1:/home/pong/FPGALink/makestuff/libs/libutpp/MemoryOutStream.h **** #ifndef UNITTEST_MEMORYOUTSTREAM_H
   2:/home/pong/FPGALink/makestuff/libs/libutpp/MemoryOutStream.h **** #define UNITTEST_MEMORYOUTSTREAM_H
   3:/home/pong/FPGALink/makestuff/libs/libutpp/MemoryOutStream.h **** 
   4:/home/pong/FPGALink/makestuff/libs/libutpp/MemoryOutStream.h **** #include "Config.h"
   5:/home/pong/FPGALink/makestuff/libs/libutpp/MemoryOutStream.h **** 
   6:/home/pong/FPGALink/makestuff/libs/libutpp/MemoryOutStream.h **** #ifndef UNITTEST_USE_CUSTOM_STREAMS
   7:/home/pong/FPGALink/makestuff/libs/libutpp/MemoryOutStream.h **** 
   8:/home/pong/FPGALink/makestuff/libs/libutpp/MemoryOutStream.h **** #include <sstream>
   9:/home/pong/FPGALink/makestuff/libs/libutpp/MemoryOutStream.h **** 
  10:/home/pong/FPGALink/makestuff/libs/libutpp/MemoryOutStream.h **** namespace UnitTest
  11:/home/pong/FPGALink/makestuff/libs/libutpp/MemoryOutStream.h **** {
  12:/home/pong/FPGALink/makestuff/libs/libutpp/MemoryOutStream.h **** 
  13:/home/pong/FPGALink/makestuff/libs/libutpp/MemoryOutStream.h **** class MemoryOutStream : public std::ostringstream
  14:/home/pong/FPGALink/makestuff/libs/libutpp/MemoryOutStream.h **** {
  15:/home/pong/FPGALink/makestuff/libs/libutpp/MemoryOutStream.h **** public:
  16:/home/pong/FPGALink/makestuff/libs/libutpp/MemoryOutStream.h ****     MemoryOutStream() {}
  38              		.loc 2 16 5
  39              		.cfi_startproc
  40              		.cfi_personality 0x9b,DW.ref.__gxx_personality_v0
  41              		.cfi_lsda 0x1b,.LLSDA1129
  42 0000 F30F1EFA 		endbr64
  43 0004 55       		pushq	%rbp
  44              		.cfi_def_cfa_offset 16
  45              		.cfi_offset 6, -16
  46 0005 4889E5   		movq	%rsp, %rbp
  47              		.cfi_def_cfa_register 6
  48 0008 53       		pushq	%rbx
  49 0009 4883EC18 		subq	$24, %rsp
  50              		.cfi_offset 3, -24
  51 000d 48897DE8 		movq	%rdi, -24(%rbp)
  52              	.LBB2:
  53              		.loc 2 16 23
  54 0011 488B45E8 		movq	-24(%rbp), %rax
  55 0015 48059000 		addq	$144, %rax
  55      0000
  56 001b 4889C7   		movq	%rax, %rdi
  57              	.LEHB0:
  58 001e E8000000 		call	_ZNSt9basic_iosIcSt11char_traitsIcEEC2Ev@PLT
  58      00
  59              	.LEHE0:
  60 0023 488B45E8 		movq	-24(%rbp), %rax
  61 0027 488D1500 		leaq	8+_ZTTN8UnitTest15MemoryOutStreamE(%rip), %rdx
  61      000000
  62 002e 4889D6   		movq	%rdx, %rsi
  63 0031 4889C7   		movq	%rax, %rdi
  64              	.LEHB1:
  65 0034 E8000000 		call	_ZNSt7__cxx1119basic_ostringstreamIcSt11char_traitsIcESaIcEEC2Ev@PLT
  65      00
  66              	.LEHE1:
  67              		.loc 2 16 23 is_stmt 0 discriminator 2
  68 0039 488D1500 		leaq	24+_ZTVN8UnitTest15MemoryOutStreamE(%rip), %rdx
  68      000000
  69 0040 488B45E8 		movq	-24(%rbp), %rax
  70 0044 488910   		movq	%rdx, (%rax)
  71 0047 488B45E8 		movq	-24(%rbp), %rax
  72 004b 48059000 		addq	$144, %rax
  72      0000
  73 0051 488D1500 		leaq	64+_ZTVN8UnitTest15MemoryOutStreamE(%rip), %rdx
  73      000000
  74 0058 488910   		movq	%rdx, (%rax)
  75 005b 488B45E8 		movq	-24(%rbp), %rax
  76 005f 4883C070 		addq	$112, %rax
  77 0063 4889C7   		movq	%rax, %rdi
  78              	.LEHB2:
  79 0066 E8000000 		call	_ZNSt7__cxx1112basic_stringIcSt11char_traitsIcESaIcEEC1Ev@PLT
  79      00
  80              	.LEHE2:
  81              	.LBE2:
  82              		.loc 2 16 24 is_stmt 1
  83 006b EB43     		jmp	.L8
  84              	.L7:
  85 006d F30F1EFA 		endbr64
  86              	.LBB3:
  87 0071 4889C3   		movq	%rax, %rbx
  88 0074 488B45E8 		movq	-24(%rbp), %rax
  89 0078 488D1500 		leaq	8+_ZTTN8UnitTest15MemoryOutStreamE(%rip), %rdx
  89      000000
  90 007f 4889D6   		movq	%rdx, %rsi
  91 0082 4889C7   		movq	%rax, %rdi
  92 0085 E8000000 		call	_ZNSt7__cxx1119basic_ostringstreamIcSt11char_traitsIcESaIcEED2Ev@PLT
  92      00
  93 008a EB07     		jmp	.L5
  94              	.L6:
  95 008c F30F1EFA 		endbr64
  96 0090 4889C3   		movq	%rax, %rbx
  97              	.L5:
  98              		.loc 2 16 24 is_stmt 0 discriminator 1
  99 0093 488B45E8 		movq	-24(%rbp), %rax
 100 0097 48059000 		addq	$144, %rax
 100      0000
 101 009d 4889C7   		movq	%rax, %rdi
 102 00a0 E8000000 		call	_ZNSt9basic_iosIcSt11char_traitsIcEED2Ev@PLT
 102      00
 103 00a5 4889D8   		movq	%rbx, %rax
 104 00a8 4889C7   		movq	%rax, %rdi
 105              	.LEHB3:
 106 00ab E8000000 		call	_Unwind_Resume@PLT
 106      00
 107              	.LEHE3:
 108              	.L8:
 109              	.LBE3:
 110              		.loc 2 16 24
 111 00b0 488B5DF8 		movq	-8(%rbp), %rbx
 112 00b4 C9       		leave
 113              		.cfi_def_cfa 7, 8
 114 00b5 C3       		ret
 115              		.cfi_endproc
 116              	.LFE1129:
 117              		.globl	__gxx_personality_v0
 118              		.section	.gcc_except_table._ZN8UnitTest15MemoryOutStreamC1Ev,"aG",@progbits,_ZN8UnitTest15MemoryOu
 119              	.LLSDA1129:
 120 0000 FF       		.byte	0xff
 121 0001 FF       		.byte	0xff
 122 0002 01       		.byte	0x1
 123 0003 12       		.uleb128 .LLSDACSE1129-.LLSDACSB1129
 124              	.LLSDACSB1129:
 125 0004 1E       		.uleb128 .LEHB0-.LFB1129
 126 0005 05       		.uleb128 .LEHE0-.LEHB0
 127 0006 00       		.uleb128 0
 128 0007 00       		.uleb128 0
 129 0008 34       		.uleb128 .LEHB1-.LFB1129
 130 0009 05       		.uleb128 .LEHE1-.LEHB1
 131 000a 8C01     		.uleb128 .L6-.LFB1129
 132 000c 00       		.uleb128 0
 133 000d 66       		.uleb128 .LEHB2-.LFB1129
 134 000e 05       		.uleb128 .LEHE2-.LEHB2
 135 000f 6D       		.uleb128 .L7-.LFB1129
 136 0010 00       		.uleb128 0
 137 0011 AB01     		.uleb128 .LEHB3-.LFB1129
 138 0013 05       		.uleb128 .LEHE3-.LEHB3
 139 0014 00       		.uleb128 0
 140 0015 00       		.uleb128 0
 141              	.LLSDACSE1129:
 142              		.section	.text._ZN8UnitTest15MemoryOutStreamC1Ev,"axG",@progbits,_ZN8UnitTest15MemoryOutStreamC1Ev
 144              		.section	.rodata
 145              	.LC1:
 146 000d 25303258 		.string	"%02X"
 146      00
 147 0012 00000000 		.align 8
 147      0000
 148              	.LC2:
 149 0018 556E6861 		.string	"Unhandled exception in CHECK_EQUAL(FL_SUCCESS, fStatus)"
 149      6E646C65 
 149      64206578 
 149      63657074 
 149      696F6E20 
 150              		.align 8
 151              	.LC3:
 152 0050 556E6861 		.string	"Unhandled exception in CHECK_EQUAL(expectedLength, buf->length)"
 152      6E646C65 
 152      64206578 
 152      63657074 
 152      696F6E20 
 153              		.align 8
 154              	.LC4:
 155 0090 556E6861 		.string	"Unhandled exception in CHECK_EQUAL(expected, result)"
 155      6E646C65 
 155      64206578 
 155      63657074 
 155      696F6E20 
 156              		.text
 157              		.globl	_Z13testReadBytesP6BufferPKc
 159              	_Z13testReadBytesP6BufferPKc:
 160              	.LFB1145:
 161              		.file 3 "testSvf2Csvf.cpp"
   1:testSvf2Csvf.cpp **** /*
   2:testSvf2Csvf.cpp ****  * Copyright (C) 2009-2012 Chris McClelland
   3:testSvf2Csvf.cpp ****  *
   4:testSvf2Csvf.cpp ****  * This program is free software: you can redistribute it and/or modify
   5:testSvf2Csvf.cpp ****  * it under the terms of the GNU Lesser General Public License as published by
   6:testSvf2Csvf.cpp ****  * the Free Software Foundation, either version 3 of the License, or
   7:testSvf2Csvf.cpp ****  * (at your option) any later version.
   8:testSvf2Csvf.cpp ****  *
   9:testSvf2Csvf.cpp ****  * This program is distributed in the hope that it will be useful,
  10:testSvf2Csvf.cpp ****  * but WITHOUT ANY WARRANTY; without even the implied warranty of
  11:testSvf2Csvf.cpp ****  * MERCHANTABILITY or FITNESS FOR A PARTICULAR PURPOSE.  See the
  12:testSvf2Csvf.cpp ****  * GNU Lesser General Public License for more details.
  13:testSvf2Csvf.cpp ****  *
  14:testSvf2Csvf.cpp ****  * You should have received a copy of the GNU Lesser General Public License
  15:testSvf2Csvf.cpp ****  * along with this program.  If not, see <http://www.gnu.org/licenses/>.
  16:testSvf2Csvf.cpp ****  */
  17:testSvf2Csvf.cpp **** #include <cstdio>
  18:testSvf2Csvf.cpp **** #include <cstring>
  19:testSvf2Csvf.cpp **** #include <UnitTest++.h>
  20:testSvf2Csvf.cpp **** #include <makestuff.h>
  21:testSvf2Csvf.cpp **** #include <libbuffer.h>
  22:testSvf2Csvf.cpp **** #include "../svf2csvf.h"
  23:testSvf2Csvf.cpp **** #include "../xsvf.h"
  24:testSvf2Csvf.cpp **** 
  25:testSvf2Csvf.cpp **** using namespace std;
  26:testSvf2Csvf.cpp **** 
  27:testSvf2Csvf.cpp **** void testReadBytes(struct Buffer *buf, const char *expected) {
 162              		.loc 3 27 62 is_stmt 1
 163              		.cfi_startproc
 164              		.cfi_personality 0x9b,DW.ref.__gxx_personality_v0
 165              		.cfi_lsda 0x1b,.LLSDA1145
 166 0000 F30F1EFA 		endbr64
 167 0004 55       		pushq	%rbp
 168              		.cfi_def_cfa_offset 16
 169              		.cfi_offset 6, -16
 170 0005 4889E5   		movq	%rsp, %rbp
 171              		.cfi_def_cfa_register 6
 172 0008 53       		pushq	%rbx
 173 0009 4881EC58 		subq	$1112, %rsp
 173      040000
 174              		.cfi_offset 3, -24
 175 0010 4889BDA8 		movq	%rdi, -1112(%rbp)
 175      FBFFFF
 176 0017 4889B5A0 		movq	%rsi, -1120(%rbp)
 176      FBFFFF
 177              		.loc 3 27 62
 178 001e 64488B04 		movq	%fs:40, %rax
 178      25280000 
 178      00
 179 0027 488945E8 		movq	%rax, -24(%rbp)
 180 002b 31C0     		xorl	%eax, %eax
  28:testSvf2Csvf.cpp **** 	FLStatus fStatus;
  29:testSvf2Csvf.cpp **** 	char result[1024];
  30:testSvf2Csvf.cpp **** 	const uint32 expectedLength = (uint32)strlen(expected)/2;
 181              		.loc 3 30 46
 182 002d 488B85A0 		movq	-1120(%rbp), %rax
 182      FBFFFF
 183 0034 4889C7   		movq	%rax, %rdi
 184 0037 E8000000 		call	strlen@PLT
 184      00
 185              		.loc 3 30 56
 186 003c D1E8     		shrl	%eax
 187              		.loc 3 30 15
 188 003e 8985B4FB 		movl	%eax, -1100(%rbp)
 188      FFFF
  31:testSvf2Csvf.cpp **** 	bufZeroLength(buf);
 189              		.loc 3 31 15
 190 0044 488B85A8 		movq	-1112(%rbp), %rax
 190      FBFFFF
 191 004b 4889C7   		movq	%rax, %rdi
 192              	.LEHB4:
 193 004e E8000000 		call	bufZeroLength@PLT
 193      00
  32:testSvf2Csvf.cpp **** 	fStatus = readBytes(buf, expected, NULL);
 194              		.loc 3 32 21
 195 0053 488B8DA0 		movq	-1120(%rbp), %rcx
 195      FBFFFF
 196 005a 488B85A8 		movq	-1112(%rbp), %rax
 196      FBFFFF
 197 0061 BA000000 		movl	$0, %edx
 197      00
 198 0066 4889CE   		movq	%rcx, %rsi
 199 0069 4889C7   		movq	%rax, %rdi
 200 006c E8000000 		call	readBytes@PLT
 200      00
 201              	.LEHE4:
 202              		.loc 3 32 10
 203 0071 8985B0FB 		movl	%eax, -1104(%rbp)
 203      FFFF
 204              	.LEHB5:
  33:testSvf2Csvf.cpp **** 	CHECK_EQUAL(FL_SUCCESS, fStatus);
 205              		.loc 3 33 2
 206 0077 E8000000 		call	_ZN8UnitTest11CurrentTest7DetailsEv@PLT
 206      00
 207 007c 488B08   		movq	(%rax), %rcx
 208 007f 488D85C0 		leaq	-1088(%rbp), %rax
 208      FBFFFF
 209 0086 BA210000 		movl	$33, %edx
 209      00
 210 008b 4889CE   		movq	%rcx, %rsi
 211 008e 4889C7   		movq	%rax, %rdi
 212 0091 E8000000 		call	_ZN8UnitTest11TestDetailsC1ERKS0_i@PLT
 212      00
 213              		.loc 3 33 2 is_stmt 0 discriminator 4
 214 0096 C785B8FB 		movl	$0, -1096(%rbp)
 214      FFFF0000 
 214      0000
 215 00a0 E8000000 		call	_ZN8UnitTest11CurrentTest7ResultsEv@PLT
 215      00
 216 00a5 488B00   		movq	(%rax), %rax
 217 00a8 488D8DC0 		leaq	-1088(%rbp), %rcx
 217      FBFFFF
 218 00af 488D95B0 		leaq	-1104(%rbp), %rdx
 218      FBFFFF
 219 00b6 488DB5B8 		leaq	-1096(%rbp), %rsi
 219      FBFFFF
 220 00bd 4889C7   		movq	%rax, %rdi
 221 00c0 E8000000 		call	_ZN8UnitTest10CheckEqualI8FLStatusS1_EEvRNS_11TestResultsERKT_RKT0_RKNS_11TestDetailsE
 221      00
 222              	.LEHE5:
 223              	.L13:
 224              	.LEHB6:
  34:testSvf2Csvf.cpp **** 	CHECK_EQUAL(expectedLength, buf->length);
 225              		.loc 3 34 2 is_stmt 1
 226 00c5 E8000000 		call	_ZN8UnitTest11CurrentTest7DetailsEv@PLT
 226      00
 227 00ca 488B08   		movq	(%rax), %rcx
 228 00cd 488D85C0 		leaq	-1088(%rbp), %rax
 228      FBFFFF
 229 00d4 BA220000 		movl	$34, %edx
 229      00
 230 00d9 4889CE   		movq	%rcx, %rsi
 231 00dc 4889C7   		movq	%rax, %rdi
 232 00df E8000000 		call	_ZN8UnitTest11TestDetailsC1ERKS0_i@PLT
 232      00
 233              		.loc 3 34 2 is_stmt 0 discriminator 4
 234 00e4 488B85A8 		movq	-1112(%rbp), %rax
 234      FBFFFF
 235 00eb 488D5808 		leaq	8(%rax), %rbx
 236 00ef E8000000 		call	_ZN8UnitTest11CurrentTest7ResultsEv@PLT
 236      00
 237 00f4 488B00   		movq	(%rax), %rax
 238 00f7 488D95C0 		leaq	-1088(%rbp), %rdx
 238      FBFFFF
 239 00fe 488DB5B4 		leaq	-1100(%rbp), %rsi
 239      FBFFFF
 240 0105 4889D1   		movq	%rdx, %rcx
 241 0108 4889DA   		movq	%rbx, %rdx
 242 010b 4889C7   		movq	%rax, %rdi
 243 010e E8000000 		call	_ZN8UnitTest10CheckEqualIjmEEvRNS_11TestResultsERKT_RKT0_RKNS_11TestDetailsE
 243      00
 244              	.LEHE6:
 245              	.L16:
 246              	.LBB4:
  35:testSvf2Csvf.cpp **** 	for ( uint32 i = 0; i < 2*buf->length; i++ ) {
 247              		.loc 3 35 15 is_stmt 1
 248 0113 C785BCFB 		movl	$0, -1092(%rbp)
 248      FFFF0000 
 248      0000
 249              		.loc 3 35 2
 250 011d EB4D     		jmp	.L10
 251              	.L11:
  36:testSvf2Csvf.cpp **** 		sprintf(result + 2*i, "%02X", buf->data[i]);
 252              		.loc 3 36 38 discriminator 3
 253 011f 488B85A8 		movq	-1112(%rbp), %rax
 253      FBFFFF
 254 0126 488B10   		movq	(%rax), %rdx
 255              		.loc 3 36 43 discriminator 3
 256 0129 8B85BCFB 		movl	-1092(%rbp), %eax
 256      FFFF
 257              		.loc 3 36 44 discriminator 3
 258 012f 4801D0   		addq	%rdx, %rax
 259 0132 0FB600   		movzbl	(%rax), %eax
 260              		.loc 3 36 10 discriminator 3
 261 0135 0FB6C0   		movzbl	%al, %eax
 262              		.loc 3 36 21 discriminator 3
 263 0138 8B95BCFB 		movl	-1092(%rbp), %edx
 263      FFFF
 264 013e 01D2     		addl	%edx, %edx
 265 0140 89D1     		movl	%edx, %ecx
 266              		.loc 3 36 10 discriminator 3
 267 0142 488D95E0 		leaq	-1056(%rbp), %rdx
 267      FBFFFF
 268 0149 4801D1   		addq	%rdx, %rcx
 269 014c 89C2     		movl	%eax, %edx
 270 014e 488D0500 		leaq	.LC1(%rip), %rax
 270      000000
 271 0155 4889C6   		movq	%rax, %rsi
 272 0158 4889CF   		movq	%rcx, %rdi
 273 015b B8000000 		movl	$0, %eax
 273      00
 274 0160 E8000000 		call	sprintf@PLT
 274      00
  35:testSvf2Csvf.cpp **** 	for ( uint32 i = 0; i < 2*buf->length; i++ ) {
 275              		.loc 3 35 2 discriminator 3
 276 0165 8385BCFB 		addl	$1, -1092(%rbp)
 276      FFFF01
 277              	.L10:
  35:testSvf2Csvf.cpp **** 	for ( uint32 i = 0; i < 2*buf->length; i++ ) {
 278              		.loc 3 35 22 discriminator 1
 279 016c 8B95BCFB 		movl	-1092(%rbp), %edx
 279      FFFF
  35:testSvf2Csvf.cpp **** 	for ( uint32 i = 0; i < 2*buf->length; i++ ) {
 280              		.loc 3 35 33 discriminator 1
 281 0172 488B85A8 		movq	-1112(%rbp), %rax
 281      FBFFFF
 282 0179 488B4008 		movq	8(%rax), %rax
  35:testSvf2Csvf.cpp **** 	for ( uint32 i = 0; i < 2*buf->length; i++ ) {
 283              		.loc 3 35 27 discriminator 1
 284 017d 4801C0   		addq	%rax, %rax
  35:testSvf2Csvf.cpp **** 	for ( uint32 i = 0; i < 2*buf->length; i++ ) {
 285              		.loc 3 35 24 discriminator 1
 286 0180 4839C2   		cmpq	%rax, %rdx
 287 0183 729A     		jb	.L11
 288              	.LBE4:
  37:testSvf2Csvf.cpp **** 	}
  38:testSvf2Csvf.cpp **** 	result[2*buf->length] = '\0';
 289              		.loc 3 38 16
 290 0185 488B85A8 		movq	-1112(%rbp), %rax
 290      FBFFFF
 291 018c 488B4008 		movq	8(%rax), %rax
 292              		.loc 3 38 10
 293 0190 4801C0   		addq	%rax, %rax
 294              		.loc 3 38 24
 295 0193 C68405E0 		movb	$0, -1056(%rbp,%rax)
 295      FBFFFF00 
 296              	.LEHB7:
  39:testSvf2Csvf.cpp **** 	CHECK_EQUAL(expected, result);
 297              		.loc 3 39 2
 298 019b E8000000 		call	_ZN8UnitTest11CurrentTest7DetailsEv@PLT
 298      00
 299 01a0 488B08   		movq	(%rax), %rcx
 300 01a3 488D85C0 		leaq	-1088(%rbp), %rax
 300      FBFFFF
 301 01aa BA270000 		movl	$39, %edx
 301      00
 302 01af 4889CE   		movq	%rcx, %rsi
 303 01b2 4889C7   		movq	%rax, %rdi
 304 01b5 E8000000 		call	_ZN8UnitTest11TestDetailsC1ERKS0_i@PLT
 304      00
 305              		.loc 3 39 2 is_stmt 0 discriminator 4
 306 01ba E8000000 		call	_ZN8UnitTest11CurrentTest7ResultsEv@PLT
 306      00
 307 01bf 488B00   		movq	(%rax), %rax
 308 01c2 488D8DC0 		leaq	-1088(%rbp), %rcx
 308      FBFFFF
 309 01c9 488D95E0 		leaq	-1056(%rbp), %rdx
 309      FBFFFF
 310 01d0 488BB5A0 		movq	-1120(%rbp), %rsi
 310      FBFFFF
 311 01d7 4889C7   		movq	%rax, %rdi
 312 01da E8000000 		call	_ZN8UnitTest10CheckEqualERNS_11TestResultsEPKcPcRKNS_11TestDetailsE@PLT
 312      00
 313              	.LEHE7:
  40:testSvf2Csvf.cpp **** }
 314              		.loc 3 40 1 is_stmt 1
 315 01df E9440100 		jmp	.L9
 315      00
 316              	.L22:
 317 01e4 F30F1EFA 		endbr64
  33:testSvf2Csvf.cpp **** 	CHECK_EQUAL(expectedLength, buf->length);
 318              		.loc 3 33 2
 319 01e8 4889C7   		movq	%rax, %rdi
 320 01eb E8000000 		call	__cxa_begin_catch@PLT
 320      00
 321              	.LEHB8:
 322 01f0 E8000000 		call	_ZN8UnitTest11CurrentTest7ResultsEv@PLT
 322      00
  33:testSvf2Csvf.cpp **** 	CHECK_EQUAL(expectedLength, buf->length);
 323              		.loc 3 33 2 is_stmt 0 discriminator 3
 324 01f5 488B18   		movq	(%rax), %rbx
 325 01f8 E8000000 		call	_ZN8UnitTest11CurrentTest7DetailsEv@PLT
 325      00
  33:testSvf2Csvf.cpp **** 	CHECK_EQUAL(expectedLength, buf->length);
 326              		.loc 3 33 2 discriminator 11
 327 01fd 488B08   		movq	(%rax), %rcx
 328 0200 488D85C0 		leaq	-1088(%rbp), %rax
 328      FBFFFF
 329 0207 BA210000 		movl	$33, %edx
 329      00
 330 020c 4889CE   		movq	%rcx, %rsi
 331 020f 4889C7   		movq	%rax, %rdi
 332 0212 E8000000 		call	_ZN8UnitTest11TestDetailsC1ERKS0_i@PLT
 332      00
  33:testSvf2Csvf.cpp **** 	CHECK_EQUAL(expectedLength, buf->length);
 333              		.loc 3 33 2 discriminator 15
 334 0217 488D85C0 		leaq	-1088(%rbp), %rax
 334      FBFFFF
 335 021e 488D1500 		leaq	.LC2(%rip), %rdx
 335      000000
 336 0225 4889C6   		movq	%rax, %rsi
 337 0228 4889DF   		movq	%rbx, %rdi
 338 022b E8000000 		call	_ZN8UnitTest11TestResults13OnTestFailureERKNS_11TestDetailsEPKc@PLT
 338      00
 339              	.LEHE8:
 340              	.LEHB9:
  33:testSvf2Csvf.cpp **** 	CHECK_EQUAL(expectedLength, buf->length);
 341              		.loc 3 33 2 discriminator 17
 342 0230 E8000000 		call	__cxa_end_catch@PLT
 342      00
 343              	.LEHE9:
 344 0235 E98BFEFF 		jmp	.L13
 344      FF
 345              	.L23:
 346 023a F30F1EFA 		endbr64
  33:testSvf2Csvf.cpp **** 	CHECK_EQUAL(expectedLength, buf->length);
 347              		.loc 3 33 2
 348 023e 4889C3   		movq	%rax, %rbx
 349 0241 E8000000 		call	__cxa_end_catch@PLT
 349      00
 350 0246 4889D8   		movq	%rbx, %rax
 351 0249 4889C7   		movq	%rax, %rdi
 352              	.LEHB10:
 353 024c E8000000 		call	_Unwind_Resume@PLT
 353      00
 354              	.LEHE10:
 355              	.L24:
 356 0251 F30F1EFA 		endbr64
  34:testSvf2Csvf.cpp **** 	for ( uint32 i = 0; i < 2*buf->length; i++ ) {
 357              		.loc 3 34 2 is_stmt 1
 358 0255 4889C7   		movq	%rax, %rdi
 359 0258 E8000000 		call	__cxa_begin_catch@PLT
 359      00
 360              	.LEHB11:
 361 025d E8000000 		call	_ZN8UnitTest11CurrentTest7ResultsEv@PLT
 361      00
  34:testSvf2Csvf.cpp **** 	for ( uint32 i = 0; i < 2*buf->length; i++ ) {
 362              		.loc 3 34 2 is_stmt 0 discriminator 3
 363 0262 488B18   		movq	(%rax), %rbx
 364 0265 E8000000 		call	_ZN8UnitTest11CurrentTest7DetailsEv@PLT
 364      00
  34:testSvf2Csvf.cpp **** 	for ( uint32 i = 0; i < 2*buf->length; i++ ) {
 365              		.loc 3 34 2 discriminator 11
 366 026a 488B08   		movq	(%rax), %rcx
 367 026d 488D85C0 		leaq	-1088(%rbp), %rax
 367      FBFFFF
 368 0274 BA220000 		movl	$34, %edx
 368      00
 369 0279 4889CE   		movq	%rcx, %rsi
 370 027c 4889C7   		movq	%rax, %rdi
 371 027f E8000000 		call	_ZN8UnitTest11TestDetailsC1ERKS0_i@PLT
 371      00
  34:testSvf2Csvf.cpp **** 	for ( uint32 i = 0; i < 2*buf->length; i++ ) {
 372              		.loc 3 34 2 discriminator 15
 373 0284 488D85C0 		leaq	-1088(%rbp), %rax
 373      FBFFFF
 374 028b 488D1500 		leaq	.LC3(%rip), %rdx
 374      000000
 375 0292 4889C6   		movq	%rax, %rsi
 376 0295 4889DF   		movq	%rbx, %rdi
 377 0298 E8000000 		call	_ZN8UnitTest11TestResults13OnTestFailureERKNS_11TestDetailsEPKc@PLT
 377      00
 378              	.LEHE11:
 379              	.LEHB12:
  34:testSvf2Csvf.cpp **** 	for ( uint32 i = 0; i < 2*buf->length; i++ ) {
 380              		.loc 3 34 2 discriminator 17
 381 029d E8000000 		call	__cxa_end_catch@PLT
 381      00
 382              	.LEHE12:
 383 02a2 E96CFEFF 		jmp	.L16
 383      FF
 384              	.L25:
 385 02a7 F30F1EFA 		endbr64
  34:testSvf2Csvf.cpp **** 	for ( uint32 i = 0; i < 2*buf->length; i++ ) {
 386              		.loc 3 34 2
 387 02ab 4889C3   		movq	%rax, %rbx
 388 02ae E8000000 		call	__cxa_end_catch@PLT
 388      00
 389 02b3 4889D8   		movq	%rbx, %rax
 390 02b6 4889C7   		movq	%rax, %rdi
 391              	.LEHB13:
 392 02b9 E8000000 		call	_Unwind_Resume@PLT
 392      00
 393              	.LEHE13:
 394              	.L26:
 395 02be F30F1EFA 		endbr64
  39:testSvf2Csvf.cpp **** }
 396              		.loc 3 39 2 is_stmt 1
 397 02c2 4889C7   		movq	%rax, %rdi
 398 02c5 E8000000 		call	__cxa_begin_catch@PLT
 398      00
 399              	.LEHB14:
 400 02ca E8000000 		call	_ZN8UnitTest11CurrentTest7ResultsEv@PLT
 400      00
  39:testSvf2Csvf.cpp **** }
 401              		.loc 3 39 2 is_stmt 0 discriminator 3
 402 02cf 488B18   		movq	(%rax), %rbx
 403 02d2 E8000000 		call	_ZN8UnitTest11CurrentTest7DetailsEv@PLT
 403      00
  39:testSvf2Csvf.cpp **** }
 404              		.loc 3 39 2 discriminator 11
 405 02d7 488B08   		movq	(%rax), %rcx
 406 02da 488D85C0 		leaq	-1088(%rbp), %rax
 406      FBFFFF
 407 02e1 BA270000 		movl	$39, %edx
 407      00
 408 02e6 4889CE   		movq	%rcx, %rsi
 409 02e9 4889C7   		movq	%rax, %rdi
 410 02ec E8000000 		call	_ZN8UnitTest11TestDetailsC1ERKS0_i@PLT
 410      00
  39:testSvf2Csvf.cpp **** }
 411              		.loc 3 39 2 discriminator 15
 412 02f1 488D85C0 		leaq	-1088(%rbp), %rax
 412      FBFFFF
 413 02f8 488D1500 		leaq	.LC4(%rip), %rdx
 413      000000
 414 02ff 4889C6   		movq	%rax, %rsi
 415 0302 4889DF   		movq	%rbx, %rdi
 416 0305 E8000000 		call	_ZN8UnitTest11TestResults13OnTestFailureERKNS_11TestDetailsEPKc@PLT
 416      00
 417              	.LEHE14:
 418              	.LEHB15:
  39:testSvf2Csvf.cpp **** }
 419              		.loc 3 39 2 discriminator 17
 420 030a E8000000 		call	__cxa_end_catch@PLT
 420      00
 421              	.LEHE15:
 422              		.loc 3 40 1 is_stmt 1 discriminator 17
 423 030f EB17     		jmp	.L9
 424              	.L27:
 425 0311 F30F1EFA 		endbr64
  39:testSvf2Csvf.cpp **** }
 426              		.loc 3 39 2
 427 0315 4889C3   		movq	%rax, %rbx
 428 0318 E8000000 		call	__cxa_end_catch@PLT
 428      00
 429 031d 4889D8   		movq	%rbx, %rax
 430 0320 4889C7   		movq	%rax, %rdi
 431              	.LEHB16:
 432 0323 E8000000 		call	_Unwind_Resume@PLT
 432      00
 433              	.LEHE16:
 434              	.L9:
 435              		.loc 3 40 1
 436 0328 488B45E8 		movq	-24(%rbp), %rax
 437 032c 64482B04 		subq	%fs:40, %rax
 437      25280000 
 437      00
 438 0335 7405     		je	.L21
 439 0337 E8000000 		call	__stack_chk_fail@PLT
 439      00
 440              	.L21:
 441 033c 488B5DF8 		movq	-8(%rbp), %rbx
 442 0340 C9       		leave
 443              		.cfi_def_cfa 7, 8
 444 0341 C3       		ret
 445              		.cfi_endproc
 446              	.LFE1145:
 447              		.section	.gcc_except_table,"a",@progbits
 448              		.align 4
 449              	.LLSDA1145:
 450 0000 FF       		.byte	0xff
 451 0001 9B       		.byte	0x9b
 452 0002 4D       		.uleb128 .LLSDATT1145-.LLSDATTD1145
 453              	.LLSDATTD1145:
 454 0003 01       		.byte	0x1
 455 0004 45       		.uleb128 .LLSDACSE1145-.LLSDACSB1145
 456              	.LLSDACSB1145:
 457 0005 4E       		.uleb128 .LEHB4-.LFB1145
 458 0006 23       		.uleb128 .LEHE4-.LEHB4
 459 0007 00       		.uleb128 0
 460 0008 00       		.uleb128 0
 461 0009 77       		.uleb128 .LEHB5-.LFB1145
 462 000a 4E       		.uleb128 .LEHE5-.LEHB5
 463 000b E403     		.uleb128 .L22-.LFB1145
 464 000d 01       		.uleb128 0x1
 465 000e C501     		.uleb128 .LEHB6-.LFB1145
 466 0010 4E       		.uleb128 .LEHE6-.LEHB6
 467 0011 D104     		.uleb128 .L24-.LFB1145
 468 0013 01       		.uleb128 0x1
 469 0014 9B03     		.uleb128 .LEHB7-.LFB1145
 470 0016 44       		.uleb128 .LEHE7-.LEHB7
 471 0017 BE05     		.uleb128 .L26-.LFB1145
 472 0019 01       		.uleb128 0x1
 473 001a F003     		.uleb128 .LEHB8-.LFB1145
 474 001c 40       		.uleb128 .LEHE8-.LEHB8
 475 001d BA04     		.uleb128 .L23-.LFB1145
 476 001f 00       		.uleb128 0
 477 0020 B004     		.uleb128 .LEHB9-.LFB1145
 478 0022 05       		.uleb128 .LEHE9-.LEHB9
 479 0023 00       		.uleb128 0
 480 0024 00       		.uleb128 0
 481 0025 CC04     		.uleb128 .LEHB10-.LFB1145
 482 0027 05       		.uleb128 .LEHE10-.LEHB10
 483 0028 00       		.uleb128 0
 484 0029 00       		.uleb128 0
 485 002a DD04     		.uleb128 .LEHB11-.LFB1145
 486 002c 40       		.uleb128 .LEHE11-.LEHB11
 487 002d A705     		.uleb128 .L25-.LFB1145
 488 002f 00       		.uleb128 0
 489 0030 9D05     		.uleb128 .LEHB12-.LFB1145
 490 0032 05       		.uleb128 .LEHE12-.LEHB12
 491 0033 00       		.uleb128 0
 492 0034 00       		.uleb128 0
 493 0035 B905     		.uleb128 .LEHB13-.LFB1145
 494 0037 05       		.uleb128 .LEHE13-.LEHB13
 495 0038 00       		.uleb128 0
 496 0039 00       		.uleb128 0
 497 003a CA05     		.uleb128 .LEHB14-.LFB1145
 498 003c 40       		.uleb128 .LEHE14-.LEHB14
 499 003d 9106     		.uleb128 .L27-.LFB1145
 500 003f 00       		.uleb128 0
 501 0040 8A06     		.uleb128 .LEHB15-.LFB1145
 502 0042 05       		.uleb128 .LEHE15-.LEHB15
 503 0043 00       		.uleb128 0
 504 0044 00       		.uleb128 0
 505 0045 A306     		.uleb128 .LEHB16-.LFB1145
 506 0047 05       		.uleb128 .LEHE16-.LEHB16
 507 0048 00       		.uleb128 0
 508 0049 00       		.uleb128 0
 509              	.LLSDACSE1145:
 510 004a 01       		.byte	0x1
 511 004b 00       		.byte	0
 512              		.align 4
 513 004c 00000000 		.long	0
 514              	
 515              	.LLSDATT1145:
 516              		.text
 518              		.section	.rodata
 519              	.LC5:
 520 00c5 74657374 		.string	"testSvf2Csvf.cpp"
 520      53766632 
 520      43737666 
 520      2E637070 
 520      00
 521              	.LC6:
 522 00d6 46504741 		.string	"FPGALink_testReadBytes"
 522      4C696E6B 
 522      5F746573 
 522      74526561 
 522      64427974 
 523              		.section	.text._ZN26TestFPGALink_testReadBytesC2Ev,"axG",@progbits,_ZN26TestFPGALink_testReadBytes
 524              		.align 2
 525              		.weak	_ZN26TestFPGALink_testReadBytesC2Ev
 527              	_ZN26TestFPGALink_testReadBytesC2Ev:
 528              	.LFB1147:
  41:testSvf2Csvf.cpp **** 
  42:testSvf2Csvf.cpp **** TEST(FPGALink_testReadBytes) {
 529              		.loc 3 42 1
 530              		.cfi_startproc
 531 0000 F30F1EFA 		endbr64
 532 0004 55       		pushq	%rbp
 533              		.cfi_def_cfa_offset 16
 534              		.cfi_offset 6, -16
 535 0005 4889E5   		movq	%rsp, %rbp
 536              		.cfi_def_cfa_register 6
 537 0008 53       		pushq	%rbx
 538 0009 4883EC18 		subq	$24, %rsp
 539              		.cfi_offset 3, -24
 540 000d 48897DE8 		movq	%rdi, -24(%rbp)
 541              	.LBB5:
 542              		.loc 3 42 1
 543 0011 488B5DE8 		movq	-24(%rbp), %rbx
 544 0015 E8000000 		call	_ZN13UnitTestSuite12GetSuiteNameEv
 544      00
 545 001a 4889C2   		movq	%rax, %rdx
 546 001d 41B82A00 		movl	$42, %r8d
 546      0000
 547 0023 488D0500 		leaq	.LC5(%rip), %rax
 547      000000
 548 002a 4889C1   		movq	%rax, %rcx
 549 002d 488D0500 		leaq	.LC6(%rip), %rax
 549      000000
 550 0034 4889C6   		movq	%rax, %rsi
 551 0037 4889DF   		movq	%rbx, %rdi
 552 003a E8000000 		call	_ZN8UnitTest4TestC2EPKcS2_S2_i@PLT
 552      00
 553 003f 488D1500 		leaq	16+_ZTV26TestFPGALink_testReadBytes(%rip), %rdx
 553      000000
 554 0046 488B45E8 		movq	-24(%rbp), %rax
 555 004a 488910   		movq	%rdx, (%rax)
 556              	.LBE5:
 557 004d 90       		nop
 558 004e 488B5DF8 		movq	-8(%rbp), %rbx
 559 0052 C9       		leave
 560              		.cfi_def_cfa 7, 8
 561 0053 C3       		ret
 562              		.cfi_endproc
 563              	.LFE1147:
 565              		.weak	_ZN26TestFPGALink_testReadBytesC1Ev
 566              		.set	_ZN26TestFPGALink_testReadBytesC1Ev,_ZN26TestFPGALink_testReadBytesC2Ev
 567              		.globl	testFPGALink_testReadBytesInstance
 568              		.bss
 569              		.align 32
 572              	testFPGALink_testReadBytesInstance:
 573 0000 00000000 		.zero	56
 573      00000000 
 573      00000000 
 573      00000000 
 573      00000000 
 574              		.globl	adderFPGALink_testReadBytes
 577              	adderFPGALink_testReadBytes:
 578 0038 00       		.zero	1
 579              		.section	.rodata
 580              	.LC7:
 581 00ed 464500   		.string	"FE"
 582              	.LC8:
 583 00f0 43414645 		.string	"CAFE"
 583      00
 584              	.LC9:
 585 00f5 46303044 		.string	"F00D1E"
 585      314500
 586              	.LC10:
 587 00fc 44454144 		.string	"DEADF00D"
 587      46303044 
 587      00
 588              	.LC11:
 589 0105 43414645 		.string	"CAFEF00D1E"
 589      46303044 
 589      314500
 590              	.LC12:
 591 0110 44454144 		.string	"DEADCAFEBABE"
 591      43414645 
 591      42414245 
 591      00
 592 011d 000000   		.align 8
 593              	.LC13:
 594 0120 556E6861 		.string	"Unhandled exception in CHECK_EQUAL(BUF_SUCCESS, bStatus)"
 594      6E646C65 
 594      64206578 
 594      63657074 
 594      696F6E20 
 595              		.text
 596              		.align 2
 597              		.globl	_ZNK26TestFPGALink_testReadBytes7RunImplEv
 599              	_ZNK26TestFPGALink_testReadBytes7RunImplEv:
 600              	.LFB1149:
 601              		.loc 3 42 30
 602              		.cfi_startproc
 603              		.cfi_personality 0x9b,DW.ref.__gxx_personality_v0
 604              		.cfi_lsda 0x1b,.LLSDA1149
 605 0342 F30F1EFA 		endbr64
 606 0346 55       		pushq	%rbp
 607              		.cfi_def_cfa_offset 16
 608              		.cfi_offset 6, -16
 609 0347 4889E5   		movq	%rsp, %rbp
 610              		.cfi_def_cfa_register 6
 611 034a 53       		pushq	%rbx
 612 034b 4883EC78 		subq	$120, %rsp
 613              		.cfi_offset 3, -24
 614 034f 48897D88 		movq	%rdi, -120(%rbp)
 615              		.loc 3 42 30
 616 0353 64488B04 		movq	%fs:40, %rax
 616      25280000 
 616      00
 617 035c 488945E8 		movq	%rax, -24(%rbp)
 618 0360 31C0     		xorl	%eax, %eax
  43:testSvf2Csvf.cpp **** 	struct Buffer lineBuf;
  44:testSvf2Csvf.cpp **** 	BufferStatus bStatus;
  45:testSvf2Csvf.cpp **** 	bStatus = bufInitialise(&lineBuf, 1024, 0x00, NULL);
 619              		.loc 3 45 25
 620 0362 488D45A0 		leaq	-96(%rbp), %rax
 621 0366 B9000000 		movl	$0, %ecx
 621      00
 622 036b BA000000 		movl	$0, %edx
 622      00
 623 0370 BE000400 		movl	$1024, %esi
 623      00
 624 0375 4889C7   		movq	%rax, %rdi
 625              	.LEHB17:
 626 0378 E8000000 		call	bufInitialise@PLT
 626      00
 627              	.LEHE17:
 628              		.loc 3 45 10
 629 037d 894598   		movl	%eax, -104(%rbp)
 630              	.LEHB18:
  46:testSvf2Csvf.cpp **** 	CHECK_EQUAL(BUF_SUCCESS, bStatus);
 631              		.loc 3 46 2
 632 0380 E8000000 		call	_ZN8UnitTest11CurrentTest7DetailsEv@PLT
 632      00
 633 0385 488B08   		movq	(%rax), %rcx
 634 0388 488D45C0 		leaq	-64(%rbp), %rax
 635 038c BA2E0000 		movl	$46, %edx
 635      00
 636 0391 4889CE   		movq	%rcx, %rsi
 637 0394 4889C7   		movq	%rax, %rdi
 638 0397 E8000000 		call	_ZN8UnitTest11TestDetailsC1ERKS0_i@PLT
 638      00
 639              		.loc 3 46 2 is_stmt 0 discriminator 4
 640 039c C7459C00 		movl	$0, -100(%rbp)
 640      000000
 641 03a3 E8000000 		call	_ZN8UnitTest11CurrentTest7ResultsEv@PLT
 641      00
 642 03a8 488B00   		movq	(%rax), %rax
 643 03ab 488D4DC0 		leaq	-64(%rbp), %rcx
 644 03af 488D5598 		leaq	-104(%rbp), %rdx
 645 03b3 488D759C 		leaq	-100(%rbp), %rsi
 646 03b7 4889C7   		movq	%rax, %rdi
 647 03ba E8000000 		call	_ZN8UnitTest10CheckEqualI12BufferStatusS1_EEvRNS_11TestResultsERKT_RKT0_RKNS_11TestDetailsE
 647      00
 648              	.LEHE18:
 649              	.L31:
  47:testSvf2Csvf.cpp **** 
  48:testSvf2Csvf.cpp **** 	testReadBytes(&lineBuf, "FE");
 650              		.loc 3 48 15 is_stmt 1
 651 03bf 488D45A0 		leaq	-96(%rbp), %rax
 652 03c3 488D1500 		leaq	.LC7(%rip), %rdx
 652      000000
 653 03ca 4889D6   		movq	%rdx, %rsi
 654 03cd 4889C7   		movq	%rax, %rdi
 655              	.LEHB19:
 656 03d0 E8000000 		call	_Z13testReadBytesP6BufferPKc
 656      00
  49:testSvf2Csvf.cpp **** 	testReadBytes(&lineBuf, "CAFE");
 657              		.loc 3 49 15
 658 03d5 488D45A0 		leaq	-96(%rbp), %rax
 659 03d9 488D1500 		leaq	.LC8(%rip), %rdx
 659      000000
 660 03e0 4889D6   		movq	%rdx, %rsi
 661 03e3 4889C7   		movq	%rax, %rdi
 662 03e6 E8000000 		call	_Z13testReadBytesP6BufferPKc
 662      00
  50:testSvf2Csvf.cpp **** 	testReadBytes(&lineBuf, "F00D1E");
 663              		.loc 3 50 15
 664 03eb 488D45A0 		leaq	-96(%rbp), %rax
 665 03ef 488D1500 		leaq	.LC9(%rip), %rdx
 665      000000
 666 03f6 4889D6   		movq	%rdx, %rsi
 667 03f9 4889C7   		movq	%rax, %rdi
 668 03fc E8000000 		call	_Z13testReadBytesP6BufferPKc
 668      00
  51:testSvf2Csvf.cpp **** 	testReadBytes(&lineBuf, "DEADF00D");
 669              		.loc 3 51 15
 670 0401 488D45A0 		leaq	-96(%rbp), %rax
 671 0405 488D1500 		leaq	.LC10(%rip), %rdx
 671      000000
 672 040c 4889D6   		movq	%rdx, %rsi
 673 040f 4889C7   		movq	%rax, %rdi
 674 0412 E8000000 		call	_Z13testReadBytesP6BufferPKc
 674      00
  52:testSvf2Csvf.cpp **** 	testReadBytes(&lineBuf, "CAFEF00D1E");
 675              		.loc 3 52 15
 676 0417 488D45A0 		leaq	-96(%rbp), %rax
 677 041b 488D1500 		leaq	.LC11(%rip), %rdx
 677      000000
 678 0422 4889D6   		movq	%rdx, %rsi
 679 0425 4889C7   		movq	%rax, %rdi
 680 0428 E8000000 		call	_Z13testReadBytesP6BufferPKc
 680      00
  53:testSvf2Csvf.cpp **** 	testReadBytes(&lineBuf, "DEADCAFEBABE");
 681              		.loc 3 53 15
 682 042d 488D45A0 		leaq	-96(%rbp), %rax
 683 0431 488D1500 		leaq	.LC12(%rip), %rdx
 683      000000
 684 0438 4889D6   		movq	%rdx, %rsi
 685 043b 4889C7   		movq	%rax, %rdi
 686 043e E8000000 		call	_Z13testReadBytesP6BufferPKc
 686      00
  54:testSvf2Csvf.cpp **** 
  55:testSvf2Csvf.cpp **** 	bufDestroy(&lineBuf);
 687              		.loc 3 55 12
 688 0443 488D45A0 		leaq	-96(%rbp), %rax
 689 0447 4889C7   		movq	%rax, %rdi
 690 044a E8000000 		call	bufDestroy@PLT
 690      00
 691              	.LEHE19:
  56:testSvf2Csvf.cpp **** }
 692              		.loc 3 56 1
 693 044f 90       		nop
 694 0450 488B45E8 		movq	-24(%rbp), %rax
 695 0454 64482B04 		subq	%fs:40, %rax
 695      25280000 
 695      00
 696 045d 746E     		je	.L33
 697 045f EB67     		jmp	.L36
 698              	.L34:
 699 0461 F30F1EFA 		endbr64
  46:testSvf2Csvf.cpp **** 
 700              		.loc 3 46 2
 701 0465 4889C7   		movq	%rax, %rdi
 702 0468 E8000000 		call	__cxa_begin_catch@PLT
 702      00
 703              	.LEHB20:
 704 046d E8000000 		call	_ZN8UnitTest11CurrentTest7ResultsEv@PLT
 704      00
  46:testSvf2Csvf.cpp **** 
 705              		.loc 3 46 2 is_stmt 0 discriminator 3
 706 0472 488B18   		movq	(%rax), %rbx
 707 0475 E8000000 		call	_ZN8UnitTest11CurrentTest7DetailsEv@PLT
 707      00
  46:testSvf2Csvf.cpp **** 
 708              		.loc 3 46 2 discriminator 11
 709 047a 488B08   		movq	(%rax), %rcx
 710 047d 488D45C0 		leaq	-64(%rbp), %rax
 711 0481 BA2E0000 		movl	$46, %edx
 711      00
 712 0486 4889CE   		movq	%rcx, %rsi
 713 0489 4889C7   		movq	%rax, %rdi
 714 048c E8000000 		call	_ZN8UnitTest11TestDetailsC1ERKS0_i@PLT
 714      00
  46:testSvf2Csvf.cpp **** 
 715              		.loc 3 46 2 discriminator 15
 716 0491 488D45C0 		leaq	-64(%rbp), %rax
 717 0495 488D1500 		leaq	.LC13(%rip), %rdx
 717      000000
 718 049c 4889C6   		movq	%rax, %rsi
 719 049f 4889DF   		movq	%rbx, %rdi
 720 04a2 E8000000 		call	_ZN8UnitTest11TestResults13OnTestFailureERKNS_11TestDetailsEPKc@PLT
 720      00
 721              	.LEHE20:
 722              	.LEHB21:
  46:testSvf2Csvf.cpp **** 
 723              		.loc 3 46 2 discriminator 17
 724 04a7 E8000000 		call	__cxa_end_catch@PLT
 724      00
 725              	.LEHE21:
 726 04ac E90EFFFF 		jmp	.L31
 726      FF
 727              	.L35:
 728 04b1 F30F1EFA 		endbr64
  46:testSvf2Csvf.cpp **** 
 729              		.loc 3 46 2
 730 04b5 4889C3   		movq	%rax, %rbx
 731 04b8 E8000000 		call	__cxa_end_catch@PLT
 731      00
 732 04bd 4889D8   		movq	%rbx, %rax
 733 04c0 4889C7   		movq	%rax, %rdi
 734              	.LEHB22:
 735 04c3 E8000000 		call	_Unwind_Resume@PLT
 735      00
 736              	.LEHE22:
 737              	.L36:
 738              		.loc 3 56 1 is_stmt 1
 739 04c8 E8000000 		call	__stack_chk_fail@PLT
 739      00
 740              	.L33:
 741 04cd 488B5DF8 		movq	-8(%rbp), %rbx
 742 04d1 C9       		leave
 743              		.cfi_def_cfa 7, 8
 744 04d2 C3       		ret
 745              		.cfi_endproc
 746              	.LFE1149:
 747              		.section	.gcc_except_table
 748              		.align 4
 749              	.LLSDA1149:
 750 0050 FF       		.byte	0xff
 751 0051 9B       		.byte	0x9b
 752 0052 29       		.uleb128 .LLSDATT1149-.LLSDATTD1149
 753              	.LLSDATTD1149:
 754 0053 01       		.byte	0x1
 755 0054 1E       		.uleb128 .LLSDACSE1149-.LLSDACSB1149
 756              	.LLSDACSB1149:
 757 0055 36       		.uleb128 .LEHB17-.LFB1149
 758 0056 05       		.uleb128 .LEHE17-.LEHB17
 759 0057 00       		.uleb128 0
 760 0058 00       		.uleb128 0
 761 0059 3E       		.uleb128 .LEHB18-.LFB1149
 762 005a 3F       		.uleb128 .LEHE18-.LEHB18
 763 005b 9F02     		.uleb128 .L34-.LFB1149
 764 005d 01       		.uleb128 0x1
 765 005e 8E01     		.uleb128 .LEHB19-.LFB1149
 766 0060 7F       		.uleb128 .LEHE19-.LEHB19
 767 0061 00       		.uleb128 0
 768 0062 00       		.uleb128 0
 769 0063 AB02     		.uleb128 .LEHB20-.LFB1149
 770 0065 3A       		.uleb128 .LEHE20-.LEHB20
 771 0066 EF02     		.uleb128 .L35-.LFB1149
 772 0068 00       		.uleb128 0
 773 0069 E502     		.uleb128 .LEHB21-.LFB1149
 774 006b 05       		.uleb128 .LEHE21-.LEHB21
 775 006c 00       		.uleb128 0
 776 006d 00       		.uleb128 0
 777 006e 8103     		.uleb128 .LEHB22-.LFB1149
 778 0070 05       		.uleb128 .LEHE22-.LEHB22
 779 0071 00       		.uleb128 0
 780 0072 00       		.uleb128 0
 781              	.LLSDACSE1149:
 782 0073 01       		.byte	0x1
 783 0074 00       		.byte	0
 784 0075 000000   		.align 4
 785 0078 00000000 		.long	0
 786              	
 787              	.LLSDATT1149:
 788              		.text
 790              		.section	.rodata
 791 0159 00000000 		.align 8
 791      000000
 792              	.LC14:
 793 0160 556E6861 		.string	"Unhandled exception in CHECK_EQUAL(strlen(expectedHex)/2, lineBuf.length)"
 793      6E646C65 
 793      64206578 
 793      63657074 
 793      696F6E20 
 794 01aa 00000000 		.align 8
 794      0000
 795              	.LC15:
 796 01b0 556E6861 		.string	"Unhandled exception in CHECK_EQUAL(expectedHex, resultHex)"
 796      6E646C65 
 796      64206578 
 796      63657074 
 796      696F6E20 
 797              		.text
 798              		.globl	_Z9testShiftPKcjS0_jS0_jS0_
 800              	_Z9testShiftPKcjS0_jS0_jS0_:
 801              	.LFB1150:
  57:testSvf2Csvf.cpp **** 
  58:testSvf2Csvf.cpp **** void testShift(const char *line, uint32 lineBits, const char *head, uint32 headBits, const char *ta
 802              		.loc 3 58 146
 803              		.cfi_startproc
 804              		.cfi_personality 0x9b,DW.ref.__gxx_personality_v0
 805              		.cfi_lsda 0x1b,.LLSDA1150
 806 04d3 F30F1EFA 		endbr64
 807 04d7 55       		pushq	%rbp
 808              		.cfi_def_cfa_offset 16
 809              		.cfi_offset 6, -16
 810 04d8 4889E5   		movq	%rsp, %rbp
 811              		.cfi_def_cfa_register 6
 812 04db 53       		pushq	%rbx
 813 04dc 4881ECE8 		subq	$1256, %rsp
 813      040000
 814              		.cfi_offset 3, -24
 815 04e3 4889BD38 		movq	%rdi, -1224(%rbp)
 815      FBFFFF
 816 04ea 89B534FB 		movl	%esi, -1228(%rbp)
 816      FFFF
 817 04f0 48899528 		movq	%rdx, -1240(%rbp)
 817      FBFFFF
 818 04f7 898D30FB 		movl	%ecx, -1232(%rbp)
 818      FFFF
 819 04fd 4C898520 		movq	%r8, -1248(%rbp)
 819      FBFFFF
 820 0504 44898D1C 		movl	%r9d, -1252(%rbp)
 820      FBFFFF
 821 050b 488B4510 		movq	16(%rbp), %rax
 822 050f 48898510 		movq	%rax, -1264(%rbp)
 822      FBFFFF
 823              		.loc 3 58 146
 824 0516 64488B04 		movq	%fs:40, %rax
 824      25280000 
 824      00
 825 051f 488945E8 		movq	%rax, -24(%rbp)
 826 0523 31C0     		xorl	%eax, %eax
  59:testSvf2Csvf.cpp **** 	struct Buffer lineBuf;
  60:testSvf2Csvf.cpp **** 	struct Buffer headBuf;
  61:testSvf2Csvf.cpp **** 	struct Buffer tailBuf;
  62:testSvf2Csvf.cpp **** 	BufferStatus bStatus;
  63:testSvf2Csvf.cpp **** 	FLStatus fStatus;
  64:testSvf2Csvf.cpp **** 	char resultHex[1024];
  65:testSvf2Csvf.cpp **** 	bStatus = bufInitialise(&lineBuf, 1024, 0x00, NULL);
 827              		.loc 3 65 25
 828 0525 488D8560 		leaq	-1184(%rbp), %rax
 828      FBFFFF
 829 052c B9000000 		movl	$0, %ecx
 829      00
 830 0531 BA000000 		movl	$0, %edx
 830      00
 831 0536 BE000400 		movl	$1024, %esi
 831      00
 832 053b 4889C7   		movq	%rax, %rdi
 833              	.LEHB23:
 834 053e E8000000 		call	bufInitialise@PLT
 834      00
 835              	.LEHE23:
 836              		.loc 3 65 10
 837 0543 89854CFB 		movl	%eax, -1204(%rbp)
 837      FFFF
 838              	.LEHB24:
  66:testSvf2Csvf.cpp **** 	CHECK_EQUAL(BUF_SUCCESS, bStatus);
 839              		.loc 3 66 2
 840 0549 E8000000 		call	_ZN8UnitTest11CurrentTest7DetailsEv@PLT
 840      00
 841 054e 488B08   		movq	(%rax), %rcx
 842 0551 488D85C0 		leaq	-1088(%rbp), %rax
 842      FBFFFF
 843 0558 BA420000 		movl	$66, %edx
 843      00
 844 055d 4889CE   		movq	%rcx, %rsi
 845 0560 4889C7   		movq	%rax, %rdi
 846 0563 E8000000 		call	_ZN8UnitTest11TestDetailsC1ERKS0_i@PLT
 846      00
 847              		.loc 3 66 2 is_stmt 0 discriminator 4
 848 0568 C785A0FB 		movl	$0, -1120(%rbp)
 848      FFFF0000 
 848      0000
 849 0572 E8000000 		call	_ZN8UnitTest11CurrentTest7ResultsEv@PLT
 849      00
 850 0577 488B00   		movq	(%rax), %rax
 851 057a 488D8DC0 		leaq	-1088(%rbp), %rcx
 851      FBFFFF
 852 0581 488D954C 		leaq	-1204(%rbp), %rdx
 852      FBFFFF
 853 0588 488DB5A0 		leaq	-1120(%rbp), %rsi
 853      FBFFFF
 854 058f 4889C7   		movq	%rax, %rdi
 855 0592 E8000000 		call	_ZN8UnitTest10CheckEqualI12BufferStatusS1_EEvRNS_11TestResultsERKT_RKT0_RKNS_11TestDetailsE
 855      00
 856              	.LEHE24:
 857              	.L41:
  67:testSvf2Csvf.cpp **** 	bStatus = bufInitialise(&headBuf, 1024, 0x00, NULL);
 858              		.loc 3 67 25 is_stmt 1
 859 0597 488D8580 		leaq	-1152(%rbp), %rax
 859      FBFFFF
 860 059e B9000000 		movl	$0, %ecx
 860      00
 861 05a3 BA000000 		movl	$0, %edx
 861      00
 862 05a8 BE000400 		movl	$1024, %esi
 862      00
 863 05ad 4889C7   		movq	%rax, %rdi
 864              	.LEHB25:
 865 05b0 E8000000 		call	bufInitialise@PLT
 865      00
 866              	.LEHE25:
 867              		.loc 3 67 10
 868 05b5 89854CFB 		movl	%eax, -1204(%rbp)
 868      FFFF
 869              	.LEHB26:
  68:testSvf2Csvf.cpp **** 	CHECK_EQUAL(BUF_SUCCESS, bStatus);
 870              		.loc 3 68 2
 871 05bb E8000000 		call	_ZN8UnitTest11CurrentTest7DetailsEv@PLT
 871      00
 872 05c0 488B08   		movq	(%rax), %rcx
 873 05c3 488D85C0 		leaq	-1088(%rbp), %rax
 873      FBFFFF
 874 05ca BA440000 		movl	$68, %edx
 874      00
 875 05cf 4889CE   		movq	%rcx, %rsi
 876 05d2 4889C7   		movq	%rax, %rdi
 877 05d5 E8000000 		call	_ZN8UnitTest11TestDetailsC1ERKS0_i@PLT
 877      00
 878              		.loc 3 68 2 is_stmt 0 discriminator 4
 879 05da C785A0FB 		movl	$0, -1120(%rbp)
 879      FFFF0000 
 879      0000
 880 05e4 E8000000 		call	_ZN8UnitTest11CurrentTest7ResultsEv@PLT
 880      00
 881 05e9 488B00   		movq	(%rax), %rax
 882 05ec 488D8DC0 		leaq	-1088(%rbp), %rcx
 882      FBFFFF
 883 05f3 488D954C 		leaq	-1204(%rbp), %rdx
 883      FBFFFF
 884 05fa 488DB5A0 		leaq	-1120(%rbp), %rsi
 884      FBFFFF
 885 0601 4889C7   		movq	%rax, %rdi
 886 0604 E8000000 		call	_ZN8UnitTest10CheckEqualI12BufferStatusS1_EEvRNS_11TestResultsERKT_RKT0_RKNS_11TestDetailsE
 886      00
 887              	.LEHE26:
 888              	.L44:
  69:testSvf2Csvf.cpp **** 	bStatus = bufInitialise(&tailBuf, 1024, 0x00, NULL);
 889              		.loc 3 69 25 is_stmt 1
 890 0609 488D85A0 		leaq	-1120(%rbp), %rax
 890      FBFFFF
 891 0610 B9000000 		movl	$0, %ecx
 891      00
 892 0615 BA000000 		movl	$0, %edx
 892      00
 893 061a BE000400 		movl	$1024, %esi
 893      00
 894 061f 4889C7   		movq	%rax, %rdi
 895              	.LEHB27:
 896 0622 E8000000 		call	bufInitialise@PLT
 896      00
 897              	.LEHE27:
 898              		.loc 3 69 10
 899 0627 89854CFB 		movl	%eax, -1204(%rbp)
 899      FFFF
 900              	.LEHB28:
  70:testSvf2Csvf.cpp **** 	CHECK_EQUAL(BUF_SUCCESS, bStatus);
 901              		.loc 3 70 2
 902 062d E8000000 		call	_ZN8UnitTest11CurrentTest7DetailsEv@PLT
 902      00
 903 0632 488B08   		movq	(%rax), %rcx
 904 0635 488D85C0 		leaq	-1088(%rbp), %rax
 904      FBFFFF
 905 063c BA460000 		movl	$70, %edx
 905      00
 906 0641 4889CE   		movq	%rcx, %rsi
 907 0644 4889C7   		movq	%rax, %rdi
 908 0647 E8000000 		call	_ZN8UnitTest11TestDetailsC1ERKS0_i@PLT
 908      00
 909              		.loc 3 70 2 is_stmt 0 discriminator 4
 910 064c C78558FB 		movl	$0, -1192(%rbp)
 910      FFFF0000 
 910      0000
 911 0656 E8000000 		call	_ZN8UnitTest11CurrentTest7ResultsEv@PLT
 911      00
 912 065b 488B00   		movq	(%rax), %rax
 913 065e 488D8DC0 		leaq	-1088(%rbp), %rcx
 913      FBFFFF
 914 0665 488D954C 		leaq	-1204(%rbp), %rdx
 914      FBFFFF
 915 066c 488DB558 		leaq	-1192(%rbp), %rsi
 915      FBFFFF
 916 0673 4889C7   		movq	%rax, %rdi
 917 0676 E8000000 		call	_ZN8UnitTest10CheckEqualI12BufferStatusS1_EEvRNS_11TestResultsERKT_RKT0_RKNS_11TestDetailsE
 917      00
 918              	.LEHE28:
 919              	.L47:
  71:testSvf2Csvf.cpp **** 	fStatus = readBytes(&lineBuf, line, NULL);
 920              		.loc 3 71 21 is_stmt 1
 921 067b 488B8D38 		movq	-1224(%rbp), %rcx
 921      FBFFFF
 922 0682 488D8560 		leaq	-1184(%rbp), %rax
 922      FBFFFF
 923 0689 BA000000 		movl	$0, %edx
 923      00
 924 068e 4889CE   		movq	%rcx, %rsi
 925 0691 4889C7   		movq	%rax, %rdi
 926              	.LEHB29:
 927 0694 E8000000 		call	readBytes@PLT
 927      00
 928              	.LEHE29:
 929              		.loc 3 71 10
 930 0699 898550FB 		movl	%eax, -1200(%rbp)
 930      FFFF
 931              	.LEHB30:
  72:testSvf2Csvf.cpp **** 	CHECK_EQUAL(FL_SUCCESS, fStatus);
 932              		.loc 3 72 2
 933 069f E8000000 		call	_ZN8UnitTest11CurrentTest7DetailsEv@PLT
 933      00
 934 06a4 488B08   		movq	(%rax), %rcx
 935 06a7 488D85C0 		leaq	-1088(%rbp), %rax
 935      FBFFFF
 936 06ae BA480000 		movl	$72, %edx
 936      00
 937 06b3 4889CE   		movq	%rcx, %rsi
 938 06b6 4889C7   		movq	%rax, %rdi
 939 06b9 E8000000 		call	_ZN8UnitTest11TestDetailsC1ERKS0_i@PLT
 939      00
 940              		.loc 3 72 2 is_stmt 0 discriminator 4
 941 06be C78558FB 		movl	$0, -1192(%rbp)
 941      FFFF0000 
 941      0000
 942 06c8 E8000000 		call	_ZN8UnitTest11CurrentTest7ResultsEv@PLT
 942      00
 943 06cd 488B00   		movq	(%rax), %rax
 944 06d0 488D8DC0 		leaq	-1088(%rbp), %rcx
 944      FBFFFF
 945 06d7 488D9550 		leaq	-1200(%rbp), %rdx
 945      FBFFFF
 946 06de 488DB558 		leaq	-1192(%rbp), %rsi
 946      FBFFFF
 947 06e5 4889C7   		movq	%rax, %rdi
 948 06e8 E8000000 		call	_ZN8UnitTest10CheckEqualI8FLStatusS1_EEvRNS_11TestResultsERKT_RKT0_RKNS_11TestDetailsE
 948      00
 949              	.LEHE30:
 950              	.L50:
  73:testSvf2Csvf.cpp **** 	fStatus = readBytes(&headBuf, head, NULL);
 951              		.loc 3 73 21 is_stmt 1
 952 06ed 488B8D28 		movq	-1240(%rbp), %rcx
 952      FBFFFF
 953 06f4 488D8580 		leaq	-1152(%rbp), %rax
 953      FBFFFF
 954 06fb BA000000 		movl	$0, %edx
 954      00
 955 0700 4889CE   		movq	%rcx, %rsi
 956 0703 4889C7   		movq	%rax, %rdi
 957              	.LEHB31:
 958 0706 E8000000 		call	readBytes@PLT
 958      00
 959              	.LEHE31:
 960              		.loc 3 73 10
 961 070b 898550FB 		movl	%eax, -1200(%rbp)
 961      FFFF
 962              	.LEHB32:
  74:testSvf2Csvf.cpp **** 	CHECK_EQUAL(FL_SUCCESS, fStatus);
 963              		.loc 3 74 2
 964 0711 E8000000 		call	_ZN8UnitTest11CurrentTest7DetailsEv@PLT
 964      00
 965 0716 488B08   		movq	(%rax), %rcx
 966 0719 488D85C0 		leaq	-1088(%rbp), %rax
 966      FBFFFF
 967 0720 BA4A0000 		movl	$74, %edx
 967      00
 968 0725 4889CE   		movq	%rcx, %rsi
 969 0728 4889C7   		movq	%rax, %rdi
 970 072b E8000000 		call	_ZN8UnitTest11TestDetailsC1ERKS0_i@PLT
 970      00
 971              		.loc 3 74 2 is_stmt 0 discriminator 4
 972 0730 C78558FB 		movl	$0, -1192(%rbp)
 972      FFFF0000 
 972      0000
 973 073a E8000000 		call	_ZN8UnitTest11CurrentTest7ResultsEv@PLT
 973      00
 974 073f 488B00   		movq	(%rax), %rax
 975 0742 488D8DC0 		leaq	-1088(%rbp), %rcx
 975      FBFFFF
 976 0749 488D9550 		leaq	-1200(%rbp), %rdx
 976      FBFFFF
 977 0750 488DB558 		leaq	-1192(%rbp), %rsi
 977      FBFFFF
 978 0757 4889C7   		movq	%rax, %rdi
 979 075a E8000000 		call	_ZN8UnitTest10CheckEqualI8FLStatusS1_EEvRNS_11TestResultsERKT_RKT0_RKNS_11TestDetailsE
 979      00
 980              	.LEHE32:
 981              	.L53:
  75:testSvf2Csvf.cpp **** 	fStatus = readBytes(&tailBuf, tail, NULL);
 982              		.loc 3 75 21 is_stmt 1
 983 075f 488B8D20 		movq	-1248(%rbp), %rcx
 983      FBFFFF
 984 0766 488D85A0 		leaq	-1120(%rbp), %rax
 984      FBFFFF
 985 076d BA000000 		movl	$0, %edx
 985      00
 986 0772 4889CE   		movq	%rcx, %rsi
 987 0775 4889C7   		movq	%rax, %rdi
 988              	.LEHB33:
 989 0778 E8000000 		call	readBytes@PLT
 989      00
 990              	.LEHE33:
 991              		.loc 3 75 10
 992 077d 898550FB 		movl	%eax, -1200(%rbp)
 992      FFFF
 993              	.LEHB34:
  76:testSvf2Csvf.cpp **** 	CHECK_EQUAL(FL_SUCCESS, fStatus);
 994              		.loc 3 76 2
 995 0783 E8000000 		call	_ZN8UnitTest11CurrentTest7DetailsEv@PLT
 995      00
 996 0788 488B08   		movq	(%rax), %rcx
 997 078b 488D85C0 		leaq	-1088(%rbp), %rax
 997      FBFFFF
 998 0792 BA4C0000 		movl	$76, %edx
 998      00
 999 0797 4889CE   		movq	%rcx, %rsi
 1000 079a 4889C7   		movq	%rax, %rdi
 1001 079d E8000000 		call	_ZN8UnitTest11TestDetailsC1ERKS0_i@PLT
 1001      00
 1002              		.loc 3 76 2 is_stmt 0 discriminator 4
 1003 07a2 C78558FB 		movl	$0, -1192(%rbp)
 1003      FFFF0000 
 1003      0000
 1004 07ac E8000000 		call	_ZN8UnitTest11CurrentTest7ResultsEv@PLT
 1004      00
 1005 07b1 488B00   		movq	(%rax), %rax
 1006 07b4 488D8DC0 		leaq	-1088(%rbp), %rcx
 1006      FBFFFF
 1007 07bb 488D9550 		leaq	-1200(%rbp), %rdx
 1007      FBFFFF
 1008 07c2 488DB558 		leaq	-1192(%rbp), %rsi
 1008      FBFFFF
 1009 07c9 4889C7   		movq	%rax, %rdi
 1010 07cc E8000000 		call	_ZN8UnitTest10CheckEqualI8FLStatusS1_EEvRNS_11TestResultsERKT_RKT0_RKNS_11TestDetailsE
 1010      00
 1011              	.LEHE34:
 1012              	.L56:
  77:testSvf2Csvf.cpp **** 	fStatus = headTail(&lineBuf, &headBuf, &tailBuf, lineBits, headBits, tailBits, NULL);
 1013              		.loc 3 77 20 is_stmt 1
 1014 07d1 448B851C 		movl	-1252(%rbp), %r8d
 1014      FBFFFF
 1015 07d8 8BBD30FB 		movl	-1232(%rbp), %edi
 1015      FFFF
 1016 07de 8B8D34FB 		movl	-1228(%rbp), %ecx
 1016      FFFF
 1017 07e4 488D95A0 		leaq	-1120(%rbp), %rdx
 1017      FBFFFF
 1018 07eb 488DB580 		leaq	-1152(%rbp), %rsi
 1018      FBFFFF
 1019 07f2 488D8560 		leaq	-1184(%rbp), %rax
 1019      FBFFFF
 1020 07f9 4883EC08 		subq	$8, %rsp
 1021 07fd 6A00     		pushq	$0
 1022 07ff 4589C1   		movl	%r8d, %r9d
 1023 0802 4189F8   		movl	%edi, %r8d
 1024 0805 4889C7   		movq	%rax, %rdi
 1025              	.LEHB35:
 1026 0808 E8000000 		call	headTail@PLT
 1026      00
 1027              	.LEHE35:
 1028 080d 4883C410 		addq	$16, %rsp
 1029              		.loc 3 77 10
 1030 0811 898550FB 		movl	%eax, -1200(%rbp)
 1030      FFFF
 1031              	.LEHB36:
  78:testSvf2Csvf.cpp **** 	CHECK_EQUAL(FL_SUCCESS, fStatus);
 1032              		.loc 3 78 2
 1033 0817 E8000000 		call	_ZN8UnitTest11CurrentTest7DetailsEv@PLT
 1033      00
 1034 081c 488B08   		movq	(%rax), %rcx
 1035 081f 488D85C0 		leaq	-1088(%rbp), %rax
 1035      FBFFFF
 1036 0826 BA4E0000 		movl	$78, %edx
 1036      00
 1037 082b 4889CE   		movq	%rcx, %rsi
 1038 082e 4889C7   		movq	%rax, %rdi
 1039 0831 E8000000 		call	_ZN8UnitTest11TestDetailsC1ERKS0_i@PLT
 1039      00
 1040              		.loc 3 78 2 is_stmt 0 discriminator 4
 1041 0836 C78558FB 		movl	$0, -1192(%rbp)
 1041      FFFF0000 
 1041      0000
 1042 0840 E8000000 		call	_ZN8UnitTest11CurrentTest7ResultsEv@PLT
 1042      00
 1043 0845 488B00   		movq	(%rax), %rax
 1044 0848 488D8DC0 		leaq	-1088(%rbp), %rcx
 1044      FBFFFF
 1045 084f 488D9550 		leaq	-1200(%rbp), %rdx
 1045      FBFFFF
 1046 0856 488DB558 		leaq	-1192(%rbp), %rsi
 1046      FBFFFF
 1047 085d 4889C7   		movq	%rax, %rdi
 1048 0860 E8000000 		call	_ZN8UnitTest10CheckEqualI8FLStatusS1_EEvRNS_11TestResultsERKT_RKT0_RKNS_11TestDetailsE
 1048      00
 1049              	.LEHE36:
 1050              	.L59:
 1051              	.LEHB37:
  79:testSvf2Csvf.cpp **** 	CHECK_EQUAL(strlen(expectedHex)/2, lineBuf.length);
 1052              		.loc 3 79 2 is_stmt 1
 1053 0865 E8000000 		call	_ZN8UnitTest11CurrentTest7DetailsEv@PLT
 1053      00
 1054 086a 488B08   		movq	(%rax), %rcx
 1055 086d 488D85C0 		leaq	-1088(%rbp), %rax
 1055      FBFFFF
 1056 0874 BA4F0000 		movl	$79, %edx
 1056      00
 1057 0879 4889CE   		movq	%rcx, %rsi
 1058 087c 4889C7   		movq	%rax, %rdi
 1059 087f E8000000 		call	_ZN8UnitTest11TestDetailsC1ERKS0_i@PLT
 1059      00
 1060              		.loc 3 79 2 is_stmt 0 discriminator 4
 1061 0884 488B8510 		movq	-1264(%rbp), %rax
 1061      FBFFFF
 1062 088b 4889C7   		movq	%rax, %rdi
 1063 088e E8000000 		call	strlen@PLT
 1063      00
 1064 0893 48D1E8   		shrq	%rax
 1065 0896 48898558 		movq	%rax, -1192(%rbp)
 1065      FBFFFF
 1066 089d E8000000 		call	_ZN8UnitTest11CurrentTest7ResultsEv@PLT
 1066      00
 1067 08a2 488B00   		movq	(%rax), %rax
 1068 08a5 488D95C0 		leaq	-1088(%rbp), %rdx
 1068      FBFFFF
 1069 08ac 488D8D60 		leaq	-1184(%rbp), %rcx
 1069      FBFFFF
 1070 08b3 488D7908 		leaq	8(%rcx), %rdi
 1071 08b7 488DB558 		leaq	-1192(%rbp), %rsi
 1071      FBFFFF
 1072 08be 4889D1   		movq	%rdx, %rcx
 1073 08c1 4889FA   		movq	%rdi, %rdx
 1074 08c4 4889C7   		movq	%rax, %rdi
 1075 08c7 E8000000 		call	_ZN8UnitTest10CheckEqualImmEEvRNS_11TestResultsERKT_RKT0_RKNS_11TestDetailsE
 1075      00
 1076              	.LEHE37:
 1077              	.L62:
 1078              	.LBB6:
  80:testSvf2Csvf.cpp **** 	for ( uint32 i = 0; i < 2*lineBuf.length; i++ ) {
 1079              		.loc 3 80 15 is_stmt 1
 1080 08cc C78554FB 		movl	$0, -1196(%rbp)
 1080      FFFF0000 
 1080      0000
 1081              		.loc 3 80 2
 1082 08d6 EB4A     		jmp	.L38
 1083              	.L39:
  81:testSvf2Csvf.cpp ****         sprintf(resultHex + 2*i, "%02X", lineBuf.data[i]);
 1084              		.loc 3 81 50 discriminator 3
 1085 08d8 488B9560 		movq	-1184(%rbp), %rdx
 1085      FBFFFF
 1086              		.loc 3 81 55 discriminator 3
 1087 08df 8B8554FB 		movl	-1196(%rbp), %eax
 1087      FFFF
 1088              		.loc 3 81 56 discriminator 3
 1089 08e5 4801D0   		addq	%rdx, %rax
 1090 08e8 0FB600   		movzbl	(%rax), %eax
 1091              		.loc 3 81 16 discriminator 3
 1092 08eb 0FB6C0   		movzbl	%al, %eax
 1093              		.loc 3 81 30 discriminator 3
 1094 08ee 8B9554FB 		movl	-1196(%rbp), %edx
 1094      FFFF
 1095 08f4 01D2     		addl	%edx, %edx
 1096 08f6 89D1     		movl	%edx, %ecx
 1097              		.loc 3 81 16 discriminator 3
 1098 08f8 488D95E0 		leaq	-1056(%rbp), %rdx
 1098      FBFFFF
 1099 08ff 4801D1   		addq	%rdx, %rcx
 1100 0902 89C2     		movl	%eax, %edx
 1101 0904 488D0500 		leaq	.LC1(%rip), %rax
 1101      000000
 1102 090b 4889C6   		movq	%rax, %rsi
 1103 090e 4889CF   		movq	%rcx, %rdi
 1104 0911 B8000000 		movl	$0, %eax
 1104      00
 1105 0916 E8000000 		call	sprintf@PLT
 1105      00
  80:testSvf2Csvf.cpp **** 	for ( uint32 i = 0; i < 2*lineBuf.length; i++ ) {
 1106              		.loc 3 80 2 discriminator 3
 1107 091b 838554FB 		addl	$1, -1196(%rbp)
 1107      FFFF01
 1108              	.L38:
  80:testSvf2Csvf.cpp **** 	for ( uint32 i = 0; i < 2*lineBuf.length; i++ ) {
 1109              		.loc 3 80 22 discriminator 1
 1110 0922 8B8554FB 		movl	-1196(%rbp), %eax
 1110      FFFF
  80:testSvf2Csvf.cpp **** 	for ( uint32 i = 0; i < 2*lineBuf.length; i++ ) {
 1111              		.loc 3 80 36 discriminator 1
 1112 0928 488B9568 		movq	-1176(%rbp), %rdx
 1112      FBFFFF
  80:testSvf2Csvf.cpp **** 	for ( uint32 i = 0; i < 2*lineBuf.length; i++ ) {
 1113              		.loc 3 80 27 discriminator 1
 1114 092f 4801D2   		addq	%rdx, %rdx
  80:testSvf2Csvf.cpp **** 	for ( uint32 i = 0; i < 2*lineBuf.length; i++ ) {
 1115              		.loc 3 80 24 discriminator 1
 1116 0932 4839D0   		cmpq	%rdx, %rax
 1117 0935 72A1     		jb	.L39
 1118              	.LBE6:
  82:testSvf2Csvf.cpp ****     }
  83:testSvf2Csvf.cpp ****     resultHex[2*lineBuf.length] = '\0';
 1119              		.loc 3 83 25
 1120 0937 488B8568 		movq	-1176(%rbp), %rax
 1120      FBFFFF
 1121              		.loc 3 83 16
 1122 093e 4801C0   		addq	%rax, %rax
 1123              		.loc 3 83 33
 1124 0941 C68405E0 		movb	$0, -1056(%rbp,%rax)
 1124      FBFFFF00 
 1125              	.LEHB38:
  84:testSvf2Csvf.cpp ****     CHECK_EQUAL(expectedHex, resultHex);
 1126              		.loc 3 84 5
 1127 0949 E8000000 		call	_ZN8UnitTest11CurrentTest7DetailsEv@PLT
 1127      00
 1128 094e 488B08   		movq	(%rax), %rcx
 1129 0951 488D85C0 		leaq	-1088(%rbp), %rax
 1129      FBFFFF
 1130 0958 BA540000 		movl	$84, %edx
 1130      00
 1131 095d 4889CE   		movq	%rcx, %rsi
 1132 0960 4889C7   		movq	%rax, %rdi
 1133 0963 E8000000 		call	_ZN8UnitTest11TestDetailsC1ERKS0_i@PLT
 1133      00
 1134              		.loc 3 84 5 is_stmt 0 discriminator 4
 1135 0968 E8000000 		call	_ZN8UnitTest11CurrentTest7ResultsEv@PLT
 1135      00
 1136 096d 488B00   		movq	(%rax), %rax
 1137 0970 488D8DC0 		leaq	-1088(%rbp), %rcx
 1137      FBFFFF
 1138 0977 488D95E0 		leaq	-1056(%rbp), %rdx
 1138      FBFFFF
 1139 097e 488BB510 		movq	-1264(%rbp), %rsi
 1139      FBFFFF
 1140 0985 4889C7   		movq	%rax, %rdi
 1141 0988 E8000000 		call	_ZN8UnitTest10CheckEqualERNS_11TestResultsEPKcPcRKNS_11TestDetailsE@PLT
 1141      00
 1142              	.LEHE38:
 1143              	.L65:
  85:testSvf2Csvf.cpp **** 	bufDestroy(&tailBuf);
 1144              		.loc 3 85 12 is_stmt 1
 1145 098d 488D85A0 		leaq	-1120(%rbp), %rax
 1145      FBFFFF
 1146 0994 4889C7   		movq	%rax, %rdi
 1147              	.LEHB39:
 1148 0997 E8000000 		call	bufDestroy@PLT
 1148      00
  86:testSvf2Csvf.cpp **** 	bufDestroy(&headBuf);
 1149              		.loc 3 86 12
 1150 099c 488D8580 		leaq	-1152(%rbp), %rax
 1150      FBFFFF
 1151 09a3 4889C7   		movq	%rax, %rdi
 1152 09a6 E8000000 		call	bufDestroy@PLT
 1152      00
  87:testSvf2Csvf.cpp **** 	bufDestroy(&lineBuf);
 1153              		.loc 3 87 12
 1154 09ab 488D8560 		leaq	-1184(%rbp), %rax
 1154      FBFFFF
 1155 09b2 4889C7   		movq	%rax, %rdi
 1156 09b5 E8000000 		call	bufDestroy@PLT
 1156      00
 1157              	.LEHE39:
  88:testSvf2Csvf.cpp **** }	
 1158              		.loc 3 88 1
 1159 09ba 90       		nop
 1160 09bb 488B45E8 		movq	-24(%rbp), %rax
 1161 09bf 64482B04 		subq	%fs:40, %rax
 1161      25280000 
 1161      00
 1162 09c8 0F84DF03 		je	.L67
 1162      0000
 1163 09ce E9D50300 		jmp	.L86
 1163      00
 1164              	.L68:
 1165 09d3 F30F1EFA 		endbr64
  66:testSvf2Csvf.cpp **** 	bStatus = bufInitialise(&headBuf, 1024, 0x00, NULL);
 1166              		.loc 3 66 2
 1167 09d7 4889C7   		movq	%rax, %rdi
 1168 09da E8000000 		call	__cxa_begin_catch@PLT
 1168      00
 1169              	.LEHB40:
 1170 09df E8000000 		call	_ZN8UnitTest11CurrentTest7ResultsEv@PLT
 1170      00
  66:testSvf2Csvf.cpp **** 	bStatus = bufInitialise(&headBuf, 1024, 0x00, NULL);
 1171              		.loc 3 66 2 is_stmt 0 discriminator 3
 1172 09e4 488B18   		movq	(%rax), %rbx
 1173 09e7 E8000000 		call	_ZN8UnitTest11CurrentTest7DetailsEv@PLT
 1173      00
  66:testSvf2Csvf.cpp **** 	bStatus = bufInitialise(&headBuf, 1024, 0x00, NULL);
 1174              		.loc 3 66 2 discriminator 11
 1175 09ec 488B08   		movq	(%rax), %rcx
 1176 09ef 488D85C0 		leaq	-1088(%rbp), %rax
 1176      FBFFFF
 1177 09f6 BA420000 		movl	$66, %edx
 1177      00
 1178 09fb 4889CE   		movq	%rcx, %rsi
 1179 09fe 4889C7   		movq	%rax, %rdi
 1180 0a01 E8000000 		call	_ZN8UnitTest11TestDetailsC1ERKS0_i@PLT
 1180      00
  66:testSvf2Csvf.cpp **** 	bStatus = bufInitialise(&headBuf, 1024, 0x00, NULL);
 1181              		.loc 3 66 2 discriminator 15
 1182 0a06 488D85C0 		leaq	-1088(%rbp), %rax
 1182      FBFFFF
 1183 0a0d 488D1500 		leaq	.LC13(%rip), %rdx
 1183      000000
 1184 0a14 4889C6   		movq	%rax, %rsi
 1185 0a17 4889DF   		movq	%rbx, %rdi
 1186 0a1a E8000000 		call	_ZN8UnitTest11TestResults13OnTestFailureERKNS_11TestDetailsEPKc@PLT
 1186      00
 1187              	.LEHE40:
 1188              	.LEHB41:
  66:testSvf2Csvf.cpp **** 	bStatus = bufInitialise(&headBuf, 1024, 0x00, NULL);
 1189              		.loc 3 66 2 discriminator 17
 1190 0a1f E8000000 		call	__cxa_end_catch@PLT
 1190      00
 1191              	.LEHE41:
 1192 0a24 E96EFBFF 		jmp	.L41
 1192      FF
 1193              	.L69:
 1194 0a29 F30F1EFA 		endbr64
  66:testSvf2Csvf.cpp **** 	bStatus = bufInitialise(&headBuf, 1024, 0x00, NULL);
 1195              		.loc 3 66 2
 1196 0a2d 4889C3   		movq	%rax, %rbx
 1197 0a30 E8000000 		call	__cxa_end_catch@PLT
 1197      00
 1198 0a35 4889D8   		movq	%rbx, %rax
 1199 0a38 4889C7   		movq	%rax, %rdi
 1200              	.LEHB42:
 1201 0a3b E8000000 		call	_Unwind_Resume@PLT
 1201      00
 1202              	.LEHE42:
 1203              	.L70:
 1204 0a40 F30F1EFA 		endbr64
  68:testSvf2Csvf.cpp **** 	bStatus = bufInitialise(&tailBuf, 1024, 0x00, NULL);
 1205              		.loc 3 68 2 is_stmt 1
 1206 0a44 4889C7   		movq	%rax, %rdi
 1207 0a47 E8000000 		call	__cxa_begin_catch@PLT
 1207      00
 1208              	.LEHB43:
 1209 0a4c E8000000 		call	_ZN8UnitTest11CurrentTest7ResultsEv@PLT
 1209      00
  68:testSvf2Csvf.cpp **** 	bStatus = bufInitialise(&tailBuf, 1024, 0x00, NULL);
 1210              		.loc 3 68 2 is_stmt 0 discriminator 3
 1211 0a51 488B18   		movq	(%rax), %rbx
 1212 0a54 E8000000 		call	_ZN8UnitTest11CurrentTest7DetailsEv@PLT
 1212      00
  68:testSvf2Csvf.cpp **** 	bStatus = bufInitialise(&tailBuf, 1024, 0x00, NULL);
 1213              		.loc 3 68 2 discriminator 11
 1214 0a59 488B08   		movq	(%rax), %rcx
 1215 0a5c 488D85C0 		leaq	-1088(%rbp), %rax
 1215      FBFFFF
 1216 0a63 BA440000 		movl	$68, %edx
 1216      00
 1217 0a68 4889CE   		movq	%rcx, %rsi
 1218 0a6b 4889C7   		movq	%rax, %rdi
 1219 0a6e E8000000 		call	_ZN8UnitTest11TestDetailsC1ERKS0_i@PLT
 1219      00
  68:testSvf2Csvf.cpp **** 	bStatus = bufInitialise(&tailBuf, 1024, 0x00, NULL);
 1220              		.loc 3 68 2 discriminator 15
 1221 0a73 488D85C0 		leaq	-1088(%rbp), %rax
 1221      FBFFFF
 1222 0a7a 488D1500 		leaq	.LC13(%rip), %rdx
 1222      000000
 1223 0a81 4889C6   		movq	%rax, %rsi
 1224 0a84 4889DF   		movq	%rbx, %rdi
 1225 0a87 E8000000 		call	_ZN8UnitTest11TestResults13OnTestFailureERKNS_11TestDetailsEPKc@PLT
 1225      00
 1226              	.LEHE43:
 1227              	.LEHB44:
  68:testSvf2Csvf.cpp **** 	bStatus = bufInitialise(&tailBuf, 1024, 0x00, NULL);
 1228              		.loc 3 68 2 discriminator 17
 1229 0a8c E8000000 		call	__cxa_end_catch@PLT
 1229      00
 1230              	.LEHE44:
 1231 0a91 E973FBFF 		jmp	.L44
 1231      FF
 1232              	.L71:
 1233 0a96 F30F1EFA 		endbr64
  68:testSvf2Csvf.cpp **** 	bStatus = bufInitialise(&tailBuf, 1024, 0x00, NULL);
 1234              		.loc 3 68 2
 1235 0a9a 4889C3   		movq	%rax, %rbx
 1236 0a9d E8000000 		call	__cxa_end_catch@PLT
 1236      00
 1237 0aa2 4889D8   		movq	%rbx, %rax
 1238 0aa5 4889C7   		movq	%rax, %rdi
 1239              	.LEHB45:
 1240 0aa8 E8000000 		call	_Unwind_Resume@PLT
 1240      00
 1241              	.LEHE45:
 1242              	.L72:
 1243 0aad F30F1EFA 		endbr64
  70:testSvf2Csvf.cpp **** 	fStatus = readBytes(&lineBuf, line, NULL);
 1244              		.loc 3 70 2 is_stmt 1
 1245 0ab1 4889C7   		movq	%rax, %rdi
 1246 0ab4 E8000000 		call	__cxa_begin_catch@PLT
 1246      00
 1247              	.LEHB46:
 1248 0ab9 E8000000 		call	_ZN8UnitTest11CurrentTest7ResultsEv@PLT
 1248      00
  70:testSvf2Csvf.cpp **** 	fStatus = readBytes(&lineBuf, line, NULL);
 1249              		.loc 3 70 2 is_stmt 0 discriminator 3
 1250 0abe 488B18   		movq	(%rax), %rbx
 1251 0ac1 E8000000 		call	_ZN8UnitTest11CurrentTest7DetailsEv@PLT
 1251      00
  70:testSvf2Csvf.cpp **** 	fStatus = readBytes(&lineBuf, line, NULL);
 1252              		.loc 3 70 2 discriminator 11
 1253 0ac6 488B08   		movq	(%rax), %rcx
 1254 0ac9 488D85C0 		leaq	-1088(%rbp), %rax
 1254      FBFFFF
 1255 0ad0 BA460000 		movl	$70, %edx
 1255      00
 1256 0ad5 4889CE   		movq	%rcx, %rsi
 1257 0ad8 4889C7   		movq	%rax, %rdi
 1258 0adb E8000000 		call	_ZN8UnitTest11TestDetailsC1ERKS0_i@PLT
 1258      00
  70:testSvf2Csvf.cpp **** 	fStatus = readBytes(&lineBuf, line, NULL);
 1259              		.loc 3 70 2 discriminator 15
 1260 0ae0 488D85C0 		leaq	-1088(%rbp), %rax
 1260      FBFFFF
 1261 0ae7 488D1500 		leaq	.LC13(%rip), %rdx
 1261      000000
 1262 0aee 4889C6   		movq	%rax, %rsi
 1263 0af1 4889DF   		movq	%rbx, %rdi
 1264 0af4 E8000000 		call	_ZN8UnitTest11TestResults13OnTestFailureERKNS_11TestDetailsEPKc@PLT
 1264      00
 1265              	.LEHE46:
 1266              	.LEHB47:
  70:testSvf2Csvf.cpp **** 	fStatus = readBytes(&lineBuf, line, NULL);
 1267              		.loc 3 70 2 discriminator 17
 1268 0af9 E8000000 		call	__cxa_end_catch@PLT
 1268      00
 1269              	.LEHE47:
 1270 0afe E978FBFF 		jmp	.L47
 1270      FF
 1271              	.L73:
 1272 0b03 F30F1EFA 		endbr64
  70:testSvf2Csvf.cpp **** 	fStatus = readBytes(&lineBuf, line, NULL);
 1273              		.loc 3 70 2
 1274 0b07 4889C3   		movq	%rax, %rbx
 1275 0b0a E8000000 		call	__cxa_end_catch@PLT
 1275      00
 1276 0b0f 4889D8   		movq	%rbx, %rax
 1277 0b12 4889C7   		movq	%rax, %rdi
 1278              	.LEHB48:
 1279 0b15 E8000000 		call	_Unwind_Resume@PLT
 1279      00
 1280              	.LEHE48:
 1281              	.L74:
 1282 0b1a F30F1EFA 		endbr64
  72:testSvf2Csvf.cpp **** 	fStatus = readBytes(&headBuf, head, NULL);
 1283              		.loc 3 72 2 is_stmt 1
 1284 0b1e 4889C7   		movq	%rax, %rdi
 1285 0b21 E8000000 		call	__cxa_begin_catch@PLT
 1285      00
 1286              	.LEHB49:
 1287 0b26 E8000000 		call	_ZN8UnitTest11CurrentTest7ResultsEv@PLT
 1287      00
  72:testSvf2Csvf.cpp **** 	fStatus = readBytes(&headBuf, head, NULL);
 1288              		.loc 3 72 2 is_stmt 0 discriminator 3
 1289 0b2b 488B18   		movq	(%rax), %rbx
 1290 0b2e E8000000 		call	_ZN8UnitTest11CurrentTest7DetailsEv@PLT
 1290      00
  72:testSvf2Csvf.cpp **** 	fStatus = readBytes(&headBuf, head, NULL);
 1291              		.loc 3 72 2 discriminator 11
 1292 0b33 488B08   		movq	(%rax), %rcx
 1293 0b36 488D85C0 		leaq	-1088(%rbp), %rax
 1293      FBFFFF
 1294 0b3d BA480000 		movl	$72, %edx
 1294      00
 1295 0b42 4889CE   		movq	%rcx, %rsi
 1296 0b45 4889C7   		movq	%rax, %rdi
 1297 0b48 E8000000 		call	_ZN8UnitTest11TestDetailsC1ERKS0_i@PLT
 1297      00
  72:testSvf2Csvf.cpp **** 	fStatus = readBytes(&headBuf, head, NULL);
 1298              		.loc 3 72 2 discriminator 15
 1299 0b4d 488D85C0 		leaq	-1088(%rbp), %rax
 1299      FBFFFF
 1300 0b54 488D1500 		leaq	.LC2(%rip), %rdx
 1300      000000
 1301 0b5b 4889C6   		movq	%rax, %rsi
 1302 0b5e 4889DF   		movq	%rbx, %rdi
 1303 0b61 E8000000 		call	_ZN8UnitTest11TestResults13OnTestFailureERKNS_11TestDetailsEPKc@PLT
 1303      00
 1304              	.LEHE49:
 1305              	.LEHB50:
  72:testSvf2Csvf.cpp **** 	fStatus = readBytes(&headBuf, head, NULL);
 1306              		.loc 3 72 2 discriminator 17
 1307 0b66 E8000000 		call	__cxa_end_catch@PLT
 1307      00
 1308              	.LEHE50:
 1309 0b6b E97DFBFF 		jmp	.L50
 1309      FF
 1310              	.L75:
 1311 0b70 F30F1EFA 		endbr64
  72:testSvf2Csvf.cpp **** 	fStatus = readBytes(&headBuf, head, NULL);
 1312              		.loc 3 72 2
 1313 0b74 4889C3   		movq	%rax, %rbx
 1314 0b77 E8000000 		call	__cxa_end_catch@PLT
 1314      00
 1315 0b7c 4889D8   		movq	%rbx, %rax
 1316 0b7f 4889C7   		movq	%rax, %rdi
 1317              	.LEHB51:
 1318 0b82 E8000000 		call	_Unwind_Resume@PLT
 1318      00
 1319              	.LEHE51:
 1320              	.L76:
 1321 0b87 F30F1EFA 		endbr64
  74:testSvf2Csvf.cpp **** 	fStatus = readBytes(&tailBuf, tail, NULL);
 1322              		.loc 3 74 2 is_stmt 1
 1323 0b8b 4889C7   		movq	%rax, %rdi
 1324 0b8e E8000000 		call	__cxa_begin_catch@PLT
 1324      00
 1325              	.LEHB52:
 1326 0b93 E8000000 		call	_ZN8UnitTest11CurrentTest7ResultsEv@PLT
 1326      00
  74:testSvf2Csvf.cpp **** 	fStatus = readBytes(&tailBuf, tail, NULL);
 1327              		.loc 3 74 2 is_stmt 0 discriminator 3
 1328 0b98 488B18   		movq	(%rax), %rbx
 1329 0b9b E8000000 		call	_ZN8UnitTest11CurrentTest7DetailsEv@PLT
 1329      00
  74:testSvf2Csvf.cpp **** 	fStatus = readBytes(&tailBuf, tail, NULL);
 1330              		.loc 3 74 2 discriminator 11
 1331 0ba0 488B08   		movq	(%rax), %rcx
 1332 0ba3 488D85C0 		leaq	-1088(%rbp), %rax
 1332      FBFFFF
 1333 0baa BA4A0000 		movl	$74, %edx
 1333      00
 1334 0baf 4889CE   		movq	%rcx, %rsi
 1335 0bb2 4889C7   		movq	%rax, %rdi
 1336 0bb5 E8000000 		call	_ZN8UnitTest11TestDetailsC1ERKS0_i@PLT
 1336      00
  74:testSvf2Csvf.cpp **** 	fStatus = readBytes(&tailBuf, tail, NULL);
 1337              		.loc 3 74 2 discriminator 15
 1338 0bba 488D85C0 		leaq	-1088(%rbp), %rax
 1338      FBFFFF
 1339 0bc1 488D1500 		leaq	.LC2(%rip), %rdx
 1339      000000
 1340 0bc8 4889C6   		movq	%rax, %rsi
 1341 0bcb 4889DF   		movq	%rbx, %rdi
 1342 0bce E8000000 		call	_ZN8UnitTest11TestResults13OnTestFailureERKNS_11TestDetailsEPKc@PLT
 1342      00
 1343              	.LEHE52:
 1344              	.LEHB53:
  74:testSvf2Csvf.cpp **** 	fStatus = readBytes(&tailBuf, tail, NULL);
 1345              		.loc 3 74 2 discriminator 17
 1346 0bd3 E8000000 		call	__cxa_end_catch@PLT
 1346      00
 1347              	.LEHE53:
 1348 0bd8 E982FBFF 		jmp	.L53
 1348      FF
 1349              	.L77:
 1350 0bdd F30F1EFA 		endbr64
  74:testSvf2Csvf.cpp **** 	fStatus = readBytes(&tailBuf, tail, NULL);
 1351              		.loc 3 74 2
 1352 0be1 4889C3   		movq	%rax, %rbx
 1353 0be4 E8000000 		call	__cxa_end_catch@PLT
 1353      00
 1354 0be9 4889D8   		movq	%rbx, %rax
 1355 0bec 4889C7   		movq	%rax, %rdi
 1356              	.LEHB54:
 1357 0bef E8000000 		call	_Unwind_Resume@PLT
 1357      00
 1358              	.LEHE54:
 1359              	.L78:
 1360 0bf4 F30F1EFA 		endbr64
  76:testSvf2Csvf.cpp **** 	fStatus = headTail(&lineBuf, &headBuf, &tailBuf, lineBits, headBits, tailBits, NULL);
 1361              		.loc 3 76 2 is_stmt 1
 1362 0bf8 4889C7   		movq	%rax, %rdi
 1363 0bfb E8000000 		call	__cxa_begin_catch@PLT
 1363      00
 1364              	.LEHB55:
 1365 0c00 E8000000 		call	_ZN8UnitTest11CurrentTest7ResultsEv@PLT
 1365      00
  76:testSvf2Csvf.cpp **** 	fStatus = headTail(&lineBuf, &headBuf, &tailBuf, lineBits, headBits, tailBits, NULL);
 1366              		.loc 3 76 2 is_stmt 0 discriminator 3
 1367 0c05 488B18   		movq	(%rax), %rbx
 1368 0c08 E8000000 		call	_ZN8UnitTest11CurrentTest7DetailsEv@PLT
 1368      00
  76:testSvf2Csvf.cpp **** 	fStatus = headTail(&lineBuf, &headBuf, &tailBuf, lineBits, headBits, tailBits, NULL);
 1369              		.loc 3 76 2 discriminator 11
 1370 0c0d 488B08   		movq	(%rax), %rcx
 1371 0c10 488D85C0 		leaq	-1088(%rbp), %rax
 1371      FBFFFF
 1372 0c17 BA4C0000 		movl	$76, %edx
 1372      00
 1373 0c1c 4889CE   		movq	%rcx, %rsi
 1374 0c1f 4889C7   		movq	%rax, %rdi
 1375 0c22 E8000000 		call	_ZN8UnitTest11TestDetailsC1ERKS0_i@PLT
 1375      00
  76:testSvf2Csvf.cpp **** 	fStatus = headTail(&lineBuf, &headBuf, &tailBuf, lineBits, headBits, tailBits, NULL);
 1376              		.loc 3 76 2 discriminator 15
 1377 0c27 488D85C0 		leaq	-1088(%rbp), %rax
 1377      FBFFFF
 1378 0c2e 488D1500 		leaq	.LC2(%rip), %rdx
 1378      000000
 1379 0c35 4889C6   		movq	%rax, %rsi
 1380 0c38 4889DF   		movq	%rbx, %rdi
 1381 0c3b E8000000 		call	_ZN8UnitTest11TestResults13OnTestFailureERKNS_11TestDetailsEPKc@PLT
 1381      00
 1382              	.LEHE55:
 1383              	.LEHB56:
  76:testSvf2Csvf.cpp **** 	fStatus = headTail(&lineBuf, &headBuf, &tailBuf, lineBits, headBits, tailBits, NULL);
 1384              		.loc 3 76 2 discriminator 17
 1385 0c40 E8000000 		call	__cxa_end_catch@PLT
 1385      00
 1386              	.LEHE56:
 1387 0c45 E987FBFF 		jmp	.L56
 1387      FF
 1388              	.L79:
 1389 0c4a F30F1EFA 		endbr64
  76:testSvf2Csvf.cpp **** 	fStatus = headTail(&lineBuf, &headBuf, &tailBuf, lineBits, headBits, tailBits, NULL);
 1390              		.loc 3 76 2
 1391 0c4e 4889C3   		movq	%rax, %rbx
 1392 0c51 E8000000 		call	__cxa_end_catch@PLT
 1392      00
 1393 0c56 4889D8   		movq	%rbx, %rax
 1394 0c59 4889C7   		movq	%rax, %rdi
 1395              	.LEHB57:
 1396 0c5c E8000000 		call	_Unwind_Resume@PLT
 1396      00
 1397              	.LEHE57:
 1398              	.L80:
 1399 0c61 F30F1EFA 		endbr64
  78:testSvf2Csvf.cpp **** 	CHECK_EQUAL(strlen(expectedHex)/2, lineBuf.length);
 1400              		.loc 3 78 2 is_stmt 1
 1401 0c65 4889C7   		movq	%rax, %rdi
 1402 0c68 E8000000 		call	__cxa_begin_catch@PLT
 1402      00
 1403              	.LEHB58:
 1404 0c6d E8000000 		call	_ZN8UnitTest11CurrentTest7ResultsEv@PLT
 1404      00
  78:testSvf2Csvf.cpp **** 	CHECK_EQUAL(strlen(expectedHex)/2, lineBuf.length);
 1405              		.loc 3 78 2 is_stmt 0 discriminator 3
 1406 0c72 488B18   		movq	(%rax), %rbx
 1407 0c75 E8000000 		call	_ZN8UnitTest11CurrentTest7DetailsEv@PLT
 1407      00
  78:testSvf2Csvf.cpp **** 	CHECK_EQUAL(strlen(expectedHex)/2, lineBuf.length);
 1408              		.loc 3 78 2 discriminator 11
 1409 0c7a 488B08   		movq	(%rax), %rcx
 1410 0c7d 488D85C0 		leaq	-1088(%rbp), %rax
 1410      FBFFFF
 1411 0c84 BA4E0000 		movl	$78, %edx
 1411      00
 1412 0c89 4889CE   		movq	%rcx, %rsi
 1413 0c8c 4889C7   		movq	%rax, %rdi
 1414 0c8f E8000000 		call	_ZN8UnitTest11TestDetailsC1ERKS0_i@PLT
 1414      00
  78:testSvf2Csvf.cpp **** 	CHECK_EQUAL(strlen(expectedHex)/2, lineBuf.length);
 1415              		.loc 3 78 2 discriminator 15
 1416 0c94 488D85C0 		leaq	-1088(%rbp), %rax
 1416      FBFFFF
 1417 0c9b 488D1500 		leaq	.LC2(%rip), %rdx
 1417      000000
 1418 0ca2 4889C6   		movq	%rax, %rsi
 1419 0ca5 4889DF   		movq	%rbx, %rdi
 1420 0ca8 E8000000 		call	_ZN8UnitTest11TestResults13OnTestFailureERKNS_11TestDetailsEPKc@PLT
 1420      00
 1421              	.LEHE58:
 1422              	.LEHB59:
  78:testSvf2Csvf.cpp **** 	CHECK_EQUAL(strlen(expectedHex)/2, lineBuf.length);
 1423              		.loc 3 78 2 discriminator 17
 1424 0cad E8000000 		call	__cxa_end_catch@PLT
 1424      00
 1425              	.LEHE59:
 1426 0cb2 E9AEFBFF 		jmp	.L59
 1426      FF
 1427              	.L81:
 1428 0cb7 F30F1EFA 		endbr64
  78:testSvf2Csvf.cpp **** 	CHECK_EQUAL(strlen(expectedHex)/2, lineBuf.length);
 1429              		.loc 3 78 2
 1430 0cbb 4889C3   		movq	%rax, %rbx
 1431 0cbe E8000000 		call	__cxa_end_catch@PLT
 1431      00
 1432 0cc3 4889D8   		movq	%rbx, %rax
 1433 0cc6 4889C7   		movq	%rax, %rdi
 1434              	.LEHB60:
 1435 0cc9 E8000000 		call	_Unwind_Resume@PLT
 1435      00
 1436              	.LEHE60:
 1437              	.L82:
 1438 0cce F30F1EFA 		endbr64
  79:testSvf2Csvf.cpp **** 	for ( uint32 i = 0; i < 2*lineBuf.length; i++ ) {
 1439              		.loc 3 79 2 is_stmt 1
 1440 0cd2 4889C7   		movq	%rax, %rdi
 1441 0cd5 E8000000 		call	__cxa_begin_catch@PLT
 1441      00
 1442              	.LEHB61:
 1443 0cda E8000000 		call	_ZN8UnitTest11CurrentTest7ResultsEv@PLT
 1443      00
  79:testSvf2Csvf.cpp **** 	for ( uint32 i = 0; i < 2*lineBuf.length; i++ ) {
 1444              		.loc 3 79 2 is_stmt 0 discriminator 3
 1445 0cdf 488B18   		movq	(%rax), %rbx
 1446 0ce2 E8000000 		call	_ZN8UnitTest11CurrentTest7DetailsEv@PLT
 1446      00
  79:testSvf2Csvf.cpp **** 	for ( uint32 i = 0; i < 2*lineBuf.length; i++ ) {
 1447              		.loc 3 79 2 discriminator 11
 1448 0ce7 488B08   		movq	(%rax), %rcx
 1449 0cea 488D85C0 		leaq	-1088(%rbp), %rax
 1449      FBFFFF
 1450 0cf1 BA4F0000 		movl	$79, %edx
 1450      00
 1451 0cf6 4889CE   		movq	%rcx, %rsi
 1452 0cf9 4889C7   		movq	%rax, %rdi
 1453 0cfc E8000000 		call	_ZN8UnitTest11TestDetailsC1ERKS0_i@PLT
 1453      00
  79:testSvf2Csvf.cpp **** 	for ( uint32 i = 0; i < 2*lineBuf.length; i++ ) {
 1454              		.loc 3 79 2 discriminator 15
 1455 0d01 488D85C0 		leaq	-1088(%rbp), %rax
 1455      FBFFFF
 1456 0d08 488D1500 		leaq	.LC14(%rip), %rdx
 1456      000000
 1457 0d0f 4889C6   		movq	%rax, %rsi
 1458 0d12 4889DF   		movq	%rbx, %rdi
 1459 0d15 E8000000 		call	_ZN8UnitTest11TestResults13OnTestFailureERKNS_11TestDetailsEPKc@PLT
 1459      00
 1460              	.LEHE61:
 1461              	.LEHB62:
  79:testSvf2Csvf.cpp **** 	for ( uint32 i = 0; i < 2*lineBuf.length; i++ ) {
 1462              		.loc 3 79 2 discriminator 17
 1463 0d1a E8000000 		call	__cxa_end_catch@PLT
 1463      00
 1464              	.LEHE62:
 1465 0d1f E9A8FBFF 		jmp	.L62
 1465      FF
 1466              	.L83:
 1467 0d24 F30F1EFA 		endbr64
  79:testSvf2Csvf.cpp **** 	for ( uint32 i = 0; i < 2*lineBuf.length; i++ ) {
 1468              		.loc 3 79 2
 1469 0d28 4889C3   		movq	%rax, %rbx
 1470 0d2b E8000000 		call	__cxa_end_catch@PLT
 1470      00
 1471 0d30 4889D8   		movq	%rbx, %rax
 1472 0d33 4889C7   		movq	%rax, %rdi
 1473              	.LEHB63:
 1474 0d36 E8000000 		call	_Unwind_Resume@PLT
 1474      00
 1475              	.LEHE63:
 1476              	.L84:
 1477 0d3b F30F1EFA 		endbr64
  84:testSvf2Csvf.cpp **** 	bufDestroy(&tailBuf);
 1478              		.loc 3 84 5 is_stmt 1
 1479 0d3f 4889C7   		movq	%rax, %rdi
 1480 0d42 E8000000 		call	__cxa_begin_catch@PLT
 1480      00
 1481              	.LEHB64:
 1482 0d47 E8000000 		call	_ZN8UnitTest11CurrentTest7ResultsEv@PLT
 1482      00
  84:testSvf2Csvf.cpp **** 	bufDestroy(&tailBuf);
 1483              		.loc 3 84 5 is_stmt 0 discriminator 3
 1484 0d4c 488B18   		movq	(%rax), %rbx
 1485 0d4f E8000000 		call	_ZN8UnitTest11CurrentTest7DetailsEv@PLT
 1485      00
  84:testSvf2Csvf.cpp **** 	bufDestroy(&tailBuf);
 1486              		.loc 3 84 5 discriminator 11
 1487 0d54 488B08   		movq	(%rax), %rcx
 1488 0d57 488D85C0 		leaq	-1088(%rbp), %rax
 1488      FBFFFF
 1489 0d5e BA540000 		movl	$84, %edx
 1489      00
 1490 0d63 4889CE   		movq	%rcx, %rsi
 1491 0d66 4889C7   		movq	%rax, %rdi
 1492 0d69 E8000000 		call	_ZN8UnitTest11TestDetailsC1ERKS0_i@PLT
 1492      00
  84:testSvf2Csvf.cpp **** 	bufDestroy(&tailBuf);
 1493              		.loc 3 84 5 discriminator 15
 1494 0d6e 488D85C0 		leaq	-1088(%rbp), %rax
 1494      FBFFFF
 1495 0d75 488D1500 		leaq	.LC15(%rip), %rdx
 1495      000000
 1496 0d7c 4889C6   		movq	%rax, %rsi
 1497 0d7f 4889DF   		movq	%rbx, %rdi
 1498 0d82 E8000000 		call	_ZN8UnitTest11TestResults13OnTestFailureERKNS_11TestDetailsEPKc@PLT
 1498      00
 1499              	.LEHE64:
 1500              	.LEHB65:
  84:testSvf2Csvf.cpp **** 	bufDestroy(&tailBuf);
 1501              		.loc 3 84 5 discriminator 17
 1502 0d87 E8000000 		call	__cxa_end_catch@PLT
 1502      00
 1503              	.LEHE65:
 1504 0d8c E9FCFBFF 		jmp	.L65
 1504      FF
 1505              	.L85:
 1506 0d91 F30F1EFA 		endbr64
  84:testSvf2Csvf.cpp **** 	bufDestroy(&tailBuf);
 1507              		.loc 3 84 5
 1508 0d95 4889C3   		movq	%rax, %rbx
 1509 0d98 E8000000 		call	__cxa_end_catch@PLT
 1509      00
 1510 0d9d 4889D8   		movq	%rbx, %rax
 1511 0da0 4889C7   		movq	%rax, %rdi
 1512              	.LEHB66:
 1513 0da3 E8000000 		call	_Unwind_Resume@PLT
 1513      00
 1514              	.LEHE66:
 1515              	.L86:
 1516              		.loc 3 88 1 is_stmt 1
 1517 0da8 E8000000 		call	__stack_chk_fail@PLT
 1517      00
 1518              	.L67:
 1519 0dad 488B5DF8 		movq	-8(%rbp), %rbx
 1520 0db1 C9       		leave
 1521              		.cfi_def_cfa 7, 8
 1522 0db2 C3       		ret
 1523              		.cfi_endproc
 1524              	.LFE1150:
 1525              		.section	.gcc_except_table
 1526              		.align 4
 1527              	.LLSDA1150:
 1528 007c FF       		.byte	0xff
 1529 007d 9B       		.byte	0x9b
 1530 007e F801     		.uleb128 .LLSDATT1150-.LLSDATTD1150
 1531              	.LLSDATTD1150:
 1532 0080 01       		.byte	0x1
 1533 0081 EC01     		.uleb128 .LLSDACSE1150-.LLSDACSB1150
 1534              	.LLSDACSB1150:
 1535 0083 6B       		.uleb128 .LEHB23-.LFB1150
 1536 0084 05       		.uleb128 .LEHE23-.LEHB23
 1537 0085 00       		.uleb128 0
 1538 0086 00       		.uleb128 0
 1539 0087 76       		.uleb128 .LEHB24-.LFB1150
 1540 0088 4E       		.uleb128 .LEHE24-.LEHB24
 1541 0089 800A     		.uleb128 .L68-.LFB1150
 1542 008b 01       		.uleb128 0x1
 1543 008c DD01     		.uleb128 .LEHB25-.LFB1150
 1544 008e 05       		.uleb128 .LEHE25-.LEHB25
 1545 008f 00       		.uleb128 0
 1546 0090 00       		.uleb128 0
 1547 0091 E801     		.uleb128 .LEHB26-.LFB1150
 1548 0093 4E       		.uleb128 .LEHE26-.LEHB26
 1549 0094 ED0A     		.uleb128 .L70-.LFB1150
 1550 0096 01       		.uleb128 0x1
 1551 0097 CF02     		.uleb128 .LEHB27-.LFB1150
 1552 0099 05       		.uleb128 .LEHE27-.LEHB27
 1553 009a 00       		.uleb128 0
 1554 009b 00       		.uleb128 0
 1555 009c DA02     		.uleb128 .LEHB28-.LFB1150
 1556 009e 4E       		.uleb128 .LEHE28-.LEHB28
 1557 009f DA0B     		.uleb128 .L72-.LFB1150
 1558 00a1 01       		.uleb128 0x1
 1559 00a2 C103     		.uleb128 .LEHB29-.LFB1150
 1560 00a4 05       		.uleb128 .LEHE29-.LEHB29
 1561 00a5 00       		.uleb128 0
 1562 00a6 00       		.uleb128 0
 1563 00a7 CC03     		.uleb128 .LEHB30-.LFB1150
 1564 00a9 4E       		.uleb128 .LEHE30-.LEHB30
 1565 00aa C70C     		.uleb128 .L74-.LFB1150
 1566 00ac 01       		.uleb128 0x1
 1567 00ad B304     		.uleb128 .LEHB31-.LFB1150
 1568 00af 05       		.uleb128 .LEHE31-.LEHB31
 1569 00b0 00       		.uleb128 0
 1570 00b1 00       		.uleb128 0
 1571 00b2 BE04     		.uleb128 .LEHB32-.LFB1150
 1572 00b4 4E       		.uleb128 .LEHE32-.LEHB32
 1573 00b5 B40D     		.uleb128 .L76-.LFB1150
 1574 00b7 01       		.uleb128 0x1
 1575 00b8 A505     		.uleb128 .LEHB33-.LFB1150
 1576 00ba 05       		.uleb128 .LEHE33-.LEHB33
 1577 00bb 00       		.uleb128 0
 1578 00bc 00       		.uleb128 0
 1579 00bd B005     		.uleb128 .LEHB34-.LFB1150
 1580 00bf 4E       		.uleb128 .LEHE34-.LEHB34
 1581 00c0 A10E     		.uleb128 .L78-.LFB1150
 1582 00c2 01       		.uleb128 0x1
 1583 00c3 B506     		.uleb128 .LEHB35-.LFB1150
 1584 00c5 05       		.uleb128 .LEHE35-.LEHB35
 1585 00c6 00       		.uleb128 0
 1586 00c7 00       		.uleb128 0
 1587 00c8 C406     		.uleb128 .LEHB36-.LFB1150
 1588 00ca 4E       		.uleb128 .LEHE36-.LEHB36
 1589 00cb 8E0F     		.uleb128 .L80-.LFB1150
 1590 00cd 01       		.uleb128 0x1
 1591 00ce 9207     		.uleb128 .LEHB37-.LFB1150
 1592 00d0 67       		.uleb128 .LEHE37-.LEHB37
 1593 00d1 FB0F     		.uleb128 .L82-.LFB1150
 1594 00d3 01       		.uleb128 0x1
 1595 00d4 F608     		.uleb128 .LEHB38-.LFB1150
 1596 00d6 44       		.uleb128 .LEHE38-.LEHB38
 1597 00d7 E810     		.uleb128 .L84-.LFB1150
 1598 00d9 01       		.uleb128 0x1
 1599 00da C409     		.uleb128 .LEHB39-.LFB1150
 1600 00dc 23       		.uleb128 .LEHE39-.LEHB39
 1601 00dd 00       		.uleb128 0
 1602 00de 00       		.uleb128 0
 1603 00df 8C0A     		.uleb128 .LEHB40-.LFB1150
 1604 00e1 40       		.uleb128 .LEHE40-.LEHB40
 1605 00e2 D60A     		.uleb128 .L69-.LFB1150
 1606 00e4 00       		.uleb128 0
 1607 00e5 CC0A     		.uleb128 .LEHB41-.LFB1150
 1608 00e7 05       		.uleb128 .LEHE41-.LEHB41
 1609 00e8 00       		.uleb128 0
 1610 00e9 00       		.uleb128 0
 1611 00ea E80A     		.uleb128 .LEHB42-.LFB1150
 1612 00ec 05       		.uleb128 .LEHE42-.LEHB42
 1613 00ed 00       		.uleb128 0
 1614 00ee 00       		.uleb128 0
 1615 00ef F90A     		.uleb128 .LEHB43-.LFB1150
 1616 00f1 40       		.uleb128 .LEHE43-.LEHB43
 1617 00f2 C30B     		.uleb128 .L71-.LFB1150
 1618 00f4 00       		.uleb128 0
 1619 00f5 B90B     		.uleb128 .LEHB44-.LFB1150
 1620 00f7 05       		.uleb128 .LEHE44-.LEHB44
 1621 00f8 00       		.uleb128 0
 1622 00f9 00       		.uleb128 0
 1623 00fa D50B     		.uleb128 .LEHB45-.LFB1150
 1624 00fc 05       		.uleb128 .LEHE45-.LEHB45
 1625 00fd 00       		.uleb128 0
 1626 00fe 00       		.uleb128 0
 1627 00ff E60B     		.uleb128 .LEHB46-.LFB1150
 1628 0101 40       		.uleb128 .LEHE46-.LEHB46
 1629 0102 B00C     		.uleb128 .L73-.LFB1150
 1630 0104 00       		.uleb128 0
 1631 0105 A60C     		.uleb128 .LEHB47-.LFB1150
 1632 0107 05       		.uleb128 .LEHE47-.LEHB47
 1633 0108 00       		.uleb128 0
 1634 0109 00       		.uleb128 0
 1635 010a C20C     		.uleb128 .LEHB48-.LFB1150
 1636 010c 05       		.uleb128 .LEHE48-.LEHB48
 1637 010d 00       		.uleb128 0
 1638 010e 00       		.uleb128 0
 1639 010f D30C     		.uleb128 .LEHB49-.LFB1150
 1640 0111 40       		.uleb128 .LEHE49-.LEHB49
 1641 0112 9D0D     		.uleb128 .L75-.LFB1150
 1642 0114 00       		.uleb128 0
 1643 0115 930D     		.uleb128 .LEHB50-.LFB1150
 1644 0117 05       		.uleb128 .LEHE50-.LEHB50
 1645 0118 00       		.uleb128 0
 1646 0119 00       		.uleb128 0
 1647 011a AF0D     		.uleb128 .LEHB51-.LFB1150
 1648 011c 05       		.uleb128 .LEHE51-.LEHB51
 1649 011d 00       		.uleb128 0
 1650 011e 00       		.uleb128 0
 1651 011f C00D     		.uleb128 .LEHB52-.LFB1150
 1652 0121 40       		.uleb128 .LEHE52-.LEHB52
 1653 0122 8A0E     		.uleb128 .L77-.LFB1150
 1654 0124 00       		.uleb128 0
 1655 0125 800E     		.uleb128 .LEHB53-.LFB1150
 1656 0127 05       		.uleb128 .LEHE53-.LEHB53
 1657 0128 00       		.uleb128 0
 1658 0129 00       		.uleb128 0
 1659 012a 9C0E     		.uleb128 .LEHB54-.LFB1150
 1660 012c 05       		.uleb128 .LEHE54-.LEHB54
 1661 012d 00       		.uleb128 0
 1662 012e 00       		.uleb128 0
 1663 012f AD0E     		.uleb128 .LEHB55-.LFB1150
 1664 0131 40       		.uleb128 .LEHE55-.LEHB55
 1665 0132 F70E     		.uleb128 .L79-.LFB1150
 1666 0134 00       		.uleb128 0
 1667 0135 ED0E     		.uleb128 .LEHB56-.LFB1150
 1668 0137 05       		.uleb128 .LEHE56-.LEHB56
 1669 0138 00       		.uleb128 0
 1670 0139 00       		.uleb128 0
 1671 013a 890F     		.uleb128 .LEHB57-.LFB1150
 1672 013c 05       		.uleb128 .LEHE57-.LEHB57
 1673 013d 00       		.uleb128 0
 1674 013e 00       		.uleb128 0
 1675 013f 9A0F     		.uleb128 .LEHB58-.LFB1150
 1676 0141 40       		.uleb128 .LEHE58-.LEHB58
 1677 0142 E40F     		.uleb128 .L81-.LFB1150
 1678 0144 00       		.uleb128 0
 1679 0145 DA0F     		.uleb128 .LEHB59-.LFB1150
 1680 0147 05       		.uleb128 .LEHE59-.LEHB59
 1681 0148 00       		.uleb128 0
 1682 0149 00       		.uleb128 0
 1683 014a F60F     		.uleb128 .LEHB60-.LFB1150
 1684 014c 05       		.uleb128 .LEHE60-.LEHB60
 1685 014d 00       		.uleb128 0
 1686 014e 00       		.uleb128 0
 1687 014f 8710     		.uleb128 .LEHB61-.LFB1150
 1688 0151 40       		.uleb128 .LEHE61-.LEHB61
 1689 0152 D110     		.uleb128 .L83-.LFB1150
 1690 0154 00       		.uleb128 0
 1691 0155 C710     		.uleb128 .LEHB62-.LFB1150
 1692 0157 05       		.uleb128 .LEHE62-.LEHB62
 1693 0158 00       		.uleb128 0
 1694 0159 00       		.uleb128 0
 1695 015a E310     		.uleb128 .LEHB63-.LFB1150
 1696 015c 05       		.uleb128 .LEHE63-.LEHB63
 1697 015d 00       		.uleb128 0
 1698 015e 00       		.uleb128 0
 1699 015f F410     		.uleb128 .LEHB64-.LFB1150
 1700 0161 40       		.uleb128 .LEHE64-.LEHB64
 1701 0162 BE11     		.uleb128 .L85-.LFB1150
 1702 0164 00       		.uleb128 0
 1703 0165 B411     		.uleb128 .LEHB65-.LFB1150
 1704 0167 05       		.uleb128 .LEHE65-.LEHB65
 1705 0168 00       		.uleb128 0
 1706 0169 00       		.uleb128 0
 1707 016a D011     		.uleb128 .LEHB66-.LFB1150
 1708 016c 05       		.uleb128 .LEHE66-.LEHB66
 1709 016d 00       		.uleb128 0
 1710 016e 00       		.uleb128 0
 1711              	.LLSDACSE1150:
 1712 016f 01       		.byte	0x1
 1713 0170 00       		.byte	0
 1714 0171 000000   		.align 4
 1715 0174 00000000 		.long	0
 1716              	
 1717              	.LLSDATT1150:
 1718              		.text
 1720              		.section	.rodata
 1721              	.LC16:
 1722 01eb 46504741 		.string	"FPGALink_testShift"
 1722      4C696E6B 
 1722      5F746573 
 1722      74536869 
 1722      667400
 1723              		.section	.text._ZN22TestFPGALink_testShiftC2Ev,"axG",@progbits,_ZN22TestFPGALink_testShiftC5Ev,com
 1724              		.align 2
 1725              		.weak	_ZN22TestFPGALink_testShiftC2Ev
 1727              	_ZN22TestFPGALink_testShiftC2Ev:
 1728              	.LFB1152:
  89:testSvf2Csvf.cpp **** 
  90:testSvf2Csvf.cpp **** TEST(FPGALink_testShift) {
 1729              		.loc 3 90 1
 1730              		.cfi_startproc
 1731 0000 F30F1EFA 		endbr64
 1732 0004 55       		pushq	%rbp
 1733              		.cfi_def_cfa_offset 16
 1734              		.cfi_offset 6, -16
 1735 0005 4889E5   		movq	%rsp, %rbp
 1736              		.cfi_def_cfa_register 6
 1737 0008 53       		pushq	%rbx
 1738 0009 4883EC18 		subq	$24, %rsp
 1739              		.cfi_offset 3, -24
 1740 000d 48897DE8 		movq	%rdi, -24(%rbp)
 1741              	.LBB7:
 1742              		.loc 3 90 1
 1743 0011 488B5DE8 		movq	-24(%rbp), %rbx
 1744 0015 E8000000 		call	_ZN13UnitTestSuite12GetSuiteNameEv
 1744      00
 1745 001a 4889C2   		movq	%rax, %rdx
 1746 001d 41B85A00 		movl	$90, %r8d
 1746      0000
 1747 0023 488D0500 		leaq	.LC5(%rip), %rax
 1747      000000
 1748 002a 4889C1   		movq	%rax, %rcx
 1749 002d 488D0500 		leaq	.LC16(%rip), %rax
 1749      000000
 1750 0034 4889C6   		movq	%rax, %rsi
 1751 0037 4889DF   		movq	%rbx, %rdi
 1752 003a E8000000 		call	_ZN8UnitTest4TestC2EPKcS2_S2_i@PLT
 1752      00
 1753 003f 488D1500 		leaq	16+_ZTV22TestFPGALink_testShift(%rip), %rdx
 1753      000000
 1754 0046 488B45E8 		movq	-24(%rbp), %rax
 1755 004a 488910   		movq	%rdx, (%rax)
 1756              	.LBE7:
 1757 004d 90       		nop
 1758 004e 488B5DF8 		movq	-8(%rbp), %rbx
 1759 0052 C9       		leave
 1760              		.cfi_def_cfa 7, 8
 1761 0053 C3       		ret
 1762              		.cfi_endproc
 1763              	.LFE1152:
 1765              		.weak	_ZN22TestFPGALink_testShiftC1Ev
 1766              		.set	_ZN22TestFPGALink_testShiftC1Ev,_ZN22TestFPGALink_testShiftC2Ev
 1767              		.globl	testFPGALink_testShiftInstance
 1768              		.bss
 1769 0039 00000000 		.align 32
 1769      000000
 1772              	testFPGALink_testShiftInstance:
 1773 0040 00000000 		.zero	56
 1773      00000000 
 1773      00000000 
 1773      00000000 
 1773      00000000 
 1774              		.globl	adderFPGALink_testShift
 1777              	adderFPGALink_testShift:
 1778 0078 00       		.zero	1
 1779              		.section	.rodata
 1780              	.LC17:
 1781 01fe 303600   		.string	"06"
 1782              	.LC18:
 1783 0201 303000   		.string	"00"
 1784              	.LC19:
 1785 0204 46314332 		.string	"F1C2E093"
 1785      45303933 
 1785      00
 1786              	.LC20:
 1787 020d 30364631 		.string	"06F1C2E093"
 1787      43324530 
 1787      393300
 1788              	.LC21:
 1789 0218 303100   		.string	"01"
 1790              	.LC22:
 1791 021b 30444533 		.string	"0DE385C127"
 1791      38354331 
 1791      323700
 1792              	.LC23:
 1793 0226 303200   		.string	"02"
 1794              	.LC24:
 1795 0229 31424337 		.string	"1BC70B824E"
 1795      30423832 
 1795      344500
 1796              	.LC25:
 1797 0234 33373845 		.string	"378E17049E"
 1797      31373034 
 1797      394500
 1798              	.LC26:
 1799 023f 304100   		.string	"0A"
 1800              	.LC27:
 1801 0242 36463143 		.string	"6F1C2E093A"
 1801      32453039 
 1801      334100
 1802              	.LC28:
 1803 024d 313500   		.string	"15"
 1804              	.LC29:
 1805 0250 44453338 		.string	"DE385C1275"
 1805      35433132 
 1805      373500
 1806              	.LC30:
 1807 025b 323500   		.string	"25"
 1808              	.LC31:
 1809 025e 30314243 		.string	"01BC70B824E5"
 1809      37304238 
 1809      32344535 
 1809      00
 1810              	.LC32:
 1811 026b 373500   		.string	"75"
 1812              	.LC33:
 1813 026e 30333738 		.string	"0378E17049F5"
 1813      45313730 
 1813      34394635 
 1813      00
 1814              	.LC34:
 1815 027b 653500   		.string	"e5"
 1816              	.LC35:
 1817 027e 30364631 		.string	"06F1C2E093E5"
 1817      43324530 
 1817      39334535 
 1817      00
 1818              	.LC36:
 1819 028b 30313135 		.string	"0115"
 1819      00
 1820              	.LC37:
 1821 0290 30444533 		.string	"0DE385C12715"
 1821      38354331 
 1821      32373135 
 1821      00
 1822              	.LC38:
 1823 029d 30333135 		.string	"0315"
 1823      00
 1824              	.LC39:
 1825 02a2 31424337 		.string	"1BC70B824F15"
 1825      30423832 
 1825      34463135 
 1825      00
 1826              	.LC40:
 1827 02af 30373135 		.string	"0715"
 1827      00
 1828              	.LC41:
 1829 02b4 33373845 		.string	"378E17049F15"
 1829      31373034 
 1829      39463135 
 1829      00
 1830              	.LC42:
 1831 02c1 30633135 		.string	"0c15"
 1831      00
 1832              	.LC43:
 1833 02c6 36463143 		.string	"6F1C2E093C15"
 1833      32453039 
 1833      33433135 
 1833      00
 1834              	.LC44:
 1835 02d3 31633135 		.string	"1c15"
 1835      00
 1836              	.LC45:
 1837 02d8 44453338 		.string	"DE385C127C15"
 1837      35433132 
 1837      37433135 
 1837      00
 1838              	.LC46:
 1839 02e5 32633135 		.string	"2c15"
 1839      00
 1840              	.LC47:
 1841 02ea 30314243 		.string	"01BC70B824EC15"
 1841      37304238 
 1841      32344543 
 1841      313500
 1842              	.LC48:
 1843 02f9 34303135 		.string	"4015"
 1843      00
 1844              	.LC49:
 1845 02fe 30333738 		.string	"0378E17049C015"
 1845      45313730 
 1845      34394330 
 1845      313500
 1846              	.LC50:
 1847 030d 38303135 		.string	"8015"
 1847      00
 1848              	.LC51:
 1849 0312 30364631 		.string	"06F1C2E0938015"
 1849      43324530 
 1849      39333830 
 1849      313500
 1850              	.LC52:
 1851 0321 30313830 		.string	"018015"
 1851      313500
 1852              	.LC53:
 1853 0328 30444533 		.string	"0DE385C1278015"
 1853      38354331 
 1853      32373830 
 1853      313500
 1854              	.LC54:
 1855 0337 30414631 		.string	"0AF1C2E093"
 1855      43324530 
 1855      393300
 1856              	.LC55:
 1857 0342 31354533 		.string	"15E385C127"
 1857      38354331 
 1857      323700
 1858              	.LC56:
 1859 034d 32424337 		.string	"2BC70B824E"
 1859      30423832 
 1859      344500
 1860              	.LC57:
 1861 0358 35373845 		.string	"578E17049E"
 1861      31373034 
 1861      394500
 1862              	.LC58:
 1863 0363 41463143 		.string	"AF1C2E093A"
 1863      32453039 
 1863      334100
 1864              	.LC59:
 1865 036e 30313545 		.string	"015E385C1275"
 1865      33383543 
 1865      31323735 
 1865      00
 1866              	.LC60:
 1867 037b 30324243 		.string	"02BC70B824E5"
 1867      37304238 
 1867      32344535 
 1867      00
 1868              	.LC61:
 1869 0388 30353738 		.string	"0578E17049F5"
 1869      45313730 
 1869      34394635 
 1869      00
 1870              	.LC62:
 1871 0395 30414631 		.string	"0AF1C2E093E5"
 1871      43324530 
 1871      39334535 
 1871      00
 1872              	.LC63:
 1873 03a2 31354533 		.string	"15E385C12715"
 1873      38354331 
 1873      32373135 
 1873      00
 1874              	.LC64:
 1875 03af 32424337 		.string	"2BC70B824F15"
 1875      30423832 
 1875      34463135 
 1875      00
 1876              	.LC65:
 1877 03bc 35373845 		.string	"578E17049F15"
 1877      31373034 
 1877      39463135 
 1877      00
 1878              	.LC66:
 1879 03c9 41463143 		.string	"AF1C2E093C15"
 1879      32453039 
 1879      33433135 
 1879      00
 1880              	.LC67:
 1881 03d6 30313545 		.string	"015E385C127C15"
 1881      33383543 
 1881      31323743 
 1881      313500
 1882              	.LC68:
 1883 03e5 30324243 		.string	"02BC70B824EC15"
 1883      37304238 
 1883      32344543 
 1883      313500
 1884              	.LC69:
 1885 03f4 30353738 		.string	"0578E17049C015"
 1885      45313730 
 1885      34394330 
 1885      313500
 1886              	.LC70:
 1887 0403 30414631 		.string	"0AF1C2E0938015"
 1887      43324530 
 1887      39333830 
 1887      313500
 1888              	.LC71:
 1889 0412 31354533 		.string	"15E385C1278015"
 1889      38354331 
 1889      32373830 
 1889      313500
 1890              	.LC72:
 1891 0421 30313335 		.string	"0135"
 1891      00
 1892              	.LC73:
 1893 0426 30313335 		.string	"0135F1C2E093"
 1893      46314332 
 1893      45303933 
 1893      00
 1894              	.LC74:
 1895 0433 30323642 		.string	"026BE385C127"
 1895      45333835 
 1895      43313237 
 1895      00
 1896              	.LC75:
 1897 0440 30344437 		.string	"04D7C70B824E"
 1897      43373042 
 1897      38323445 
 1897      00
 1898              	.LC76:
 1899 044d 30394146 		.string	"09AF8E17049E"
 1899      38453137 
 1899      30343945 
 1899      00
 1900              	.LC77:
 1901 045a 31333546 		.string	"135F1C2E093A"
 1901      31433245 
 1901      30393341 
 1901      00
 1902              	.LC78:
 1903 0467 32364245 		.string	"26BE385C1275"
 1903      33383543 
 1903      31323735 
 1903      00
 1904              	.LC79:
 1905 0474 34443743 		.string	"4D7C70B824E5"
 1905      37304238 
 1905      32344535 
 1905      00
 1906              	.LC80:
 1907 0481 39414638 		.string	"9AF8E17049F5"
 1907      45313730 
 1907      34394635 
 1907      00
 1908              	.LC81:
 1909 048e 30313335 		.string	"0135F1C2E093E5"
 1909      46314332 
 1909      45303933 
 1909      453500
 1910              	.LC82:
 1911 049d 30323642 		.string	"026BE385C12715"
 1911      45333835 
 1911      43313237 
 1911      313500
 1912              	.LC83:
 1913 04ac 30344437 		.string	"04D7C70B824F15"
 1913      43373042 
 1913      38323446 
 1913      313500
 1914              	.LC84:
 1915 04bb 30394146 		.string	"09AF8E17049F15"
 1915      38453137 
 1915      30343946 
 1915      313500
 1916              	.LC85:
 1917 04ca 31333546 		.string	"135F1C2E093C15"
 1917      31433245 
 1917      30393343 
 1917      313500
 1918              	.LC86:
 1919 04d9 32364245 		.string	"26BE385C127C15"
 1919      33383543 
 1919      31323743 
 1919      313500
 1920              	.LC87:
 1921 04e8 34443743 		.string	"4D7C70B824EC15"
 1921      37304238 
 1921      32344543 
 1921      313500
 1922              	.LC88:
 1923 04f7 39414638 		.string	"9AF8E17049C015"
 1923      45313730 
 1923      34394330 
 1923      313500
 1924              	.LC89:
 1925 0506 30313335 		.string	"0135F1C2E0938015"
 1925      46314332 
 1925      45303933 
 1925      38303135 
 1925      00
 1926              	.LC90:
 1927 0517 30323642 		.string	"026BE385C1278015"
 1927      45333835 
 1927      43313237 
 1927      38303135 
 1927      00
 1928              	.LC91:
 1929 0528 37314332 		.string	"71C2E093"
 1929      45303933 
 1929      00
 1930              	.LC92:
 1931 0531 39414631 		.string	"9AF1C2E093"
 1931      43324530 
 1931      393300
 1932              	.LC93:
 1933 053c 30313335 		.string	"0135E385C127"
 1933      45333835 
 1933      43313237 
 1933      00
 1934              	.LC94:
 1935 0549 30323642 		.string	"026BC70B824E"
 1935      43373042 
 1935      38323445 
 1935      00
 1936              	.LC95:
 1937 0556 30344437 		.string	"04D78E17049E"
 1937      38453137 
 1937      30343945 
 1937      00
 1938              	.LC96:
 1939 0563 30394146 		.string	"09AF1C2E093A"
 1939      31433245 
 1939      30393341 
 1939      00
 1940              	.LC97:
 1941 0570 31333545 		.string	"135E385C1275"
 1941      33383543 
 1941      31323735 
 1941      00
 1942              	.LC98:
 1943 057d 32364243 		.string	"26BC70B824E5"
 1943      37304238 
 1943      32344535 
 1943      00
 1944              	.LC99:
 1945 058a 34443738 		.string	"4D78E17049F5"
 1945      45313730 
 1945      34394635 
 1945      00
 1946              	.LC100:
 1947 0597 39414631 		.string	"9AF1C2E093E5"
 1947      43324530 
 1947      39334535 
 1947      00
 1948              	.LC101:
 1949 05a4 30313335 		.string	"0135E385C12715"
 1949      45333835 
 1949      43313237 
 1949      313500
 1950              	.LC102:
 1951 05b3 30323642 		.string	"026BC70B824F15"
 1951      43373042 
 1951      38323446 
 1951      313500
 1952              	.LC103:
 1953 05c2 30344437 		.string	"04D78E17049F15"
 1953      38453137 
 1953      30343946 
 1953      313500
 1954              	.LC104:
 1955 05d1 30394146 		.string	"09AF1C2E093C15"
 1955      31433245 
 1955      30393343 
 1955      313500
 1956              	.LC105:
 1957 05e0 31333545 		.string	"135E385C127C15"
 1957      33383543 
 1957      31323743 
 1957      313500
 1958              	.LC106:
 1959 05ef 32364243 		.string	"26BC70B824EC15"
 1959      37304238 
 1959      32344543 
 1959      313500
 1960              	.LC107:
 1961 05fe 34443738 		.string	"4D78E17049C015"
 1961      45313730 
 1961      34394330 
 1961      313500
 1962              	.LC108:
 1963 060d 39414631 		.string	"9AF1C2E0938015"
 1963      43324530 
 1963      39333830 
 1963      313500
 1964              	.LC109:
 1965 061c 30313335 		.string	"0135E385C1278015"
 1965      45333835 
 1965      43313237 
 1965      38303135 
 1965      00
 1966              	.LC110:
 1967 062d 00       		.string	""
 1968              	.LC111:
 1969 062e 35343233 		.string	"5423DF3A8F129B2C91B9425D"
 1969      44463341 
 1969      38463132 
 1969      39423243 
 1969      39314239 
 1970              	.LC112:
 1971 0647 44343233 		.string	"D423DF3A8F129B2C91B9425D"
 1971      44463341 
 1971      38463132 
 1971      39423243 
 1971      39314239 
 1972              	.LC113:
 1973 0660 41383437 		.string	"A847BE751E253659237284BB"
 1973      42453735 
 1973      31453235 
 1973      33363539 
 1973      32333732 
 1974              		.text
 1975 0db3 90       		.align 2
 1976              		.globl	_ZNK22TestFPGALink_testShift7RunImplEv
 1978              	_ZNK22TestFPGALink_testShift7RunImplEv:
 1979              	.LFB1154:
 1980              		.loc 3 90 26
 1981              		.cfi_startproc
 1982 0db4 F30F1EFA 		endbr64
 1983 0db8 55       		pushq	%rbp
 1984              		.cfi_def_cfa_offset 16
 1985              		.cfi_offset 6, -16
 1986 0db9 4889E5   		movq	%rsp, %rbp
 1987              		.cfi_def_cfa_register 6
 1988 0dbc 4883EC10 		subq	$16, %rsp
 1989 0dc0 48897DF8 		movq	%rdi, -8(%rbp)
  91:testSvf2Csvf.cpp **** 	testShift(
 1990              		.loc 3 91 11
 1991 0dc4 4883EC08 		subq	$8, %rsp
 1992 0dc8 488D0500 		leaq	.LC20(%rip), %rax
 1992      000000
 1993 0dcf 50       		pushq	%rax
 1994 0dd0 41B90300 		movl	$3, %r9d
 1994      0000
 1995 0dd6 4C8D0500 		leaq	.LC17(%rip), %r8
 1995      000000
 1996 0ddd B9000000 		movl	$0, %ecx
 1996      00
 1997 0de2 488D0500 		leaq	.LC18(%rip), %rax
 1997      000000
 1998 0de9 4889C2   		movq	%rax, %rdx
 1999 0dec BE200000 		movl	$32, %esi
 1999      00
 2000 0df1 488D0500 		leaq	.LC19(%rip), %rax
 2000      000000
 2001 0df8 4889C7   		movq	%rax, %rdi
 2002 0dfb E8000000 		call	_Z9testShiftPKcjS0_jS0_jS0_
 2002      00
 2003 0e00 4883C410 		addq	$16, %rsp
  92:testSvf2Csvf.cpp **** 		"F1C2E093", 32,
  93:testSvf2Csvf.cpp **** 		"00", 0,
  94:testSvf2Csvf.cpp **** 		"06", 3,
  95:testSvf2Csvf.cpp **** 		"06F1C2E093"
  96:testSvf2Csvf.cpp **** 	);
  97:testSvf2Csvf.cpp **** 	testShift(
 2004              		.loc 3 97 11
 2005 0e04 4883EC08 		subq	$8, %rsp
 2006 0e08 488D0500 		leaq	.LC22(%rip), %rax
 2006      000000
 2007 0e0f 50       		pushq	%rax
 2008 0e10 41B90300 		movl	$3, %r9d
 2008      0000
 2009 0e16 4C8D0500 		leaq	.LC17(%rip), %r8
 2009      000000
 2010 0e1d B9010000 		movl	$1, %ecx
 2010      00
 2011 0e22 488D0500 		leaq	.LC21(%rip), %rax
 2011      000000
 2012 0e29 4889C2   		movq	%rax, %rdx
 2013 0e2c BE200000 		movl	$32, %esi
 2013      00
 2014 0e31 488D0500 		leaq	.LC19(%rip), %rax
 2014      000000
 2015 0e38 4889C7   		movq	%rax, %rdi
 2016 0e3b E8000000 		call	_Z9testShiftPKcjS0_jS0_jS0_
 2016      00
 2017 0e40 4883C410 		addq	$16, %rsp
  98:testSvf2Csvf.cpp **** 		"F1C2E093", 32,
  99:testSvf2Csvf.cpp **** 		"01", 1,
 100:testSvf2Csvf.cpp **** 		"06", 3,
 101:testSvf2Csvf.cpp **** 		"0DE385C127"
 102:testSvf2Csvf.cpp **** 	);
 103:testSvf2Csvf.cpp **** 	testShift(
 2018              		.loc 3 103 11
 2019 0e44 4883EC08 		subq	$8, %rsp
 2020 0e48 488D0500 		leaq	.LC24(%rip), %rax
 2020      000000
 2021 0e4f 50       		pushq	%rax
 2022 0e50 41B90300 		movl	$3, %r9d
 2022      0000
 2023 0e56 4C8D0500 		leaq	.LC17(%rip), %r8
 2023      000000
 2024 0e5d B9020000 		movl	$2, %ecx
 2024      00
 2025 0e62 488D0500 		leaq	.LC23(%rip), %rax
 2025      000000
 2026 0e69 4889C2   		movq	%rax, %rdx
 2027 0e6c BE200000 		movl	$32, %esi
 2027      00
 2028 0e71 488D0500 		leaq	.LC19(%rip), %rax
 2028      000000
 2029 0e78 4889C7   		movq	%rax, %rdi
 2030 0e7b E8000000 		call	_Z9testShiftPKcjS0_jS0_jS0_
 2030      00
 2031 0e80 4883C410 		addq	$16, %rsp
 104:testSvf2Csvf.cpp **** 		"F1C2E093", 32,
 105:testSvf2Csvf.cpp **** 		"02", 2,
 106:testSvf2Csvf.cpp **** 		"06", 3,
 107:testSvf2Csvf.cpp **** 		"1BC70B824E"
 108:testSvf2Csvf.cpp **** 	);
 109:testSvf2Csvf.cpp **** 	testShift(
 2032              		.loc 3 109 11
 2033 0e84 4883EC08 		subq	$8, %rsp
 2034 0e88 488D0500 		leaq	.LC25(%rip), %rax
 2034      000000
 2035 0e8f 50       		pushq	%rax
 2036 0e90 41B90300 		movl	$3, %r9d
 2036      0000
 2037 0e96 4C8D0500 		leaq	.LC17(%rip), %r8
 2037      000000
 2038 0e9d B9030000 		movl	$3, %ecx
 2038      00
 2039 0ea2 488D0500 		leaq	.LC17(%rip), %rax
 2039      000000
 2040 0ea9 4889C2   		movq	%rax, %rdx
 2041 0eac BE200000 		movl	$32, %esi
 2041      00
 2042 0eb1 488D0500 		leaq	.LC19(%rip), %rax
 2042      000000
 2043 0eb8 4889C7   		movq	%rax, %rdi
 2044 0ebb E8000000 		call	_Z9testShiftPKcjS0_jS0_jS0_
 2044      00
 2045 0ec0 4883C410 		addq	$16, %rsp
 110:testSvf2Csvf.cpp **** 		"F1C2E093", 32,
 111:testSvf2Csvf.cpp **** 		"06", 3,
 112:testSvf2Csvf.cpp **** 		"06", 3,
 113:testSvf2Csvf.cpp **** 		"378E17049E"
 114:testSvf2Csvf.cpp **** 	);
 115:testSvf2Csvf.cpp **** 	testShift(
 2046              		.loc 3 115 11
 2047 0ec4 4883EC08 		subq	$8, %rsp
 2048 0ec8 488D0500 		leaq	.LC27(%rip), %rax
 2048      000000
 2049 0ecf 50       		pushq	%rax
 2050 0ed0 41B90300 		movl	$3, %r9d
 2050      0000
 2051 0ed6 4C8D0500 		leaq	.LC17(%rip), %r8
 2051      000000
 2052 0edd B9040000 		movl	$4, %ecx
 2052      00
 2053 0ee2 488D0500 		leaq	.LC26(%rip), %rax
 2053      000000
 2054 0ee9 4889C2   		movq	%rax, %rdx
 2055 0eec BE200000 		movl	$32, %esi
 2055      00
 2056 0ef1 488D0500 		leaq	.LC19(%rip), %rax
 2056      000000
 2057 0ef8 4889C7   		movq	%rax, %rdi
 2058 0efb E8000000 		call	_Z9testShiftPKcjS0_jS0_jS0_
 2058      00
 2059 0f00 4883C410 		addq	$16, %rsp
 116:testSvf2Csvf.cpp **** 		"F1C2E093", 32,
 117:testSvf2Csvf.cpp **** 		"0A", 4,
 118:testSvf2Csvf.cpp **** 		"06", 3,
 119:testSvf2Csvf.cpp **** 		"6F1C2E093A"
 120:testSvf2Csvf.cpp **** 	);
 121:testSvf2Csvf.cpp **** 	testShift(
 2060              		.loc 3 121 11
 2061 0f04 4883EC08 		subq	$8, %rsp
 2062 0f08 488D0500 		leaq	.LC29(%rip), %rax
 2062      000000
 2063 0f0f 50       		pushq	%rax
 2064 0f10 41B90300 		movl	$3, %r9d
 2064      0000
 2065 0f16 4C8D0500 		leaq	.LC17(%rip), %r8
 2065      000000
 2066 0f1d B9050000 		movl	$5, %ecx
 2066      00
 2067 0f22 488D0500 		leaq	.LC28(%rip), %rax
 2067      000000
 2068 0f29 4889C2   		movq	%rax, %rdx
 2069 0f2c BE200000 		movl	$32, %esi
 2069      00
 2070 0f31 488D0500 		leaq	.LC19(%rip), %rax
 2070      000000
 2071 0f38 4889C7   		movq	%rax, %rdi
 2072 0f3b E8000000 		call	_Z9testShiftPKcjS0_jS0_jS0_
 2072      00
 2073 0f40 4883C410 		addq	$16, %rsp
 122:testSvf2Csvf.cpp **** 		"F1C2E093", 32,
 123:testSvf2Csvf.cpp **** 		"15", 5,
 124:testSvf2Csvf.cpp **** 		"06", 3,
 125:testSvf2Csvf.cpp **** 		"DE385C1275"
 126:testSvf2Csvf.cpp **** 	);
 127:testSvf2Csvf.cpp **** 	testShift(
 2074              		.loc 3 127 11
 2075 0f44 4883EC08 		subq	$8, %rsp
 2076 0f48 488D0500 		leaq	.LC31(%rip), %rax
 2076      000000
 2077 0f4f 50       		pushq	%rax
 2078 0f50 41B90300 		movl	$3, %r9d
 2078      0000
 2079 0f56 4C8D0500 		leaq	.LC17(%rip), %r8
 2079      000000
 2080 0f5d B9060000 		movl	$6, %ecx
 2080      00
 2081 0f62 488D0500 		leaq	.LC30(%rip), %rax
 2081      000000
 2082 0f69 4889C2   		movq	%rax, %rdx
 2083 0f6c BE200000 		movl	$32, %esi
 2083      00
 2084 0f71 488D0500 		leaq	.LC19(%rip), %rax
 2084      000000
 2085 0f78 4889C7   		movq	%rax, %rdi
 2086 0f7b E8000000 		call	_Z9testShiftPKcjS0_jS0_jS0_
 2086      00
 2087 0f80 4883C410 		addq	$16, %rsp
 128:testSvf2Csvf.cpp **** 		"F1C2E093", 32,
 129:testSvf2Csvf.cpp **** 		"25", 6,
 130:testSvf2Csvf.cpp **** 		"06", 3,
 131:testSvf2Csvf.cpp **** 		"01BC70B824E5"
 132:testSvf2Csvf.cpp **** 	);
 133:testSvf2Csvf.cpp **** 	testShift(
 2088              		.loc 3 133 11
 2089 0f84 4883EC08 		subq	$8, %rsp
 2090 0f88 488D0500 		leaq	.LC33(%rip), %rax
 2090      000000
 2091 0f8f 50       		pushq	%rax
 2092 0f90 41B90300 		movl	$3, %r9d
 2092      0000
 2093 0f96 4C8D0500 		leaq	.LC17(%rip), %r8
 2093      000000
 2094 0f9d B9070000 		movl	$7, %ecx
 2094      00
 2095 0fa2 488D0500 		leaq	.LC32(%rip), %rax
 2095      000000
 2096 0fa9 4889C2   		movq	%rax, %rdx
 2097 0fac BE200000 		movl	$32, %esi
 2097      00
 2098 0fb1 488D0500 		leaq	.LC19(%rip), %rax
 2098      000000
 2099 0fb8 4889C7   		movq	%rax, %rdi
 2100 0fbb E8000000 		call	_Z9testShiftPKcjS0_jS0_jS0_
 2100      00
 2101 0fc0 4883C410 		addq	$16, %rsp
 134:testSvf2Csvf.cpp **** 		"F1C2E093", 32,
 135:testSvf2Csvf.cpp **** 		"75", 7,
 136:testSvf2Csvf.cpp **** 		"06", 3,
 137:testSvf2Csvf.cpp **** 		"0378E17049F5"
 138:testSvf2Csvf.cpp **** 	);
 139:testSvf2Csvf.cpp **** 	testShift(
 2102              		.loc 3 139 11
 2103 0fc4 4883EC08 		subq	$8, %rsp
 2104 0fc8 488D0500 		leaq	.LC35(%rip), %rax
 2104      000000
 2105 0fcf 50       		pushq	%rax
 2106 0fd0 41B90300 		movl	$3, %r9d
 2106      0000
 2107 0fd6 4C8D0500 		leaq	.LC17(%rip), %r8
 2107      000000
 2108 0fdd B9080000 		movl	$8, %ecx
 2108      00
 2109 0fe2 488D0500 		leaq	.LC34(%rip), %rax
 2109      000000
 2110 0fe9 4889C2   		movq	%rax, %rdx
 2111 0fec BE200000 		movl	$32, %esi
 2111      00
 2112 0ff1 488D0500 		leaq	.LC19(%rip), %rax
 2112      000000
 2113 0ff8 4889C7   		movq	%rax, %rdi
 2114 0ffb E8000000 		call	_Z9testShiftPKcjS0_jS0_jS0_
 2114      00
 2115 1000 4883C410 		addq	$16, %rsp
 140:testSvf2Csvf.cpp **** 		"F1C2E093", 32,
 141:testSvf2Csvf.cpp **** 		"e5", 8,
 142:testSvf2Csvf.cpp **** 		"06", 3,
 143:testSvf2Csvf.cpp **** 		"06F1C2E093E5"
 144:testSvf2Csvf.cpp **** 	);
 145:testSvf2Csvf.cpp **** 	testShift(
 2116              		.loc 3 145 11
 2117 1004 4883EC08 		subq	$8, %rsp
 2118 1008 488D0500 		leaq	.LC37(%rip), %rax
 2118      000000
 2119 100f 50       		pushq	%rax
 2120 1010 41B90300 		movl	$3, %r9d
 2120      0000
 2121 1016 4C8D0500 		leaq	.LC17(%rip), %r8
 2121      000000
 2122 101d B9090000 		movl	$9, %ecx
 2122      00
 2123 1022 488D0500 		leaq	.LC36(%rip), %rax
 2123      000000
 2124 1029 4889C2   		movq	%rax, %rdx
 2125 102c BE200000 		movl	$32, %esi
 2125      00
 2126 1031 488D0500 		leaq	.LC19(%rip), %rax
 2126      000000
 2127 1038 4889C7   		movq	%rax, %rdi
 2128 103b E8000000 		call	_Z9testShiftPKcjS0_jS0_jS0_
 2128      00
 2129 1040 4883C410 		addq	$16, %rsp
 146:testSvf2Csvf.cpp **** 		"F1C2E093", 32,
 147:testSvf2Csvf.cpp **** 		"0115", 9,
 148:testSvf2Csvf.cpp **** 		"06", 3,
 149:testSvf2Csvf.cpp **** 		"0DE385C12715"
 150:testSvf2Csvf.cpp **** 	);
 151:testSvf2Csvf.cpp **** 	testShift(
 2130              		.loc 3 151 11
 2131 1044 4883EC08 		subq	$8, %rsp
 2132 1048 488D0500 		leaq	.LC39(%rip), %rax
 2132      000000
 2133 104f 50       		pushq	%rax
 2134 1050 41B90300 		movl	$3, %r9d
 2134      0000
 2135 1056 4C8D0500 		leaq	.LC17(%rip), %r8
 2135      000000
 2136 105d B90A0000 		movl	$10, %ecx
 2136      00
 2137 1062 488D0500 		leaq	.LC38(%rip), %rax
 2137      000000
 2138 1069 4889C2   		movq	%rax, %rdx
 2139 106c BE200000 		movl	$32, %esi
 2139      00
 2140 1071 488D0500 		leaq	.LC19(%rip), %rax
 2140      000000
 2141 1078 4889C7   		movq	%rax, %rdi
 2142 107b E8000000 		call	_Z9testShiftPKcjS0_jS0_jS0_
 2142      00
 2143 1080 4883C410 		addq	$16, %rsp
 152:testSvf2Csvf.cpp **** 		"F1C2E093", 32,
 153:testSvf2Csvf.cpp **** 		"0315", 10,
 154:testSvf2Csvf.cpp **** 		"06", 3,
 155:testSvf2Csvf.cpp **** 		"1BC70B824F15"
 156:testSvf2Csvf.cpp **** 	);
 157:testSvf2Csvf.cpp **** 	testShift(
 2144              		.loc 3 157 11
 2145 1084 4883EC08 		subq	$8, %rsp
 2146 1088 488D0500 		leaq	.LC41(%rip), %rax
 2146      000000
 2147 108f 50       		pushq	%rax
 2148 1090 41B90300 		movl	$3, %r9d
 2148      0000
 2149 1096 4C8D0500 		leaq	.LC17(%rip), %r8
 2149      000000
 2150 109d B90B0000 		movl	$11, %ecx
 2150      00
 2151 10a2 488D0500 		leaq	.LC40(%rip), %rax
 2151      000000
 2152 10a9 4889C2   		movq	%rax, %rdx
 2153 10ac BE200000 		movl	$32, %esi
 2153      00
 2154 10b1 488D0500 		leaq	.LC19(%rip), %rax
 2154      000000
 2155 10b8 4889C7   		movq	%rax, %rdi
 2156 10bb E8000000 		call	_Z9testShiftPKcjS0_jS0_jS0_
 2156      00
 2157 10c0 4883C410 		addq	$16, %rsp
 158:testSvf2Csvf.cpp **** 		"F1C2E093", 32,
 159:testSvf2Csvf.cpp **** 		"0715", 11,
 160:testSvf2Csvf.cpp **** 		"06", 3,
 161:testSvf2Csvf.cpp **** 		"378E17049F15"
 162:testSvf2Csvf.cpp **** 	);
 163:testSvf2Csvf.cpp **** 	testShift(
 2158              		.loc 3 163 11
 2159 10c4 4883EC08 		subq	$8, %rsp
 2160 10c8 488D0500 		leaq	.LC43(%rip), %rax
 2160      000000
 2161 10cf 50       		pushq	%rax
 2162 10d0 41B90300 		movl	$3, %r9d
 2162      0000
 2163 10d6 4C8D0500 		leaq	.LC17(%rip), %r8
 2163      000000
 2164 10dd B90C0000 		movl	$12, %ecx
 2164      00
 2165 10e2 488D0500 		leaq	.LC42(%rip), %rax
 2165      000000
 2166 10e9 4889C2   		movq	%rax, %rdx
 2167 10ec BE200000 		movl	$32, %esi
 2167      00
 2168 10f1 488D0500 		leaq	.LC19(%rip), %rax
 2168      000000
 2169 10f8 4889C7   		movq	%rax, %rdi
 2170 10fb E8000000 		call	_Z9testShiftPKcjS0_jS0_jS0_
 2170      00
 2171 1100 4883C410 		addq	$16, %rsp
 164:testSvf2Csvf.cpp **** 		"F1C2E093", 32,
 165:testSvf2Csvf.cpp **** 		"0c15", 12,
 166:testSvf2Csvf.cpp **** 		"06", 3,
 167:testSvf2Csvf.cpp **** 		"6F1C2E093C15"
 168:testSvf2Csvf.cpp **** 	);
 169:testSvf2Csvf.cpp **** 	testShift(
 2172              		.loc 3 169 11
 2173 1104 4883EC08 		subq	$8, %rsp
 2174 1108 488D0500 		leaq	.LC45(%rip), %rax
 2174      000000
 2175 110f 50       		pushq	%rax
 2176 1110 41B90300 		movl	$3, %r9d
 2176      0000
 2177 1116 4C8D0500 		leaq	.LC17(%rip), %r8
 2177      000000
 2178 111d B90D0000 		movl	$13, %ecx
 2178      00
 2179 1122 488D0500 		leaq	.LC44(%rip), %rax
 2179      000000
 2180 1129 4889C2   		movq	%rax, %rdx
 2181 112c BE200000 		movl	$32, %esi
 2181      00
 2182 1131 488D0500 		leaq	.LC19(%rip), %rax
 2182      000000
 2183 1138 4889C7   		movq	%rax, %rdi
 2184 113b E8000000 		call	_Z9testShiftPKcjS0_jS0_jS0_
 2184      00
 2185 1140 4883C410 		addq	$16, %rsp
 170:testSvf2Csvf.cpp **** 		"F1C2E093", 32,
 171:testSvf2Csvf.cpp **** 		"1c15", 13,
 172:testSvf2Csvf.cpp **** 		"06", 3,
 173:testSvf2Csvf.cpp **** 		"DE385C127C15"
 174:testSvf2Csvf.cpp **** 	);
 175:testSvf2Csvf.cpp **** 	testShift(
 2186              		.loc 3 175 11
 2187 1144 4883EC08 		subq	$8, %rsp
 2188 1148 488D0500 		leaq	.LC47(%rip), %rax
 2188      000000
 2189 114f 50       		pushq	%rax
 2190 1150 41B90300 		movl	$3, %r9d
 2190      0000
 2191 1156 4C8D0500 		leaq	.LC17(%rip), %r8
 2191      000000
 2192 115d B90E0000 		movl	$14, %ecx
 2192      00
 2193 1162 488D0500 		leaq	.LC46(%rip), %rax
 2193      000000
 2194 1169 4889C2   		movq	%rax, %rdx
 2195 116c BE200000 		movl	$32, %esi
 2195      00
 2196 1171 488D0500 		leaq	.LC19(%rip), %rax
 2196      000000
 2197 1178 4889C7   		movq	%rax, %rdi
 2198 117b E8000000 		call	_Z9testShiftPKcjS0_jS0_jS0_
 2198      00
 2199 1180 4883C410 		addq	$16, %rsp
 176:testSvf2Csvf.cpp **** 		"F1C2E093", 32,
 177:testSvf2Csvf.cpp **** 		"2c15", 14,
 178:testSvf2Csvf.cpp **** 		"06", 3,
 179:testSvf2Csvf.cpp **** 		"01BC70B824EC15"
 180:testSvf2Csvf.cpp **** 	);
 181:testSvf2Csvf.cpp **** 	testShift(
 2200              		.loc 3 181 11
 2201 1184 4883EC08 		subq	$8, %rsp
 2202 1188 488D0500 		leaq	.LC49(%rip), %rax
 2202      000000
 2203 118f 50       		pushq	%rax
 2204 1190 41B90300 		movl	$3, %r9d
 2204      0000
 2205 1196 4C8D0500 		leaq	.LC17(%rip), %r8
 2205      000000
 2206 119d B90F0000 		movl	$15, %ecx
 2206      00
 2207 11a2 488D0500 		leaq	.LC48(%rip), %rax
 2207      000000
 2208 11a9 4889C2   		movq	%rax, %rdx
 2209 11ac BE200000 		movl	$32, %esi
 2209      00
 2210 11b1 488D0500 		leaq	.LC19(%rip), %rax
 2210      000000
 2211 11b8 4889C7   		movq	%rax, %rdi
 2212 11bb E8000000 		call	_Z9testShiftPKcjS0_jS0_jS0_
 2212      00
 2213 11c0 4883C410 		addq	$16, %rsp
 182:testSvf2Csvf.cpp **** 		"F1C2E093", 32,
 183:testSvf2Csvf.cpp **** 		"4015", 15,
 184:testSvf2Csvf.cpp **** 		"06", 3,
 185:testSvf2Csvf.cpp **** 		"0378E17049C015"
 186:testSvf2Csvf.cpp **** 	);
 187:testSvf2Csvf.cpp **** 	testShift(
 2214              		.loc 3 187 11
 2215 11c4 4883EC08 		subq	$8, %rsp
 2216 11c8 488D0500 		leaq	.LC51(%rip), %rax
 2216      000000
 2217 11cf 50       		pushq	%rax
 2218 11d0 41B90300 		movl	$3, %r9d
 2218      0000
 2219 11d6 4C8D0500 		leaq	.LC17(%rip), %r8
 2219      000000
 2220 11dd B9100000 		movl	$16, %ecx
 2220      00
 2221 11e2 488D0500 		leaq	.LC50(%rip), %rax
 2221      000000
 2222 11e9 4889C2   		movq	%rax, %rdx
 2223 11ec BE200000 		movl	$32, %esi
 2223      00
 2224 11f1 488D0500 		leaq	.LC19(%rip), %rax
 2224      000000
 2225 11f8 4889C7   		movq	%rax, %rdi
 2226 11fb E8000000 		call	_Z9testShiftPKcjS0_jS0_jS0_
 2226      00
 2227 1200 4883C410 		addq	$16, %rsp
 188:testSvf2Csvf.cpp **** 		"F1C2E093", 32,
 189:testSvf2Csvf.cpp **** 		"8015", 16,
 190:testSvf2Csvf.cpp **** 		"06", 3,
 191:testSvf2Csvf.cpp **** 		"06F1C2E0938015"
 192:testSvf2Csvf.cpp **** 	);
 193:testSvf2Csvf.cpp **** 	testShift(
 2228              		.loc 3 193 11
 2229 1204 4883EC08 		subq	$8, %rsp
 2230 1208 488D0500 		leaq	.LC53(%rip), %rax
 2230      000000
 2231 120f 50       		pushq	%rax
 2232 1210 41B90300 		movl	$3, %r9d
 2232      0000
 2233 1216 4C8D0500 		leaq	.LC17(%rip), %r8
 2233      000000
 2234 121d B9110000 		movl	$17, %ecx
 2234      00
 2235 1222 488D0500 		leaq	.LC52(%rip), %rax
 2235      000000
 2236 1229 4889C2   		movq	%rax, %rdx
 2237 122c BE200000 		movl	$32, %esi
 2237      00
 2238 1231 488D0500 		leaq	.LC19(%rip), %rax
 2238      000000
 2239 1238 4889C7   		movq	%rax, %rdi
 2240 123b E8000000 		call	_Z9testShiftPKcjS0_jS0_jS0_
 2240      00
 2241 1240 4883C410 		addq	$16, %rsp
 194:testSvf2Csvf.cpp **** 		"F1C2E093", 32,
 195:testSvf2Csvf.cpp **** 		"018015", 17,
 196:testSvf2Csvf.cpp **** 		"06", 3,
 197:testSvf2Csvf.cpp **** 		"0DE385C1278015"
 198:testSvf2Csvf.cpp **** 	);
 199:testSvf2Csvf.cpp **** 	testShift(
 2242              		.loc 3 199 11
 2243 1244 4883EC08 		subq	$8, %rsp
 2244 1248 488D0500 		leaq	.LC54(%rip), %rax
 2244      000000
 2245 124f 50       		pushq	%rax
 2246 1250 41B90400 		movl	$4, %r9d
 2246      0000
 2247 1256 4C8D0500 		leaq	.LC26(%rip), %r8
 2247      000000
 2248 125d B9000000 		movl	$0, %ecx
 2248      00
 2249 1262 488D0500 		leaq	.LC18(%rip), %rax
 2249      000000
 2250 1269 4889C2   		movq	%rax, %rdx
 2251 126c BE200000 		movl	$32, %esi
 2251      00
 2252 1271 488D0500 		leaq	.LC19(%rip), %rax
 2252      000000
 2253 1278 4889C7   		movq	%rax, %rdi
 2254 127b E8000000 		call	_Z9testShiftPKcjS0_jS0_jS0_
 2254      00
 2255 1280 4883C410 		addq	$16, %rsp
 200:testSvf2Csvf.cpp **** 		"F1C2E093", 32,
 201:testSvf2Csvf.cpp **** 		"00", 0,
 202:testSvf2Csvf.cpp **** 		"0A", 4,
 203:testSvf2Csvf.cpp **** 		"0AF1C2E093"
 204:testSvf2Csvf.cpp **** 	);
 205:testSvf2Csvf.cpp **** 	testShift(
 2256              		.loc 3 205 11
 2257 1284 4883EC08 		subq	$8, %rsp
 2258 1288 488D0500 		leaq	.LC55(%rip), %rax
 2258      000000
 2259 128f 50       		pushq	%rax
 2260 1290 41B90400 		movl	$4, %r9d
 2260      0000
 2261 1296 4C8D0500 		leaq	.LC26(%rip), %r8
 2261      000000
 2262 129d B9010000 		movl	$1, %ecx
 2262      00
 2263 12a2 488D0500 		leaq	.LC21(%rip), %rax
 2263      000000
 2264 12a9 4889C2   		movq	%rax, %rdx
 2265 12ac BE200000 		movl	$32, %esi
 2265      00
 2266 12b1 488D0500 		leaq	.LC19(%rip), %rax
 2266      000000
 2267 12b8 4889C7   		movq	%rax, %rdi
 2268 12bb E8000000 		call	_Z9testShiftPKcjS0_jS0_jS0_
 2268      00
 2269 12c0 4883C410 		addq	$16, %rsp
 206:testSvf2Csvf.cpp **** 		"F1C2E093", 32,
 207:testSvf2Csvf.cpp **** 		"01", 1,
 208:testSvf2Csvf.cpp **** 		"0A", 4,
 209:testSvf2Csvf.cpp **** 		"15E385C127"
 210:testSvf2Csvf.cpp **** 	);
 211:testSvf2Csvf.cpp **** 	testShift(
 2270              		.loc 3 211 11
 2271 12c4 4883EC08 		subq	$8, %rsp
 2272 12c8 488D0500 		leaq	.LC56(%rip), %rax
 2272      000000
 2273 12cf 50       		pushq	%rax
 2274 12d0 41B90400 		movl	$4, %r9d
 2274      0000
 2275 12d6 4C8D0500 		leaq	.LC26(%rip), %r8
 2275      000000
 2276 12dd B9020000 		movl	$2, %ecx
 2276      00
 2277 12e2 488D0500 		leaq	.LC23(%rip), %rax
 2277      000000
 2278 12e9 4889C2   		movq	%rax, %rdx
 2279 12ec BE200000 		movl	$32, %esi
 2279      00
 2280 12f1 488D0500 		leaq	.LC19(%rip), %rax
 2280      000000
 2281 12f8 4889C7   		movq	%rax, %rdi
 2282 12fb E8000000 		call	_Z9testShiftPKcjS0_jS0_jS0_
 2282      00
 2283 1300 4883C410 		addq	$16, %rsp
 212:testSvf2Csvf.cpp **** 		"F1C2E093", 32,
 213:testSvf2Csvf.cpp **** 		"02", 2,
 214:testSvf2Csvf.cpp **** 		"0A", 4,
 215:testSvf2Csvf.cpp **** 		"2BC70B824E"
 216:testSvf2Csvf.cpp **** 	);
 217:testSvf2Csvf.cpp **** 	testShift(
 2284              		.loc 3 217 11
 2285 1304 4883EC08 		subq	$8, %rsp
 2286 1308 488D0500 		leaq	.LC57(%rip), %rax
 2286      000000
 2287 130f 50       		pushq	%rax
 2288 1310 41B90400 		movl	$4, %r9d
 2288      0000
 2289 1316 4C8D0500 		leaq	.LC26(%rip), %r8
 2289      000000
 2290 131d B9030000 		movl	$3, %ecx
 2290      00
 2291 1322 488D0500 		leaq	.LC17(%rip), %rax
 2291      000000
 2292 1329 4889C2   		movq	%rax, %rdx
 2293 132c BE200000 		movl	$32, %esi
 2293      00
 2294 1331 488D0500 		leaq	.LC19(%rip), %rax
 2294      000000
 2295 1338 4889C7   		movq	%rax, %rdi
 2296 133b E8000000 		call	_Z9testShiftPKcjS0_jS0_jS0_
 2296      00
 2297 1340 4883C410 		addq	$16, %rsp
 218:testSvf2Csvf.cpp **** 		"F1C2E093", 32,
 219:testSvf2Csvf.cpp **** 		"06", 3,
 220:testSvf2Csvf.cpp **** 		"0A", 4,
 221:testSvf2Csvf.cpp **** 		"578E17049E"
 222:testSvf2Csvf.cpp **** 	);
 223:testSvf2Csvf.cpp **** 	testShift(
 2298              		.loc 3 223 11
 2299 1344 4883EC08 		subq	$8, %rsp
 2300 1348 488D0500 		leaq	.LC58(%rip), %rax
 2300      000000
 2301 134f 50       		pushq	%rax
 2302 1350 41B90400 		movl	$4, %r9d
 2302      0000
 2303 1356 4C8D0500 		leaq	.LC26(%rip), %r8
 2303      000000
 2304 135d B9040000 		movl	$4, %ecx
 2304      00
 2305 1362 488D0500 		leaq	.LC26(%rip), %rax
 2305      000000
 2306 1369 4889C2   		movq	%rax, %rdx
 2307 136c BE200000 		movl	$32, %esi
 2307      00
 2308 1371 488D0500 		leaq	.LC19(%rip), %rax
 2308      000000
 2309 1378 4889C7   		movq	%rax, %rdi
 2310 137b E8000000 		call	_Z9testShiftPKcjS0_jS0_jS0_
 2310      00
 2311 1380 4883C410 		addq	$16, %rsp
 224:testSvf2Csvf.cpp **** 		"F1C2E093", 32,
 225:testSvf2Csvf.cpp **** 		"0A", 4,
 226:testSvf2Csvf.cpp **** 		"0A", 4,
 227:testSvf2Csvf.cpp **** 		"AF1C2E093A"
 228:testSvf2Csvf.cpp **** 	);
 229:testSvf2Csvf.cpp **** 	testShift(
 2312              		.loc 3 229 11
 2313 1384 4883EC08 		subq	$8, %rsp
 2314 1388 488D0500 		leaq	.LC59(%rip), %rax
 2314      000000
 2315 138f 50       		pushq	%rax
 2316 1390 41B90400 		movl	$4, %r9d
 2316      0000
 2317 1396 4C8D0500 		leaq	.LC26(%rip), %r8
 2317      000000
 2318 139d B9050000 		movl	$5, %ecx
 2318      00
 2319 13a2 488D0500 		leaq	.LC28(%rip), %rax
 2319      000000
 2320 13a9 4889C2   		movq	%rax, %rdx
 2321 13ac BE200000 		movl	$32, %esi
 2321      00
 2322 13b1 488D0500 		leaq	.LC19(%rip), %rax
 2322      000000
 2323 13b8 4889C7   		movq	%rax, %rdi
 2324 13bb E8000000 		call	_Z9testShiftPKcjS0_jS0_jS0_
 2324      00
 2325 13c0 4883C410 		addq	$16, %rsp
 230:testSvf2Csvf.cpp **** 		"F1C2E093", 32,
 231:testSvf2Csvf.cpp **** 		"15", 5,
 232:testSvf2Csvf.cpp **** 		"0A", 4,
 233:testSvf2Csvf.cpp **** 		"015E385C1275"
 234:testSvf2Csvf.cpp **** 	);
 235:testSvf2Csvf.cpp **** 	testShift(
 2326              		.loc 3 235 11
 2327 13c4 4883EC08 		subq	$8, %rsp
 2328 13c8 488D0500 		leaq	.LC60(%rip), %rax
 2328      000000
 2329 13cf 50       		pushq	%rax
 2330 13d0 41B90400 		movl	$4, %r9d
 2330      0000
 2331 13d6 4C8D0500 		leaq	.LC26(%rip), %r8
 2331      000000
 2332 13dd B9060000 		movl	$6, %ecx
 2332      00
 2333 13e2 488D0500 		leaq	.LC30(%rip), %rax
 2333      000000
 2334 13e9 4889C2   		movq	%rax, %rdx
 2335 13ec BE200000 		movl	$32, %esi
 2335      00
 2336 13f1 488D0500 		leaq	.LC19(%rip), %rax
 2336      000000
 2337 13f8 4889C7   		movq	%rax, %rdi
 2338 13fb E8000000 		call	_Z9testShiftPKcjS0_jS0_jS0_
 2338      00
 2339 1400 4883C410 		addq	$16, %rsp
 236:testSvf2Csvf.cpp **** 		"F1C2E093", 32,
 237:testSvf2Csvf.cpp **** 		"25", 6,
 238:testSvf2Csvf.cpp **** 		"0A", 4,
 239:testSvf2Csvf.cpp **** 		"02BC70B824E5"
 240:testSvf2Csvf.cpp **** 	);
 241:testSvf2Csvf.cpp **** 	testShift(
 2340              		.loc 3 241 11
 2341 1404 4883EC08 		subq	$8, %rsp
 2342 1408 488D0500 		leaq	.LC61(%rip), %rax
 2342      000000
 2343 140f 50       		pushq	%rax
 2344 1410 41B90400 		movl	$4, %r9d
 2344      0000
 2345 1416 4C8D0500 		leaq	.LC26(%rip), %r8
 2345      000000
 2346 141d B9070000 		movl	$7, %ecx
 2346      00
 2347 1422 488D0500 		leaq	.LC32(%rip), %rax
 2347      000000
 2348 1429 4889C2   		movq	%rax, %rdx
 2349 142c BE200000 		movl	$32, %esi
 2349      00
 2350 1431 488D0500 		leaq	.LC19(%rip), %rax
 2350      000000
 2351 1438 4889C7   		movq	%rax, %rdi
 2352 143b E8000000 		call	_Z9testShiftPKcjS0_jS0_jS0_
 2352      00
 2353 1440 4883C410 		addq	$16, %rsp
 242:testSvf2Csvf.cpp **** 		"F1C2E093", 32,
 243:testSvf2Csvf.cpp **** 		"75", 7,
 244:testSvf2Csvf.cpp **** 		"0A", 4,
 245:testSvf2Csvf.cpp **** 		"0578E17049F5"
 246:testSvf2Csvf.cpp **** 	);
 247:testSvf2Csvf.cpp **** 	testShift(
 2354              		.loc 3 247 11
 2355 1444 4883EC08 		subq	$8, %rsp
 2356 1448 488D0500 		leaq	.LC62(%rip), %rax
 2356      000000
 2357 144f 50       		pushq	%rax
 2358 1450 41B90400 		movl	$4, %r9d
 2358      0000
 2359 1456 4C8D0500 		leaq	.LC26(%rip), %r8
 2359      000000
 2360 145d B9080000 		movl	$8, %ecx
 2360      00
 2361 1462 488D0500 		leaq	.LC34(%rip), %rax
 2361      000000
 2362 1469 4889C2   		movq	%rax, %rdx
 2363 146c BE200000 		movl	$32, %esi
 2363      00
 2364 1471 488D0500 		leaq	.LC19(%rip), %rax
 2364      000000
 2365 1478 4889C7   		movq	%rax, %rdi
 2366 147b E8000000 		call	_Z9testShiftPKcjS0_jS0_jS0_
 2366      00
 2367 1480 4883C410 		addq	$16, %rsp
 248:testSvf2Csvf.cpp **** 		"F1C2E093", 32,
 249:testSvf2Csvf.cpp **** 		"e5", 8,
 250:testSvf2Csvf.cpp **** 		"0A", 4,
 251:testSvf2Csvf.cpp **** 		"0AF1C2E093E5"
 252:testSvf2Csvf.cpp **** 	);
 253:testSvf2Csvf.cpp **** 	testShift(
 2368              		.loc 3 253 11
 2369 1484 4883EC08 		subq	$8, %rsp
 2370 1488 488D0500 		leaq	.LC63(%rip), %rax
 2370      000000
 2371 148f 50       		pushq	%rax
 2372 1490 41B90400 		movl	$4, %r9d
 2372      0000
 2373 1496 4C8D0500 		leaq	.LC26(%rip), %r8
 2373      000000
 2374 149d B9090000 		movl	$9, %ecx
 2374      00
 2375 14a2 488D0500 		leaq	.LC36(%rip), %rax
 2375      000000
 2376 14a9 4889C2   		movq	%rax, %rdx
 2377 14ac BE200000 		movl	$32, %esi
 2377      00
 2378 14b1 488D0500 		leaq	.LC19(%rip), %rax
 2378      000000
 2379 14b8 4889C7   		movq	%rax, %rdi
 2380 14bb E8000000 		call	_Z9testShiftPKcjS0_jS0_jS0_
 2380      00
 2381 14c0 4883C410 		addq	$16, %rsp
 254:testSvf2Csvf.cpp **** 		"F1C2E093", 32,
 255:testSvf2Csvf.cpp **** 		"0115", 9,
 256:testSvf2Csvf.cpp **** 		"0A", 4,
 257:testSvf2Csvf.cpp **** 		"15E385C12715"
 258:testSvf2Csvf.cpp **** 	);
 259:testSvf2Csvf.cpp **** 	testShift(
 2382              		.loc 3 259 11
 2383 14c4 4883EC08 		subq	$8, %rsp
 2384 14c8 488D0500 		leaq	.LC64(%rip), %rax
 2384      000000
 2385 14cf 50       		pushq	%rax
 2386 14d0 41B90400 		movl	$4, %r9d
 2386      0000
 2387 14d6 4C8D0500 		leaq	.LC26(%rip), %r8
 2387      000000
 2388 14dd B90A0000 		movl	$10, %ecx
 2388      00
 2389 14e2 488D0500 		leaq	.LC38(%rip), %rax
 2389      000000
 2390 14e9 4889C2   		movq	%rax, %rdx
 2391 14ec BE200000 		movl	$32, %esi
 2391      00
 2392 14f1 488D0500 		leaq	.LC19(%rip), %rax
 2392      000000
 2393 14f8 4889C7   		movq	%rax, %rdi
 2394 14fb E8000000 		call	_Z9testShiftPKcjS0_jS0_jS0_
 2394      00
 2395 1500 4883C410 		addq	$16, %rsp
 260:testSvf2Csvf.cpp **** 		"F1C2E093", 32,
 261:testSvf2Csvf.cpp **** 		"0315", 10,
 262:testSvf2Csvf.cpp **** 		"0A", 4,
 263:testSvf2Csvf.cpp **** 		"2BC70B824F15"
 264:testSvf2Csvf.cpp **** 	);
 265:testSvf2Csvf.cpp **** 	testShift(
 2396              		.loc 3 265 11
 2397 1504 4883EC08 		subq	$8, %rsp
 2398 1508 488D0500 		leaq	.LC65(%rip), %rax
 2398      000000
 2399 150f 50       		pushq	%rax
 2400 1510 41B90400 		movl	$4, %r9d
 2400      0000
 2401 1516 4C8D0500 		leaq	.LC26(%rip), %r8
 2401      000000
 2402 151d B90B0000 		movl	$11, %ecx
 2402      00
 2403 1522 488D0500 		leaq	.LC40(%rip), %rax
 2403      000000
 2404 1529 4889C2   		movq	%rax, %rdx
 2405 152c BE200000 		movl	$32, %esi
 2405      00
 2406 1531 488D0500 		leaq	.LC19(%rip), %rax
 2406      000000
 2407 1538 4889C7   		movq	%rax, %rdi
 2408 153b E8000000 		call	_Z9testShiftPKcjS0_jS0_jS0_
 2408      00
 2409 1540 4883C410 		addq	$16, %rsp
 266:testSvf2Csvf.cpp **** 		"F1C2E093", 32,
 267:testSvf2Csvf.cpp **** 		"0715", 11,
 268:testSvf2Csvf.cpp **** 		"0A", 4,
 269:testSvf2Csvf.cpp **** 		"578E17049F15"
 270:testSvf2Csvf.cpp **** 	);
 271:testSvf2Csvf.cpp **** 	testShift(
 2410              		.loc 3 271 11
 2411 1544 4883EC08 		subq	$8, %rsp
 2412 1548 488D0500 		leaq	.LC66(%rip), %rax
 2412      000000
 2413 154f 50       		pushq	%rax
 2414 1550 41B90400 		movl	$4, %r9d
 2414      0000
 2415 1556 4C8D0500 		leaq	.LC26(%rip), %r8
 2415      000000
 2416 155d B90C0000 		movl	$12, %ecx
 2416      00
 2417 1562 488D0500 		leaq	.LC42(%rip), %rax
 2417      000000
 2418 1569 4889C2   		movq	%rax, %rdx
 2419 156c BE200000 		movl	$32, %esi
 2419      00
 2420 1571 488D0500 		leaq	.LC19(%rip), %rax
 2420      000000
 2421 1578 4889C7   		movq	%rax, %rdi
 2422 157b E8000000 		call	_Z9testShiftPKcjS0_jS0_jS0_
 2422      00
 2423 1580 4883C410 		addq	$16, %rsp
 272:testSvf2Csvf.cpp **** 		"F1C2E093", 32,
 273:testSvf2Csvf.cpp **** 		"0c15", 12,
 274:testSvf2Csvf.cpp **** 		"0A", 4,
 275:testSvf2Csvf.cpp **** 		"AF1C2E093C15"
 276:testSvf2Csvf.cpp **** 	);
 277:testSvf2Csvf.cpp **** 	testShift(
 2424              		.loc 3 277 11
 2425 1584 4883EC08 		subq	$8, %rsp
 2426 1588 488D0500 		leaq	.LC67(%rip), %rax
 2426      000000
 2427 158f 50       		pushq	%rax
 2428 1590 41B90400 		movl	$4, %r9d
 2428      0000
 2429 1596 4C8D0500 		leaq	.LC26(%rip), %r8
 2429      000000
 2430 159d B90D0000 		movl	$13, %ecx
 2430      00
 2431 15a2 488D0500 		leaq	.LC44(%rip), %rax
 2431      000000
 2432 15a9 4889C2   		movq	%rax, %rdx
 2433 15ac BE200000 		movl	$32, %esi
 2433      00
 2434 15b1 488D0500 		leaq	.LC19(%rip), %rax
 2434      000000
 2435 15b8 4889C7   		movq	%rax, %rdi
 2436 15bb E8000000 		call	_Z9testShiftPKcjS0_jS0_jS0_
 2436      00
 2437 15c0 4883C410 		addq	$16, %rsp
 278:testSvf2Csvf.cpp **** 		"F1C2E093", 32,
 279:testSvf2Csvf.cpp **** 		"1c15", 13,
 280:testSvf2Csvf.cpp **** 		"0A", 4,
 281:testSvf2Csvf.cpp **** 		"015E385C127C15"
 282:testSvf2Csvf.cpp **** 	);
 283:testSvf2Csvf.cpp **** 	testShift(
 2438              		.loc 3 283 11
 2439 15c4 4883EC08 		subq	$8, %rsp
 2440 15c8 488D0500 		leaq	.LC68(%rip), %rax
 2440      000000
 2441 15cf 50       		pushq	%rax
 2442 15d0 41B90400 		movl	$4, %r9d
 2442      0000
 2443 15d6 4C8D0500 		leaq	.LC26(%rip), %r8
 2443      000000
 2444 15dd B90E0000 		movl	$14, %ecx
 2444      00
 2445 15e2 488D0500 		leaq	.LC46(%rip), %rax
 2445      000000
 2446 15e9 4889C2   		movq	%rax, %rdx
 2447 15ec BE200000 		movl	$32, %esi
 2447      00
 2448 15f1 488D0500 		leaq	.LC19(%rip), %rax
 2448      000000
 2449 15f8 4889C7   		movq	%rax, %rdi
 2450 15fb E8000000 		call	_Z9testShiftPKcjS0_jS0_jS0_
 2450      00
 2451 1600 4883C410 		addq	$16, %rsp
 284:testSvf2Csvf.cpp **** 		"F1C2E093", 32,
 285:testSvf2Csvf.cpp **** 		"2c15", 14,
 286:testSvf2Csvf.cpp **** 		"0A", 4,
 287:testSvf2Csvf.cpp **** 		"02BC70B824EC15"
 288:testSvf2Csvf.cpp **** 	);
 289:testSvf2Csvf.cpp **** 	testShift(
 2452              		.loc 3 289 11
 2453 1604 4883EC08 		subq	$8, %rsp
 2454 1608 488D0500 		leaq	.LC69(%rip), %rax
 2454      000000
 2455 160f 50       		pushq	%rax
 2456 1610 41B90400 		movl	$4, %r9d
 2456      0000
 2457 1616 4C8D0500 		leaq	.LC26(%rip), %r8
 2457      000000
 2458 161d B90F0000 		movl	$15, %ecx
 2458      00
 2459 1622 488D0500 		leaq	.LC48(%rip), %rax
 2459      000000
 2460 1629 4889C2   		movq	%rax, %rdx
 2461 162c BE200000 		movl	$32, %esi
 2461      00
 2462 1631 488D0500 		leaq	.LC19(%rip), %rax
 2462      000000
 2463 1638 4889C7   		movq	%rax, %rdi
 2464 163b E8000000 		call	_Z9testShiftPKcjS0_jS0_jS0_
 2464      00
 2465 1640 4883C410 		addq	$16, %rsp
 290:testSvf2Csvf.cpp **** 		"F1C2E093", 32,
 291:testSvf2Csvf.cpp **** 		"4015", 15,
 292:testSvf2Csvf.cpp **** 		"0A", 4,
 293:testSvf2Csvf.cpp **** 		"0578E17049C015"
 294:testSvf2Csvf.cpp **** 	);
 295:testSvf2Csvf.cpp **** 	testShift(
 2466              		.loc 3 295 11
 2467 1644 4883EC08 		subq	$8, %rsp
 2468 1648 488D0500 		leaq	.LC70(%rip), %rax
 2468      000000
 2469 164f 50       		pushq	%rax
 2470 1650 41B90400 		movl	$4, %r9d
 2470      0000
 2471 1656 4C8D0500 		leaq	.LC26(%rip), %r8
 2471      000000
 2472 165d B9100000 		movl	$16, %ecx
 2472      00
 2473 1662 488D0500 		leaq	.LC50(%rip), %rax
 2473      000000
 2474 1669 4889C2   		movq	%rax, %rdx
 2475 166c BE200000 		movl	$32, %esi
 2475      00
 2476 1671 488D0500 		leaq	.LC19(%rip), %rax
 2476      000000
 2477 1678 4889C7   		movq	%rax, %rdi
 2478 167b E8000000 		call	_Z9testShiftPKcjS0_jS0_jS0_
 2478      00
 2479 1680 4883C410 		addq	$16, %rsp
 296:testSvf2Csvf.cpp **** 		"F1C2E093", 32,
 297:testSvf2Csvf.cpp **** 		"8015", 16,
 298:testSvf2Csvf.cpp **** 		"0A", 4,
 299:testSvf2Csvf.cpp **** 		"0AF1C2E0938015"
 300:testSvf2Csvf.cpp **** 	);
 301:testSvf2Csvf.cpp **** 	testShift(
 2480              		.loc 3 301 11
 2481 1684 4883EC08 		subq	$8, %rsp
 2482 1688 488D0500 		leaq	.LC71(%rip), %rax
 2482      000000
 2483 168f 50       		pushq	%rax
 2484 1690 41B90400 		movl	$4, %r9d
 2484      0000
 2485 1696 4C8D0500 		leaq	.LC26(%rip), %r8
 2485      000000
 2486 169d B9110000 		movl	$17, %ecx
 2486      00
 2487 16a2 488D0500 		leaq	.LC52(%rip), %rax
 2487      000000
 2488 16a9 4889C2   		movq	%rax, %rdx
 2489 16ac BE200000 		movl	$32, %esi
 2489      00
 2490 16b1 488D0500 		leaq	.LC19(%rip), %rax
 2490      000000
 2491 16b8 4889C7   		movq	%rax, %rdi
 2492 16bb E8000000 		call	_Z9testShiftPKcjS0_jS0_jS0_
 2492      00
 2493 16c0 4883C410 		addq	$16, %rsp
 302:testSvf2Csvf.cpp **** 		"F1C2E093", 32,
 303:testSvf2Csvf.cpp **** 		"018015", 17,
 304:testSvf2Csvf.cpp **** 		"0A", 4,
 305:testSvf2Csvf.cpp **** 		"15E385C1278015"
 306:testSvf2Csvf.cpp **** 	);
 307:testSvf2Csvf.cpp **** 	testShift(
 2494              		.loc 3 307 11
 2495 16c4 4883EC08 		subq	$8, %rsp
 2496 16c8 488D0500 		leaq	.LC73(%rip), %rax
 2496      000000
 2497 16cf 50       		pushq	%rax
 2498 16d0 41B90900 		movl	$9, %r9d
 2498      0000
 2499 16d6 4C8D0500 		leaq	.LC72(%rip), %r8
 2499      000000
 2500 16dd B9000000 		movl	$0, %ecx
 2500      00
 2501 16e2 488D0500 		leaq	.LC18(%rip), %rax
 2501      000000
 2502 16e9 4889C2   		movq	%rax, %rdx
 2503 16ec BE200000 		movl	$32, %esi
 2503      00
 2504 16f1 488D0500 		leaq	.LC19(%rip), %rax
 2504      000000
 2505 16f8 4889C7   		movq	%rax, %rdi
 2506 16fb E8000000 		call	_Z9testShiftPKcjS0_jS0_jS0_
 2506      00
 2507 1700 4883C410 		addq	$16, %rsp
 308:testSvf2Csvf.cpp **** 		"F1C2E093", 32,
 309:testSvf2Csvf.cpp **** 		"00", 0,
 310:testSvf2Csvf.cpp **** 		"0135", 9,
 311:testSvf2Csvf.cpp **** 		"0135F1C2E093"
 312:testSvf2Csvf.cpp **** 	);
 313:testSvf2Csvf.cpp **** 	testShift(
 2508              		.loc 3 313 11
 2509 1704 4883EC08 		subq	$8, %rsp
 2510 1708 488D0500 		leaq	.LC74(%rip), %rax
 2510      000000
 2511 170f 50       		pushq	%rax
 2512 1710 41B90900 		movl	$9, %r9d
 2512      0000
 2513 1716 4C8D0500 		leaq	.LC72(%rip), %r8
 2513      000000
 2514 171d B9010000 		movl	$1, %ecx
 2514      00
 2515 1722 488D0500 		leaq	.LC21(%rip), %rax
 2515      000000
 2516 1729 4889C2   		movq	%rax, %rdx
 2517 172c BE200000 		movl	$32, %esi
 2517      00
 2518 1731 488D0500 		leaq	.LC19(%rip), %rax
 2518      000000
 2519 1738 4889C7   		movq	%rax, %rdi
 2520 173b E8000000 		call	_Z9testShiftPKcjS0_jS0_jS0_
 2520      00
 2521 1740 4883C410 		addq	$16, %rsp
 314:testSvf2Csvf.cpp **** 		"F1C2E093", 32,
 315:testSvf2Csvf.cpp **** 		"01", 1,
 316:testSvf2Csvf.cpp **** 		"0135", 9,
 317:testSvf2Csvf.cpp **** 		"026BE385C127"
 318:testSvf2Csvf.cpp **** 	);
 319:testSvf2Csvf.cpp **** 	testShift(
 2522              		.loc 3 319 11
 2523 1744 4883EC08 		subq	$8, %rsp
 2524 1748 488D0500 		leaq	.LC75(%rip), %rax
 2524      000000
 2525 174f 50       		pushq	%rax
 2526 1750 41B90900 		movl	$9, %r9d
 2526      0000
 2527 1756 4C8D0500 		leaq	.LC72(%rip), %r8
 2527      000000
 2528 175d B9020000 		movl	$2, %ecx
 2528      00
 2529 1762 488D0500 		leaq	.LC23(%rip), %rax
 2529      000000
 2530 1769 4889C2   		movq	%rax, %rdx
 2531 176c BE200000 		movl	$32, %esi
 2531      00
 2532 1771 488D0500 		leaq	.LC19(%rip), %rax
 2532      000000
 2533 1778 4889C7   		movq	%rax, %rdi
 2534 177b E8000000 		call	_Z9testShiftPKcjS0_jS0_jS0_
 2534      00
 2535 1780 4883C410 		addq	$16, %rsp
 320:testSvf2Csvf.cpp **** 		"F1C2E093", 32,
 321:testSvf2Csvf.cpp **** 		"02", 2,
 322:testSvf2Csvf.cpp **** 		"0135", 9,
 323:testSvf2Csvf.cpp **** 		"04D7C70B824E"
 324:testSvf2Csvf.cpp **** 	);
 325:testSvf2Csvf.cpp **** 	testShift(
 2536              		.loc 3 325 11
 2537 1784 4883EC08 		subq	$8, %rsp
 2538 1788 488D0500 		leaq	.LC76(%rip), %rax
 2538      000000
 2539 178f 50       		pushq	%rax
 2540 1790 41B90900 		movl	$9, %r9d
 2540      0000
 2541 1796 4C8D0500 		leaq	.LC72(%rip), %r8
 2541      000000
 2542 179d B9030000 		movl	$3, %ecx
 2542      00
 2543 17a2 488D0500 		leaq	.LC17(%rip), %rax
 2543      000000
 2544 17a9 4889C2   		movq	%rax, %rdx
 2545 17ac BE200000 		movl	$32, %esi
 2545      00
 2546 17b1 488D0500 		leaq	.LC19(%rip), %rax
 2546      000000
 2547 17b8 4889C7   		movq	%rax, %rdi
 2548 17bb E8000000 		call	_Z9testShiftPKcjS0_jS0_jS0_
 2548      00
 2549 17c0 4883C410 		addq	$16, %rsp
 326:testSvf2Csvf.cpp **** 		"F1C2E093", 32,
 327:testSvf2Csvf.cpp **** 		"06", 3,
 328:testSvf2Csvf.cpp **** 		"0135", 9,
 329:testSvf2Csvf.cpp **** 		"09AF8E17049E"
 330:testSvf2Csvf.cpp **** 	);
 331:testSvf2Csvf.cpp **** 	testShift(
 2550              		.loc 3 331 11
 2551 17c4 4883EC08 		subq	$8, %rsp
 2552 17c8 488D0500 		leaq	.LC77(%rip), %rax
 2552      000000
 2553 17cf 50       		pushq	%rax
 2554 17d0 41B90900 		movl	$9, %r9d
 2554      0000
 2555 17d6 4C8D0500 		leaq	.LC72(%rip), %r8
 2555      000000
 2556 17dd B9040000 		movl	$4, %ecx
 2556      00
 2557 17e2 488D0500 		leaq	.LC26(%rip), %rax
 2557      000000
 2558 17e9 4889C2   		movq	%rax, %rdx
 2559 17ec BE200000 		movl	$32, %esi
 2559      00
 2560 17f1 488D0500 		leaq	.LC19(%rip), %rax
 2560      000000
 2561 17f8 4889C7   		movq	%rax, %rdi
 2562 17fb E8000000 		call	_Z9testShiftPKcjS0_jS0_jS0_
 2562      00
 2563 1800 4883C410 		addq	$16, %rsp
 332:testSvf2Csvf.cpp **** 		"F1C2E093", 32,
 333:testSvf2Csvf.cpp **** 		"0A", 4,
 334:testSvf2Csvf.cpp **** 		"0135", 9,
 335:testSvf2Csvf.cpp **** 		"135F1C2E093A"
 336:testSvf2Csvf.cpp **** 	);
 337:testSvf2Csvf.cpp **** 	testShift(
 2564              		.loc 3 337 11
 2565 1804 4883EC08 		subq	$8, %rsp
 2566 1808 488D0500 		leaq	.LC78(%rip), %rax
 2566      000000
 2567 180f 50       		pushq	%rax
 2568 1810 41B90900 		movl	$9, %r9d
 2568      0000
 2569 1816 4C8D0500 		leaq	.LC72(%rip), %r8
 2569      000000
 2570 181d B9050000 		movl	$5, %ecx
 2570      00
 2571 1822 488D0500 		leaq	.LC28(%rip), %rax
 2571      000000
 2572 1829 4889C2   		movq	%rax, %rdx
 2573 182c BE200000 		movl	$32, %esi
 2573      00
 2574 1831 488D0500 		leaq	.LC19(%rip), %rax
 2574      000000
 2575 1838 4889C7   		movq	%rax, %rdi
 2576 183b E8000000 		call	_Z9testShiftPKcjS0_jS0_jS0_
 2576      00
 2577 1840 4883C410 		addq	$16, %rsp
 338:testSvf2Csvf.cpp **** 		"F1C2E093", 32,
 339:testSvf2Csvf.cpp **** 		"15", 5,
 340:testSvf2Csvf.cpp **** 		"0135", 9,
 341:testSvf2Csvf.cpp **** 		"26BE385C1275"
 342:testSvf2Csvf.cpp **** 	);
 343:testSvf2Csvf.cpp **** 	testShift(
 2578              		.loc 3 343 11
 2579 1844 4883EC08 		subq	$8, %rsp
 2580 1848 488D0500 		leaq	.LC79(%rip), %rax
 2580      000000
 2581 184f 50       		pushq	%rax
 2582 1850 41B90900 		movl	$9, %r9d
 2582      0000
 2583 1856 4C8D0500 		leaq	.LC72(%rip), %r8
 2583      000000
 2584 185d B9060000 		movl	$6, %ecx
 2584      00
 2585 1862 488D0500 		leaq	.LC30(%rip), %rax
 2585      000000
 2586 1869 4889C2   		movq	%rax, %rdx
 2587 186c BE200000 		movl	$32, %esi
 2587      00
 2588 1871 488D0500 		leaq	.LC19(%rip), %rax
 2588      000000
 2589 1878 4889C7   		movq	%rax, %rdi
 2590 187b E8000000 		call	_Z9testShiftPKcjS0_jS0_jS0_
 2590      00
 2591 1880 4883C410 		addq	$16, %rsp
 344:testSvf2Csvf.cpp **** 		"F1C2E093", 32,
 345:testSvf2Csvf.cpp **** 		"25", 6,
 346:testSvf2Csvf.cpp **** 		"0135", 9,
 347:testSvf2Csvf.cpp **** 		"4D7C70B824E5"
 348:testSvf2Csvf.cpp **** 	);
 349:testSvf2Csvf.cpp **** 	testShift(
 2592              		.loc 3 349 11
 2593 1884 4883EC08 		subq	$8, %rsp
 2594 1888 488D0500 		leaq	.LC80(%rip), %rax
 2594      000000
 2595 188f 50       		pushq	%rax
 2596 1890 41B90900 		movl	$9, %r9d
 2596      0000
 2597 1896 4C8D0500 		leaq	.LC72(%rip), %r8
 2597      000000
 2598 189d B9070000 		movl	$7, %ecx
 2598      00
 2599 18a2 488D0500 		leaq	.LC32(%rip), %rax
 2599      000000
 2600 18a9 4889C2   		movq	%rax, %rdx
 2601 18ac BE200000 		movl	$32, %esi
 2601      00
 2602 18b1 488D0500 		leaq	.LC19(%rip), %rax
 2602      000000
 2603 18b8 4889C7   		movq	%rax, %rdi
 2604 18bb E8000000 		call	_Z9testShiftPKcjS0_jS0_jS0_
 2604      00
 2605 18c0 4883C410 		addq	$16, %rsp
 350:testSvf2Csvf.cpp **** 		"F1C2E093", 32,
 351:testSvf2Csvf.cpp **** 		"75", 7,
 352:testSvf2Csvf.cpp **** 		"0135", 9,
 353:testSvf2Csvf.cpp **** 		"9AF8E17049F5"
 354:testSvf2Csvf.cpp **** 	);
 355:testSvf2Csvf.cpp **** 	testShift(
 2606              		.loc 3 355 11
 2607 18c4 4883EC08 		subq	$8, %rsp
 2608 18c8 488D0500 		leaq	.LC81(%rip), %rax
 2608      000000
 2609 18cf 50       		pushq	%rax
 2610 18d0 41B90900 		movl	$9, %r9d
 2610      0000
 2611 18d6 4C8D0500 		leaq	.LC72(%rip), %r8
 2611      000000
 2612 18dd B9080000 		movl	$8, %ecx
 2612      00
 2613 18e2 488D0500 		leaq	.LC34(%rip), %rax
 2613      000000
 2614 18e9 4889C2   		movq	%rax, %rdx
 2615 18ec BE200000 		movl	$32, %esi
 2615      00
 2616 18f1 488D0500 		leaq	.LC19(%rip), %rax
 2616      000000
 2617 18f8 4889C7   		movq	%rax, %rdi
 2618 18fb E8000000 		call	_Z9testShiftPKcjS0_jS0_jS0_
 2618      00
 2619 1900 4883C410 		addq	$16, %rsp
 356:testSvf2Csvf.cpp **** 		"F1C2E093", 32,
 357:testSvf2Csvf.cpp **** 		"e5", 8,
 358:testSvf2Csvf.cpp **** 		"0135", 9,
 359:testSvf2Csvf.cpp **** 		"0135F1C2E093E5"
 360:testSvf2Csvf.cpp **** 	);
 361:testSvf2Csvf.cpp **** 	testShift(
 2620              		.loc 3 361 11
 2621 1904 4883EC08 		subq	$8, %rsp
 2622 1908 488D0500 		leaq	.LC82(%rip), %rax
 2622      000000
 2623 190f 50       		pushq	%rax
 2624 1910 41B90900 		movl	$9, %r9d
 2624      0000
 2625 1916 4C8D0500 		leaq	.LC72(%rip), %r8
 2625      000000
 2626 191d B9090000 		movl	$9, %ecx
 2626      00
 2627 1922 488D0500 		leaq	.LC36(%rip), %rax
 2627      000000
 2628 1929 4889C2   		movq	%rax, %rdx
 2629 192c BE200000 		movl	$32, %esi
 2629      00
 2630 1931 488D0500 		leaq	.LC19(%rip), %rax
 2630      000000
 2631 1938 4889C7   		movq	%rax, %rdi
 2632 193b E8000000 		call	_Z9testShiftPKcjS0_jS0_jS0_
 2632      00
 2633 1940 4883C410 		addq	$16, %rsp
 362:testSvf2Csvf.cpp **** 		"F1C2E093", 32,
 363:testSvf2Csvf.cpp **** 		"0115", 9,
 364:testSvf2Csvf.cpp **** 		"0135", 9,
 365:testSvf2Csvf.cpp **** 		"026BE385C12715"
 366:testSvf2Csvf.cpp **** 	);
 367:testSvf2Csvf.cpp **** 	testShift(
 2634              		.loc 3 367 11
 2635 1944 4883EC08 		subq	$8, %rsp
 2636 1948 488D0500 		leaq	.LC83(%rip), %rax
 2636      000000
 2637 194f 50       		pushq	%rax
 2638 1950 41B90900 		movl	$9, %r9d
 2638      0000
 2639 1956 4C8D0500 		leaq	.LC72(%rip), %r8
 2639      000000
 2640 195d B90A0000 		movl	$10, %ecx
 2640      00
 2641 1962 488D0500 		leaq	.LC38(%rip), %rax
 2641      000000
 2642 1969 4889C2   		movq	%rax, %rdx
 2643 196c BE200000 		movl	$32, %esi
 2643      00
 2644 1971 488D0500 		leaq	.LC19(%rip), %rax
 2644      000000
 2645 1978 4889C7   		movq	%rax, %rdi
 2646 197b E8000000 		call	_Z9testShiftPKcjS0_jS0_jS0_
 2646      00
 2647 1980 4883C410 		addq	$16, %rsp
 368:testSvf2Csvf.cpp **** 		"F1C2E093", 32,
 369:testSvf2Csvf.cpp **** 		"0315", 10,
 370:testSvf2Csvf.cpp **** 		"0135", 9,
 371:testSvf2Csvf.cpp **** 		"04D7C70B824F15"
 372:testSvf2Csvf.cpp **** 	);
 373:testSvf2Csvf.cpp **** 	testShift(
 2648              		.loc 3 373 11
 2649 1984 4883EC08 		subq	$8, %rsp
 2650 1988 488D0500 		leaq	.LC84(%rip), %rax
 2650      000000
 2651 198f 50       		pushq	%rax
 2652 1990 41B90900 		movl	$9, %r9d
 2652      0000
 2653 1996 4C8D0500 		leaq	.LC72(%rip), %r8
 2653      000000
 2654 199d B90B0000 		movl	$11, %ecx
 2654      00
 2655 19a2 488D0500 		leaq	.LC40(%rip), %rax
 2655      000000
 2656 19a9 4889C2   		movq	%rax, %rdx
 2657 19ac BE200000 		movl	$32, %esi
 2657      00
 2658 19b1 488D0500 		leaq	.LC19(%rip), %rax
 2658      000000
 2659 19b8 4889C7   		movq	%rax, %rdi
 2660 19bb E8000000 		call	_Z9testShiftPKcjS0_jS0_jS0_
 2660      00
 2661 19c0 4883C410 		addq	$16, %rsp
 374:testSvf2Csvf.cpp **** 		"F1C2E093", 32,
 375:testSvf2Csvf.cpp **** 		"0715", 11,
 376:testSvf2Csvf.cpp **** 		"0135", 9,
 377:testSvf2Csvf.cpp **** 		"09AF8E17049F15"
 378:testSvf2Csvf.cpp **** 	);
 379:testSvf2Csvf.cpp **** 	testShift(
 2662              		.loc 3 379 11
 2663 19c4 4883EC08 		subq	$8, %rsp
 2664 19c8 488D0500 		leaq	.LC85(%rip), %rax
 2664      000000
 2665 19cf 50       		pushq	%rax
 2666 19d0 41B90900 		movl	$9, %r9d
 2666      0000
 2667 19d6 4C8D0500 		leaq	.LC72(%rip), %r8
 2667      000000
 2668 19dd B90C0000 		movl	$12, %ecx
 2668      00
 2669 19e2 488D0500 		leaq	.LC42(%rip), %rax
 2669      000000
 2670 19e9 4889C2   		movq	%rax, %rdx
 2671 19ec BE200000 		movl	$32, %esi
 2671      00
 2672 19f1 488D0500 		leaq	.LC19(%rip), %rax
 2672      000000
 2673 19f8 4889C7   		movq	%rax, %rdi
 2674 19fb E8000000 		call	_Z9testShiftPKcjS0_jS0_jS0_
 2674      00
 2675 1a00 4883C410 		addq	$16, %rsp
 380:testSvf2Csvf.cpp **** 		"F1C2E093", 32,
 381:testSvf2Csvf.cpp **** 		"0c15", 12,
 382:testSvf2Csvf.cpp **** 		"0135", 9,
 383:testSvf2Csvf.cpp **** 		"135F1C2E093C15"
 384:testSvf2Csvf.cpp **** 	);
 385:testSvf2Csvf.cpp **** 	testShift(
 2676              		.loc 3 385 11
 2677 1a04 4883EC08 		subq	$8, %rsp
 2678 1a08 488D0500 		leaq	.LC86(%rip), %rax
 2678      000000
 2679 1a0f 50       		pushq	%rax
 2680 1a10 41B90900 		movl	$9, %r9d
 2680      0000
 2681 1a16 4C8D0500 		leaq	.LC72(%rip), %r8
 2681      000000
 2682 1a1d B90D0000 		movl	$13, %ecx
 2682      00
 2683 1a22 488D0500 		leaq	.LC44(%rip), %rax
 2683      000000
 2684 1a29 4889C2   		movq	%rax, %rdx
 2685 1a2c BE200000 		movl	$32, %esi
 2685      00
 2686 1a31 488D0500 		leaq	.LC19(%rip), %rax
 2686      000000
 2687 1a38 4889C7   		movq	%rax, %rdi
 2688 1a3b E8000000 		call	_Z9testShiftPKcjS0_jS0_jS0_
 2688      00
 2689 1a40 4883C410 		addq	$16, %rsp
 386:testSvf2Csvf.cpp **** 		"F1C2E093", 32,
 387:testSvf2Csvf.cpp **** 		"1c15", 13,
 388:testSvf2Csvf.cpp **** 		"0135", 9,
 389:testSvf2Csvf.cpp **** 		"26BE385C127C15"
 390:testSvf2Csvf.cpp **** 	);
 391:testSvf2Csvf.cpp **** 	testShift(
 2690              		.loc 3 391 11
 2691 1a44 4883EC08 		subq	$8, %rsp
 2692 1a48 488D0500 		leaq	.LC87(%rip), %rax
 2692      000000
 2693 1a4f 50       		pushq	%rax
 2694 1a50 41B90900 		movl	$9, %r9d
 2694      0000
 2695 1a56 4C8D0500 		leaq	.LC72(%rip), %r8
 2695      000000
 2696 1a5d B90E0000 		movl	$14, %ecx
 2696      00
 2697 1a62 488D0500 		leaq	.LC46(%rip), %rax
 2697      000000
 2698 1a69 4889C2   		movq	%rax, %rdx
 2699 1a6c BE200000 		movl	$32, %esi
 2699      00
 2700 1a71 488D0500 		leaq	.LC19(%rip), %rax
 2700      000000
 2701 1a78 4889C7   		movq	%rax, %rdi
 2702 1a7b E8000000 		call	_Z9testShiftPKcjS0_jS0_jS0_
 2702      00
 2703 1a80 4883C410 		addq	$16, %rsp
 392:testSvf2Csvf.cpp **** 		"F1C2E093", 32,
 393:testSvf2Csvf.cpp **** 		"2c15", 14,
 394:testSvf2Csvf.cpp **** 		"0135", 9,
 395:testSvf2Csvf.cpp **** 		"4D7C70B824EC15"
 396:testSvf2Csvf.cpp **** 	);
 397:testSvf2Csvf.cpp **** 	testShift(
 2704              		.loc 3 397 11
 2705 1a84 4883EC08 		subq	$8, %rsp
 2706 1a88 488D0500 		leaq	.LC88(%rip), %rax
 2706      000000
 2707 1a8f 50       		pushq	%rax
 2708 1a90 41B90900 		movl	$9, %r9d
 2708      0000
 2709 1a96 4C8D0500 		leaq	.LC72(%rip), %r8
 2709      000000
 2710 1a9d B90F0000 		movl	$15, %ecx
 2710      00
 2711 1aa2 488D0500 		leaq	.LC48(%rip), %rax
 2711      000000
 2712 1aa9 4889C2   		movq	%rax, %rdx
 2713 1aac BE200000 		movl	$32, %esi
 2713      00
 2714 1ab1 488D0500 		leaq	.LC19(%rip), %rax
 2714      000000
 2715 1ab8 4889C7   		movq	%rax, %rdi
 2716 1abb E8000000 		call	_Z9testShiftPKcjS0_jS0_jS0_
 2716      00
 2717 1ac0 4883C410 		addq	$16, %rsp
 398:testSvf2Csvf.cpp **** 		"F1C2E093", 32,
 399:testSvf2Csvf.cpp **** 		"4015", 15,
 400:testSvf2Csvf.cpp **** 		"0135", 9,
 401:testSvf2Csvf.cpp **** 		"9AF8E17049C015"
 402:testSvf2Csvf.cpp **** 	);
 403:testSvf2Csvf.cpp **** 	testShift(
 2718              		.loc 3 403 11
 2719 1ac4 4883EC08 		subq	$8, %rsp
 2720 1ac8 488D0500 		leaq	.LC89(%rip), %rax
 2720      000000
 2721 1acf 50       		pushq	%rax
 2722 1ad0 41B90900 		movl	$9, %r9d
 2722      0000
 2723 1ad6 4C8D0500 		leaq	.LC72(%rip), %r8
 2723      000000
 2724 1add B9100000 		movl	$16, %ecx
 2724      00
 2725 1ae2 488D0500 		leaq	.LC50(%rip), %rax
 2725      000000
 2726 1ae9 4889C2   		movq	%rax, %rdx
 2727 1aec BE200000 		movl	$32, %esi
 2727      00
 2728 1af1 488D0500 		leaq	.LC19(%rip), %rax
 2728      000000
 2729 1af8 4889C7   		movq	%rax, %rdi
 2730 1afb E8000000 		call	_Z9testShiftPKcjS0_jS0_jS0_
 2730      00
 2731 1b00 4883C410 		addq	$16, %rsp
 404:testSvf2Csvf.cpp **** 		"F1C2E093", 32,
 405:testSvf2Csvf.cpp **** 		"8015", 16,
 406:testSvf2Csvf.cpp **** 		"0135", 9,
 407:testSvf2Csvf.cpp **** 		"0135F1C2E0938015"
 408:testSvf2Csvf.cpp **** 	);
 409:testSvf2Csvf.cpp **** 	testShift(
 2732              		.loc 3 409 11
 2733 1b04 4883EC08 		subq	$8, %rsp
 2734 1b08 488D0500 		leaq	.LC90(%rip), %rax
 2734      000000
 2735 1b0f 50       		pushq	%rax
 2736 1b10 41B90900 		movl	$9, %r9d
 2736      0000
 2737 1b16 4C8D0500 		leaq	.LC72(%rip), %r8
 2737      000000
 2738 1b1d B9110000 		movl	$17, %ecx
 2738      00
 2739 1b22 488D0500 		leaq	.LC52(%rip), %rax
 2739      000000
 2740 1b29 4889C2   		movq	%rax, %rdx
 2741 1b2c BE200000 		movl	$32, %esi
 2741      00
 2742 1b31 488D0500 		leaq	.LC19(%rip), %rax
 2742      000000
 2743 1b38 4889C7   		movq	%rax, %rdi
 2744 1b3b E8000000 		call	_Z9testShiftPKcjS0_jS0_jS0_
 2744      00
 2745 1b40 4883C410 		addq	$16, %rsp
 410:testSvf2Csvf.cpp **** 		"F1C2E093", 32,
 411:testSvf2Csvf.cpp **** 		"018015", 17,
 412:testSvf2Csvf.cpp **** 		"0135", 9,
 413:testSvf2Csvf.cpp **** 		"026BE385C1278015"
 414:testSvf2Csvf.cpp **** 	);
 415:testSvf2Csvf.cpp **** 	testShift(
 2746              		.loc 3 415 11
 2747 1b44 4883EC08 		subq	$8, %rsp
 2748 1b48 488D0500 		leaq	.LC92(%rip), %rax
 2748      000000
 2749 1b4f 50       		pushq	%rax
 2750 1b50 41B90900 		movl	$9, %r9d
 2750      0000
 2751 1b56 4C8D0500 		leaq	.LC72(%rip), %r8
 2751      000000
 2752 1b5d B9000000 		movl	$0, %ecx
 2752      00
 2753 1b62 488D0500 		leaq	.LC18(%rip), %rax
 2753      000000
 2754 1b69 4889C2   		movq	%rax, %rdx
 2755 1b6c BE1F0000 		movl	$31, %esi
 2755      00
 2756 1b71 488D0500 		leaq	.LC91(%rip), %rax
 2756      000000
 2757 1b78 4889C7   		movq	%rax, %rdi
 2758 1b7b E8000000 		call	_Z9testShiftPKcjS0_jS0_jS0_
 2758      00
 2759 1b80 4883C410 		addq	$16, %rsp
 416:testSvf2Csvf.cpp **** 		"71C2E093", 31,
 417:testSvf2Csvf.cpp **** 		"00", 0,
 418:testSvf2Csvf.cpp **** 		"0135", 9,
 419:testSvf2Csvf.cpp **** 		"9AF1C2E093"
 420:testSvf2Csvf.cpp **** 	);
 421:testSvf2Csvf.cpp **** 	testShift(
 2760              		.loc 3 421 11
 2761 1b84 4883EC08 		subq	$8, %rsp
 2762 1b88 488D0500 		leaq	.LC93(%rip), %rax
 2762      000000
 2763 1b8f 50       		pushq	%rax
 2764 1b90 41B90900 		movl	$9, %r9d
 2764      0000
 2765 1b96 4C8D0500 		leaq	.LC72(%rip), %r8
 2765      000000
 2766 1b9d B9010000 		movl	$1, %ecx
 2766      00
 2767 1ba2 488D0500 		leaq	.LC21(%rip), %rax
 2767      000000
 2768 1ba9 4889C2   		movq	%rax, %rdx
 2769 1bac BE1F0000 		movl	$31, %esi
 2769      00
 2770 1bb1 488D0500 		leaq	.LC91(%rip), %rax
 2770      000000
 2771 1bb8 4889C7   		movq	%rax, %rdi
 2772 1bbb E8000000 		call	_Z9testShiftPKcjS0_jS0_jS0_
 2772      00
 2773 1bc0 4883C410 		addq	$16, %rsp
 422:testSvf2Csvf.cpp **** 		"71C2E093", 31,
 423:testSvf2Csvf.cpp **** 		"01", 1,
 424:testSvf2Csvf.cpp **** 		"0135", 9,
 425:testSvf2Csvf.cpp **** 		"0135E385C127"
 426:testSvf2Csvf.cpp **** 	);
 427:testSvf2Csvf.cpp **** 	testShift(
 2774              		.loc 3 427 11
 2775 1bc4 4883EC08 		subq	$8, %rsp
 2776 1bc8 488D0500 		leaq	.LC94(%rip), %rax
 2776      000000
 2777 1bcf 50       		pushq	%rax
 2778 1bd0 41B90900 		movl	$9, %r9d
 2778      0000
 2779 1bd6 4C8D0500 		leaq	.LC72(%rip), %r8
 2779      000000
 2780 1bdd B9020000 		movl	$2, %ecx
 2780      00
 2781 1be2 488D0500 		leaq	.LC23(%rip), %rax
 2781      000000
 2782 1be9 4889C2   		movq	%rax, %rdx
 2783 1bec BE1F0000 		movl	$31, %esi
 2783      00
 2784 1bf1 488D0500 		leaq	.LC91(%rip), %rax
 2784      000000
 2785 1bf8 4889C7   		movq	%rax, %rdi
 2786 1bfb E8000000 		call	_Z9testShiftPKcjS0_jS0_jS0_
 2786      00
 2787 1c00 4883C410 		addq	$16, %rsp
 428:testSvf2Csvf.cpp **** 		"71C2E093", 31,
 429:testSvf2Csvf.cpp **** 		"02", 2,
 430:testSvf2Csvf.cpp **** 		"0135", 9,
 431:testSvf2Csvf.cpp **** 		"026BC70B824E"
 432:testSvf2Csvf.cpp **** 	);
 433:testSvf2Csvf.cpp **** 	testShift(
 2788              		.loc 3 433 11
 2789 1c04 4883EC08 		subq	$8, %rsp
 2790 1c08 488D0500 		leaq	.LC95(%rip), %rax
 2790      000000
 2791 1c0f 50       		pushq	%rax
 2792 1c10 41B90900 		movl	$9, %r9d
 2792      0000
 2793 1c16 4C8D0500 		leaq	.LC72(%rip), %r8
 2793      000000
 2794 1c1d B9030000 		movl	$3, %ecx
 2794      00
 2795 1c22 488D0500 		leaq	.LC17(%rip), %rax
 2795      000000
 2796 1c29 4889C2   		movq	%rax, %rdx
 2797 1c2c BE1F0000 		movl	$31, %esi
 2797      00
 2798 1c31 488D0500 		leaq	.LC91(%rip), %rax
 2798      000000
 2799 1c38 4889C7   		movq	%rax, %rdi
 2800 1c3b E8000000 		call	_Z9testShiftPKcjS0_jS0_jS0_
 2800      00
 2801 1c40 4883C410 		addq	$16, %rsp
 434:testSvf2Csvf.cpp **** 		"71C2E093", 31,
 435:testSvf2Csvf.cpp **** 		"06", 3,
 436:testSvf2Csvf.cpp **** 		"0135", 9,
 437:testSvf2Csvf.cpp **** 		"04D78E17049E"
 438:testSvf2Csvf.cpp **** 	);
 439:testSvf2Csvf.cpp **** 	testShift(
 2802              		.loc 3 439 11
 2803 1c44 4883EC08 		subq	$8, %rsp
 2804 1c48 488D0500 		leaq	.LC96(%rip), %rax
 2804      000000
 2805 1c4f 50       		pushq	%rax
 2806 1c50 41B90900 		movl	$9, %r9d
 2806      0000
 2807 1c56 4C8D0500 		leaq	.LC72(%rip), %r8
 2807      000000
 2808 1c5d B9040000 		movl	$4, %ecx
 2808      00
 2809 1c62 488D0500 		leaq	.LC26(%rip), %rax
 2809      000000
 2810 1c69 4889C2   		movq	%rax, %rdx
 2811 1c6c BE1F0000 		movl	$31, %esi
 2811      00
 2812 1c71 488D0500 		leaq	.LC91(%rip), %rax
 2812      000000
 2813 1c78 4889C7   		movq	%rax, %rdi
 2814 1c7b E8000000 		call	_Z9testShiftPKcjS0_jS0_jS0_
 2814      00
 2815 1c80 4883C410 		addq	$16, %rsp
 440:testSvf2Csvf.cpp **** 		"71C2E093", 31,
 441:testSvf2Csvf.cpp **** 		"0A", 4,
 442:testSvf2Csvf.cpp **** 		"0135", 9,
 443:testSvf2Csvf.cpp **** 		"09AF1C2E093A"
 444:testSvf2Csvf.cpp **** 	);
 445:testSvf2Csvf.cpp **** 	testShift(
 2816              		.loc 3 445 11
 2817 1c84 4883EC08 		subq	$8, %rsp
 2818 1c88 488D0500 		leaq	.LC97(%rip), %rax
 2818      000000
 2819 1c8f 50       		pushq	%rax
 2820 1c90 41B90900 		movl	$9, %r9d
 2820      0000
 2821 1c96 4C8D0500 		leaq	.LC72(%rip), %r8
 2821      000000
 2822 1c9d B9050000 		movl	$5, %ecx
 2822      00
 2823 1ca2 488D0500 		leaq	.LC28(%rip), %rax
 2823      000000
 2824 1ca9 4889C2   		movq	%rax, %rdx
 2825 1cac BE1F0000 		movl	$31, %esi
 2825      00
 2826 1cb1 488D0500 		leaq	.LC91(%rip), %rax
 2826      000000
 2827 1cb8 4889C7   		movq	%rax, %rdi
 2828 1cbb E8000000 		call	_Z9testShiftPKcjS0_jS0_jS0_
 2828      00
 2829 1cc0 4883C410 		addq	$16, %rsp
 446:testSvf2Csvf.cpp **** 		"71C2E093", 31,
 447:testSvf2Csvf.cpp **** 		"15", 5,
 448:testSvf2Csvf.cpp **** 		"0135", 9,
 449:testSvf2Csvf.cpp **** 		"135E385C1275"
 450:testSvf2Csvf.cpp **** 	);
 451:testSvf2Csvf.cpp **** 	testShift(
 2830              		.loc 3 451 11
 2831 1cc4 4883EC08 		subq	$8, %rsp
 2832 1cc8 488D0500 		leaq	.LC98(%rip), %rax
 2832      000000
 2833 1ccf 50       		pushq	%rax
 2834 1cd0 41B90900 		movl	$9, %r9d
 2834      0000
 2835 1cd6 4C8D0500 		leaq	.LC72(%rip), %r8
 2835      000000
 2836 1cdd B9060000 		movl	$6, %ecx
 2836      00
 2837 1ce2 488D0500 		leaq	.LC30(%rip), %rax
 2837      000000
 2838 1ce9 4889C2   		movq	%rax, %rdx
 2839 1cec BE1F0000 		movl	$31, %esi
 2839      00
 2840 1cf1 488D0500 		leaq	.LC91(%rip), %rax
 2840      000000
 2841 1cf8 4889C7   		movq	%rax, %rdi
 2842 1cfb E8000000 		call	_Z9testShiftPKcjS0_jS0_jS0_
 2842      00
 2843 1d00 4883C410 		addq	$16, %rsp
 452:testSvf2Csvf.cpp **** 		"71C2E093", 31,
 453:testSvf2Csvf.cpp **** 		"25", 6,
 454:testSvf2Csvf.cpp **** 		"0135", 9,
 455:testSvf2Csvf.cpp **** 		"26BC70B824E5"
 456:testSvf2Csvf.cpp **** 	);
 457:testSvf2Csvf.cpp **** 	testShift(
 2844              		.loc 3 457 11
 2845 1d04 4883EC08 		subq	$8, %rsp
 2846 1d08 488D0500 		leaq	.LC99(%rip), %rax
 2846      000000
 2847 1d0f 50       		pushq	%rax
 2848 1d10 41B90900 		movl	$9, %r9d
 2848      0000
 2849 1d16 4C8D0500 		leaq	.LC72(%rip), %r8
 2849      000000
 2850 1d1d B9070000 		movl	$7, %ecx
 2850      00
 2851 1d22 488D0500 		leaq	.LC32(%rip), %rax
 2851      000000
 2852 1d29 4889C2   		movq	%rax, %rdx
 2853 1d2c BE1F0000 		movl	$31, %esi
 2853      00
 2854 1d31 488D0500 		leaq	.LC91(%rip), %rax
 2854      000000
 2855 1d38 4889C7   		movq	%rax, %rdi
 2856 1d3b E8000000 		call	_Z9testShiftPKcjS0_jS0_jS0_
 2856      00
 2857 1d40 4883C410 		addq	$16, %rsp
 458:testSvf2Csvf.cpp **** 		"71C2E093", 31,
 459:testSvf2Csvf.cpp **** 		"75", 7,
 460:testSvf2Csvf.cpp **** 		"0135", 9,
 461:testSvf2Csvf.cpp **** 		"4D78E17049F5"
 462:testSvf2Csvf.cpp **** 	);
 463:testSvf2Csvf.cpp **** 	testShift(
 2858              		.loc 3 463 11
 2859 1d44 4883EC08 		subq	$8, %rsp
 2860 1d48 488D0500 		leaq	.LC100(%rip), %rax
 2860      000000
 2861 1d4f 50       		pushq	%rax
 2862 1d50 41B90900 		movl	$9, %r9d
 2862      0000
 2863 1d56 4C8D0500 		leaq	.LC72(%rip), %r8
 2863      000000
 2864 1d5d B9080000 		movl	$8, %ecx
 2864      00
 2865 1d62 488D0500 		leaq	.LC34(%rip), %rax
 2865      000000
 2866 1d69 4889C2   		movq	%rax, %rdx
 2867 1d6c BE1F0000 		movl	$31, %esi
 2867      00
 2868 1d71 488D0500 		leaq	.LC91(%rip), %rax
 2868      000000
 2869 1d78 4889C7   		movq	%rax, %rdi
 2870 1d7b E8000000 		call	_Z9testShiftPKcjS0_jS0_jS0_
 2870      00
 2871 1d80 4883C410 		addq	$16, %rsp
 464:testSvf2Csvf.cpp **** 		"71C2E093", 31,
 465:testSvf2Csvf.cpp **** 		"e5", 8,
 466:testSvf2Csvf.cpp **** 		"0135", 9,
 467:testSvf2Csvf.cpp **** 		"9AF1C2E093E5"
 468:testSvf2Csvf.cpp **** 	);
 469:testSvf2Csvf.cpp **** 	testShift(
 2872              		.loc 3 469 11
 2873 1d84 4883EC08 		subq	$8, %rsp
 2874 1d88 488D0500 		leaq	.LC101(%rip), %rax
 2874      000000
 2875 1d8f 50       		pushq	%rax
 2876 1d90 41B90900 		movl	$9, %r9d
 2876      0000
 2877 1d96 4C8D0500 		leaq	.LC72(%rip), %r8
 2877      000000
 2878 1d9d B9090000 		movl	$9, %ecx
 2878      00
 2879 1da2 488D0500 		leaq	.LC36(%rip), %rax
 2879      000000
 2880 1da9 4889C2   		movq	%rax, %rdx
 2881 1dac BE1F0000 		movl	$31, %esi
 2881      00
 2882 1db1 488D0500 		leaq	.LC91(%rip), %rax
 2882      000000
 2883 1db8 4889C7   		movq	%rax, %rdi
 2884 1dbb E8000000 		call	_Z9testShiftPKcjS0_jS0_jS0_
 2884      00
 2885 1dc0 4883C410 		addq	$16, %rsp
 470:testSvf2Csvf.cpp **** 		"71C2E093", 31,
 471:testSvf2Csvf.cpp **** 		"0115", 9,
 472:testSvf2Csvf.cpp **** 		"0135", 9,
 473:testSvf2Csvf.cpp **** 		"0135E385C12715"
 474:testSvf2Csvf.cpp **** 	);
 475:testSvf2Csvf.cpp **** 	testShift(
 2886              		.loc 3 475 11
 2887 1dc4 4883EC08 		subq	$8, %rsp
 2888 1dc8 488D0500 		leaq	.LC102(%rip), %rax
 2888      000000
 2889 1dcf 50       		pushq	%rax
 2890 1dd0 41B90900 		movl	$9, %r9d
 2890      0000
 2891 1dd6 4C8D0500 		leaq	.LC72(%rip), %r8
 2891      000000
 2892 1ddd B90A0000 		movl	$10, %ecx
 2892      00
 2893 1de2 488D0500 		leaq	.LC38(%rip), %rax
 2893      000000
 2894 1de9 4889C2   		movq	%rax, %rdx
 2895 1dec BE1F0000 		movl	$31, %esi
 2895      00
 2896 1df1 488D0500 		leaq	.LC91(%rip), %rax
 2896      000000
 2897 1df8 4889C7   		movq	%rax, %rdi
 2898 1dfb E8000000 		call	_Z9testShiftPKcjS0_jS0_jS0_
 2898      00
 2899 1e00 4883C410 		addq	$16, %rsp
 476:testSvf2Csvf.cpp **** 		"71C2E093", 31,
 477:testSvf2Csvf.cpp **** 		"0315", 10,
 478:testSvf2Csvf.cpp **** 		"0135", 9,
 479:testSvf2Csvf.cpp **** 		"026BC70B824F15"
 480:testSvf2Csvf.cpp **** 	);
 481:testSvf2Csvf.cpp **** 	testShift(
 2900              		.loc 3 481 11
 2901 1e04 4883EC08 		subq	$8, %rsp
 2902 1e08 488D0500 		leaq	.LC103(%rip), %rax
 2902      000000
 2903 1e0f 50       		pushq	%rax
 2904 1e10 41B90900 		movl	$9, %r9d
 2904      0000
 2905 1e16 4C8D0500 		leaq	.LC72(%rip), %r8
 2905      000000
 2906 1e1d B90B0000 		movl	$11, %ecx
 2906      00
 2907 1e22 488D0500 		leaq	.LC40(%rip), %rax
 2907      000000
 2908 1e29 4889C2   		movq	%rax, %rdx
 2909 1e2c BE1F0000 		movl	$31, %esi
 2909      00
 2910 1e31 488D0500 		leaq	.LC91(%rip), %rax
 2910      000000
 2911 1e38 4889C7   		movq	%rax, %rdi
 2912 1e3b E8000000 		call	_Z9testShiftPKcjS0_jS0_jS0_
 2912      00
 2913 1e40 4883C410 		addq	$16, %rsp
 482:testSvf2Csvf.cpp **** 		"71C2E093", 31,
 483:testSvf2Csvf.cpp **** 		"0715", 11,
 484:testSvf2Csvf.cpp **** 		"0135", 9,
 485:testSvf2Csvf.cpp **** 		"04D78E17049F15"
 486:testSvf2Csvf.cpp **** 	);
 487:testSvf2Csvf.cpp **** 	testShift(
 2914              		.loc 3 487 11
 2915 1e44 4883EC08 		subq	$8, %rsp
 2916 1e48 488D0500 		leaq	.LC104(%rip), %rax
 2916      000000
 2917 1e4f 50       		pushq	%rax
 2918 1e50 41B90900 		movl	$9, %r9d
 2918      0000
 2919 1e56 4C8D0500 		leaq	.LC72(%rip), %r8
 2919      000000
 2920 1e5d B90C0000 		movl	$12, %ecx
 2920      00
 2921 1e62 488D0500 		leaq	.LC42(%rip), %rax
 2921      000000
 2922 1e69 4889C2   		movq	%rax, %rdx
 2923 1e6c BE1F0000 		movl	$31, %esi
 2923      00
 2924 1e71 488D0500 		leaq	.LC91(%rip), %rax
 2924      000000
 2925 1e78 4889C7   		movq	%rax, %rdi
 2926 1e7b E8000000 		call	_Z9testShiftPKcjS0_jS0_jS0_
 2926      00
 2927 1e80 4883C410 		addq	$16, %rsp
 488:testSvf2Csvf.cpp **** 		"71C2E093", 31,
 489:testSvf2Csvf.cpp **** 		"0c15", 12,
 490:testSvf2Csvf.cpp **** 		"0135", 9,
 491:testSvf2Csvf.cpp **** 		"09AF1C2E093C15"
 492:testSvf2Csvf.cpp **** 	);
 493:testSvf2Csvf.cpp **** 	testShift(
 2928              		.loc 3 493 11
 2929 1e84 4883EC08 		subq	$8, %rsp
 2930 1e88 488D0500 		leaq	.LC105(%rip), %rax
 2930      000000
 2931 1e8f 50       		pushq	%rax
 2932 1e90 41B90900 		movl	$9, %r9d
 2932      0000
 2933 1e96 4C8D0500 		leaq	.LC72(%rip), %r8
 2933      000000
 2934 1e9d B90D0000 		movl	$13, %ecx
 2934      00
 2935 1ea2 488D0500 		leaq	.LC44(%rip), %rax
 2935      000000
 2936 1ea9 4889C2   		movq	%rax, %rdx
 2937 1eac BE1F0000 		movl	$31, %esi
 2937      00
 2938 1eb1 488D0500 		leaq	.LC91(%rip), %rax
 2938      000000
 2939 1eb8 4889C7   		movq	%rax, %rdi
 2940 1ebb E8000000 		call	_Z9testShiftPKcjS0_jS0_jS0_
 2940      00
 2941 1ec0 4883C410 		addq	$16, %rsp
 494:testSvf2Csvf.cpp **** 		"71C2E093", 31,
 495:testSvf2Csvf.cpp **** 		"1c15", 13,
 496:testSvf2Csvf.cpp **** 		"0135", 9,
 497:testSvf2Csvf.cpp **** 		"135E385C127C15"
 498:testSvf2Csvf.cpp **** 	);
 499:testSvf2Csvf.cpp **** 	testShift(
 2942              		.loc 3 499 11
 2943 1ec4 4883EC08 		subq	$8, %rsp
 2944 1ec8 488D0500 		leaq	.LC106(%rip), %rax
 2944      000000
 2945 1ecf 50       		pushq	%rax
 2946 1ed0 41B90900 		movl	$9, %r9d
 2946      0000
 2947 1ed6 4C8D0500 		leaq	.LC72(%rip), %r8
 2947      000000
 2948 1edd B90E0000 		movl	$14, %ecx
 2948      00
 2949 1ee2 488D0500 		leaq	.LC46(%rip), %rax
 2949      000000
 2950 1ee9 4889C2   		movq	%rax, %rdx
 2951 1eec BE1F0000 		movl	$31, %esi
 2951      00
 2952 1ef1 488D0500 		leaq	.LC91(%rip), %rax
 2952      000000
 2953 1ef8 4889C7   		movq	%rax, %rdi
 2954 1efb E8000000 		call	_Z9testShiftPKcjS0_jS0_jS0_
 2954      00
 2955 1f00 4883C410 		addq	$16, %rsp
 500:testSvf2Csvf.cpp **** 		"71C2E093", 31,
 501:testSvf2Csvf.cpp **** 		"2c15", 14,
 502:testSvf2Csvf.cpp **** 		"0135", 9,
 503:testSvf2Csvf.cpp **** 		"26BC70B824EC15"
 504:testSvf2Csvf.cpp **** 	);
 505:testSvf2Csvf.cpp **** 	testShift(
 2956              		.loc 3 505 11
 2957 1f04 4883EC08 		subq	$8, %rsp
 2958 1f08 488D0500 		leaq	.LC107(%rip), %rax
 2958      000000
 2959 1f0f 50       		pushq	%rax
 2960 1f10 41B90900 		movl	$9, %r9d
 2960      0000
 2961 1f16 4C8D0500 		leaq	.LC72(%rip), %r8
 2961      000000
 2962 1f1d B90F0000 		movl	$15, %ecx
 2962      00
 2963 1f22 488D0500 		leaq	.LC48(%rip), %rax
 2963      000000
 2964 1f29 4889C2   		movq	%rax, %rdx
 2965 1f2c BE1F0000 		movl	$31, %esi
 2965      00
 2966 1f31 488D0500 		leaq	.LC91(%rip), %rax
 2966      000000
 2967 1f38 4889C7   		movq	%rax, %rdi
 2968 1f3b E8000000 		call	_Z9testShiftPKcjS0_jS0_jS0_
 2968      00
 2969 1f40 4883C410 		addq	$16, %rsp
 506:testSvf2Csvf.cpp **** 		"71C2E093", 31,
 507:testSvf2Csvf.cpp **** 		"4015", 15,
 508:testSvf2Csvf.cpp **** 		"0135", 9,
 509:testSvf2Csvf.cpp **** 		"4D78E17049C015"
 510:testSvf2Csvf.cpp **** 	);
 511:testSvf2Csvf.cpp **** 	testShift(
 2970              		.loc 3 511 11
 2971 1f44 4883EC08 		subq	$8, %rsp
 2972 1f48 488D0500 		leaq	.LC108(%rip), %rax
 2972      000000
 2973 1f4f 50       		pushq	%rax
 2974 1f50 41B90900 		movl	$9, %r9d
 2974      0000
 2975 1f56 4C8D0500 		leaq	.LC72(%rip), %r8
 2975      000000
 2976 1f5d B9100000 		movl	$16, %ecx
 2976      00
 2977 1f62 488D0500 		leaq	.LC50(%rip), %rax
 2977      000000
 2978 1f69 4889C2   		movq	%rax, %rdx
 2979 1f6c BE1F0000 		movl	$31, %esi
 2979      00
 2980 1f71 488D0500 		leaq	.LC91(%rip), %rax
 2980      000000
 2981 1f78 4889C7   		movq	%rax, %rdi
 2982 1f7b E8000000 		call	_Z9testShiftPKcjS0_jS0_jS0_
 2982      00
 2983 1f80 4883C410 		addq	$16, %rsp
 512:testSvf2Csvf.cpp **** 		"71C2E093", 31,
 513:testSvf2Csvf.cpp **** 		"8015", 16,
 514:testSvf2Csvf.cpp **** 		"0135", 9,
 515:testSvf2Csvf.cpp **** 		"9AF1C2E0938015"
 516:testSvf2Csvf.cpp **** 	);
 517:testSvf2Csvf.cpp **** 	testShift(
 2984              		.loc 3 517 11
 2985 1f84 4883EC08 		subq	$8, %rsp
 2986 1f88 488D0500 		leaq	.LC109(%rip), %rax
 2986      000000
 2987 1f8f 50       		pushq	%rax
 2988 1f90 41B90900 		movl	$9, %r9d
 2988      0000
 2989 1f96 4C8D0500 		leaq	.LC72(%rip), %r8
 2989      000000
 2990 1f9d B9110000 		movl	$17, %ecx
 2990      00
 2991 1fa2 488D0500 		leaq	.LC52(%rip), %rax
 2991      000000
 2992 1fa9 4889C2   		movq	%rax, %rdx
 2993 1fac BE1F0000 		movl	$31, %esi
 2993      00
 2994 1fb1 488D0500 		leaq	.LC91(%rip), %rax
 2994      000000
 2995 1fb8 4889C7   		movq	%rax, %rdi
 2996 1fbb E8000000 		call	_Z9testShiftPKcjS0_jS0_jS0_
 2996      00
 2997 1fc0 4883C410 		addq	$16, %rsp
 518:testSvf2Csvf.cpp **** 		"71C2E093", 31,
 519:testSvf2Csvf.cpp **** 		"018015", 17,
 520:testSvf2Csvf.cpp **** 		"0135", 9,
 521:testSvf2Csvf.cpp **** 		"0135E385C1278015"
 522:testSvf2Csvf.cpp **** 	);
 523:testSvf2Csvf.cpp **** 	testShift(
 2998              		.loc 3 523 11
 2999 1fc4 4883EC08 		subq	$8, %rsp
 3000 1fc8 488D0500 		leaq	.LC112(%rip), %rax
 3000      000000
 3001 1fcf 50       		pushq	%rax
 3002 1fd0 41B90100 		movl	$1, %r9d
 3002      0000
 3003 1fd6 4C8D0500 		leaq	.LC21(%rip), %r8
 3003      000000
 3004 1fdd B9000000 		movl	$0, %ecx
 3004      00
 3005 1fe2 488D0500 		leaq	.LC110(%rip), %rax
 3005      000000
 3006 1fe9 4889C2   		movq	%rax, %rdx
 3007 1fec BE5F0000 		movl	$95, %esi
 3007      00
 3008 1ff1 488D0500 		leaq	.LC111(%rip), %rax
 3008      000000
 3009 1ff8 4889C7   		movq	%rax, %rdi
 3010 1ffb E8000000 		call	_Z9testShiftPKcjS0_jS0_jS0_
 3010      00
 3011 2000 4883C410 		addq	$16, %rsp
 524:testSvf2Csvf.cpp **** 		"5423DF3A8F129B2C91B9425D", 95,
 525:testSvf2Csvf.cpp **** 		"", 0,
 526:testSvf2Csvf.cpp **** 		"01", 1,
 527:testSvf2Csvf.cpp **** 		"D423DF3A8F129B2C91B9425D"
 528:testSvf2Csvf.cpp **** 	);
 529:testSvf2Csvf.cpp **** 	testShift(
 3012              		.loc 3 529 11
 3013 2004 4883EC08 		subq	$8, %rsp
 3014 2008 488D0500 		leaq	.LC113(%rip), %rax
 3014      000000
 3015 200f 50       		pushq	%rax
 3016 2010 41B90000 		movl	$0, %r9d
 3016      0000
 3017 2016 4C8D0500 		leaq	.LC110(%rip), %r8
 3017      000000
 3018 201d B9010000 		movl	$1, %ecx
 3018      00
 3019 2022 488D0500 		leaq	.LC21(%rip), %rax
 3019      000000
 3020 2029 4889C2   		movq	%rax, %rdx
 3021 202c BE5F0000 		movl	$95, %esi
 3021      00
 3022 2031 488D0500 		leaq	.LC111(%rip), %rax
 3022      000000
 3023 2038 4889C7   		movq	%rax, %rdi
 3024 203b E8000000 		call	_Z9testShiftPKcjS0_jS0_jS0_
 3024      00
 3025 2040 4883C410 		addq	$16, %rsp
 530:testSvf2Csvf.cpp **** 		"5423DF3A8F129B2C91B9425D", 95,
 531:testSvf2Csvf.cpp **** 		"01", 1,
 532:testSvf2Csvf.cpp **** 		"", 0,
 533:testSvf2Csvf.cpp **** 		"A847BE751E253659237284BB"
 534:testSvf2Csvf.cpp **** 	);
 535:testSvf2Csvf.cpp **** }
 3026              		.loc 3 535 1
 3027 2044 90       		nop
 3028 2045 C9       		leave
 3029              		.cfi_def_cfa 7, 8
 3030 2046 C3       		ret
 3031              		.cfi_endproc
 3032              	.LFE1154:
 3034              		.globl	_Z11parseStringP12ParseContextPKcP6Buffer
 3036              	_Z11parseStringP12ParseContextPKcP6Buffer:
 3037              	.LFB1155:
 536:testSvf2Csvf.cpp **** 
 537:testSvf2Csvf.cpp **** void parseString(ParseContext *cxt, const char *str, struct Buffer *csvfBuf) {
 3038              		.loc 3 537 78
 3039              		.cfi_startproc
 3040              		.cfi_personality 0x9b,DW.ref.__gxx_personality_v0
 3041              		.cfi_lsda 0x1b,.LLSDA1155
 3042 2047 F30F1EFA 		endbr64
 3043 204b 55       		pushq	%rbp
 3044              		.cfi_def_cfa_offset 16
 3045              		.cfi_offset 6, -16
 3046 204c 4889E5   		movq	%rsp, %rbp
 3047              		.cfi_def_cfa_register 6
 3048 204f 53       		pushq	%rbx
 3049 2050 4881EC88 		subq	$136, %rsp
 3049      000000
 3050              		.cfi_offset 3, -24
 3051 2057 48897D88 		movq	%rdi, -120(%rbp)
 3052 205b 48897580 		movq	%rsi, -128(%rbp)
 3053 205f 48899578 		movq	%rdx, -136(%rbp)
 3053      FFFFFF
 3054              		.loc 3 537 78
 3055 2066 64488B04 		movq	%fs:40, %rax
 3055      25280000 
 3055      00
 3056 206f 488945E8 		movq	%rax, -24(%rbp)
 3057 2073 31C0     		xorl	%eax, %eax
 538:testSvf2Csvf.cpp **** 	Buffer line;
 539:testSvf2Csvf.cpp **** 	BufferStatus bStatus;
 540:testSvf2Csvf.cpp **** 	FLStatus fStatus;
 541:testSvf2Csvf.cpp **** 	const uint32 lineLen = (uint32)strlen(str) + 1;
 3058              		.loc 3 541 39
 3059 2075 488B4580 		movq	-128(%rbp), %rax
 3060 2079 4889C7   		movq	%rax, %rdi
 3061 207c E8000000 		call	strlen@PLT
 3061      00
 3062              		.loc 3 541 15
 3063 2081 83C001   		addl	$1, %eax
 3064 2084 89459C   		movl	%eax, -100(%rbp)
 542:testSvf2Csvf.cpp **** 	bStatus = bufInitialise(&line, lineLen, 0, NULL);
 3065              		.loc 3 542 25
 3066 2087 8B759C   		movl	-100(%rbp), %esi
 3067 208a 488D45A0 		leaq	-96(%rbp), %rax
 3068 208e B9000000 		movl	$0, %ecx
 3068      00
 3069 2093 BA000000 		movl	$0, %edx
 3069      00
 3070 2098 4889C7   		movq	%rax, %rdi
 3071              	.LEHB67:
 3072 209b E8000000 		call	bufInitialise@PLT
 3072      00
 3073              	.LEHE67:
 3074              		.loc 3 542 10
 3075 20a0 894590   		movl	%eax, -112(%rbp)
 3076              	.LEHB68:
 543:testSvf2Csvf.cpp **** 	CHECK_EQUAL(BUF_SUCCESS, bStatus);
 3077              		.loc 3 543 2
 3078 20a3 E8000000 		call	_ZN8UnitTest11CurrentTest7DetailsEv@PLT
 3078      00
 3079 20a8 488B08   		movq	(%rax), %rcx
 3080 20ab 488D45C0 		leaq	-64(%rbp), %rax
 3081 20af BA1F0200 		movl	$543, %edx
 3081      00
 3082 20b4 4889CE   		movq	%rcx, %rsi
 3083 20b7 4889C7   		movq	%rax, %rdi
 3084 20ba E8000000 		call	_ZN8UnitTest11TestDetailsC1ERKS0_i@PLT
 3084      00
 3085              		.loc 3 543 2 is_stmt 0 discriminator 4
 3086 20bf C7459800 		movl	$0, -104(%rbp)
 3086      000000
 3087 20c6 E8000000 		call	_ZN8UnitTest11CurrentTest7ResultsEv@PLT
 3087      00
 3088 20cb 488B00   		movq	(%rax), %rax
 3089 20ce 488D4DC0 		leaq	-64(%rbp), %rcx
 3090 20d2 488D5590 		leaq	-112(%rbp), %rdx
 3091 20d6 488D7598 		leaq	-104(%rbp), %rsi
 3092 20da 4889C7   		movq	%rax, %rdi
 3093 20dd E8000000 		call	_ZN8UnitTest10CheckEqualI12BufferStatusS1_EEvRNS_11TestResultsERKT_RKT0_RKNS_11TestDetailsE
 3093      00
 3094              	.LEHE68:
 3095              	.L91:
 544:testSvf2Csvf.cpp **** 	bStatus = bufAppendBlock(&line, (const uint8 *)str, lineLen, NULL);
 3096              		.loc 3 544 26 is_stmt 1
 3097 20e2 8B559C   		movl	-100(%rbp), %edx
 3098 20e5 488B7580 		movq	-128(%rbp), %rsi
 3099 20e9 488D45A0 		leaq	-96(%rbp), %rax
 3100 20ed B9000000 		movl	$0, %ecx
 3100      00
 3101 20f2 4889C7   		movq	%rax, %rdi
 3102              	.LEHB69:
 3103 20f5 E8000000 		call	bufAppendBlock@PLT
 3103      00
 3104              	.LEHE69:
 3105              		.loc 3 544 10
 3106 20fa 894590   		movl	%eax, -112(%rbp)
 3107              	.LEHB70:
 545:testSvf2Csvf.cpp **** 	CHECK_EQUAL(BUF_SUCCESS, bStatus);
 3108              		.loc 3 545 2
 3109 20fd E8000000 		call	_ZN8UnitTest11CurrentTest7DetailsEv@PLT
 3109      00
 3110 2102 488B08   		movq	(%rax), %rcx
 3111 2105 488D45C0 		leaq	-64(%rbp), %rax
 3112 2109 BA210200 		movl	$545, %edx
 3112      00
 3113 210e 4889CE   		movq	%rcx, %rsi
 3114 2111 4889C7   		movq	%rax, %rdi
 3115 2114 E8000000 		call	_ZN8UnitTest11TestDetailsC1ERKS0_i@PLT
 3115      00
 3116              		.loc 3 545 2 is_stmt 0 discriminator 4
 3117 2119 C7459800 		movl	$0, -104(%rbp)
 3117      000000
 3118 2120 E8000000 		call	_ZN8UnitTest11CurrentTest7ResultsEv@PLT
 3118      00
 3119 2125 488B00   		movq	(%rax), %rax
 3120 2128 488D4DC0 		leaq	-64(%rbp), %rcx
 3121 212c 488D5590 		leaq	-112(%rbp), %rdx
 3122 2130 488D7598 		leaq	-104(%rbp), %rsi
 3123 2134 4889C7   		movq	%rax, %rdi
 3124 2137 E8000000 		call	_ZN8UnitTest10CheckEqualI12BufferStatusS1_EEvRNS_11TestResultsERKT_RKT0_RKNS_11TestDetailsE
 3124      00
 3125              	.LEHE70:
 3126              	.L94:
 546:testSvf2Csvf.cpp **** 	fStatus = parseLine(cxt, &line, csvfBuf, NULL, NULL);
 3127              		.loc 3 546 21 is_stmt 1
 3128 213c 488B9578 		movq	-136(%rbp), %rdx
 3128      FFFFFF
 3129 2143 488D75A0 		leaq	-96(%rbp), %rsi
 3130 2147 488B4588 		movq	-120(%rbp), %rax
 3131 214b 41B80000 		movl	$0, %r8d
 3131      0000
 3132 2151 B9000000 		movl	$0, %ecx
 3132      00
 3133 2156 4889C7   		movq	%rax, %rdi
 3134              	.LEHB71:
 3135 2159 E8000000 		call	parseLine@PLT
 3135      00
 3136              	.LEHE71:
 3137              		.loc 3 546 10
 3138 215e 894594   		movl	%eax, -108(%rbp)
 3139              	.LEHB72:
 547:testSvf2Csvf.cpp **** 	CHECK_EQUAL(FL_SUCCESS, fStatus);
 3140              		.loc 3 547 2
 3141 2161 E8000000 		call	_ZN8UnitTest11CurrentTest7DetailsEv@PLT
 3141      00
 3142 2166 488B08   		movq	(%rax), %rcx
 3143 2169 488D45C0 		leaq	-64(%rbp), %rax
 3144 216d BA230200 		movl	$547, %edx
 3144      00
 3145 2172 4889CE   		movq	%rcx, %rsi
 3146 2175 4889C7   		movq	%rax, %rdi
 3147 2178 E8000000 		call	_ZN8UnitTest11TestDetailsC1ERKS0_i@PLT
 3147      00
 3148              		.loc 3 547 2 is_stmt 0 discriminator 4
 3149 217d C7459800 		movl	$0, -104(%rbp)
 3149      000000
 3150 2184 E8000000 		call	_ZN8UnitTest11CurrentTest7ResultsEv@PLT
 3150      00
 3151 2189 488B00   		movq	(%rax), %rax
 3152 218c 488D4DC0 		leaq	-64(%rbp), %rcx
 3153 2190 488D5594 		leaq	-108(%rbp), %rdx
 3154 2194 488D7598 		leaq	-104(%rbp), %rsi
 3155 2198 4889C7   		movq	%rax, %rdi
 3156 219b E8000000 		call	_ZN8UnitTest10CheckEqualI8FLStatusS1_EEvRNS_11TestResultsERKT_RKT0_RKNS_11TestDetailsE
 3156      00
 3157              	.LEHE72:
 3158              	.L97:
 548:testSvf2Csvf.cpp **** 	bufDestroy(&line);
 3159              		.loc 3 548 12 is_stmt 1
 3160 21a0 488D45A0 		leaq	-96(%rbp), %rax
 3161 21a4 4889C7   		movq	%rax, %rdi
 3162              	.LEHB73:
 3163 21a7 E8000000 		call	bufDestroy@PLT
 3163      00
 3164              	.LEHE73:
 549:testSvf2Csvf.cpp **** }
 3165              		.loc 3 549 1
 3166 21ac 90       		nop
 3167 21ad 488B45E8 		movq	-24(%rbp), %rax
 3168 21b1 64482B04 		subq	%fs:40, %rax
 3168      25280000 
 3168      00
 3169 21ba 0F843F01 		je	.L99
 3169      0000
 3170 21c0 E9350100 		jmp	.L106
 3170      00
 3171              	.L100:
 3172 21c5 F30F1EFA 		endbr64
 543:testSvf2Csvf.cpp **** 	bStatus = bufAppendBlock(&line, (const uint8 *)str, lineLen, NULL);
 3173              		.loc 3 543 2
 3174 21c9 4889C7   		movq	%rax, %rdi
 3175 21cc E8000000 		call	__cxa_begin_catch@PLT
 3175      00
 3176              	.LEHB74:
 3177 21d1 E8000000 		call	_ZN8UnitTest11CurrentTest7ResultsEv@PLT
 3177      00
 543:testSvf2Csvf.cpp **** 	bStatus = bufAppendBlock(&line, (const uint8 *)str, lineLen, NULL);
 3178              		.loc 3 543 2 is_stmt 0 discriminator 3
 3179 21d6 488B18   		movq	(%rax), %rbx
 3180 21d9 E8000000 		call	_ZN8UnitTest11CurrentTest7DetailsEv@PLT
 3180      00
 543:testSvf2Csvf.cpp **** 	bStatus = bufAppendBlock(&line, (const uint8 *)str, lineLen, NULL);
 3181              		.loc 3 543 2 discriminator 11
 3182 21de 488B08   		movq	(%rax), %rcx
 3183 21e1 488D45C0 		leaq	-64(%rbp), %rax
 3184 21e5 BA1F0200 		movl	$543, %edx
 3184      00
 3185 21ea 4889CE   		movq	%rcx, %rsi
 3186 21ed 4889C7   		movq	%rax, %rdi
 3187 21f0 E8000000 		call	_ZN8UnitTest11TestDetailsC1ERKS0_i@PLT
 3187      00
 543:testSvf2Csvf.cpp **** 	bStatus = bufAppendBlock(&line, (const uint8 *)str, lineLen, NULL);
 3188              		.loc 3 543 2 discriminator 15
 3189 21f5 488D45C0 		leaq	-64(%rbp), %rax
 3190 21f9 488D1500 		leaq	.LC13(%rip), %rdx
 3190      000000
 3191 2200 4889C6   		movq	%rax, %rsi
 3192 2203 4889DF   		movq	%rbx, %rdi
 3193 2206 E8000000 		call	_ZN8UnitTest11TestResults13OnTestFailureERKNS_11TestDetailsEPKc@PLT
 3193      00
 3194              	.LEHE74:
 3195              	.LEHB75:
 543:testSvf2Csvf.cpp **** 	bStatus = bufAppendBlock(&line, (const uint8 *)str, lineLen, NULL);
 3196              		.loc 3 543 2 discriminator 17
 3197 220b E8000000 		call	__cxa_end_catch@PLT
 3197      00
 3198              	.LEHE75:
 3199 2210 E9CDFEFF 		jmp	.L91
 3199      FF
 3200              	.L101:
 3201 2215 F30F1EFA 		endbr64
 543:testSvf2Csvf.cpp **** 	bStatus = bufAppendBlock(&line, (const uint8 *)str, lineLen, NULL);
 3202              		.loc 3 543 2
 3203 2219 4889C3   		movq	%rax, %rbx
 3204 221c E8000000 		call	__cxa_end_catch@PLT
 3204      00
 3205 2221 4889D8   		movq	%rbx, %rax
 3206 2224 4889C7   		movq	%rax, %rdi
 3207              	.LEHB76:
 3208 2227 E8000000 		call	_Unwind_Resume@PLT
 3208      00
 3209              	.LEHE76:
 3210              	.L102:
 3211 222c F30F1EFA 		endbr64
 545:testSvf2Csvf.cpp **** 	fStatus = parseLine(cxt, &line, csvfBuf, NULL, NULL);
 3212              		.loc 3 545 2 is_stmt 1
 3213 2230 4889C7   		movq	%rax, %rdi
 3214 2233 E8000000 		call	__cxa_begin_catch@PLT
 3214      00
 3215              	.LEHB77:
 3216 2238 E8000000 		call	_ZN8UnitTest11CurrentTest7ResultsEv@PLT
 3216      00
 545:testSvf2Csvf.cpp **** 	fStatus = parseLine(cxt, &line, csvfBuf, NULL, NULL);
 3217              		.loc 3 545 2 is_stmt 0 discriminator 3
 3218 223d 488B18   		movq	(%rax), %rbx
 3219 2240 E8000000 		call	_ZN8UnitTest11CurrentTest7DetailsEv@PLT
 3219      00
 545:testSvf2Csvf.cpp **** 	fStatus = parseLine(cxt, &line, csvfBuf, NULL, NULL);
 3220              		.loc 3 545 2 discriminator 11
 3221 2245 488B08   		movq	(%rax), %rcx
 3222 2248 488D45C0 		leaq	-64(%rbp), %rax
 3223 224c BA210200 		movl	$545, %edx
 3223      00
 3224 2251 4889CE   		movq	%rcx, %rsi
 3225 2254 4889C7   		movq	%rax, %rdi
 3226 2257 E8000000 		call	_ZN8UnitTest11TestDetailsC1ERKS0_i@PLT
 3226      00
 545:testSvf2Csvf.cpp **** 	fStatus = parseLine(cxt, &line, csvfBuf, NULL, NULL);
 3227              		.loc 3 545 2 discriminator 15
 3228 225c 488D45C0 		leaq	-64(%rbp), %rax
 3229 2260 488D1500 		leaq	.LC13(%rip), %rdx
 3229      000000
 3230 2267 4889C6   		movq	%rax, %rsi
 3231 226a 4889DF   		movq	%rbx, %rdi
 3232 226d E8000000 		call	_ZN8UnitTest11TestResults13OnTestFailureERKNS_11TestDetailsEPKc@PLT
 3232      00
 3233              	.LEHE77:
 3234              	.LEHB78:
 545:testSvf2Csvf.cpp **** 	fStatus = parseLine(cxt, &line, csvfBuf, NULL, NULL);
 3235              		.loc 3 545 2 discriminator 17
 3236 2272 E8000000 		call	__cxa_end_catch@PLT
 3236      00
 3237              	.LEHE78:
 3238 2277 E9C0FEFF 		jmp	.L94
 3238      FF
 3239              	.L103:
 3240 227c F30F1EFA 		endbr64
 545:testSvf2Csvf.cpp **** 	fStatus = parseLine(cxt, &line, csvfBuf, NULL, NULL);
 3241              		.loc 3 545 2
 3242 2280 4889C3   		movq	%rax, %rbx
 3243 2283 E8000000 		call	__cxa_end_catch@PLT
 3243      00
 3244 2288 4889D8   		movq	%rbx, %rax
 3245 228b 4889C7   		movq	%rax, %rdi
 3246              	.LEHB79:
 3247 228e E8000000 		call	_Unwind_Resume@PLT
 3247      00
 3248              	.LEHE79:
 3249              	.L104:
 3250 2293 F30F1EFA 		endbr64
 547:testSvf2Csvf.cpp **** 	bufDestroy(&line);
 3251              		.loc 3 547 2 is_stmt 1
 3252 2297 4889C7   		movq	%rax, %rdi
 3253 229a E8000000 		call	__cxa_begin_catch@PLT
 3253      00
 3254              	.LEHB80:
 3255 229f E8000000 		call	_ZN8UnitTest11CurrentTest7ResultsEv@PLT
 3255      00
 547:testSvf2Csvf.cpp **** 	bufDestroy(&line);
 3256              		.loc 3 547 2 is_stmt 0 discriminator 3
 3257 22a4 488B18   		movq	(%rax), %rbx
 3258 22a7 E8000000 		call	_ZN8UnitTest11CurrentTest7DetailsEv@PLT
 3258      00
 547:testSvf2Csvf.cpp **** 	bufDestroy(&line);
 3259              		.loc 3 547 2 discriminator 11
 3260 22ac 488B08   		movq	(%rax), %rcx
 3261 22af 488D45C0 		leaq	-64(%rbp), %rax
 3262 22b3 BA230200 		movl	$547, %edx
 3262      00
 3263 22b8 4889CE   		movq	%rcx, %rsi
 3264 22bb 4889C7   		movq	%rax, %rdi
 3265 22be E8000000 		call	_ZN8UnitTest11TestDetailsC1ERKS0_i@PLT
 3265      00
 547:testSvf2Csvf.cpp **** 	bufDestroy(&line);
 3266              		.loc 3 547 2 discriminator 15
 3267 22c3 488D45C0 		leaq	-64(%rbp), %rax
 3268 22c7 488D1500 		leaq	.LC2(%rip), %rdx
 3268      000000
 3269 22ce 4889C6   		movq	%rax, %rsi
 3270 22d1 4889DF   		movq	%rbx, %rdi
 3271 22d4 E8000000 		call	_ZN8UnitTest11TestResults13OnTestFailureERKNS_11TestDetailsEPKc@PLT
 3271      00
 3272              	.LEHE80:
 3273              	.LEHB81:
 547:testSvf2Csvf.cpp **** 	bufDestroy(&line);
 3274              		.loc 3 547 2 discriminator 17
 3275 22d9 E8000000 		call	__cxa_end_catch@PLT
 3275      00
 3276              	.LEHE81:
 3277 22de E9BDFEFF 		jmp	.L97
 3277      FF
 3278              	.L105:
 3279 22e3 F30F1EFA 		endbr64
 547:testSvf2Csvf.cpp **** 	bufDestroy(&line);
 3280              		.loc 3 547 2
 3281 22e7 4889C3   		movq	%rax, %rbx
 3282 22ea E8000000 		call	__cxa_end_catch@PLT
 3282      00
 3283 22ef 4889D8   		movq	%rbx, %rax
 3284 22f2 4889C7   		movq	%rax, %rdi
 3285              	.LEHB82:
 3286 22f5 E8000000 		call	_Unwind_Resume@PLT
 3286      00
 3287              	.LEHE82:
 3288              	.L106:
 3289              		.loc 3 549 1 is_stmt 1
 3290 22fa E8000000 		call	__stack_chk_fail@PLT
 3290      00
 3291              	.L99:
 3292 22ff 488B5DF8 		movq	-8(%rbp), %rbx
 3293 2303 C9       		leave
 3294              		.cfi_def_cfa 7, 8
 3295 2304 C3       		ret
 3296              		.cfi_endproc
 3297              	.LFE1155:
 3298              		.section	.gcc_except_table
 3299              		.align 4
 3300              	.LLSDA1155:
 3301 0178 FF       		.byte	0xff
 3302 0179 9B       		.byte	0x9b
 3303 017a 5D       		.uleb128 .LLSDATT1155-.LLSDATTD1155
 3304              	.LLSDATTD1155:
 3305 017b 01       		.byte	0x1
 3306 017c 54       		.uleb128 .LLSDACSE1155-.LLSDACSB1155
 3307              	.LLSDACSB1155:
 3308 017d 54       		.uleb128 .LEHB67-.LFB1155
 3309 017e 05       		.uleb128 .LEHE67-.LEHB67
 3310 017f 00       		.uleb128 0
 3311 0180 00       		.uleb128 0
 3312 0181 5C       		.uleb128 .LEHB68-.LFB1155
 3313 0182 3F       		.uleb128 .LEHE68-.LEHB68
 3314 0183 FE02     		.uleb128 .L100-.LFB1155
 3315 0185 01       		.uleb128 0x1
 3316 0186 AE01     		.uleb128 .LEHB69-.LFB1155
 3317 0188 05       		.uleb128 .LEHE69-.LEHB69
 3318 0189 00       		.uleb128 0
 3319 018a 00       		.uleb128 0
 3320 018b B601     		.uleb128 .LEHB70-.LFB1155
 3321 018d 3F       		.uleb128 .LEHE70-.LEHB70
 3322 018e E503     		.uleb128 .L102-.LFB1155
 3323 0190 01       		.uleb128 0x1
 3324 0191 9202     		.uleb128 .LEHB71-.LFB1155
 3325 0193 05       		.uleb128 .LEHE71-.LEHB71
 3326 0194 00       		.uleb128 0
 3327 0195 00       		.uleb128 0
 3328 0196 9A02     		.uleb128 .LEHB72-.LFB1155
 3329 0198 3F       		.uleb128 .LEHE72-.LEHB72
 3330 0199 CC04     		.uleb128 .L104-.LFB1155
 3331 019b 01       		.uleb128 0x1
 3332 019c E002     		.uleb128 .LEHB73-.LFB1155
 3333 019e 05       		.uleb128 .LEHE73-.LEHB73
 3334 019f 00       		.uleb128 0
 3335 01a0 00       		.uleb128 0
 3336 01a1 8A03     		.uleb128 .LEHB74-.LFB1155
 3337 01a3 3A       		.uleb128 .LEHE74-.LEHB74
 3338 01a4 CE03     		.uleb128 .L101-.LFB1155
 3339 01a6 00       		.uleb128 0
 3340 01a7 C403     		.uleb128 .LEHB75-.LFB1155
 3341 01a9 05       		.uleb128 .LEHE75-.LEHB75
 3342 01aa 00       		.uleb128 0
 3343 01ab 00       		.uleb128 0
 3344 01ac E003     		.uleb128 .LEHB76-.LFB1155
 3345 01ae 05       		.uleb128 .LEHE76-.LEHB76
 3346 01af 00       		.uleb128 0
 3347 01b0 00       		.uleb128 0
 3348 01b1 F103     		.uleb128 .LEHB77-.LFB1155
 3349 01b3 3A       		.uleb128 .LEHE77-.LEHB77
 3350 01b4 B504     		.uleb128 .L103-.LFB1155
 3351 01b6 00       		.uleb128 0
 3352 01b7 AB04     		.uleb128 .LEHB78-.LFB1155
 3353 01b9 05       		.uleb128 .LEHE78-.LEHB78
 3354 01ba 00       		.uleb128 0
 3355 01bb 00       		.uleb128 0
 3356 01bc C704     		.uleb128 .LEHB79-.LFB1155
 3357 01be 05       		.uleb128 .LEHE79-.LEHB79
 3358 01bf 00       		.uleb128 0
 3359 01c0 00       		.uleb128 0
 3360 01c1 D804     		.uleb128 .LEHB80-.LFB1155
 3361 01c3 3A       		.uleb128 .LEHE80-.LEHB80
 3362 01c4 9C05     		.uleb128 .L105-.LFB1155
 3363 01c6 00       		.uleb128 0
 3364 01c7 9205     		.uleb128 .LEHB81-.LFB1155
 3365 01c9 05       		.uleb128 .LEHE81-.LEHB81
 3366 01ca 00       		.uleb128 0
 3367 01cb 00       		.uleb128 0
 3368 01cc AE05     		.uleb128 .LEHB82-.LFB1155
 3369 01ce 05       		.uleb128 .LEHE82-.LEHB82
 3370 01cf 00       		.uleb128 0
 3371 01d0 00       		.uleb128 0
 3372              	.LLSDACSE1155:
 3373 01d1 01       		.byte	0x1
 3374 01d2 00       		.byte	0
 3375 01d3 00       		.align 4
 3376 01d4 00000000 		.long	0
 3377              	
 3378              	.LLSDATT1155:
 3379              		.text
 3381              		.globl	_Z12renderBufferRPcPK6Buffer
 3383              	_Z12renderBufferRPcPK6Buffer:
 3384              	.LFB1156:
 550:testSvf2Csvf.cpp **** 
 551:testSvf2Csvf.cpp **** void renderBuffer(char *&p, const Buffer *buf) {
 3385              		.loc 3 551 48
 3386              		.cfi_startproc
 3387 2305 F30F1EFA 		endbr64
 3388 2309 55       		pushq	%rbp
 3389              		.cfi_def_cfa_offset 16
 3390              		.cfi_offset 6, -16
 3391 230a 4889E5   		movq	%rsp, %rbp
 3392              		.cfi_def_cfa_register 6
 3393 230d 4883EC20 		subq	$32, %rsp
 3394 2311 48897DE8 		movq	%rdi, -24(%rbp)
 3395 2315 488975E0 		movq	%rsi, -32(%rbp)
 552:testSvf2Csvf.cpp **** 	const char *src = (const char *)buf->data;
 3396              		.loc 3 552 14
 3397 2319 488B45E0 		movq	-32(%rbp), %rax
 3398 231d 488B00   		movq	(%rax), %rax
 3399 2320 488945F8 		movq	%rax, -8(%rbp)
 553:testSvf2Csvf.cpp **** 	uint32 length = (uint32)buf->length;
 3400              		.loc 3 553 31
 3401 2324 488B45E0 		movq	-32(%rbp), %rax
 3402 2328 488B4008 		movq	8(%rax), %rax
 3403              		.loc 3 553 9
 3404 232c 8945F4   		movl	%eax, -12(%rbp)
 554:testSvf2Csvf.cpp **** 	*p++ = '{';
 3405              		.loc 3 554 3
 3406 232f 488B45E8 		movq	-24(%rbp), %rax
 3407 2333 488B00   		movq	(%rax), %rax
 3408              		.loc 3 554 4
 3409 2336 488D4801 		leaq	1(%rax), %rcx
 3410 233a 488B55E8 		movq	-24(%rbp), %rdx
 3411 233e 48890A   		movq	%rcx, (%rdx)
 3412              		.loc 3 554 7
 3413 2341 C6007B   		movb	$123, (%rax)
 555:testSvf2Csvf.cpp **** 	while ( length-- ) {
 3414              		.loc 3 555 2
 3415 2344 EB42     		jmp	.L108
 3416              	.L109:
 556:testSvf2Csvf.cpp **** 		sprintf(p, "%02X", *src & 0xFF);
 3417              		.loc 3 556 22
 3418 2346 488B45F8 		movq	-8(%rbp), %rax
 3419 234a 0FB600   		movzbl	(%rax), %eax
 3420 234d 0FBEC0   		movsbl	%al, %eax
 3421              		.loc 3 556 10
 3422 2350 0FB6D0   		movzbl	%al, %edx
 3423 2353 488B45E8 		movq	-24(%rbp), %rax
 3424 2357 488B00   		movq	(%rax), %rax
 3425 235a 488D0D00 		leaq	.LC1(%rip), %rcx
 3425      000000
 3426 2361 4889CE   		movq	%rcx, %rsi
 3427 2364 4889C7   		movq	%rax, %rdi
 3428 2367 B8000000 		movl	$0, %eax
 3428      00
 3429 236c E8000000 		call	sprintf@PLT
 3429      00
 557:testSvf2Csvf.cpp **** 		src++;
 3430              		.loc 3 557 6
 3431 2371 488345F8 		addq	$1, -8(%rbp)
 3431      01
 558:testSvf2Csvf.cpp **** 		p += 2;
 3432              		.loc 3 558 5
 3433 2376 488B45E8 		movq	-24(%rbp), %rax
 3434 237a 488B00   		movq	(%rax), %rax
 3435 237d 488D5002 		leaq	2(%rax), %rdx
 3436 2381 488B45E8 		movq	-24(%rbp), %rax
 3437 2385 488910   		movq	%rdx, (%rax)
 3438              	.L108:
 555:testSvf2Csvf.cpp **** 		sprintf(p, "%02X", *src & 0xFF);
 3439              		.loc 3 555 16
 3440 2388 8B45F4   		movl	-12(%rbp), %eax
 3441 238b 8D50FF   		leal	-1(%rax), %edx
 3442 238e 8955F4   		movl	%edx, -12(%rbp)
 3443 2391 85C0     		testl	%eax, %eax
 3444 2393 0F95C0   		setne	%al
 3445 2396 84C0     		testb	%al, %al
 3446 2398 75AC     		jne	.L109
 559:testSvf2Csvf.cpp **** 	}
 560:testSvf2Csvf.cpp **** 	*p++ = '}';
 3447              		.loc 3 560 3
 3448 239a 488B45E8 		movq	-24(%rbp), %rax
 3449 239e 488B00   		movq	(%rax), %rax
 3450              		.loc 3 560 4
 3451 23a1 488D4801 		leaq	1(%rax), %rcx
 3452 23a5 488B55E8 		movq	-24(%rbp), %rdx
 3453 23a9 48890A   		movq	%rcx, (%rdx)
 3454              		.loc 3 560 7
 3455 23ac C6007D   		movb	$125, (%rax)
 561:testSvf2Csvf.cpp **** }
 3456              		.loc 3 561 1
 3457 23af 90       		nop
 3458 23b0 C9       		leave
 3459              		.cfi_def_cfa 7, 8
 3460 23b1 C3       		ret
 3461              		.cfi_endproc
 3462              	.LFE1156:
 3464              		.section	.rodata
 3465              	.LC114:
 3466 0679 25642C20 		.string	"%d, "
 3466      00
 3467              		.text
 3468              		.globl	_Z14renderBitStoreRPcPK8BitStore
 3470              	_Z14renderBitStoreRPcPK8BitStore:
 3471              	.LFB1157:
 562:testSvf2Csvf.cpp **** 
 563:testSvf2Csvf.cpp **** void renderBitStore(char *&p, const BitStore *store) {
 3472              		.loc 3 563 54
 3473              		.cfi_startproc
 3474 23b2 F30F1EFA 		endbr64
 3475 23b6 55       		pushq	%rbp
 3476              		.cfi_def_cfa_offset 16
 3477              		.cfi_offset 6, -16
 3478 23b7 4889E5   		movq	%rsp, %rbp
 3479              		.cfi_def_cfa_register 6
 3480 23ba 53       		pushq	%rbx
 3481 23bb 4883EC18 		subq	$24, %rsp
 3482              		.cfi_offset 3, -24
 3483 23bf 48897DE8 		movq	%rdi, -24(%rbp)
 3484 23c3 488975E0 		movq	%rsi, -32(%rbp)
 564:testSvf2Csvf.cpp **** 	sprintf(p, "%d, ", store->numBits);
 3485              		.loc 3 564 28
 3486 23c7 488B45E0 		movq	-32(%rbp), %rax
 3487 23cb 8B10     		movl	(%rax), %edx
 3488              		.loc 3 564 9
 3489 23cd 488B45E8 		movq	-24(%rbp), %rax
 3490 23d1 488B00   		movq	(%rax), %rax
 3491 23d4 488D0D00 		leaq	.LC114(%rip), %rcx
 3491      000000
 3492 23db 4889CE   		movq	%rcx, %rsi
 3493 23de 4889C7   		movq	%rax, %rdi
 3494 23e1 B8000000 		movl	$0, %eax
 3494      00
 3495 23e6 E8000000 		call	sprintf@PLT
 3495      00
 565:testSvf2Csvf.cpp **** 	p += strlen(p);
 3496              		.loc 3 565 4
 3497 23eb 488B45E8 		movq	-24(%rbp), %rax
 3498 23ef 488B18   		movq	(%rax), %rbx
 3499              		.loc 3 565 13
 3500 23f2 488B45E8 		movq	-24(%rbp), %rax
 3501 23f6 488B00   		movq	(%rax), %rax
 3502 23f9 4889C7   		movq	%rax, %rdi
 3503 23fc E8000000 		call	strlen@PLT
 3503      00
 3504              		.loc 3 565 4
 3505 2401 488D1403 		leaq	(%rbx,%rax), %rdx
 3506 2405 488B45E8 		movq	-24(%rbp), %rax
 3507 2409 488910   		movq	%rdx, (%rax)
 566:testSvf2Csvf.cpp **** 	renderBuffer(p, &store->tdi);
 3508              		.loc 3 566 14
 3509 240c 488B45E0 		movq	-32(%rbp), %rax
 3510 2410 488D5008 		leaq	8(%rax), %rdx
 3511 2414 488B45E8 		movq	-24(%rbp), %rax
 3512 2418 4889D6   		movq	%rdx, %rsi
 3513 241b 4889C7   		movq	%rax, %rdi
 3514 241e E8000000 		call	_Z12renderBufferRPcPK6Buffer
 3514      00
 567:testSvf2Csvf.cpp **** 	*p++ = ','; *p++ = ' ';
 3515              		.loc 3 567 3
 3516 2423 488B45E8 		movq	-24(%rbp), %rax
 3517 2427 488B00   		movq	(%rax), %rax
 3518              		.loc 3 567 4
 3519 242a 488D4801 		leaq	1(%rax), %rcx
 3520 242e 488B55E8 		movq	-24(%rbp), %rdx
 3521 2432 48890A   		movq	%rcx, (%rdx)
 3522              		.loc 3 567 7
 3523 2435 C6002C   		movb	$44, (%rax)
 3524              		.loc 3 567 15
 3525 2438 488B45E8 		movq	-24(%rbp), %rax
 3526 243c 488B00   		movq	(%rax), %rax
 3527              		.loc 3 567 16
 3528 243f 488D4801 		leaq	1(%rax), %rcx
 3529 2443 488B55E8 		movq	-24(%rbp), %rdx
 3530 2447 48890A   		movq	%rcx, (%rdx)
 3531              		.loc 3 567 19
 3532 244a C60020   		movb	$32, (%rax)
 568:testSvf2Csvf.cpp **** 	renderBuffer(p, &store->tdo);
 3533              		.loc 3 568 14
 3534 244d 488B45E0 		movq	-32(%rbp), %rax
 3535 2451 488D5028 		leaq	40(%rax), %rdx
 3536 2455 488B45E8 		movq	-24(%rbp), %rax
 3537 2459 4889D6   		movq	%rdx, %rsi
 3538 245c 4889C7   		movq	%rax, %rdi
 3539 245f E8000000 		call	_Z12renderBufferRPcPK6Buffer
 3539      00
 569:testSvf2Csvf.cpp **** 	*p++ = ','; *p++ = ' ';
 3540              		.loc 3 569 3
 3541 2464 488B45E8 		movq	-24(%rbp), %rax
 3542 2468 488B00   		movq	(%rax), %rax
 3543              		.loc 3 569 4
 3544 246b 488D4801 		leaq	1(%rax), %rcx
 3545 246f 488B55E8 		movq	-24(%rbp), %rdx
 3546 2473 48890A   		movq	%rcx, (%rdx)
 3547              		.loc 3 569 7
 3548 2476 C6002C   		movb	$44, (%rax)
 3549              		.loc 3 569 15
 3550 2479 488B45E8 		movq	-24(%rbp), %rax
 3551 247d 488B00   		movq	(%rax), %rax
 3552              		.loc 3 569 16
 3553 2480 488D4801 		leaq	1(%rax), %rcx
 3554 2484 488B55E8 		movq	-24(%rbp), %rdx
 3555 2488 48890A   		movq	%rcx, (%rdx)
 3556              		.loc 3 569 19
 3557 248b C60020   		movb	$32, (%rax)
 570:testSvf2Csvf.cpp **** 	renderBuffer(p, &store->mask);
 3558              		.loc 3 570 14
 3559 248e 488B45E0 		movq	-32(%rbp), %rax
 3560 2492 488D5048 		leaq	72(%rax), %rdx
 3561 2496 488B45E8 		movq	-24(%rbp), %rax
 3562 249a 4889D6   		movq	%rdx, %rsi
 3563 249d 4889C7   		movq	%rax, %rdi
 3564 24a0 E8000000 		call	_Z12renderBufferRPcPK6Buffer
 3564      00
 571:testSvf2Csvf.cpp **** }
 3565              		.loc 3 571 1
 3566 24a5 90       		nop
 3567 24a6 488B5DF8 		movq	-8(%rbp), %rbx
 3568 24aa C9       		leave
 3569              		.cfi_def_cfa 7, 8
 3570 24ab C3       		ret
 3571              		.cfi_endproc
 3572              	.LFE1157:
 3574              		.local	_ZZ9renderCxtPK12ParseContextE6result
 3575              		.comm	_ZZ9renderCxtPK12ParseContextE6result,1024,32
 3576              		.globl	_Z9renderCxtPK12ParseContext
 3578              	_Z9renderCxtPK12ParseContext:
 3579              	.LFB1158:
 572:testSvf2Csvf.cpp **** 
 573:testSvf2Csvf.cpp **** const char *renderCxt(const ParseContext *cxt) {
 3580              		.loc 3 573 48
 3581              		.cfi_startproc
 3582 24ac F30F1EFA 		endbr64
 3583 24b0 55       		pushq	%rbp
 3584              		.cfi_def_cfa_offset 16
 3585              		.cfi_offset 6, -16
 3586 24b1 4889E5   		movq	%rsp, %rbp
 3587              		.cfi_def_cfa_register 6
 3588 24b4 4883EC20 		subq	$32, %rsp
 3589 24b8 48897DE8 		movq	%rdi, -24(%rbp)
 3590              		.loc 3 573 48
 3591 24bc 64488B04 		movq	%fs:40, %rax
 3591      25280000 
 3591      00
 3592 24c5 488945F8 		movq	%rax, -8(%rbp)
 3593 24c9 31C0     		xorl	%eax, %eax
 574:testSvf2Csvf.cpp **** 	static char result[1024];
 575:testSvf2Csvf.cpp **** 	char *p = result;
 3594              		.loc 3 575 8
 3595 24cb 488D0500 		leaq	_ZZ9renderCxtPK12ParseContextE6result(%rip), %rax
 3595      000000
 3596 24d2 488945F0 		movq	%rax, -16(%rbp)
 576:testSvf2Csvf.cpp **** 
 577:testSvf2Csvf.cpp **** 	renderBitStore(p, &cxt->dataHead);
 3597              		.loc 3 577 16
 3598 24d6 488B55E8 		movq	-24(%rbp), %rdx
 3599 24da 488D45F0 		leaq	-16(%rbp), %rax
 3600 24de 4889D6   		movq	%rdx, %rsi
 3601 24e1 4889C7   		movq	%rax, %rdi
 3602 24e4 E8000000 		call	_Z14renderBitStoreRPcPK8BitStore
 3602      00
 578:testSvf2Csvf.cpp **** 	*p++ = ','; *p++ = ' ';
 3603              		.loc 3 578 4
 3604 24e9 488B45F0 		movq	-16(%rbp), %rax
 3605 24ed 488D5001 		leaq	1(%rax), %rdx
 3606 24f1 488955F0 		movq	%rdx, -16(%rbp)
 3607              		.loc 3 578 7
 3608 24f5 C6002C   		movb	$44, (%rax)
 3609              		.loc 3 578 16
 3610 24f8 488B45F0 		movq	-16(%rbp), %rax
 3611 24fc 488D5001 		leaq	1(%rax), %rdx
 3612 2500 488955F0 		movq	%rdx, -16(%rbp)
 3613              		.loc 3 578 19
 3614 2504 C60020   		movb	$32, (%rax)
 579:testSvf2Csvf.cpp **** 	renderBitStore(p, &cxt->insnHead);
 3615              		.loc 3 579 16
 3616 2507 488B45E8 		movq	-24(%rbp), %rax
 3617 250b 488D5068 		leaq	104(%rax), %rdx
 3618 250f 488D45F0 		leaq	-16(%rbp), %rax
 3619 2513 4889D6   		movq	%rdx, %rsi
 3620 2516 4889C7   		movq	%rax, %rdi
 3621 2519 E8000000 		call	_Z14renderBitStoreRPcPK8BitStore
 3621      00
 580:testSvf2Csvf.cpp **** 	*p++ = ','; *p++ = ' ';
 3622              		.loc 3 580 4
 3623 251e 488B45F0 		movq	-16(%rbp), %rax
 3624 2522 488D5001 		leaq	1(%rax), %rdx
 3625 2526 488955F0 		movq	%rdx, -16(%rbp)
 3626              		.loc 3 580 7
 3627 252a C6002C   		movb	$44, (%rax)
 3628              		.loc 3 580 16
 3629 252d 488B45F0 		movq	-16(%rbp), %rax
 3630 2531 488D5001 		leaq	1(%rax), %rdx
 3631 2535 488955F0 		movq	%rdx, -16(%rbp)
 3632              		.loc 3 580 19
 3633 2539 C60020   		movb	$32, (%rax)
 581:testSvf2Csvf.cpp **** 
 582:testSvf2Csvf.cpp **** 	renderBitStore(p, &cxt->dataBody);
 3634              		.loc 3 582 16
 3635 253c 488B45E8 		movq	-24(%rbp), %rax
 3636 2540 488D90D0 		leaq	208(%rax), %rdx
 3636      000000
 3637 2547 488D45F0 		leaq	-16(%rbp), %rax
 3638 254b 4889D6   		movq	%rdx, %rsi
 3639 254e 4889C7   		movq	%rax, %rdi
 3640 2551 E8000000 		call	_Z14renderBitStoreRPcPK8BitStore
 3640      00
 583:testSvf2Csvf.cpp **** 	*p++ = ','; *p++ = ' ';
 3641              		.loc 3 583 4
 3642 2556 488B45F0 		movq	-16(%rbp), %rax
 3643 255a 488D5001 		leaq	1(%rax), %rdx
 3644 255e 488955F0 		movq	%rdx, -16(%rbp)
 3645              		.loc 3 583 7
 3646 2562 C6002C   		movb	$44, (%rax)
 3647              		.loc 3 583 16
 3648 2565 488B45F0 		movq	-16(%rbp), %rax
 3649 2569 488D5001 		leaq	1(%rax), %rdx
 3650 256d 488955F0 		movq	%rdx, -16(%rbp)
 3651              		.loc 3 583 19
 3652 2571 C60020   		movb	$32, (%rax)
 584:testSvf2Csvf.cpp **** 	renderBitStore(p, &cxt->insnBody);
 3653              		.loc 3 584 16
 3654 2574 488B45E8 		movq	-24(%rbp), %rax
 3655 2578 488D9038 		leaq	312(%rax), %rdx
 3655      010000
 3656 257f 488D45F0 		leaq	-16(%rbp), %rax
 3657 2583 4889D6   		movq	%rdx, %rsi
 3658 2586 4889C7   		movq	%rax, %rdi
 3659 2589 E8000000 		call	_Z14renderBitStoreRPcPK8BitStore
 3659      00
 585:testSvf2Csvf.cpp **** 	*p++ = ','; *p++ = ' ';
 3660              		.loc 3 585 4
 3661 258e 488B45F0 		movq	-16(%rbp), %rax
 3662 2592 488D5001 		leaq	1(%rax), %rdx
 3663 2596 488955F0 		movq	%rdx, -16(%rbp)
 3664              		.loc 3 585 7
 3665 259a C6002C   		movb	$44, (%rax)
 3666              		.loc 3 585 16
 3667 259d 488B45F0 		movq	-16(%rbp), %rax
 3668 25a1 488D5001 		leaq	1(%rax), %rdx
 3669 25a5 488955F0 		movq	%rdx, -16(%rbp)
 3670              		.loc 3 585 19
 3671 25a9 C60020   		movb	$32, (%rax)
 586:testSvf2Csvf.cpp **** 
 587:testSvf2Csvf.cpp **** 	renderBitStore(p, &cxt->dataTail);
 3672              		.loc 3 587 16
 3673 25ac 488B45E8 		movq	-24(%rbp), %rax
 3674 25b0 488D90A0 		leaq	416(%rax), %rdx
 3674      010000
 3675 25b7 488D45F0 		leaq	-16(%rbp), %rax
 3676 25bb 4889D6   		movq	%rdx, %rsi
 3677 25be 4889C7   		movq	%rax, %rdi
 3678 25c1 E8000000 		call	_Z14renderBitStoreRPcPK8BitStore
 3678      00
 588:testSvf2Csvf.cpp **** 	*p++ = ','; *p++ = ' ';
 3679              		.loc 3 588 4
 3680 25c6 488B45F0 		movq	-16(%rbp), %rax
 3681 25ca 488D5001 		leaq	1(%rax), %rdx
 3682 25ce 488955F0 		movq	%rdx, -16(%rbp)
 3683              		.loc 3 588 7
 3684 25d2 C6002C   		movb	$44, (%rax)
 3685              		.loc 3 588 16
 3686 25d5 488B45F0 		movq	-16(%rbp), %rax
 3687 25d9 488D5001 		leaq	1(%rax), %rdx
 3688 25dd 488955F0 		movq	%rdx, -16(%rbp)
 3689              		.loc 3 588 19
 3690 25e1 C60020   		movb	$32, (%rax)
 589:testSvf2Csvf.cpp **** 	renderBitStore(p, &cxt->insnTail);
 3691              		.loc 3 589 16
 3692 25e4 488B45E8 		movq	-24(%rbp), %rax
 3693 25e8 488D9008 		leaq	520(%rax), %rdx
 3693      020000
 3694 25ef 488D45F0 		leaq	-16(%rbp), %rax
 3695 25f3 4889D6   		movq	%rdx, %rsi
 3696 25f6 4889C7   		movq	%rax, %rdi
 3697 25f9 E8000000 		call	_Z14renderBitStoreRPcPK8BitStore
 3697      00
 590:testSvf2Csvf.cpp **** 	
 591:testSvf2Csvf.cpp **** 	*p = '\0';
 3698              		.loc 3 591 2
 3699 25fe 488B45F0 		movq	-16(%rbp), %rax
 3700              		.loc 3 591 5
 3701 2602 C60000   		movb	$0, (%rax)
 592:testSvf2Csvf.cpp **** 
 593:testSvf2Csvf.cpp **** 	return result;
 3702              		.loc 3 593 9
 3703 2605 488D0500 		leaq	_ZZ9renderCxtPK12ParseContextE6result(%rip), %rax
 3703      000000
 594:testSvf2Csvf.cpp **** }
 3704              		.loc 3 594 1
 3705 260c 488B55F8 		movq	-8(%rbp), %rdx
 3706 2610 64482B14 		subq	%fs:40, %rdx
 3706      25280000 
 3706      00
 3707 2619 7405     		je	.L113
 3708 261b E8000000 		call	__stack_chk_fail@PLT
 3708      00
 3709              	.L113:
 3710 2620 C9       		leave
 3711              		.cfi_def_cfa 7, 8
 3712 2621 C3       		ret
 3713              		.cfi_endproc
 3714              	.LFE1158:
 3716              		.section	.rodata
 3717              	.LC115:
 3718 067e 46504741 		.string	"FPGALink_testParse"
 3718      4C696E6B 
 3718      5F746573 
 3718      74506172 
 3718      736500
 3719              		.section	.text._ZN22TestFPGALink_testParseC2Ev,"axG",@progbits,_ZN22TestFPGALink_testParseC5Ev,com
 3720              		.align 2
 3721              		.weak	_ZN22TestFPGALink_testParseC2Ev
 3723              	_ZN22TestFPGALink_testParseC2Ev:
 3724              	.LFB1160:
 595:testSvf2Csvf.cpp **** 
 596:testSvf2Csvf.cpp **** TEST(FPGALink_testParse) {
 3725              		.loc 3 596 1
 3726              		.cfi_startproc
 3727 0000 F30F1EFA 		endbr64
 3728 0004 55       		pushq	%rbp
 3729              		.cfi_def_cfa_offset 16
 3730              		.cfi_offset 6, -16
 3731 0005 4889E5   		movq	%rsp, %rbp
 3732              		.cfi_def_cfa_register 6
 3733 0008 53       		pushq	%rbx
 3734 0009 4883EC18 		subq	$24, %rsp
 3735              		.cfi_offset 3, -24
 3736 000d 48897DE8 		movq	%rdi, -24(%rbp)
 3737              	.LBB8:
 3738              		.loc 3 596 1
 3739 0011 488B5DE8 		movq	-24(%rbp), %rbx
 3740 0015 E8000000 		call	_ZN13UnitTestSuite12GetSuiteNameEv
 3740      00
 3741 001a 4889C2   		movq	%rax, %rdx
 3742 001d 41B85402 		movl	$596, %r8d
 3742      0000
 3743 0023 488D0500 		leaq	.LC5(%rip), %rax
 3743      000000
 3744 002a 4889C1   		movq	%rax, %rcx
 3745 002d 488D0500 		leaq	.LC115(%rip), %rax
 3745      000000
 3746 0034 4889C6   		movq	%rax, %rsi
 3747 0037 4889DF   		movq	%rbx, %rdi
 3748 003a E8000000 		call	_ZN8UnitTest4TestC2EPKcS2_S2_i@PLT
 3748      00
 3749 003f 488D1500 		leaq	16+_ZTV22TestFPGALink_testParse(%rip), %rdx
 3749      000000
 3750 0046 488B45E8 		movq	-24(%rbp), %rax
 3751 004a 488910   		movq	%rdx, (%rax)
 3752              	.LBE8:
 3753 004d 90       		nop
 3754 004e 488B5DF8 		movq	-8(%rbp), %rbx
 3755 0052 C9       		leave
 3756              		.cfi_def_cfa 7, 8
 3757 0053 C3       		ret
 3758              		.cfi_endproc
 3759              	.LFE1160:
 3761              		.weak	_ZN22TestFPGALink_testParseC1Ev
 3762              		.set	_ZN22TestFPGALink_testParseC1Ev,_ZN22TestFPGALink_testParseC2Ev
 3763              		.globl	testFPGALink_testParseInstance
 3764              		.bss
 3765 0079 00000000 		.align 32
 3765      000000
 3768              	testFPGALink_testParseInstance:
 3769 0080 00000000 		.zero	56
 3769      00000000 
 3769      00000000 
 3769      00000000 
 3769      00000000 
 3770              		.globl	adderFPGALink_testParse
 3773              	adderFPGALink_testParse:
 3774 00b8 00       		.zero	1
 3775              		.section	.rodata
 3776              	.LC116:
 3777 0691 48445220 		.string	"HDR 8 TDI (aa)"
 3777      38205444 
 3777      49202861 
 3777      612900
 3778              		.align 8
 3779              	.LC117:
 3780 06a0 382C207B 		.string	"8, {AA}, {00}, {FF}, 0, {}, {}, {}, 0, {}, {}, {}, 0, {}, {}, {}, 0, {}, {}, {}, 0, {}, {
 3780      41417D2C 
 3780      207B3030 
 3780      7D2C207B 
 3780      46467D2C 
 3781              	.LC118:
 3782 06ff 48445220 		.string	"HDR 8 MASK (55)"
 3782      38204D41 
 3782      534B2028 
 3782      35352900 
 3783 070f 00       		.align 8
 3784              	.LC119:
 3785 0710 382C207B 		.string	"8, {AA}, {00}, {55}, 0, {}, {}, {}, 0, {}, {}, {}, 0, {}, {}, {}, 0, {}, {}, {}, 0, {}, {
 3785      41417D2C 
 3785      207B3030 
 3785      7D2C207B 
 3785      35357D2C 
 3786              	.LC120:
 3787 076f 48445220 		.string	"HDR 6 TDI (3A)"
 3787      36205444 
 3787      49202833 
 3787      412900
 3788 077e 0000     		.align 8
 3789              	.LC121:
 3790 0780 362C207B 		.string	"6, {3A}, {00}, {FF}, 0, {}, {}, {}, 0, {}, {}, {}, 0, {}, {}, {}, 0, {}, {}, {}, 0, {}, {
 3790      33417D2C 
 3790      207B3030 
 3790      7D2C207B 
 3790      46467D2C 
 3791 07df 00       		.align 8
 3792              	.LC122:
 3793 07e0 556E6861 		.string	"Unhandled exception in CHECK_EQUAL(\"8, {AA}, {00}, {FF}, \" \"0, {}, {}, {}, \" \"0, {},
 3793      6E646C65 
 3793      64206578 
 3793      63657074 
 3793      696F6E20 
 3794 0885 000000   		.align 8
 3795              	.LC123:
 3796 0888 556E6861 		.string	"Unhandled exception in CHECK_EQUAL(\"8, {AA}, {00}, {55}, \" \"0, {}, {}, {}, \" \"0, {},
 3796      6E646C65 
 3796      64206578 
 3796      63657074 
 3796      696F6E20 
 3797 092d 000000   		.align 8
 3798              	.LC124:
 3799 0930 556E6861 		.string	"Unhandled exception in CHECK_EQUAL(\"6, {3A}, {00}, {FF}, \" \"0, {}, {}, {}, \" \"0, {},
 3799      6E646C65 
 3799      64206578 
 3799      63657074 
 3799      696F6E20 
 3800              		.text
 3801              		.align 2
 3802              		.globl	_ZNK22TestFPGALink_testParse7RunImplEv
 3804              	_ZNK22TestFPGALink_testParse7RunImplEv:
 3805              	.LFB1162:
 3806              		.loc 3 596 26
 3807              		.cfi_startproc
 3808              		.cfi_personality 0x9b,DW.ref.__gxx_personality_v0
 3809              		.cfi_lsda 0x1b,.LLSDA1162
 3810 2622 F30F1EFA 		endbr64
 3811 2626 55       		pushq	%rbp
 3812              		.cfi_def_cfa_offset 16
 3813              		.cfi_offset 6, -16
 3814 2627 4889E5   		movq	%rsp, %rbp
 3815              		.cfi_def_cfa_register 6
 3816 262a 53       		pushq	%rbx
 3817 262b 4881EC18 		subq	$792, %rsp
 3817      030000
 3818              		.cfi_offset 3, -24
 3819 2632 4889BDE8 		movq	%rdi, -792(%rbp)
 3819      FCFFFF
 3820              		.loc 3 596 26
 3821 2639 64488B04 		movq	%fs:40, %rax
 3821      25280000 
 3821      00
 3822 2642 488945E8 		movq	%rax, -24(%rbp)
 3823 2646 31C0     		xorl	%eax, %eax
 597:testSvf2Csvf.cpp **** 	FLStatus fStatus;
 598:testSvf2Csvf.cpp **** 	struct ParseContext cxt;
 599:testSvf2Csvf.cpp **** 	struct Buffer csvfBuf;
 600:testSvf2Csvf.cpp **** 	BufferStatus bStatus;
 601:testSvf2Csvf.cpp **** 	bStatus = bufInitialise(&csvfBuf, 1024, 0x00, NULL);
 3824              		.loc 3 601 25
 3825 2648 488D8500 		leaq	-768(%rbp), %rax
 3825      FDFFFF
 3826 264f B9000000 		movl	$0, %ecx
 3826      00
 3827 2654 BA000000 		movl	$0, %edx
 3827      00
 3828 2659 BE000400 		movl	$1024, %esi
 3828      00
 3829 265e 4889C7   		movq	%rax, %rdi
 3830              	.LEHB83:
 3831 2661 E8000000 		call	bufInitialise@PLT
 3831      00
 3832              	.LEHE83:
 3833              		.loc 3 601 10
 3834 2666 8985F8FC 		movl	%eax, -776(%rbp)
 3834      FFFF
 3835              	.LEHB84:
 602:testSvf2Csvf.cpp **** 	CHECK_EQUAL(BUF_SUCCESS, bStatus);
 3836              		.loc 3 602 2
 3837 266c E8000000 		call	_ZN8UnitTest11CurrentTest7DetailsEv@PLT
 3837      00
 3838 2671 488B08   		movq	(%rax), %rcx
 3839 2674 488D8540 		leaq	-704(%rbp), %rax
 3839      FDFFFF
 3840 267b BA5A0200 		movl	$602, %edx
 3840      00
 3841 2680 4889CE   		movq	%rcx, %rsi
 3842 2683 4889C7   		movq	%rax, %rdi
 3843 2686 E8000000 		call	_ZN8UnitTest11TestDetailsC1ERKS0_i@PLT
 3843      00
 3844              		.loc 3 602 2 is_stmt 0 discriminator 4
 3845 268b C78520FD 		movl	$0, -736(%rbp)
 3845      FFFF0000 
 3845      0000
 3846 2695 E8000000 		call	_ZN8UnitTest11CurrentTest7ResultsEv@PLT
 3846      00
 3847 269a 488B00   		movq	(%rax), %rax
 3848 269d 488D8D40 		leaq	-704(%rbp), %rcx
 3848      FDFFFF
 3849 26a4 488D95F8 		leaq	-776(%rbp), %rdx
 3849      FCFFFF
 3850 26ab 488DB520 		leaq	-736(%rbp), %rsi
 3850      FDFFFF
 3851 26b2 4889C7   		movq	%rax, %rdi
 3852 26b5 E8000000 		call	_ZN8UnitTest10CheckEqualI12BufferStatusS1_EEvRNS_11TestResultsERKT_RKT0_RKNS_11TestDetailsE
 3852      00
 3853              	.LEHE84:
 3854              	.L117:
 603:testSvf2Csvf.cpp **** 	fStatus = cxtInitialise(&cxt, NULL);
 3855              		.loc 3 603 25 is_stmt 1
 3856 26ba 488D8540 		leaq	-704(%rbp), %rax
 3856      FDFFFF
 3857 26c1 BE000000 		movl	$0, %esi
 3857      00
 3858 26c6 4889C7   		movq	%rax, %rdi
 3859              	.LEHB85:
 3860 26c9 E8000000 		call	cxtInitialise@PLT
 3860      00
 3861              	.LEHE85:
 3862              		.loc 3 603 10
 3863 26ce 8985F4FC 		movl	%eax, -780(%rbp)
 3863      FFFF
 3864              	.LEHB86:
 604:testSvf2Csvf.cpp **** 	CHECK_EQUAL(FL_SUCCESS, fStatus);
 3865              		.loc 3 604 2
 3866 26d4 E8000000 		call	_ZN8UnitTest11CurrentTest7DetailsEv@PLT
 3866      00
 3867 26d9 488B08   		movq	(%rax), %rcx
 3868 26dc 488D8520 		leaq	-736(%rbp), %rax
 3868      FDFFFF
 3869 26e3 BA5C0200 		movl	$604, %edx
 3869      00
 3870 26e8 4889CE   		movq	%rcx, %rsi
 3871 26eb 4889C7   		movq	%rax, %rdi
 3872 26ee E8000000 		call	_ZN8UnitTest11TestDetailsC1ERKS0_i@PLT
 3872      00
 3873              		.loc 3 604 2 is_stmt 0 discriminator 4
 3874 26f3 C785FCFC 		movl	$0, -772(%rbp)
 3874      FFFF0000 
 3874      0000
 3875 26fd E8000000 		call	_ZN8UnitTest11CurrentTest7ResultsEv@PLT
 3875      00
 3876 2702 488B00   		movq	(%rax), %rax
 3877 2705 488D8D20 		leaq	-736(%rbp), %rcx
 3877      FDFFFF
 3878 270c 488D95F4 		leaq	-780(%rbp), %rdx
 3878      FCFFFF
 3879 2713 488DB5FC 		leaq	-772(%rbp), %rsi
 3879      FCFFFF
 3880 271a 4889C7   		movq	%rax, %rdi
 3881 271d E8000000 		call	_ZN8UnitTest10CheckEqualI8FLStatusS1_EEvRNS_11TestResultsERKT_RKT0_RKNS_11TestDetailsE
 3881      00
 3882              	.LEHE86:
 3883              	.L120:
 605:testSvf2Csvf.cpp **** 
 606:testSvf2Csvf.cpp **** 	// HDR, HIR, SDR, SIR, TDR, TIR
 607:testSvf2Csvf.cpp **** 	parseString(&cxt, "HDR 8 TDI (aa)", &csvfBuf);
 3884              		.loc 3 607 13 is_stmt 1
 3885 2722 488D9500 		leaq	-768(%rbp), %rdx
 3885      FDFFFF
 3886 2729 488D8540 		leaq	-704(%rbp), %rax
 3886      FDFFFF
 3887 2730 488D0D00 		leaq	.LC116(%rip), %rcx
 3887      000000
 3888 2737 4889CE   		movq	%rcx, %rsi
 3889 273a 4889C7   		movq	%rax, %rdi
 3890              	.LEHB87:
 3891 273d E8000000 		call	_Z11parseStringP12ParseContextPKcP6Buffer
 3891      00
 3892              	.LEHE87:
 3893              	.LEHB88:
 608:testSvf2Csvf.cpp **** 	CHECK_EQUAL(
 3894              		.loc 3 608 2
 3895 2742 E8000000 		call	_ZN8UnitTest11CurrentTest7DetailsEv@PLT
 3895      00
 3896 2747 488B08   		movq	(%rax), %rcx
 3897 274a 488D8520 		leaq	-736(%rbp), %rax
 3897      FDFFFF
 3898 2751 BA600200 		movl	$608, %edx
 3898      00
 3899 2756 4889CE   		movq	%rcx, %rsi
 3900 2759 4889C7   		movq	%rax, %rdi
 3901 275c E8000000 		call	_ZN8UnitTest11TestDetailsC1ERKS0_i@PLT
 3901      00
 3902              		.loc 3 608 2 is_stmt 0 discriminator 4
 3903 2761 488D8540 		leaq	-704(%rbp), %rax
 3903      FDFFFF
 3904 2768 4889C7   		movq	%rax, %rdi
 3905 276b E8000000 		call	_Z9renderCxtPK12ParseContext
 3905      00
 3906 2770 4889C3   		movq	%rax, %rbx
 3907 2773 E8000000 		call	_ZN8UnitTest11CurrentTest7ResultsEv@PLT
 3907      00
 3908 2778 488B00   		movq	(%rax), %rax
 3909 277b 488D9520 		leaq	-736(%rbp), %rdx
 3909      FDFFFF
 3910 2782 4889D1   		movq	%rdx, %rcx
 3911 2785 4889DA   		movq	%rbx, %rdx
 3912 2788 488D3500 		leaq	.LC117(%rip), %rsi
 3912      000000
 3913 278f 4889C7   		movq	%rax, %rdi
 3914 2792 E8000000 		call	_ZN8UnitTest10CheckEqualERNS_11TestResultsEPKcS3_RKNS_11TestDetailsE@PLT
 3914      00
 3915              	.LEHE88:
 3916              	.L123:
 609:testSvf2Csvf.cpp **** 		"8, {AA}, {00}, {FF}, "    // HDR
 610:testSvf2Csvf.cpp **** 		"0, {}, {}, {}, "          // HIR
 611:testSvf2Csvf.cpp **** 		"0, {}, {}, {}, "          // SDR
 612:testSvf2Csvf.cpp **** 		"0, {}, {}, {}, "          // SIR
 613:testSvf2Csvf.cpp **** 		"0, {}, {}, {}, "          // TDR
 614:testSvf2Csvf.cpp **** 		"0, {}, {}, {}",           // TIR
 615:testSvf2Csvf.cpp **** 		renderCxt(&cxt));
 616:testSvf2Csvf.cpp **** 
 617:testSvf2Csvf.cpp **** 	// HDR, HIR, SDR, SIR, TDR, TIR
 618:testSvf2Csvf.cpp **** 	parseString(&cxt, "HDR 8 MASK (55)", &csvfBuf);
 3917              		.loc 3 618 13 is_stmt 1
 3918 2797 488D9500 		leaq	-768(%rbp), %rdx
 3918      FDFFFF
 3919 279e 488D8540 		leaq	-704(%rbp), %rax
 3919      FDFFFF
 3920 27a5 488D0D00 		leaq	.LC118(%rip), %rcx
 3920      000000
 3921 27ac 4889CE   		movq	%rcx, %rsi
 3922 27af 4889C7   		movq	%rax, %rdi
 3923              	.LEHB89:
 3924 27b2 E8000000 		call	_Z11parseStringP12ParseContextPKcP6Buffer
 3924      00
 3925              	.LEHE89:
 3926              	.LEHB90:
 619:testSvf2Csvf.cpp **** 	CHECK_EQUAL(
 3927              		.loc 3 619 2
 3928 27b7 E8000000 		call	_ZN8UnitTest11CurrentTest7DetailsEv@PLT
 3928      00
 3929 27bc 488B08   		movq	(%rax), %rcx
 3930 27bf 488D8520 		leaq	-736(%rbp), %rax
 3930      FDFFFF
 3931 27c6 BA6B0200 		movl	$619, %edx
 3931      00
 3932 27cb 4889CE   		movq	%rcx, %rsi
 3933 27ce 4889C7   		movq	%rax, %rdi
 3934 27d1 E8000000 		call	_ZN8UnitTest11TestDetailsC1ERKS0_i@PLT
 3934      00
 3935              		.loc 3 619 2 is_stmt 0 discriminator 4
 3936 27d6 488D8540 		leaq	-704(%rbp), %rax
 3936      FDFFFF
 3937 27dd 4889C7   		movq	%rax, %rdi
 3938 27e0 E8000000 		call	_Z9renderCxtPK12ParseContext
 3938      00
 3939 27e5 4889C3   		movq	%rax, %rbx
 3940 27e8 E8000000 		call	_ZN8UnitTest11CurrentTest7ResultsEv@PLT
 3940      00
 3941 27ed 488B00   		movq	(%rax), %rax
 3942 27f0 488D9520 		leaq	-736(%rbp), %rdx
 3942      FDFFFF
 3943 27f7 4889D1   		movq	%rdx, %rcx
 3944 27fa 4889DA   		movq	%rbx, %rdx
 3945 27fd 488D3500 		leaq	.LC119(%rip), %rsi
 3945      000000
 3946 2804 4889C7   		movq	%rax, %rdi
 3947 2807 E8000000 		call	_ZN8UnitTest10CheckEqualERNS_11TestResultsEPKcS3_RKNS_11TestDetailsE@PLT
 3947      00
 3948              	.LEHE90:
 3949              	.L126:
 620:testSvf2Csvf.cpp **** 		"8, {AA}, {00}, {55}, "    // HDR
 621:testSvf2Csvf.cpp **** 		"0, {}, {}, {}, "          // HIR
 622:testSvf2Csvf.cpp **** 		"0, {}, {}, {}, "          // SDR
 623:testSvf2Csvf.cpp **** 		"0, {}, {}, {}, "          // SIR
 624:testSvf2Csvf.cpp **** 		"0, {}, {}, {}, "          // TDR
 625:testSvf2Csvf.cpp **** 		"0, {}, {}, {}",           // TIR
 626:testSvf2Csvf.cpp **** 		renderCxt(&cxt));
 627:testSvf2Csvf.cpp **** 
 628:testSvf2Csvf.cpp **** 	// HDR, HIR, SDR, SIR, TDR, TIR
 629:testSvf2Csvf.cpp **** 	parseString(&cxt, "HDR 6 TDI (3A)", &csvfBuf);
 3950              		.loc 3 629 13 is_stmt 1
 3951 280c 488D9500 		leaq	-768(%rbp), %rdx
 3951      FDFFFF
 3952 2813 488D8540 		leaq	-704(%rbp), %rax
 3952      FDFFFF
 3953 281a 488D0D00 		leaq	.LC120(%rip), %rcx
 3953      000000
 3954 2821 4889CE   		movq	%rcx, %rsi
 3955 2824 4889C7   		movq	%rax, %rdi
 3956              	.LEHB91:
 3957 2827 E8000000 		call	_Z11parseStringP12ParseContextPKcP6Buffer
 3957      00
 3958              	.LEHE91:
 3959              	.LEHB92:
 630:testSvf2Csvf.cpp **** 	CHECK_EQUAL(
 3960              		.loc 3 630 2
 3961 282c E8000000 		call	_ZN8UnitTest11CurrentTest7DetailsEv@PLT
 3961      00
 3962 2831 488B08   		movq	(%rax), %rcx
 3963 2834 488D8520 		leaq	-736(%rbp), %rax
 3963      FDFFFF
 3964 283b BA760200 		movl	$630, %edx
 3964      00
 3965 2840 4889CE   		movq	%rcx, %rsi
 3966 2843 4889C7   		movq	%rax, %rdi
 3967 2846 E8000000 		call	_ZN8UnitTest11TestDetailsC1ERKS0_i@PLT
 3967      00
 3968              		.loc 3 630 2 is_stmt 0 discriminator 4
 3969 284b 488D8540 		leaq	-704(%rbp), %rax
 3969      FDFFFF
 3970 2852 4889C7   		movq	%rax, %rdi
 3971 2855 E8000000 		call	_Z9renderCxtPK12ParseContext
 3971      00
 3972 285a 4889C3   		movq	%rax, %rbx
 3973 285d E8000000 		call	_ZN8UnitTest11CurrentTest7ResultsEv@PLT
 3973      00
 3974 2862 488B00   		movq	(%rax), %rax
 3975 2865 488D9520 		leaq	-736(%rbp), %rdx
 3975      FDFFFF
 3976 286c 4889D1   		movq	%rdx, %rcx
 3977 286f 4889DA   		movq	%rbx, %rdx
 3978 2872 488D3500 		leaq	.LC121(%rip), %rsi
 3978      000000
 3979 2879 4889C7   		movq	%rax, %rdi
 3980 287c E8000000 		call	_ZN8UnitTest10CheckEqualERNS_11TestResultsEPKcS3_RKNS_11TestDetailsE@PLT
 3980      00
 3981              	.LEHE92:
 3982              	.L129:
 631:testSvf2Csvf.cpp **** 		"6, {3A}, {00}, {FF}, "    // HDR
 632:testSvf2Csvf.cpp **** 		"0, {}, {}, {}, "          // HIR
 633:testSvf2Csvf.cpp **** 		"0, {}, {}, {}, "          // SDR
 634:testSvf2Csvf.cpp **** 		"0, {}, {}, {}, "          // SIR
 635:testSvf2Csvf.cpp **** 		"0, {}, {}, {}, "          // TDR
 636:testSvf2Csvf.cpp **** 		"0, {}, {}, {}",           // TIR
 637:testSvf2Csvf.cpp **** 		renderCxt(&cxt));
 638:testSvf2Csvf.cpp **** 
 639:testSvf2Csvf.cpp **** 	cxtDestroy(&cxt);
 3983              		.loc 3 639 12 is_stmt 1
 3984 2881 488D8540 		leaq	-704(%rbp), %rax
 3984      FDFFFF
 3985 2888 4889C7   		movq	%rax, %rdi
 3986              	.LEHB93:
 3987 288b E8000000 		call	cxtDestroy@PLT
 3987      00
 640:testSvf2Csvf.cpp **** 	bufDestroy(&csvfBuf);
 3988              		.loc 3 640 12
 3989 2890 488D8500 		leaq	-768(%rbp), %rax
 3989      FDFFFF
 3990 2897 4889C7   		movq	%rax, %rdi
 3991 289a E8000000 		call	bufDestroy@PLT
 3991      00
 3992              	.LEHE93:
 641:testSvf2Csvf.cpp **** }
 3993              		.loc 3 641 1
 3994 289f 90       		nop
 3995 28a0 488B45E8 		movq	-24(%rbp), %rax
 3996 28a4 64482B04 		subq	%fs:40, %rax
 3996      25280000 
 3996      00
 3997 28ad 0F842B02 		je	.L131
 3997      0000
 3998 28b3 E9210200 		jmp	.L142
 3998      00
 3999              	.L132:
 4000 28b8 F30F1EFA 		endbr64
 602:testSvf2Csvf.cpp **** 	fStatus = cxtInitialise(&cxt, NULL);
 4001              		.loc 3 602 2
 4002 28bc 4889C7   		movq	%rax, %rdi
 4003 28bf E8000000 		call	__cxa_begin_catch@PLT
 4003      00
 4004              	.LEHB94:
 4005 28c4 E8000000 		call	_ZN8UnitTest11CurrentTest7ResultsEv@PLT
 4005      00
 602:testSvf2Csvf.cpp **** 	fStatus = cxtInitialise(&cxt, NULL);
 4006              		.loc 3 602 2 is_stmt 0 discriminator 3
 4007 28c9 488B18   		movq	(%rax), %rbx
 4008 28cc E8000000 		call	_ZN8UnitTest11CurrentTest7DetailsEv@PLT
 4008      00
 602:testSvf2Csvf.cpp **** 	fStatus = cxtInitialise(&cxt, NULL);
 4009              		.loc 3 602 2 discriminator 11
 4010 28d1 488B08   		movq	(%rax), %rcx
 4011 28d4 488D8540 		leaq	-704(%rbp), %rax
 4011      FDFFFF
 4012 28db BA5A0200 		movl	$602, %edx
 4012      00
 4013 28e0 4889CE   		movq	%rcx, %rsi
 4014 28e3 4889C7   		movq	%rax, %rdi
 4015 28e6 E8000000 		call	_ZN8UnitTest11TestDetailsC1ERKS0_i@PLT
 4015      00
 602:testSvf2Csvf.cpp **** 	fStatus = cxtInitialise(&cxt, NULL);
 4016              		.loc 3 602 2 discriminator 15
 4017 28eb 488D8540 		leaq	-704(%rbp), %rax
 4017      FDFFFF
 4018 28f2 488D1500 		leaq	.LC13(%rip), %rdx
 4018      000000
 4019 28f9 4889C6   		movq	%rax, %rsi
 4020 28fc 4889DF   		movq	%rbx, %rdi
 4021 28ff E8000000 		call	_ZN8UnitTest11TestResults13OnTestFailureERKNS_11TestDetailsEPKc@PLT
 4021      00
 4022              	.LEHE94:
 4023              	.LEHB95:
 602:testSvf2Csvf.cpp **** 	fStatus = cxtInitialise(&cxt, NULL);
 4024              		.loc 3 602 2 discriminator 17
 4025 2904 E8000000 		call	__cxa_end_catch@PLT
 4025      00
 4026              	.LEHE95:
 4027 2909 E9ACFDFF 		jmp	.L117
 4027      FF
 4028              	.L133:
 4029 290e F30F1EFA 		endbr64
 602:testSvf2Csvf.cpp **** 	fStatus = cxtInitialise(&cxt, NULL);
 4030              		.loc 3 602 2
 4031 2912 4889C3   		movq	%rax, %rbx
 4032 2915 E8000000 		call	__cxa_end_catch@PLT
 4032      00
 4033 291a 4889D8   		movq	%rbx, %rax
 4034 291d 4889C7   		movq	%rax, %rdi
 4035              	.LEHB96:
 4036 2920 E8000000 		call	_Unwind_Resume@PLT
 4036      00
 4037              	.LEHE96:
 4038              	.L134:
 4039 2925 F30F1EFA 		endbr64
 604:testSvf2Csvf.cpp **** 
 4040              		.loc 3 604 2 is_stmt 1
 4041 2929 4889C7   		movq	%rax, %rdi
 4042 292c E8000000 		call	__cxa_begin_catch@PLT
 4042      00
 4043              	.LEHB97:
 4044 2931 E8000000 		call	_ZN8UnitTest11CurrentTest7ResultsEv@PLT
 4044      00
 604:testSvf2Csvf.cpp **** 
 4045              		.loc 3 604 2 is_stmt 0 discriminator 3
 4046 2936 488B18   		movq	(%rax), %rbx
 4047 2939 E8000000 		call	_ZN8UnitTest11CurrentTest7DetailsEv@PLT
 4047      00
 604:testSvf2Csvf.cpp **** 
 4048              		.loc 3 604 2 discriminator 11
 4049 293e 488B08   		movq	(%rax), %rcx
 4050 2941 488D8520 		leaq	-736(%rbp), %rax
 4050      FDFFFF
 4051 2948 BA5C0200 		movl	$604, %edx
 4051      00
 4052 294d 4889CE   		movq	%rcx, %rsi
 4053 2950 4889C7   		movq	%rax, %rdi
 4054 2953 E8000000 		call	_ZN8UnitTest11TestDetailsC1ERKS0_i@PLT
 4054      00
 604:testSvf2Csvf.cpp **** 
 4055              		.loc 3 604 2 discriminator 15
 4056 2958 488D8520 		leaq	-736(%rbp), %rax
 4056      FDFFFF
 4057 295f 488D1500 		leaq	.LC2(%rip), %rdx
 4057      000000
 4058 2966 4889C6   		movq	%rax, %rsi
 4059 2969 4889DF   		movq	%rbx, %rdi
 4060 296c E8000000 		call	_ZN8UnitTest11TestResults13OnTestFailureERKNS_11TestDetailsEPKc@PLT
 4060      00
 4061              	.LEHE97:
 4062              	.LEHB98:
 604:testSvf2Csvf.cpp **** 
 4063              		.loc 3 604 2 discriminator 17
 4064 2971 E8000000 		call	__cxa_end_catch@PLT
 4064      00
 4065              	.LEHE98:
 4066 2976 E9A7FDFF 		jmp	.L120
 4066      FF
 4067              	.L135:
 4068 297b F30F1EFA 		endbr64
 604:testSvf2Csvf.cpp **** 
 4069              		.loc 3 604 2
 4070 297f 4889C3   		movq	%rax, %rbx
 4071 2982 E8000000 		call	__cxa_end_catch@PLT
 4071      00
 4072 2987 4889D8   		movq	%rbx, %rax
 4073 298a 4889C7   		movq	%rax, %rdi
 4074              	.LEHB99:
 4075 298d E8000000 		call	_Unwind_Resume@PLT
 4075      00
 4076              	.LEHE99:
 4077              	.L136:
 4078 2992 F30F1EFA 		endbr64
 608:testSvf2Csvf.cpp **** 		"8, {AA}, {00}, {FF}, "    // HDR
 4079              		.loc 3 608 2 is_stmt 1
 4080 2996 4889C7   		movq	%rax, %rdi
 4081 2999 E8000000 		call	__cxa_begin_catch@PLT
 4081      00
 4082              	.LEHB100:
 4083 299e E8000000 		call	_ZN8UnitTest11CurrentTest7ResultsEv@PLT
 4083      00
 608:testSvf2Csvf.cpp **** 		"8, {AA}, {00}, {FF}, "    // HDR
 4084              		.loc 3 608 2 is_stmt 0 discriminator 3
 4085 29a3 488B18   		movq	(%rax), %rbx
 4086 29a6 E8000000 		call	_ZN8UnitTest11CurrentTest7DetailsEv@PLT
 4086      00
 608:testSvf2Csvf.cpp **** 		"8, {AA}, {00}, {FF}, "    // HDR
 4087              		.loc 3 608 2 discriminator 11
 4088 29ab 488B08   		movq	(%rax), %rcx
 4089 29ae 488D8520 		leaq	-736(%rbp), %rax
 4089      FDFFFF
 4090 29b5 BA600200 		movl	$608, %edx
 4090      00
 4091 29ba 4889CE   		movq	%rcx, %rsi
 4092 29bd 4889C7   		movq	%rax, %rdi
 4093 29c0 E8000000 		call	_ZN8UnitTest11TestDetailsC1ERKS0_i@PLT
 4093      00
 608:testSvf2Csvf.cpp **** 		"8, {AA}, {00}, {FF}, "    // HDR
 4094              		.loc 3 608 2 discriminator 15
 4095 29c5 488D8520 		leaq	-736(%rbp), %rax
 4095      FDFFFF
 4096 29cc 488D1500 		leaq	.LC122(%rip), %rdx
 4096      000000
 4097 29d3 4889C6   		movq	%rax, %rsi
 4098 29d6 4889DF   		movq	%rbx, %rdi
 4099 29d9 E8000000 		call	_ZN8UnitTest11TestResults13OnTestFailureERKNS_11TestDetailsEPKc@PLT
 4099      00
 4100              	.LEHE100:
 4101              	.LEHB101:
 608:testSvf2Csvf.cpp **** 		"8, {AA}, {00}, {FF}, "    // HDR
 4102              		.loc 3 608 2 discriminator 17
 4103 29de E8000000 		call	__cxa_end_catch@PLT
 4103      00
 4104              	.LEHE101:
 4105 29e3 E9AFFDFF 		jmp	.L123
 4105      FF
 4106              	.L137:
 4107 29e8 F30F1EFA 		endbr64
 608:testSvf2Csvf.cpp **** 		"8, {AA}, {00}, {FF}, "    // HDR
 4108              		.loc 3 608 2
 4109 29ec 4889C3   		movq	%rax, %rbx
 4110 29ef E8000000 		call	__cxa_end_catch@PLT
 4110      00
 4111 29f4 4889D8   		movq	%rbx, %rax
 4112 29f7 4889C7   		movq	%rax, %rdi
 4113              	.LEHB102:
 4114 29fa E8000000 		call	_Unwind_Resume@PLT
 4114      00
 4115              	.LEHE102:
 4116              	.L138:
 4117 29ff F30F1EFA 		endbr64
 619:testSvf2Csvf.cpp **** 		"8, {AA}, {00}, {55}, "    // HDR
 4118              		.loc 3 619 2 is_stmt 1
 4119 2a03 4889C7   		movq	%rax, %rdi
 4120 2a06 E8000000 		call	__cxa_begin_catch@PLT
 4120      00
 4121              	.LEHB103:
 4122 2a0b E8000000 		call	_ZN8UnitTest11CurrentTest7ResultsEv@PLT
 4122      00
 619:testSvf2Csvf.cpp **** 		"8, {AA}, {00}, {55}, "    // HDR
 4123              		.loc 3 619 2 is_stmt 0 discriminator 3
 4124 2a10 488B18   		movq	(%rax), %rbx
 4125 2a13 E8000000 		call	_ZN8UnitTest11CurrentTest7DetailsEv@PLT
 4125      00
 619:testSvf2Csvf.cpp **** 		"8, {AA}, {00}, {55}, "    // HDR
 4126              		.loc 3 619 2 discriminator 11
 4127 2a18 488B08   		movq	(%rax), %rcx
 4128 2a1b 488D8520 		leaq	-736(%rbp), %rax
 4128      FDFFFF
 4129 2a22 BA6B0200 		movl	$619, %edx
 4129      00
 4130 2a27 4889CE   		movq	%rcx, %rsi
 4131 2a2a 4889C7   		movq	%rax, %rdi
 4132 2a2d E8000000 		call	_ZN8UnitTest11TestDetailsC1ERKS0_i@PLT
 4132      00
 619:testSvf2Csvf.cpp **** 		"8, {AA}, {00}, {55}, "    // HDR
 4133              		.loc 3 619 2 discriminator 15
 4134 2a32 488D8520 		leaq	-736(%rbp), %rax
 4134      FDFFFF
 4135 2a39 488D1500 		leaq	.LC123(%rip), %rdx
 4135      000000
 4136 2a40 4889C6   		movq	%rax, %rsi
 4137 2a43 4889DF   		movq	%rbx, %rdi
 4138 2a46 E8000000 		call	_ZN8UnitTest11TestResults13OnTestFailureERKNS_11TestDetailsEPKc@PLT
 4138      00
 4139              	.LEHE103:
 4140              	.LEHB104:
 619:testSvf2Csvf.cpp **** 		"8, {AA}, {00}, {55}, "    // HDR
 4141              		.loc 3 619 2 discriminator 17
 4142 2a4b E8000000 		call	__cxa_end_catch@PLT
 4142      00
 4143              	.LEHE104:
 4144 2a50 E9B7FDFF 		jmp	.L126
 4144      FF
 4145              	.L139:
 4146 2a55 F30F1EFA 		endbr64
 619:testSvf2Csvf.cpp **** 		"8, {AA}, {00}, {55}, "    // HDR
 4147              		.loc 3 619 2
 4148 2a59 4889C3   		movq	%rax, %rbx
 4149 2a5c E8000000 		call	__cxa_end_catch@PLT
 4149      00
 4150 2a61 4889D8   		movq	%rbx, %rax
 4151 2a64 4889C7   		movq	%rax, %rdi
 4152              	.LEHB105:
 4153 2a67 E8000000 		call	_Unwind_Resume@PLT
 4153      00
 4154              	.LEHE105:
 4155              	.L140:
 4156 2a6c F30F1EFA 		endbr64
 630:testSvf2Csvf.cpp **** 		"6, {3A}, {00}, {FF}, "    // HDR
 4157              		.loc 3 630 2 is_stmt 1
 4158 2a70 4889C7   		movq	%rax, %rdi
 4159 2a73 E8000000 		call	__cxa_begin_catch@PLT
 4159      00
 4160              	.LEHB106:
 4161 2a78 E8000000 		call	_ZN8UnitTest11CurrentTest7ResultsEv@PLT
 4161      00
 630:testSvf2Csvf.cpp **** 		"6, {3A}, {00}, {FF}, "    // HDR
 4162              		.loc 3 630 2 is_stmt 0 discriminator 3
 4163 2a7d 488B18   		movq	(%rax), %rbx
 4164 2a80 E8000000 		call	_ZN8UnitTest11CurrentTest7DetailsEv@PLT
 4164      00
 630:testSvf2Csvf.cpp **** 		"6, {3A}, {00}, {FF}, "    // HDR
 4165              		.loc 3 630 2 discriminator 11
 4166 2a85 488B08   		movq	(%rax), %rcx
 4167 2a88 488D8520 		leaq	-736(%rbp), %rax
 4167      FDFFFF
 4168 2a8f BA760200 		movl	$630, %edx
 4168      00
 4169 2a94 4889CE   		movq	%rcx, %rsi
 4170 2a97 4889C7   		movq	%rax, %rdi
 4171 2a9a E8000000 		call	_ZN8UnitTest11TestDetailsC1ERKS0_i@PLT
 4171      00
 630:testSvf2Csvf.cpp **** 		"6, {3A}, {00}, {FF}, "    // HDR
 4172              		.loc 3 630 2 discriminator 15
 4173 2a9f 488D8520 		leaq	-736(%rbp), %rax
 4173      FDFFFF
 4174 2aa6 488D1500 		leaq	.LC124(%rip), %rdx
 4174      000000
 4175 2aad 4889C6   		movq	%rax, %rsi
 4176 2ab0 4889DF   		movq	%rbx, %rdi
 4177 2ab3 E8000000 		call	_ZN8UnitTest11TestResults13OnTestFailureERKNS_11TestDetailsEPKc@PLT
 4177      00
 4178              	.LEHE106:
 4179              	.LEHB107:
 630:testSvf2Csvf.cpp **** 		"6, {3A}, {00}, {FF}, "    // HDR
 4180              		.loc 3 630 2 discriminator 17
 4181 2ab8 E8000000 		call	__cxa_end_catch@PLT
 4181      00
 4182              	.LEHE107:
 4183 2abd E9BFFDFF 		jmp	.L129
 4183      FF
 4184              	.L141:
 4185 2ac2 F30F1EFA 		endbr64
 630:testSvf2Csvf.cpp **** 		"6, {3A}, {00}, {FF}, "    // HDR
 4186              		.loc 3 630 2
 4187 2ac6 4889C3   		movq	%rax, %rbx
 4188 2ac9 E8000000 		call	__cxa_end_catch@PLT
 4188      00
 4189 2ace 4889D8   		movq	%rbx, %rax
 4190 2ad1 4889C7   		movq	%rax, %rdi
 4191              	.LEHB108:
 4192 2ad4 E8000000 		call	_Unwind_Resume@PLT
 4192      00
 4193              	.LEHE108:
 4194              	.L142:
 4195              		.loc 3 641 1 is_stmt 1
 4196 2ad9 E8000000 		call	__stack_chk_fail@PLT
 4196      00
 4197              	.L131:
 4198 2ade 488B5DF8 		movq	-8(%rbp), %rbx
 4199 2ae2 C9       		leave
 4200              		.cfi_def_cfa 7, 8
 4201 2ae3 C3       		ret
 4202              		.cfi_endproc
 4203              	.LFE1162:
 4204              		.section	.gcc_except_table
 4205              		.align 4
 4206              	.LLSDA1162:
 4207 01d8 FF       		.byte	0xff
 4208 01d9 9B       		.byte	0x9b
 4209 01da 9401     		.uleb128 .LLSDATT1162-.LLSDATTD1162
 4210              	.LLSDATTD1162:
 4211 01dc 01       		.byte	0x1
 4212 01dd 8A01     		.uleb128 .LLSDACSE1162-.LLSDACSB1162
 4213              	.LLSDACSB1162:
 4214 01df 3F       		.uleb128 .LEHB83-.LFB1162
 4215 01e0 05       		.uleb128 .LEHE83-.LEHB83
 4216 01e1 00       		.uleb128 0
 4217 01e2 00       		.uleb128 0
 4218 01e3 4A       		.uleb128 .LEHB84-.LFB1162
 4219 01e4 4E       		.uleb128 .LEHE84-.LEHB84
 4220 01e5 9605     		.uleb128 .L132-.LFB1162
 4221 01e7 01       		.uleb128 0x1
 4222 01e8 A701     		.uleb128 .LEHB85-.LFB1162
 4223 01ea 05       		.uleb128 .LEHE85-.LEHB85
 4224 01eb 00       		.uleb128 0
 4225 01ec 00       		.uleb128 0
 4226 01ed B201     		.uleb128 .LEHB86-.LFB1162
 4227 01ef 4E       		.uleb128 .LEHE86-.LEHB86
 4228 01f0 8306     		.uleb128 .L134-.LFB1162
 4229 01f2 01       		.uleb128 0x1
 4230 01f3 9B02     		.uleb128 .LEHB87-.LFB1162
 4231 01f5 05       		.uleb128 .LEHE87-.LEHB87
 4232 01f6 00       		.uleb128 0
 4233 01f7 00       		.uleb128 0
 4234 01f8 A002     		.uleb128 .LEHB88-.LFB1162
 4235 01fa 55       		.uleb128 .LEHE88-.LEHB88
 4236 01fb F006     		.uleb128 .L136-.LFB1162
 4237 01fd 01       		.uleb128 0x1
 4238 01fe 9003     		.uleb128 .LEHB89-.LFB1162
 4239 0200 05       		.uleb128 .LEHE89-.LEHB89
 4240 0201 00       		.uleb128 0
 4241 0202 00       		.uleb128 0
 4242 0203 9503     		.uleb128 .LEHB90-.LFB1162
 4243 0205 55       		.uleb128 .LEHE90-.LEHB90
 4244 0206 DD07     		.uleb128 .L138-.LFB1162
 4245 0208 01       		.uleb128 0x1
 4246 0209 8504     		.uleb128 .LEHB91-.LFB1162
 4247 020b 05       		.uleb128 .LEHE91-.LEHB91
 4248 020c 00       		.uleb128 0
 4249 020d 00       		.uleb128 0
 4250 020e 8A04     		.uleb128 .LEHB92-.LFB1162
 4251 0210 55       		.uleb128 .LEHE92-.LEHB92
 4252 0211 CA08     		.uleb128 .L140-.LFB1162
 4253 0213 01       		.uleb128 0x1
 4254 0214 E904     		.uleb128 .LEHB93-.LFB1162
 4255 0216 14       		.uleb128 .LEHE93-.LEHB93
 4256 0217 00       		.uleb128 0
 4257 0218 00       		.uleb128 0
 4258 0219 A205     		.uleb128 .LEHB94-.LFB1162
 4259 021b 40       		.uleb128 .LEHE94-.LEHB94
 4260 021c EC05     		.uleb128 .L133-.LFB1162
 4261 021e 00       		.uleb128 0
 4262 021f E205     		.uleb128 .LEHB95-.LFB1162
 4263 0221 05       		.uleb128 .LEHE95-.LEHB95
 4264 0222 00       		.uleb128 0
 4265 0223 00       		.uleb128 0
 4266 0224 FE05     		.uleb128 .LEHB96-.LFB1162
 4267 0226 05       		.uleb128 .LEHE96-.LEHB96
 4268 0227 00       		.uleb128 0
 4269 0228 00       		.uleb128 0
 4270 0229 8F06     		.uleb128 .LEHB97-.LFB1162
 4271 022b 40       		.uleb128 .LEHE97-.LEHB97
 4272 022c D906     		.uleb128 .L135-.LFB1162
 4273 022e 00       		.uleb128 0
 4274 022f CF06     		.uleb128 .LEHB98-.LFB1162
 4275 0231 05       		.uleb128 .LEHE98-.LEHB98
 4276 0232 00       		.uleb128 0
 4277 0233 00       		.uleb128 0
 4278 0234 EB06     		.uleb128 .LEHB99-.LFB1162
 4279 0236 05       		.uleb128 .LEHE99-.LEHB99
 4280 0237 00       		.uleb128 0
 4281 0238 00       		.uleb128 0
 4282 0239 FC06     		.uleb128 .LEHB100-.LFB1162
 4283 023b 40       		.uleb128 .LEHE100-.LEHB100
 4284 023c C607     		.uleb128 .L137-.LFB1162
 4285 023e 00       		.uleb128 0
 4286 023f BC07     		.uleb128 .LEHB101-.LFB1162
 4287 0241 05       		.uleb128 .LEHE101-.LEHB101
 4288 0242 00       		.uleb128 0
 4289 0243 00       		.uleb128 0
 4290 0244 D807     		.uleb128 .LEHB102-.LFB1162
 4291 0246 05       		.uleb128 .LEHE102-.LEHB102
 4292 0247 00       		.uleb128 0
 4293 0248 00       		.uleb128 0
 4294 0249 E907     		.uleb128 .LEHB103-.LFB1162
 4295 024b 40       		.uleb128 .LEHE103-.LEHB103
 4296 024c B308     		.uleb128 .L139-.LFB1162
 4297 024e 00       		.uleb128 0
 4298 024f A908     		.uleb128 .LEHB104-.LFB1162
 4299 0251 05       		.uleb128 .LEHE104-.LEHB104
 4300 0252 00       		.uleb128 0
 4301 0253 00       		.uleb128 0
 4302 0254 C508     		.uleb128 .LEHB105-.LFB1162
 4303 0256 05       		.uleb128 .LEHE105-.LEHB105
 4304 0257 00       		.uleb128 0
 4305 0258 00       		.uleb128 0
 4306 0259 D608     		.uleb128 .LEHB106-.LFB1162
 4307 025b 40       		.uleb128 .LEHE106-.LEHB106
 4308 025c A009     		.uleb128 .L141-.LFB1162
 4309 025e 00       		.uleb128 0
 4310 025f 9609     		.uleb128 .LEHB107-.LFB1162
 4311 0261 05       		.uleb128 .LEHE107-.LEHB107
 4312 0262 00       		.uleb128 0
 4313 0263 00       		.uleb128 0
 4314 0264 B209     		.uleb128 .LEHB108-.LFB1162
 4315 0266 05       		.uleb128 .LEHE108-.LEHB108
 4316 0267 00       		.uleb128 0
 4317 0268 00       		.uleb128 0
 4318              	.LLSDACSE1162:
 4319 0269 01       		.byte	0x1
 4320 026a 00       		.byte	0
 4321 026b 00       		.align 4
 4322 026c 00000000 		.long	0
 4323              	
 4324              	.LLSDATT1162:
 4325              		.text
 4327              		.section	.rodata
 4328              	.LC125:
 4329 09d5 20205B25 		.string	"  [%d] %s:%s\n"
 4329      645D2025 
 4329      733A2573 
 4329      0A00
 4330 09e3 00000000 		.align 8
 4330      00
 4331              	.LC126:
 4332 09e8 556E6861 		.string	"Unhandled exception in CHECK_EQUAL(sExpected, sActual)"
 4332      6E646C65 
 4332      64206578 
 4332      63657074 
 4332      696F6E20 
 4333 0a1f 00       		.align 8
 4334              	.LC127:
 4335 0a20 556E6861 		.string	"Unhandled exception in CHECK_EQUAL(expected, actual)"
 4335      6E646C65 
 4335      64206578 
 4335      63657074 
 4335      696F6E20 
 4336              		.text
 4338              	_ZL7compareiPKhS0_:
 4339              	.LFB1163:
 642:testSvf2Csvf.cpp **** 
 643:testSvf2Csvf.cpp **** static void compare(int j, CmdPtr pExpected, CmdPtr pActual) {
 4340              		.loc 3 643 62
 4341              		.cfi_startproc
 4342              		.cfi_personality 0x9b,DW.ref.__gxx_personality_v0
 4343              		.cfi_lsda 0x1b,.LLSDA1163
 4344 2ae4 F30F1EFA 		endbr64
 4345 2ae8 55       		pushq	%rbp
 4346              		.cfi_def_cfa_offset 16
 4347              		.cfi_offset 6, -16
 4348 2ae9 4889E5   		movq	%rsp, %rbp
 4349              		.cfi_def_cfa_register 6
 4350 2aec 53       		pushq	%rbx
 4351 2aed 4883EC78 		subq	$120, %rsp
 4352              		.cfi_offset 3, -24
 4353 2af1 897D9C   		movl	%edi, -100(%rbp)
 4354 2af4 48897590 		movq	%rsi, -112(%rbp)
 4355 2af8 48895588 		movq	%rdx, -120(%rbp)
 4356              		.loc 3 643 62
 4357 2afc 64488B04 		movq	%fs:40, %rax
 4357      25280000 
 4357      00
 4358 2b05 488945E8 		movq	%rax, -24(%rbp)
 4359 2b09 31C0     		xorl	%eax, %eax
 644:testSvf2Csvf.cpp **** 	const char *const sExpected = getCmdName(pExpected);
 4360              		.loc 3 644 42
 4361 2b0b 488B4590 		movq	-112(%rbp), %rax
 4362 2b0f 4889C7   		movq	%rax, %rdi
 4363              	.LEHB109:
 4364 2b12 E8000000 		call	getCmdName@PLT
 4364      00
 4365 2b17 488945B0 		movq	%rax, -80(%rbp)
 645:testSvf2Csvf.cpp **** 	const char *const sActual = getCmdName(pActual);
 4366              		.loc 3 645 40
 4367 2b1b 488B4588 		movq	-120(%rbp), %rax
 4368 2b1f 4889C7   		movq	%rax, %rdi
 4369 2b22 E8000000 		call	getCmdName@PLT
 4369      00
 4370 2b27 488945B8 		movq	%rax, -72(%rbp)
 646:testSvf2Csvf.cpp **** 	uint32 expected = pExpected[0];
 4371              		.loc 3 646 31
 4372 2b2b 488B4590 		movq	-112(%rbp), %rax
 4373 2b2f 0FB600   		movzbl	(%rax), %eax
 4374 2b32 0FB6C0   		movzbl	%al, %eax
 4375              		.loc 3 646 9
 4376 2b35 8945A8   		movl	%eax, -88(%rbp)
 647:testSvf2Csvf.cpp **** 	uint32 actual = pActual[0];
 4377              		.loc 3 647 27
 4378 2b38 488B4588 		movq	-120(%rbp), %rax
 4379 2b3c 0FB600   		movzbl	(%rax), %eax
 4380 2b3f 0FB6C0   		movzbl	%al, %eax
 4381              		.loc 3 647 9
 4382 2b42 8945AC   		movl	%eax, -84(%rbp)
 648:testSvf2Csvf.cpp **** 	printf("  [%d] %s:%s\n", j, sExpected, sActual);
 4383              		.loc 3 648 8
 4384 2b45 488B4DB8 		movq	-72(%rbp), %rcx
 4385 2b49 488B55B0 		movq	-80(%rbp), %rdx
 4386 2b4d 8B459C   		movl	-100(%rbp), %eax
 4387 2b50 89C6     		movl	%eax, %esi
 4388 2b52 488D0500 		leaq	.LC125(%rip), %rax
 4388      000000
 4389 2b59 4889C7   		movq	%rax, %rdi
 4390 2b5c B8000000 		movl	$0, %eax
 4390      00
 4391 2b61 E8000000 		call	printf@PLT
 4391      00
 4392              	.LEHE109:
 4393              	.LEHB110:
 649:testSvf2Csvf.cpp **** 	CHECK_EQUAL(sExpected, sActual);
 4394              		.loc 3 649 2
 4395 2b66 E8000000 		call	_ZN8UnitTest11CurrentTest7DetailsEv@PLT
 4395      00
 4396 2b6b 488B08   		movq	(%rax), %rcx
 4397 2b6e 488D45C0 		leaq	-64(%rbp), %rax
 4398 2b72 BA890200 		movl	$649, %edx
 4398      00
 4399 2b77 4889CE   		movq	%rcx, %rsi
 4400 2b7a 4889C7   		movq	%rax, %rdi
 4401 2b7d E8000000 		call	_ZN8UnitTest11TestDetailsC1ERKS0_i@PLT
 4401      00
 4402              		.loc 3 649 2 is_stmt 0 discriminator 4
 4403 2b82 E8000000 		call	_ZN8UnitTest11CurrentTest7ResultsEv@PLT
 4403      00
 4404 2b87 488B00   		movq	(%rax), %rax
 4405 2b8a 488D4DC0 		leaq	-64(%rbp), %rcx
 4406 2b8e 488B55B8 		movq	-72(%rbp), %rdx
 4407 2b92 488B75B0 		movq	-80(%rbp), %rsi
 4408 2b96 4889C7   		movq	%rax, %rdi
 4409 2b99 E8000000 		call	_ZN8UnitTest10CheckEqualERNS_11TestResultsEPKcS3_RKNS_11TestDetailsE@PLT
 4409      00
 4410              	.LEHE110:
 4411              	.L146:
 650:testSvf2Csvf.cpp **** 	if ( expected == XRUNTEST && actual == XRUNTEST ) {
 4412              		.loc 3 650 16 is_stmt 1
 4413 2b9e 8B45A8   		movl	-88(%rbp), %eax
 4414              		.loc 3 650 2
 4415 2ba1 83F804   		cmpl	$4, %eax
 4416 2ba4 0F853A01 		jne	.L155
 4416      0000
 4417              		.loc 3 650 38 discriminator 1
 4418 2baa 8B45AC   		movl	-84(%rbp), %eax
 4419              		.loc 3 650 28 discriminator 1
 4420 2bad 83F804   		cmpl	$4, %eax
 4421 2bb0 0F852E01 		jne	.L155
 4421      0000
 651:testSvf2Csvf.cpp **** 		expected = readLongBE(pExpected + 1);
 4422              		.loc 3 651 24
 4423 2bb6 488B4590 		movq	-112(%rbp), %rax
 4424 2bba 4883C001 		addq	$1, %rax
 4425 2bbe 4889C7   		movq	%rax, %rdi
 4426              	.LEHB111:
 4427 2bc1 E8000000 		call	readLongBE@PLT
 4427      00
 4428              		.loc 3 651 12
 4429 2bc6 8945A8   		movl	%eax, -88(%rbp)
 652:testSvf2Csvf.cpp **** 		actual = readLongBE(pActual + 1);
 4430              		.loc 3 652 22
 4431 2bc9 488B4588 		movq	-120(%rbp), %rax
 4432 2bcd 4883C001 		addq	$1, %rax
 4433 2bd1 4889C7   		movq	%rax, %rdi
 4434 2bd4 E8000000 		call	readLongBE@PLT
 4434      00
 4435              	.LEHE111:
 4436              		.loc 3 652 10
 4437 2bd9 8945AC   		movl	%eax, -84(%rbp)
 4438              	.LEHB112:
 653:testSvf2Csvf.cpp **** 		CHECK_EQUAL(expected, actual);
 4439              		.loc 3 653 3
 4440 2bdc E8000000 		call	_ZN8UnitTest11CurrentTest7DetailsEv@PLT
 4440      00
 4441 2be1 488B08   		movq	(%rax), %rcx
 4442 2be4 488D45C0 		leaq	-64(%rbp), %rax
 4443 2be8 BA8D0200 		movl	$653, %edx
 4443      00
 4444 2bed 4889CE   		movq	%rcx, %rsi
 4445 2bf0 4889C7   		movq	%rax, %rdi
 4446 2bf3 E8000000 		call	_ZN8UnitTest11TestDetailsC1ERKS0_i@PLT
 4446      00
 4447              		.loc 3 653 3 is_stmt 0 discriminator 4
 4448 2bf8 E8000000 		call	_ZN8UnitTest11CurrentTest7ResultsEv@PLT
 4448      00
 4449 2bfd 488B00   		movq	(%rax), %rax
 4450 2c00 488D4DC0 		leaq	-64(%rbp), %rcx
 4451 2c04 488D55AC 		leaq	-84(%rbp), %rdx
 4452 2c08 488D75A8 		leaq	-88(%rbp), %rsi
 4453 2c0c 4889C7   		movq	%rax, %rdi
 4454 2c0f E8000000 		call	_ZN8UnitTest10CheckEqualIjjEEvRNS_11TestResultsERKT_RKT0_RKNS_11TestDetailsE
 4454      00
 4455              	.LEHE112:
 654:testSvf2Csvf.cpp **** 	}
 655:testSvf2Csvf.cpp **** }
 4456              		.loc 3 655 1 is_stmt 1
 4457 2c14 E9CB0000 		jmp	.L155
 4457      00
 4458              	.L151:
 4459 2c19 F30F1EFA 		endbr64
 649:testSvf2Csvf.cpp **** 	if ( expected == XRUNTEST && actual == XRUNTEST ) {
 4460              		.loc 3 649 2
 4461 2c1d 4889C7   		movq	%rax, %rdi
 4462 2c20 E8000000 		call	__cxa_begin_catch@PLT
 4462      00
 4463              	.LEHB113:
 4464 2c25 E8000000 		call	_ZN8UnitTest11CurrentTest7ResultsEv@PLT
 4464      00
 649:testSvf2Csvf.cpp **** 	if ( expected == XRUNTEST && actual == XRUNTEST ) {
 4465              		.loc 3 649 2 is_stmt 0 discriminator 3
 4466 2c2a 488B18   		movq	(%rax), %rbx
