   1              		.file	"testCore.cpp"
   2              		.text
   3              	.Ltext0:
   4              		.file 0 "/home/pong/FPGALink/makestuff/libs/libbuffer/tests" "testCore.cpp"
   5              		.section	.rodata
   6              	.LC0:
   7 0000 44656661 		.string	"DefaultSuite"
   7      756C7453 
   7      75697465 
   7      00
   8              		.section	.text._ZN13UnitTestSuite12GetSuiteNameEv,"axG",@progbits,_ZN13UnitTestSuite12GetSuiteName
   9              		.weak	_ZN13UnitTestSuite12GetSuiteNameEv
  11              	_ZN13UnitTestSuite12GetSuiteNameEv:
  12              	.LFB0:
  13              		.file 1 "/home/pong/FPGALink/makestuff/libs/libutpp/TestSuite.h"
   1:/home/pong/FPGALink/makestuff/libs/libutpp/TestSuite.h **** #ifndef UNITTEST_TESTSUITE_H
   2:/home/pong/FPGALink/makestuff/libs/libutpp/TestSuite.h **** #define UNITTEST_TESTSUITE_H
   3:/home/pong/FPGALink/makestuff/libs/libutpp/TestSuite.h **** 
   4:/home/pong/FPGALink/makestuff/libs/libutpp/TestSuite.h **** namespace UnitTestSuite {
   5:/home/pong/FPGALink/makestuff/libs/libutpp/TestSuite.h **** 
   6:/home/pong/FPGALink/makestuff/libs/libutpp/TestSuite.h ****     inline char const* GetSuiteName ()
   7:/home/pong/FPGALink/makestuff/libs/libutpp/TestSuite.h ****     {
  14              		.loc 1 7 5
  15              		.cfi_startproc
  16 0000 F30F1EFA 		endbr64
  17 0004 55       		pushq	%rbp
  18              		.cfi_def_cfa_offset 16
  19              		.cfi_offset 6, -16
  20 0005 4889E5   		movq	%rsp, %rbp
  21              		.cfi_def_cfa_register 6
   8:/home/pong/FPGALink/makestuff/libs/libutpp/TestSuite.h ****         return "DefaultSuite";
  22              		.loc 1 8 16
  23 0008 488D0500 		leaq	.LC0(%rip), %rax
  23      000000
   9:/home/pong/FPGALink/makestuff/libs/libutpp/TestSuite.h ****     }
  24              		.loc 1 9 5
  25 000f 5D       		popq	%rbp
  26              		.cfi_def_cfa 7, 8
  27 0010 C3       		ret
  28              		.cfi_endproc
  29              	.LFE0:
  31              		.section	.text._ZN8UnitTest15MemoryOutStreamC1Ev,"axG",@progbits,_ZN8UnitTest15MemoryOutStreamC1Ev
  32              		.align 2
  33              		.weak	_ZN8UnitTest15MemoryOutStreamC1Ev
  35              	_ZN8UnitTest15MemoryOutStreamC1Ev:
  36              	.LFB1129:
  37              		.file 2 "/home/pong/FPGALink/makestuff/libs/libutpp/MemoryOutStream.h"
   1:/home/pong/FPGALink/makestuff/libs/libutpp/MemoryOutStream.h **** #ifndef UNITTEST_MEMORYOUTSTREAM_H
   2:/home/pong/FPGALink/makestuff/libs/libutpp/MemoryOutStream.h **** #define UNITTEST_MEMORYOUTSTREAM_H
   3:/home/pong/FPGALink/makestuff/libs/libutpp/MemoryOutStream.h **** 
   4:/home/pong/FPGALink/makestuff/libs/libutpp/MemoryOutStream.h **** #include "Config.h"
   5:/home/pong/FPGALink/makestuff/libs/libutpp/MemoryOutStream.h **** 
   6:/home/pong/FPGALink/makestuff/libs/libutpp/MemoryOutStream.h **** #ifndef UNITTEST_USE_CUSTOM_STREAMS
   7:/home/pong/FPGALink/makestuff/libs/libutpp/MemoryOutStream.h **** 
   8:/home/pong/FPGALink/makestuff/libs/libutpp/MemoryOutStream.h **** #include <sstream>
   9:/home/pong/FPGALink/makestuff/libs/libutpp/MemoryOutStream.h **** 
  10:/home/pong/FPGALink/makestuff/libs/libutpp/MemoryOutStream.h **** namespace UnitTest
  11:/home/pong/FPGALink/makestuff/libs/libutpp/MemoryOutStream.h **** {
  12:/home/pong/FPGALink/makestuff/libs/libutpp/MemoryOutStream.h **** 
  13:/home/pong/FPGALink/makestuff/libs/libutpp/MemoryOutStream.h **** class MemoryOutStream : public std::ostringstream
  14:/home/pong/FPGALink/makestuff/libs/libutpp/MemoryOutStream.h **** {
  15:/home/pong/FPGALink/makestuff/libs/libutpp/MemoryOutStream.h **** public:
  16:/home/pong/FPGALink/makestuff/libs/libutpp/MemoryOutStream.h ****     MemoryOutStream() {}
  38              		.loc 2 16 5
  39              		.cfi_startproc
  40              		.cfi_personality 0x9b,DW.ref.__gxx_personality_v0
  41              		.cfi_lsda 0x1b,.LLSDA1129
  42 0000 F30F1EFA 		endbr64
  43 0004 55       		pushq	%rbp
  44              		.cfi_def_cfa_offset 16
  45              		.cfi_offset 6, -16
  46 0005 4889E5   		movq	%rsp, %rbp
  47              		.cfi_def_cfa_register 6
  48 0008 53       		pushq	%rbx
  49 0009 4883EC18 		subq	$24, %rsp
  50              		.cfi_offset 3, -24
  51 000d 48897DE8 		movq	%rdi, -24(%rbp)
  52              	.LBB2:
  53              		.loc 2 16 23
  54 0011 488B45E8 		movq	-24(%rbp), %rax
  55 0015 48059000 		addq	$144, %rax
  55      0000
  56 001b 4889C7   		movq	%rax, %rdi
  57              	.LEHB0:
  58 001e E8000000 		call	_ZNSt9basic_iosIcSt11char_traitsIcEEC2Ev@PLT
  58      00
  59              	.LEHE0:
  60 0023 488B45E8 		movq	-24(%rbp), %rax
  61 0027 488D1500 		leaq	8+_ZTTN8UnitTest15MemoryOutStreamE(%rip), %rdx
  61      000000
  62 002e 4889D6   		movq	%rdx, %rsi
  63 0031 4889C7   		movq	%rax, %rdi
  64              	.LEHB1:
  65 0034 E8000000 		call	_ZNSt7__cxx1119basic_ostringstreamIcSt11char_traitsIcESaIcEEC2Ev@PLT
  65      00
  66              	.LEHE1:
  67              		.loc 2 16 23 is_stmt 0 discriminator 2
  68 0039 488D1500 		leaq	24+_ZTVN8UnitTest15MemoryOutStreamE(%rip), %rdx
  68      000000
  69 0040 488B45E8 		movq	-24(%rbp), %rax
  70 0044 488910   		movq	%rdx, (%rax)
  71 0047 488B45E8 		movq	-24(%rbp), %rax
  72 004b 48059000 		addq	$144, %rax
  72      0000
  73 0051 488D1500 		leaq	64+_ZTVN8UnitTest15MemoryOutStreamE(%rip), %rdx
  73      000000
  74 0058 488910   		movq	%rdx, (%rax)
  75 005b 488B45E8 		movq	-24(%rbp), %rax
  76 005f 4883C070 		addq	$112, %rax
  77 0063 4889C7   		movq	%rax, %rdi
  78              	.LEHB2:
  79 0066 E8000000 		call	_ZNSt7__cxx1112basic_stringIcSt11char_traitsIcESaIcEEC1Ev@PLT
  79      00
  80              	.LEHE2:
  81              	.LBE2:
  82              		.loc 2 16 24 is_stmt 1
  83 006b EB43     		jmp	.L8
  84              	.L7:
  85 006d F30F1EFA 		endbr64
  86              	.LBB3:
  87 0071 4889C3   		movq	%rax, %rbx
  88 0074 488B45E8 		movq	-24(%rbp), %rax
  89 0078 488D1500 		leaq	8+_ZTTN8UnitTest15MemoryOutStreamE(%rip), %rdx
  89      000000
  90 007f 4889D6   		movq	%rdx, %rsi
  91 0082 4889C7   		movq	%rax, %rdi
  92 0085 E8000000 		call	_ZNSt7__cxx1119basic_ostringstreamIcSt11char_traitsIcESaIcEED2Ev@PLT
  92      00
  93 008a EB07     		jmp	.L5
  94              	.L6:
  95 008c F30F1EFA 		endbr64
  96 0090 4889C3   		movq	%rax, %rbx
  97              	.L5:
  98              		.loc 2 16 24 is_stmt 0 discriminator 1
  99 0093 488B45E8 		movq	-24(%rbp), %rax
 100 0097 48059000 		addq	$144, %rax
 100      0000
 101 009d 4889C7   		movq	%rax, %rdi
 102 00a0 E8000000 		call	_ZNSt9basic_iosIcSt11char_traitsIcEED2Ev@PLT
 102      00
 103 00a5 4889D8   		movq	%rbx, %rax
 104 00a8 4889C7   		movq	%rax, %rdi
 105              	.LEHB3:
 106 00ab E8000000 		call	_Unwind_Resume@PLT
 106      00
 107              	.LEHE3:
 108              	.L8:
 109              	.LBE3:
 110              		.loc 2 16 24
 111 00b0 488B5DF8 		movq	-8(%rbp), %rbx
 112 00b4 C9       		leave
 113              		.cfi_def_cfa 7, 8
 114 00b5 C3       		ret
 115              		.cfi_endproc
 116              	.LFE1129:
 117              		.globl	__gxx_personality_v0
 118              		.section	.gcc_except_table._ZN8UnitTest15MemoryOutStreamC1Ev,"aG",@progbits,_ZN8UnitTest15MemoryOu
 119              	.LLSDA1129:
 120 0000 FF       		.byte	0xff
 121 0001 FF       		.byte	0xff
 122 0002 01       		.byte	0x1
 123 0003 12       		.uleb128 .LLSDACSE1129-.LLSDACSB1129
 124              	.LLSDACSB1129:
 125 0004 1E       		.uleb128 .LEHB0-.LFB1129
 126 0005 05       		.uleb128 .LEHE0-.LEHB0
 127 0006 00       		.uleb128 0
 128 0007 00       		.uleb128 0
 129 0008 34       		.uleb128 .LEHB1-.LFB1129
 130 0009 05       		.uleb128 .LEHE1-.LEHB1
 131 000a 8C01     		.uleb128 .L6-.LFB1129
 132 000c 00       		.uleb128 0
 133 000d 66       		.uleb128 .LEHB2-.LFB1129
 134 000e 05       		.uleb128 .LEHE2-.LEHB2
 135 000f 6D       		.uleb128 .L7-.LFB1129
 136 0010 00       		.uleb128 0
 137 0011 AB01     		.uleb128 .LEHB3-.LFB1129
 138 0013 05       		.uleb128 .LEHE3-.LEHB3
 139 0014 00       		.uleb128 0
 140 0015 00       		.uleb128 0
 141              	.LLSDACSE1129:
 142              		.section	.text._ZN8UnitTest15MemoryOutStreamC1Ev,"axG",@progbits,_ZN8UnitTest15MemoryOutStreamC1Ev
 144              		.section	.rodata
 145              	.LC1:
 146 000d 74657374 		.string	"testCore.cpp"
 146      436F7265 
 146      2E637070 
 146      00
 147              	.LC2:
 148 001a 436F7265 		.string	"Core_testInitialiseZero"
 148      5F746573 
 148      74496E69 
 148      7469616C 
 148      6973655A 
 149              		.section	.text._ZN27TestCore_testInitialiseZeroC2Ev,"axG",@progbits,_ZN27TestCore_testInitialiseZe
 150              		.align 2
 151              		.weak	_ZN27TestCore_testInitialiseZeroC2Ev
 153              	_ZN27TestCore_testInitialiseZeroC2Ev:
 154              	.LFB1146:
 155              		.file 3 "testCore.cpp"
   1:testCore.cpp  **** /*
   2:testCore.cpp  ****  * Copyright (C) 2009-2012 Chris McClelland
   3:testCore.cpp  ****  *
   4:testCore.cpp  ****  * This program is free software: you can redistribute it and/or modify
   5:testCore.cpp  ****  * it under the terms of the GNU Lesser General Public License as published by
   6:testCore.cpp  ****  * the Free Software Foundation, either version 3 of the License, or
   7:testCore.cpp  ****  * (at your option) any later version.
   8:testCore.cpp  ****  *
   9:testCore.cpp  ****  * This program is distributed in the hope that it will be useful,
  10:testCore.cpp  ****  * but WITHOUT ANY WARRANTY; without even the implied warranty of
  11:testCore.cpp  ****  * MERCHANTABILITY or FITNESS FOR A PARTICULAR PURPOSE.  See the
  12:testCore.cpp  ****  * GNU Lesser General Public License for more details.
  13:testCore.cpp  ****  *
  14:testCore.cpp  ****  * You should have received a copy of the GNU Lesser General Public License
  15:testCore.cpp  ****  * along with this program.  If not, see <http://www.gnu.org/licenses/>.
  16:testCore.cpp  ****  */
  17:testCore.cpp  **** #include <string.h>
  18:testCore.cpp  **** #include <UnitTest++.h>
  19:testCore.cpp  **** #include "../libbuffer.h"
  20:testCore.cpp  **** 
  21:testCore.cpp  **** TEST(Core_testInitialiseZero) {
 156              		.loc 3 21 1 is_stmt 1
 157              		.cfi_startproc
 158 0000 F30F1EFA 		endbr64
 159 0004 55       		pushq	%rbp
 160              		.cfi_def_cfa_offset 16
 161              		.cfi_offset 6, -16
 162 0005 4889E5   		movq	%rsp, %rbp
 163              		.cfi_def_cfa_register 6
 164 0008 53       		pushq	%rbx
 165 0009 4883EC18 		subq	$24, %rsp
 166              		.cfi_offset 3, -24
 167 000d 48897DE8 		movq	%rdi, -24(%rbp)
 168              	.LBB4:
 169              		.loc 3 21 1
 170 0011 488B5DE8 		movq	-24(%rbp), %rbx
 171 0015 E8000000 		call	_ZN13UnitTestSuite12GetSuiteNameEv
 171      00
 172 001a 4889C2   		movq	%rax, %rdx
 173 001d 41B81500 		movl	$21, %r8d
 173      0000
 174 0023 488D0500 		leaq	.LC1(%rip), %rax
 174      000000
 175 002a 4889C1   		movq	%rax, %rcx
 176 002d 488D0500 		leaq	.LC2(%rip), %rax
 176      000000
 177 0034 4889C6   		movq	%rax, %rsi
 178 0037 4889DF   		movq	%rbx, %rdi
 179 003a E8000000 		call	_ZN8UnitTest4TestC2EPKcS2_S2_i@PLT
 179      00
 180 003f 488D1500 		leaq	16+_ZTV27TestCore_testInitialiseZero(%rip), %rdx
 180      000000
 181 0046 488B45E8 		movq	-24(%rbp), %rax
 182 004a 488910   		movq	%rdx, (%rax)
 183              	.LBE4:
 184 004d 90       		nop
 185 004e 488B5DF8 		movq	-8(%rbp), %rbx
 186 0052 C9       		leave
 187              		.cfi_def_cfa 7, 8
 188 0053 C3       		ret
 189              		.cfi_endproc
 190              	.LFE1146:
 192              		.weak	_ZN27TestCore_testInitialiseZeroC1Ev
 193              		.set	_ZN27TestCore_testInitialiseZeroC1Ev,_ZN27TestCore_testInitialiseZeroC2Ev
 194              		.globl	testCore_testInitialiseZeroInstance
 195              		.bss
 196              		.align 32
 199              	testCore_testInitialiseZeroInstance:
 200 0000 00000000 		.zero	56
 200      00000000 
 200      00000000 
 200      00000000 
 200      00000000 
 201              		.globl	adderCore_testInitialiseZero
 204              	adderCore_testInitialiseZero:
 205 0038 00       		.zero	1
 206              		.section	.rodata
 207 0032 00000000 		.align 8
 207      0000
 208              	.LC3:
 209 0038 556E6861 		.string	"Unhandled exception in CHECK_EQUAL(BUF_SUCCESS, status)"
 209      6E646C65 
 209      64206578 
 209      63657074 
 209      696F6E20 
 210              		.align 8
 211              	.LC4:
 212 0070 556E6861 		.string	"Unhandled exception in CHECK_EQUAL(0UL, buf.length)"
 212      6E646C65 
 212      64206578 
 212      63657074 
 212      696F6E20 
 213 00a4 00000000 		.align 8
 214              	.LC5:
 215 00a8 556E6861 		.string	"Unhandled exception in CHECK_EQUAL(8UL, buf.capacity)"
 215      6E646C65 
 215      64206578 
 215      63657074 
 215      696F6E20 
 216 00de 0000     		.align 8
 217              	.LC6:
 218 00e0 556E6861 		.string	"Unhandled exception in CHECK_ARRAY_EQUAL(expected, buf.data)"
 218      6E646C65 
 218      64206578 
 218      63657074 
 218      696F6E20 
 219              		.text
 220              		.align 2
 221              		.globl	_ZNK27TestCore_testInitialiseZero7RunImplEv
 223              	_ZNK27TestCore_testInitialiseZero7RunImplEv:
 224              	.LFB1148:
 225              		.loc 3 21 31
 226              		.cfi_startproc
 227              		.cfi_personality 0x9b,DW.ref.__gxx_personality_v0
 228              		.cfi_lsda 0x1b,.LLSDA1148
 229 0000 F30F1EFA 		endbr64
 230 0004 55       		pushq	%rbp
 231              		.cfi_def_cfa_offset 16
 232              		.cfi_offset 6, -16
 233 0005 4889E5   		movq	%rsp, %rbp
 234              		.cfi_def_cfa_register 6
 235 0008 53       		pushq	%rbx
 236 0009 4883EC78 		subq	$120, %rsp
 237              		.cfi_offset 3, -24
 238 000d 48897D88 		movq	%rdi, -120(%rbp)
 239              		.loc 3 21 31
 240 0011 64488B04 		movq	%fs:40, %rax
 240      25280000 
 240      00
 241 001a 488945E8 		movq	%rax, -24(%rbp)
 242 001e 31C0     		xorl	%eax, %eax
  22:testCore.cpp  **** 	Buffer buf;
  23:testCore.cpp  **** 	BufferStatus status = bufInitialise(&buf, 8, 0, NULL);
 243              		.loc 3 23 37
 244 0020 488D45A0 		leaq	-96(%rbp), %rax
 245 0024 B9000000 		movl	$0, %ecx
 245      00
 246 0029 BA000000 		movl	$0, %edx
 246      00
 247 002e BE080000 		movl	$8, %esi
 247      00
 248 0033 4889C7   		movq	%rax, %rdi
 249              	.LEHB4:
 250 0036 E8000000 		call	bufInitialise@PLT
 250      00
 251              	.LEHE4:
 252              		.loc 3 23 54
 253 003b 894594   		movl	%eax, -108(%rbp)
 254              	.LEHB5:
  24:testCore.cpp  **** 	CHECK_EQUAL(BUF_SUCCESS, status);
 255              		.loc 3 24 2
 256 003e E8000000 		call	_ZN8UnitTest11CurrentTest7DetailsEv@PLT
 256      00
 257 0043 488B08   		movq	(%rax), %rcx
 258 0046 488D45C0 		leaq	-64(%rbp), %rax
 259 004a BA180000 		movl	$24, %edx
 259      00
 260 004f 4889CE   		movq	%rcx, %rsi
 261 0052 4889C7   		movq	%rax, %rdi
 262 0055 E8000000 		call	_ZN8UnitTest11TestDetailsC1ERKS0_i@PLT
 262      00
 263              		.loc 3 24 2 is_stmt 0 discriminator 4
 264 005a C7459800 		movl	$0, -104(%rbp)
 264      000000
 265 0061 E8000000 		call	_ZN8UnitTest11CurrentTest7ResultsEv@PLT
 265      00
 266 0066 488B00   		movq	(%rax), %rax
 267 0069 488D4DC0 		leaq	-64(%rbp), %rcx
 268 006d 488D5594 		leaq	-108(%rbp), %rdx
 269 0071 488D7598 		leaq	-104(%rbp), %rsi
 270 0075 4889C7   		movq	%rax, %rdi
 271 0078 E8000000 		call	_ZN8UnitTest10CheckEqualI12BufferStatusS1_EEvRNS_11TestResultsERKT_RKT0_RKNS_11TestDetailsE
 271      00
 272              	.LEHE5:
 273              	.L12:
 274              	.LEHB6:
  25:testCore.cpp  **** 	CHECK_EQUAL(0UL, buf.length);
 275              		.loc 3 25 2 is_stmt 1
 276 007d E8000000 		call	_ZN8UnitTest11CurrentTest7DetailsEv@PLT
 276      00
 277 0082 488B08   		movq	(%rax), %rcx
 278 0085 488D45C0 		leaq	-64(%rbp), %rax
 279 0089 BA190000 		movl	$25, %edx
 279      00
 280 008e 4889CE   		movq	%rcx, %rsi
 281 0091 4889C7   		movq	%rax, %rdi
 282 0094 E8000000 		call	_ZN8UnitTest11TestDetailsC1ERKS0_i@PLT
 282      00
 283              		.loc 3 25 2 is_stmt 0 discriminator 4
 284 0099 48C74598 		movq	$0, -104(%rbp)
 284      00000000 
 285 00a1 E8000000 		call	_ZN8UnitTest11CurrentTest7ResultsEv@PLT
 285      00
 286 00a6 488B00   		movq	(%rax), %rax
 287 00a9 488D55C0 		leaq	-64(%rbp), %rdx
 288 00ad 488D4DA0 		leaq	-96(%rbp), %rcx
 289 00b1 488D7908 		leaq	8(%rcx), %rdi
 290 00b5 488D7598 		leaq	-104(%rbp), %rsi
 291 00b9 4889D1   		movq	%rdx, %rcx
 292 00bc 4889FA   		movq	%rdi, %rdx
 293 00bf 4889C7   		movq	%rax, %rdi
 294 00c2 E8000000 		call	_ZN8UnitTest10CheckEqualImmEEvRNS_11TestResultsERKT_RKT0_RKNS_11TestDetailsE
 294      00
 295              	.LEHE6:
 296              	.L15:
 297              	.LEHB7:
  26:testCore.cpp  **** 	CHECK_EQUAL(8UL, buf.capacity);
 298              		.loc 3 26 2 is_stmt 1
 299 00c7 E8000000 		call	_ZN8UnitTest11CurrentTest7DetailsEv@PLT
 299      00
 300 00cc 488B08   		movq	(%rax), %rcx
 301 00cf 488D45C0 		leaq	-64(%rbp), %rax
 302 00d3 BA1A0000 		movl	$26, %edx
 302      00
 303 00d8 4889CE   		movq	%rcx, %rsi
 304 00db 4889C7   		movq	%rax, %rdi
 305 00de E8000000 		call	_ZN8UnitTest11TestDetailsC1ERKS0_i@PLT
 305      00
 306              		.loc 3 26 2 is_stmt 0 discriminator 4
 307 00e3 48C74598 		movq	$8, -104(%rbp)
 307      08000000 
 308 00eb E8000000 		call	_ZN8UnitTest11CurrentTest7ResultsEv@PLT
 308      00
 309 00f0 488B00   		movq	(%rax), %rax
 310 00f3 488D55C0 		leaq	-64(%rbp), %rdx
 311 00f7 488D4DA0 		leaq	-96(%rbp), %rcx
 312 00fb 488D7910 		leaq	16(%rcx), %rdi
 313 00ff 488D7598 		leaq	-104(%rbp), %rsi
 314 0103 4889D1   		movq	%rdx, %rcx
 315 0106 4889FA   		movq	%rdi, %rdx
 316 0109 4889C7   		movq	%rax, %rdi
 317 010c E8000000 		call	_ZN8UnitTest10CheckEqualImmEEvRNS_11TestResultsERKT_RKT0_RKNS_11TestDetailsE
 317      00
 318              	.LEHE7:
 319              	.L18:
  27:testCore.cpp  **** 	const unsigned char expected[] = {0, 0, 0, 0, 0, 0, 0, 0};
 320              		.loc 3 27 22 is_stmt 1
 321 0111 48C745E0 		movq	$0, -32(%rbp)
 321      00000000 
 322              	.LEHB8:
  28:testCore.cpp  **** 	CHECK_ARRAY_EQUAL(expected, buf.data, 8);
 323              		.loc 3 28 2
 324 0119 E8000000 		call	_ZN8UnitTest11CurrentTest7DetailsEv@PLT
 324      00
 325 011e 488B08   		movq	(%rax), %rcx
 326 0121 488D45C0 		leaq	-64(%rbp), %rax
 327 0125 BA1C0000 		movl	$28, %edx
 327      00
 328 012a 4889CE   		movq	%rcx, %rsi
 329 012d 4889C7   		movq	%rax, %rdi
 330 0130 E8000000 		call	_ZN8UnitTest11TestDetailsC1ERKS0_i@PLT
 330      00
 331              		.loc 3 28 2 is_stmt 0 discriminator 4
 332 0135 E8000000 		call	_ZN8UnitTest11CurrentTest7ResultsEv@PLT
 332      00
 333 013a 488B00   		movq	(%rax), %rax
 334 013d 488D4DC0 		leaq	-64(%rbp), %rcx
 335 0141 488D55A0 		leaq	-96(%rbp), %rdx
 336 0145 488D75E0 		leaq	-32(%rbp), %rsi
 337 0149 4989C8   		movq	%rcx, %r8
 338 014c B9080000 		movl	$8, %ecx
 338      00
 339 0151 4889C7   		movq	%rax, %rdi
 340 0154 E8000000 		call	_ZN8UnitTest15CheckArrayEqualIA8_hPhEEvRNS_11TestResultsERKT_RKT0_iRKNS_11TestDetailsE
 340      00
 341              	.LEHE8:
 342              	.L21:
  29:testCore.cpp  **** 	bufDestroy(&buf);
 343              		.loc 3 29 12 is_stmt 1
 344 0159 488D45A0 		leaq	-96(%rbp), %rax
 345 015d 4889C7   		movq	%rax, %rdi
 346              	.LEHB9:
 347 0160 E8000000 		call	bufDestroy@PLT
 347      00
 348              	.LEHE9:
  30:testCore.cpp  **** }
 349              		.loc 3 30 1
 350 0165 90       		nop
 351 0166 488B45E8 		movq	-24(%rbp), %rax
 352 016a 64482B04 		subq	%fs:40, %rax
 352      25280000 
 352      00
 353 0173 0F84A601 		je	.L23
 353      0000
 354 0179 E99C0100 		jmp	.L32
 354      00
 355              	.L24:
 356 017e F30F1EFA 		endbr64
  24:testCore.cpp  **** 	CHECK_EQUAL(0UL, buf.length);
 357              		.loc 3 24 2
 358 0182 4889C7   		movq	%rax, %rdi
 359 0185 E8000000 		call	__cxa_begin_catch@PLT
 359      00
 360              	.LEHB10:
 361 018a E8000000 		call	_ZN8UnitTest11CurrentTest7ResultsEv@PLT
 361      00
  24:testCore.cpp  **** 	CHECK_EQUAL(0UL, buf.length);
 362              		.loc 3 24 2 is_stmt 0 discriminator 3
 363 018f 488B18   		movq	(%rax), %rbx
 364 0192 E8000000 		call	_ZN8UnitTest11CurrentTest7DetailsEv@PLT
 364      00
  24:testCore.cpp  **** 	CHECK_EQUAL(0UL, buf.length);
 365              		.loc 3 24 2 discriminator 11
 366 0197 488B08   		movq	(%rax), %rcx
 367 019a 488D45C0 		leaq	-64(%rbp), %rax
 368 019e BA180000 		movl	$24, %edx
 368      00
 369 01a3 4889CE   		movq	%rcx, %rsi
 370 01a6 4889C7   		movq	%rax, %rdi
 371 01a9 E8000000 		call	_ZN8UnitTest11TestDetailsC1ERKS0_i@PLT
 371      00
  24:testCore.cpp  **** 	CHECK_EQUAL(0UL, buf.length);
 372              		.loc 3 24 2 discriminator 15
 373 01ae 488D45C0 		leaq	-64(%rbp), %rax
 374 01b2 488D1500 		leaq	.LC3(%rip), %rdx
 374      000000
 375 01b9 4889C6   		movq	%rax, %rsi
 376 01bc 4889DF   		movq	%rbx, %rdi
 377 01bf E8000000 		call	_ZN8UnitTest11TestResults13OnTestFailureERKNS_11TestDetailsEPKc@PLT
 377      00
 378              	.LEHE10:
 379              	.LEHB11:
  24:testCore.cpp  **** 	CHECK_EQUAL(0UL, buf.length);
 380              		.loc 3 24 2 discriminator 17
 381 01c4 E8000000 		call	__cxa_end_catch@PLT
 381      00
 382              	.LEHE11:
 383 01c9 E9AFFEFF 		jmp	.L12
 383      FF
 384              	.L25:
 385 01ce F30F1EFA 		endbr64
  24:testCore.cpp  **** 	CHECK_EQUAL(0UL, buf.length);
 386              		.loc 3 24 2
 387 01d2 4889C3   		movq	%rax, %rbx
 388 01d5 E8000000 		call	__cxa_end_catch@PLT
 388      00
 389 01da 4889D8   		movq	%rbx, %rax
 390 01dd 4889C7   		movq	%rax, %rdi
 391              	.LEHB12:
 392 01e0 E8000000 		call	_Unwind_Resume@PLT
 392      00
 393              	.LEHE12:
 394              	.L26:
 395 01e5 F30F1EFA 		endbr64
  25:testCore.cpp  **** 	CHECK_EQUAL(8UL, buf.capacity);
 396              		.loc 3 25 2 is_stmt 1
 397 01e9 4889C7   		movq	%rax, %rdi
 398 01ec E8000000 		call	__cxa_begin_catch@PLT
 398      00
 399              	.LEHB13:
 400 01f1 E8000000 		call	_ZN8UnitTest11CurrentTest7ResultsEv@PLT
 400      00
  25:testCore.cpp  **** 	CHECK_EQUAL(8UL, buf.capacity);
 401              		.loc 3 25 2 is_stmt 0 discriminator 3
 402 01f6 488B18   		movq	(%rax), %rbx
 403 01f9 E8000000 		call	_ZN8UnitTest11CurrentTest7DetailsEv@PLT
 403      00
  25:testCore.cpp  **** 	CHECK_EQUAL(8UL, buf.capacity);
 404              		.loc 3 25 2 discriminator 11
 405 01fe 488B08   		movq	(%rax), %rcx
 406 0201 488D45C0 		leaq	-64(%rbp), %rax
 407 0205 BA190000 		movl	$25, %edx
 407      00
 408 020a 4889CE   		movq	%rcx, %rsi
 409 020d 4889C7   		movq	%rax, %rdi
 410 0210 E8000000 		call	_ZN8UnitTest11TestDetailsC1ERKS0_i@PLT
 410      00
  25:testCore.cpp  **** 	CHECK_EQUAL(8UL, buf.capacity);
 411              		.loc 3 25 2 discriminator 15
 412 0215 488D45C0 		leaq	-64(%rbp), %rax
 413 0219 488D1500 		leaq	.LC4(%rip), %rdx
 413      000000
 414 0220 4889C6   		movq	%rax, %rsi
 415 0223 4889DF   		movq	%rbx, %rdi
 416 0226 E8000000 		call	_ZN8UnitTest11TestResults13OnTestFailureERKNS_11TestDetailsEPKc@PLT
 416      00
 417              	.LEHE13:
 418              	.LEHB14:
  25:testCore.cpp  **** 	CHECK_EQUAL(8UL, buf.capacity);
 419              		.loc 3 25 2 discriminator 17
 420 022b E8000000 		call	__cxa_end_catch@PLT
 420      00
 421              	.LEHE14:
 422 0230 E992FEFF 		jmp	.L15
 422      FF
 423              	.L27:
 424 0235 F30F1EFA 		endbr64
  25:testCore.cpp  **** 	CHECK_EQUAL(8UL, buf.capacity);
 425              		.loc 3 25 2
 426 0239 4889C3   		movq	%rax, %rbx
 427 023c E8000000 		call	__cxa_end_catch@PLT
 427      00
 428 0241 4889D8   		movq	%rbx, %rax
 429 0244 4889C7   		movq	%rax, %rdi
 430              	.LEHB15:
 431 0247 E8000000 		call	_Unwind_Resume@PLT
 431      00
 432              	.LEHE15:
 433              	.L28:
 434 024c F30F1EFA 		endbr64
  26:testCore.cpp  **** 	const unsigned char expected[] = {0, 0, 0, 0, 0, 0, 0, 0};
 435              		.loc 3 26 2 is_stmt 1
 436 0250 4889C7   		movq	%rax, %rdi
 437 0253 E8000000 		call	__cxa_begin_catch@PLT
 437      00
 438              	.LEHB16:
 439 0258 E8000000 		call	_ZN8UnitTest11CurrentTest7ResultsEv@PLT
 439      00
  26:testCore.cpp  **** 	const unsigned char expected[] = {0, 0, 0, 0, 0, 0, 0, 0};
 440              		.loc 3 26 2 is_stmt 0 discriminator 3
 441 025d 488B18   		movq	(%rax), %rbx
 442 0260 E8000000 		call	_ZN8UnitTest11CurrentTest7DetailsEv@PLT
 442      00
  26:testCore.cpp  **** 	const unsigned char expected[] = {0, 0, 0, 0, 0, 0, 0, 0};
 443              		.loc 3 26 2 discriminator 11
 444 0265 488B08   		movq	(%rax), %rcx
 445 0268 488D45C0 		leaq	-64(%rbp), %rax
 446 026c BA1A0000 		movl	$26, %edx
 446      00
 447 0271 4889CE   		movq	%rcx, %rsi
 448 0274 4889C7   		movq	%rax, %rdi
 449 0277 E8000000 		call	_ZN8UnitTest11TestDetailsC1ERKS0_i@PLT
 449      00
  26:testCore.cpp  **** 	const unsigned char expected[] = {0, 0, 0, 0, 0, 0, 0, 0};
 450              		.loc 3 26 2 discriminator 15
 451 027c 488D45C0 		leaq	-64(%rbp), %rax
 452 0280 488D1500 		leaq	.LC5(%rip), %rdx
 452      000000
 453 0287 4889C6   		movq	%rax, %rsi
 454 028a 4889DF   		movq	%rbx, %rdi
 455 028d E8000000 		call	_ZN8UnitTest11TestResults13OnTestFailureERKNS_11TestDetailsEPKc@PLT
 455      00
 456              	.LEHE16:
 457              	.LEHB17:
  26:testCore.cpp  **** 	const unsigned char expected[] = {0, 0, 0, 0, 0, 0, 0, 0};
 458              		.loc 3 26 2 discriminator 17
 459 0292 E8000000 		call	__cxa_end_catch@PLT
 459      00
 460              	.LEHE17:
 461 0297 E975FEFF 		jmp	.L18
 461      FF
 462              	.L29:
 463 029c F30F1EFA 		endbr64
  26:testCore.cpp  **** 	const unsigned char expected[] = {0, 0, 0, 0, 0, 0, 0, 0};
 464              		.loc 3 26 2
 465 02a0 4889C3   		movq	%rax, %rbx
 466 02a3 E8000000 		call	__cxa_end_catch@PLT
 466      00
 467 02a8 4889D8   		movq	%rbx, %rax
 468 02ab 4889C7   		movq	%rax, %rdi
 469              	.LEHB18:
 470 02ae E8000000 		call	_Unwind_Resume@PLT
 470      00
 471              	.LEHE18:
 472              	.L30:
 473 02b3 F30F1EFA 		endbr64
  28:testCore.cpp  **** 	bufDestroy(&buf);
 474              		.loc 3 28 2 is_stmt 1
 475 02b7 4889C7   		movq	%rax, %rdi
 476 02ba E8000000 		call	__cxa_begin_catch@PLT
 476      00
 477              	.LEHB19:
 478 02bf E8000000 		call	_ZN8UnitTest11CurrentTest7ResultsEv@PLT
 478      00
  28:testCore.cpp  **** 	bufDestroy(&buf);
 479              		.loc 3 28 2 is_stmt 0 discriminator 3
 480 02c4 488B18   		movq	(%rax), %rbx
 481 02c7 E8000000 		call	_ZN8UnitTest11CurrentTest7DetailsEv@PLT
 481      00
  28:testCore.cpp  **** 	bufDestroy(&buf);
 482              		.loc 3 28 2 discriminator 11
 483 02cc 488B08   		movq	(%rax), %rcx
 484 02cf 488D45C0 		leaq	-64(%rbp), %rax
 485 02d3 BA1C0000 		movl	$28, %edx
 485      00
 486 02d8 4889CE   		movq	%rcx, %rsi
 487 02db 4889C7   		movq	%rax, %rdi
 488 02de E8000000 		call	_ZN8UnitTest11TestDetailsC1ERKS0_i@PLT
 488      00
  28:testCore.cpp  **** 	bufDestroy(&buf);
 489              		.loc 3 28 2 discriminator 15
 490 02e3 488D45C0 		leaq	-64(%rbp), %rax
 491 02e7 488D1500 		leaq	.LC6(%rip), %rdx
 491      000000
 492 02ee 4889C6   		movq	%rax, %rsi
 493 02f1 4889DF   		movq	%rbx, %rdi
 494 02f4 E8000000 		call	_ZN8UnitTest11TestResults13OnTestFailureERKNS_11TestDetailsEPKc@PLT
 494      00
 495              	.LEHE19:
 496              	.LEHB20:
  28:testCore.cpp  **** 	bufDestroy(&buf);
 497              		.loc 3 28 2 discriminator 17
 498 02f9 E8000000 		call	__cxa_end_catch@PLT
 498      00
 499              	.LEHE20:
 500 02fe E956FEFF 		jmp	.L21
 500      FF
 501              	.L31:
 502 0303 F30F1EFA 		endbr64
  28:testCore.cpp  **** 	bufDestroy(&buf);
 503              		.loc 3 28 2
 504 0307 4889C3   		movq	%rax, %rbx
 505 030a E8000000 		call	__cxa_end_catch@PLT
 505      00
 506 030f 4889D8   		movq	%rbx, %rax
 507 0312 4889C7   		movq	%rax, %rdi
 508              	.LEHB21:
 509 0315 E8000000 		call	_Unwind_Resume@PLT
 509      00
 510              	.LEHE21:
 511              	.L32:
 512              		.loc 3 30 1 is_stmt 1
 513 031a E8000000 		call	__stack_chk_fail@PLT
 513      00
 514              	.L23:
 515 031f 488B5DF8 		movq	-8(%rbp), %rbx
 516 0323 C9       		leave
 517              		.cfi_def_cfa 7, 8
 518 0324 C3       		ret
 519              		.cfi_endproc
 520              	.LFE1148:
 521              		.section	.gcc_except_table,"a",@progbits
 522              		.align 4
 523              	.LLSDA1148:
 524 0000 FF       		.byte	0xff
 525 0001 9B       		.byte	0x9b
 526 0002 69       		.uleb128 .LLSDATT1148-.LLSDATTD1148
 527              	.LLSDATTD1148:
 528 0003 01       		.byte	0x1
 529 0004 5F       		.uleb128 .LLSDACSE1148-.LLSDACSB1148
 530              	.LLSDACSB1148:
 531 0005 36       		.uleb128 .LEHB4-.LFB1148
 532 0006 05       		.uleb128 .LEHE4-.LEHB4
 533 0007 00       		.uleb128 0
 534 0008 00       		.uleb128 0
 535 0009 3E       		.uleb128 .LEHB5-.LFB1148
 536 000a 3F       		.uleb128 .LEHE5-.LEHB5
 537 000b FE02     		.uleb128 .L24-.LFB1148
 538 000d 01       		.uleb128 0x1
 539 000e 7D       		.uleb128 .LEHB6-.LFB1148
 540 000f 4A       		.uleb128 .LEHE6-.LEHB6
 541 0010 E503     		.uleb128 .L26-.LFB1148
 542 0012 01       		.uleb128 0x1
 543 0013 C701     		.uleb128 .LEHB7-.LFB1148
 544 0015 4A       		.uleb128 .LEHE7-.LEHB7
 545 0016 CC04     		.uleb128 .L28-.LFB1148
 546 0018 01       		.uleb128 0x1
 547 0019 9902     		.uleb128 .LEHB8-.LFB1148
 548 001b 40       		.uleb128 .LEHE8-.LEHB8
 549 001c B305     		.uleb128 .L30-.LFB1148
 550 001e 01       		.uleb128 0x1
 551 001f E002     		.uleb128 .LEHB9-.LFB1148
 552 0021 05       		.uleb128 .LEHE9-.LEHB9
 553 0022 00       		.uleb128 0
 554 0023 00       		.uleb128 0
 555 0024 8A03     		.uleb128 .LEHB10-.LFB1148
 556 0026 3A       		.uleb128 .LEHE10-.LEHB10
 557 0027 CE03     		.uleb128 .L25-.LFB1148
 558 0029 00       		.uleb128 0
 559 002a C403     		.uleb128 .LEHB11-.LFB1148
 560 002c 05       		.uleb128 .LEHE11-.LEHB11
 561 002d 00       		.uleb128 0
 562 002e 00       		.uleb128 0
 563 002f E003     		.uleb128 .LEHB12-.LFB1148
 564 0031 05       		.uleb128 .LEHE12-.LEHB12
 565 0032 00       		.uleb128 0
 566 0033 00       		.uleb128 0
 567 0034 F103     		.uleb128 .LEHB13-.LFB1148
 568 0036 3A       		.uleb128 .LEHE13-.LEHB13
 569 0037 B504     		.uleb128 .L27-.LFB1148
 570 0039 00       		.uleb128 0
 571 003a AB04     		.uleb128 .LEHB14-.LFB1148
 572 003c 05       		.uleb128 .LEHE14-.LEHB14
 573 003d 00       		.uleb128 0
 574 003e 00       		.uleb128 0
 575 003f C704     		.uleb128 .LEHB15-.LFB1148
 576 0041 05       		.uleb128 .LEHE15-.LEHB15
 577 0042 00       		.uleb128 0
 578 0043 00       		.uleb128 0
 579 0044 D804     		.uleb128 .LEHB16-.LFB1148
 580 0046 3A       		.uleb128 .LEHE16-.LEHB16
 581 0047 9C05     		.uleb128 .L29-.LFB1148
 582 0049 00       		.uleb128 0
 583 004a 9205     		.uleb128 .LEHB17-.LFB1148
 584 004c 05       		.uleb128 .LEHE17-.LEHB17
 585 004d 00       		.uleb128 0
 586 004e 00       		.uleb128 0
 587 004f AE05     		.uleb128 .LEHB18-.LFB1148
 588 0051 05       		.uleb128 .LEHE18-.LEHB18
 589 0052 00       		.uleb128 0
 590 0053 00       		.uleb128 0
 591 0054 BF05     		.uleb128 .LEHB19-.LFB1148
 592 0056 3A       		.uleb128 .LEHE19-.LEHB19
 593 0057 8306     		.uleb128 .L31-.LFB1148
 594 0059 00       		.uleb128 0
 595 005a F905     		.uleb128 .LEHB20-.LFB1148
 596 005c 05       		.uleb128 .LEHE20-.LEHB20
 597 005d 00       		.uleb128 0
 598 005e 00       		.uleb128 0
 599 005f 9506     		.uleb128 .LEHB21-.LFB1148
 600 0061 05       		.uleb128 .LEHE21-.LEHB21
 601 0062 00       		.uleb128 0
 602 0063 00       		.uleb128 0
 603              	.LLSDACSE1148:
 604 0064 01       		.byte	0x1
 605 0065 00       		.byte	0
 606 0066 0000     		.align 4
 607 0068 00000000 		.long	0
 608              	
 609              	.LLSDATT1148:
 610              		.text
 612              		.section	.rodata
 613              	.LC7:
 614 011d 436F7265 		.string	"Core_testInitialiseFF"
 614      5F746573 
 614      74496E69 
 614      7469616C 
 614      69736546 
 615              		.section	.text._ZN25TestCore_testInitialiseFFC2Ev,"axG",@progbits,_ZN25TestCore_testInitialiseFFC5
 616              		.align 2
 617              		.weak	_ZN25TestCore_testInitialiseFFC2Ev
 619              	_ZN25TestCore_testInitialiseFFC2Ev:
 620              	.LFB1150:
  31:testCore.cpp  **** 
  32:testCore.cpp  **** TEST(Core_testInitialiseFF) {
 621              		.loc 3 32 1
 622              		.cfi_startproc
 623 0000 F30F1EFA 		endbr64
 624 0004 55       		pushq	%rbp
 625              		.cfi_def_cfa_offset 16
 626              		.cfi_offset 6, -16
 627 0005 4889E5   		movq	%rsp, %rbp
 628              		.cfi_def_cfa_register 6
 629 0008 53       		pushq	%rbx
 630 0009 4883EC18 		subq	$24, %rsp
 631              		.cfi_offset 3, -24
 632 000d 48897DE8 		movq	%rdi, -24(%rbp)
 633              	.LBB5:
 634              		.loc 3 32 1
 635 0011 488B5DE8 		movq	-24(%rbp), %rbx
 636 0015 E8000000 		call	_ZN13UnitTestSuite12GetSuiteNameEv
 636      00
 637 001a 4889C2   		movq	%rax, %rdx
 638 001d 41B82000 		movl	$32, %r8d
 638      0000
 639 0023 488D0500 		leaq	.LC1(%rip), %rax
 639      000000
 640 002a 4889C1   		movq	%rax, %rcx
 641 002d 488D0500 		leaq	.LC7(%rip), %rax
 641      000000
 642 0034 4889C6   		movq	%rax, %rsi
 643 0037 4889DF   		movq	%rbx, %rdi
 644 003a E8000000 		call	_ZN8UnitTest4TestC2EPKcS2_S2_i@PLT
 644      00
 645 003f 488D1500 		leaq	16+_ZTV25TestCore_testInitialiseFF(%rip), %rdx
 645      000000
 646 0046 488B45E8 		movq	-24(%rbp), %rax
 647 004a 488910   		movq	%rdx, (%rax)
 648              	.LBE5:
 649 004d 90       		nop
 650 004e 488B5DF8 		movq	-8(%rbp), %rbx
 651 0052 C9       		leave
 652              		.cfi_def_cfa 7, 8
 653 0053 C3       		ret
 654              		.cfi_endproc
 655              	.LFE1150:
 657              		.weak	_ZN25TestCore_testInitialiseFFC1Ev
 658              		.set	_ZN25TestCore_testInitialiseFFC1Ev,_ZN25TestCore_testInitialiseFFC2Ev
 659              		.globl	testCore_testInitialiseFFInstance
 660              		.bss
 661 0039 00000000 		.align 32
 661      000000
 664              	testCore_testInitialiseFFInstance:
 665 0040 00000000 		.zero	56
 665      00000000 
 665      00000000 
 665      00000000 
 665      00000000 
 666              		.globl	adderCore_testInitialiseFF
 669              	adderCore_testInitialiseFF:
 670 0078 00       		.zero	1
 671              		.text
 672 0325 90       		.align 2
 673              		.globl	_ZNK25TestCore_testInitialiseFF7RunImplEv
 675              	_ZNK25TestCore_testInitialiseFF7RunImplEv:
 676              	.LFB1152:
 677              		.loc 3 32 29
 678              		.cfi_startproc
 679              		.cfi_personality 0x9b,DW.ref.__gxx_personality_v0
 680              		.cfi_lsda 0x1b,.LLSDA1152
 681 0326 F30F1EFA 		endbr64
 682 032a 55       		pushq	%rbp
 683              		.cfi_def_cfa_offset 16
 684              		.cfi_offset 6, -16
 685 032b 4889E5   		movq	%rsp, %rbp
 686              		.cfi_def_cfa_register 6
 687 032e 53       		pushq	%rbx
 688 032f 4883EC78 		subq	$120, %rsp
 689              		.cfi_offset 3, -24
 690 0333 48897D88 		movq	%rdi, -120(%rbp)
 691              		.loc 3 32 29
 692 0337 64488B04 		movq	%fs:40, %rax
 692      25280000 
 692      00
 693 0340 488945E8 		movq	%rax, -24(%rbp)
 694 0344 31C0     		xorl	%eax, %eax
  33:testCore.cpp  **** 	Buffer buf;
  34:testCore.cpp  **** 	BufferStatus status = bufInitialise(&buf, 8, 0xFF, NULL);
 695              		.loc 3 34 37
 696 0346 488D45A0 		leaq	-96(%rbp), %rax
 697 034a B9000000 		movl	$0, %ecx
 697      00
 698 034f BAFF0000 		movl	$255, %edx
 698      00
 699 0354 BE080000 		movl	$8, %esi
 699      00
 700 0359 4889C7   		movq	%rax, %rdi
 701              	.LEHB22:
 702 035c E8000000 		call	bufInitialise@PLT
 702      00
 703              	.LEHE22:
 704              		.loc 3 34 57
 705 0361 894594   		movl	%eax, -108(%rbp)
 706              	.LEHB23:
  35:testCore.cpp  **** 	CHECK_EQUAL(BUF_SUCCESS, status);
 707              		.loc 3 35 2
 708 0364 E8000000 		call	_ZN8UnitTest11CurrentTest7DetailsEv@PLT
 708      00
 709 0369 488B08   		movq	(%rax), %rcx
 710 036c 488D45C0 		leaq	-64(%rbp), %rax
 711 0370 BA230000 		movl	$35, %edx
 711      00
 712 0375 4889CE   		movq	%rcx, %rsi
 713 0378 4889C7   		movq	%rax, %rdi
 714 037b E8000000 		call	_ZN8UnitTest11TestDetailsC1ERKS0_i@PLT
 714      00
 715              		.loc 3 35 2 is_stmt 0 discriminator 4
 716 0380 C7459800 		movl	$0, -104(%rbp)
 716      000000
 717 0387 E8000000 		call	_ZN8UnitTest11CurrentTest7ResultsEv@PLT
 717      00
 718 038c 488B00   		movq	(%rax), %rax
 719 038f 488D4DC0 		leaq	-64(%rbp), %rcx
 720 0393 488D5594 		leaq	-108(%rbp), %rdx
 721 0397 488D7598 		leaq	-104(%rbp), %rsi
 722 039b 4889C7   		movq	%rax, %rdi
 723 039e E8000000 		call	_ZN8UnitTest10CheckEqualI12BufferStatusS1_EEvRNS_11TestResultsERKT_RKT0_RKNS_11TestDetailsE
 723      00
 724              	.LEHE23:
 725              	.L36:
 726              	.LEHB24:
  36:testCore.cpp  **** 	CHECK_EQUAL(0UL, buf.length);
 727              		.loc 3 36 2 is_stmt 1
 728 03a3 E8000000 		call	_ZN8UnitTest11CurrentTest7DetailsEv@PLT
 728      00
 729 03a8 488B08   		movq	(%rax), %rcx
 730 03ab 488D45C0 		leaq	-64(%rbp), %rax
 731 03af BA240000 		movl	$36, %edx
 731      00
 732 03b4 4889CE   		movq	%rcx, %rsi
 733 03b7 4889C7   		movq	%rax, %rdi
 734 03ba E8000000 		call	_ZN8UnitTest11TestDetailsC1ERKS0_i@PLT
 734      00
 735              		.loc 3 36 2 is_stmt 0 discriminator 4
 736 03bf 48C74598 		movq	$0, -104(%rbp)
 736      00000000 
 737 03c7 E8000000 		call	_ZN8UnitTest11CurrentTest7ResultsEv@PLT
 737      00
 738 03cc 488B00   		movq	(%rax), %rax
 739 03cf 488D55C0 		leaq	-64(%rbp), %rdx
 740 03d3 488D4DA0 		leaq	-96(%rbp), %rcx
 741 03d7 488D7908 		leaq	8(%rcx), %rdi
 742 03db 488D7598 		leaq	-104(%rbp), %rsi
 743 03df 4889D1   		movq	%rdx, %rcx
 744 03e2 4889FA   		movq	%rdi, %rdx
 745 03e5 4889C7   		movq	%rax, %rdi
 746 03e8 E8000000 		call	_ZN8UnitTest10CheckEqualImmEEvRNS_11TestResultsERKT_RKT0_RKNS_11TestDetailsE
 746      00
 747              	.LEHE24:
 748              	.L39:
 749              	.LEHB25:
  37:testCore.cpp  **** 	CHECK_EQUAL(8UL, buf.capacity);
 750              		.loc 3 37 2 is_stmt 1
 751 03ed E8000000 		call	_ZN8UnitTest11CurrentTest7DetailsEv@PLT
 751      00
 752 03f2 488B08   		movq	(%rax), %rcx
 753 03f5 488D45C0 		leaq	-64(%rbp), %rax
 754 03f9 BA250000 		movl	$37, %edx
 754      00
 755 03fe 4889CE   		movq	%rcx, %rsi
 756 0401 4889C7   		movq	%rax, %rdi
 757 0404 E8000000 		call	_ZN8UnitTest11TestDetailsC1ERKS0_i@PLT
 757      00
 758              		.loc 3 37 2 is_stmt 0 discriminator 4
 759 0409 48C74598 		movq	$8, -104(%rbp)
 759      08000000 
 760 0411 E8000000 		call	_ZN8UnitTest11CurrentTest7ResultsEv@PLT
 760      00
 761 0416 488B00   		movq	(%rax), %rax
 762 0419 488D55C0 		leaq	-64(%rbp), %rdx
 763 041d 488D4DA0 		leaq	-96(%rbp), %rcx
 764 0421 488D7910 		leaq	16(%rcx), %rdi
 765 0425 488D7598 		leaq	-104(%rbp), %rsi
 766 0429 4889D1   		movq	%rdx, %rcx
 767 042c 4889FA   		movq	%rdi, %rdx
 768 042f 4889C7   		movq	%rax, %rdi
 769 0432 E8000000 		call	_ZN8UnitTest10CheckEqualImmEEvRNS_11TestResultsERKT_RKT0_RKNS_11TestDetailsE
 769      00
 770              	.LEHE25:
 771              	.L42:
  38:testCore.cpp  **** 
  39:testCore.cpp  **** 	const unsigned char expected[] = {0xFF, 0xFF, 0xFF, 0xFF, 0xFF, 0xFF, 0xFF, 0xFF};
 772              		.loc 3 39 22 is_stmt 1
 773 0437 48C745E0 		movq	$-1, -32(%rbp)
 773      FFFFFFFF 
 774              	.LEHB26:
  40:testCore.cpp  **** 	CHECK_ARRAY_EQUAL(expected, buf.data, 8);
 775              		.loc 3 40 2
 776 043f E8000000 		call	_ZN8UnitTest11CurrentTest7DetailsEv@PLT
 776      00
 777 0444 488B08   		movq	(%rax), %rcx
 778 0447 488D45C0 		leaq	-64(%rbp), %rax
 779 044b BA280000 		movl	$40, %edx
 779      00
 780 0450 4889CE   		movq	%rcx, %rsi
 781 0453 4889C7   		movq	%rax, %rdi
 782 0456 E8000000 		call	_ZN8UnitTest11TestDetailsC1ERKS0_i@PLT
 782      00
 783              		.loc 3 40 2 is_stmt 0 discriminator 4
 784 045b E8000000 		call	_ZN8UnitTest11CurrentTest7ResultsEv@PLT
 784      00
 785 0460 488B00   		movq	(%rax), %rax
 786 0463 488D4DC0 		leaq	-64(%rbp), %rcx
 787 0467 488D55A0 		leaq	-96(%rbp), %rdx
 788 046b 488D75E0 		leaq	-32(%rbp), %rsi
 789 046f 4989C8   		movq	%rcx, %r8
 790 0472 B9080000 		movl	$8, %ecx
 790      00
 791 0477 4889C7   		movq	%rax, %rdi
 792 047a E8000000 		call	_ZN8UnitTest15CheckArrayEqualIA8_hPhEEvRNS_11TestResultsERKT_RKT0_iRKNS_11TestDetailsE
 792      00
 793              	.LEHE26:
 794              	.L45:
  41:testCore.cpp  **** 	bufDestroy(&buf);
 795              		.loc 3 41 12 is_stmt 1
 796 047f 488D45A0 		leaq	-96(%rbp), %rax
 797 0483 4889C7   		movq	%rax, %rdi
 798              	.LEHB27:
 799 0486 E8000000 		call	bufDestroy@PLT
 799      00
 800              	.LEHE27:
  42:testCore.cpp  **** }
 801              		.loc 3 42 1
 802 048b 90       		nop
 803 048c 488B45E8 		movq	-24(%rbp), %rax
 804 0490 64482B04 		subq	%fs:40, %rax
 804      25280000 
 804      00
 805 0499 0F84A601 		je	.L47
 805      0000
 806 049f E99C0100 		jmp	.L56
 806      00
 807              	.L48:
 808 04a4 F30F1EFA 		endbr64
  35:testCore.cpp  **** 	CHECK_EQUAL(0UL, buf.length);
 809              		.loc 3 35 2
 810 04a8 4889C7   		movq	%rax, %rdi
 811 04ab E8000000 		call	__cxa_begin_catch@PLT
 811      00
 812              	.LEHB28:
 813 04b0 E8000000 		call	_ZN8UnitTest11CurrentTest7ResultsEv@PLT
 813      00
  35:testCore.cpp  **** 	CHECK_EQUAL(0UL, buf.length);
 814              		.loc 3 35 2 is_stmt 0 discriminator 3
 815 04b5 488B18   		movq	(%rax), %rbx
 816 04b8 E8000000 		call	_ZN8UnitTest11CurrentTest7DetailsEv@PLT
 816      00
  35:testCore.cpp  **** 	CHECK_EQUAL(0UL, buf.length);
 817              		.loc 3 35 2 discriminator 11
 818 04bd 488B08   		movq	(%rax), %rcx
 819 04c0 488D45C0 		leaq	-64(%rbp), %rax
 820 04c4 BA230000 		movl	$35, %edx
 820      00
 821 04c9 4889CE   		movq	%rcx, %rsi
 822 04cc 4889C7   		movq	%rax, %rdi
 823 04cf E8000000 		call	_ZN8UnitTest11TestDetailsC1ERKS0_i@PLT
 823      00
  35:testCore.cpp  **** 	CHECK_EQUAL(0UL, buf.length);
 824              		.loc 3 35 2 discriminator 15
 825 04d4 488D45C0 		leaq	-64(%rbp), %rax
 826 04d8 488D1500 		leaq	.LC3(%rip), %rdx
 826      000000
 827 04df 4889C6   		movq	%rax, %rsi
 828 04e2 4889DF   		movq	%rbx, %rdi
 829 04e5 E8000000 		call	_ZN8UnitTest11TestResults13OnTestFailureERKNS_11TestDetailsEPKc@PLT
 829      00
 830              	.LEHE28:
 831              	.LEHB29:
  35:testCore.cpp  **** 	CHECK_EQUAL(0UL, buf.length);
 832              		.loc 3 35 2 discriminator 17
 833 04ea E8000000 		call	__cxa_end_catch@PLT
 833      00
 834              	.LEHE29:
 835 04ef E9AFFEFF 		jmp	.L36
 835      FF
 836              	.L49:
 837 04f4 F30F1EFA 		endbr64
  35:testCore.cpp  **** 	CHECK_EQUAL(0UL, buf.length);
 838              		.loc 3 35 2
 839 04f8 4889C3   		movq	%rax, %rbx
 840 04fb E8000000 		call	__cxa_end_catch@PLT
 840      00
 841 0500 4889D8   		movq	%rbx, %rax
 842 0503 4889C7   		movq	%rax, %rdi
 843              	.LEHB30:
 844 0506 E8000000 		call	_Unwind_Resume@PLT
 844      00
 845              	.LEHE30:
 846              	.L50:
 847 050b F30F1EFA 		endbr64
  36:testCore.cpp  **** 	CHECK_EQUAL(8UL, buf.capacity);
 848              		.loc 3 36 2 is_stmt 1
 849 050f 4889C7   		movq	%rax, %rdi
 850 0512 E8000000 		call	__cxa_begin_catch@PLT
 850      00
 851              	.LEHB31:
 852 0517 E8000000 		call	_ZN8UnitTest11CurrentTest7ResultsEv@PLT
 852      00
  36:testCore.cpp  **** 	CHECK_EQUAL(8UL, buf.capacity);
 853              		.loc 3 36 2 is_stmt 0 discriminator 3
 854 051c 488B18   		movq	(%rax), %rbx
 855 051f E8000000 		call	_ZN8UnitTest11CurrentTest7DetailsEv@PLT
 855      00
  36:testCore.cpp  **** 	CHECK_EQUAL(8UL, buf.capacity);
 856              		.loc 3 36 2 discriminator 11
 857 0524 488B08   		movq	(%rax), %rcx
 858 0527 488D45C0 		leaq	-64(%rbp), %rax
 859 052b BA240000 		movl	$36, %edx
 859      00
 860 0530 4889CE   		movq	%rcx, %rsi
 861 0533 4889C7   		movq	%rax, %rdi
 862 0536 E8000000 		call	_ZN8UnitTest11TestDetailsC1ERKS0_i@PLT
 862      00
  36:testCore.cpp  **** 	CHECK_EQUAL(8UL, buf.capacity);
 863              		.loc 3 36 2 discriminator 15
 864 053b 488D45C0 		leaq	-64(%rbp), %rax
 865 053f 488D1500 		leaq	.LC4(%rip), %rdx
 865      000000
 866 0546 4889C6   		movq	%rax, %rsi
 867 0549 4889DF   		movq	%rbx, %rdi
 868 054c E8000000 		call	_ZN8UnitTest11TestResults13OnTestFailureERKNS_11TestDetailsEPKc@PLT
 868      00
 869              	.LEHE31:
 870              	.LEHB32:
  36:testCore.cpp  **** 	CHECK_EQUAL(8UL, buf.capacity);
 871              		.loc 3 36 2 discriminator 17
 872 0551 E8000000 		call	__cxa_end_catch@PLT
 872      00
 873              	.LEHE32:
 874 0556 E992FEFF 		jmp	.L39
 874      FF
 875              	.L51:
 876 055b F30F1EFA 		endbr64
  36:testCore.cpp  **** 	CHECK_EQUAL(8UL, buf.capacity);
 877              		.loc 3 36 2
 878 055f 4889C3   		movq	%rax, %rbx
 879 0562 E8000000 		call	__cxa_end_catch@PLT
 879      00
 880 0567 4889D8   		movq	%rbx, %rax
 881 056a 4889C7   		movq	%rax, %rdi
 882              	.LEHB33:
 883 056d E8000000 		call	_Unwind_Resume@PLT
 883      00
 884              	.LEHE33:
 885              	.L52:
 886 0572 F30F1EFA 		endbr64
  37:testCore.cpp  **** 
 887              		.loc 3 37 2 is_stmt 1
 888 0576 4889C7   		movq	%rax, %rdi
 889 0579 E8000000 		call	__cxa_begin_catch@PLT
 889      00
 890              	.LEHB34:
 891 057e E8000000 		call	_ZN8UnitTest11CurrentTest7ResultsEv@PLT
 891      00
  37:testCore.cpp  **** 
 892              		.loc 3 37 2 is_stmt 0 discriminator 3
 893 0583 488B18   		movq	(%rax), %rbx
 894 0586 E8000000 		call	_ZN8UnitTest11CurrentTest7DetailsEv@PLT
 894      00
  37:testCore.cpp  **** 
 895              		.loc 3 37 2 discriminator 11
 896 058b 488B08   		movq	(%rax), %rcx
 897 058e 488D45C0 		leaq	-64(%rbp), %rax
 898 0592 BA250000 		movl	$37, %edx
 898      00
 899 0597 4889CE   		movq	%rcx, %rsi
 900 059a 4889C7   		movq	%rax, %rdi
 901 059d E8000000 		call	_ZN8UnitTest11TestDetailsC1ERKS0_i@PLT
 901      00
  37:testCore.cpp  **** 
 902              		.loc 3 37 2 discriminator 15
 903 05a2 488D45C0 		leaq	-64(%rbp), %rax
 904 05a6 488D1500 		leaq	.LC5(%rip), %rdx
 904      000000
 905 05ad 4889C6   		movq	%rax, %rsi
 906 05b0 4889DF   		movq	%rbx, %rdi
 907 05b3 E8000000 		call	_ZN8UnitTest11TestResults13OnTestFailureERKNS_11TestDetailsEPKc@PLT
 907      00
 908              	.LEHE34:
 909              	.LEHB35:
  37:testCore.cpp  **** 
 910              		.loc 3 37 2 discriminator 17
 911 05b8 E8000000 		call	__cxa_end_catch@PLT
 911      00
 912              	.LEHE35:
 913 05bd E975FEFF 		jmp	.L42
 913      FF
 914              	.L53:
 915 05c2 F30F1EFA 		endbr64
  37:testCore.cpp  **** 
 916              		.loc 3 37 2
 917 05c6 4889C3   		movq	%rax, %rbx
 918 05c9 E8000000 		call	__cxa_end_catch@PLT
 918      00
 919 05ce 4889D8   		movq	%rbx, %rax
 920 05d1 4889C7   		movq	%rax, %rdi
 921              	.LEHB36:
 922 05d4 E8000000 		call	_Unwind_Resume@PLT
 922      00
 923              	.LEHE36:
 924              	.L54:
 925 05d9 F30F1EFA 		endbr64
  40:testCore.cpp  **** 	bufDestroy(&buf);
 926              		.loc 3 40 2 is_stmt 1
 927 05dd 4889C7   		movq	%rax, %rdi
 928 05e0 E8000000 		call	__cxa_begin_catch@PLT
 928      00
 929              	.LEHB37:
 930 05e5 E8000000 		call	_ZN8UnitTest11CurrentTest7ResultsEv@PLT
 930      00
  40:testCore.cpp  **** 	bufDestroy(&buf);
 931              		.loc 3 40 2 is_stmt 0 discriminator 3
 932 05ea 488B18   		movq	(%rax), %rbx
 933 05ed E8000000 		call	_ZN8UnitTest11CurrentTest7DetailsEv@PLT
 933      00
  40:testCore.cpp  **** 	bufDestroy(&buf);
 934              		.loc 3 40 2 discriminator 11
 935 05f2 488B08   		movq	(%rax), %rcx
 936 05f5 488D45C0 		leaq	-64(%rbp), %rax
 937 05f9 BA280000 		movl	$40, %edx
 937      00
 938 05fe 4889CE   		movq	%rcx, %rsi
 939 0601 4889C7   		movq	%rax, %rdi
 940 0604 E8000000 		call	_ZN8UnitTest11TestDetailsC1ERKS0_i@PLT
 940      00
  40:testCore.cpp  **** 	bufDestroy(&buf);
 941              		.loc 3 40 2 discriminator 15
 942 0609 488D45C0 		leaq	-64(%rbp), %rax
 943 060d 488D1500 		leaq	.LC6(%rip), %rdx
 943      000000
 944 0614 4889C6   		movq	%rax, %rsi
 945 0617 4889DF   		movq	%rbx, %rdi
 946 061a E8000000 		call	_ZN8UnitTest11TestResults13OnTestFailureERKNS_11TestDetailsEPKc@PLT
 946      00
 947              	.LEHE37:
 948              	.LEHB38:
  40:testCore.cpp  **** 	bufDestroy(&buf);
 949              		.loc 3 40 2 discriminator 17
 950 061f E8000000 		call	__cxa_end_catch@PLT
 950      00
 951              	.LEHE38:
 952 0624 E956FEFF 		jmp	.L45
 952      FF
 953              	.L55:
 954 0629 F30F1EFA 		endbr64
  40:testCore.cpp  **** 	bufDestroy(&buf);
 955              		.loc 3 40 2
 956 062d 4889C3   		movq	%rax, %rbx
 957 0630 E8000000 		call	__cxa_end_catch@PLT
 957      00
 958 0635 4889D8   		movq	%rbx, %rax
 959 0638 4889C7   		movq	%rax, %rdi
 960              	.LEHB39:
 961 063b E8000000 		call	_Unwind_Resume@PLT
 961      00
 962              	.LEHE39:
 963              	.L56:
 964              		.loc 3 42 1 is_stmt 1
 965 0640 E8000000 		call	__stack_chk_fail@PLT
 965      00
 966              	.L47:
 967 0645 488B5DF8 		movq	-8(%rbp), %rbx
 968 0649 C9       		leave
 969              		.cfi_def_cfa 7, 8
 970 064a C3       		ret
 971              		.cfi_endproc
 972              	.LFE1152:
 973              		.section	.gcc_except_table
 974              		.align 4
 975              	.LLSDA1152:
 976 006c FF       		.byte	0xff
 977 006d 9B       		.byte	0x9b
 978 006e 69       		.uleb128 .LLSDATT1152-.LLSDATTD1152
 979              	.LLSDATTD1152:
 980 006f 01       		.byte	0x1
 981 0070 5F       		.uleb128 .LLSDACSE1152-.LLSDACSB1152
 982              	.LLSDACSB1152:
 983 0071 36       		.uleb128 .LEHB22-.LFB1152
 984 0072 05       		.uleb128 .LEHE22-.LEHB22
 985 0073 00       		.uleb128 0
 986 0074 00       		.uleb128 0
 987 0075 3E       		.uleb128 .LEHB23-.LFB1152
 988 0076 3F       		.uleb128 .LEHE23-.LEHB23
 989 0077 FE02     		.uleb128 .L48-.LFB1152
 990 0079 01       		.uleb128 0x1
 991 007a 7D       		.uleb128 .LEHB24-.LFB1152
 992 007b 4A       		.uleb128 .LEHE24-.LEHB24
 993 007c E503     		.uleb128 .L50-.LFB1152
 994 007e 01       		.uleb128 0x1
 995 007f C701     		.uleb128 .LEHB25-.LFB1152
 996 0081 4A       		.uleb128 .LEHE25-.LEHB25
 997 0082 CC04     		.uleb128 .L52-.LFB1152
 998 0084 01       		.uleb128 0x1
 999 0085 9902     		.uleb128 .LEHB26-.LFB1152
 1000 0087 40       		.uleb128 .LEHE26-.LEHB26
 1001 0088 B305     		.uleb128 .L54-.LFB1152
 1002 008a 01       		.uleb128 0x1
 1003 008b E002     		.uleb128 .LEHB27-.LFB1152
 1004 008d 05       		.uleb128 .LEHE27-.LEHB27
 1005 008e 00       		.uleb128 0
 1006 008f 00       		.uleb128 0
 1007 0090 8A03     		.uleb128 .LEHB28-.LFB1152
 1008 0092 3A       		.uleb128 .LEHE28-.LEHB28
 1009 0093 CE03     		.uleb128 .L49-.LFB1152
 1010 0095 00       		.uleb128 0
 1011 0096 C403     		.uleb128 .LEHB29-.LFB1152
 1012 0098 05       		.uleb128 .LEHE29-.LEHB29
 1013 0099 00       		.uleb128 0
 1014 009a 00       		.uleb128 0
 1015 009b E003     		.uleb128 .LEHB30-.LFB1152
 1016 009d 05       		.uleb128 .LEHE30-.LEHB30
 1017 009e 00       		.uleb128 0
 1018 009f 00       		.uleb128 0
 1019 00a0 F103     		.uleb128 .LEHB31-.LFB1152
 1020 00a2 3A       		.uleb128 .LEHE31-.LEHB31
 1021 00a3 B504     		.uleb128 .L51-.LFB1152
 1022 00a5 00       		.uleb128 0
 1023 00a6 AB04     		.uleb128 .LEHB32-.LFB1152
 1024 00a8 05       		.uleb128 .LEHE32-.LEHB32
 1025 00a9 00       		.uleb128 0
 1026 00aa 00       		.uleb128 0
 1027 00ab C704     		.uleb128 .LEHB33-.LFB1152
 1028 00ad 05       		.uleb128 .LEHE33-.LEHB33
 1029 00ae 00       		.uleb128 0
 1030 00af 00       		.uleb128 0
 1031 00b0 D804     		.uleb128 .LEHB34-.LFB1152
 1032 00b2 3A       		.uleb128 .LEHE34-.LEHB34
 1033 00b3 9C05     		.uleb128 .L53-.LFB1152
 1034 00b5 00       		.uleb128 0
 1035 00b6 9205     		.uleb128 .LEHB35-.LFB1152
 1036 00b8 05       		.uleb128 .LEHE35-.LEHB35
 1037 00b9 00       		.uleb128 0
 1038 00ba 00       		.uleb128 0
 1039 00bb AE05     		.uleb128 .LEHB36-.LFB1152
 1040 00bd 05       		.uleb128 .LEHE36-.LEHB36
 1041 00be 00       		.uleb128 0
 1042 00bf 00       		.uleb128 0
 1043 00c0 BF05     		.uleb128 .LEHB37-.LFB1152
 1044 00c2 3A       		.uleb128 .LEHE37-.LEHB37
 1045 00c3 8306     		.uleb128 .L55-.LFB1152
 1046 00c5 00       		.uleb128 0
 1047 00c6 F905     		.uleb128 .LEHB38-.LFB1152
 1048 00c8 05       		.uleb128 .LEHE38-.LEHB38
 1049 00c9 00       		.uleb128 0
 1050 00ca 00       		.uleb128 0
 1051 00cb 9506     		.uleb128 .LEHB39-.LFB1152
 1052 00cd 05       		.uleb128 .LEHE39-.LEHB39
 1053 00ce 00       		.uleb128 0
 1054 00cf 00       		.uleb128 0
 1055              	.LLSDACSE1152:
 1056 00d0 01       		.byte	0x1
 1057 00d1 00       		.byte	0
 1058 00d2 0000     		.align 4
 1059 00d4 00000000 		.long	0
 1060              	
 1061              	.LLSDATT1152:
 1062              		.text
 1064              		.section	.rodata
 1065              	.LC8:
 1066 0133 436F7265 		.string	"Core_testSmallAppendBlock"
 1066      5F746573 
 1066      74536D61 
 1066      6C6C4170 
 1066      70656E64 
 1067              		.section	.text._ZN29TestCore_testSmallAppendBlockC2Ev,"axG",@progbits,_ZN29TestCore_testSmallAppen
 1068              		.align 2
 1069              		.weak	_ZN29TestCore_testSmallAppendBlockC2Ev
 1071              	_ZN29TestCore_testSmallAppendBlockC2Ev:
 1072              	.LFB1154:
  43:testCore.cpp  **** 
  44:testCore.cpp  **** TEST(Core_testSmallAppendBlock) {
 1073              		.loc 3 44 1
 1074              		.cfi_startproc
 1075 0000 F30F1EFA 		endbr64
 1076 0004 55       		pushq	%rbp
 1077              		.cfi_def_cfa_offset 16
 1078              		.cfi_offset 6, -16
 1079 0005 4889E5   		movq	%rsp, %rbp
 1080              		.cfi_def_cfa_register 6
 1081 0008 53       		pushq	%rbx
 1082 0009 4883EC18 		subq	$24, %rsp
 1083              		.cfi_offset 3, -24
 1084 000d 48897DE8 		movq	%rdi, -24(%rbp)
 1085              	.LBB6:
 1086              		.loc 3 44 1
 1087 0011 488B5DE8 		movq	-24(%rbp), %rbx
 1088 0015 E8000000 		call	_ZN13UnitTestSuite12GetSuiteNameEv
 1088      00
 1089 001a 4889C2   		movq	%rax, %rdx
 1090 001d 41B82C00 		movl	$44, %r8d
 1090      0000
 1091 0023 488D0500 		leaq	.LC1(%rip), %rax
 1091      000000
 1092 002a 4889C1   		movq	%rax, %rcx
 1093 002d 488D0500 		leaq	.LC8(%rip), %rax
 1093      000000
 1094 0034 4889C6   		movq	%rax, %rsi
 1095 0037 4889DF   		movq	%rbx, %rdi
 1096 003a E8000000 		call	_ZN8UnitTest4TestC2EPKcS2_S2_i@PLT
 1096      00
 1097 003f 488D1500 		leaq	16+_ZTV29TestCore_testSmallAppendBlock(%rip), %rdx
 1097      000000
 1098 0046 488B45E8 		movq	-24(%rbp), %rax
 1099 004a 488910   		movq	%rdx, (%rax)
 1100              	.LBE6:
 1101 004d 90       		nop
 1102 004e 488B5DF8 		movq	-8(%rbp), %rbx
 1103 0052 C9       		leave
 1104              		.cfi_def_cfa 7, 8
 1105 0053 C3       		ret
 1106              		.cfi_endproc
 1107              	.LFE1154:
 1109              		.weak	_ZN29TestCore_testSmallAppendBlockC1Ev
 1110              		.set	_ZN29TestCore_testSmallAppendBlockC1Ev,_ZN29TestCore_testSmallAppendBlockC2Ev
 1111              		.globl	testCore_testSmallAppendBlockInstance
 1112              		.bss
 1113 0079 00000000 		.align 32
 1113      000000
 1116              	testCore_testSmallAppendBlockInstance:
 1117 0080 00000000 		.zero	56
 1117      00000000 
 1117      00000000 
 1117      00000000 
 1117      00000000 
 1118              		.globl	adderCore_testSmallAppendBlock
 1121              	adderCore_testSmallAppendBlock:
 1122 00b8 00       		.zero	1
 1123              		.section	.rodata
 1124 014d 000000   		.align 8
 1125              	.LC9:
 1126 0150 556E6861 		.string	"Unhandled exception in CHECK_EQUAL(4UL, buf.length)"
 1126      6E646C65 
 1126      64206578 
 1126      63657074 
 1126      696F6E20 
 1127              		.text
 1128 064b 90       		.align 2
 1129              		.globl	_ZNK29TestCore_testSmallAppendBlock7RunImplEv
 1131              	_ZNK29TestCore_testSmallAppendBlock7RunImplEv:
 1132              	.LFB1156:
 1133              		.loc 3 44 33
 1134              		.cfi_startproc
 1135              		.cfi_personality 0x9b,DW.ref.__gxx_personality_v0
 1136              		.cfi_lsda 0x1b,.LLSDA1156
 1137 064c F30F1EFA 		endbr64
 1138 0650 55       		pushq	%rbp
 1139              		.cfi_def_cfa_offset 16
 1140              		.cfi_offset 6, -16
 1141 0651 4889E5   		movq	%rsp, %rbp
 1142              		.cfi_def_cfa_register 6
 1143 0654 53       		pushq	%rbx
 1144 0655 4883EC78 		subq	$120, %rsp
 1145              		.cfi_offset 3, -24
 1146 0659 48897D88 		movq	%rdi, -120(%rbp)
 1147              		.loc 3 44 33
 1148 065d 64488B04 		movq	%fs:40, %rax
 1148      25280000 
 1148      00
 1149 0666 488945E8 		movq	%rax, -24(%rbp)
 1150 066a 31C0     		xorl	%eax, %eax
  45:testCore.cpp  **** 	Buffer buf;
  46:testCore.cpp  **** 	BufferStatus status;
  47:testCore.cpp  **** 
  48:testCore.cpp  **** 	status = bufInitialise(&buf, 8, 0, NULL);
 1151              		.loc 3 48 24
 1152 066c 488D45A0 		leaq	-96(%rbp), %rax
 1153 0670 B9000000 		movl	$0, %ecx
 1153      00
 1154 0675 BA000000 		movl	$0, %edx
 1154      00
 1155 067a BE080000 		movl	$8, %esi
 1155      00
 1156 067f 4889C7   		movq	%rax, %rdi
 1157              	.LEHB40:
 1158 0682 E8000000 		call	bufInitialise@PLT
 1158      00
 1159              	.LEHE40:
 1160              		.loc 3 48 9
 1161 0687 894594   		movl	%eax, -108(%rbp)
 1162              	.LEHB41:
  49:testCore.cpp  **** 	CHECK_EQUAL(BUF_SUCCESS, status);
 1163              		.loc 3 49 2
 1164 068a E8000000 		call	_ZN8UnitTest11CurrentTest7DetailsEv@PLT
 1164      00
 1165 068f 488B08   		movq	(%rax), %rcx
 1166 0692 488D45C0 		leaq	-64(%rbp), %rax
 1167 0696 BA310000 		movl	$49, %edx
 1167      00
 1168 069b 4889CE   		movq	%rcx, %rsi
 1169 069e 4889C7   		movq	%rax, %rdi
 1170 06a1 E8000000 		call	_ZN8UnitTest11TestDetailsC1ERKS0_i@PLT
 1170      00
 1171              		.loc 3 49 2 is_stmt 0 discriminator 4
 1172 06a6 C7459800 		movl	$0, -104(%rbp)
 1172      000000
 1173 06ad E8000000 		call	_ZN8UnitTest11CurrentTest7ResultsEv@PLT
 1173      00
 1174 06b2 488B00   		movq	(%rax), %rax
 1175 06b5 488D4DC0 		leaq	-64(%rbp), %rcx
 1176 06b9 488D5594 		leaq	-108(%rbp), %rdx
 1177 06bd 488D7598 		leaq	-104(%rbp), %rsi
 1178 06c1 4889C7   		movq	%rax, %rdi
 1179 06c4 E8000000 		call	_ZN8UnitTest10CheckEqualI12BufferStatusS1_EEvRNS_11TestResultsERKT_RKT0_RKNS_11TestDetailsE
 1179      00
 1180              	.LEHE41:
 1181              	.L60:
  50:testCore.cpp  **** 
  51:testCore.cpp  **** 	const unsigned char expected[] = {1, 2, 3, 4, 0, 0, 0, 0};
 1182              		.loc 3 51 22 is_stmt 1
 1183 06c9 48C745E0 		movq	$67305985, -32(%rbp)
 1183      01020304 
  52:testCore.cpp  **** 	status = bufAppendBlock(&buf, expected, 4, NULL);
 1184              		.loc 3 52 25
 1185 06d1 488D75E0 		leaq	-32(%rbp), %rsi
 1186 06d5 488D45A0 		leaq	-96(%rbp), %rax
 1187 06d9 B9000000 		movl	$0, %ecx
 1187      00
 1188 06de BA040000 		movl	$4, %edx
 1188      00
 1189 06e3 4889C7   		movq	%rax, %rdi
 1190              	.LEHB42:
 1191 06e6 E8000000 		call	bufAppendBlock@PLT
 1191      00
 1192              	.LEHE42:
 1193              		.loc 3 52 9
 1194 06eb 894594   		movl	%eax, -108(%rbp)
 1195              	.LEHB43:
  53:testCore.cpp  **** 	CHECK_EQUAL(BUF_SUCCESS, status);
 1196              		.loc 3 53 2
 1197 06ee E8000000 		call	_ZN8UnitTest11CurrentTest7DetailsEv@PLT
 1197      00
 1198 06f3 488B08   		movq	(%rax), %rcx
 1199 06f6 488D45C0 		leaq	-64(%rbp), %rax
 1200 06fa BA350000 		movl	$53, %edx
 1200      00
 1201 06ff 4889CE   		movq	%rcx, %rsi
 1202 0702 4889C7   		movq	%rax, %rdi
 1203 0705 E8000000 		call	_ZN8UnitTest11TestDetailsC1ERKS0_i@PLT
 1203      00
 1204              		.loc 3 53 2 is_stmt 0 discriminator 4
 1205 070a C7459800 		movl	$0, -104(%rbp)
 1205      000000
 1206 0711 E8000000 		call	_ZN8UnitTest11CurrentTest7ResultsEv@PLT
 1206      00
 1207 0716 488B00   		movq	(%rax), %rax
 1208 0719 488D4DC0 		leaq	-64(%rbp), %rcx
 1209 071d 488D5594 		leaq	-108(%rbp), %rdx
 1210 0721 488D7598 		leaq	-104(%rbp), %rsi
 1211 0725 4889C7   		movq	%rax, %rdi
 1212 0728 E8000000 		call	_ZN8UnitTest10CheckEqualI12BufferStatusS1_EEvRNS_11TestResultsERKT_RKT0_RKNS_11TestDetailsE
 1212      00
 1213              	.LEHE43:
 1214              	.L63:
 1215              	.LEHB44:
  54:testCore.cpp  **** 	CHECK_EQUAL(8UL, buf.capacity);
 1216              		.loc 3 54 2 is_stmt 1
 1217 072d E8000000 		call	_ZN8UnitTest11CurrentTest7DetailsEv@PLT
 1217      00
 1218 0732 488B08   		movq	(%rax), %rcx
 1219 0735 488D45C0 		leaq	-64(%rbp), %rax
 1220 0739 BA360000 		movl	$54, %edx
 1220      00
 1221 073e 4889CE   		movq	%rcx, %rsi
 1222 0741 4889C7   		movq	%rax, %rdi
 1223 0744 E8000000 		call	_ZN8UnitTest11TestDetailsC1ERKS0_i@PLT
 1223      00
 1224              		.loc 3 54 2 is_stmt 0 discriminator 4
 1225 0749 48C74598 		movq	$8, -104(%rbp)
 1225      08000000 
 1226 0751 E8000000 		call	_ZN8UnitTest11CurrentTest7ResultsEv@PLT
 1226      00
 1227 0756 488B00   		movq	(%rax), %rax
 1228 0759 488D55C0 		leaq	-64(%rbp), %rdx
 1229 075d 488D4DA0 		leaq	-96(%rbp), %rcx
 1230 0761 488D7910 		leaq	16(%rcx), %rdi
 1231 0765 488D7598 		leaq	-104(%rbp), %rsi
 1232 0769 4889D1   		movq	%rdx, %rcx
 1233 076c 4889FA   		movq	%rdi, %rdx
 1234 076f 4889C7   		movq	%rax, %rdi
 1235 0772 E8000000 		call	_ZN8UnitTest10CheckEqualImmEEvRNS_11TestResultsERKT_RKT0_RKNS_11TestDetailsE
 1235      00
 1236              	.LEHE44:
 1237              	.L66:
 1238              	.LEHB45:
  55:testCore.cpp  **** 	CHECK_EQUAL(4UL, buf.length);
 1239              		.loc 3 55 2 is_stmt 1
 1240 0777 E8000000 		call	_ZN8UnitTest11CurrentTest7DetailsEv@PLT
 1240      00
 1241 077c 488B08   		movq	(%rax), %rcx
 1242 077f 488D45C0 		leaq	-64(%rbp), %rax
 1243 0783 BA370000 		movl	$55, %edx
 1243      00
 1244 0788 4889CE   		movq	%rcx, %rsi
 1245 078b 4889C7   		movq	%rax, %rdi
 1246 078e E8000000 		call	_ZN8UnitTest11TestDetailsC1ERKS0_i@PLT
 1246      00
 1247              		.loc 3 55 2 is_stmt 0 discriminator 4
 1248 0793 48C74598 		movq	$4, -104(%rbp)
 1248      04000000 
 1249 079b E8000000 		call	_ZN8UnitTest11CurrentTest7ResultsEv@PLT
 1249      00
 1250 07a0 488B00   		movq	(%rax), %rax
 1251 07a3 488D55C0 		leaq	-64(%rbp), %rdx
 1252 07a7 488D4DA0 		leaq	-96(%rbp), %rcx
 1253 07ab 488D7908 		leaq	8(%rcx), %rdi
 1254 07af 488D7598 		leaq	-104(%rbp), %rsi
 1255 07b3 4889D1   		movq	%rdx, %rcx
 1256 07b6 4889FA   		movq	%rdi, %rdx
 1257 07b9 4889C7   		movq	%rax, %rdi
 1258 07bc E8000000 		call	_ZN8UnitTest10CheckEqualImmEEvRNS_11TestResultsERKT_RKT0_RKNS_11TestDetailsE
 1258      00
 1259              	.LEHE45:
 1260              	.L69:
 1261              	.LEHB46:
  56:testCore.cpp  **** 	CHECK_ARRAY_EQUAL(expected, buf.data, 8);
 1262              		.loc 3 56 2 is_stmt 1
 1263 07c1 E8000000 		call	_ZN8UnitTest11CurrentTest7DetailsEv@PLT
 1263      00
 1264 07c6 488B08   		movq	(%rax), %rcx
 1265 07c9 488D45C0 		leaq	-64(%rbp), %rax
 1266 07cd BA380000 		movl	$56, %edx
 1266      00
 1267 07d2 4889CE   		movq	%rcx, %rsi
 1268 07d5 4889C7   		movq	%rax, %rdi
 1269 07d8 E8000000 		call	_ZN8UnitTest11TestDetailsC1ERKS0_i@PLT
 1269      00
 1270              		.loc 3 56 2 is_stmt 0 discriminator 4
 1271 07dd E8000000 		call	_ZN8UnitTest11CurrentTest7ResultsEv@PLT
 1271      00
 1272 07e2 488B00   		movq	(%rax), %rax
 1273 07e5 488D4DC0 		leaq	-64(%rbp), %rcx
 1274 07e9 488D55A0 		leaq	-96(%rbp), %rdx
 1275 07ed 488D75E0 		leaq	-32(%rbp), %rsi
 1276 07f1 4989C8   		movq	%rcx, %r8
 1277 07f4 B9080000 		movl	$8, %ecx
 1277      00
 1278 07f9 4889C7   		movq	%rax, %rdi
 1279 07fc E8000000 		call	_ZN8UnitTest15CheckArrayEqualIA8_hPhEEvRNS_11TestResultsERKT_RKT0_iRKNS_11TestDetailsE
 1279      00
 1280              	.LEHE46:
 1281              	.L72:
  57:testCore.cpp  **** 	bufDestroy(&buf);
 1282              		.loc 3 57 12 is_stmt 1
 1283 0801 488D45A0 		leaq	-96(%rbp), %rax
 1284 0805 4889C7   		movq	%rax, %rdi
 1285              	.LEHB47:
 1286 0808 E8000000 		call	bufDestroy@PLT
 1286      00
 1287              	.LEHE47:
  58:testCore.cpp  **** }
 1288              		.loc 3 58 1
 1289 080d 90       		nop
 1290 080e 488B45E8 		movq	-24(%rbp), %rax
 1291 0812 64482B04 		subq	%fs:40, %rax
 1291      25280000 
 1291      00
 1292 081b 0F840D02 		je	.L74
 1292      0000
 1293 0821 E9030200 		jmp	.L85
 1293      00
 1294              	.L75:
 1295 0826 F30F1EFA 		endbr64
  49:testCore.cpp  **** 
 1296              		.loc 3 49 2
 1297 082a 4889C7   		movq	%rax, %rdi
 1298 082d E8000000 		call	__cxa_begin_catch@PLT
 1298      00
 1299              	.LEHB48:
 1300 0832 E8000000 		call	_ZN8UnitTest11CurrentTest7ResultsEv@PLT
 1300      00
  49:testCore.cpp  **** 
 1301              		.loc 3 49 2 is_stmt 0 discriminator 3
 1302 0837 488B18   		movq	(%rax), %rbx
 1303 083a E8000000 		call	_ZN8UnitTest11CurrentTest7DetailsEv@PLT
 1303      00
  49:testCore.cpp  **** 
 1304              		.loc 3 49 2 discriminator 11
 1305 083f 488B08   		movq	(%rax), %rcx
 1306 0842 488D45C0 		leaq	-64(%rbp), %rax
 1307 0846 BA310000 		movl	$49, %edx
 1307      00
 1308 084b 4889CE   		movq	%rcx, %rsi
 1309 084e 4889C7   		movq	%rax, %rdi
 1310 0851 E8000000 		call	_ZN8UnitTest11TestDetailsC1ERKS0_i@PLT
 1310      00
  49:testCore.cpp  **** 
 1311              		.loc 3 49 2 discriminator 15
 1312 0856 488D45C0 		leaq	-64(%rbp), %rax
 1313 085a 488D1500 		leaq	.LC3(%rip), %rdx
 1313      000000
 1314 0861 4889C6   		movq	%rax, %rsi
 1315 0864 4889DF   		movq	%rbx, %rdi
 1316 0867 E8000000 		call	_ZN8UnitTest11TestResults13OnTestFailureERKNS_11TestDetailsEPKc@PLT
 1316      00
 1317              	.LEHE48:
 1318              	.LEHB49:
  49:testCore.cpp  **** 
 1319              		.loc 3 49 2 discriminator 17
 1320 086c E8000000 		call	__cxa_end_catch@PLT
 1320      00
 1321              	.LEHE49:
 1322 0871 E953FEFF 		jmp	.L60
 1322      FF
 1323              	.L76:
 1324 0876 F30F1EFA 		endbr64
  49:testCore.cpp  **** 
 1325              		.loc 3 49 2
 1326 087a 4889C3   		movq	%rax, %rbx
 1327 087d E8000000 		call	__cxa_end_catch@PLT
 1327      00
 1328 0882 4889D8   		movq	%rbx, %rax
 1329 0885 4889C7   		movq	%rax, %rdi
 1330              	.LEHB50:
 1331 0888 E8000000 		call	_Unwind_Resume@PLT
 1331      00
 1332              	.LEHE50:
 1333              	.L77:
 1334 088d F30F1EFA 		endbr64
  53:testCore.cpp  **** 	CHECK_EQUAL(8UL, buf.capacity);
 1335              		.loc 3 53 2 is_stmt 1
 1336 0891 4889C7   		movq	%rax, %rdi
 1337 0894 E8000000 		call	__cxa_begin_catch@PLT
 1337      00
 1338              	.LEHB51:
 1339 0899 E8000000 		call	_ZN8UnitTest11CurrentTest7ResultsEv@PLT
 1339      00
  53:testCore.cpp  **** 	CHECK_EQUAL(8UL, buf.capacity);
 1340              		.loc 3 53 2 is_stmt 0 discriminator 3
 1341 089e 488B18   		movq	(%rax), %rbx
 1342 08a1 E8000000 		call	_ZN8UnitTest11CurrentTest7DetailsEv@PLT
 1342      00
  53:testCore.cpp  **** 	CHECK_EQUAL(8UL, buf.capacity);
 1343              		.loc 3 53 2 discriminator 11
 1344 08a6 488B08   		movq	(%rax), %rcx
 1345 08a9 488D45C0 		leaq	-64(%rbp), %rax
 1346 08ad BA350000 		movl	$53, %edx
 1346      00
 1347 08b2 4889CE   		movq	%rcx, %rsi
 1348 08b5 4889C7   		movq	%rax, %rdi
 1349 08b8 E8000000 		call	_ZN8UnitTest11TestDetailsC1ERKS0_i@PLT
 1349      00
  53:testCore.cpp  **** 	CHECK_EQUAL(8UL, buf.capacity);
 1350              		.loc 3 53 2 discriminator 15
 1351 08bd 488D45C0 		leaq	-64(%rbp), %rax
 1352 08c1 488D1500 		leaq	.LC3(%rip), %rdx
 1352      000000
 1353 08c8 4889C6   		movq	%rax, %rsi
 1354 08cb 4889DF   		movq	%rbx, %rdi
 1355 08ce E8000000 		call	_ZN8UnitTest11TestResults13OnTestFailureERKNS_11TestDetailsEPKc@PLT
 1355      00
 1356              	.LEHE51:
 1357              	.LEHB52:
  53:testCore.cpp  **** 	CHECK_EQUAL(8UL, buf.capacity);
 1358              		.loc 3 53 2 discriminator 17
 1359 08d3 E8000000 		call	__cxa_end_catch@PLT
 1359      00
 1360              	.LEHE52:
 1361 08d8 E950FEFF 		jmp	.L63
 1361      FF
 1362              	.L78:
 1363 08dd F30F1EFA 		endbr64
  53:testCore.cpp  **** 	CHECK_EQUAL(8UL, buf.capacity);
 1364              		.loc 3 53 2
 1365 08e1 4889C3   		movq	%rax, %rbx
 1366 08e4 E8000000 		call	__cxa_end_catch@PLT
 1366      00
 1367 08e9 4889D8   		movq	%rbx, %rax
 1368 08ec 4889C7   		movq	%rax, %rdi
 1369              	.LEHB53:
 1370 08ef E8000000 		call	_Unwind_Resume@PLT
 1370      00
 1371              	.LEHE53:
 1372              	.L79:
 1373 08f4 F30F1EFA 		endbr64
  54:testCore.cpp  **** 	CHECK_EQUAL(4UL, buf.length);
 1374              		.loc 3 54 2 is_stmt 1
 1375 08f8 4889C7   		movq	%rax, %rdi
 1376 08fb E8000000 		call	__cxa_begin_catch@PLT
 1376      00
 1377              	.LEHB54:
 1378 0900 E8000000 		call	_ZN8UnitTest11CurrentTest7ResultsEv@PLT
 1378      00
  54:testCore.cpp  **** 	CHECK_EQUAL(4UL, buf.length);
 1379              		.loc 3 54 2 is_stmt 0 discriminator 3
 1380 0905 488B18   		movq	(%rax), %rbx
 1381 0908 E8000000 		call	_ZN8UnitTest11CurrentTest7DetailsEv@PLT
 1381      00
  54:testCore.cpp  **** 	CHECK_EQUAL(4UL, buf.length);
 1382              		.loc 3 54 2 discriminator 11
 1383 090d 488B08   		movq	(%rax), %rcx
 1384 0910 488D45C0 		leaq	-64(%rbp), %rax
 1385 0914 BA360000 		movl	$54, %edx
 1385      00
 1386 0919 4889CE   		movq	%rcx, %rsi
 1387 091c 4889C7   		movq	%rax, %rdi
 1388 091f E8000000 		call	_ZN8UnitTest11TestDetailsC1ERKS0_i@PLT
 1388      00
  54:testCore.cpp  **** 	CHECK_EQUAL(4UL, buf.length);
 1389              		.loc 3 54 2 discriminator 15
 1390 0924 488D45C0 		leaq	-64(%rbp), %rax
 1391 0928 488D1500 		leaq	.LC5(%rip), %rdx
 1391      000000
 1392 092f 4889C6   		movq	%rax, %rsi
 1393 0932 4889DF   		movq	%rbx, %rdi
 1394 0935 E8000000 		call	_ZN8UnitTest11TestResults13OnTestFailureERKNS_11TestDetailsEPKc@PLT
 1394      00
 1395              	.LEHE54:
 1396              	.LEHB55:
  54:testCore.cpp  **** 	CHECK_EQUAL(4UL, buf.length);
 1397              		.loc 3 54 2 discriminator 17
 1398 093a E8000000 		call	__cxa_end_catch@PLT
 1398      00
 1399              	.LEHE55:
 1400 093f E933FEFF 		jmp	.L66
 1400      FF
 1401              	.L80:
 1402 0944 F30F1EFA 		endbr64
  54:testCore.cpp  **** 	CHECK_EQUAL(4UL, buf.length);
 1403              		.loc 3 54 2
 1404 0948 4889C3   		movq	%rax, %rbx
 1405 094b E8000000 		call	__cxa_end_catch@PLT
 1405      00
 1406 0950 4889D8   		movq	%rbx, %rax
 1407 0953 4889C7   		movq	%rax, %rdi
 1408              	.LEHB56:
 1409 0956 E8000000 		call	_Unwind_Resume@PLT
 1409      00
 1410              	.LEHE56:
 1411              	.L81:
 1412 095b F30F1EFA 		endbr64
  55:testCore.cpp  **** 	CHECK_ARRAY_EQUAL(expected, buf.data, 8);
 1413              		.loc 3 55 2 is_stmt 1
 1414 095f 4889C7   		movq	%rax, %rdi
 1415 0962 E8000000 		call	__cxa_begin_catch@PLT
 1415      00
 1416              	.LEHB57:
 1417 0967 E8000000 		call	_ZN8UnitTest11CurrentTest7ResultsEv@PLT
 1417      00
  55:testCore.cpp  **** 	CHECK_ARRAY_EQUAL(expected, buf.data, 8);
 1418              		.loc 3 55 2 is_stmt 0 discriminator 3
 1419 096c 488B18   		movq	(%rax), %rbx
 1420 096f E8000000 		call	_ZN8UnitTest11CurrentTest7DetailsEv@PLT
 1420      00
  55:testCore.cpp  **** 	CHECK_ARRAY_EQUAL(expected, buf.data, 8);
 1421              		.loc 3 55 2 discriminator 11
 1422 0974 488B08   		movq	(%rax), %rcx
 1423 0977 488D45C0 		leaq	-64(%rbp), %rax
 1424 097b BA370000 		movl	$55, %edx
 1424      00
 1425 0980 4889CE   		movq	%rcx, %rsi
 1426 0983 4889C7   		movq	%rax, %rdi
 1427 0986 E8000000 		call	_ZN8UnitTest11TestDetailsC1ERKS0_i@PLT
 1427      00
  55:testCore.cpp  **** 	CHECK_ARRAY_EQUAL(expected, buf.data, 8);
 1428              		.loc 3 55 2 discriminator 15
 1429 098b 488D45C0 		leaq	-64(%rbp), %rax
 1430 098f 488D1500 		leaq	.LC9(%rip), %rdx
 1430      000000
 1431 0996 4889C6   		movq	%rax, %rsi
 1432 0999 4889DF   		movq	%rbx, %rdi
 1433 099c E8000000 		call	_ZN8UnitTest11TestResults13OnTestFailureERKNS_11TestDetailsEPKc@PLT
 1433      00
 1434              	.LEHE57:
 1435              	.LEHB58:
  55:testCore.cpp  **** 	CHECK_ARRAY_EQUAL(expected, buf.data, 8);
 1436              		.loc 3 55 2 discriminator 17
 1437 09a1 E8000000 		call	__cxa_end_catch@PLT
 1437      00
 1438              	.LEHE58:
 1439 09a6 E916FEFF 		jmp	.L69
 1439      FF
 1440              	.L82:
 1441 09ab F30F1EFA 		endbr64
  55:testCore.cpp  **** 	CHECK_ARRAY_EQUAL(expected, buf.data, 8);
 1442              		.loc 3 55 2
 1443 09af 4889C3   		movq	%rax, %rbx
 1444 09b2 E8000000 		call	__cxa_end_catch@PLT
 1444      00
 1445 09b7 4889D8   		movq	%rbx, %rax
 1446 09ba 4889C7   		movq	%rax, %rdi
 1447              	.LEHB59:
 1448 09bd E8000000 		call	_Unwind_Resume@PLT
 1448      00
 1449              	.LEHE59:
 1450              	.L83:
 1451 09c2 F30F1EFA 		endbr64
  56:testCore.cpp  **** 	bufDestroy(&buf);
 1452              		.loc 3 56 2 is_stmt 1
 1453 09c6 4889C7   		movq	%rax, %rdi
 1454 09c9 E8000000 		call	__cxa_begin_catch@PLT
 1454      00
 1455              	.LEHB60:
 1456 09ce E8000000 		call	_ZN8UnitTest11CurrentTest7ResultsEv@PLT
 1456      00
  56:testCore.cpp  **** 	bufDestroy(&buf);
 1457              		.loc 3 56 2 is_stmt 0 discriminator 3
 1458 09d3 488B18   		movq	(%rax), %rbx
 1459 09d6 E8000000 		call	_ZN8UnitTest11CurrentTest7DetailsEv@PLT
 1459      00
  56:testCore.cpp  **** 	bufDestroy(&buf);
 1460              		.loc 3 56 2 discriminator 11
 1461 09db 488B08   		movq	(%rax), %rcx
 1462 09de 488D45C0 		leaq	-64(%rbp), %rax
 1463 09e2 BA380000 		movl	$56, %edx
 1463      00
 1464 09e7 4889CE   		movq	%rcx, %rsi
 1465 09ea 4889C7   		movq	%rax, %rdi
 1466 09ed E8000000 		call	_ZN8UnitTest11TestDetailsC1ERKS0_i@PLT
 1466      00
  56:testCore.cpp  **** 	bufDestroy(&buf);
 1467              		.loc 3 56 2 discriminator 15
 1468 09f2 488D45C0 		leaq	-64(%rbp), %rax
 1469 09f6 488D1500 		leaq	.LC6(%rip), %rdx
 1469      000000
 1470 09fd 4889C6   		movq	%rax, %rsi
 1471 0a00 4889DF   		movq	%rbx, %rdi
 1472 0a03 E8000000 		call	_ZN8UnitTest11TestResults13OnTestFailureERKNS_11TestDetailsEPKc@PLT
 1472      00
 1473              	.LEHE60:
 1474              	.LEHB61:
  56:testCore.cpp  **** 	bufDestroy(&buf);
 1475              		.loc 3 56 2 discriminator 17
 1476 0a08 E8000000 		call	__cxa_end_catch@PLT
 1476      00
 1477              	.LEHE61:
 1478 0a0d E9EFFDFF 		jmp	.L72
 1478      FF
 1479              	.L84:
 1480 0a12 F30F1EFA 		endbr64
  56:testCore.cpp  **** 	bufDestroy(&buf);
 1481              		.loc 3 56 2
 1482 0a16 4889C3   		movq	%rax, %rbx
 1483 0a19 E8000000 		call	__cxa_end_catch@PLT
 1483      00
 1484 0a1e 4889D8   		movq	%rbx, %rax
 1485 0a21 4889C7   		movq	%rax, %rdi
 1486              	.LEHB62:
 1487 0a24 E8000000 		call	_Unwind_Resume@PLT
 1487      00
 1488              	.LEHE62:
 1489              	.L85:
 1490              		.loc 3 58 1 is_stmt 1
 1491 0a29 E8000000 		call	__stack_chk_fail@PLT
 1491      00
 1492              	.L74:
 1493 0a2e 488B5DF8 		movq	-8(%rbp), %rbx
 1494 0a32 C9       		leave
 1495              		.cfi_def_cfa 7, 8
 1496 0a33 C3       		ret
 1497              		.cfi_endproc
 1498              	.LFE1156:
 1499              		.section	.gcc_except_table
 1500              		.align 4
 1501              	.LLSDA1156:
 1502 00d8 FF       		.byte	0xff
 1503 00d9 9B       		.byte	0x9b
 1504 00da 8401     		.uleb128 .LLSDATT1156-.LLSDATTD1156
 1505              	.LLSDATTD1156:
 1506 00dc 01       		.byte	0x1
 1507 00dd 7B       		.uleb128 .LLSDACSE1156-.LLSDACSB1156
 1508              	.LLSDACSB1156:
 1509 00de 36       		.uleb128 .LEHB40-.LFB1156
 1510 00df 05       		.uleb128 .LEHE40-.LEHB40
 1511 00e0 00       		.uleb128 0
 1512 00e1 00       		.uleb128 0
 1513 00e2 3E       		.uleb128 .LEHB41-.LFB1156
 1514 00e3 3F       		.uleb128 .LEHE41-.LEHB41
 1515 00e4 DA03     		.uleb128 .L75-.LFB1156
 1516 00e6 01       		.uleb128 0x1
 1517 00e7 9A01     		.uleb128 .LEHB42-.LFB1156
 1518 00e9 05       		.uleb128 .LEHE42-.LEHB42
 1519 00ea 00       		.uleb128 0
 1520 00eb 00       		.uleb128 0
 1521 00ec A201     		.uleb128 .LEHB43-.LFB1156
 1522 00ee 3F       		.uleb128 .LEHE43-.LEHB43
 1523 00ef C104     		.uleb128 .L77-.LFB1156
 1524 00f1 01       		.uleb128 0x1
 1525 00f2 E101     		.uleb128 .LEHB44-.LFB1156
 1526 00f4 4A       		.uleb128 .LEHE44-.LEHB44
 1527 00f5 A805     		.uleb128 .L79-.LFB1156
 1528 00f7 01       		.uleb128 0x1
 1529 00f8 AB02     		.uleb128 .LEHB45-.LFB1156
 1530 00fa 4A       		.uleb128 .LEHE45-.LEHB45
 1531 00fb 8F06     		.uleb128 .L81-.LFB1156
 1532 00fd 01       		.uleb128 0x1
 1533 00fe F502     		.uleb128 .LEHB46-.LFB1156
 1534 0100 40       		.uleb128 .LEHE46-.LEHB46
 1535 0101 F606     		.uleb128 .L83-.LFB1156
 1536 0103 01       		.uleb128 0x1
 1537 0104 BC03     		.uleb128 .LEHB47-.LFB1156
 1538 0106 05       		.uleb128 .LEHE47-.LEHB47
 1539 0107 00       		.uleb128 0
 1540 0108 00       		.uleb128 0
 1541 0109 E603     		.uleb128 .LEHB48-.LFB1156
 1542 010b 3A       		.uleb128 .LEHE48-.LEHB48
 1543 010c AA04     		.uleb128 .L76-.LFB1156
 1544 010e 00       		.uleb128 0
 1545 010f A004     		.uleb128 .LEHB49-.LFB1156
 1546 0111 05       		.uleb128 .LEHE49-.LEHB49
 1547 0112 00       		.uleb128 0
 1548 0113 00       		.uleb128 0
 1549 0114 BC04     		.uleb128 .LEHB50-.LFB1156
 1550 0116 05       		.uleb128 .LEHE50-.LEHB50
 1551 0117 00       		.uleb128 0
 1552 0118 00       		.uleb128 0
 1553 0119 CD04     		.uleb128 .LEHB51-.LFB1156
 1554 011b 3A       		.uleb128 .LEHE51-.LEHB51
 1555 011c 9105     		.uleb128 .L78-.LFB1156
 1556 011e 00       		.uleb128 0
 1557 011f 8705     		.uleb128 .LEHB52-.LFB1156
 1558 0121 05       		.uleb128 .LEHE52-.LEHB52
 1559 0122 00       		.uleb128 0
 1560 0123 00       		.uleb128 0
 1561 0124 A305     		.uleb128 .LEHB53-.LFB1156
 1562 0126 05       		.uleb128 .LEHE53-.LEHB53
 1563 0127 00       		.uleb128 0
 1564 0128 00       		.uleb128 0
 1565 0129 B405     		.uleb128 .LEHB54-.LFB1156
 1566 012b 3A       		.uleb128 .LEHE54-.LEHB54
 1567 012c F805     		.uleb128 .L80-.LFB1156
 1568 012e 00       		.uleb128 0
 1569 012f EE05     		.uleb128 .LEHB55-.LFB1156
 1570 0131 05       		.uleb128 .LEHE55-.LEHB55
 1571 0132 00       		.uleb128 0
 1572 0133 00       		.uleb128 0
 1573 0134 8A06     		.uleb128 .LEHB56-.LFB1156
 1574 0136 05       		.uleb128 .LEHE56-.LEHB56
 1575 0137 00       		.uleb128 0
 1576 0138 00       		.uleb128 0
 1577 0139 9B06     		.uleb128 .LEHB57-.LFB1156
 1578 013b 3A       		.uleb128 .LEHE57-.LEHB57
 1579 013c DF06     		.uleb128 .L82-.LFB1156
 1580 013e 00       		.uleb128 0
 1581 013f D506     		.uleb128 .LEHB58-.LFB1156
 1582 0141 05       		.uleb128 .LEHE58-.LEHB58
 1583 0142 00       		.uleb128 0
 1584 0143 00       		.uleb128 0
 1585 0144 F106     		.uleb128 .LEHB59-.LFB1156
 1586 0146 05       		.uleb128 .LEHE59-.LEHB59
 1587 0147 00       		.uleb128 0
 1588 0148 00       		.uleb128 0
 1589 0149 8207     		.uleb128 .LEHB60-.LFB1156
 1590 014b 3A       		.uleb128 .LEHE60-.LEHB60
 1591 014c C607     		.uleb128 .L84-.LFB1156
 1592 014e 00       		.uleb128 0
 1593 014f BC07     		.uleb128 .LEHB61-.LFB1156
 1594 0151 05       		.uleb128 .LEHE61-.LEHB61
 1595 0152 00       		.uleb128 0
 1596 0153 00       		.uleb128 0
 1597 0154 D807     		.uleb128 .LEHB62-.LFB1156
 1598 0156 05       		.uleb128 .LEHE62-.LEHB62
 1599 0157 00       		.uleb128 0
 1600 0158 00       		.uleb128 0
 1601              	.LLSDACSE1156:
 1602 0159 01       		.byte	0x1
 1603 015a 00       		.byte	0
 1604 015b 00       		.align 4
 1605 015c 00000000 		.long	0
 1606              	
 1607              	.LLSDATT1156:
 1608              		.text
 1610              		.section	.rodata
 1611              	.LC10:
 1612 0184 436F7265 		.string	"Core_testCapacityAppendBlock"
 1612      5F746573 
 1612      74436170 
 1612      61636974 
 1612      79417070 
 1613              		.section	.text._ZN32TestCore_testCapacityAppendBlockC2Ev,"axG",@progbits,_ZN32TestCore_testCapacit
 1614              		.align 2
 1615              		.weak	_ZN32TestCore_testCapacityAppendBlockC2Ev
 1617              	_ZN32TestCore_testCapacityAppendBlockC2Ev:
 1618              	.LFB1158:
  59:testCore.cpp  **** 
  60:testCore.cpp  **** TEST(Core_testCapacityAppendBlock) {
 1619              		.loc 3 60 1
 1620              		.cfi_startproc
 1621 0000 F30F1EFA 		endbr64
 1622 0004 55       		pushq	%rbp
 1623              		.cfi_def_cfa_offset 16
 1624              		.cfi_offset 6, -16
 1625 0005 4889E5   		movq	%rsp, %rbp
 1626              		.cfi_def_cfa_register 6
 1627 0008 53       		pushq	%rbx
 1628 0009 4883EC18 		subq	$24, %rsp
 1629              		.cfi_offset 3, -24
 1630 000d 48897DE8 		movq	%rdi, -24(%rbp)
 1631              	.LBB7:
 1632              		.loc 3 60 1
 1633 0011 488B5DE8 		movq	-24(%rbp), %rbx
 1634 0015 E8000000 		call	_ZN13UnitTestSuite12GetSuiteNameEv
 1634      00
 1635 001a 4889C2   		movq	%rax, %rdx
 1636 001d 41B83C00 		movl	$60, %r8d
 1636      0000
 1637 0023 488D0500 		leaq	.LC1(%rip), %rax
 1637      000000
 1638 002a 4889C1   		movq	%rax, %rcx
 1639 002d 488D0500 		leaq	.LC10(%rip), %rax
 1639      000000
 1640 0034 4889C6   		movq	%rax, %rsi
 1641 0037 4889DF   		movq	%rbx, %rdi
 1642 003a E8000000 		call	_ZN8UnitTest4TestC2EPKcS2_S2_i@PLT
 1642      00
 1643 003f 488D1500 		leaq	16+_ZTV32TestCore_testCapacityAppendBlock(%rip), %rdx
 1643      000000
 1644 0046 488B45E8 		movq	-24(%rbp), %rax
 1645 004a 488910   		movq	%rdx, (%rax)
 1646              	.LBE7:
 1647 004d 90       		nop
 1648 004e 488B5DF8 		movq	-8(%rbp), %rbx
 1649 0052 C9       		leave
 1650              		.cfi_def_cfa 7, 8
 1651 0053 C3       		ret
 1652              		.cfi_endproc
 1653              	.LFE1158:
 1655              		.weak	_ZN32TestCore_testCapacityAppendBlockC1Ev
 1656              		.set	_ZN32TestCore_testCapacityAppendBlockC1Ev,_ZN32TestCore_testCapacityAppendBlockC2Ev
 1657              		.globl	testCore_testCapacityAppendBlockInstance
 1658              		.bss
 1659 00b9 00000000 		.align 32
 1659      000000
 1662              	testCore_testCapacityAppendBlockInstance:
 1663 00c0 00000000 		.zero	56
 1663      00000000 
 1663      00000000 
 1663      00000000 
 1663      00000000 
 1664              		.globl	adderCore_testCapacityAppendBlock
 1667              	adderCore_testCapacityAppendBlock:
 1668 00f8 00       		.zero	1
 1669              		.section	.rodata
 1670 01a1 00000000 		.align 8
 1670      000000
 1671              	.LC11:
 1672 01a8 556E6861 		.string	"Unhandled exception in CHECK_EQUAL(8UL, buf.length)"
 1672      6E646C65 
 1672      64206578 
 1672      63657074 
 1672      696F6E20 
 1673              		.text
 1674              		.align 2
 1675              		.globl	_ZNK32TestCore_testCapacityAppendBlock7RunImplEv
 1677              	_ZNK32TestCore_testCapacityAppendBlock7RunImplEv:
 1678              	.LFB1160:
 1679              		.loc 3 60 36
 1680              		.cfi_startproc
 1681              		.cfi_personality 0x9b,DW.ref.__gxx_personality_v0
 1682              		.cfi_lsda 0x1b,.LLSDA1160
 1683 0a34 F30F1EFA 		endbr64
 1684 0a38 55       		pushq	%rbp
 1685              		.cfi_def_cfa_offset 16
 1686              		.cfi_offset 6, -16
 1687 0a39 4889E5   		movq	%rsp, %rbp
 1688              		.cfi_def_cfa_register 6
 1689 0a3c 53       		pushq	%rbx
 1690 0a3d 4883EC78 		subq	$120, %rsp
 1691              		.cfi_offset 3, -24
 1692 0a41 48897D88 		movq	%rdi, -120(%rbp)
 1693              		.loc 3 60 36
 1694 0a45 64488B04 		movq	%fs:40, %rax
 1694      25280000 
 1694      00
 1695 0a4e 488945E8 		movq	%rax, -24(%rbp)
 1696 0a52 31C0     		xorl	%eax, %eax
  61:testCore.cpp  **** 	Buffer buf;
  62:testCore.cpp  **** 	BufferStatus status;
  63:testCore.cpp  **** 
  64:testCore.cpp  **** 	status = bufInitialise(&buf, 8, 0, NULL);
 1697              		.loc 3 64 24
 1698 0a54 488D45A0 		leaq	-96(%rbp), %rax
 1699 0a58 B9000000 		movl	$0, %ecx
 1699      00
 1700 0a5d BA000000 		movl	$0, %edx
 1700      00
 1701 0a62 BE080000 		movl	$8, %esi
 1701      00
 1702 0a67 4889C7   		movq	%rax, %rdi
 1703              	.LEHB63:
 1704 0a6a E8000000 		call	bufInitialise@PLT
 1704      00
 1705              	.LEHE63:
 1706              		.loc 3 64 9
 1707 0a6f 894594   		movl	%eax, -108(%rbp)
 1708              	.LEHB64:
  65:testCore.cpp  **** 	CHECK_EQUAL(BUF_SUCCESS, status);
 1709              		.loc 3 65 2
 1710 0a72 E8000000 		call	_ZN8UnitTest11CurrentTest7DetailsEv@PLT
 1710      00
 1711 0a77 488B08   		movq	(%rax), %rcx
 1712 0a7a 488D45C0 		leaq	-64(%rbp), %rax
 1713 0a7e BA410000 		movl	$65, %edx
 1713      00
 1714 0a83 4889CE   		movq	%rcx, %rsi
 1715 0a86 4889C7   		movq	%rax, %rdi
 1716 0a89 E8000000 		call	_ZN8UnitTest11TestDetailsC1ERKS0_i@PLT
 1716      00
 1717              		.loc 3 65 2 is_stmt 0 discriminator 4
 1718 0a8e C7459800 		movl	$0, -104(%rbp)
 1718      000000
 1719 0a95 E8000000 		call	_ZN8UnitTest11CurrentTest7ResultsEv@PLT
 1719      00
 1720 0a9a 488B00   		movq	(%rax), %rax
 1721 0a9d 488D4DC0 		leaq	-64(%rbp), %rcx
 1722 0aa1 488D5594 		leaq	-108(%rbp), %rdx
 1723 0aa5 488D7598 		leaq	-104(%rbp), %rsi
 1724 0aa9 4889C7   		movq	%rax, %rdi
 1725 0aac E8000000 		call	_ZN8UnitTest10CheckEqualI12BufferStatusS1_EEvRNS_11TestResultsERKT_RKT0_RKNS_11TestDetailsE
 1725      00
 1726              	.LEHE64:
 1727              	.L89:
  66:testCore.cpp  **** 
  67:testCore.cpp  **** 	const unsigned char expected[] = {1, 2, 3, 4, 5, 6, 7, 8};
 1728              		.loc 3 67 22 is_stmt 1
 1729 0ab1 48B80102 		movabsq	$578437695752307201, %rax
 1729      03040506 
 1729      0708
 1730 0abb 488945E0 		movq	%rax, -32(%rbp)
  68:testCore.cpp  **** 	status = bufAppendBlock(&buf, expected, 8, NULL);
 1731              		.loc 3 68 25
 1732 0abf 488D75E0 		leaq	-32(%rbp), %rsi
 1733 0ac3 488D45A0 		leaq	-96(%rbp), %rax
 1734 0ac7 B9000000 		movl	$0, %ecx
 1734      00
 1735 0acc BA080000 		movl	$8, %edx
 1735      00
 1736 0ad1 4889C7   		movq	%rax, %rdi
 1737              	.LEHB65:
 1738 0ad4 E8000000 		call	bufAppendBlock@PLT
 1738      00
 1739              	.LEHE65:
 1740              		.loc 3 68 9
 1741 0ad9 894594   		movl	%eax, -108(%rbp)
 1742              	.LEHB66:
  69:testCore.cpp  **** 	CHECK_EQUAL(BUF_SUCCESS, status);
 1743              		.loc 3 69 2
 1744 0adc E8000000 		call	_ZN8UnitTest11CurrentTest7DetailsEv@PLT
 1744      00
 1745 0ae1 488B08   		movq	(%rax), %rcx
 1746 0ae4 488D45C0 		leaq	-64(%rbp), %rax
 1747 0ae8 BA450000 		movl	$69, %edx
 1747      00
 1748 0aed 4889CE   		movq	%rcx, %rsi
 1749 0af0 4889C7   		movq	%rax, %rdi
 1750 0af3 E8000000 		call	_ZN8UnitTest11TestDetailsC1ERKS0_i@PLT
 1750      00
 1751              		.loc 3 69 2 is_stmt 0 discriminator 4
 1752 0af8 C7459800 		movl	$0, -104(%rbp)
 1752      000000
 1753 0aff E8000000 		call	_ZN8UnitTest11CurrentTest7ResultsEv@PLT
 1753      00
 1754 0b04 488B00   		movq	(%rax), %rax
 1755 0b07 488D4DC0 		leaq	-64(%rbp), %rcx
 1756 0b0b 488D5594 		leaq	-108(%rbp), %rdx
 1757 0b0f 488D7598 		leaq	-104(%rbp), %rsi
 1758 0b13 4889C7   		movq	%rax, %rdi
 1759 0b16 E8000000 		call	_ZN8UnitTest10CheckEqualI12BufferStatusS1_EEvRNS_11TestResultsERKT_RKT0_RKNS_11TestDetailsE
 1759      00
 1760              	.LEHE66:
 1761              	.L92:
 1762              	.LEHB67:
  70:testCore.cpp  **** 	CHECK_EQUAL(8UL, buf.capacity);
 1763              		.loc 3 70 2 is_stmt 1
 1764 0b1b E8000000 		call	_ZN8UnitTest11CurrentTest7DetailsEv@PLT
 1764      00
 1765 0b20 488B08   		movq	(%rax), %rcx
 1766 0b23 488D45C0 		leaq	-64(%rbp), %rax
 1767 0b27 BA460000 		movl	$70, %edx
 1767      00
 1768 0b2c 4889CE   		movq	%rcx, %rsi
 1769 0b2f 4889C7   		movq	%rax, %rdi
 1770 0b32 E8000000 		call	_ZN8UnitTest11TestDetailsC1ERKS0_i@PLT
 1770      00
 1771              		.loc 3 70 2 is_stmt 0 discriminator 4
 1772 0b37 48C74598 		movq	$8, -104(%rbp)
 1772      08000000 
 1773 0b3f E8000000 		call	_ZN8UnitTest11CurrentTest7ResultsEv@PLT
 1773      00
 1774 0b44 488B00   		movq	(%rax), %rax
 1775 0b47 488D55C0 		leaq	-64(%rbp), %rdx
 1776 0b4b 488D4DA0 		leaq	-96(%rbp), %rcx
 1777 0b4f 488D7910 		leaq	16(%rcx), %rdi
 1778 0b53 488D7598 		leaq	-104(%rbp), %rsi
 1779 0b57 4889D1   		movq	%rdx, %rcx
 1780 0b5a 4889FA   		movq	%rdi, %rdx
 1781 0b5d 4889C7   		movq	%rax, %rdi
 1782 0b60 E8000000 		call	_ZN8UnitTest10CheckEqualImmEEvRNS_11TestResultsERKT_RKT0_RKNS_11TestDetailsE
 1782      00
 1783              	.LEHE67:
 1784              	.L95:
 1785              	.LEHB68:
  71:testCore.cpp  **** 	CHECK_EQUAL(8UL, buf.length);
 1786              		.loc 3 71 2 is_stmt 1
 1787 0b65 E8000000 		call	_ZN8UnitTest11CurrentTest7DetailsEv@PLT
 1787      00
 1788 0b6a 488B08   		movq	(%rax), %rcx
 1789 0b6d 488D45C0 		leaq	-64(%rbp), %rax
 1790 0b71 BA470000 		movl	$71, %edx
 1790      00
 1791 0b76 4889CE   		movq	%rcx, %rsi
 1792 0b79 4889C7   		movq	%rax, %rdi
 1793 0b7c E8000000 		call	_ZN8UnitTest11TestDetailsC1ERKS0_i@PLT
 1793      00
 1794              		.loc 3 71 2 is_stmt 0 discriminator 4
 1795 0b81 48C74598 		movq	$8, -104(%rbp)
 1795      08000000 
 1796 0b89 E8000000 		call	_ZN8UnitTest11CurrentTest7ResultsEv@PLT
 1796      00
 1797 0b8e 488B00   		movq	(%rax), %rax
 1798 0b91 488D55C0 		leaq	-64(%rbp), %rdx
 1799 0b95 488D4DA0 		leaq	-96(%rbp), %rcx
 1800 0b99 488D7908 		leaq	8(%rcx), %rdi
 1801 0b9d 488D7598 		leaq	-104(%rbp), %rsi
 1802 0ba1 4889D1   		movq	%rdx, %rcx
 1803 0ba4 4889FA   		movq	%rdi, %rdx
 1804 0ba7 4889C7   		movq	%rax, %rdi
 1805 0baa E8000000 		call	_ZN8UnitTest10CheckEqualImmEEvRNS_11TestResultsERKT_RKT0_RKNS_11TestDetailsE
 1805      00
 1806              	.LEHE68:
 1807              	.L98:
 1808              	.LEHB69:
  72:testCore.cpp  **** 	CHECK_ARRAY_EQUAL(expected, buf.data, 8);
 1809              		.loc 3 72 2 is_stmt 1
 1810 0baf E8000000 		call	_ZN8UnitTest11CurrentTest7DetailsEv@PLT
 1810      00
 1811 0bb4 488B08   		movq	(%rax), %rcx
 1812 0bb7 488D45C0 		leaq	-64(%rbp), %rax
 1813 0bbb BA480000 		movl	$72, %edx
 1813      00
 1814 0bc0 4889CE   		movq	%rcx, %rsi
 1815 0bc3 4889C7   		movq	%rax, %rdi
 1816 0bc6 E8000000 		call	_ZN8UnitTest11TestDetailsC1ERKS0_i@PLT
 1816      00
 1817              		.loc 3 72 2 is_stmt 0 discriminator 4
 1818 0bcb E8000000 		call	_ZN8UnitTest11CurrentTest7ResultsEv@PLT
 1818      00
 1819 0bd0 488B00   		movq	(%rax), %rax
 1820 0bd3 488D4DC0 		leaq	-64(%rbp), %rcx
 1821 0bd7 488D55A0 		leaq	-96(%rbp), %rdx
 1822 0bdb 488D75E0 		leaq	-32(%rbp), %rsi
 1823 0bdf 4989C8   		movq	%rcx, %r8
 1824 0be2 B9080000 		movl	$8, %ecx
 1824      00
 1825 0be7 4889C7   		movq	%rax, %rdi
 1826 0bea E8000000 		call	_ZN8UnitTest15CheckArrayEqualIA8_hPhEEvRNS_11TestResultsERKT_RKT0_iRKNS_11TestDetailsE
 1826      00
 1827              	.LEHE69:
 1828              	.L101:
  73:testCore.cpp  **** 	bufDestroy(&buf);
 1829              		.loc 3 73 12 is_stmt 1
 1830 0bef 488D45A0 		leaq	-96(%rbp), %rax
 1831 0bf3 4889C7   		movq	%rax, %rdi
 1832              	.LEHB70:
 1833 0bf6 E8000000 		call	bufDestroy@PLT
 1833      00
 1834              	.LEHE70:
  74:testCore.cpp  **** }
 1835              		.loc 3 74 1
 1836 0bfb 90       		nop
 1837 0bfc 488B45E8 		movq	-24(%rbp), %rax
 1838 0c00 64482B04 		subq	%fs:40, %rax
 1838      25280000 
 1838      00
 1839 0c09 0F840D02 		je	.L103
 1839      0000
 1840 0c0f E9030200 		jmp	.L114
 1840      00
 1841              	.L104:
 1842 0c14 F30F1EFA 		endbr64
  65:testCore.cpp  **** 
 1843              		.loc 3 65 2
 1844 0c18 4889C7   		movq	%rax, %rdi
 1845 0c1b E8000000 		call	__cxa_begin_catch@PLT
 1845      00
 1846              	.LEHB71:
 1847 0c20 E8000000 		call	_ZN8UnitTest11CurrentTest7ResultsEv@PLT
 1847      00
  65:testCore.cpp  **** 
 1848              		.loc 3 65 2 is_stmt 0 discriminator 3
 1849 0c25 488B18   		movq	(%rax), %rbx
 1850 0c28 E8000000 		call	_ZN8UnitTest11CurrentTest7DetailsEv@PLT
 1850      00
  65:testCore.cpp  **** 
 1851              		.loc 3 65 2 discriminator 11
 1852 0c2d 488B08   		movq	(%rax), %rcx
 1853 0c30 488D45C0 		leaq	-64(%rbp), %rax
 1854 0c34 BA410000 		movl	$65, %edx
 1854      00
 1855 0c39 4889CE   		movq	%rcx, %rsi
 1856 0c3c 4889C7   		movq	%rax, %rdi
 1857 0c3f E8000000 		call	_ZN8UnitTest11TestDetailsC1ERKS0_i@PLT
 1857      00
  65:testCore.cpp  **** 
 1858              		.loc 3 65 2 discriminator 15
 1859 0c44 488D45C0 		leaq	-64(%rbp), %rax
 1860 0c48 488D1500 		leaq	.LC3(%rip), %rdx
 1860      000000
 1861 0c4f 4889C6   		movq	%rax, %rsi
 1862 0c52 4889DF   		movq	%rbx, %rdi
 1863 0c55 E8000000 		call	_ZN8UnitTest11TestResults13OnTestFailureERKNS_11TestDetailsEPKc@PLT
 1863      00
 1864              	.LEHE71:
 1865              	.LEHB72:
  65:testCore.cpp  **** 
 1866              		.loc 3 65 2 discriminator 17
 1867 0c5a E8000000 		call	__cxa_end_catch@PLT
 1867      00
 1868              	.LEHE72:
 1869 0c5f E94DFEFF 		jmp	.L89
 1869      FF
 1870              	.L105:
 1871 0c64 F30F1EFA 		endbr64
  65:testCore.cpp  **** 
 1872              		.loc 3 65 2
 1873 0c68 4889C3   		movq	%rax, %rbx
 1874 0c6b E8000000 		call	__cxa_end_catch@PLT
 1874      00
 1875 0c70 4889D8   		movq	%rbx, %rax
 1876 0c73 4889C7   		movq	%rax, %rdi
 1877              	.LEHB73:
 1878 0c76 E8000000 		call	_Unwind_Resume@PLT
 1878      00
 1879              	.LEHE73:
 1880              	.L106:
 1881 0c7b F30F1EFA 		endbr64
  69:testCore.cpp  **** 	CHECK_EQUAL(8UL, buf.capacity);
 1882              		.loc 3 69 2 is_stmt 1
 1883 0c7f 4889C7   		movq	%rax, %rdi
 1884 0c82 E8000000 		call	__cxa_begin_catch@PLT
 1884      00
 1885              	.LEHB74:
 1886 0c87 E8000000 		call	_ZN8UnitTest11CurrentTest7ResultsEv@PLT
 1886      00
  69:testCore.cpp  **** 	CHECK_EQUAL(8UL, buf.capacity);
 1887              		.loc 3 69 2 is_stmt 0 discriminator 3
 1888 0c8c 488B18   		movq	(%rax), %rbx
 1889 0c8f E8000000 		call	_ZN8UnitTest11CurrentTest7DetailsEv@PLT
 1889      00
  69:testCore.cpp  **** 	CHECK_EQUAL(8UL, buf.capacity);
 1890              		.loc 3 69 2 discriminator 11
 1891 0c94 488B08   		movq	(%rax), %rcx
 1892 0c97 488D45C0 		leaq	-64(%rbp), %rax
 1893 0c9b BA450000 		movl	$69, %edx
 1893      00
 1894 0ca0 4889CE   		movq	%rcx, %rsi
 1895 0ca3 4889C7   		movq	%rax, %rdi
 1896 0ca6 E8000000 		call	_ZN8UnitTest11TestDetailsC1ERKS0_i@PLT
 1896      00
  69:testCore.cpp  **** 	CHECK_EQUAL(8UL, buf.capacity);
 1897              		.loc 3 69 2 discriminator 15
 1898 0cab 488D45C0 		leaq	-64(%rbp), %rax
 1899 0caf 488D1500 		leaq	.LC3(%rip), %rdx
 1899      000000
 1900 0cb6 4889C6   		movq	%rax, %rsi
 1901 0cb9 4889DF   		movq	%rbx, %rdi
 1902 0cbc E8000000 		call	_ZN8UnitTest11TestResults13OnTestFailureERKNS_11TestDetailsEPKc@PLT
 1902      00
 1903              	.LEHE74:
 1904              	.LEHB75:
  69:testCore.cpp  **** 	CHECK_EQUAL(8UL, buf.capacity);
 1905              		.loc 3 69 2 discriminator 17
 1906 0cc1 E8000000 		call	__cxa_end_catch@PLT
 1906      00
 1907              	.LEHE75:
 1908 0cc6 E950FEFF 		jmp	.L92
 1908      FF
 1909              	.L107:
 1910 0ccb F30F1EFA 		endbr64
  69:testCore.cpp  **** 	CHECK_EQUAL(8UL, buf.capacity);
 1911              		.loc 3 69 2
 1912 0ccf 4889C3   		movq	%rax, %rbx
 1913 0cd2 E8000000 		call	__cxa_end_catch@PLT
 1913      00
 1914 0cd7 4889D8   		movq	%rbx, %rax
 1915 0cda 4889C7   		movq	%rax, %rdi
 1916              	.LEHB76:
 1917 0cdd E8000000 		call	_Unwind_Resume@PLT
 1917      00
 1918              	.LEHE76:
 1919              	.L108:
 1920 0ce2 F30F1EFA 		endbr64
  70:testCore.cpp  **** 	CHECK_EQUAL(8UL, buf.length);
 1921              		.loc 3 70 2 is_stmt 1
 1922 0ce6 4889C7   		movq	%rax, %rdi
 1923 0ce9 E8000000 		call	__cxa_begin_catch@PLT
 1923      00
 1924              	.LEHB77:
 1925 0cee E8000000 		call	_ZN8UnitTest11CurrentTest7ResultsEv@PLT
 1925      00
  70:testCore.cpp  **** 	CHECK_EQUAL(8UL, buf.length);
 1926              		.loc 3 70 2 is_stmt 0 discriminator 3
 1927 0cf3 488B18   		movq	(%rax), %rbx
 1928 0cf6 E8000000 		call	_ZN8UnitTest11CurrentTest7DetailsEv@PLT
 1928      00
  70:testCore.cpp  **** 	CHECK_EQUAL(8UL, buf.length);
 1929              		.loc 3 70 2 discriminator 11
 1930 0cfb 488B08   		movq	(%rax), %rcx
 1931 0cfe 488D45C0 		leaq	-64(%rbp), %rax
 1932 0d02 BA460000 		movl	$70, %edx
 1932      00
 1933 0d07 4889CE   		movq	%rcx, %rsi
 1934 0d0a 4889C7   		movq	%rax, %rdi
 1935 0d0d E8000000 		call	_ZN8UnitTest11TestDetailsC1ERKS0_i@PLT
 1935      00
  70:testCore.cpp  **** 	CHECK_EQUAL(8UL, buf.length);
 1936              		.loc 3 70 2 discriminator 15
 1937 0d12 488D45C0 		leaq	-64(%rbp), %rax
 1938 0d16 488D1500 		leaq	.LC5(%rip), %rdx
 1938      000000
 1939 0d1d 4889C6   		movq	%rax, %rsi
 1940 0d20 4889DF   		movq	%rbx, %rdi
 1941 0d23 E8000000 		call	_ZN8UnitTest11TestResults13OnTestFailureERKNS_11TestDetailsEPKc@PLT
 1941      00
 1942              	.LEHE77:
 1943              	.LEHB78:
  70:testCore.cpp  **** 	CHECK_EQUAL(8UL, buf.length);
 1944              		.loc 3 70 2 discriminator 17
 1945 0d28 E8000000 		call	__cxa_end_catch@PLT
 1945      00
 1946              	.LEHE78:
 1947 0d2d E933FEFF 		jmp	.L95
 1947      FF
 1948              	.L109:
 1949 0d32 F30F1EFA 		endbr64
  70:testCore.cpp  **** 	CHECK_EQUAL(8UL, buf.length);
 1950              		.loc 3 70 2
 1951 0d36 4889C3   		movq	%rax, %rbx
 1952 0d39 E8000000 		call	__cxa_end_catch@PLT
 1952      00
 1953 0d3e 4889D8   		movq	%rbx, %rax
 1954 0d41 4889C7   		movq	%rax, %rdi
 1955              	.LEHB79:
 1956 0d44 E8000000 		call	_Unwind_Resume@PLT
 1956      00
 1957              	.LEHE79:
 1958              	.L110:
 1959 0d49 F30F1EFA 		endbr64
  71:testCore.cpp  **** 	CHECK_ARRAY_EQUAL(expected, buf.data, 8);
 1960              		.loc 3 71 2 is_stmt 1
 1961 0d4d 4889C7   		movq	%rax, %rdi
 1962 0d50 E8000000 		call	__cxa_begin_catch@PLT
 1962      00
 1963              	.LEHB80:
 1964 0d55 E8000000 		call	_ZN8UnitTest11CurrentTest7ResultsEv@PLT
 1964      00
  71:testCore.cpp  **** 	CHECK_ARRAY_EQUAL(expected, buf.data, 8);
 1965              		.loc 3 71 2 is_stmt 0 discriminator 3
 1966 0d5a 488B18   		movq	(%rax), %rbx
 1967 0d5d E8000000 		call	_ZN8UnitTest11CurrentTest7DetailsEv@PLT
 1967      00
  71:testCore.cpp  **** 	CHECK_ARRAY_EQUAL(expected, buf.data, 8);
 1968              		.loc 3 71 2 discriminator 11
 1969 0d62 488B08   		movq	(%rax), %rcx
 1970 0d65 488D45C0 		leaq	-64(%rbp), %rax
 1971 0d69 BA470000 		movl	$71, %edx
 1971      00
 1972 0d6e 4889CE   		movq	%rcx, %rsi
 1973 0d71 4889C7   		movq	%rax, %rdi
 1974 0d74 E8000000 		call	_ZN8UnitTest11TestDetailsC1ERKS0_i@PLT
 1974      00
  71:testCore.cpp  **** 	CHECK_ARRAY_EQUAL(expected, buf.data, 8);
 1975              		.loc 3 71 2 discriminator 15
 1976 0d79 488D45C0 		leaq	-64(%rbp), %rax
 1977 0d7d 488D1500 		leaq	.LC11(%rip), %rdx
 1977      000000
 1978 0d84 4889C6   		movq	%rax, %rsi
 1979 0d87 4889DF   		movq	%rbx, %rdi
 1980 0d8a E8000000 		call	_ZN8UnitTest11TestResults13OnTestFailureERKNS_11TestDetailsEPKc@PLT
 1980      00
 1981              	.LEHE80:
 1982              	.LEHB81:
  71:testCore.cpp  **** 	CHECK_ARRAY_EQUAL(expected, buf.data, 8);
 1983              		.loc 3 71 2 discriminator 17
 1984 0d8f E8000000 		call	__cxa_end_catch@PLT
 1984      00
 1985              	.LEHE81:
 1986 0d94 E916FEFF 		jmp	.L98
 1986      FF
 1987              	.L111:
 1988 0d99 F30F1EFA 		endbr64
  71:testCore.cpp  **** 	CHECK_ARRAY_EQUAL(expected, buf.data, 8);
 1989              		.loc 3 71 2
 1990 0d9d 4889C3   		movq	%rax, %rbx
 1991 0da0 E8000000 		call	__cxa_end_catch@PLT
 1991      00
 1992 0da5 4889D8   		movq	%rbx, %rax
 1993 0da8 4889C7   		movq	%rax, %rdi
 1994              	.LEHB82:
 1995 0dab E8000000 		call	_Unwind_Resume@PLT
 1995      00
 1996              	.LEHE82:
 1997              	.L112:
 1998 0db0 F30F1EFA 		endbr64
  72:testCore.cpp  **** 	bufDestroy(&buf);
 1999              		.loc 3 72 2 is_stmt 1
 2000 0db4 4889C7   		movq	%rax, %rdi
 2001 0db7 E8000000 		call	__cxa_begin_catch@PLT
 2001      00
 2002              	.LEHB83:
 2003 0dbc E8000000 		call	_ZN8UnitTest11CurrentTest7ResultsEv@PLT
 2003      00
  72:testCore.cpp  **** 	bufDestroy(&buf);
 2004              		.loc 3 72 2 is_stmt 0 discriminator 3
 2005 0dc1 488B18   		movq	(%rax), %rbx
 2006 0dc4 E8000000 		call	_ZN8UnitTest11CurrentTest7DetailsEv@PLT
 2006      00
  72:testCore.cpp  **** 	bufDestroy(&buf);
 2007              		.loc 3 72 2 discriminator 11
 2008 0dc9 488B08   		movq	(%rax), %rcx
 2009 0dcc 488D45C0 		leaq	-64(%rbp), %rax
 2010 0dd0 BA480000 		movl	$72, %edx
 2010      00
 2011 0dd5 4889CE   		movq	%rcx, %rsi
 2012 0dd8 4889C7   		movq	%rax, %rdi
 2013 0ddb E8000000 		call	_ZN8UnitTest11TestDetailsC1ERKS0_i@PLT
 2013      00
  72:testCore.cpp  **** 	bufDestroy(&buf);
 2014              		.loc 3 72 2 discriminator 15
 2015 0de0 488D45C0 		leaq	-64(%rbp), %rax
 2016 0de4 488D1500 		leaq	.LC6(%rip), %rdx
 2016      000000
 2017 0deb 4889C6   		movq	%rax, %rsi
 2018 0dee 4889DF   		movq	%rbx, %rdi
 2019 0df1 E8000000 		call	_ZN8UnitTest11TestResults13OnTestFailureERKNS_11TestDetailsEPKc@PLT
 2019      00
 2020              	.LEHE83:
 2021              	.LEHB84:
  72:testCore.cpp  **** 	bufDestroy(&buf);
 2022              		.loc 3 72 2 discriminator 17
 2023 0df6 E8000000 		call	__cxa_end_catch@PLT
 2023      00
 2024              	.LEHE84:
 2025 0dfb E9EFFDFF 		jmp	.L101
 2025      FF
 2026              	.L113:
 2027 0e00 F30F1EFA 		endbr64
  72:testCore.cpp  **** 	bufDestroy(&buf);
 2028              		.loc 3 72 2
 2029 0e04 4889C3   		movq	%rax, %rbx
 2030 0e07 E8000000 		call	__cxa_end_catch@PLT
 2030      00
 2031 0e0c 4889D8   		movq	%rbx, %rax
 2032 0e0f 4889C7   		movq	%rax, %rdi
 2033              	.LEHB85:
 2034 0e12 E8000000 		call	_Unwind_Resume@PLT
 2034      00
 2035              	.LEHE85:
 2036              	.L114:
 2037              		.loc 3 74 1 is_stmt 1
 2038 0e17 E8000000 		call	__stack_chk_fail@PLT
 2038      00
 2039              	.L103:
 2040 0e1c 488B5DF8 		movq	-8(%rbp), %rbx
 2041 0e20 C9       		leave
 2042              		.cfi_def_cfa 7, 8
 2043 0e21 C3       		ret
 2044              		.cfi_endproc
 2045              	.LFE1160:
 2046              		.section	.gcc_except_table
 2047              		.align 4
 2048              	.LLSDA1160:
 2049 0160 FF       		.byte	0xff
 2050 0161 9B       		.byte	0x9b
 2051 0162 8401     		.uleb128 .LLSDATT1160-.LLSDATTD1160
 2052              	.LLSDATTD1160:
 2053 0164 01       		.byte	0x1
 2054 0165 7B       		.uleb128 .LLSDACSE1160-.LLSDACSB1160
 2055              	.LLSDACSB1160:
 2056 0166 36       		.uleb128 .LEHB63-.LFB1160
 2057 0167 05       		.uleb128 .LEHE63-.LEHB63
 2058 0168 00       		.uleb128 0
 2059 0169 00       		.uleb128 0
 2060 016a 3E       		.uleb128 .LEHB64-.LFB1160
 2061 016b 3F       		.uleb128 .LEHE64-.LEHB64
 2062 016c E003     		.uleb128 .L104-.LFB1160
 2063 016e 01       		.uleb128 0x1
 2064 016f A001     		.uleb128 .LEHB65-.LFB1160
 2065 0171 05       		.uleb128 .LEHE65-.LEHB65
 2066 0172 00       		.uleb128 0
 2067 0173 00       		.uleb128 0
 2068 0174 A801     		.uleb128 .LEHB66-.LFB1160
 2069 0176 3F       		.uleb128 .LEHE66-.LEHB66
 2070 0177 C704     		.uleb128 .L106-.LFB1160
 2071 0179 01       		.uleb128 0x1
 2072 017a E701     		.uleb128 .LEHB67-.LFB1160
 2073 017c 4A       		.uleb128 .LEHE67-.LEHB67
 2074 017d AE05     		.uleb128 .L108-.LFB1160
 2075 017f 01       		.uleb128 0x1
 2076 0180 B102     		.uleb128 .LEHB68-.LFB1160
 2077 0182 4A       		.uleb128 .LEHE68-.LEHB68
 2078 0183 9506     		.uleb128 .L110-.LFB1160
 2079 0185 01       		.uleb128 0x1
 2080 0186 FB02     		.uleb128 .LEHB69-.LFB1160
 2081 0188 40       		.uleb128 .LEHE69-.LEHB69
 2082 0189 FC06     		.uleb128 .L112-.LFB1160
 2083 018b 01       		.uleb128 0x1
 2084 018c C203     		.uleb128 .LEHB70-.LFB1160
 2085 018e 05       		.uleb128 .LEHE70-.LEHB70
 2086 018f 00       		.uleb128 0
 2087 0190 00       		.uleb128 0
 2088 0191 EC03     		.uleb128 .LEHB71-.LFB1160
 2089 0193 3A       		.uleb128 .LEHE71-.LEHB71
 2090 0194 B004     		.uleb128 .L105-.LFB1160
 2091 0196 00       		.uleb128 0
 2092 0197 A604     		.uleb128 .LEHB72-.LFB1160
 2093 0199 05       		.uleb128 .LEHE72-.LEHB72
 2094 019a 00       		.uleb128 0
 2095 019b 00       		.uleb128 0
 2096 019c C204     		.uleb128 .LEHB73-.LFB1160
 2097 019e 05       		.uleb128 .LEHE73-.LEHB73
 2098 019f 00       		.uleb128 0
 2099 01a0 00       		.uleb128 0
 2100 01a1 D304     		.uleb128 .LEHB74-.LFB1160
 2101 01a3 3A       		.uleb128 .LEHE74-.LEHB74
 2102 01a4 9705     		.uleb128 .L107-.LFB1160
 2103 01a6 00       		.uleb128 0
 2104 01a7 8D05     		.uleb128 .LEHB75-.LFB1160
 2105 01a9 05       		.uleb128 .LEHE75-.LEHB75
 2106 01aa 00       		.uleb128 0
 2107 01ab 00       		.uleb128 0
 2108 01ac A905     		.uleb128 .LEHB76-.LFB1160
 2109 01ae 05       		.uleb128 .LEHE76-.LEHB76
 2110 01af 00       		.uleb128 0
 2111 01b0 00       		.uleb128 0
 2112 01b1 BA05     		.uleb128 .LEHB77-.LFB1160
 2113 01b3 3A       		.uleb128 .LEHE77-.LEHB77
 2114 01b4 FE05     		.uleb128 .L109-.LFB1160
 2115 01b6 00       		.uleb128 0
 2116 01b7 F405     		.uleb128 .LEHB78-.LFB1160
 2117 01b9 05       		.uleb128 .LEHE78-.LEHB78
 2118 01ba 00       		.uleb128 0
 2119 01bb 00       		.uleb128 0
 2120 01bc 9006     		.uleb128 .LEHB79-.LFB1160
 2121 01be 05       		.uleb128 .LEHE79-.LEHB79
 2122 01bf 00       		.uleb128 0
 2123 01c0 00       		.uleb128 0
 2124 01c1 A106     		.uleb128 .LEHB80-.LFB1160
 2125 01c3 3A       		.uleb128 .LEHE80-.LEHB80
 2126 01c4 E506     		.uleb128 .L111-.LFB1160
 2127 01c6 00       		.uleb128 0
 2128 01c7 DB06     		.uleb128 .LEHB81-.LFB1160
 2129 01c9 05       		.uleb128 .LEHE81-.LEHB81
 2130 01ca 00       		.uleb128 0
 2131 01cb 00       		.uleb128 0
 2132 01cc F706     		.uleb128 .LEHB82-.LFB1160
 2133 01ce 05       		.uleb128 .LEHE82-.LEHB82
 2134 01cf 00       		.uleb128 0
 2135 01d0 00       		.uleb128 0
 2136 01d1 8807     		.uleb128 .LEHB83-.LFB1160
 2137 01d3 3A       		.uleb128 .LEHE83-.LEHB83
 2138 01d4 CC07     		.uleb128 .L113-.LFB1160
 2139 01d6 00       		.uleb128 0
 2140 01d7 C207     		.uleb128 .LEHB84-.LFB1160
 2141 01d9 05       		.uleb128 .LEHE84-.LEHB84
 2142 01da 00       		.uleb128 0
 2143 01db 00       		.uleb128 0
 2144 01dc DE07     		.uleb128 .LEHB85-.LFB1160
 2145 01de 05       		.uleb128 .LEHE85-.LEHB85
 2146 01df 00       		.uleb128 0
 2147 01e0 00       		.uleb128 0
 2148              	.LLSDACSE1160:
 2149 01e1 01       		.byte	0x1
 2150 01e2 00       		.byte	0
 2151 01e3 00       		.align 4
 2152 01e4 00000000 		.long	0
 2153              	
 2154              	.LLSDATT1160:
 2155              		.text
 2157              		.section	.rodata
 2158              	.LC12:
 2159 01dc 436F7265 		.string	"Core_testLargeAppendBlock"
 2159      5F746573 
 2159      744C6172 
 2159      67654170 
 2159      70656E64 
 2160              		.section	.text._ZN29TestCore_testLargeAppendBlockC2Ev,"axG",@progbits,_ZN29TestCore_testLargeAppen
 2161              		.align 2
 2162              		.weak	_ZN29TestCore_testLargeAppendBlockC2Ev
 2164              	_ZN29TestCore_testLargeAppendBlockC2Ev:
 2165              	.LFB1162:
  75:testCore.cpp  **** 
  76:testCore.cpp  **** TEST(Core_testLargeAppendBlock) {
 2166              		.loc 3 76 1
 2167              		.cfi_startproc
 2168 0000 F30F1EFA 		endbr64
 2169 0004 55       		pushq	%rbp
 2170              		.cfi_def_cfa_offset 16
 2171              		.cfi_offset 6, -16
 2172 0005 4889E5   		movq	%rsp, %rbp
 2173              		.cfi_def_cfa_register 6
 2174 0008 53       		pushq	%rbx
 2175 0009 4883EC18 		subq	$24, %rsp
 2176              		.cfi_offset 3, -24
 2177 000d 48897DE8 		movq	%rdi, -24(%rbp)
 2178              	.LBB8:
 2179              		.loc 3 76 1
 2180 0011 488B5DE8 		movq	-24(%rbp), %rbx
 2181 0015 E8000000 		call	_ZN13UnitTestSuite12GetSuiteNameEv
 2181      00
 2182 001a 4889C2   		movq	%rax, %rdx
 2183 001d 41B84C00 		movl	$76, %r8d
 2183      0000
 2184 0023 488D0500 		leaq	.LC1(%rip), %rax
 2184      000000
 2185 002a 4889C1   		movq	%rax, %rcx
 2186 002d 488D0500 		leaq	.LC12(%rip), %rax
 2186      000000
 2187 0034 4889C6   		movq	%rax, %rsi
 2188 0037 4889DF   		movq	%rbx, %rdi
 2189 003a E8000000 		call	_ZN8UnitTest4TestC2EPKcS2_S2_i@PLT
 2189      00
 2190 003f 488D1500 		leaq	16+_ZTV29TestCore_testLargeAppendBlock(%rip), %rdx
 2190      000000
 2191 0046 488B45E8 		movq	-24(%rbp), %rax
 2192 004a 488910   		movq	%rdx, (%rax)
 2193              	.LBE8:
 2194 004d 90       		nop
 2195 004e 488B5DF8 		movq	-8(%rbp), %rbx
 2196 0052 C9       		leave
 2197              		.cfi_def_cfa 7, 8
 2198 0053 C3       		ret
 2199              		.cfi_endproc
 2200              	.LFE1162:
 2202              		.weak	_ZN29TestCore_testLargeAppendBlockC1Ev
 2203              		.set	_ZN29TestCore_testLargeAppendBlockC1Ev,_ZN29TestCore_testLargeAppendBlockC2Ev
 2204              		.globl	testCore_testLargeAppendBlockInstance
 2205              		.bss
 2206 00f9 00000000 		.align 32
 2206      000000
 2209              	testCore_testLargeAppendBlockInstance:
 2210 0100 00000000 		.zero	56
 2210      00000000 
 2210      00000000 
 2210      00000000 
 2210      00000000 
 2211              		.globl	adderCore_testLargeAppendBlock
 2214              	adderCore_testLargeAppendBlock:
 2215 0138 00       		.zero	1
 2216              		.section	.rodata
 2217 01f6 0000     		.align 8
 2218              	.LC13:
 2219 01f8 556E6861 		.string	"Unhandled exception in CHECK_EQUAL(16UL, buf.capacity)"
 2219      6E646C65 
 2219      64206578 
 2219      63657074 
 2219      696F6E20 
 2220 022f 00       		.align 8
 2221              	.LC14:
 2222 0230 556E6861 		.string	"Unhandled exception in CHECK_EQUAL(9UL, buf.length)"
 2222      6E646C65 
 2222      64206578 
 2222      63657074 
 2222      696F6E20 
 2223              		.text
 2224              		.align 2
 2225              		.globl	_ZNK29TestCore_testLargeAppendBlock7RunImplEv
 2227              	_ZNK29TestCore_testLargeAppendBlock7RunImplEv:
 2228              	.LFB1164:
 2229              		.loc 3 76 33
 2230              		.cfi_startproc
 2231              		.cfi_personality 0x9b,DW.ref.__gxx_personality_v0
 2232              		.cfi_lsda 0x1b,.LLSDA1164
 2233 0e22 F30F1EFA 		endbr64
 2234 0e26 55       		pushq	%rbp
 2235              		.cfi_def_cfa_offset 16
 2236              		.cfi_offset 6, -16
 2237 0e27 4889E5   		movq	%rsp, %rbp
 2238              		.cfi_def_cfa_register 6
 2239 0e2a 53       		pushq	%rbx
 2240 0e2b 4881EC88 		subq	$136, %rsp
 2240      000000
 2241              		.cfi_offset 3, -24
 2242 0e32 4889BD78 		movq	%rdi, -136(%rbp)
 2242      FFFFFF
 2243              		.loc 3 76 33
 2244 0e39 64488B04 		movq	%fs:40, %rax
 2244      25280000 
 2244      00
 2245 0e42 488945E8 		movq	%rax, -24(%rbp)
 2246 0e46 31C0     		xorl	%eax, %eax
  77:testCore.cpp  **** 	Buffer buf;
  78:testCore.cpp  **** 	BufferStatus status;
  79:testCore.cpp  **** 
  80:testCore.cpp  **** 	status = bufInitialise(&buf, 8, 0, NULL);
 2247              		.loc 3 80 24
 2248 0e48 488D4590 		leaq	-112(%rbp), %rax
 2249 0e4c B9000000 		movl	$0, %ecx
 2249      00
 2250 0e51 BA000000 		movl	$0, %edx
 2250      00
 2251 0e56 BE080000 		movl	$8, %esi
 2251      00
 2252 0e5b 4889C7   		movq	%rax, %rdi
 2253              	.LEHB86:
 2254 0e5e E8000000 		call	bufInitialise@PLT
 2254      00
 2255              	.LEHE86:
 2256              		.loc 3 80 9
 2257 0e63 894584   		movl	%eax, -124(%rbp)
 2258              	.LEHB87:
  81:testCore.cpp  **** 	CHECK_EQUAL(BUF_SUCCESS, status);
 2259              		.loc 3 81 2
 2260 0e66 E8000000 		call	_ZN8UnitTest11CurrentTest7DetailsEv@PLT
 2260      00
 2261 0e6b 488B08   		movq	(%rax), %rcx
 2262 0e6e 488D45B0 		leaq	-80(%rbp), %rax
 2263 0e72 BA510000 		movl	$81, %edx
 2263      00
 2264 0e77 4889CE   		movq	%rcx, %rsi
 2265 0e7a 4889C7   		movq	%rax, %rdi
 2266 0e7d E8000000 		call	_ZN8UnitTest11TestDetailsC1ERKS0_i@PLT
 2266      00
 2267              		.loc 3 81 2 is_stmt 0 discriminator 4
 2268 0e82 C7458800 		movl	$0, -120(%rbp)
 2268      000000
 2269 0e89 E8000000 		call	_ZN8UnitTest11CurrentTest7ResultsEv@PLT
 2269      00
 2270 0e8e 488B00   		movq	(%rax), %rax
 2271 0e91 488D4DB0 		leaq	-80(%rbp), %rcx
 2272 0e95 488D5584 		leaq	-124(%rbp), %rdx
 2273 0e99 488D7588 		leaq	-120(%rbp), %rsi
 2274 0e9d 4889C7   		movq	%rax, %rdi
 2275 0ea0 E8000000 		call	_ZN8UnitTest10CheckEqualI12BufferStatusS1_EEvRNS_11TestResultsERKT_RKT0_RKNS_11TestDetailsE
 2275      00
 2276              	.LEHE87:
 2277              	.L118:
  82:testCore.cpp  **** 
  83:testCore.cpp  **** 	const unsigned char expected[] = {1, 2, 3, 4, 5, 6, 7, 8, 9, 0, 0, 0, 0, 0, 0, 0};
 2278              		.loc 3 83 22 is_stmt 1
 2279 0ea5 48B80102 		movabsq	$578437695752307201, %rax
 2279      03040506 
 2279      0708
 2280 0eaf BA090000 		movl	$9, %edx
 2280      00
 2281 0eb4 488945D0 		movq	%rax, -48(%rbp)
 2282 0eb8 488955D8 		movq	%rdx, -40(%rbp)
  84:testCore.cpp  **** 	status = bufAppendBlock(&buf, expected, 9, NULL);
 2283              		.loc 3 84 25
 2284 0ebc 488D75D0 		leaq	-48(%rbp), %rsi
 2285 0ec0 488D4590 		leaq	-112(%rbp), %rax
 2286 0ec4 B9000000 		movl	$0, %ecx
 2286      00
 2287 0ec9 BA090000 		movl	$9, %edx
 2287      00
 2288 0ece 4889C7   		movq	%rax, %rdi
 2289              	.LEHB88:
 2290 0ed1 E8000000 		call	bufAppendBlock@PLT
 2290      00
 2291              	.LEHE88:
 2292              		.loc 3 84 9
 2293 0ed6 894584   		movl	%eax, -124(%rbp)
 2294              	.LEHB89:
  85:testCore.cpp  **** 	CHECK_EQUAL(BUF_SUCCESS, status);
 2295              		.loc 3 85 2
 2296 0ed9 E8000000 		call	_ZN8UnitTest11CurrentTest7DetailsEv@PLT
 2296      00
 2297 0ede 488B08   		movq	(%rax), %rcx
 2298 0ee1 488D45B0 		leaq	-80(%rbp), %rax
 2299 0ee5 BA550000 		movl	$85, %edx
 2299      00
 2300 0eea 4889CE   		movq	%rcx, %rsi
 2301 0eed 4889C7   		movq	%rax, %rdi
 2302 0ef0 E8000000 		call	_ZN8UnitTest11TestDetailsC1ERKS0_i@PLT
 2302      00
 2303              		.loc 3 85 2 is_stmt 0 discriminator 4
 2304 0ef5 C7458800 		movl	$0, -120(%rbp)
 2304      000000
 2305 0efc E8000000 		call	_ZN8UnitTest11CurrentTest7ResultsEv@PLT
 2305      00
 2306 0f01 488B00   		movq	(%rax), %rax
 2307 0f04 488D4DB0 		leaq	-80(%rbp), %rcx
 2308 0f08 488D5584 		leaq	-124(%rbp), %rdx
 2309 0f0c 488D7588 		leaq	-120(%rbp), %rsi
 2310 0f10 4889C7   		movq	%rax, %rdi
 2311 0f13 E8000000 		call	_ZN8UnitTest10CheckEqualI12BufferStatusS1_EEvRNS_11TestResultsERKT_RKT0_RKNS_11TestDetailsE
 2311      00
 2312              	.LEHE89:
 2313              	.L121:
 2314              	.LEHB90:
  86:testCore.cpp  **** 	CHECK_EQUAL(16UL, buf.capacity);
 2315              		.loc 3 86 2 is_stmt 1
 2316 0f18 E8000000 		call	_ZN8UnitTest11CurrentTest7DetailsEv@PLT
 2316      00
 2317 0f1d 488B08   		movq	(%rax), %rcx
 2318 0f20 488D45B0 		leaq	-80(%rbp), %rax
 2319 0f24 BA560000 		movl	$86, %edx
 2319      00
 2320 0f29 4889CE   		movq	%rcx, %rsi
 2321 0f2c 4889C7   		movq	%rax, %rdi
 2322 0f2f E8000000 		call	_ZN8UnitTest11TestDetailsC1ERKS0_i@PLT
 2322      00
 2323              		.loc 3 86 2 is_stmt 0 discriminator 4
 2324 0f34 48C74588 		movq	$16, -120(%rbp)
 2324      10000000 
 2325 0f3c E8000000 		call	_ZN8UnitTest11CurrentTest7ResultsEv@PLT
 2325      00
 2326 0f41 488B00   		movq	(%rax), %rax
 2327 0f44 488D55B0 		leaq	-80(%rbp), %rdx
 2328 0f48 488D4D90 		leaq	-112(%rbp), %rcx
 2329 0f4c 488D7910 		leaq	16(%rcx), %rdi
 2330 0f50 488D7588 		leaq	-120(%rbp), %rsi
 2331 0f54 4889D1   		movq	%rdx, %rcx
 2332 0f57 4889FA   		movq	%rdi, %rdx
 2333 0f5a 4889C7   		movq	%rax, %rdi
 2334 0f5d E8000000 		call	_ZN8UnitTest10CheckEqualImmEEvRNS_11TestResultsERKT_RKT0_RKNS_11TestDetailsE
 2334      00
 2335              	.LEHE90:
 2336              	.L124:
 2337              	.LEHB91:
  87:testCore.cpp  **** 	CHECK_EQUAL(9UL, buf.length);
 2338              		.loc 3 87 2 is_stmt 1
 2339 0f62 E8000000 		call	_ZN8UnitTest11CurrentTest7DetailsEv@PLT
 2339      00
 2340 0f67 488B08   		movq	(%rax), %rcx
 2341 0f6a 488D45B0 		leaq	-80(%rbp), %rax
 2342 0f6e BA570000 		movl	$87, %edx
 2342      00
 2343 0f73 4889CE   		movq	%rcx, %rsi
 2344 0f76 4889C7   		movq	%rax, %rdi
 2345 0f79 E8000000 		call	_ZN8UnitTest11TestDetailsC1ERKS0_i@PLT
 2345      00
 2346              		.loc 3 87 2 is_stmt 0 discriminator 4
 2347 0f7e 48C74588 		movq	$9, -120(%rbp)
 2347      09000000 
 2348 0f86 E8000000 		call	_ZN8UnitTest11CurrentTest7ResultsEv@PLT
 2348      00
 2349 0f8b 488B00   		movq	(%rax), %rax
 2350 0f8e 488D55B0 		leaq	-80(%rbp), %rdx
 2351 0f92 488D4D90 		leaq	-112(%rbp), %rcx
 2352 0f96 488D7908 		leaq	8(%rcx), %rdi
 2353 0f9a 488D7588 		leaq	-120(%rbp), %rsi
 2354 0f9e 4889D1   		movq	%rdx, %rcx
 2355 0fa1 4889FA   		movq	%rdi, %rdx
 2356 0fa4 4889C7   		movq	%rax, %rdi
 2357 0fa7 E8000000 		call	_ZN8UnitTest10CheckEqualImmEEvRNS_11TestResultsERKT_RKT0_RKNS_11TestDetailsE
 2357      00
 2358              	.LEHE91:
 2359              	.L127:
 2360              	.LEHB92:
  88:testCore.cpp  **** 	CHECK_ARRAY_EQUAL(expected, buf.data, 16);
 2361              		.loc 3 88 2 is_stmt 1
 2362 0fac E8000000 		call	_ZN8UnitTest11CurrentTest7DetailsEv@PLT
 2362      00
 2363 0fb1 488B08   		movq	(%rax), %rcx
 2364 0fb4 488D45B0 		leaq	-80(%rbp), %rax
 2365 0fb8 BA580000 		movl	$88, %edx
 2365      00
 2366 0fbd 4889CE   		movq	%rcx, %rsi
 2367 0fc0 4889C7   		movq	%rax, %rdi
 2368 0fc3 E8000000 		call	_ZN8UnitTest11TestDetailsC1ERKS0_i@PLT
 2368      00
 2369              		.loc 3 88 2 is_stmt 0 discriminator 4
 2370 0fc8 E8000000 		call	_ZN8UnitTest11CurrentTest7ResultsEv@PLT
 2370      00
 2371 0fcd 488B00   		movq	(%rax), %rax
 2372 0fd0 488D4DB0 		leaq	-80(%rbp), %rcx
 2373 0fd4 488D5590 		leaq	-112(%rbp), %rdx
 2374 0fd8 488D75D0 		leaq	-48(%rbp), %rsi
 2375 0fdc 4989C8   		movq	%rcx, %r8
 2376 0fdf B9100000 		movl	$16, %ecx
 2376      00
 2377 0fe4 4889C7   		movq	%rax, %rdi
 2378 0fe7 E8000000 		call	_ZN8UnitTest15CheckArrayEqualIA16_hPhEEvRNS_11TestResultsERKT_RKT0_iRKNS_11TestDetailsE
 2378      00
 2379              	.LEHE92:
 2380              	.L130:
  89:testCore.cpp  **** 	bufDestroy(&buf);
 2381              		.loc 3 89 12 is_stmt 1
 2382 0fec 488D4590 		leaq	-112(%rbp), %rax
 2383 0ff0 4889C7   		movq	%rax, %rdi
 2384              	.LEHB93:
 2385 0ff3 E8000000 		call	bufDestroy@PLT
 2385      00
 2386              	.LEHE93:
  90:testCore.cpp  **** }
 2387              		.loc 3 90 1
 2388 0ff8 90       		nop
 2389 0ff9 488B45E8 		movq	-24(%rbp), %rax
 2390 0ffd 64482B04 		subq	%fs:40, %rax
 2390      25280000 
 2390      00
 2391 1006 0F840D02 		je	.L132
 2391      0000
 2392 100c E9030200 		jmp	.L143
 2392      00
 2393              	.L133:
 2394 1011 F30F1EFA 		endbr64
  81:testCore.cpp  **** 
 2395              		.loc 3 81 2
 2396 1015 4889C7   		movq	%rax, %rdi
 2397 1018 E8000000 		call	__cxa_begin_catch@PLT
 2397      00
 2398              	.LEHB94:
 2399 101d E8000000 		call	_ZN8UnitTest11CurrentTest7ResultsEv@PLT
 2399      00
  81:testCore.cpp  **** 
 2400              		.loc 3 81 2 is_stmt 0 discriminator 3
 2401 1022 488B18   		movq	(%rax), %rbx
 2402 1025 E8000000 		call	_ZN8UnitTest11CurrentTest7DetailsEv@PLT
 2402      00
  81:testCore.cpp  **** 
 2403              		.loc 3 81 2 discriminator 11
 2404 102a 488B08   		movq	(%rax), %rcx
 2405 102d 488D45B0 		leaq	-80(%rbp), %rax
 2406 1031 BA510000 		movl	$81, %edx
 2406      00
 2407 1036 4889CE   		movq	%rcx, %rsi
 2408 1039 4889C7   		movq	%rax, %rdi
 2409 103c E8000000 		call	_ZN8UnitTest11TestDetailsC1ERKS0_i@PLT
 2409      00
  81:testCore.cpp  **** 
 2410              		.loc 3 81 2 discriminator 15
 2411 1041 488D45B0 		leaq	-80(%rbp), %rax
 2412 1045 488D1500 		leaq	.LC3(%rip), %rdx
 2412      000000
 2413 104c 4889C6   		movq	%rax, %rsi
 2414 104f 4889DF   		movq	%rbx, %rdi
 2415 1052 E8000000 		call	_ZN8UnitTest11TestResults13OnTestFailureERKNS_11TestDetailsEPKc@PLT
 2415      00
 2416              	.LEHE94:
 2417              	.LEHB95:
  81:testCore.cpp  **** 
 2418              		.loc 3 81 2 discriminator 17
 2419 1057 E8000000 		call	__cxa_end_catch@PLT
 2419      00
 2420              	.LEHE95:
 2421 105c E944FEFF 		jmp	.L118
 2421      FF
 2422              	.L134:
 2423 1061 F30F1EFA 		endbr64
  81:testCore.cpp  **** 
 2424              		.loc 3 81 2
 2425 1065 4889C3   		movq	%rax, %rbx
 2426 1068 E8000000 		call	__cxa_end_catch@PLT
 2426      00
 2427 106d 4889D8   		movq	%rbx, %rax
 2428 1070 4889C7   		movq	%rax, %rdi
 2429              	.LEHB96:
 2430 1073 E8000000 		call	_Unwind_Resume@PLT
 2430      00
 2431              	.LEHE96:
 2432              	.L135:
 2433 1078 F30F1EFA 		endbr64
  85:testCore.cpp  **** 	CHECK_EQUAL(16UL, buf.capacity);
 2434              		.loc 3 85 2 is_stmt 1
 2435 107c 4889C7   		movq	%rax, %rdi
 2436 107f E8000000 		call	__cxa_begin_catch@PLT
 2436      00
 2437              	.LEHB97:
 2438 1084 E8000000 		call	_ZN8UnitTest11CurrentTest7ResultsEv@PLT
 2438      00
  85:testCore.cpp  **** 	CHECK_EQUAL(16UL, buf.capacity);
 2439              		.loc 3 85 2 is_stmt 0 discriminator 3
 2440 1089 488B18   		movq	(%rax), %rbx
 2441 108c E8000000 		call	_ZN8UnitTest11CurrentTest7DetailsEv@PLT
 2441      00
  85:testCore.cpp  **** 	CHECK_EQUAL(16UL, buf.capacity);
 2442              		.loc 3 85 2 discriminator 11
 2443 1091 488B08   		movq	(%rax), %rcx
 2444 1094 488D45B0 		leaq	-80(%rbp), %rax
 2445 1098 BA550000 		movl	$85, %edx
 2445      00
 2446 109d 4889CE   		movq	%rcx, %rsi
 2447 10a0 4889C7   		movq	%rax, %rdi
 2448 10a3 E8000000 		call	_ZN8UnitTest11TestDetailsC1ERKS0_i@PLT
 2448      00
  85:testCore.cpp  **** 	CHECK_EQUAL(16UL, buf.capacity);
 2449              		.loc 3 85 2 discriminator 15
 2450 10a8 488D45B0 		leaq	-80(%rbp), %rax
 2451 10ac 488D1500 		leaq	.LC3(%rip), %rdx
 2451      000000
 2452 10b3 4889C6   		movq	%rax, %rsi
 2453 10b6 4889DF   		movq	%rbx, %rdi
 2454 10b9 E8000000 		call	_ZN8UnitTest11TestResults13OnTestFailureERKNS_11TestDetailsEPKc@PLT
 2454      00
 2455              	.LEHE97:
 2456              	.LEHB98:
  85:testCore.cpp  **** 	CHECK_EQUAL(16UL, buf.capacity);
 2457              		.loc 3 85 2 discriminator 17
 2458 10be E8000000 		call	__cxa_end_catch@PLT
 2458      00
 2459              	.LEHE98:
 2460 10c3 E950FEFF 		jmp	.L121
 2460      FF
 2461              	.L136:
 2462 10c8 F30F1EFA 		endbr64
  85:testCore.cpp  **** 	CHECK_EQUAL(16UL, buf.capacity);
 2463              		.loc 3 85 2
 2464 10cc 4889C3   		movq	%rax, %rbx
 2465 10cf E8000000 		call	__cxa_end_catch@PLT
 2465      00
 2466 10d4 4889D8   		movq	%rbx, %rax
 2467 10d7 4889C7   		movq	%rax, %rdi
 2468              	.LEHB99:
 2469 10da E8000000 		call	_Unwind_Resume@PLT
 2469      00
 2470              	.LEHE99:
 2471              	.L137:
 2472 10df F30F1EFA 		endbr64
  86:testCore.cpp  **** 	CHECK_EQUAL(9UL, buf.length);
 2473              		.loc 3 86 2 is_stmt 1
 2474 10e3 4889C7   		movq	%rax, %rdi
 2475 10e6 E8000000 		call	__cxa_begin_catch@PLT
 2475      00
 2476              	.LEHB100:
 2477 10eb E8000000 		call	_ZN8UnitTest11CurrentTest7ResultsEv@PLT
 2477      00
  86:testCore.cpp  **** 	CHECK_EQUAL(9UL, buf.length);
 2478              		.loc 3 86 2 is_stmt 0 discriminator 3
 2479 10f0 488B18   		movq	(%rax), %rbx
 2480 10f3 E8000000 		call	_ZN8UnitTest11CurrentTest7DetailsEv@PLT
 2480      00
  86:testCore.cpp  **** 	CHECK_EQUAL(9UL, buf.length);
 2481              		.loc 3 86 2 discriminator 11
 2482 10f8 488B08   		movq	(%rax), %rcx
 2483 10fb 488D45B0 		leaq	-80(%rbp), %rax
 2484 10ff BA560000 		movl	$86, %edx
 2484      00
 2485 1104 4889CE   		movq	%rcx, %rsi
 2486 1107 4889C7   		movq	%rax, %rdi
 2487 110a E8000000 		call	_ZN8UnitTest11TestDetailsC1ERKS0_i@PLT
 2487      00
  86:testCore.cpp  **** 	CHECK_EQUAL(9UL, buf.length);
 2488              		.loc 3 86 2 discriminator 15
 2489 110f 488D45B0 		leaq	-80(%rbp), %rax
 2490 1113 488D1500 		leaq	.LC13(%rip), %rdx
 2490      000000
 2491 111a 4889C6   		movq	%rax, %rsi
 2492 111d 4889DF   		movq	%rbx, %rdi
 2493 1120 E8000000 		call	_ZN8UnitTest11TestResults13OnTestFailureERKNS_11TestDetailsEPKc@PLT
 2493      00
 2494              	.LEHE100:
 2495              	.LEHB101:
  86:testCore.cpp  **** 	CHECK_EQUAL(9UL, buf.length);
 2496              		.loc 3 86 2 discriminator 17
 2497 1125 E8000000 		call	__cxa_end_catch@PLT
 2497      00
 2498              	.LEHE101:
 2499 112a E933FEFF 		jmp	.L124
 2499      FF
 2500              	.L138:
 2501 112f F30F1EFA 		endbr64
  86:testCore.cpp  **** 	CHECK_EQUAL(9UL, buf.length);
 2502              		.loc 3 86 2
 2503 1133 4889C3   		movq	%rax, %rbx
 2504 1136 E8000000 		call	__cxa_end_catch@PLT
 2504      00
 2505 113b 4889D8   		movq	%rbx, %rax
 2506 113e 4889C7   		movq	%rax, %rdi
 2507              	.LEHB102:
 2508 1141 E8000000 		call	_Unwind_Resume@PLT
 2508      00
 2509              	.LEHE102:
 2510              	.L139:
 2511 1146 F30F1EFA 		endbr64
  87:testCore.cpp  **** 	CHECK_ARRAY_EQUAL(expected, buf.data, 16);
 2512              		.loc 3 87 2 is_stmt 1
 2513 114a 4889C7   		movq	%rax, %rdi
 2514 114d E8000000 		call	__cxa_begin_catch@PLT
 2514      00
 2515              	.LEHB103:
 2516 1152 E8000000 		call	_ZN8UnitTest11CurrentTest7ResultsEv@PLT
 2516      00
  87:testCore.cpp  **** 	CHECK_ARRAY_EQUAL(expected, buf.data, 16);
 2517              		.loc 3 87 2 is_stmt 0 discriminator 3
 2518 1157 488B18   		movq	(%rax), %rbx
 2519 115a E8000000 		call	_ZN8UnitTest11CurrentTest7DetailsEv@PLT
 2519      00
  87:testCore.cpp  **** 	CHECK_ARRAY_EQUAL(expected, buf.data, 16);
 2520              		.loc 3 87 2 discriminator 11
 2521 115f 488B08   		movq	(%rax), %rcx
 2522 1162 488D45B0 		leaq	-80(%rbp), %rax
 2523 1166 BA570000 		movl	$87, %edx
 2523      00
 2524 116b 4889CE   		movq	%rcx, %rsi
 2525 116e 4889C7   		movq	%rax, %rdi
 2526 1171 E8000000 		call	_ZN8UnitTest11TestDetailsC1ERKS0_i@PLT
 2526      00
  87:testCore.cpp  **** 	CHECK_ARRAY_EQUAL(expected, buf.data, 16);
 2527              		.loc 3 87 2 discriminator 15
 2528 1176 488D45B0 		leaq	-80(%rbp), %rax
 2529 117a 488D1500 		leaq	.LC14(%rip), %rdx
 2529      000000
 2530 1181 4889C6   		movq	%rax, %rsi
 2531 1184 4889DF   		movq	%rbx, %rdi
 2532 1187 E8000000 		call	_ZN8UnitTest11TestResults13OnTestFailureERKNS_11TestDetailsEPKc@PLT
 2532      00
 2533              	.LEHE103:
 2534              	.LEHB104:
  87:testCore.cpp  **** 	CHECK_ARRAY_EQUAL(expected, buf.data, 16);
 2535              		.loc 3 87 2 discriminator 17
 2536 118c E8000000 		call	__cxa_end_catch@PLT
 2536      00
 2537              	.LEHE104:
 2538 1191 E916FEFF 		jmp	.L127
 2538      FF
 2539              	.L140:
 2540 1196 F30F1EFA 		endbr64
  87:testCore.cpp  **** 	CHECK_ARRAY_EQUAL(expected, buf.data, 16);
 2541              		.loc 3 87 2
 2542 119a 4889C3   		movq	%rax, %rbx
 2543 119d E8000000 		call	__cxa_end_catch@PLT
 2543      00
 2544 11a2 4889D8   		movq	%rbx, %rax
 2545 11a5 4889C7   		movq	%rax, %rdi
 2546              	.LEHB105:
 2547 11a8 E8000000 		call	_Unwind_Resume@PLT
 2547      00
 2548              	.LEHE105:
 2549              	.L141:
 2550 11ad F30F1EFA 		endbr64
  88:testCore.cpp  **** 	bufDestroy(&buf);
 2551              		.loc 3 88 2 is_stmt 1
 2552 11b1 4889C7   		movq	%rax, %rdi
 2553 11b4 E8000000 		call	__cxa_begin_catch@PLT
 2553      00
 2554              	.LEHB106:
 2555 11b9 E8000000 		call	_ZN8UnitTest11CurrentTest7ResultsEv@PLT
 2555      00
  88:testCore.cpp  **** 	bufDestroy(&buf);
 2556              		.loc 3 88 2 is_stmt 0 discriminator 3
 2557 11be 488B18   		movq	(%rax), %rbx
 2558 11c1 E8000000 		call	_ZN8UnitTest11CurrentTest7DetailsEv@PLT
 2558      00
  88:testCore.cpp  **** 	bufDestroy(&buf);
 2559              		.loc 3 88 2 discriminator 11
 2560 11c6 488B08   		movq	(%rax), %rcx
 2561 11c9 488D45B0 		leaq	-80(%rbp), %rax
 2562 11cd BA580000 		movl	$88, %edx
 2562      00
 2563 11d2 4889CE   		movq	%rcx, %rsi
 2564 11d5 4889C7   		movq	%rax, %rdi
 2565 11d8 E8000000 		call	_ZN8UnitTest11TestDetailsC1ERKS0_i@PLT
 2565      00
  88:testCore.cpp  **** 	bufDestroy(&buf);
 2566              		.loc 3 88 2 discriminator 15
 2567 11dd 488D45B0 		leaq	-80(%rbp), %rax
 2568 11e1 488D1500 		leaq	.LC6(%rip), %rdx
 2568      000000
 2569 11e8 4889C6   		movq	%rax, %rsi
 2570 11eb 4889DF   		movq	%rbx, %rdi
 2571 11ee E8000000 		call	_ZN8UnitTest11TestResults13OnTestFailureERKNS_11TestDetailsEPKc@PLT
 2571      00
 2572              	.LEHE106:
 2573              	.LEHB107:
  88:testCore.cpp  **** 	bufDestroy(&buf);
 2574              		.loc 3 88 2 discriminator 17
 2575 11f3 E8000000 		call	__cxa_end_catch@PLT
 2575      00
 2576              	.LEHE107:
 2577 11f8 E9EFFDFF 		jmp	.L130
 2577      FF
 2578              	.L142:
 2579 11fd F30F1EFA 		endbr64
  88:testCore.cpp  **** 	bufDestroy(&buf);
 2580              		.loc 3 88 2
 2581 1201 4889C3   		movq	%rax, %rbx
 2582 1204 E8000000 		call	__cxa_end_catch@PLT
 2582      00
 2583 1209 4889D8   		movq	%rbx, %rax
 2584 120c 4889C7   		movq	%rax, %rdi
 2585              	.LEHB108:
 2586 120f E8000000 		call	_Unwind_Resume@PLT
 2586      00
 2587              	.LEHE108:
 2588              	.L143:
 2589              		.loc 3 90 1 is_stmt 1
 2590 1214 E8000000 		call	__stack_chk_fail@PLT
 2590      00
 2591              	.L132:
 2592 1219 488B5DF8 		movq	-8(%rbp), %rbx
 2593 121d C9       		leave
 2594              		.cfi_def_cfa 7, 8
 2595 121e C3       		ret
 2596              		.cfi_endproc
 2597              	.LFE1164:
 2598              		.section	.gcc_except_table
 2599              		.align 4
 2600              	.LLSDA1164:
 2601 01e8 FF       		.byte	0xff
 2602 01e9 9B       		.byte	0x9b
 2603 01ea 8401     		.uleb128 .LLSDATT1164-.LLSDATTD1164
 2604              	.LLSDATTD1164:
 2605 01ec 01       		.byte	0x1
 2606 01ed 7B       		.uleb128 .LLSDACSE1164-.LLSDACSB1164
 2607              	.LLSDACSB1164:
 2608 01ee 3C       		.uleb128 .LEHB86-.LFB1164
 2609 01ef 05       		.uleb128 .LEHE86-.LEHB86
 2610 01f0 00       		.uleb128 0
 2611 01f1 00       		.uleb128 0
 2612 01f2 44       		.uleb128 .LEHB87-.LFB1164
 2613 01f3 3F       		.uleb128 .LEHE87-.LEHB87
 2614 01f4 EF03     		.uleb128 .L133-.LFB1164
 2615 01f6 01       		.uleb128 0x1
 2616 01f7 AF01     		.uleb128 .LEHB88-.LFB1164
 2617 01f9 05       		.uleb128 .LEHE88-.LEHB88
 2618 01fa 00       		.uleb128 0
 2619 01fb 00       		.uleb128 0
 2620 01fc B701     		.uleb128 .LEHB89-.LFB1164
 2621 01fe 3F       		.uleb128 .LEHE89-.LEHB89
 2622 01ff D604     		.uleb128 .L135-.LFB1164
 2623 0201 01       		.uleb128 0x1
 2624 0202 F601     		.uleb128 .LEHB90-.LFB1164
 2625 0204 4A       		.uleb128 .LEHE90-.LEHB90
 2626 0205 BD05     		.uleb128 .L137-.LFB1164
 2627 0207 01       		.uleb128 0x1
 2628 0208 C002     		.uleb128 .LEHB91-.LFB1164
 2629 020a 4A       		.uleb128 .LEHE91-.LEHB91
 2630 020b A406     		.uleb128 .L139-.LFB1164
 2631 020d 01       		.uleb128 0x1
 2632 020e 8A03     		.uleb128 .LEHB92-.LFB1164
 2633 0210 40       		.uleb128 .LEHE92-.LEHB92
 2634 0211 8B07     		.uleb128 .L141-.LFB1164
 2635 0213 01       		.uleb128 0x1
 2636 0214 D103     		.uleb128 .LEHB93-.LFB1164
 2637 0216 05       		.uleb128 .LEHE93-.LEHB93
 2638 0217 00       		.uleb128 0
 2639 0218 00       		.uleb128 0
 2640 0219 FB03     		.uleb128 .LEHB94-.LFB1164
 2641 021b 3A       		.uleb128 .LEHE94-.LEHB94
 2642 021c BF04     		.uleb128 .L134-.LFB1164
 2643 021e 00       		.uleb128 0
 2644 021f B504     		.uleb128 .LEHB95-.LFB1164
 2645 0221 05       		.uleb128 .LEHE95-.LEHB95
 2646 0222 00       		.uleb128 0
 2647 0223 00       		.uleb128 0
 2648 0224 D104     		.uleb128 .LEHB96-.LFB1164
 2649 0226 05       		.uleb128 .LEHE96-.LEHB96
 2650 0227 00       		.uleb128 0
 2651 0228 00       		.uleb128 0
 2652 0229 E204     		.uleb128 .LEHB97-.LFB1164
 2653 022b 3A       		.uleb128 .LEHE97-.LEHB97
 2654 022c A605     		.uleb128 .L136-.LFB1164
 2655 022e 00       		.uleb128 0
 2656 022f 9C05     		.uleb128 .LEHB98-.LFB1164
 2657 0231 05       		.uleb128 .LEHE98-.LEHB98
 2658 0232 00       		.uleb128 0
 2659 0233 00       		.uleb128 0
 2660 0234 B805     		.uleb128 .LEHB99-.LFB1164
 2661 0236 05       		.uleb128 .LEHE99-.LEHB99
 2662 0237 00       		.uleb128 0
 2663 0238 00       		.uleb128 0
 2664 0239 C905     		.uleb128 .LEHB100-.LFB1164
 2665 023b 3A       		.uleb128 .LEHE100-.LEHB100
 2666 023c 8D06     		.uleb128 .L138-.LFB1164
 2667 023e 00       		.uleb128 0
 2668 023f 8306     		.uleb128 .LEHB101-.LFB1164
 2669 0241 05       		.uleb128 .LEHE101-.LEHB101
 2670 0242 00       		.uleb128 0
 2671 0243 00       		.uleb128 0
 2672 0244 9F06     		.uleb128 .LEHB102-.LFB1164
 2673 0246 05       		.uleb128 .LEHE102-.LEHB102
 2674 0247 00       		.uleb128 0
 2675 0248 00       		.uleb128 0
 2676 0249 B006     		.uleb128 .LEHB103-.LFB1164
 2677 024b 3A       		.uleb128 .LEHE103-.LEHB103
 2678 024c F406     		.uleb128 .L140-.LFB1164
 2679 024e 00       		.uleb128 0
 2680 024f EA06     		.uleb128 .LEHB104-.LFB1164
 2681 0251 05       		.uleb128 .LEHE104-.LEHB104
 2682 0252 00       		.uleb128 0
 2683 0253 00       		.uleb128 0
 2684 0254 8607     		.uleb128 .LEHB105-.LFB1164
 2685 0256 05       		.uleb128 .LEHE105-.LEHB105
 2686 0257 00       		.uleb128 0
 2687 0258 00       		.uleb128 0
 2688 0259 9707     		.uleb128 .LEHB106-.LFB1164
 2689 025b 3A       		.uleb128 .LEHE106-.LEHB106
 2690 025c DB07     		.uleb128 .L142-.LFB1164
 2691 025e 00       		.uleb128 0
 2692 025f D107     		.uleb128 .LEHB107-.LFB1164
 2693 0261 05       		.uleb128 .LEHE107-.LEHB107
 2694 0262 00       		.uleb128 0
 2695 0263 00       		.uleb128 0
 2696 0264 ED07     		.uleb128 .LEHB108-.LFB1164
 2697 0266 05       		.uleb128 .LEHE108-.LEHB108
 2698 0267 00       		.uleb128 0
 2699 0268 00       		.uleb128 0
 2700              	.LLSDACSE1164:
 2701 0269 01       		.byte	0x1
 2702 026a 00       		.byte	0
 2703 026b 00       		.align 4
 2704 026c 00000000 		.long	0
 2705              	
 2706              	.LLSDATT1164:
 2707              		.text
 2709              		.section	.rodata
 2710 0264 00000000 		.align 8
 2711              	.LC15:
 2712 0268 436F7265 		.string	"Core_testVeryLargeAppendBlockInitZero"
 2712      5F746573 
 2712      74566572 
 2712      794C6172 
 2712      67654170 
 2713              		.section	.text._ZN41TestCore_testVeryLargeAppendBlockInitZeroC2Ev,"axG",@progbits,_ZN41TestCore_te
 2714              		.align 2
 2715              		.weak	_ZN41TestCore_testVeryLargeAppendBlockInitZeroC2Ev
 2717              	_ZN41TestCore_testVeryLargeAppendBlockInitZeroC2Ev:
 2718              	.LFB1166:
  91:testCore.cpp  **** 
  92:testCore.cpp  **** TEST(Core_testVeryLargeAppendBlockInitZero) {
 2719              		.loc 3 92 1
 2720              		.cfi_startproc
 2721 0000 F30F1EFA 		endbr64
 2722 0004 55       		pushq	%rbp
 2723              		.cfi_def_cfa_offset 16
 2724              		.cfi_offset 6, -16
 2725 0005 4889E5   		movq	%rsp, %rbp
 2726              		.cfi_def_cfa_register 6
 2727 0008 53       		pushq	%rbx
 2728 0009 4883EC18 		subq	$24, %rsp
 2729              		.cfi_offset 3, -24
 2730 000d 48897DE8 		movq	%rdi, -24(%rbp)
 2731              	.LBB9:
 2732              		.loc 3 92 1
 2733 0011 488B5DE8 		movq	-24(%rbp), %rbx
 2734 0015 E8000000 		call	_ZN13UnitTestSuite12GetSuiteNameEv
 2734      00
 2735 001a 4889C2   		movq	%rax, %rdx
 2736 001d 41B85C00 		movl	$92, %r8d
 2736      0000
 2737 0023 488D0500 		leaq	.LC1(%rip), %rax
 2737      000000
 2738 002a 4889C1   		movq	%rax, %rcx
 2739 002d 488D0500 		leaq	.LC15(%rip), %rax
 2739      000000
 2740 0034 4889C6   		movq	%rax, %rsi
 2741 0037 4889DF   		movq	%rbx, %rdi
 2742 003a E8000000 		call	_ZN8UnitTest4TestC2EPKcS2_S2_i@PLT
 2742      00
 2743 003f 488D1500 		leaq	16+_ZTV41TestCore_testVeryLargeAppendBlockInitZero(%rip), %rdx
 2743      000000
 2744 0046 488B45E8 		movq	-24(%rbp), %rax
 2745 004a 488910   		movq	%rdx, (%rax)
 2746              	.LBE9:
 2747 004d 90       		nop
 2748 004e 488B5DF8 		movq	-8(%rbp), %rbx
 2749 0052 C9       		leave
 2750              		.cfi_def_cfa 7, 8
 2751 0053 C3       		ret
 2752              		.cfi_endproc
 2753              	.LFE1166:
 2755              		.weak	_ZN41TestCore_testVeryLargeAppendBlockInitZeroC1Ev
 2756              		.set	_ZN41TestCore_testVeryLargeAppendBlockInitZeroC1Ev,_ZN41TestCore_testVeryLargeAppendBlockInit
 2757              		.globl	testCore_testVeryLargeAppendBlockInitZeroInstance
 2758              		.bss
 2759 0139 00000000 		.align 32
 2759      000000
 2762              	testCore_testVeryLargeAppendBlockInitZeroInstance:
 2763 0140 00000000 		.zero	56
 2763      00000000 
 2763      00000000 
 2763      00000000 
 2763      00000000 
 2764              		.globl	adderCore_testVeryLargeAppendBlockInitZero
 2767              	adderCore_testVeryLargeAppendBlockInitZero:
 2768 0178 00       		.zero	1
 2769              		.text
 2770 121f 90       		.align 2
 2771              		.globl	_ZNK41TestCore_testVeryLargeAppendBlockInitZero7RunImplEv
 2773              	_ZNK41TestCore_testVeryLargeAppendBlockInitZero7RunImplEv:
 2774              	.LFB1168:
 2775              		.loc 3 92 45
 2776              		.cfi_startproc
 2777              		.cfi_personality 0x9b,DW.ref.__gxx_personality_v0
 2778              		.cfi_lsda 0x1b,.LLSDA1168
 2779 1220 F30F1EFA 		endbr64
 2780 1224 55       		pushq	%rbp
 2781              		.cfi_def_cfa_offset 16
 2782              		.cfi_offset 6, -16
 2783 1225 4889E5   		movq	%rsp, %rbp
 2784              		.cfi_def_cfa_register 6
 2785 1228 53       		pushq	%rbx
 2786 1229 4881EC88 		subq	$136, %rsp
 2786      000000
 2787              		.cfi_offset 3, -24
 2788 1230 4889BD78 		movq	%rdi, -136(%rbp)
 2788      FFFFFF
 2789              		.loc 3 92 45
 2790 1237 64488B04 		movq	%fs:40, %rax
 2790      25280000 
 2790      00
 2791 1240 488945E8 		movq	%rax, -24(%rbp)
 2792 1244 31C0     		xorl	%eax, %eax
  93:testCore.cpp  **** 	Buffer buf;
  94:testCore.cpp  **** 	BufferStatus status;
  95:testCore.cpp  **** 
  96:testCore.cpp  **** 	status = bufInitialise(&buf, 4, 0, NULL);
 2793              		.loc 3 96 24
 2794 1246 488D4590 		leaq	-112(%rbp), %rax
 2795 124a B9000000 		movl	$0, %ecx
 2795      00
 2796 124f BA000000 		movl	$0, %edx
 2796      00
 2797 1254 BE040000 		movl	$4, %esi
 2797      00
 2798 1259 4889C7   		movq	%rax, %rdi
 2799              	.LEHB109:
 2800 125c E8000000 		call	bufInitialise@PLT
 2800      00
 2801              	.LEHE109:
 2802              		.loc 3 96 9
 2803 1261 894584   		movl	%eax, -124(%rbp)
 2804              	.LEHB110:
  97:testCore.cpp  **** 	CHECK_EQUAL(BUF_SUCCESS, status);
 2805              		.loc 3 97 2
 2806 1264 E8000000 		call	_ZN8UnitTest11CurrentTest7DetailsEv@PLT
 2806      00
 2807 1269 488B08   		movq	(%rax), %rcx
 2808 126c 488D45B0 		leaq	-80(%rbp), %rax
 2809 1270 BA610000 		movl	$97, %edx
 2809      00
 2810 1275 4889CE   		movq	%rcx, %rsi
 2811 1278 4889C7   		movq	%rax, %rdi
 2812 127b E8000000 		call	_ZN8UnitTest11TestDetailsC1ERKS0_i@PLT
 2812      00
 2813              		.loc 3 97 2 is_stmt 0 discriminator 4
 2814 1280 C7458800 		movl	$0, -120(%rbp)
 2814      000000
 2815 1287 E8000000 		call	_ZN8UnitTest11CurrentTest7ResultsEv@PLT
 2815      00
 2816 128c 488B00   		movq	(%rax), %rax
 2817 128f 488D4DB0 		leaq	-80(%rbp), %rcx
 2818 1293 488D5584 		leaq	-124(%rbp), %rdx
 2819 1297 488D7588 		leaq	-120(%rbp), %rsi
 2820 129b 4889C7   		movq	%rax, %rdi
 2821 129e E8000000 		call	_ZN8UnitTest10CheckEqualI12BufferStatusS1_EEvRNS_11TestResultsERKT_RKT0_RKNS_11TestDetailsE
 2821      00
 2822              	.LEHE110:
 2823              	.L147:
  98:testCore.cpp  **** 
  99:testCore.cpp  **** 	const unsigned char expected[] = {1, 2, 3, 4, 5, 6, 7, 8, 9, 0, 0, 0, 0, 0, 0, 0};
 2824              		.loc 3 99 22 is_stmt 1
 2825 12a3 48B80102 		movabsq	$578437695752307201, %rax
 2825      03040506 
 2825      0708
 2826 12ad BA090000 		movl	$9, %edx
 2826      00
 2827 12b2 488945D0 		movq	%rax, -48(%rbp)
 2828 12b6 488955D8 		movq	%rdx, -40(%rbp)
 100:testCore.cpp  **** 	status = bufAppendBlock(&buf, expected, 9, NULL);
 2829              		.loc 3 100 25
 2830 12ba 488D75D0 		leaq	-48(%rbp), %rsi
 2831 12be 488D4590 		leaq	-112(%rbp), %rax
 2832 12c2 B9000000 		movl	$0, %ecx
 2832      00
 2833 12c7 BA090000 		movl	$9, %edx
 2833      00
 2834 12cc 4889C7   		movq	%rax, %rdi
 2835              	.LEHB111:
 2836 12cf E8000000 		call	bufAppendBlock@PLT
 2836      00
 2837              	.LEHE111:
 2838              		.loc 3 100 9
 2839 12d4 894584   		movl	%eax, -124(%rbp)
 2840              	.LEHB112:
 101:testCore.cpp  **** 	CHECK_EQUAL(BUF_SUCCESS, status);
 2841              		.loc 3 101 2
 2842 12d7 E8000000 		call	_ZN8UnitTest11CurrentTest7DetailsEv@PLT
 2842      00
 2843 12dc 488B08   		movq	(%rax), %rcx
 2844 12df 488D45B0 		leaq	-80(%rbp), %rax
 2845 12e3 BA650000 		movl	$101, %edx
 2845      00
 2846 12e8 4889CE   		movq	%rcx, %rsi
 2847 12eb 4889C7   		movq	%rax, %rdi
 2848 12ee E8000000 		call	_ZN8UnitTest11TestDetailsC1ERKS0_i@PLT
 2848      00
 2849              		.loc 3 101 2 is_stmt 0 discriminator 4
 2850 12f3 C7458800 		movl	$0, -120(%rbp)
 2850      000000
 2851 12fa E8000000 		call	_ZN8UnitTest11CurrentTest7ResultsEv@PLT
 2851      00
 2852 12ff 488B00   		movq	(%rax), %rax
 2853 1302 488D4DB0 		leaq	-80(%rbp), %rcx
 2854 1306 488D5584 		leaq	-124(%rbp), %rdx
 2855 130a 488D7588 		leaq	-120(%rbp), %rsi
 2856 130e 4889C7   		movq	%rax, %rdi
 2857 1311 E8000000 		call	_ZN8UnitTest10CheckEqualI12BufferStatusS1_EEvRNS_11TestResultsERKT_RKT0_RKNS_11TestDetailsE
 2857      00
 2858              	.LEHE112:
 2859              	.L150:
 2860              	.LEHB113:
 102:testCore.cpp  **** 	CHECK_EQUAL(16UL, buf.capacity);
 2861              		.loc 3 102 2 is_stmt 1
 2862 1316 E8000000 		call	_ZN8UnitTest11CurrentTest7DetailsEv@PLT
 2862      00
 2863 131b 488B08   		movq	(%rax), %rcx
 2864 131e 488D45B0 		leaq	-80(%rbp), %rax
 2865 1322 BA660000 		movl	$102, %edx
 2865      00
 2866 1327 4889CE   		movq	%rcx, %rsi
 2867 132a 4889C7   		movq	%rax, %rdi
 2868 132d E8000000 		call	_ZN8UnitTest11TestDetailsC1ERKS0_i@PLT
 2868      00
 2869              		.loc 3 102 2 is_stmt 0 discriminator 4
 2870 1332 48C74588 		movq	$16, -120(%rbp)
 2870      10000000 
 2871 133a E8000000 		call	_ZN8UnitTest11CurrentTest7ResultsEv@PLT
 2871      00
 2872 133f 488B00   		movq	(%rax), %rax
 2873 1342 488D55B0 		leaq	-80(%rbp), %rdx
 2874 1346 488D4D90 		leaq	-112(%rbp), %rcx
 2875 134a 488D7910 		leaq	16(%rcx), %rdi
 2876 134e 488D7588 		leaq	-120(%rbp), %rsi
 2877 1352 4889D1   		movq	%rdx, %rcx
 2878 1355 4889FA   		movq	%rdi, %rdx
 2879 1358 4889C7   		movq	%rax, %rdi
 2880 135b E8000000 		call	_ZN8UnitTest10CheckEqualImmEEvRNS_11TestResultsERKT_RKT0_RKNS_11TestDetailsE
 2880      00
 2881              	.LEHE113:
 2882              	.L153:
 2883              	.LEHB114:
 103:testCore.cpp  **** 	CHECK_EQUAL(9UL, buf.length);
 2884              		.loc 3 103 2 is_stmt 1
 2885 1360 E8000000 		call	_ZN8UnitTest11CurrentTest7DetailsEv@PLT
 2885      00
 2886 1365 488B08   		movq	(%rax), %rcx
 2887 1368 488D45B0 		leaq	-80(%rbp), %rax
 2888 136c BA670000 		movl	$103, %edx
 2888      00
 2889 1371 4889CE   		movq	%rcx, %rsi
 2890 1374 4889C7   		movq	%rax, %rdi
 2891 1377 E8000000 		call	_ZN8UnitTest11TestDetailsC1ERKS0_i@PLT
 2891      00
 2892              		.loc 3 103 2 is_stmt 0 discriminator 4
 2893 137c 48C74588 		movq	$9, -120(%rbp)
 2893      09000000 
 2894 1384 E8000000 		call	_ZN8UnitTest11CurrentTest7ResultsEv@PLT
 2894      00
 2895 1389 488B00   		movq	(%rax), %rax
 2896 138c 488D55B0 		leaq	-80(%rbp), %rdx
 2897 1390 488D4D90 		leaq	-112(%rbp), %rcx
 2898 1394 488D7908 		leaq	8(%rcx), %rdi
 2899 1398 488D7588 		leaq	-120(%rbp), %rsi
 2900 139c 4889D1   		movq	%rdx, %rcx
 2901 139f 4889FA   		movq	%rdi, %rdx
 2902 13a2 4889C7   		movq	%rax, %rdi
 2903 13a5 E8000000 		call	_ZN8UnitTest10CheckEqualImmEEvRNS_11TestResultsERKT_RKT0_RKNS_11TestDetailsE
 2903      00
 2904              	.LEHE114:
 2905              	.L156:
 2906              	.LEHB115:
 104:testCore.cpp  **** 	CHECK_ARRAY_EQUAL(expected, buf.data, 16);
 2907              		.loc 3 104 2 is_stmt 1
 2908 13aa E8000000 		call	_ZN8UnitTest11CurrentTest7DetailsEv@PLT
 2908      00
 2909 13af 488B08   		movq	(%rax), %rcx
 2910 13b2 488D45B0 		leaq	-80(%rbp), %rax
 2911 13b6 BA680000 		movl	$104, %edx
 2911      00
 2912 13bb 4889CE   		movq	%rcx, %rsi
 2913 13be 4889C7   		movq	%rax, %rdi
 2914 13c1 E8000000 		call	_ZN8UnitTest11TestDetailsC1ERKS0_i@PLT
 2914      00
 2915              		.loc 3 104 2 is_stmt 0 discriminator 4
 2916 13c6 E8000000 		call	_ZN8UnitTest11CurrentTest7ResultsEv@PLT
 2916      00
 2917 13cb 488B00   		movq	(%rax), %rax
 2918 13ce 488D4DB0 		leaq	-80(%rbp), %rcx
 2919 13d2 488D5590 		leaq	-112(%rbp), %rdx
 2920 13d6 488D75D0 		leaq	-48(%rbp), %rsi
 2921 13da 4989C8   		movq	%rcx, %r8
 2922 13dd B9100000 		movl	$16, %ecx
 2922      00
 2923 13e2 4889C7   		movq	%rax, %rdi
 2924 13e5 E8000000 		call	_ZN8UnitTest15CheckArrayEqualIA16_hPhEEvRNS_11TestResultsERKT_RKT0_iRKNS_11TestDetailsE
 2924      00
 2925              	.LEHE115:
 2926              	.L159:
 105:testCore.cpp  **** 	bufDestroy(&buf);
 2927              		.loc 3 105 12 is_stmt 1
 2928 13ea 488D4590 		leaq	-112(%rbp), %rax
 2929 13ee 4889C7   		movq	%rax, %rdi
 2930              	.LEHB116:
 2931 13f1 E8000000 		call	bufDestroy@PLT
 2931      00
 2932              	.LEHE116:
 106:testCore.cpp  **** }
 2933              		.loc 3 106 1
 2934 13f6 90       		nop
 2935 13f7 488B45E8 		movq	-24(%rbp), %rax
 2936 13fb 64482B04 		subq	%fs:40, %rax
 2936      25280000 
 2936      00
 2937 1404 0F840D02 		je	.L161
 2937      0000
 2938 140a E9030200 		jmp	.L172
 2938      00
 2939              	.L162:
 2940 140f F30F1EFA 		endbr64
  97:testCore.cpp  **** 
 2941              		.loc 3 97 2
 2942 1413 4889C7   		movq	%rax, %rdi
 2943 1416 E8000000 		call	__cxa_begin_catch@PLT
 2943      00
 2944              	.LEHB117:
 2945 141b E8000000 		call	_ZN8UnitTest11CurrentTest7ResultsEv@PLT
 2945      00
  97:testCore.cpp  **** 
 2946              		.loc 3 97 2 is_stmt 0 discriminator 3
 2947 1420 488B18   		movq	(%rax), %rbx
 2948 1423 E8000000 		call	_ZN8UnitTest11CurrentTest7DetailsEv@PLT
 2948      00
  97:testCore.cpp  **** 
 2949              		.loc 3 97 2 discriminator 11
 2950 1428 488B08   		movq	(%rax), %rcx
 2951 142b 488D45B0 		leaq	-80(%rbp), %rax
 2952 142f BA610000 		movl	$97, %edx
 2952      00
 2953 1434 4889CE   		movq	%rcx, %rsi
 2954 1437 4889C7   		movq	%rax, %rdi
 2955 143a E8000000 		call	_ZN8UnitTest11TestDetailsC1ERKS0_i@PLT
 2955      00
  97:testCore.cpp  **** 
 2956              		.loc 3 97 2 discriminator 15
 2957 143f 488D45B0 		leaq	-80(%rbp), %rax
 2958 1443 488D1500 		leaq	.LC3(%rip), %rdx
 2958      000000
 2959 144a 4889C6   		movq	%rax, %rsi
 2960 144d 4889DF   		movq	%rbx, %rdi
 2961 1450 E8000000 		call	_ZN8UnitTest11TestResults13OnTestFailureERKNS_11TestDetailsEPKc@PLT
 2961      00
 2962              	.LEHE117:
 2963              	.LEHB118:
  97:testCore.cpp  **** 
 2964              		.loc 3 97 2 discriminator 17
 2965 1455 E8000000 		call	__cxa_end_catch@PLT
 2965      00
 2966              	.LEHE118:
 2967 145a E944FEFF 		jmp	.L147
 2967      FF
 2968              	.L163:
 2969 145f F30F1EFA 		endbr64
  97:testCore.cpp  **** 
 2970              		.loc 3 97 2
 2971 1463 4889C3   		movq	%rax, %rbx
 2972 1466 E8000000 		call	__cxa_end_catch@PLT
 2972      00
 2973 146b 4889D8   		movq	%rbx, %rax
 2974 146e 4889C7   		movq	%rax, %rdi
 2975              	.LEHB119:
 2976 1471 E8000000 		call	_Unwind_Resume@PLT
 2976      00
 2977              	.LEHE119:
 2978              	.L164:
 2979 1476 F30F1EFA 		endbr64
 101:testCore.cpp  **** 	CHECK_EQUAL(16UL, buf.capacity);
 2980              		.loc 3 101 2 is_stmt 1
 2981 147a 4889C7   		movq	%rax, %rdi
 2982 147d E8000000 		call	__cxa_begin_catch@PLT
 2982      00
 2983              	.LEHB120:
 2984 1482 E8000000 		call	_ZN8UnitTest11CurrentTest7ResultsEv@PLT
 2984      00
 101:testCore.cpp  **** 	CHECK_EQUAL(16UL, buf.capacity);
 2985              		.loc 3 101 2 is_stmt 0 discriminator 3
 2986 1487 488B18   		movq	(%rax), %rbx
 2987 148a E8000000 		call	_ZN8UnitTest11CurrentTest7DetailsEv@PLT
 2987      00
 101:testCore.cpp  **** 	CHECK_EQUAL(16UL, buf.capacity);
 2988              		.loc 3 101 2 discriminator 11
 2989 148f 488B08   		movq	(%rax), %rcx
 2990 1492 488D45B0 		leaq	-80(%rbp), %rax
 2991 1496 BA650000 		movl	$101, %edx
 2991      00
 2992 149b 4889CE   		movq	%rcx, %rsi
 2993 149e 4889C7   		movq	%rax, %rdi
 2994 14a1 E8000000 		call	_ZN8UnitTest11TestDetailsC1ERKS0_i@PLT
 2994      00
 101:testCore.cpp  **** 	CHECK_EQUAL(16UL, buf.capacity);
 2995              		.loc 3 101 2 discriminator 15
 2996 14a6 488D45B0 		leaq	-80(%rbp), %rax
 2997 14aa 488D1500 		leaq	.LC3(%rip), %rdx
 2997      000000
 2998 14b1 4889C6   		movq	%rax, %rsi
 2999 14b4 4889DF   		movq	%rbx, %rdi
 3000 14b7 E8000000 		call	_ZN8UnitTest11TestResults13OnTestFailureERKNS_11TestDetailsEPKc@PLT
 3000      00
 3001              	.LEHE120:
 3002              	.LEHB121:
 101:testCore.cpp  **** 	CHECK_EQUAL(16UL, buf.capacity);
 3003              		.loc 3 101 2 discriminator 17
 3004 14bc E8000000 		call	__cxa_end_catch@PLT
 3004      00
 3005              	.LEHE121:
 3006 14c1 E950FEFF 		jmp	.L150
 3006      FF
 3007              	.L165:
 3008 14c6 F30F1EFA 		endbr64
 101:testCore.cpp  **** 	CHECK_EQUAL(16UL, buf.capacity);
 3009              		.loc 3 101 2
 3010 14ca 4889C3   		movq	%rax, %rbx
 3011 14cd E8000000 		call	__cxa_end_catch@PLT
 3011      00
 3012 14d2 4889D8   		movq	%rbx, %rax
 3013 14d5 4889C7   		movq	%rax, %rdi
 3014              	.LEHB122:
 3015 14d8 E8000000 		call	_Unwind_Resume@PLT
 3015      00
 3016              	.LEHE122:
 3017              	.L166:
 3018 14dd F30F1EFA 		endbr64
 102:testCore.cpp  **** 	CHECK_EQUAL(9UL, buf.length);
 3019              		.loc 3 102 2 is_stmt 1
 3020 14e1 4889C7   		movq	%rax, %rdi
 3021 14e4 E8000000 		call	__cxa_begin_catch@PLT
 3021      00
 3022              	.LEHB123:
 3023 14e9 E8000000 		call	_ZN8UnitTest11CurrentTest7ResultsEv@PLT
 3023      00
 102:testCore.cpp  **** 	CHECK_EQUAL(9UL, buf.length);
 3024              		.loc 3 102 2 is_stmt 0 discriminator 3
 3025 14ee 488B18   		movq	(%rax), %rbx
 3026 14f1 E8000000 		call	_ZN8UnitTest11CurrentTest7DetailsEv@PLT
 3026      00
 102:testCore.cpp  **** 	CHECK_EQUAL(9UL, buf.length);
 3027              		.loc 3 102 2 discriminator 11
 3028 14f6 488B08   		movq	(%rax), %rcx
 3029 14f9 488D45B0 		leaq	-80(%rbp), %rax
 3030 14fd BA660000 		movl	$102, %edx
 3030      00
 3031 1502 4889CE   		movq	%rcx, %rsi
 3032 1505 4889C7   		movq	%rax, %rdi
 3033 1508 E8000000 		call	_ZN8UnitTest11TestDetailsC1ERKS0_i@PLT
 3033      00
 102:testCore.cpp  **** 	CHECK_EQUAL(9UL, buf.length);
 3034              		.loc 3 102 2 discriminator 15
 3035 150d 488D45B0 		leaq	-80(%rbp), %rax
 3036 1511 488D1500 		leaq	.LC13(%rip), %rdx
 3036      000000
 3037 1518 4889C6   		movq	%rax, %rsi
 3038 151b 4889DF   		movq	%rbx, %rdi
 3039 151e E8000000 		call	_ZN8UnitTest11TestResults13OnTestFailureERKNS_11TestDetailsEPKc@PLT
 3039      00
 3040              	.LEHE123:
 3041              	.LEHB124:
 102:testCore.cpp  **** 	CHECK_EQUAL(9UL, buf.length);
 3042              		.loc 3 102 2 discriminator 17
 3043 1523 E8000000 		call	__cxa_end_catch@PLT
 3043      00
 3044              	.LEHE124:
 3045 1528 E933FEFF 		jmp	.L153
 3045      FF
 3046              	.L167:
 3047 152d F30F1EFA 		endbr64
 102:testCore.cpp  **** 	CHECK_EQUAL(9UL, buf.length);
 3048              		.loc 3 102 2
 3049 1531 4889C3   		movq	%rax, %rbx
 3050 1534 E8000000 		call	__cxa_end_catch@PLT
 3050      00
 3051 1539 4889D8   		movq	%rbx, %rax
 3052 153c 4889C7   		movq	%rax, %rdi
 3053              	.LEHB125:
 3054 153f E8000000 		call	_Unwind_Resume@PLT
 3054      00
 3055              	.LEHE125:
 3056              	.L168:
 3057 1544 F30F1EFA 		endbr64
 103:testCore.cpp  **** 	CHECK_ARRAY_EQUAL(expected, buf.data, 16);
 3058              		.loc 3 103 2 is_stmt 1
 3059 1548 4889C7   		movq	%rax, %rdi
 3060 154b E8000000 		call	__cxa_begin_catch@PLT
 3060      00
 3061              	.LEHB126:
 3062 1550 E8000000 		call	_ZN8UnitTest11CurrentTest7ResultsEv@PLT
 3062      00
 103:testCore.cpp  **** 	CHECK_ARRAY_EQUAL(expected, buf.data, 16);
 3063              		.loc 3 103 2 is_stmt 0 discriminator 3
 3064 1555 488B18   		movq	(%rax), %rbx
 3065 1558 E8000000 		call	_ZN8UnitTest11CurrentTest7DetailsEv@PLT
 3065      00
 103:testCore.cpp  **** 	CHECK_ARRAY_EQUAL(expected, buf.data, 16);
 3066              		.loc 3 103 2 discriminator 11
 3067 155d 488B08   		movq	(%rax), %rcx
 3068 1560 488D45B0 		leaq	-80(%rbp), %rax
 3069 1564 BA670000 		movl	$103, %edx
 3069      00
 3070 1569 4889CE   		movq	%rcx, %rsi
 3071 156c 4889C7   		movq	%rax, %rdi
 3072 156f E8000000 		call	_ZN8UnitTest11TestDetailsC1ERKS0_i@PLT
 3072      00
 103:testCore.cpp  **** 	CHECK_ARRAY_EQUAL(expected, buf.data, 16);
 3073              		.loc 3 103 2 discriminator 15
 3074 1574 488D45B0 		leaq	-80(%rbp), %rax
 3075 1578 488D1500 		leaq	.LC14(%rip), %rdx
 3075      000000
 3076 157f 4889C6   		movq	%rax, %rsi
 3077 1582 4889DF   		movq	%rbx, %rdi
 3078 1585 E8000000 		call	_ZN8UnitTest11TestResults13OnTestFailureERKNS_11TestDetailsEPKc@PLT
 3078      00
 3079              	.LEHE126:
 3080              	.LEHB127:
 103:testCore.cpp  **** 	CHECK_ARRAY_EQUAL(expected, buf.data, 16);
 3081              		.loc 3 103 2 discriminator 17
 3082 158a E8000000 		call	__cxa_end_catch@PLT
 3082      00
 3083              	.LEHE127:
 3084 158f E916FEFF 		jmp	.L156
 3084      FF
 3085              	.L169:
 3086 1594 F30F1EFA 		endbr64
 103:testCore.cpp  **** 	CHECK_ARRAY_EQUAL(expected, buf.data, 16);
 3087              		.loc 3 103 2
 3088 1598 4889C3   		movq	%rax, %rbx
 3089 159b E8000000 		call	__cxa_end_catch@PLT
 3089      00
 3090 15a0 4889D8   		movq	%rbx, %rax
 3091 15a3 4889C7   		movq	%rax, %rdi
 3092              	.LEHB128:
 3093 15a6 E8000000 		call	_Unwind_Resume@PLT
 3093      00
 3094              	.LEHE128:
 3095              	.L170:
 3096 15ab F30F1EFA 		endbr64
 104:testCore.cpp  **** 	bufDestroy(&buf);
 3097              		.loc 3 104 2 is_stmt 1
 3098 15af 4889C7   		movq	%rax, %rdi
 3099 15b2 E8000000 		call	__cxa_begin_catch@PLT
 3099      00
 3100              	.LEHB129:
 3101 15b7 E8000000 		call	_ZN8UnitTest11CurrentTest7ResultsEv@PLT
 3101      00
 104:testCore.cpp  **** 	bufDestroy(&buf);
 3102              		.loc 3 104 2 is_stmt 0 discriminator 3
 3103 15bc 488B18   		movq	(%rax), %rbx
 3104 15bf E8000000 		call	_ZN8UnitTest11CurrentTest7DetailsEv@PLT
 3104      00
 104:testCore.cpp  **** 	bufDestroy(&buf);
 3105              		.loc 3 104 2 discriminator 11
 3106 15c4 488B08   		movq	(%rax), %rcx
 3107 15c7 488D45B0 		leaq	-80(%rbp), %rax
 3108 15cb BA680000 		movl	$104, %edx
 3108      00
 3109 15d0 4889CE   		movq	%rcx, %rsi
 3110 15d3 4889C7   		movq	%rax, %rdi
 3111 15d6 E8000000 		call	_ZN8UnitTest11TestDetailsC1ERKS0_i@PLT
 3111      00
 104:testCore.cpp  **** 	bufDestroy(&buf);
 3112              		.loc 3 104 2 discriminator 15
 3113 15db 488D45B0 		leaq	-80(%rbp), %rax
 3114 15df 488D1500 		leaq	.LC6(%rip), %rdx
 3114      000000
 3115 15e6 4889C6   		movq	%rax, %rsi
 3116 15e9 4889DF   		movq	%rbx, %rdi
 3117 15ec E8000000 		call	_ZN8UnitTest11TestResults13OnTestFailureERKNS_11TestDetailsEPKc@PLT
 3117      00
 3118              	.LEHE129:
 3119              	.LEHB130:
 104:testCore.cpp  **** 	bufDestroy(&buf);
 3120              		.loc 3 104 2 discriminator 17
 3121 15f1 E8000000 		call	__cxa_end_catch@PLT
 3121      00
 3122              	.LEHE130:
 3123 15f6 E9EFFDFF 		jmp	.L159
 3123      FF
 3124              	.L171:
 3125 15fb F30F1EFA 		endbr64
 104:testCore.cpp  **** 	bufDestroy(&buf);
 3126              		.loc 3 104 2
 3127 15ff 4889C3   		movq	%rax, %rbx
 3128 1602 E8000000 		call	__cxa_end_catch@PLT
 3128      00
 3129 1607 4889D8   		movq	%rbx, %rax
 3130 160a 4889C7   		movq	%rax, %rdi
 3131              	.LEHB131:
 3132 160d E8000000 		call	_Unwind_Resume@PLT
 3132      00
 3133              	.LEHE131:
 3134              	.L172:
 3135              		.loc 3 106 1 is_stmt 1
 3136 1612 E8000000 		call	__stack_chk_fail@PLT
 3136      00
 3137              	.L161:
 3138 1617 488B5DF8 		movq	-8(%rbp), %rbx
 3139 161b C9       		leave
 3140              		.cfi_def_cfa 7, 8
 3141 161c C3       		ret
 3142              		.cfi_endproc
 3143              	.LFE1168:
 3144              		.section	.gcc_except_table
 3145              		.align 4
 3146              	.LLSDA1168:
 3147 0270 FF       		.byte	0xff
 3148 0271 9B       		.byte	0x9b
 3149 0272 8401     		.uleb128 .LLSDATT1168-.LLSDATTD1168
 3150              	.LLSDATTD1168:
 3151 0274 01       		.byte	0x1
 3152 0275 7B       		.uleb128 .LLSDACSE1168-.LLSDACSB1168
 3153              	.LLSDACSB1168:
 3154 0276 3C       		.uleb128 .LEHB109-.LFB1168
 3155 0277 05       		.uleb128 .LEHE109-.LEHB109
 3156 0278 00       		.uleb128 0
 3157 0279 00       		.uleb128 0
 3158 027a 44       		.uleb128 .LEHB110-.LFB1168
 3159 027b 3F       		.uleb128 .LEHE110-.LEHB110
 3160 027c EF03     		.uleb128 .L162-.LFB1168
 3161 027e 01       		.uleb128 0x1
 3162 027f AF01     		.uleb128 .LEHB111-.LFB1168
 3163 0281 05       		.uleb128 .LEHE111-.LEHB111
 3164 0282 00       		.uleb128 0
 3165 0283 00       		.uleb128 0
 3166 0284 B701     		.uleb128 .LEHB112-.LFB1168
 3167 0286 3F       		.uleb128 .LEHE112-.LEHB112
 3168 0287 D604     		.uleb128 .L164-.LFB1168
 3169 0289 01       		.uleb128 0x1
 3170 028a F601     		.uleb128 .LEHB113-.LFB1168
 3171 028c 4A       		.uleb128 .LEHE113-.LEHB113
 3172 028d BD05     		.uleb128 .L166-.LFB1168
 3173 028f 01       		.uleb128 0x1
 3174 0290 C002     		.uleb128 .LEHB114-.LFB1168
 3175 0292 4A       		.uleb128 .LEHE114-.LEHB114
 3176 0293 A406     		.uleb128 .L168-.LFB1168
 3177 0295 01       		.uleb128 0x1
 3178 0296 8A03     		.uleb128 .LEHB115-.LFB1168
 3179 0298 40       		.uleb128 .LEHE115-.LEHB115
 3180 0299 8B07     		.uleb128 .L170-.LFB1168
 3181 029b 01       		.uleb128 0x1
 3182 029c D103     		.uleb128 .LEHB116-.LFB1168
 3183 029e 05       		.uleb128 .LEHE116-.LEHB116
 3184 029f 00       		.uleb128 0
 3185 02a0 00       		.uleb128 0
 3186 02a1 FB03     		.uleb128 .LEHB117-.LFB1168
 3187 02a3 3A       		.uleb128 .LEHE117-.LEHB117
 3188 02a4 BF04     		.uleb128 .L163-.LFB1168
 3189 02a6 00       		.uleb128 0
 3190 02a7 B504     		.uleb128 .LEHB118-.LFB1168
 3191 02a9 05       		.uleb128 .LEHE118-.LEHB118
 3192 02aa 00       		.uleb128 0
 3193 02ab 00       		.uleb128 0
 3194 02ac D104     		.uleb128 .LEHB119-.LFB1168
 3195 02ae 05       		.uleb128 .LEHE119-.LEHB119
 3196 02af 00       		.uleb128 0
 3197 02b0 00       		.uleb128 0
 3198 02b1 E204     		.uleb128 .LEHB120-.LFB1168
 3199 02b3 3A       		.uleb128 .LEHE120-.LEHB120
 3200 02b4 A605     		.uleb128 .L165-.LFB1168
 3201 02b6 00       		.uleb128 0
 3202 02b7 9C05     		.uleb128 .LEHB121-.LFB1168
 3203 02b9 05       		.uleb128 .LEHE121-.LEHB121
 3204 02ba 00       		.uleb128 0
 3205 02bb 00       		.uleb128 0
 3206 02bc B805     		.uleb128 .LEHB122-.LFB1168
 3207 02be 05       		.uleb128 .LEHE122-.LEHB122
 3208 02bf 00       		.uleb128 0
 3209 02c0 00       		.uleb128 0
 3210 02c1 C905     		.uleb128 .LEHB123-.LFB1168
 3211 02c3 3A       		.uleb128 .LEHE123-.LEHB123
 3212 02c4 8D06     		.uleb128 .L167-.LFB1168
 3213 02c6 00       		.uleb128 0
 3214 02c7 8306     		.uleb128 .LEHB124-.LFB1168
 3215 02c9 05       		.uleb128 .LEHE124-.LEHB124
 3216 02ca 00       		.uleb128 0
 3217 02cb 00       		.uleb128 0
 3218 02cc 9F06     		.uleb128 .LEHB125-.LFB1168
 3219 02ce 05       		.uleb128 .LEHE125-.LEHB125
 3220 02cf 00       		.uleb128 0
 3221 02d0 00       		.uleb128 0
 3222 02d1 B006     		.uleb128 .LEHB126-.LFB1168
 3223 02d3 3A       		.uleb128 .LEHE126-.LEHB126
 3224 02d4 F406     		.uleb128 .L169-.LFB1168
 3225 02d6 00       		.uleb128 0
 3226 02d7 EA06     		.uleb128 .LEHB127-.LFB1168
 3227 02d9 05       		.uleb128 .LEHE127-.LEHB127
 3228 02da 00       		.uleb128 0
 3229 02db 00       		.uleb128 0
 3230 02dc 8607     		.uleb128 .LEHB128-.LFB1168
 3231 02de 05       		.uleb128 .LEHE128-.LEHB128
 3232 02df 00       		.uleb128 0
 3233 02e0 00       		.uleb128 0
 3234 02e1 9707     		.uleb128 .LEHB129-.LFB1168
 3235 02e3 3A       		.uleb128 .LEHE129-.LEHB129
 3236 02e4 DB07     		.uleb128 .L171-.LFB1168
 3237 02e6 00       		.uleb128 0
 3238 02e7 D107     		.uleb128 .LEHB130-.LFB1168
 3239 02e9 05       		.uleb128 .LEHE130-.LEHB130
 3240 02ea 00       		.uleb128 0
 3241 02eb 00       		.uleb128 0
 3242 02ec ED07     		.uleb128 .LEHB131-.LFB1168
 3243 02ee 05       		.uleb128 .LEHE131-.LEHB131
 3244 02ef 00       		.uleb128 0
 3245 02f0 00       		.uleb128 0
 3246              	.LLSDACSE1168:
 3247 02f1 01       		.byte	0x1
 3248 02f2 00       		.byte	0
 3249 02f3 00       		.align 4
 3250 02f4 00000000 		.long	0
 3251              	
 3252              	.LLSDATT1168:
 3253              		.text
 3255              		.section	.rodata
 3256 028e 0000     		.align 8
 3257              	.LC16:
 3258 0290 436F7265 		.string	"Core_testVeryLargeAppendBlockInitFF"
 3258      5F746573 
 3258      74566572 
 3258      794C6172 
 3258      67654170 
 3259              		.section	.text._ZN39TestCore_testVeryLargeAppendBlockInitFFC2Ev,"axG",@progbits,_ZN39TestCore_test
 3260              		.align 2
 3261              		.weak	_ZN39TestCore_testVeryLargeAppendBlockInitFFC2Ev
 3263              	_ZN39TestCore_testVeryLargeAppendBlockInitFFC2Ev:
 3264              	.LFB1170:
 107:testCore.cpp  **** 
 108:testCore.cpp  **** TEST(Core_testVeryLargeAppendBlockInitFF) {
 3265              		.loc 3 108 1
 3266              		.cfi_startproc
 3267 0000 F30F1EFA 		endbr64
 3268 0004 55       		pushq	%rbp
 3269              		.cfi_def_cfa_offset 16
 3270              		.cfi_offset 6, -16
 3271 0005 4889E5   		movq	%rsp, %rbp
 3272              		.cfi_def_cfa_register 6
 3273 0008 53       		pushq	%rbx
 3274 0009 4883EC18 		subq	$24, %rsp
 3275              		.cfi_offset 3, -24
 3276 000d 48897DE8 		movq	%rdi, -24(%rbp)
 3277              	.LBB10:
 3278              		.loc 3 108 1
 3279 0011 488B5DE8 		movq	-24(%rbp), %rbx
 3280 0015 E8000000 		call	_ZN13UnitTestSuite12GetSuiteNameEv
 3280      00
 3281 001a 4889C2   		movq	%rax, %rdx
 3282 001d 41B86C00 		movl	$108, %r8d
 3282      0000
 3283 0023 488D0500 		leaq	.LC1(%rip), %rax
 3283      000000
 3284 002a 4889C1   		movq	%rax, %rcx
 3285 002d 488D0500 		leaq	.LC16(%rip), %rax
 3285      000000
 3286 0034 4889C6   		movq	%rax, %rsi
 3287 0037 4889DF   		movq	%rbx, %rdi
 3288 003a E8000000 		call	_ZN8UnitTest4TestC2EPKcS2_S2_i@PLT
 3288      00
 3289 003f 488D1500 		leaq	16+_ZTV39TestCore_testVeryLargeAppendBlockInitFF(%rip), %rdx
 3289      000000
 3290 0046 488B45E8 		movq	-24(%rbp), %rax
 3291 004a 488910   		movq	%rdx, (%rax)
 3292              	.LBE10:
 3293 004d 90       		nop
 3294 004e 488B5DF8 		movq	-8(%rbp), %rbx
 3295 0052 C9       		leave
 3296              		.cfi_def_cfa 7, 8
 3297 0053 C3       		ret
 3298              		.cfi_endproc
 3299              	.LFE1170:
 3301              		.weak	_ZN39TestCore_testVeryLargeAppendBlockInitFFC1Ev
 3302              		.set	_ZN39TestCore_testVeryLargeAppendBlockInitFFC1Ev,_ZN39TestCore_testVeryLargeAppendBlockInitFF
 3303              		.globl	testCore_testVeryLargeAppendBlockInitFFInstance
 3304              		.bss
 3305 0179 00000000 		.align 32
 3305      000000
 3308              	testCore_testVeryLargeAppendBlockInitFFInstance:
 3309 0180 00000000 		.zero	56
 3309      00000000 
 3309      00000000 
 3309      00000000 
 3309      00000000 
 3310              		.globl	adderCore_testVeryLargeAppendBlockInitFF
 3313              	adderCore_testVeryLargeAppendBlockInitFF:
 3314 01b8 00       		.zero	1
 3315              		.text
 3316 161d 90       		.align 2
 3317              		.globl	_ZNK39TestCore_testVeryLargeAppendBlockInitFF7RunImplEv
 3319              	_ZNK39TestCore_testVeryLargeAppendBlockInitFF7RunImplEv:
 3320              	.LFB1172:
 3321              		.loc 3 108 43
 3322              		.cfi_startproc
 3323              		.cfi_personality 0x9b,DW.ref.__gxx_personality_v0
 3324              		.cfi_lsda 0x1b,.LLSDA1172
 3325 161e F30F1EFA 		endbr64
 3326 1622 55       		pushq	%rbp
 3327              		.cfi_def_cfa_offset 16
 3328              		.cfi_offset 6, -16
 3329 1623 4889E5   		movq	%rsp, %rbp
 3330              		.cfi_def_cfa_register 6
 3331 1626 53       		pushq	%rbx
 3332 1627 4881EC88 		subq	$136, %rsp
 3332      000000
 3333              		.cfi_offset 3, -24
 3334 162e 4889BD78 		movq	%rdi, -136(%rbp)
 3334      FFFFFF
 3335              		.loc 3 108 43
 3336 1635 64488B04 		movq	%fs:40, %rax
 3336      25280000 
 3336      00
 3337 163e 488945E8 		movq	%rax, -24(%rbp)
 3338 1642 31C0     		xorl	%eax, %eax
 109:testCore.cpp  **** 	Buffer buf;
 110:testCore.cpp  **** 	BufferStatus status;
 111:testCore.cpp  **** 
 112:testCore.cpp  **** 	status = bufInitialise(&buf, 4, 0xFF, NULL);
 3339              		.loc 3 112 24
 3340 1644 488D4590 		leaq	-112(%rbp), %rax
 3341 1648 B9000000 		movl	$0, %ecx
 3341      00
 3342 164d BAFF0000 		movl	$255, %edx
 3342      00
 3343 1652 BE040000 		movl	$4, %esi
 3343      00
 3344 1657 4889C7   		movq	%rax, %rdi
 3345              	.LEHB132:
 3346 165a E8000000 		call	bufInitialise@PLT
 3346      00
 3347              	.LEHE132:
 3348              		.loc 3 112 9
 3349 165f 894584   		movl	%eax, -124(%rbp)
 3350              	.LEHB133:
 113:testCore.cpp  **** 	CHECK_EQUAL(BUF_SUCCESS, status);
 3351              		.loc 3 113 2
 3352 1662 E8000000 		call	_ZN8UnitTest11CurrentTest7DetailsEv@PLT
 3352      00
 3353 1667 488B08   		movq	(%rax), %rcx
 3354 166a 488D45B0 		leaq	-80(%rbp), %rax
 3355 166e BA710000 		movl	$113, %edx
 3355      00
 3356 1673 4889CE   		movq	%rcx, %rsi
 3357 1676 4889C7   		movq	%rax, %rdi
 3358 1679 E8000000 		call	_ZN8UnitTest11TestDetailsC1ERKS0_i@PLT
 3358      00
 3359              		.loc 3 113 2 is_stmt 0 discriminator 4
 3360 167e C7458800 		movl	$0, -120(%rbp)
 3360      000000
 3361 1685 E8000000 		call	_ZN8UnitTest11CurrentTest7ResultsEv@PLT
 3361      00
 3362 168a 488B00   		movq	(%rax), %rax
 3363 168d 488D4DB0 		leaq	-80(%rbp), %rcx
 3364 1691 488D5584 		leaq	-124(%rbp), %rdx
 3365 1695 488D7588 		leaq	-120(%rbp), %rsi
 3366 1699 4889C7   		movq	%rax, %rdi
 3367 169c E8000000 		call	_ZN8UnitTest10CheckEqualI12BufferStatusS1_EEvRNS_11TestResultsERKT_RKT0_RKNS_11TestDetailsE
 3367      00
 3368              	.LEHE133:
 3369              	.L176:
 114:testCore.cpp  **** 
 115:testCore.cpp  **** 	const unsigned char expected[] = {1, 2, 3, 4, 5, 6, 7, 8, 9, 0xFF, 0xFF, 0xFF, 0xFF, 0xFF, 0xFF, 0
 3370              		.loc 3 115 22 is_stmt 1
 3371 16a1 48B80102 		movabsq	$578437695752307201, %rax
 3371      03040506 
 3371      0708
 3372 16ab 48C7C209 		movq	$-247, %rdx
 3372      FFFFFF
 3373 16b2 488945D0 		movq	%rax, -48(%rbp)
 3374 16b6 488955D8 		movq	%rdx, -40(%rbp)
 116:testCore.cpp  **** 	status = bufAppendBlock(&buf, expected, 9, NULL);
 3375              		.loc 3 116 25
 3376 16ba 488D75D0 		leaq	-48(%rbp), %rsi
 3377 16be 488D4590 		leaq	-112(%rbp), %rax
 3378 16c2 B9000000 		movl	$0, %ecx
 3378      00
 3379 16c7 BA090000 		movl	$9, %edx
 3379      00
 3380 16cc 4889C7   		movq	%rax, %rdi
 3381              	.LEHB134:
 3382 16cf E8000000 		call	bufAppendBlock@PLT
 3382      00
 3383              	.LEHE134:
 3384              		.loc 3 116 9
 3385 16d4 894584   		movl	%eax, -124(%rbp)
 3386              	.LEHB135:
 117:testCore.cpp  **** 	CHECK_EQUAL(BUF_SUCCESS, status);
 3387              		.loc 3 117 2
 3388 16d7 E8000000 		call	_ZN8UnitTest11CurrentTest7DetailsEv@PLT
 3388      00
 3389 16dc 488B08   		movq	(%rax), %rcx
 3390 16df 488D45B0 		leaq	-80(%rbp), %rax
 3391 16e3 BA750000 		movl	$117, %edx
 3391      00
 3392 16e8 4889CE   		movq	%rcx, %rsi
 3393 16eb 4889C7   		movq	%rax, %rdi
 3394 16ee E8000000 		call	_ZN8UnitTest11TestDetailsC1ERKS0_i@PLT
 3394      00
 3395              		.loc 3 117 2 is_stmt 0 discriminator 4
 3396 16f3 C7458800 		movl	$0, -120(%rbp)
 3396      000000
 3397 16fa E8000000 		call	_ZN8UnitTest11CurrentTest7ResultsEv@PLT
 3397      00
 3398 16ff 488B00   		movq	(%rax), %rax
 3399 1702 488D4DB0 		leaq	-80(%rbp), %rcx
 3400 1706 488D5584 		leaq	-124(%rbp), %rdx
 3401 170a 488D7588 		leaq	-120(%rbp), %rsi
 3402 170e 4889C7   		movq	%rax, %rdi
 3403 1711 E8000000 		call	_ZN8UnitTest10CheckEqualI12BufferStatusS1_EEvRNS_11TestResultsERKT_RKT0_RKNS_11TestDetailsE
 3403      00
 3404              	.LEHE135:
 3405              	.L179:
 3406              	.LEHB136:
 118:testCore.cpp  **** 	CHECK_EQUAL(16UL, buf.capacity);
 3407              		.loc 3 118 2 is_stmt 1
 3408 1716 E8000000 		call	_ZN8UnitTest11CurrentTest7DetailsEv@PLT
 3408      00
 3409 171b 488B08   		movq	(%rax), %rcx
 3410 171e 488D45B0 		leaq	-80(%rbp), %rax
 3411 1722 BA760000 		movl	$118, %edx
 3411      00
 3412 1727 4889CE   		movq	%rcx, %rsi
 3413 172a 4889C7   		movq	%rax, %rdi
 3414 172d E8000000 		call	_ZN8UnitTest11TestDetailsC1ERKS0_i@PLT
 3414      00
 3415              		.loc 3 118 2 is_stmt 0 discriminator 4
 3416 1732 48C74588 		movq	$16, -120(%rbp)
 3416      10000000 
 3417 173a E8000000 		call	_ZN8UnitTest11CurrentTest7ResultsEv@PLT
 3417      00
 3418 173f 488B00   		movq	(%rax), %rax
 3419 1742 488D55B0 		leaq	-80(%rbp), %rdx
 3420 1746 488D4D90 		leaq	-112(%rbp), %rcx
 3421 174a 488D7910 		leaq	16(%rcx), %rdi
 3422 174e 488D7588 		leaq	-120(%rbp), %rsi
 3423 1752 4889D1   		movq	%rdx, %rcx
 3424 1755 4889FA   		movq	%rdi, %rdx
 3425 1758 4889C7   		movq	%rax, %rdi
 3426 175b E8000000 		call	_ZN8UnitTest10CheckEqualImmEEvRNS_11TestResultsERKT_RKT0_RKNS_11TestDetailsE
 3426      00
 3427              	.LEHE136:
 3428              	.L182:
 3429              	.LEHB137:
 119:testCore.cpp  **** 	CHECK_EQUAL(9UL, buf.length);
 3430              		.loc 3 119 2 is_stmt 1
 3431 1760 E8000000 		call	_ZN8UnitTest11CurrentTest7DetailsEv@PLT
 3431      00
 3432 1765 488B08   		movq	(%rax), %rcx
 3433 1768 488D45B0 		leaq	-80(%rbp), %rax
 3434 176c BA770000 		movl	$119, %edx
 3434      00
 3435 1771 4889CE   		movq	%rcx, %rsi
 3436 1774 4889C7   		movq	%rax, %rdi
 3437 1777 E8000000 		call	_ZN8UnitTest11TestDetailsC1ERKS0_i@PLT
 3437      00
 3438              		.loc 3 119 2 is_stmt 0 discriminator 4
 3439 177c 48C74588 		movq	$9, -120(%rbp)
 3439      09000000 
 3440 1784 E8000000 		call	_ZN8UnitTest11CurrentTest7ResultsEv@PLT
 3440      00
 3441 1789 488B00   		movq	(%rax), %rax
 3442 178c 488D55B0 		leaq	-80(%rbp), %rdx
 3443 1790 488D4D90 		leaq	-112(%rbp), %rcx
 3444 1794 488D7908 		leaq	8(%rcx), %rdi
 3445 1798 488D7588 		leaq	-120(%rbp), %rsi
 3446 179c 4889D1   		movq	%rdx, %rcx
 3447 179f 4889FA   		movq	%rdi, %rdx
 3448 17a2 4889C7   		movq	%rax, %rdi
 3449 17a5 E8000000 		call	_ZN8UnitTest10CheckEqualImmEEvRNS_11TestResultsERKT_RKT0_RKNS_11TestDetailsE
 3449      00
 3450              	.LEHE137:
 3451              	.L185:
 3452              	.LEHB138:
 120:testCore.cpp  **** 	CHECK_ARRAY_EQUAL(expected, buf.data, 16);
 3453              		.loc 3 120 2 is_stmt 1
 3454 17aa E8000000 		call	_ZN8UnitTest11CurrentTest7DetailsEv@PLT
 3454      00
 3455 17af 488B08   		movq	(%rax), %rcx
 3456 17b2 488D45B0 		leaq	-80(%rbp), %rax
 3457 17b6 BA780000 		movl	$120, %edx
 3457      00
 3458 17bb 4889CE   		movq	%rcx, %rsi
 3459 17be 4889C7   		movq	%rax, %rdi
 3460 17c1 E8000000 		call	_ZN8UnitTest11TestDetailsC1ERKS0_i@PLT
 3460      00
 3461              		.loc 3 120 2 is_stmt 0 discriminator 4
 3462 17c6 E8000000 		call	_ZN8UnitTest11CurrentTest7ResultsEv@PLT
 3462      00
 3463 17cb 488B00   		movq	(%rax), %rax
 3464 17ce 488D4DB0 		leaq	-80(%rbp), %rcx
 3465 17d2 488D5590 		leaq	-112(%rbp), %rdx
 3466 17d6 488D75D0 		leaq	-48(%rbp), %rsi
 3467 17da 4989C8   		movq	%rcx, %r8
 3468 17dd B9100000 		movl	$16, %ecx
 3468      00
 3469 17e2 4889C7   		movq	%rax, %rdi
 3470 17e5 E8000000 		call	_ZN8UnitTest15CheckArrayEqualIA16_hPhEEvRNS_11TestResultsERKT_RKT0_iRKNS_11TestDetailsE
 3470      00
 3471              	.LEHE138:
 3472              	.L188:
 121:testCore.cpp  **** 	bufDestroy(&buf);
 3473              		.loc 3 121 12 is_stmt 1
 3474 17ea 488D4590 		leaq	-112(%rbp), %rax
 3475 17ee 4889C7   		movq	%rax, %rdi
 3476              	.LEHB139:
 3477 17f1 E8000000 		call	bufDestroy@PLT
 3477      00
 3478              	.LEHE139:
 122:testCore.cpp  **** }
 3479              		.loc 3 122 1
 3480 17f6 90       		nop
 3481 17f7 488B45E8 		movq	-24(%rbp), %rax
 3482 17fb 64482B04 		subq	%fs:40, %rax
 3482      25280000 
 3482      00
 3483 1804 0F840D02 		je	.L190
 3483      0000
 3484 180a E9030200 		jmp	.L201
 3484      00
 3485              	.L191:
 3486 180f F30F1EFA 		endbr64
 113:testCore.cpp  **** 
 3487              		.loc 3 113 2
 3488 1813 4889C7   		movq	%rax, %rdi
 3489 1816 E8000000 		call	__cxa_begin_catch@PLT
 3489      00
 3490              	.LEHB140:
 3491 181b E8000000 		call	_ZN8UnitTest11CurrentTest7ResultsEv@PLT
 3491      00
 113:testCore.cpp  **** 
 3492              		.loc 3 113 2 is_stmt 0 discriminator 3
 3493 1820 488B18   		movq	(%rax), %rbx
 3494 1823 E8000000 		call	_ZN8UnitTest11CurrentTest7DetailsEv@PLT
 3494      00
 113:testCore.cpp  **** 
 3495              		.loc 3 113 2 discriminator 11
 3496 1828 488B08   		movq	(%rax), %rcx
 3497 182b 488D45B0 		leaq	-80(%rbp), %rax
 3498 182f BA710000 		movl	$113, %edx
 3498      00
 3499 1834 4889CE   		movq	%rcx, %rsi
 3500 1837 4889C7   		movq	%rax, %rdi
 3501 183a E8000000 		call	_ZN8UnitTest11TestDetailsC1ERKS0_i@PLT
 3501      00
 113:testCore.cpp  **** 
 3502              		.loc 3 113 2 discriminator 15
 3503 183f 488D45B0 		leaq	-80(%rbp), %rax
 3504 1843 488D1500 		leaq	.LC3(%rip), %rdx
 3504      000000
 3505 184a 4889C6   		movq	%rax, %rsi
 3506 184d 4889DF   		movq	%rbx, %rdi
 3507 1850 E8000000 		call	_ZN8UnitTest11TestResults13OnTestFailureERKNS_11TestDetailsEPKc@PLT
 3507      00
 3508              	.LEHE140:
 3509              	.LEHB141:
 113:testCore.cpp  **** 
 3510              		.loc 3 113 2 discriminator 17
 3511 1855 E8000000 		call	__cxa_end_catch@PLT
 3511      00
 3512              	.LEHE141:
 3513 185a E942FEFF 		jmp	.L176
 3513      FF
 3514              	.L192:
 3515 185f F30F1EFA 		endbr64
 113:testCore.cpp  **** 
 3516              		.loc 3 113 2
 3517 1863 4889C3   		movq	%rax, %rbx
 3518 1866 E8000000 		call	__cxa_end_catch@PLT
 3518      00
 3519 186b 4889D8   		movq	%rbx, %rax
 3520 186e 4889C7   		movq	%rax, %rdi
 3521              	.LEHB142:
 3522 1871 E8000000 		call	_Unwind_Resume@PLT
 3522      00
 3523              	.LEHE142:
 3524              	.L193:
 3525 1876 F30F1EFA 		endbr64
 117:testCore.cpp  **** 	CHECK_EQUAL(16UL, buf.capacity);
 3526              		.loc 3 117 2 is_stmt 1
 3527 187a 4889C7   		movq	%rax, %rdi
 3528 187d E8000000 		call	__cxa_begin_catch@PLT
 3528      00
 3529              	.LEHB143:
 3530 1882 E8000000 		call	_ZN8UnitTest11CurrentTest7ResultsEv@PLT
 3530      00
 117:testCore.cpp  **** 	CHECK_EQUAL(16UL, buf.capacity);
 3531              		.loc 3 117 2 is_stmt 0 discriminator 3
 3532 1887 488B18   		movq	(%rax), %rbx
 3533 188a E8000000 		call	_ZN8UnitTest11CurrentTest7DetailsEv@PLT
 3533      00
 117:testCore.cpp  **** 	CHECK_EQUAL(16UL, buf.capacity);
 3534              		.loc 3 117 2 discriminator 11
 3535 188f 488B08   		movq	(%rax), %rcx
 3536 1892 488D45B0 		leaq	-80(%rbp), %rax
 3537 1896 BA750000 		movl	$117, %edx
 3537      00
 3538 189b 4889CE   		movq	%rcx, %rsi
 3539 189e 4889C7   		movq	%rax, %rdi
 3540 18a1 E8000000 		call	_ZN8UnitTest11TestDetailsC1ERKS0_i@PLT
 3540      00
 117:testCore.cpp  **** 	CHECK_EQUAL(16UL, buf.capacity);
 3541              		.loc 3 117 2 discriminator 15
 3542 18a6 488D45B0 		leaq	-80(%rbp), %rax
 3543 18aa 488D1500 		leaq	.LC3(%rip), %rdx
 3543      000000
 3544 18b1 4889C6   		movq	%rax, %rsi
 3545 18b4 4889DF   		movq	%rbx, %rdi
 3546 18b7 E8000000 		call	_ZN8UnitTest11TestResults13OnTestFailureERKNS_11TestDetailsEPKc@PLT
 3546      00
 3547              	.LEHE143:
 3548              	.LEHB144:
 117:testCore.cpp  **** 	CHECK_EQUAL(16UL, buf.capacity);
 3549              		.loc 3 117 2 discriminator 17
 3550 18bc E8000000 		call	__cxa_end_catch@PLT
 3550      00
 3551              	.LEHE144:
 3552 18c1 E950FEFF 		jmp	.L179
 3552      FF
 3553              	.L194:
 3554 18c6 F30F1EFA 		endbr64
 117:testCore.cpp  **** 	CHECK_EQUAL(16UL, buf.capacity);
 3555              		.loc 3 117 2
 3556 18ca 4889C3   		movq	%rax, %rbx
 3557 18cd E8000000 		call	__cxa_end_catch@PLT
 3557      00
 3558 18d2 4889D8   		movq	%rbx, %rax
 3559 18d5 4889C7   		movq	%rax, %rdi
 3560              	.LEHB145:
 3561 18d8 E8000000 		call	_Unwind_Resume@PLT
 3561      00
 3562              	.LEHE145:
 3563              	.L195:
 3564 18dd F30F1EFA 		endbr64
 118:testCore.cpp  **** 	CHECK_EQUAL(9UL, buf.length);
 3565              		.loc 3 118 2 is_stmt 1
 3566 18e1 4889C7   		movq	%rax, %rdi
 3567 18e4 E8000000 		call	__cxa_begin_catch@PLT
 3567      00
 3568              	.LEHB146:
 3569 18e9 E8000000 		call	_ZN8UnitTest11CurrentTest7ResultsEv@PLT
 3569      00
 118:testCore.cpp  **** 	CHECK_EQUAL(9UL, buf.length);
 3570              		.loc 3 118 2 is_stmt 0 discriminator 3
 3571 18ee 488B18   		movq	(%rax), %rbx
 3572 18f1 E8000000 		call	_ZN8UnitTest11CurrentTest7DetailsEv@PLT
 3572      00
 118:testCore.cpp  **** 	CHECK_EQUAL(9UL, buf.length);
 3573              		.loc 3 118 2 discriminator 11
 3574 18f6 488B08   		movq	(%rax), %rcx
 3575 18f9 488D45B0 		leaq	-80(%rbp), %rax
 3576 18fd BA760000 		movl	$118, %edx
 3576      00
 3577 1902 4889CE   		movq	%rcx, %rsi
 3578 1905 4889C7   		movq	%rax, %rdi
 3579 1908 E8000000 		call	_ZN8UnitTest11TestDetailsC1ERKS0_i@PLT
 3579      00
 118:testCore.cpp  **** 	CHECK_EQUAL(9UL, buf.length);
 3580              		.loc 3 118 2 discriminator 15
 3581 190d 488D45B0 		leaq	-80(%rbp), %rax
 3582 1911 488D1500 		leaq	.LC13(%rip), %rdx
 3582      000000
 3583 1918 4889C6   		movq	%rax, %rsi
 3584 191b 4889DF   		movq	%rbx, %rdi
 3585 191e E8000000 		call	_ZN8UnitTest11TestResults13OnTestFailureERKNS_11TestDetailsEPKc@PLT
 3585      00
 3586              	.LEHE146:
 3587              	.LEHB147:
 118:testCore.cpp  **** 	CHECK_EQUAL(9UL, buf.length);
 3588              		.loc 3 118 2 discriminator 17
 3589 1923 E8000000 		call	__cxa_end_catch@PLT
 3589      00
 3590              	.LEHE147:
 3591 1928 E933FEFF 		jmp	.L182
 3591      FF
 3592              	.L196:
 3593 192d F30F1EFA 		endbr64
 118:testCore.cpp  **** 	CHECK_EQUAL(9UL, buf.length);
 3594              		.loc 3 118 2
 3595 1931 4889C3   		movq	%rax, %rbx
 3596 1934 E8000000 		call	__cxa_end_catch@PLT
 3596      00
 3597 1939 4889D8   		movq	%rbx, %rax
 3598 193c 4889C7   		movq	%rax, %rdi
 3599              	.LEHB148:
 3600 193f E8000000 		call	_Unwind_Resume@PLT
 3600      00
 3601              	.LEHE148:
 3602              	.L197:
 3603 1944 F30F1EFA 		endbr64
 119:testCore.cpp  **** 	CHECK_ARRAY_EQUAL(expected, buf.data, 16);
 3604              		.loc 3 119 2 is_stmt 1
 3605 1948 4889C7   		movq	%rax, %rdi
 3606 194b E8000000 		call	__cxa_begin_catch@PLT
 3606      00
 3607              	.LEHB149:
 3608 1950 E8000000 		call	_ZN8UnitTest11CurrentTest7ResultsEv@PLT
 3608      00
 119:testCore.cpp  **** 	CHECK_ARRAY_EQUAL(expected, buf.data, 16);
 3609              		.loc 3 119 2 is_stmt 0 discriminator 3
 3610 1955 488B18   		movq	(%rax), %rbx
 3611 1958 E8000000 		call	_ZN8UnitTest11CurrentTest7DetailsEv@PLT
 3611      00
 119:testCore.cpp  **** 	CHECK_ARRAY_EQUAL(expected, buf.data, 16);
 3612              		.loc 3 119 2 discriminator 11
 3613 195d 488B08   		movq	(%rax), %rcx
 3614 1960 488D45B0 		leaq	-80(%rbp), %rax
 3615 1964 BA770000 		movl	$119, %edx
 3615      00
 3616 1969 4889CE   		movq	%rcx, %rsi
 3617 196c 4889C7   		movq	%rax, %rdi
 3618 196f E8000000 		call	_ZN8UnitTest11TestDetailsC1ERKS0_i@PLT
 3618      00
 119:testCore.cpp  **** 	CHECK_ARRAY_EQUAL(expected, buf.data, 16);
 3619              		.loc 3 119 2 discriminator 15
 3620 1974 488D45B0 		leaq	-80(%rbp), %rax
 3621 1978 488D1500 		leaq	.LC14(%rip), %rdx
 3621      000000
 3622 197f 4889C6   		movq	%rax, %rsi
 3623 1982 4889DF   		movq	%rbx, %rdi
 3624 1985 E8000000 		call	_ZN8UnitTest11TestResults13OnTestFailureERKNS_11TestDetailsEPKc@PLT
 3624      00
 3625              	.LEHE149:
 3626              	.LEHB150:
 119:testCore.cpp  **** 	CHECK_ARRAY_EQUAL(expected, buf.data, 16);
 3627              		.loc 3 119 2 discriminator 17
 3628 198a E8000000 		call	__cxa_end_catch@PLT
 3628      00
 3629              	.LEHE150:
 3630 198f E916FEFF 		jmp	.L185
 3630      FF
 3631              	.L198:
 3632 1994 F30F1EFA 		endbr64
 119:testCore.cpp  **** 	CHECK_ARRAY_EQUAL(expected, buf.data, 16);
 3633              		.loc 3 119 2
 3634 1998 4889C3   		movq	%rax, %rbx
 3635 199b E8000000 		call	__cxa_end_catch@PLT
 3635      00
 3636 19a0 4889D8   		movq	%rbx, %rax
 3637 19a3 4889C7   		movq	%rax, %rdi
 3638              	.LEHB151:
 3639 19a6 E8000000 		call	_Unwind_Resume@PLT
 3639      00
 3640              	.LEHE151:
 3641              	.L199:
 3642 19ab F30F1EFA 		endbr64
 120:testCore.cpp  **** 	bufDestroy(&buf);
 3643              		.loc 3 120 2 is_stmt 1
 3644 19af 4889C7   		movq	%rax, %rdi
 3645 19b2 E8000000 		call	__cxa_begin_catch@PLT
 3645      00
 3646              	.LEHB152:
 3647 19b7 E8000000 		call	_ZN8UnitTest11CurrentTest7ResultsEv@PLT
 3647      00
 120:testCore.cpp  **** 	bufDestroy(&buf);
 3648              		.loc 3 120 2 is_stmt 0 discriminator 3
 3649 19bc 488B18   		movq	(%rax), %rbx
 3650 19bf E8000000 		call	_ZN8UnitTest11CurrentTest7DetailsEv@PLT
 3650      00
 120:testCore.cpp  **** 	bufDestroy(&buf);
 3651              		.loc 3 120 2 discriminator 11
 3652 19c4 488B08   		movq	(%rax), %rcx
 3653 19c7 488D45B0 		leaq	-80(%rbp), %rax
 3654 19cb BA780000 		movl	$120, %edx
 3654      00
 3655 19d0 4889CE   		movq	%rcx, %rsi
 3656 19d3 4889C7   		movq	%rax, %rdi
 3657 19d6 E8000000 		call	_ZN8UnitTest11TestDetailsC1ERKS0_i@PLT
 3657      00
 120:testCore.cpp  **** 	bufDestroy(&buf);
 3658              		.loc 3 120 2 discriminator 15
 3659 19db 488D45B0 		leaq	-80(%rbp), %rax
 3660 19df 488D1500 		leaq	.LC6(%rip), %rdx
 3660      000000
 3661 19e6 4889C6   		movq	%rax, %rsi
 3662 19e9 4889DF   		movq	%rbx, %rdi
 3663 19ec E8000000 		call	_ZN8UnitTest11TestResults13OnTestFailureERKNS_11TestDetailsEPKc@PLT
 3663      00
 3664              	.LEHE152:
 3665              	.LEHB153:
 120:testCore.cpp  **** 	bufDestroy(&buf);
 3666              		.loc 3 120 2 discriminator 17
 3667 19f1 E8000000 		call	__cxa_end_catch@PLT
 3667      00
 3668              	.LEHE153:
 3669 19f6 E9EFFDFF 		jmp	.L188
 3669      FF
 3670              	.L200:
 3671 19fb F30F1EFA 		endbr64
 120:testCore.cpp  **** 	bufDestroy(&buf);
 3672              		.loc 3 120 2
 3673 19ff 4889C3   		movq	%rax, %rbx
 3674 1a02 E8000000 		call	__cxa_end_catch@PLT
 3674      00
 3675 1a07 4889D8   		movq	%rbx, %rax
 3676 1a0a 4889C7   		movq	%rax, %rdi
 3677              	.LEHB154:
 3678 1a0d E8000000 		call	_Unwind_Resume@PLT
 3678      00
 3679              	.LEHE154:
 3680              	.L201:
 3681              		.loc 3 122 1 is_stmt 1
 3682 1a12 E8000000 		call	__stack_chk_fail@PLT
 3682      00
 3683              	.L190:
 3684 1a17 488B5DF8 		movq	-8(%rbp), %rbx
 3685 1a1b C9       		leave
 3686              		.cfi_def_cfa 7, 8
 3687 1a1c C3       		ret
 3688              		.cfi_endproc
 3689              	.LFE1172:
 3690              		.section	.gcc_except_table
 3691              		.align 4
 3692              	.LLSDA1172:
 3693 02f8 FF       		.byte	0xff
 3694 02f9 9B       		.byte	0x9b
 3695 02fa 8401     		.uleb128 .LLSDATT1172-.LLSDATTD1172
 3696              	.LLSDATTD1172:
 3697 02fc 01       		.byte	0x1
 3698 02fd 7B       		.uleb128 .LLSDACSE1172-.LLSDACSB1172
 3699              	.LLSDACSB1172:
 3700 02fe 3C       		.uleb128 .LEHB132-.LFB1172
 3701 02ff 05       		.uleb128 .LEHE132-.LEHB132
 3702 0300 00       		.uleb128 0
 3703 0301 00       		.uleb128 0
 3704 0302 44       		.uleb128 .LEHB133-.LFB1172
 3705 0303 3F       		.uleb128 .LEHE133-.LEHB133
 3706 0304 F103     		.uleb128 .L191-.LFB1172
 3707 0306 01       		.uleb128 0x1
 3708 0307 B101     		.uleb128 .LEHB134-.LFB1172
 3709 0309 05       		.uleb128 .LEHE134-.LEHB134
 3710 030a 00       		.uleb128 0
 3711 030b 00       		.uleb128 0
 3712 030c B901     		.uleb128 .LEHB135-.LFB1172
 3713 030e 3F       		.uleb128 .LEHE135-.LEHB135
 3714 030f D804     		.uleb128 .L193-.LFB1172
 3715 0311 01       		.uleb128 0x1
 3716 0312 F801     		.uleb128 .LEHB136-.LFB1172
 3717 0314 4A       		.uleb128 .LEHE136-.LEHB136
 3718 0315 BF05     		.uleb128 .L195-.LFB1172
 3719 0317 01       		.uleb128 0x1
 3720 0318 C202     		.uleb128 .LEHB137-.LFB1172
 3721 031a 4A       		.uleb128 .LEHE137-.LEHB137
 3722 031b A606     		.uleb128 .L197-.LFB1172
 3723 031d 01       		.uleb128 0x1
 3724 031e 8C03     		.uleb128 .LEHB138-.LFB1172
 3725 0320 40       		.uleb128 .LEHE138-.LEHB138
 3726 0321 8D07     		.uleb128 .L199-.LFB1172
 3727 0323 01       		.uleb128 0x1
 3728 0324 D303     		.uleb128 .LEHB139-.LFB1172
 3729 0326 05       		.uleb128 .LEHE139-.LEHB139
 3730 0327 00       		.uleb128 0
 3731 0328 00       		.uleb128 0
 3732 0329 FD03     		.uleb128 .LEHB140-.LFB1172
 3733 032b 3A       		.uleb128 .LEHE140-.LEHB140
 3734 032c C104     		.uleb128 .L192-.LFB1172
 3735 032e 00       		.uleb128 0
 3736 032f B704     		.uleb128 .LEHB141-.LFB1172
 3737 0331 05       		.uleb128 .LEHE141-.LEHB141
 3738 0332 00       		.uleb128 0
 3739 0333 00       		.uleb128 0
 3740 0334 D304     		.uleb128 .LEHB142-.LFB1172
 3741 0336 05       		.uleb128 .LEHE142-.LEHB142
 3742 0337 00       		.uleb128 0
 3743 0338 00       		.uleb128 0
 3744 0339 E404     		.uleb128 .LEHB143-.LFB1172
 3745 033b 3A       		.uleb128 .LEHE143-.LEHB143
 3746 033c A805     		.uleb128 .L194-.LFB1172
 3747 033e 00       		.uleb128 0
 3748 033f 9E05     		.uleb128 .LEHB144-.LFB1172
 3749 0341 05       		.uleb128 .LEHE144-.LEHB144
 3750 0342 00       		.uleb128 0
 3751 0343 00       		.uleb128 0
 3752 0344 BA05     		.uleb128 .LEHB145-.LFB1172
 3753 0346 05       		.uleb128 .LEHE145-.LEHB145
 3754 0347 00       		.uleb128 0
 3755 0348 00       		.uleb128 0
 3756 0349 CB05     		.uleb128 .LEHB146-.LFB1172
 3757 034b 3A       		.uleb128 .LEHE146-.LEHB146
 3758 034c 8F06     		.uleb128 .L196-.LFB1172
 3759 034e 00       		.uleb128 0
 3760 034f 8506     		.uleb128 .LEHB147-.LFB1172
 3761 0351 05       		.uleb128 .LEHE147-.LEHB147
 3762 0352 00       		.uleb128 0
 3763 0353 00       		.uleb128 0
 3764 0354 A106     		.uleb128 .LEHB148-.LFB1172
 3765 0356 05       		.uleb128 .LEHE148-.LEHB148
 3766 0357 00       		.uleb128 0
 3767 0358 00       		.uleb128 0
 3768 0359 B206     		.uleb128 .LEHB149-.LFB1172
 3769 035b 3A       		.uleb128 .LEHE149-.LEHB149
 3770 035c F606     		.uleb128 .L198-.LFB1172
 3771 035e 00       		.uleb128 0
 3772 035f EC06     		.uleb128 .LEHB150-.LFB1172
 3773 0361 05       		.uleb128 .LEHE150-.LEHB150
 3774 0362 00       		.uleb128 0
 3775 0363 00       		.uleb128 0
 3776 0364 8807     		.uleb128 .LEHB151-.LFB1172
 3777 0366 05       		.uleb128 .LEHE151-.LEHB151
 3778 0367 00       		.uleb128 0
 3779 0368 00       		.uleb128 0
 3780 0369 9907     		.uleb128 .LEHB152-.LFB1172
 3781 036b 3A       		.uleb128 .LEHE152-.LEHB152
 3782 036c DD07     		.uleb128 .L200-.LFB1172
 3783 036e 00       		.uleb128 0
 3784 036f D307     		.uleb128 .LEHB153-.LFB1172
 3785 0371 05       		.uleb128 .LEHE153-.LEHB153
 3786 0372 00       		.uleb128 0
 3787 0373 00       		.uleb128 0
 3788 0374 EF07     		.uleb128 .LEHB154-.LFB1172
 3789 0376 05       		.uleb128 .LEHE154-.LEHB154
 3790 0377 00       		.uleb128 0
 3791 0378 00       		.uleb128 0
 3792              	.LLSDACSE1172:
 3793 0379 01       		.byte	0x1
 3794 037a 00       		.byte	0
 3795 037b 00       		.align 4
 3796 037c 00000000 		.long	0
 3797              	
 3798              	.LLSDATT1172:
 3799              		.text
 3801              		.section	.rodata
 3802              	.LC17:
 3803 02b4 436F7265 		.string	"Core_testAppendByte"
 3803      5F746573 
 3803      74417070 
 3803      656E6442 
 3803      79746500 
 3804              		.section	.text._ZN23TestCore_testAppendByteC2Ev,"axG",@progbits,_ZN23TestCore_testAppendByteC5Ev,c
 3805              		.align 2
 3806              		.weak	_ZN23TestCore_testAppendByteC2Ev
 3808              	_ZN23TestCore_testAppendByteC2Ev:
 3809              	.LFB1174:
 123:testCore.cpp  **** 
 124:testCore.cpp  **** TEST(Core_testAppendByte) {
 3810              		.loc 3 124 1
 3811              		.cfi_startproc
 3812 0000 F30F1EFA 		endbr64
 3813 0004 55       		pushq	%rbp
 3814              		.cfi_def_cfa_offset 16
 3815              		.cfi_offset 6, -16
 3816 0005 4889E5   		movq	%rsp, %rbp
 3817              		.cfi_def_cfa_register 6
 3818 0008 53       		pushq	%rbx
 3819 0009 4883EC18 		subq	$24, %rsp
 3820              		.cfi_offset 3, -24
 3821 000d 48897DE8 		movq	%rdi, -24(%rbp)
 3822              	.LBB11:
 3823              		.loc 3 124 1
 3824 0011 488B5DE8 		movq	-24(%rbp), %rbx
 3825 0015 E8000000 		call	_ZN13UnitTestSuite12GetSuiteNameEv
 3825      00
 3826 001a 4889C2   		movq	%rax, %rdx
 3827 001d 41B87C00 		movl	$124, %r8d
 3827      0000
 3828 0023 488D0500 		leaq	.LC1(%rip), %rax
 3828      000000
 3829 002a 4889C1   		movq	%rax, %rcx
 3830 002d 488D0500 		leaq	.LC17(%rip), %rax
 3830      000000
 3831 0034 4889C6   		movq	%rax, %rsi
 3832 0037 4889DF   		movq	%rbx, %rdi
 3833 003a E8000000 		call	_ZN8UnitTest4TestC2EPKcS2_S2_i@PLT
 3833      00
 3834 003f 488D1500 		leaq	16+_ZTV23TestCore_testAppendByte(%rip), %rdx
 3834      000000
 3835 0046 488B45E8 		movq	-24(%rbp), %rax
 3836 004a 488910   		movq	%rdx, (%rax)
 3837              	.LBE11:
 3838 004d 90       		nop
 3839 004e 488B5DF8 		movq	-8(%rbp), %rbx
 3840 0052 C9       		leave
 3841              		.cfi_def_cfa 7, 8
 3842 0053 C3       		ret
 3843              		.cfi_endproc
 3844              	.LFE1174:
 3846              		.weak	_ZN23TestCore_testAppendByteC1Ev
 3847              		.set	_ZN23TestCore_testAppendByteC1Ev,_ZN23TestCore_testAppendByteC2Ev
 3848              		.globl	testCore_testAppendByteInstance
 3849              		.bss
 3850 01b9 00000000 		.align 32
 3850      000000
 3853              	testCore_testAppendByteInstance:
 3854 01c0 00000000 		.zero	56
 3854      00000000 
 3854      00000000 
 3854      00000000 
 3854      00000000 
 3855              		.globl	adderCore_testAppendByte
 3858              	adderCore_testAppendByte:
 3859 01f8 00       		.zero	1
 3860              		.text
 3861 1a1d 90       		.align 2
 3862              		.globl	_ZNK23TestCore_testAppendByte7RunImplEv
 3864              	_ZNK23TestCore_testAppendByte7RunImplEv:
 3865              	.LFB1176:
 3866              		.loc 3 124 27
 3867              		.cfi_startproc
 3868              		.cfi_personality 0x9b,DW.ref.__gxx_personality_v0
 3869              		.cfi_lsda 0x1b,.LLSDA1176
 3870 1a1e F30F1EFA 		endbr64
 3871 1a22 55       		pushq	%rbp
 3872              		.cfi_def_cfa_offset 16
 3873              		.cfi_offset 6, -16
 3874 1a23 4889E5   		movq	%rsp, %rbp
 3875              		.cfi_def_cfa_register 6
 3876 1a26 53       		pushq	%rbx
 3877 1a27 4881EC88 		subq	$136, %rsp
 3877      000000
 3878              		.cfi_offset 3, -24
 3879 1a2e 4889BD78 		movq	%rdi, -136(%rbp)
 3879      FFFFFF
 3880              		.loc 3 124 27
 3881 1a35 64488B04 		movq	%fs:40, %rax
 3881      25280000 
 3881      00
 3882 1a3e 488945E8 		movq	%rax, -24(%rbp)
 3883 1a42 31C0     		xorl	%eax, %eax
 125:testCore.cpp  **** 	Buffer buf;
 126:testCore.cpp  **** 	BufferStatus status;
 127:testCore.cpp  **** 
 128:testCore.cpp  **** 	status = bufInitialise(&buf, 4, 0, NULL);
 3884              		.loc 3 128 24
 3885 1a44 488D4590 		leaq	-112(%rbp), %rax
 3886 1a48 B9000000 		movl	$0, %ecx
 3886      00
 3887 1a4d BA000000 		movl	$0, %edx
 3887      00
 3888 1a52 BE040000 		movl	$4, %esi
 3888      00
 3889 1a57 4889C7   		movq	%rax, %rdi
 3890              	.LEHB155:
 3891 1a5a E8000000 		call	bufInitialise@PLT
 3891      00
 3892              	.LEHE155:
 3893              		.loc 3 128 9
 3894 1a5f 894584   		movl	%eax, -124(%rbp)
 3895              	.LEHB156:
 129:testCore.cpp  **** 	CHECK_EQUAL(BUF_SUCCESS, status);
 3896              		.loc 3 129 2
 3897 1a62 E8000000 		call	_ZN8UnitTest11CurrentTest7DetailsEv@PLT
 3897      00
 3898 1a67 488B08   		movq	(%rax), %rcx
 3899 1a6a 488D45B0 		leaq	-80(%rbp), %rax
 3900 1a6e BA810000 		movl	$129, %edx
 3900      00
 3901 1a73 4889CE   		movq	%rcx, %rsi
 3902 1a76 4889C7   		movq	%rax, %rdi
 3903 1a79 E8000000 		call	_ZN8UnitTest11TestDetailsC1ERKS0_i@PLT
 3903      00
 3904              		.loc 3 129 2 is_stmt 0 discriminator 4
 3905 1a7e C7458800 		movl	$0, -120(%rbp)
 3905      000000
 3906 1a85 E8000000 		call	_ZN8UnitTest11CurrentTest7ResultsEv@PLT
 3906      00
 3907 1a8a 488B00   		movq	(%rax), %rax
 3908 1a8d 488D4DB0 		leaq	-80(%rbp), %rcx
 3909 1a91 488D5584 		leaq	-124(%rbp), %rdx
 3910 1a95 488D7588 		leaq	-120(%rbp), %rsi
 3911 1a99 4889C7   		movq	%rax, %rdi
 3912 1a9c E8000000 		call	_ZN8UnitTest10CheckEqualI12BufferStatusS1_EEvRNS_11TestResultsERKT_RKT0_RKNS_11TestDetailsE
 3912      00
 3913              	.LEHE156:
 3914              	.L205:
 130:testCore.cpp  **** 
 131:testCore.cpp  **** 	const unsigned char expected[] = {1, 2, 3, 4, 5, 6, 7, 8, 9, 0, 0, 0, 0, 0, 0, 0};
 3915              		.loc 3 131 22 is_stmt 1
 3916 1aa1 48B80102 		movabsq	$578437695752307201, %rax
 3916      03040506 
 3916      0708
 3917 1aab BA090000 		movl	$9, %edx
 3917      00
 3918 1ab0 488945D0 		movq	%rax, -48(%rbp)
 3919 1ab4 488955D8 		movq	%rdx, -40(%rbp)
 132:testCore.cpp  **** 	status = bufAppendByte(&buf, 1, NULL);
 3920              		.loc 3 132 24
 3921 1ab8 488D4590 		leaq	-112(%rbp), %rax
 3922 1abc BA000000 		movl	$0, %edx
 3922      00
 3923 1ac1 BE010000 		movl	$1, %esi
 3923      00
 3924 1ac6 4889C7   		movq	%rax, %rdi
 3925              	.LEHB157:
 3926 1ac9 E8000000 		call	bufAppendByte@PLT
 3926      00
 3927              	.LEHE157:
 3928              		.loc 3 132 9
 3929 1ace 894584   		movl	%eax, -124(%rbp)
 3930              	.LEHB158:
 133:testCore.cpp  **** 	CHECK_EQUAL(BUF_SUCCESS, status);
 3931              		.loc 3 133 2
 3932 1ad1 E8000000 		call	_ZN8UnitTest11CurrentTest7DetailsEv@PLT
 3932      00
 3933 1ad6 488B08   		movq	(%rax), %rcx
 3934 1ad9 488D45B0 		leaq	-80(%rbp), %rax
 3935 1add BA850000 		movl	$133, %edx
 3935      00
 3936 1ae2 4889CE   		movq	%rcx, %rsi
 3937 1ae5 4889C7   		movq	%rax, %rdi
 3938 1ae8 E8000000 		call	_ZN8UnitTest11TestDetailsC1ERKS0_i@PLT
 3938      00
 3939              		.loc 3 133 2 is_stmt 0 discriminator 4
 3940 1aed C7458800 		movl	$0, -120(%rbp)
 3940      000000
 3941 1af4 E8000000 		call	_ZN8UnitTest11CurrentTest7ResultsEv@PLT
 3941      00
 3942 1af9 488B00   		movq	(%rax), %rax
 3943 1afc 488D4DB0 		leaq	-80(%rbp), %rcx
 3944 1b00 488D5584 		leaq	-124(%rbp), %rdx
 3945 1b04 488D7588 		leaq	-120(%rbp), %rsi
 3946 1b08 4889C7   		movq	%rax, %rdi
 3947 1b0b E8000000 		call	_ZN8UnitTest10CheckEqualI12BufferStatusS1_EEvRNS_11TestResultsERKT_RKT0_RKNS_11TestDetailsE
 3947      00
 3948              	.LEHE158:
 3949              	.L208:
 134:testCore.cpp  **** 	status = bufAppendByte(&buf, 2, NULL);
 3950              		.loc 3 134 24 is_stmt 1
 3951 1b10 488D4590 		leaq	-112(%rbp), %rax
 3952 1b14 BA000000 		movl	$0, %edx
 3952      00
 3953 1b19 BE020000 		movl	$2, %esi
 3953      00
 3954 1b1e 4889C7   		movq	%rax, %rdi
 3955              	.LEHB159:
 3956 1b21 E8000000 		call	bufAppendByte@PLT
 3956      00
 3957              	.LEHE159:
 3958              		.loc 3 134 9
 3959 1b26 894584   		movl	%eax, -124(%rbp)
 3960              	.LEHB160:
 135:testCore.cpp  **** 	CHECK_EQUAL(BUF_SUCCESS, status);
 3961              		.loc 3 135 2
 3962 1b29 E8000000 		call	_ZN8UnitTest11CurrentTest7DetailsEv@PLT
 3962      00
 3963 1b2e 488B08   		movq	(%rax), %rcx
 3964 1b31 488D45B0 		leaq	-80(%rbp), %rax
 3965 1b35 BA870000 		movl	$135, %edx
 3965      00
 3966 1b3a 4889CE   		movq	%rcx, %rsi
 3967 1b3d 4889C7   		movq	%rax, %rdi
 3968 1b40 E8000000 		call	_ZN8UnitTest11TestDetailsC1ERKS0_i@PLT
 3968      00
 3969              		.loc 3 135 2 is_stmt 0 discriminator 4
 3970 1b45 C7458800 		movl	$0, -120(%rbp)
 3970      000000
 3971 1b4c E8000000 		call	_ZN8UnitTest11CurrentTest7ResultsEv@PLT
 3971      00
 3972 1b51 488B00   		movq	(%rax), %rax
 3973 1b54 488D4DB0 		leaq	-80(%rbp), %rcx
 3974 1b58 488D5584 		leaq	-124(%rbp), %rdx
 3975 1b5c 488D7588 		leaq	-120(%rbp), %rsi
 3976 1b60 4889C7   		movq	%rax, %rdi
 3977 1b63 E8000000 		call	_ZN8UnitTest10CheckEqualI12BufferStatusS1_EEvRNS_11TestResultsERKT_RKT0_RKNS_11TestDetailsE
 3977      00
 3978              	.LEHE160:
 3979              	.L211:
 136:testCore.cpp  **** 	status = bufAppendByte(&buf, 3, NULL);
 3980              		.loc 3 136 24 is_stmt 1
 3981 1b68 488D4590 		leaq	-112(%rbp), %rax
 3982 1b6c BA000000 		movl	$0, %edx
 3982      00
 3983 1b71 BE030000 		movl	$3, %esi
 3983      00
 3984 1b76 4889C7   		movq	%rax, %rdi
 3985              	.LEHB161:
 3986 1b79 E8000000 		call	bufAppendByte@PLT
 3986      00
 3987              	.LEHE161:
 3988              		.loc 3 136 9
 3989 1b7e 894584   		movl	%eax, -124(%rbp)
 3990              	.LEHB162:
 137:testCore.cpp  **** 	CHECK_EQUAL(BUF_SUCCESS, status);
 3991              		.loc 3 137 2
 3992 1b81 E8000000 		call	_ZN8UnitTest11CurrentTest7DetailsEv@PLT
 3992      00
 3993 1b86 488B08   		movq	(%rax), %rcx
 3994 1b89 488D45B0 		leaq	-80(%rbp), %rax
 3995 1b8d BA890000 		movl	$137, %edx
 3995      00
 3996 1b92 4889CE   		movq	%rcx, %rsi
 3997 1b95 4889C7   		movq	%rax, %rdi
 3998 1b98 E8000000 		call	_ZN8UnitTest11TestDetailsC1ERKS0_i@PLT
 3998      00
 3999              		.loc 3 137 2 is_stmt 0 discriminator 4
 4000 1b9d C7458800 		movl	$0, -120(%rbp)
 4000      000000
 4001 1ba4 E8000000 		call	_ZN8UnitTest11CurrentTest7ResultsEv@PLT
 4001      00
 4002 1ba9 488B00   		movq	(%rax), %rax
 4003 1bac 488D4DB0 		leaq	-80(%rbp), %rcx
 4004 1bb0 488D5584 		leaq	-124(%rbp), %rdx
 4005 1bb4 488D7588 		leaq	-120(%rbp), %rsi
 4006 1bb8 4889C7   		movq	%rax, %rdi
 4007 1bbb E8000000 		call	_ZN8UnitTest10CheckEqualI12BufferStatusS1_EEvRNS_11TestResultsERKT_RKT0_RKNS_11TestDetailsE
 4007      00
 4008              	.LEHE162:
 4009              	.L214:
 138:testCore.cpp  **** 	status = bufAppendByte(&buf, 4, NULL);
 4010              		.loc 3 138 24 is_stmt 1
 4011 1bc0 488D4590 		leaq	-112(%rbp), %rax
 4012 1bc4 BA000000 		movl	$0, %edx
 4012      00
 4013 1bc9 BE040000 		movl	$4, %esi
 4013      00
 4014 1bce 4889C7   		movq	%rax, %rdi
 4015              	.LEHB163:
 4016 1bd1 E8000000 		call	bufAppendByte@PLT
 4016      00
 4017              	.LEHE163:
 4018              		.loc 3 138 9
 4019 1bd6 894584   		movl	%eax, -124(%rbp)
 4020              	.LEHB164:
 139:testCore.cpp  **** 	CHECK_EQUAL(BUF_SUCCESS, status);
 4021              		.loc 3 139 2
 4022 1bd9 E8000000 		call	_ZN8UnitTest11CurrentTest7DetailsEv@PLT
 4022      00
 4023 1bde 488B08   		movq	(%rax), %rcx
 4024 1be1 488D45B0 		leaq	-80(%rbp), %rax
 4025 1be5 BA8B0000 		movl	$139, %edx
 4025      00
 4026 1bea 4889CE   		movq	%rcx, %rsi
 4027 1bed 4889C7   		movq	%rax, %rdi
 4028 1bf0 E8000000 		call	_ZN8UnitTest11TestDetailsC1ERKS0_i@PLT
 4028      00
 4029              		.loc 3 139 2 is_stmt 0 discriminator 4
 4030 1bf5 C7458800 		movl	$0, -120(%rbp)
 4030      000000
 4031 1bfc E8000000 		call	_ZN8UnitTest11CurrentTest7ResultsEv@PLT
 4031      00
 4032 1c01 488B00   		movq	(%rax), %rax
 4033 1c04 488D4DB0 		leaq	-80(%rbp), %rcx
 4034 1c08 488D5584 		leaq	-124(%rbp), %rdx
 4035 1c0c 488D7588 		leaq	-120(%rbp), %rsi
 4036 1c10 4889C7   		movq	%rax, %rdi
 4037 1c13 E8000000 		call	_ZN8UnitTest10CheckEqualI12BufferStatusS1_EEvRNS_11TestResultsERKT_RKT0_RKNS_11TestDetailsE
 4037      00
 4038              	.LEHE164:
 4039              	.L217:
 140:testCore.cpp  **** 	status = bufAppendByte(&buf, 5, NULL);
 4040              		.loc 3 140 24 is_stmt 1
 4041 1c18 488D4590 		leaq	-112(%rbp), %rax
 4042 1c1c BA000000 		movl	$0, %edx
 4042      00
 4043 1c21 BE050000 		movl	$5, %esi
 4043      00
 4044 1c26 4889C7   		movq	%rax, %rdi
 4045              	.LEHB165:
 4046 1c29 E8000000 		call	bufAppendByte@PLT
 4046      00
 4047              	.LEHE165:
 4048              		.loc 3 140 9
 4049 1c2e 894584   		movl	%eax, -124(%rbp)
 4050              	.LEHB166:
 141:testCore.cpp  **** 	CHECK_EQUAL(BUF_SUCCESS, status);
 4051              		.loc 3 141 2
 4052 1c31 E8000000 		call	_ZN8UnitTest11CurrentTest7DetailsEv@PLT
 4052      00
 4053 1c36 488B08   		movq	(%rax), %rcx
 4054 1c39 488D45B0 		leaq	-80(%rbp), %rax
 4055 1c3d BA8D0000 		movl	$141, %edx
 4055      00
 4056 1c42 4889CE   		movq	%rcx, %rsi
 4057 1c45 4889C7   		movq	%rax, %rdi
 4058 1c48 E8000000 		call	_ZN8UnitTest11TestDetailsC1ERKS0_i@PLT
 4058      00
 4059              		.loc 3 141 2 is_stmt 0 discriminator 4
 4060 1c4d C7458800 		movl	$0, -120(%rbp)
 4060      000000
 4061 1c54 E8000000 		call	_ZN8UnitTest11CurrentTest7ResultsEv@PLT
 4061      00
 4062 1c59 488B00   		movq	(%rax), %rax
 4063 1c5c 488D4DB0 		leaq	-80(%rbp), %rcx
 4064 1c60 488D5584 		leaq	-124(%rbp), %rdx
 4065 1c64 488D7588 		leaq	-120(%rbp), %rsi
 4066 1c68 4889C7   		movq	%rax, %rdi
 4067 1c6b E8000000 		call	_ZN8UnitTest10CheckEqualI12BufferStatusS1_EEvRNS_11TestResultsERKT_RKT0_RKNS_11TestDetailsE
 4067      00
 4068              	.LEHE166:
 4069              	.L220:
 142:testCore.cpp  **** 	status = bufAppendByte(&buf, 6, NULL);
 4070              		.loc 3 142 24 is_stmt 1
 4071 1c70 488D4590 		leaq	-112(%rbp), %rax
 4072 1c74 BA000000 		movl	$0, %edx
 4072      00
 4073 1c79 BE060000 		movl	$6, %esi
 4073      00
 4074 1c7e 4889C7   		movq	%rax, %rdi
 4075              	.LEHB167:
 4076 1c81 E8000000 		call	bufAppendByte@PLT
 4076      00
 4077              	.LEHE167:
 4078              		.loc 3 142 9
 4079 1c86 894584   		movl	%eax, -124(%rbp)
 4080              	.LEHB168:
 143:testCore.cpp  **** 	CHECK_EQUAL(BUF_SUCCESS, status);
 4081              		.loc 3 143 2
 4082 1c89 E8000000 		call	_ZN8UnitTest11CurrentTest7DetailsEv@PLT
 4082      00
 4083 1c8e 488B08   		movq	(%rax), %rcx
 4084 1c91 488D45B0 		leaq	-80(%rbp), %rax
 4085 1c95 BA8F0000 		movl	$143, %edx
 4085      00
 4086 1c9a 4889CE   		movq	%rcx, %rsi
 4087 1c9d 4889C7   		movq	%rax, %rdi
 4088 1ca0 E8000000 		call	_ZN8UnitTest11TestDetailsC1ERKS0_i@PLT
 4088      00
 4089              		.loc 3 143 2 is_stmt 0 discriminator 4
 4090 1ca5 C7458800 		movl	$0, -120(%rbp)
 4090      000000
 4091 1cac E8000000 		call	_ZN8UnitTest11CurrentTest7ResultsEv@PLT
 4091      00
 4092 1cb1 488B00   		movq	(%rax), %rax
 4093 1cb4 488D4DB0 		leaq	-80(%rbp), %rcx
 4094 1cb8 488D5584 		leaq	-124(%rbp), %rdx
 4095 1cbc 488D7588 		leaq	-120(%rbp), %rsi
 4096 1cc0 4889C7   		movq	%rax, %rdi
 4097 1cc3 E8000000 		call	_ZN8UnitTest10CheckEqualI12BufferStatusS1_EEvRNS_11TestResultsERKT_RKT0_RKNS_11TestDetailsE
 4097      00
 4098              	.LEHE168:
 4099              	.L223:
 144:testCore.cpp  **** 	status = bufAppendByte(&buf, 7, NULL);
 4100              		.loc 3 144 24 is_stmt 1
 4101 1cc8 488D4590 		leaq	-112(%rbp), %rax
 4102 1ccc BA000000 		movl	$0, %edx
 4102      00
 4103 1cd1 BE070000 		movl	$7, %esi
 4103      00
 4104 1cd6 4889C7   		movq	%rax, %rdi
 4105              	.LEHB169:
 4106 1cd9 E8000000 		call	bufAppendByte@PLT
 4106      00
 4107              	.LEHE169:
 4108              		.loc 3 144 9
 4109 1cde 894584   		movl	%eax, -124(%rbp)
 4110              	.LEHB170:
 145:testCore.cpp  **** 	CHECK_EQUAL(BUF_SUCCESS, status);
 4111              		.loc 3 145 2
 4112 1ce1 E8000000 		call	_ZN8UnitTest11CurrentTest7DetailsEv@PLT
 4112      00
 4113 1ce6 488B08   		movq	(%rax), %rcx
 4114 1ce9 488D45B0 		leaq	-80(%rbp), %rax
 4115 1ced BA910000 		movl	$145, %edx
 4115      00
 4116 1cf2 4889CE   		movq	%rcx, %rsi
 4117 1cf5 4889C7   		movq	%rax, %rdi
 4118 1cf8 E8000000 		call	_ZN8UnitTest11TestDetailsC1ERKS0_i@PLT
 4118      00
 4119              		.loc 3 145 2 is_stmt 0 discriminator 4
 4120 1cfd C7458800 		movl	$0, -120(%rbp)
 4120      000000
 4121 1d04 E8000000 		call	_ZN8UnitTest11CurrentTest7ResultsEv@PLT
 4121      00
 4122 1d09 488B00   		movq	(%rax), %rax
 4123 1d0c 488D4DB0 		leaq	-80(%rbp), %rcx
 4124 1d10 488D5584 		leaq	-124(%rbp), %rdx
 4125 1d14 488D7588 		leaq	-120(%rbp), %rsi
 4126 1d18 4889C7   		movq	%rax, %rdi
 4127 1d1b E8000000 		call	_ZN8UnitTest10CheckEqualI12BufferStatusS1_EEvRNS_11TestResultsERKT_RKT0_RKNS_11TestDetailsE
 4127      00
 4128              	.LEHE170:
 4129              	.L226:
 146:testCore.cpp  **** 	status = bufAppendByte(&buf, 8, NULL);
 4130              		.loc 3 146 24 is_stmt 1
 4131 1d20 488D4590 		leaq	-112(%rbp), %rax
 4132 1d24 BA000000 		movl	$0, %edx
 4132      00
 4133 1d29 BE080000 		movl	$8, %esi
 4133      00
 4134 1d2e 4889C7   		movq	%rax, %rdi
 4135              	.LEHB171:
 4136 1d31 E8000000 		call	bufAppendByte@PLT
 4136      00
 4137              	.LEHE171:
 4138              		.loc 3 146 9
 4139 1d36 894584   		movl	%eax, -124(%rbp)
 4140              	.LEHB172:
 147:testCore.cpp  **** 	CHECK_EQUAL(BUF_SUCCESS, status);
 4141              		.loc 3 147 2
 4142 1d39 E8000000 		call	_ZN8UnitTest11CurrentTest7DetailsEv@PLT
 4142      00
 4143 1d3e 488B08   		movq	(%rax), %rcx
 4144 1d41 488D45B0 		leaq	-80(%rbp), %rax
 4145 1d45 BA930000 		movl	$147, %edx
 4145      00
 4146 1d4a 4889CE   		movq	%rcx, %rsi
 4147 1d4d 4889C7   		movq	%rax, %rdi
 4148 1d50 E8000000 		call	_ZN8UnitTest11TestDetailsC1ERKS0_i@PLT
 4148      00
 4149              		.loc 3 147 2 is_stmt 0 discriminator 4
 4150 1d55 C7458800 		movl	$0, -120(%rbp)
 4150      000000
 4151 1d5c E8000000 		call	_ZN8UnitTest11CurrentTest7ResultsEv@PLT
 4151      00
 4152 1d61 488B00   		movq	(%rax), %rax
 4153 1d64 488D4DB0 		leaq	-80(%rbp), %rcx
 4154 1d68 488D5584 		leaq	-124(%rbp), %rdx
 4155 1d6c 488D7588 		leaq	-120(%rbp), %rsi
 4156 1d70 4889C7   		movq	%rax, %rdi
 4157 1d73 E8000000 		call	_ZN8UnitTest10CheckEqualI12BufferStatusS1_EEvRNS_11TestResultsERKT_RKT0_RKNS_11TestDetailsE
 4157      00
 4158              	.LEHE172:
 4159              	.L229:
 148:testCore.cpp  **** 	status = bufAppendByte(&buf, 9, NULL);
 4160              		.loc 3 148 24 is_stmt 1
 4161 1d78 488D4590 		leaq	-112(%rbp), %rax
 4162 1d7c BA000000 		movl	$0, %edx
 4162      00
 4163 1d81 BE090000 		movl	$9, %esi
 4163      00
 4164 1d86 4889C7   		movq	%rax, %rdi
 4165              	.LEHB173:
 4166 1d89 E8000000 		call	bufAppendByte@PLT
 4166      00
 4167              	.LEHE173:
 4168              		.loc 3 148 9
 4169 1d8e 894584   		movl	%eax, -124(%rbp)
 4170              	.LEHB174:
 149:testCore.cpp  **** 	CHECK_EQUAL(BUF_SUCCESS, status);
 4171              		.loc 3 149 2
 4172 1d91 E8000000 		call	_ZN8UnitTest11CurrentTest7DetailsEv@PLT
 4172      00
 4173 1d96 488B08   		movq	(%rax), %rcx
 4174 1d99 488D45B0 		leaq	-80(%rbp), %rax
 4175 1d9d BA950000 		movl	$149, %edx
 4175      00
 4176 1da2 4889CE   		movq	%rcx, %rsi
 4177 1da5 4889C7   		movq	%rax, %rdi
 4178 1da8 E8000000 		call	_ZN8UnitTest11TestDetailsC1ERKS0_i@PLT
 4178      00
 4179              		.loc 3 149 2 is_stmt 0 discriminator 4
 4180 1dad C7458800 		movl	$0, -120(%rbp)
 4180      000000
 4181 1db4 E8000000 		call	_ZN8UnitTest11CurrentTest7ResultsEv@PLT
 4181      00
 4182 1db9 488B00   		movq	(%rax), %rax
 4183 1dbc 488D4DB0 		leaq	-80(%rbp), %rcx
 4184 1dc0 488D5584 		leaq	-124(%rbp), %rdx
 4185 1dc4 488D7588 		leaq	-120(%rbp), %rsi
 4186 1dc8 4889C7   		movq	%rax, %rdi
 4187 1dcb E8000000 		call	_ZN8UnitTest10CheckEqualI12BufferStatusS1_EEvRNS_11TestResultsERKT_RKT0_RKNS_11TestDetailsE
 4187      00
 4188              	.LEHE174:
 4189              	.L232:
 4190              	.LEHB175:
 150:testCore.cpp  **** 	CHECK_EQUAL(16UL, buf.capacity);
 4191              		.loc 3 150 2 is_stmt 1
 4192 1dd0 E8000000 		call	_ZN8UnitTest11CurrentTest7DetailsEv@PLT
 4192      00
 4193 1dd5 488B08   		movq	(%rax), %rcx
 4194 1dd8 488D45B0 		leaq	-80(%rbp), %rax
 4195 1ddc BA960000 		movl	$150, %edx
 4195      00
 4196 1de1 4889CE   		movq	%rcx, %rsi
 4197 1de4 4889C7   		movq	%rax, %rdi
 4198 1de7 E8000000 		call	_ZN8UnitTest11TestDetailsC1ERKS0_i@PLT
 4198      00
 4199              		.loc 3 150 2 is_stmt 0 discriminator 4
 4200 1dec 48C74588 		movq	$16, -120(%rbp)
 4200      10000000 
 4201 1df4 E8000000 		call	_ZN8UnitTest11CurrentTest7ResultsEv@PLT
 4201      00
 4202 1df9 488B00   		movq	(%rax), %rax
 4203 1dfc 488D55B0 		leaq	-80(%rbp), %rdx
 4204 1e00 488D4D90 		leaq	-112(%rbp), %rcx
 4205 1e04 488D7910 		leaq	16(%rcx), %rdi
 4206 1e08 488D7588 		leaq	-120(%rbp), %rsi
 4207 1e0c 4889D1   		movq	%rdx, %rcx
 4208 1e0f 4889FA   		movq	%rdi, %rdx
 4209 1e12 4889C7   		movq	%rax, %rdi
 4210 1e15 E8000000 		call	_ZN8UnitTest10CheckEqualImmEEvRNS_11TestResultsERKT_RKT0_RKNS_11TestDetailsE
 4210      00
 4211              	.LEHE175:
 4212              	.L235:
 4213              	.LEHB176:
 151:testCore.cpp  **** 	CHECK_EQUAL(9UL, buf.length);
 4214              		.loc 3 151 2 is_stmt 1
 4215 1e1a E8000000 		call	_ZN8UnitTest11CurrentTest7DetailsEv@PLT
 4215      00
 4216 1e1f 488B08   		movq	(%rax), %rcx
 4217 1e22 488D45B0 		leaq	-80(%rbp), %rax
 4218 1e26 BA970000 		movl	$151, %edx
 4218      00
 4219 1e2b 4889CE   		movq	%rcx, %rsi
 4220 1e2e 4889C7   		movq	%rax, %rdi
 4221 1e31 E8000000 		call	_ZN8UnitTest11TestDetailsC1ERKS0_i@PLT
 4221      00
 4222              		.loc 3 151 2 is_stmt 0 discriminator 4
 4223 1e36 48C74588 		movq	$9, -120(%rbp)
 4223      09000000 
 4224 1e3e E8000000 		call	_ZN8UnitTest11CurrentTest7ResultsEv@PLT
 4224      00
 4225 1e43 488B00   		movq	(%rax), %rax
 4226 1e46 488D55B0 		leaq	-80(%rbp), %rdx
 4227 1e4a 488D4D90 		leaq	-112(%rbp), %rcx
 4228 1e4e 488D7908 		leaq	8(%rcx), %rdi
 4229 1e52 488D7588 		leaq	-120(%rbp), %rsi
 4230 1e56 4889D1   		movq	%rdx, %rcx
 4231 1e59 4889FA   		movq	%rdi, %rdx
 4232 1e5c 4889C7   		movq	%rax, %rdi
 4233 1e5f E8000000 		call	_ZN8UnitTest10CheckEqualImmEEvRNS_11TestResultsERKT_RKT0_RKNS_11TestDetailsE
 4233      00
 4234              	.LEHE176:
 4235              	.L238:
 4236              	.LEHB177:
 152:testCore.cpp  **** 	CHECK_ARRAY_EQUAL(expected, buf.data, 16);
 4237              		.loc 3 152 2 is_stmt 1
 4238 1e64 E8000000 		call	_ZN8UnitTest11CurrentTest7DetailsEv@PLT
 4238      00
 4239 1e69 488B08   		movq	(%rax), %rcx
 4240 1e6c 488D45B0 		leaq	-80(%rbp), %rax
 4241 1e70 BA980000 		movl	$152, %edx
 4241      00
 4242 1e75 4889CE   		movq	%rcx, %rsi
 4243 1e78 4889C7   		movq	%rax, %rdi
 4244 1e7b E8000000 		call	_ZN8UnitTest11TestDetailsC1ERKS0_i@PLT
 4244      00
 4245              		.loc 3 152 2 is_stmt 0 discriminator 4
 4246 1e80 E8000000 		call	_ZN8UnitTest11CurrentTest7ResultsEv@PLT
 4246      00
 4247 1e85 488B00   		movq	(%rax), %rax
 4248 1e88 488D4DB0 		leaq	-80(%rbp), %rcx
 4249 1e8c 488D5590 		leaq	-112(%rbp), %rdx
 4250 1e90 488D75D0 		leaq	-48(%rbp), %rsi
 4251 1e94 4989C8   		movq	%rcx, %r8
 4252 1e97 B9100000 		movl	$16, %ecx
 4252      00
 4253 1e9c 4889C7   		movq	%rax, %rdi
 4254 1e9f E8000000 		call	_ZN8UnitTest15CheckArrayEqualIA16_hPhEEvRNS_11TestResultsERKT_RKT0_iRKNS_11TestDetailsE
 4254      00
 4255              	.LEHE177:
 4256              	.L241:
 153:testCore.cpp  **** 	bufDestroy(&buf);
 4257              		.loc 3 153 12 is_stmt 1
 4258 1ea4 488D4590 		leaq	-112(%rbp), %rax
 4259 1ea8 4889C7   		movq	%rax, %rdi
 4260              	.LEHB178:
 4261 1eab E8000000 		call	bufDestroy@PLT
 4261      00
 4262              	.LEHE178:
 154:testCore.cpp  **** }
 4263              		.loc 3 154 1
 4264 1eb0 90       		nop
 4265 1eb1 488B45E8 		movq	-24(%rbp), %rax
 4266 1eb5 64482B04 		subq	%fs:40, %rax
 4266      25280000 
 4266      00
 4267 1ebe 0F844505 		je	.L243
 4267      0000
 4268 1ec4 E93B0500 		jmp	.L270
 4268      00
 4269              	.L244:
 4270 1ec9 F30F1EFA 		endbr64
 129:testCore.cpp  **** 
 4271              		.loc 3 129 2
 4272 1ecd 4889C7   		movq	%rax, %rdi
 4273 1ed0 E8000000 		call	__cxa_begin_catch@PLT
 4273      00
 4274              	.LEHB179:
 4275 1ed5 E8000000 		call	_ZN8UnitTest11CurrentTest7ResultsEv@PLT
 4275      00
 129:testCore.cpp  **** 
 4276              		.loc 3 129 2 is_stmt 0 discriminator 3
 4277 1eda 488B18   		movq	(%rax), %rbx
 4278 1edd E8000000 		call	_ZN8UnitTest11CurrentTest7DetailsEv@PLT
 4278      00
 129:testCore.cpp  **** 
 4279              		.loc 3 129 2 discriminator 11
 4280 1ee2 488B08   		movq	(%rax), %rcx
 4281 1ee5 488D45B0 		leaq	-80(%rbp), %rax
 4282 1ee9 BA810000 		movl	$129, %edx
 4282      00
 4283 1eee 4889CE   		movq	%rcx, %rsi
 4284 1ef1 4889C7   		movq	%rax, %rdi
 4285 1ef4 E8000000 		call	_ZN8UnitTest11TestDetailsC1ERKS0_i@PLT
 4285      00
 129:testCore.cpp  **** 
 4286              		.loc 3 129 2 discriminator 15
 4287 1ef9 488D45B0 		leaq	-80(%rbp), %rax
 4288 1efd 488D1500 		leaq	.LC3(%rip), %rdx
 4288      000000
 4289 1f04 4889C6   		movq	%rax, %rsi
 4290 1f07 4889DF   		movq	%rbx, %rdi
 4291 1f0a E8000000 		call	_ZN8UnitTest11TestResults13OnTestFailureERKNS_11TestDetailsEPKc@PLT
 4291      00
 4292              	.LEHE179:
 4293              	.LEHB180:
 129:testCore.cpp  **** 
 4294              		.loc 3 129 2 discriminator 17
 4295 1f0f E8000000 		call	__cxa_end_catch@PLT
 4295      00
 4296              	.LEHE180:
 4297 1f14 E988FBFF 		jmp	.L205
 4297      FF
 4298              	.L245:
 4299 1f19 F30F1EFA 		endbr64
 129:testCore.cpp  **** 
 4300              		.loc 3 129 2
 4301 1f1d 4889C3   		movq	%rax, %rbx
 4302 1f20 E8000000 		call	__cxa_end_catch@PLT
 4302      00
 4303 1f25 4889D8   		movq	%rbx, %rax
 4304 1f28 4889C7   		movq	%rax, %rdi
 4305              	.LEHB181:
 4306 1f2b E8000000 		call	_Unwind_Resume@PLT
 4306      00
 4307              	.LEHE181:
 4308              	.L246:
 4309 1f30 F30F1EFA 		endbr64
 133:testCore.cpp  **** 	status = bufAppendByte(&buf, 2, NULL);
 4310              		.loc 3 133 2 is_stmt 1
 4311 1f34 4889C7   		movq	%rax, %rdi
 4312 1f37 E8000000 		call	__cxa_begin_catch@PLT
 4312      00
 4313              	.LEHB182:
 4314 1f3c E8000000 		call	_ZN8UnitTest11CurrentTest7ResultsEv@PLT
 4314      00
 133:testCore.cpp  **** 	status = bufAppendByte(&buf, 2, NULL);
 4315              		.loc 3 133 2 is_stmt 0 discriminator 3
 4316 1f41 488B18   		movq	(%rax), %rbx
 4317 1f44 E8000000 		call	_ZN8UnitTest11CurrentTest7DetailsEv@PLT
 4317      00
 133:testCore.cpp  **** 	status = bufAppendByte(&buf, 2, NULL);
 4318              		.loc 3 133 2 discriminator 11
 4319 1f49 488B08   		movq	(%rax), %rcx
 4320 1f4c 488D45B0 		leaq	-80(%rbp), %rax
 4321 1f50 BA850000 		movl	$133, %edx
 4321      00
 4322 1f55 4889CE   		movq	%rcx, %rsi
 4323 1f58 4889C7   		movq	%rax, %rdi
 4324 1f5b E8000000 		call	_ZN8UnitTest11TestDetailsC1ERKS0_i@PLT
 4324      00
 133:testCore.cpp  **** 	status = bufAppendByte(&buf, 2, NULL);
 4325              		.loc 3 133 2 discriminator 15
 4326 1f60 488D45B0 		leaq	-80(%rbp), %rax
 4327 1f64 488D1500 		leaq	.LC3(%rip), %rdx
 4327      000000
 4328 1f6b 4889C6   		movq	%rax, %rsi
 4329 1f6e 4889DF   		movq	%rbx, %rdi
 4330 1f71 E8000000 		call	_ZN8UnitTest11TestResults13OnTestFailureERKNS_11TestDetailsEPKc@PLT
 4330      00
 4331              	.LEHE182:
 4332              	.LEHB183:
 133:testCore.cpp  **** 	status = bufAppendByte(&buf, 2, NULL);
 4333              		.loc 3 133 2 discriminator 17
 4334 1f76 E8000000 		call	__cxa_end_catch@PLT
 4334      00
 4335              	.LEHE183:
 4336 1f7b E990FBFF 		jmp	.L208
 4336      FF
 4337              	.L247:
 4338 1f80 F30F1EFA 		endbr64
 133:testCore.cpp  **** 	status = bufAppendByte(&buf, 2, NULL);
 4339              		.loc 3 133 2
 4340 1f84 4889C3   		movq	%rax, %rbx
 4341 1f87 E8000000 		call	__cxa_end_catch@PLT
 4341      00
 4342 1f8c 4889D8   		movq	%rbx, %rax
 4343 1f8f 4889C7   		movq	%rax, %rdi
 4344              	.LEHB184:
 4345 1f92 E8000000 		call	_Unwind_Resume@PLT
 4345      00
 4346              	.LEHE184:
 4347              	.L248:
 4348 1f97 F30F1EFA 		endbr64
 135:testCore.cpp  **** 	status = bufAppendByte(&buf, 3, NULL);
 4349              		.loc 3 135 2 is_stmt 1
 4350 1f9b 4889C7   		movq	%rax, %rdi
 4351 1f9e E8000000 		call	__cxa_begin_catch@PLT
 4351      00
 4352              	.LEHB185:
 4353 1fa3 E8000000 		call	_ZN8UnitTest11CurrentTest7ResultsEv@PLT
 4353      00
 135:testCore.cpp  **** 	status = bufAppendByte(&buf, 3, NULL);
 4354              		.loc 3 135 2 is_stmt 0 discriminator 3
 4355 1fa8 488B18   		movq	(%rax), %rbx
 4356 1fab E8000000 		call	_ZN8UnitTest11CurrentTest7DetailsEv@PLT
 4356      00
 135:testCore.cpp  **** 	status = bufAppendByte(&buf, 3, NULL);
 4357              		.loc 3 135 2 discriminator 11
 4358 1fb0 488B08   		movq	(%rax), %rcx
 4359 1fb3 488D45B0 		leaq	-80(%rbp), %rax
 4360 1fb7 BA870000 		movl	$135, %edx
 4360      00
 4361 1fbc 4889CE   		movq	%rcx, %rsi
 4362 1fbf 4889C7   		movq	%rax, %rdi
 4363 1fc2 E8000000 		call	_ZN8UnitTest11TestDetailsC1ERKS0_i@PLT
 4363      00
 135:testCore.cpp  **** 	status = bufAppendByte(&buf, 3, NULL);
 4364              		.loc 3 135 2 discriminator 15
 4365 1fc7 488D45B0 		leaq	-80(%rbp), %rax
 4366 1fcb 488D1500 		leaq	.LC3(%rip), %rdx
 4366      000000
 4367 1fd2 4889C6   		movq	%rax, %rsi
 4368 1fd5 4889DF   		movq	%rbx, %rdi
 4369 1fd8 E8000000 		call	_ZN8UnitTest11TestResults13OnTestFailureERKNS_11TestDetailsEPKc@PLT
 4369      00
 4370              	.LEHE185:
 4371              	.LEHB186:
 135:testCore.cpp  **** 	status = bufAppendByte(&buf, 3, NULL);
 4372              		.loc 3 135 2 discriminator 17
 4373 1fdd E8000000 		call	__cxa_end_catch@PLT
 4373      00
 4374              	.LEHE186:
 4375 1fe2 E981FBFF 		jmp	.L211
 4375      FF
 4376              	.L249:
 4377 1fe7 F30F1EFA 		endbr64
 135:testCore.cpp  **** 	status = bufAppendByte(&buf, 3, NULL);
 4378              		.loc 3 135 2
 4379 1feb 4889C3   		movq	%rax, %rbx
 4380 1fee E8000000 		call	__cxa_end_catch@PLT
 4380      00
 4381 1ff3 4889D8   		movq	%rbx, %rax
 4382 1ff6 4889C7   		movq	%rax, %rdi
 4383              	.LEHB187:
 4384 1ff9 E8000000 		call	_Unwind_Resume@PLT
 4384      00
 4385              	.LEHE187:
 4386              	.L250:
 4387 1ffe F30F1EFA 		endbr64
 137:testCore.cpp  **** 	status = bufAppendByte(&buf, 4, NULL);
 4388              		.loc 3 137 2 is_stmt 1
 4389 2002 4889C7   		movq	%rax, %rdi
 4390 2005 E8000000 		call	__cxa_begin_catch@PLT
 4390      00
 4391              	.LEHB188:
 4392 200a E8000000 		call	_ZN8UnitTest11CurrentTest7ResultsEv@PLT
 4392      00
 137:testCore.cpp  **** 	status = bufAppendByte(&buf, 4, NULL);
 4393              		.loc 3 137 2 is_stmt 0 discriminator 3
 4394 200f 488B18   		movq	(%rax), %rbx
 4395 2012 E8000000 		call	_ZN8UnitTest11CurrentTest7DetailsEv@PLT
 4395      00
 137:testCore.cpp  **** 	status = bufAppendByte(&buf, 4, NULL);
 4396              		.loc 3 137 2 discriminator 11
 4397 2017 488B08   		movq	(%rax), %rcx
 4398 201a 488D45B0 		leaq	-80(%rbp), %rax
 4399 201e BA890000 		movl	$137, %edx
 4399      00
 4400 2023 4889CE   		movq	%rcx, %rsi
 4401 2026 4889C7   		movq	%rax, %rdi
 4402 2029 E8000000 		call	_ZN8UnitTest11TestDetailsC1ERKS0_i@PLT
 4402      00
 137:testCore.cpp  **** 	status = bufAppendByte(&buf, 4, NULL);
 4403              		.loc 3 137 2 discriminator 15
 4404 202e 488D45B0 		leaq	-80(%rbp), %rax
 4405 2032 488D1500 		leaq	.LC3(%rip), %rdx
 4405      000000
 4406 2039 4889C6   		movq	%rax, %rsi
 4407 203c 4889DF   		movq	%rbx, %rdi
 4408 203f E8000000 		call	_ZN8UnitTest11TestResults13OnTestFailureERKNS_11TestDetailsEPKc@PLT
 4408      00
 4409              	.LEHE188:
 4410              	.LEHB189:
 137:testCore.cpp  **** 	status = bufAppendByte(&buf, 4, NULL);
 4411              		.loc 3 137 2 discriminator 17
 4412 2044 E8000000 		call	__cxa_end_catch@PLT
 4412      00
 4413              	.LEHE189:
 4414 2049 E972FBFF 		jmp	.L214
 4414      FF
 4415              	.L251:
 4416 204e F30F1EFA 		endbr64
 137:testCore.cpp  **** 	status = bufAppendByte(&buf, 4, NULL);
 4417              		.loc 3 137 2
 4418 2052 4889C3   		movq	%rax, %rbx
 4419 2055 E8000000 		call	__cxa_end_catch@PLT
 4419      00
 4420 205a 4889D8   		movq	%rbx, %rax
 4421 205d 4889C7   		movq	%rax, %rdi
 4422              	.LEHB190:
 4423 2060 E8000000 		call	_Unwind_Resume@PLT
 4423      00
 4424              	.LEHE190:
 4425              	.L252:
 4426 2065 F30F1EFA 		endbr64
 139:testCore.cpp  **** 	status = bufAppendByte(&buf, 5, NULL);
 4427              		.loc 3 139 2 is_stmt 1
 4428 2069 4889C7   		movq	%rax, %rdi
 4429 206c E8000000 		call	__cxa_begin_catch@PLT
 4429      00
 4430              	.LEHB191:
 4431 2071 E8000000 		call	_ZN8UnitTest11CurrentTest7ResultsEv@PLT
 4431      00
 139:testCore.cpp  **** 	status = bufAppendByte(&buf, 5, NULL);
 4432              		.loc 3 139 2 is_stmt 0 discriminator 3
 4433 2076 488B18   		movq	(%rax), %rbx
 4434 2079 E8000000 		call	_ZN8UnitTest11CurrentTest7DetailsEv@PLT
 4434      00
 139:testCore.cpp  **** 	status = bufAppendByte(&buf, 5, NULL);
 4435              		.loc 3 139 2 discriminator 11
 4436 207e 488B08   		movq	(%rax), %rcx
 4437 2081 488D45B0 		leaq	-80(%rbp), %rax
 4438 2085 BA8B0000 		movl	$139, %edx
 4438      00
 4439 208a 4889CE   		movq	%rcx, %rsi
 4440 208d 4889C7   		movq	%rax, %rdi
 4441 2090 E8000000 		call	_ZN8UnitTest11TestDetailsC1ERKS0_i@PLT
 4441      00
 139:testCore.cpp  **** 	status = bufAppendByte(&buf, 5, NULL);
 4442              		.loc 3 139 2 discriminator 15
 4443 2095 488D45B0 		leaq	-80(%rbp), %rax
 4444 2099 488D1500 		leaq	.LC3(%rip), %rdx
 4444      000000
 4445 20a0 4889C6   		movq	%rax, %rsi
 4446 20a3 4889DF   		movq	%rbx, %rdi
 4447 20a6 E8000000 		call	_ZN8UnitTest11TestResults13OnTestFailureERKNS_11TestDetailsEPKc@PLT
 4447      00
 4448              	.LEHE191:
 4449              	.LEHB192:
 139:testCore.cpp  **** 	status = bufAppendByte(&buf, 5, NULL);
 4450              		.loc 3 139 2 discriminator 17
 4451 20ab E8000000 		call	__cxa_end_catch@PLT
 4451      00
 4452              	.LEHE192:
 4453 20b0 E963FBFF 		jmp	.L217
 4453      FF
 4454              	.L253:
 4455 20b5 F30F1EFA 		endbr64
 139:testCore.cpp  **** 	status = bufAppendByte(&buf, 5, NULL);
 4456              		.loc 3 139 2
 4457 20b9 4889C3   		movq	%rax, %rbx
 4458 20bc E8000000 		call	__cxa_end_catch@PLT
 4458      00
 4459 20c1 4889D8   		movq	%rbx, %rax
 4460 20c4 4889C7   		movq	%rax, %rdi
 4461              	.LEHB193:
 4462 20c7 E8000000 		call	_Unwind_Resume@PLT
 4462      00
 4463              	.LEHE193:
 4464              	.L254:
 4465 20cc F30F1EFA 		endbr64
 141:testCore.cpp  **** 	status = bufAppendByte(&buf, 6, NULL);
 4466              		.loc 3 141 2 is_stmt 1
 4467 20d0 4889C7   		movq	%rax, %rdi
 4468 20d3 E8000000 		call	__cxa_begin_catch@PLT
 4468      00
 4469              	.LEHB194:
 4470 20d8 E8000000 		call	_ZN8UnitTest11CurrentTest7ResultsEv@PLT
 4470      00
 141:testCore.cpp  **** 	status = bufAppendByte(&buf, 6, NULL);
 4471              		.loc 3 141 2 is_stmt 0 discriminator 3
 4472 20dd 488B18   		movq	(%rax), %rbx
 4473 20e0 E8000000 		call	_ZN8UnitTest11CurrentTest7DetailsEv@PLT
 4473      00
 141:testCore.cpp  **** 	status = bufAppendByte(&buf, 6, NULL);
 4474              		.loc 3 141 2 discriminator 11
 4475 20e5 488B08   		movq	(%rax), %rcx
 4476 20e8 488D45B0 		leaq	-80(%rbp), %rax
 4477 20ec BA8D0000 		movl	$141, %edx
 4477      00
 4478 20f1 4889CE   		movq	%rcx, %rsi
 4479 20f4 4889C7   		movq	%rax, %rdi
 4480 20f7 E8000000 		call	_ZN8UnitTest11TestDetailsC1ERKS0_i@PLT
 4480      00
 141:testCore.cpp  **** 	status = bufAppendByte(&buf, 6, NULL);
 4481              		.loc 3 141 2 discriminator 15
 4482 20fc 488D45B0 		leaq	-80(%rbp), %rax
 4483 2100 488D1500 		leaq	.LC3(%rip), %rdx
 4483      000000
 4484 2107 4889C6   		movq	%rax, %rsi
 4485 210a 4889DF   		movq	%rbx, %rdi
 4486 210d E8000000 		call	_ZN8UnitTest11TestResults13OnTestFailureERKNS_11TestDetailsEPKc@PLT
 4486      00
 4487              	.LEHE194:
 4488              	.LEHB195:
 141:testCore.cpp  **** 	status = bufAppendByte(&buf, 6, NULL);
 4489              		.loc 3 141 2 discriminator 17
 4490 2112 E8000000 		call	__cxa_end_catch@PLT
 4490      00
 4491              	.LEHE195:
 4492 2117 E954FBFF 		jmp	.L220
 4492      FF
 4493              	.L255:
 4494 211c F30F1EFA 		endbr64
 141:testCore.cpp  **** 	status = bufAppendByte(&buf, 6, NULL);
 4495              		.loc 3 141 2
 4496 2120 4889C3   		movq	%rax, %rbx
 4497 2123 E8000000 		call	__cxa_end_catch@PLT
 4497      00
 4498 2128 4889D8   		movq	%rbx, %rax
 4499 212b 4889C7   		movq	%rax, %rdi
 4500              	.LEHB196:
 4501 212e E8000000 		call	_Unwind_Resume@PLT
 4501      00
 4502              	.LEHE196:
 4503              	.L256:
 4504 2133 F30F1EFA 		endbr64
 143:testCore.cpp  **** 	status = bufAppendByte(&buf, 7, NULL);
 4505              		.loc 3 143 2 is_stmt 1
 4506 2137 4889C7   		movq	%rax, %rdi
 4507 213a E8000000 		call	__cxa_begin_catch@PLT
 4507      00
 4508              	.LEHB197:
 4509 213f E8000000 		call	_ZN8UnitTest11CurrentTest7ResultsEv@PLT
 4509      00
 143:testCore.cpp  **** 	status = bufAppendByte(&buf, 7, NULL);
 4510              		.loc 3 143 2 is_stmt 0 discriminator 3
 4511 2144 488B18   		movq	(%rax), %rbx
 4512 2147 E8000000 		call	_ZN8UnitTest11CurrentTest7DetailsEv@PLT
 4512      00
 143:testCore.cpp  **** 	status = bufAppendByte(&buf, 7, NULL);
 4513              		.loc 3 143 2 discriminator 11
 4514 214c 488B08   		movq	(%rax), %rcx
 4515 214f 488D45B0 		leaq	-80(%rbp), %rax
 4516 2153 BA8F0000 		movl	$143, %edx
 4516      00
 4517 2158 4889CE   		movq	%rcx, %rsi
 4518 215b 4889C7   		movq	%rax, %rdi
 4519 215e E8000000 		call	_ZN8UnitTest11TestDetailsC1ERKS0_i@PLT
 4519      00
 143:testCore.cpp  **** 	status = bufAppendByte(&buf, 7, NULL);
 4520              		.loc 3 143 2 discriminator 15
 4521 2163 488D45B0 		leaq	-80(%rbp), %rax
 4522 2167 488D1500 		leaq	.LC3(%rip), %rdx
 4522      000000
 4523 216e 4889C6   		movq	%rax, %rsi
 4524 2171 4889DF   		movq	%rbx, %rdi
 4525 2174 E8000000 		call	_ZN8UnitTest11TestResults13OnTestFailureERKNS_11TestDetailsEPKc@PLT
 4525      00
 4526              	.LEHE197:
 4527              	.LEHB198:
 143:testCore.cpp  **** 	status = bufAppendByte(&buf, 7, NULL);
 4528              		.loc 3 143 2 discriminator 17
 4529 2179 E8000000 		call	__cxa_end_catch@PLT
 4529      00
 4530              	.LEHE198:
 4531 217e E945FBFF 		jmp	.L223
 4531      FF
 4532              	.L257:
 4533 2183 F30F1EFA 		endbr64
 143:testCore.cpp  **** 	status = bufAppendByte(&buf, 7, NULL);
 4534              		.loc 3 143 2
 4535 2187 4889C3   		movq	%rax, %rbx
 4536 218a E8000000 		call	__cxa_end_catch@PLT
 4536      00
 4537 218f 4889D8   		movq	%rbx, %rax
 4538 2192 4889C7   		movq	%rax, %rdi
 4539              	.LEHB199:
 4540 2195 E8000000 		call	_Unwind_Resume@PLT
 4540      00
 4541              	.LEHE199:
 4542              	.L258:
 4543 219a F30F1EFA 		endbr64
 145:testCore.cpp  **** 	status = bufAppendByte(&buf, 8, NULL);
 4544              		.loc 3 145 2 is_stmt 1
 4545 219e 4889C7   		movq	%rax, %rdi
 4546 21a1 E8000000 		call	__cxa_begin_catch@PLT
 4546      00
 4547              	.LEHB200:
 4548 21a6 E8000000 		call	_ZN8UnitTest11CurrentTest7ResultsEv@PLT
 4548      00
 145:testCore.cpp  **** 	status = bufAppendByte(&buf, 8, NULL);
 4549              		.loc 3 145 2 is_stmt 0 discriminator 3
 4550 21ab 488B18   		movq	(%rax), %rbx
 4551 21ae E8000000 		call	_ZN8UnitTest11CurrentTest7DetailsEv@PLT
 4551      00
 145:testCore.cpp  **** 	status = bufAppendByte(&buf, 8, NULL);
 4552              		.loc 3 145 2 discriminator 11
 4553 21b3 488B08   		movq	(%rax), %rcx
 4554 21b6 488D45B0 		leaq	-80(%rbp), %rax
 4555 21ba BA910000 		movl	$145, %edx
 4555      00
 4556 21bf 4889CE   		movq	%rcx, %rsi
 4557 21c2 4889C7   		movq	%rax, %rdi
 4558 21c5 E8000000 		call	_ZN8UnitTest11TestDetailsC1ERKS0_i@PLT
 4558      00
 145:testCore.cpp  **** 	status = bufAppendByte(&buf, 8, NULL);
 4559              		.loc 3 145 2 discriminator 15
 4560 21ca 488D45B0 		leaq	-80(%rbp), %rax
 4561 21ce 488D1500 		leaq	.LC3(%rip), %rdx
 4561      000000
 4562 21d5 4889C6   		movq	%rax, %rsi
 4563 21d8 4889DF   		movq	%rbx, %rdi
 4564 21db E8000000 		call	_ZN8UnitTest11TestResults13OnTestFailureERKNS_11TestDetailsEPKc@PLT
 4564      00
 4565              	.LEHE200:
 4566              	.LEHB201:
 145:testCore.cpp  **** 	status = bufAppendByte(&buf, 8, NULL);
 4567              		.loc 3 145 2 discriminator 17
 4568 21e0 E8000000 		call	__cxa_end_catch@PLT
 4568      00
 4569              	.LEHE201:
 4570 21e5 E936FBFF 		jmp	.L226
 4570      FF
 4571              	.L259:
 4572 21ea F30F1EFA 		endbr64
 145:testCore.cpp  **** 	status = bufAppendByte(&buf, 8, NULL);
 4573              		.loc 3 145 2
 4574 21ee 4889C3   		movq	%rax, %rbx
 4575 21f1 E8000000 		call	__cxa_end_catch@PLT
 4575      00
 4576 21f6 4889D8   		movq	%rbx, %rax
 4577 21f9 4889C7   		movq	%rax, %rdi
 4578              	.LEHB202:
 4579 21fc E8000000 		call	_Unwind_Resume@PLT
 4579      00
 4580              	.LEHE202:
 4581              	.L260:
 4582 2201 F30F1EFA 		endbr64
 147:testCore.cpp  **** 	status = bufAppendByte(&buf, 9, NULL);
 4583              		.loc 3 147 2 is_stmt 1
 4584 2205 4889C7   		movq	%rax, %rdi
 4585 2208 E8000000 		call	__cxa_begin_catch@PLT
 4585      00
 4586              	.LEHB203:
 4587 220d E8000000 		call	_ZN8UnitTest11CurrentTest7ResultsEv@PLT
 4587      00
 147:testCore.cpp  **** 	status = bufAppendByte(&buf, 9, NULL);
 4588              		.loc 3 147 2 is_stmt 0 discriminator 3
 4589 2212 488B18   		movq	(%rax), %rbx
 4590 2215 E8000000 		call	_ZN8UnitTest11CurrentTest7DetailsEv@PLT
 4590      00
 147:testCore.cpp  **** 	status = bufAppendByte(&buf, 9, NULL);
 4591              		.loc 3 147 2 discriminator 11
 4592 221a 488B08   		movq	(%rax), %rcx
 4593 221d 488D45B0 		leaq	-80(%rbp), %rax
 4594 2221 BA930000 		movl	$147, %edx
 4594      00
 4595 2226 4889CE   		movq	%rcx, %rsi
 4596 2229 4889C7   		movq	%rax, %rdi
 4597 222c E8000000 		call	_ZN8UnitTest11TestDetailsC1ERKS0_i@PLT
 4597      00
 147:testCore.cpp  **** 	status = bufAppendByte(&buf, 9, NULL);
 4598              		.loc 3 147 2 discriminator 15
 4599 2231 488D45B0 		leaq	-80(%rbp), %rax
 4600 2235 488D1500 		leaq	.LC3(%rip), %rdx
 4600      000000
 4601 223c 4889C6   		movq	%rax, %rsi
 4602 223f 4889DF   		movq	%rbx, %rdi
 4603 2242 E8000000 		call	_ZN8UnitTest11TestResults13OnTestFailureERKNS_11TestDetailsEPKc@PLT
 4603      00
 4604              	.LEHE203:
 4605              	.LEHB204:
 147:testCore.cpp  **** 	status = bufAppendByte(&buf, 9, NULL);
 4606              		.loc 3 147 2 discriminator 17
 4607 2247 E8000000 		call	__cxa_end_catch@PLT
 4607      00
 4608              	.LEHE204:
 4609 224c E927FBFF 		jmp	.L229
 4609      FF
 4610              	.L261:
 4611 2251 F30F1EFA 		endbr64
 147:testCore.cpp  **** 	status = bufAppendByte(&buf, 9, NULL);
 4612              		.loc 3 147 2
 4613 2255 4889C3   		movq	%rax, %rbx
 4614 2258 E8000000 		call	__cxa_end_catch@PLT
 4614      00
 4615 225d 4889D8   		movq	%rbx, %rax
 4616 2260 4889C7   		movq	%rax, %rdi
 4617              	.LEHB205:
 4618 2263 E8000000 		call	_Unwind_Resume@PLT
 4618      00
 4619              	.LEHE205:
 4620              	.L262:
 4621 2268 F30F1EFA 		endbr64
 149:testCore.cpp  **** 	CHECK_EQUAL(16UL, buf.capacity);
 4622              		.loc 3 149 2 is_stmt 1
 4623 226c 4889C7   		movq	%rax, %rdi
 4624 226f E8000000 		call	__cxa_begin_catch@PLT
 4624      00
 4625              	.LEHB206:
 4626 2274 E8000000 		call	_ZN8UnitTest11CurrentTest7ResultsEv@PLT
 4626      00
 149:testCore.cpp  **** 	CHECK_EQUAL(16UL, buf.capacity);
 4627              		.loc 3 149 2 is_stmt 0 discriminator 3
 4628 2279 488B18   		movq	(%rax), %rbx
 4629 227c E8000000 		call	_ZN8UnitTest11CurrentTest7DetailsEv@PLT
 4629      00
 149:testCore.cpp  **** 	CHECK_EQUAL(16UL, buf.capacity);
 4630              		.loc 3 149 2 discriminator 11
 4631 2281 488B08   		movq	(%rax), %rcx
 4632 2284 488D45B0 		leaq	-80(%rbp), %rax
 4633 2288 BA950000 		movl	$149, %edx
 4633      00
 4634 228d 4889CE   		movq	%rcx, %rsi
 4635 2290 4889C7   		movq	%rax, %rdi
 4636 2293 E8000000 		call	_ZN8UnitTest11TestDetailsC1ERKS0_i@PLT
 4636      00
 149:testCore.cpp  **** 	CHECK_EQUAL(16UL, buf.capacity);
 4637              		.loc 3 149 2 discriminator 15
 4638 2298 488D45B0 		leaq	-80(%rbp), %rax
 4639 229c 488D1500 		leaq	.LC3(%rip), %rdx
 4639      000000
 4640 22a3 4889C6   		movq	%rax, %rsi
 4641 22a6 4889DF   		movq	%rbx, %rdi
 4642 22a9 E8000000 		call	_ZN8UnitTest11TestResults13OnTestFailureERKNS_11TestDetailsEPKc@PLT
 4642      00
 4643              	.LEHE206:
 4644              	.LEHB207:
 149:testCore.cpp  **** 	CHECK_EQUAL(16UL, buf.capacity);
 4645              		.loc 3 149 2 discriminator 17
 4646 22ae E8000000 		call	__cxa_end_catch@PLT
 4646      00
 4647              	.LEHE207:
 4648 22b3 E918FBFF 		jmp	.L232
 4648      FF
 4649              	.L263:
 4650 22b8 F30F1EFA 		endbr64
 149:testCore.cpp  **** 	CHECK_EQUAL(16UL, buf.capacity);
 4651              		.loc 3 149 2
 4652 22bc 4889C3   		movq	%rax, %rbx
 4653 22bf E8000000 		call	__cxa_end_catch@PLT
 4653      00
 4654 22c4 4889D8   		movq	%rbx, %rax
 4655 22c7 4889C7   		movq	%rax, %rdi
 4656              	.LEHB208:
 4657 22ca E8000000 		call	_Unwind_Resume@PLT
 4657      00
 4658              	.LEHE208:
 4659              	.L264:
 4660 22cf F30F1EFA 		endbr64
 150:testCore.cpp  **** 	CHECK_EQUAL(9UL, buf.length);
 4661              		.loc 3 150 2 is_stmt 1
 4662 22d3 4889C7   		movq	%rax, %rdi
 4663 22d6 E8000000 		call	__cxa_begin_catch@PLT
 4663      00
 4664              	.LEHB209:
 4665 22db E8000000 		call	_ZN8UnitTest11CurrentTest7ResultsEv@PLT
 4665      00
 150:testCore.cpp  **** 	CHECK_EQUAL(9UL, buf.length);
 4666              		.loc 3 150 2 is_stmt 0 discriminator 3
 4667 22e0 488B18   		movq	(%rax), %rbx
 4668 22e3 E8000000 		call	_ZN8UnitTest11CurrentTest7DetailsEv@PLT
 4668      00
 150:testCore.cpp  **** 	CHECK_EQUAL(9UL, buf.length);
 4669              		.loc 3 150 2 discriminator 11
 4670 22e8 488B08   		movq	(%rax), %rcx
 4671 22eb 488D45B0 		leaq	-80(%rbp), %rax
 4672 22ef BA960000 		movl	$150, %edx
 4672      00
 4673 22f4 4889CE   		movq	%rcx, %rsi
 4674 22f7 4889C7   		movq	%rax, %rdi
 4675 22fa E8000000 		call	_ZN8UnitTest11TestDetailsC1ERKS0_i@PLT
 4675      00
 150:testCore.cpp  **** 	CHECK_EQUAL(9UL, buf.length);
 4676              		.loc 3 150 2 discriminator 15
 4677 22ff 488D45B0 		leaq	-80(%rbp), %rax
 4678 2303 488D1500 		leaq	.LC13(%rip), %rdx
 4678      000000
 4679 230a 4889C6   		movq	%rax, %rsi
 4680 230d 4889DF   		movq	%rbx, %rdi
 4681 2310 E8000000 		call	_ZN8UnitTest11TestResults13OnTestFailureERKNS_11TestDetailsEPKc@PLT
 4681      00
 4682              	.LEHE209:
 4683              	.LEHB210:
 150:testCore.cpp  **** 	CHECK_EQUAL(9UL, buf.length);
 4684              		.loc 3 150 2 discriminator 17
 4685 2315 E8000000 		call	__cxa_end_catch@PLT
 4685      00
 4686              	.LEHE210:
 4687 231a E9FBFAFF 		jmp	.L235
 4687      FF
 4688              	.L265:
 4689 231f F30F1EFA 		endbr64
 150:testCore.cpp  **** 	CHECK_EQUAL(9UL, buf.length);
 4690              		.loc 3 150 2
 4691 2323 4889C3   		movq	%rax, %rbx
 4692 2326 E8000000 		call	__cxa_end_catch@PLT
 4692      00
 4693 232b 4889D8   		movq	%rbx, %rax
 4694 232e 4889C7   		movq	%rax, %rdi
 4695              	.LEHB211:
 4696 2331 E8000000 		call	_Unwind_Resume@PLT
 4696      00
 4697              	.LEHE211:
 4698              	.L266:
 4699 2336 F30F1EFA 		endbr64
 151:testCore.cpp  **** 	CHECK_ARRAY_EQUAL(expected, buf.data, 16);
 4700              		.loc 3 151 2 is_stmt 1
 4701 233a 4889C7   		movq	%rax, %rdi
 4702 233d E8000000 		call	__cxa_begin_catch@PLT
 4702      00
 4703              	.LEHB212:
 4704 2342 E8000000 		call	_ZN8UnitTest11CurrentTest7ResultsEv@PLT
 4704      00
 151:testCore.cpp  **** 	CHECK_ARRAY_EQUAL(expected, buf.data, 16);
 4705              		.loc 3 151 2 is_stmt 0 discriminator 3
 4706 2347 488B18   		movq	(%rax), %rbx
 4707 234a E8000000 		call	_ZN8UnitTest11CurrentTest7DetailsEv@PLT
 4707      00
 151:testCore.cpp  **** 	CHECK_ARRAY_EQUAL(expected, buf.data, 16);
 4708              		.loc 3 151 2 discriminator 11
 4709 234f 488B08   		movq	(%rax), %rcx
 4710 2352 488D45B0 		leaq	-80(%rbp), %rax
 4711 2356 BA970000 		movl	$151, %edx
 4711      00
 4712 235b 4889CE   		movq	%rcx, %rsi
 4713 235e 4889C7   		movq	%rax, %rdi
 4714 2361 E8000000 		call	_ZN8UnitTest11TestDetailsC1ERKS0_i@PLT
 4714      00
 151:testCore.cpp  **** 	CHECK_ARRAY_EQUAL(expected, buf.data, 16);
 4715              		.loc 3 151 2 discriminator 15
 4716 2366 488D45B0 		leaq	-80(%rbp), %rax
 4717 236a 488D1500 		leaq	.LC14(%rip), %rdx
 4717      000000
 4718 2371 4889C6   		movq	%rax, %rsi
 4719 2374 4889DF   		movq	%rbx, %rdi
 4720 2377 E8000000 		call	_ZN8UnitTest11TestResults13OnTestFailureERKNS_11TestDetailsEPKc@PLT
 4720      00
 4721              	.LEHE212:
 4722              	.LEHB213:
 151:testCore.cpp  **** 	CHECK_ARRAY_EQUAL(expected, buf.data, 16);
 4723              		.loc 3 151 2 discriminator 17
 4724 237c E8000000 		call	__cxa_end_catch@PLT
 4724      00
 4725              	.LEHE213:
 4726 2381 E9DEFAFF 		jmp	.L238
 4726      FF
 4727              	.L267:
 4728 2386 F30F1EFA 		endbr64
 151:testCore.cpp  **** 	CHECK_ARRAY_EQUAL(expected, buf.data, 16);
 4729              		.loc 3 151 2
 4730 238a 4889C3   		movq	%rax, %rbx
 4731 238d E8000000 		call	__cxa_end_catch@PLT
 4731      00
 4732 2392 4889D8   		movq	%rbx, %rax
 4733 2395 4889C7   		movq	%rax, %rdi
 4734              	.LEHB214:
 4735 2398 E8000000 		call	_Unwind_Resume@PLT
 4735      00
 4736              	.LEHE214:
 4737              	.L268:
 4738 239d F30F1EFA 		endbr64
 152:testCore.cpp  **** 	bufDestroy(&buf);
 4739              		.loc 3 152 2 is_stmt 1
 4740 23a1 4889C7   		movq	%rax, %rdi
 4741 23a4 E8000000 		call	__cxa_begin_catch@PLT
 4741      00
 4742              	.LEHB215:
 4743 23a9 E8000000 		call	_ZN8UnitTest11CurrentTest7ResultsEv@PLT
 4743      00
 152:testCore.cpp  **** 	bufDestroy(&buf);
 4744              		.loc 3 152 2 is_stmt 0 discriminator 3
 4745 23ae 488B18   		movq	(%rax), %rbx
 4746 23b1 E8000000 		call	_ZN8UnitTest11CurrentTest7DetailsEv@PLT
 4746      00
 152:testCore.cpp  **** 	bufDestroy(&buf);
 4747              		.loc 3 152 2 discriminator 11
 4748 23b6 488B08   		movq	(%rax), %rcx
 4749 23b9 488D45B0 		leaq	-80(%rbp), %rax
 4750 23bd BA980000 		movl	$152, %edx
 4750      00
 4751 23c2 4889CE   		movq	%rcx, %rsi
 4752 23c5 4889C7   		movq	%rax, %rdi
 4753 23c8 E8000000 		call	_ZN8UnitTest11TestDetailsC1ERKS0_i@PLT
 4753      00
 152:testCore.cpp  **** 	bufDestroy(&buf);
 4754              		.loc 3 152 2 discriminator 15
 4755 23cd 488D45B0 		leaq	-80(%rbp), %rax
 4756 23d1 488D1500 		leaq	.LC6(%rip), %rdx
 4756      000000
 4757 23d8 4889C6   		movq	%rax, %rsi
 4758 23db 4889DF   		movq	%rbx, %rdi
 4759 23de E8000000 		call	_ZN8UnitTest11TestResults13OnTestFailureERKNS_11TestDetailsEPKc@PLT
 4759      00
 4760              	.LEHE215:
 4761              	.LEHB216:
 152:testCore.cpp  **** 	bufDestroy(&buf);
 4762              		.loc 3 152 2 discriminator 17
 4763 23e3 E8000000 		call	__cxa_end_catch@PLT
 4763      00
 4764              	.LEHE216:
 4765 23e8 E9B7FAFF 		jmp	.L241
 4765      FF
 4766              	.L269:
 4767 23ed F30F1EFA 		endbr64
 152:testCore.cpp  **** 	bufDestroy(&buf);
 4768              		.loc 3 152 2
 4769 23f1 4889C3   		movq	%rax, %rbx
 4770 23f4 E8000000 		call	__cxa_end_catch@PLT
 4770      00
 4771 23f9 4889D8   		movq	%rbx, %rax
 4772 23fc 4889C7   		movq	%rax, %rdi
 4773              	.LEHB217:
 4774 23ff E8000000 		call	_Unwind_Resume@PLT
 4774      00
 4775              	.LEHE217:
 4776              	.L270:
 4777              		.loc 3 154 1 is_stmt 1
 4778 2404 E8000000 		call	__stack_chk_fail@PLT
 4778      00
 4779              	.L243:
 4780 2409 488B5DF8 		movq	-8(%rbp), %rbx
 4781 240d C9       		leave
 4782              		.cfi_def_cfa 7, 8
 4783 240e C3       		ret
 4784              		.cfi_endproc
 4785              	.LFE1176:
 4786              		.section	.gcc_except_table
 4787              		.align 4
 4788              	.LLSDA1176:
 4789 0380 FF       		.byte	0xff
 4790 0381 9B       		.byte	0x9b
 4791 0382 DC02     		.uleb128 .LLSDATT1176-.LLSDATTD1176
 4792              	.LLSDATTD1176:
 4793 0384 01       		.byte	0x1
 4794 0385 D302     		.uleb128 .LLSDACSE1176-.LLSDACSB1176
 4795              	.LLSDACSB1176:
 4796 0387 3C       		.uleb128 .LEHB155-.LFB1176
 4797 0388 05       		.uleb128 .LEHE155-.LEHB155
 4798 0389 00       		.uleb128 0
 4799 038a 00       		.uleb128 0
 4800 038b 44       		.uleb128 .LEHB156-.LFB1176
 4801 038c 3F       		.uleb128 .LEHE156-.LEHB156
 4802 038d AB09     		.uleb128 .L244-.LFB1176
 4803 038f 01       		.uleb128 0x1
 4804 0390 AB01     		.uleb128 .LEHB157-.LFB1176
 4805 0392 05       		.uleb128 .LEHE157-.LEHB157
 4806 0393 00       		.uleb128 0
 4807 0394 00       		.uleb128 0
 4808 0395 B301     		.uleb128 .LEHB158-.LFB1176
 4809 0397 3F       		.uleb128 .LEHE158-.LEHB158
 4810 0398 920A     		.uleb128 .L246-.LFB1176
 4811 039a 01       		.uleb128 0x1
 4812 039b 8302     		.uleb128 .LEHB159-.LFB1176
 4813 039d 05       		.uleb128 .LEHE159-.LEHB159
 4814 039e 00       		.uleb128 0
 4815 039f 00       		.uleb128 0
 4816 03a0 8B02     		.uleb128 .LEHB160-.LFB1176
 4817 03a2 3F       		.uleb128 .LEHE160-.LEHB160
 4818 03a3 F90A     		.uleb128 .L248-.LFB1176
 4819 03a5 01       		.uleb128 0x1
 4820 03a6 DB02     		.uleb128 .LEHB161-.LFB1176
 4821 03a8 05       		.uleb128 .LEHE161-.LEHB161
 4822 03a9 00       		.uleb128 0
 4823 03aa 00       		.uleb128 0
 4824 03ab E302     		.uleb128 .LEHB162-.LFB1176
 4825 03ad 3F       		.uleb128 .LEHE162-.LEHB162
 4826 03ae E00B     		.uleb128 .L250-.LFB1176
 4827 03b0 01       		.uleb128 0x1
 4828 03b1 B303     		.uleb128 .LEHB163-.LFB1176
 4829 03b3 05       		.uleb128 .LEHE163-.LEHB163
 4830 03b4 00       		.uleb128 0
 4831 03b5 00       		.uleb128 0
 4832 03b6 BB03     		.uleb128 .LEHB164-.LFB1176
 4833 03b8 3F       		.uleb128 .LEHE164-.LEHB164
 4834 03b9 C70C     		.uleb128 .L252-.LFB1176
 4835 03bb 01       		.uleb128 0x1
 4836 03bc 8B04     		.uleb128 .LEHB165-.LFB1176
 4837 03be 05       		.uleb128 .LEHE165-.LEHB165
 4838 03bf 00       		.uleb128 0
 4839 03c0 00       		.uleb128 0
 4840 03c1 9304     		.uleb128 .LEHB166-.LFB1176
 4841 03c3 3F       		.uleb128 .LEHE166-.LEHB166
 4842 03c4 AE0D     		.uleb128 .L254-.LFB1176
 4843 03c6 01       		.uleb128 0x1
 4844 03c7 E304     		.uleb128 .LEHB167-.LFB1176
 4845 03c9 05       		.uleb128 .LEHE167-.LEHB167
 4846 03ca 00       		.uleb128 0
 4847 03cb 00       		.uleb128 0
 4848 03cc EB04     		.uleb128 .LEHB168-.LFB1176
 4849 03ce 3F       		.uleb128 .LEHE168-.LEHB168
 4850 03cf 950E     		.uleb128 .L256-.LFB1176
 4851 03d1 01       		.uleb128 0x1
 4852 03d2 BB05     		.uleb128 .LEHB169-.LFB1176
 4853 03d4 05       		.uleb128 .LEHE169-.LEHB169
 4854 03d5 00       		.uleb128 0
 4855 03d6 00       		.uleb128 0
 4856 03d7 C305     		.uleb128 .LEHB170-.LFB1176
 4857 03d9 3F       		.uleb128 .LEHE170-.LEHB170
 4858 03da FC0E     		.uleb128 .L258-.LFB1176
 4859 03dc 01       		.uleb128 0x1
 4860 03dd 9306     		.uleb128 .LEHB171-.LFB1176
 4861 03df 05       		.uleb128 .LEHE171-.LEHB171
 4862 03e0 00       		.uleb128 0
 4863 03e1 00       		.uleb128 0
 4864 03e2 9B06     		.uleb128 .LEHB172-.LFB1176
 4865 03e4 3F       		.uleb128 .LEHE172-.LEHB172
 4866 03e5 E30F     		.uleb128 .L260-.LFB1176
 4867 03e7 01       		.uleb128 0x1
 4868 03e8 EB06     		.uleb128 .LEHB173-.LFB1176
 4869 03ea 05       		.uleb128 .LEHE173-.LEHB173
 4870 03eb 00       		.uleb128 0
 4871 03ec 00       		.uleb128 0
 4872 03ed F306     		.uleb128 .LEHB174-.LFB1176
 4873 03ef 3F       		.uleb128 .LEHE174-.LEHB174
 4874 03f0 CA10     		.uleb128 .L262-.LFB1176
 4875 03f2 01       		.uleb128 0x1
 4876 03f3 B207     		.uleb128 .LEHB175-.LFB1176
 4877 03f5 4A       		.uleb128 .LEHE175-.LEHB175
 4878 03f6 B111     		.uleb128 .L264-.LFB1176
 4879 03f8 01       		.uleb128 0x1
 4880 03f9 FC07     		.uleb128 .LEHB176-.LFB1176
 4881 03fb 4A       		.uleb128 .LEHE176-.LEHB176
 4882 03fc 9812     		.uleb128 .L266-.LFB1176
 4883 03fe 01       		.uleb128 0x1
 4884 03ff C608     		.uleb128 .LEHB177-.LFB1176
 4885 0401 40       		.uleb128 .LEHE177-.LEHB177
 4886 0402 FF12     		.uleb128 .L268-.LFB1176
 4887 0404 01       		.uleb128 0x1
 4888 0405 8D09     		.uleb128 .LEHB178-.LFB1176
 4889 0407 05       		.uleb128 .LEHE178-.LEHB178
 4890 0408 00       		.uleb128 0
 4891 0409 00       		.uleb128 0
 4892 040a B709     		.uleb128 .LEHB179-.LFB1176
 4893 040c 3A       		.uleb128 .LEHE179-.LEHB179
 4894 040d FB09     		.uleb128 .L245-.LFB1176
 4895 040f 00       		.uleb128 0
 4896 0410 F109     		.uleb128 .LEHB180-.LFB1176
 4897 0412 05       		.uleb128 .LEHE180-.LEHB180
 4898 0413 00       		.uleb128 0
 4899 0414 00       		.uleb128 0
 4900 0415 8D0A     		.uleb128 .LEHB181-.LFB1176
 4901 0417 05       		.uleb128 .LEHE181-.LEHB181
 4902 0418 00       		.uleb128 0
 4903 0419 00       		.uleb128 0
 4904 041a 9E0A     		.uleb128 .LEHB182-.LFB1176
 4905 041c 3A       		.uleb128 .LEHE182-.LEHB182
 4906 041d E20A     		.uleb128 .L247-.LFB1176
 4907 041f 00       		.uleb128 0
 4908 0420 D80A     		.uleb128 .LEHB183-.LFB1176
 4909 0422 05       		.uleb128 .LEHE183-.LEHB183
 4910 0423 00       		.uleb128 0
 4911 0424 00       		.uleb128 0
 4912 0425 F40A     		.uleb128 .LEHB184-.LFB1176
 4913 0427 05       		.uleb128 .LEHE184-.LEHB184
 4914 0428 00       		.uleb128 0
 4915 0429 00       		.uleb128 0
 4916 042a 850B     		.uleb128 .LEHB185-.LFB1176
 4917 042c 3A       		.uleb128 .LEHE185-.LEHB185
 4918 042d C90B     		.uleb128 .L249-.LFB1176
 4919 042f 00       		.uleb128 0
 4920 0430 BF0B     		.uleb128 .LEHB186-.LFB1176
 4921 0432 05       		.uleb128 .LEHE186-.LEHB186
 4922 0433 00       		.uleb128 0
 4923 0434 00       		.uleb128 0
 4924 0435 DB0B     		.uleb128 .LEHB187-.LFB1176
 4925 0437 05       		.uleb128 .LEHE187-.LEHB187
 4926 0438 00       		.uleb128 0
 4927 0439 00       		.uleb128 0
 4928 043a EC0B     		.uleb128 .LEHB188-.LFB1176
 4929 043c 3A       		.uleb128 .LEHE188-.LEHB188
 4930 043d B00C     		.uleb128 .L251-.LFB1176
 4931 043f 00       		.uleb128 0
 4932 0440 A60C     		.uleb128 .LEHB189-.LFB1176
 4933 0442 05       		.uleb128 .LEHE189-.LEHB189
 4934 0443 00       		.uleb128 0
 4935 0444 00       		.uleb128 0
 4936 0445 C20C     		.uleb128 .LEHB190-.LFB1176
 4937 0447 05       		.uleb128 .LEHE190-.LEHB190
 4938 0448 00       		.uleb128 0
 4939 0449 00       		.uleb128 0
 4940 044a D30C     		.uleb128 .LEHB191-.LFB1176
 4941 044c 3A       		.uleb128 .LEHE191-.LEHB191
 4942 044d 970D     		.uleb128 .L253-.LFB1176
 4943 044f 00       		.uleb128 0
 4944 0450 8D0D     		.uleb128 .LEHB192-.LFB1176
 4945 0452 05       		.uleb128 .LEHE192-.LEHB192
 4946 0453 00       		.uleb128 0
 4947 0454 00       		.uleb128 0
 4948 0455 A90D     		.uleb128 .LEHB193-.LFB1176
 4949 0457 05       		.uleb128 .LEHE193-.LEHB193
 4950 0458 00       		.uleb128 0
 4951 0459 00       		.uleb128 0
 4952 045a BA0D     		.uleb128 .LEHB194-.LFB1176
 4953 045c 3A       		.uleb128 .LEHE194-.LEHB194
 4954 045d FE0D     		.uleb128 .L255-.LFB1176
 4955 045f 00       		.uleb128 0
 4956 0460 F40D     		.uleb128 .LEHB195-.LFB1176
 4957 0462 05       		.uleb128 .LEHE195-.LEHB195
 4958 0463 00       		.uleb128 0
 4959 0464 00       		.uleb128 0
 4960 0465 900E     		.uleb128 .LEHB196-.LFB1176
 4961 0467 05       		.uleb128 .LEHE196-.LEHB196
 4962 0468 00       		.uleb128 0
 4963 0469 00       		.uleb128 0
 4964 046a A10E     		.uleb128 .LEHB197-.LFB1176
 4965 046c 3A       		.uleb128 .LEHE197-.LEHB197
 4966 046d E50E     		.uleb128 .L257-.LFB1176
 4967 046f 00       		.uleb128 0
