   1              		.file	"testHexIO.cpp"
   2              		.text
   3              	.Ltext0:
   4              		.file 0 "/home/pong/FPGALink/makestuff/libs/libbuffer/tests" "testHexIO.cpp"
   5              		.section	.text._ZStorSt13_Ios_OpenmodeS_,"axG",@progbits,_ZStorSt13_Ios_OpenmodeS_,comdat
   6              		.weak	_ZStorSt13_Ios_OpenmodeS_
   8              	_ZStorSt13_Ios_OpenmodeS_:
   9              	.LFB707:
  10              		.file 1 "/usr/include/c++/11/bits/ios_base.h"
   1:/usr/include/c++/11/bits/ios_base.h **** // Iostreams base classes -*- C++ -*-
   2:/usr/include/c++/11/bits/ios_base.h **** 
   3:/usr/include/c++/11/bits/ios_base.h **** // Copyright (C) 1997-2021 Free Software Foundation, Inc.
   4:/usr/include/c++/11/bits/ios_base.h **** //
   5:/usr/include/c++/11/bits/ios_base.h **** // This file is part of the GNU ISO C++ Library.  This library is free
   6:/usr/include/c++/11/bits/ios_base.h **** // software; you can redistribute it and/or modify it under the
   7:/usr/include/c++/11/bits/ios_base.h **** // terms of the GNU General Public License as published by the
   8:/usr/include/c++/11/bits/ios_base.h **** // Free Software Foundation; either version 3, or (at your option)
   9:/usr/include/c++/11/bits/ios_base.h **** // any later version.
  10:/usr/include/c++/11/bits/ios_base.h **** 
  11:/usr/include/c++/11/bits/ios_base.h **** // This library is distributed in the hope that it will be useful,
  12:/usr/include/c++/11/bits/ios_base.h **** // but WITHOUT ANY WARRANTY; without even the implied warranty of
  13:/usr/include/c++/11/bits/ios_base.h **** // MERCHANTABILITY or FITNESS FOR A PARTICULAR PURPOSE.  See the
  14:/usr/include/c++/11/bits/ios_base.h **** // GNU General Public License for more details.
  15:/usr/include/c++/11/bits/ios_base.h **** 
  16:/usr/include/c++/11/bits/ios_base.h **** // Under Section 7 of GPL version 3, you are granted additional
  17:/usr/include/c++/11/bits/ios_base.h **** // permissions described in the GCC Runtime Library Exception, version
  18:/usr/include/c++/11/bits/ios_base.h **** // 3.1, as published by the Free Software Foundation.
  19:/usr/include/c++/11/bits/ios_base.h **** 
  20:/usr/include/c++/11/bits/ios_base.h **** // You should have received a copy of the GNU General Public License and
  21:/usr/include/c++/11/bits/ios_base.h **** // a copy of the GCC Runtime Library Exception along with this program;
  22:/usr/include/c++/11/bits/ios_base.h **** // see the files COPYING3 and COPYING.RUNTIME respectively.  If not, see
  23:/usr/include/c++/11/bits/ios_base.h **** // <http://www.gnu.org/licenses/>.
  24:/usr/include/c++/11/bits/ios_base.h **** 
  25:/usr/include/c++/11/bits/ios_base.h **** /** @file bits/ios_base.h
  26:/usr/include/c++/11/bits/ios_base.h ****  *  This is an internal header file, included by other library headers.
  27:/usr/include/c++/11/bits/ios_base.h ****  *  Do not attempt to use it directly. @headername{ios}
  28:/usr/include/c++/11/bits/ios_base.h ****  */
  29:/usr/include/c++/11/bits/ios_base.h **** 
  30:/usr/include/c++/11/bits/ios_base.h **** //
  31:/usr/include/c++/11/bits/ios_base.h **** // ISO C++ 14882: 27.4  Iostreams base classes
  32:/usr/include/c++/11/bits/ios_base.h **** //
  33:/usr/include/c++/11/bits/ios_base.h **** 
  34:/usr/include/c++/11/bits/ios_base.h **** #ifndef _IOS_BASE_H
  35:/usr/include/c++/11/bits/ios_base.h **** #define _IOS_BASE_H 1
  36:/usr/include/c++/11/bits/ios_base.h **** 
  37:/usr/include/c++/11/bits/ios_base.h **** #pragma GCC system_header
  38:/usr/include/c++/11/bits/ios_base.h **** 
  39:/usr/include/c++/11/bits/ios_base.h **** #include <ext/atomicity.h>
  40:/usr/include/c++/11/bits/ios_base.h **** #include <bits/localefwd.h>
  41:/usr/include/c++/11/bits/ios_base.h **** #include <bits/locale_classes.h>
  42:/usr/include/c++/11/bits/ios_base.h **** 
  43:/usr/include/c++/11/bits/ios_base.h **** #if __cplusplus < 201103L
  44:/usr/include/c++/11/bits/ios_base.h **** # include <stdexcept>
  45:/usr/include/c++/11/bits/ios_base.h **** #else
  46:/usr/include/c++/11/bits/ios_base.h **** # include <system_error>
  47:/usr/include/c++/11/bits/ios_base.h **** #endif
  48:/usr/include/c++/11/bits/ios_base.h **** 
  49:/usr/include/c++/11/bits/ios_base.h **** namespace std _GLIBCXX_VISIBILITY(default)
  50:/usr/include/c++/11/bits/ios_base.h **** {
  51:/usr/include/c++/11/bits/ios_base.h **** _GLIBCXX_BEGIN_NAMESPACE_VERSION
  52:/usr/include/c++/11/bits/ios_base.h **** 
  53:/usr/include/c++/11/bits/ios_base.h ****   // The following definitions of bitmask types are enums, not ints,
  54:/usr/include/c++/11/bits/ios_base.h ****   // as permitted (but not required) in the standard, in order to provide
  55:/usr/include/c++/11/bits/ios_base.h ****   // better type safety in iostream calls.  A side effect is that in C++98
  56:/usr/include/c++/11/bits/ios_base.h ****   // expressions involving them are not compile-time constants.
  57:/usr/include/c++/11/bits/ios_base.h ****   enum _Ios_Fmtflags 
  58:/usr/include/c++/11/bits/ios_base.h ****     { 
  59:/usr/include/c++/11/bits/ios_base.h ****       _S_boolalpha 	= 1L << 0,
  60:/usr/include/c++/11/bits/ios_base.h ****       _S_dec 		= 1L << 1,
  61:/usr/include/c++/11/bits/ios_base.h ****       _S_fixed 		= 1L << 2,
  62:/usr/include/c++/11/bits/ios_base.h ****       _S_hex 		= 1L << 3,
  63:/usr/include/c++/11/bits/ios_base.h ****       _S_internal 	= 1L << 4,
  64:/usr/include/c++/11/bits/ios_base.h ****       _S_left 		= 1L << 5,
  65:/usr/include/c++/11/bits/ios_base.h ****       _S_oct 		= 1L << 6,
  66:/usr/include/c++/11/bits/ios_base.h ****       _S_right 		= 1L << 7,
  67:/usr/include/c++/11/bits/ios_base.h ****       _S_scientific 	= 1L << 8,
  68:/usr/include/c++/11/bits/ios_base.h ****       _S_showbase 	= 1L << 9,
  69:/usr/include/c++/11/bits/ios_base.h ****       _S_showpoint 	= 1L << 10,
  70:/usr/include/c++/11/bits/ios_base.h ****       _S_showpos 	= 1L << 11,
  71:/usr/include/c++/11/bits/ios_base.h ****       _S_skipws 	= 1L << 12,
  72:/usr/include/c++/11/bits/ios_base.h ****       _S_unitbuf 	= 1L << 13,
  73:/usr/include/c++/11/bits/ios_base.h ****       _S_uppercase 	= 1L << 14,
  74:/usr/include/c++/11/bits/ios_base.h ****       _S_adjustfield 	= _S_left | _S_right | _S_internal,
  75:/usr/include/c++/11/bits/ios_base.h ****       _S_basefield 	= _S_dec | _S_oct | _S_hex,
  76:/usr/include/c++/11/bits/ios_base.h ****       _S_floatfield 	= _S_scientific | _S_fixed,
  77:/usr/include/c++/11/bits/ios_base.h ****       _S_ios_fmtflags_end = 1L << 16,
  78:/usr/include/c++/11/bits/ios_base.h ****       _S_ios_fmtflags_max = __INT_MAX__,
  79:/usr/include/c++/11/bits/ios_base.h ****       _S_ios_fmtflags_min = ~__INT_MAX__
  80:/usr/include/c++/11/bits/ios_base.h ****     };
  81:/usr/include/c++/11/bits/ios_base.h **** 
  82:/usr/include/c++/11/bits/ios_base.h ****   inline _GLIBCXX_CONSTEXPR _Ios_Fmtflags
  83:/usr/include/c++/11/bits/ios_base.h ****   operator&(_Ios_Fmtflags __a, _Ios_Fmtflags __b)
  84:/usr/include/c++/11/bits/ios_base.h ****   { return _Ios_Fmtflags(static_cast<int>(__a) & static_cast<int>(__b)); }
  85:/usr/include/c++/11/bits/ios_base.h **** 
  86:/usr/include/c++/11/bits/ios_base.h ****   inline _GLIBCXX_CONSTEXPR _Ios_Fmtflags
  87:/usr/include/c++/11/bits/ios_base.h ****   operator|(_Ios_Fmtflags __a, _Ios_Fmtflags __b)
  88:/usr/include/c++/11/bits/ios_base.h ****   { return _Ios_Fmtflags(static_cast<int>(__a) | static_cast<int>(__b)); }
  89:/usr/include/c++/11/bits/ios_base.h **** 
  90:/usr/include/c++/11/bits/ios_base.h ****   inline _GLIBCXX_CONSTEXPR _Ios_Fmtflags
  91:/usr/include/c++/11/bits/ios_base.h ****   operator^(_Ios_Fmtflags __a, _Ios_Fmtflags __b)
  92:/usr/include/c++/11/bits/ios_base.h ****   { return _Ios_Fmtflags(static_cast<int>(__a) ^ static_cast<int>(__b)); }
  93:/usr/include/c++/11/bits/ios_base.h **** 
  94:/usr/include/c++/11/bits/ios_base.h ****   inline _GLIBCXX_CONSTEXPR _Ios_Fmtflags
  95:/usr/include/c++/11/bits/ios_base.h ****   operator~(_Ios_Fmtflags __a)
  96:/usr/include/c++/11/bits/ios_base.h ****   { return _Ios_Fmtflags(~static_cast<int>(__a)); }
  97:/usr/include/c++/11/bits/ios_base.h **** 
  98:/usr/include/c++/11/bits/ios_base.h ****   inline const _Ios_Fmtflags&
  99:/usr/include/c++/11/bits/ios_base.h ****   operator|=(_Ios_Fmtflags& __a, _Ios_Fmtflags __b)
 100:/usr/include/c++/11/bits/ios_base.h ****   { return __a = __a | __b; }
 101:/usr/include/c++/11/bits/ios_base.h **** 
 102:/usr/include/c++/11/bits/ios_base.h ****   inline const _Ios_Fmtflags&
 103:/usr/include/c++/11/bits/ios_base.h ****   operator&=(_Ios_Fmtflags& __a, _Ios_Fmtflags __b)
 104:/usr/include/c++/11/bits/ios_base.h ****   { return __a = __a & __b; }
 105:/usr/include/c++/11/bits/ios_base.h **** 
 106:/usr/include/c++/11/bits/ios_base.h ****   inline const _Ios_Fmtflags&
 107:/usr/include/c++/11/bits/ios_base.h ****   operator^=(_Ios_Fmtflags& __a, _Ios_Fmtflags __b)
 108:/usr/include/c++/11/bits/ios_base.h ****   { return __a = __a ^ __b; }
 109:/usr/include/c++/11/bits/ios_base.h **** 
 110:/usr/include/c++/11/bits/ios_base.h **** 
 111:/usr/include/c++/11/bits/ios_base.h ****   enum _Ios_Openmode 
 112:/usr/include/c++/11/bits/ios_base.h ****     { 
 113:/usr/include/c++/11/bits/ios_base.h ****       _S_app 		= 1L << 0,
 114:/usr/include/c++/11/bits/ios_base.h ****       _S_ate 		= 1L << 1,
 115:/usr/include/c++/11/bits/ios_base.h ****       _S_bin 		= 1L << 2,
 116:/usr/include/c++/11/bits/ios_base.h ****       _S_in 		= 1L << 3,
 117:/usr/include/c++/11/bits/ios_base.h ****       _S_out 		= 1L << 4,
 118:/usr/include/c++/11/bits/ios_base.h ****       _S_trunc 		= 1L << 5,
 119:/usr/include/c++/11/bits/ios_base.h ****       _S_ios_openmode_end = 1L << 16,
 120:/usr/include/c++/11/bits/ios_base.h ****       _S_ios_openmode_max = __INT_MAX__,
 121:/usr/include/c++/11/bits/ios_base.h ****       _S_ios_openmode_min = ~__INT_MAX__
 122:/usr/include/c++/11/bits/ios_base.h ****     };
 123:/usr/include/c++/11/bits/ios_base.h **** 
 124:/usr/include/c++/11/bits/ios_base.h ****   inline _GLIBCXX_CONSTEXPR _Ios_Openmode
 125:/usr/include/c++/11/bits/ios_base.h ****   operator&(_Ios_Openmode __a, _Ios_Openmode __b)
 126:/usr/include/c++/11/bits/ios_base.h ****   { return _Ios_Openmode(static_cast<int>(__a) & static_cast<int>(__b)); }
 127:/usr/include/c++/11/bits/ios_base.h **** 
 128:/usr/include/c++/11/bits/ios_base.h ****   inline _GLIBCXX_CONSTEXPR _Ios_Openmode
 129:/usr/include/c++/11/bits/ios_base.h ****   operator|(_Ios_Openmode __a, _Ios_Openmode __b)
 130:/usr/include/c++/11/bits/ios_base.h ****   { return _Ios_Openmode(static_cast<int>(__a) | static_cast<int>(__b)); }
  11              		.loc 1 130 3
  12              		.cfi_startproc
  13 0000 F30F1EFA 		endbr64
  14 0004 55       		pushq	%rbp
  15              		.cfi_def_cfa_offset 16
  16              		.cfi_offset 6, -16
  17 0005 4889E5   		movq	%rsp, %rbp
  18              		.cfi_def_cfa_register 6
  19 0008 897DFC   		movl	%edi, -4(%rbp)
  20 000b 8975F8   		movl	%esi, -8(%rbp)
  21              		.loc 1 130 71
  22 000e 8B45FC   		movl	-4(%rbp), %eax
  23 0011 0B45F8   		orl	-8(%rbp), %eax
  24              		.loc 1 130 74
  25 0014 5D       		popq	%rbp
  26              		.cfi_def_cfa 7, 8
  27 0015 C3       		ret
  28              		.cfi_endproc
  29              	.LFE707:
  31              		.section	.rodata
  32              	.LC0:
  33 0000 44656661 		.string	"DefaultSuite"
  33      756C7453 
  33      75697465 
  33      00
  34              		.section	.text._ZN13UnitTestSuite12GetSuiteNameEv,"axG",@progbits,_ZN13UnitTestSuite12GetSuiteName
  35              		.weak	_ZN13UnitTestSuite12GetSuiteNameEv
  37              	_ZN13UnitTestSuite12GetSuiteNameEv:
  38              	.LFB1152:
  39              		.file 2 "/home/pong/FPGALink/makestuff/libs/libutpp/TestSuite.h"
   1:/home/pong/FPGALink/makestuff/libs/libutpp/TestSuite.h **** #ifndef UNITTEST_TESTSUITE_H
   2:/home/pong/FPGALink/makestuff/libs/libutpp/TestSuite.h **** #define UNITTEST_TESTSUITE_H
   3:/home/pong/FPGALink/makestuff/libs/libutpp/TestSuite.h **** 
   4:/home/pong/FPGALink/makestuff/libs/libutpp/TestSuite.h **** namespace UnitTestSuite {
   5:/home/pong/FPGALink/makestuff/libs/libutpp/TestSuite.h **** 
   6:/home/pong/FPGALink/makestuff/libs/libutpp/TestSuite.h ****     inline char const* GetSuiteName ()
   7:/home/pong/FPGALink/makestuff/libs/libutpp/TestSuite.h ****     {
  40              		.loc 2 7 5
  41              		.cfi_startproc
  42 0000 F30F1EFA 		endbr64
  43 0004 55       		pushq	%rbp
  44              		.cfi_def_cfa_offset 16
  45              		.cfi_offset 6, -16
  46 0005 4889E5   		movq	%rsp, %rbp
  47              		.cfi_def_cfa_register 6
   8:/home/pong/FPGALink/makestuff/libs/libutpp/TestSuite.h ****         return "DefaultSuite";
  48              		.loc 2 8 16
  49 0008 488D0500 		leaq	.LC0(%rip), %rax
  49      000000
   9:/home/pong/FPGALink/makestuff/libs/libutpp/TestSuite.h ****     }
  50              		.loc 2 9 5
  51 000f 5D       		popq	%rbp
  52              		.cfi_def_cfa 7, 8
  53 0010 C3       		ret
  54              		.cfi_endproc
  55              	.LFE1152:
  57              		.section	.text._ZN8UnitTest15MemoryOutStreamC1Ev,"axG",@progbits,_ZN8UnitTest15MemoryOutStreamC1Ev
  58              		.align 2
  59              		.weak	_ZN8UnitTest15MemoryOutStreamC1Ev
  61              	_ZN8UnitTest15MemoryOutStreamC1Ev:
  62              	.LFB1193:
  63              		.file 3 "/home/pong/FPGALink/makestuff/libs/libutpp/MemoryOutStream.h"
   1:/home/pong/FPGALink/makestuff/libs/libutpp/MemoryOutStream.h **** #ifndef UNITTEST_MEMORYOUTSTREAM_H
   2:/home/pong/FPGALink/makestuff/libs/libutpp/MemoryOutStream.h **** #define UNITTEST_MEMORYOUTSTREAM_H
   3:/home/pong/FPGALink/makestuff/libs/libutpp/MemoryOutStream.h **** 
   4:/home/pong/FPGALink/makestuff/libs/libutpp/MemoryOutStream.h **** #include "Config.h"
   5:/home/pong/FPGALink/makestuff/libs/libutpp/MemoryOutStream.h **** 
   6:/home/pong/FPGALink/makestuff/libs/libutpp/MemoryOutStream.h **** #ifndef UNITTEST_USE_CUSTOM_STREAMS
   7:/home/pong/FPGALink/makestuff/libs/libutpp/MemoryOutStream.h **** 
   8:/home/pong/FPGALink/makestuff/libs/libutpp/MemoryOutStream.h **** #include <sstream>
   9:/home/pong/FPGALink/makestuff/libs/libutpp/MemoryOutStream.h **** 
  10:/home/pong/FPGALink/makestuff/libs/libutpp/MemoryOutStream.h **** namespace UnitTest
  11:/home/pong/FPGALink/makestuff/libs/libutpp/MemoryOutStream.h **** {
  12:/home/pong/FPGALink/makestuff/libs/libutpp/MemoryOutStream.h **** 
  13:/home/pong/FPGALink/makestuff/libs/libutpp/MemoryOutStream.h **** class MemoryOutStream : public std::ostringstream
  14:/home/pong/FPGALink/makestuff/libs/libutpp/MemoryOutStream.h **** {
  15:/home/pong/FPGALink/makestuff/libs/libutpp/MemoryOutStream.h **** public:
  16:/home/pong/FPGALink/makestuff/libs/libutpp/MemoryOutStream.h ****     MemoryOutStream() {}
  64              		.loc 3 16 5
  65              		.cfi_startproc
  66              		.cfi_personality 0x9b,DW.ref.__gxx_personality_v0
  67              		.cfi_lsda 0x1b,.LLSDA1193
  68 0000 F30F1EFA 		endbr64
  69 0004 55       		pushq	%rbp
  70              		.cfi_def_cfa_offset 16
  71              		.cfi_offset 6, -16
  72 0005 4889E5   		movq	%rsp, %rbp
  73              		.cfi_def_cfa_register 6
  74 0008 53       		pushq	%rbx
  75 0009 4883EC18 		subq	$24, %rsp
  76              		.cfi_offset 3, -24
  77 000d 48897DE8 		movq	%rdi, -24(%rbp)
  78              	.LBB2:
  79              		.loc 3 16 23
  80 0011 488B45E8 		movq	-24(%rbp), %rax
  81 0015 48059000 		addq	$144, %rax
  81      0000
  82 001b 4889C7   		movq	%rax, %rdi
  83              	.LEHB0:
  84 001e E8000000 		call	_ZNSt9basic_iosIcSt11char_traitsIcEEC2Ev@PLT
  84      00
  85              	.LEHE0:
  86 0023 488B45E8 		movq	-24(%rbp), %rax
  87 0027 488D1500 		leaq	8+_ZTTN8UnitTest15MemoryOutStreamE(%rip), %rdx
  87      000000
  88 002e 4889D6   		movq	%rdx, %rsi
  89 0031 4889C7   		movq	%rax, %rdi
  90              	.LEHB1:
  91 0034 E8000000 		call	_ZNSt7__cxx1119basic_ostringstreamIcSt11char_traitsIcESaIcEEC2Ev@PLT
  91      00
  92              	.LEHE1:
  93              		.loc 3 16 23 is_stmt 0 discriminator 2
  94 0039 488D1500 		leaq	24+_ZTVN8UnitTest15MemoryOutStreamE(%rip), %rdx
  94      000000
  95 0040 488B45E8 		movq	-24(%rbp), %rax
  96 0044 488910   		movq	%rdx, (%rax)
  97 0047 488B45E8 		movq	-24(%rbp), %rax
  98 004b 48059000 		addq	$144, %rax
  98      0000
  99 0051 488D1500 		leaq	64+_ZTVN8UnitTest15MemoryOutStreamE(%rip), %rdx
  99      000000
 100 0058 488910   		movq	%rdx, (%rax)
 101 005b 488B45E8 		movq	-24(%rbp), %rax
 102 005f 4883C070 		addq	$112, %rax
 103 0063 4889C7   		movq	%rax, %rdi
 104              	.LEHB2:
 105 0066 E8000000 		call	_ZNSt7__cxx1112basic_stringIcSt11char_traitsIcESaIcEEC1Ev@PLT
 105      00
 106              	.LEHE2:
 107              	.LBE2:
 108              		.loc 3 16 24 is_stmt 1
 109 006b EB43     		jmp	.L10
 110              	.L9:
 111 006d F30F1EFA 		endbr64
 112              	.LBB3:
 113 0071 4889C3   		movq	%rax, %rbx
 114 0074 488B45E8 		movq	-24(%rbp), %rax
 115 0078 488D1500 		leaq	8+_ZTTN8UnitTest15MemoryOutStreamE(%rip), %rdx
 115      000000
 116 007f 4889D6   		movq	%rdx, %rsi
 117 0082 4889C7   		movq	%rax, %rdi
 118 0085 E8000000 		call	_ZNSt7__cxx1119basic_ostringstreamIcSt11char_traitsIcESaIcEED2Ev@PLT
 118      00
 119 008a EB07     		jmp	.L7
 120              	.L8:
 121 008c F30F1EFA 		endbr64
 122 0090 4889C3   		movq	%rax, %rbx
 123              	.L7:
 124              		.loc 3 16 24 is_stmt 0 discriminator 1
 125 0093 488B45E8 		movq	-24(%rbp), %rax
 126 0097 48059000 		addq	$144, %rax
 126      0000
 127 009d 4889C7   		movq	%rax, %rdi
 128 00a0 E8000000 		call	_ZNSt9basic_iosIcSt11char_traitsIcEED2Ev@PLT
 128      00
 129 00a5 4889D8   		movq	%rbx, %rax
 130 00a8 4889C7   		movq	%rax, %rdi
 131              	.LEHB3:
 132 00ab E8000000 		call	_Unwind_Resume@PLT
 132      00
 133              	.LEHE3:
 134              	.L10:
 135              	.LBE3:
 136              		.loc 3 16 24
 137 00b0 488B5DF8 		movq	-8(%rbp), %rbx
 138 00b4 C9       		leave
 139              		.cfi_def_cfa 7, 8
 140 00b5 C3       		ret
 141              		.cfi_endproc
 142              	.LFE1193:
 143              		.globl	__gxx_personality_v0
 144              		.section	.gcc_except_table._ZN8UnitTest15MemoryOutStreamC1Ev,"aG",@progbits,_ZN8UnitTest15MemoryOu
 145              	.LLSDA1193:
 146 0000 FF       		.byte	0xff
 147 0001 FF       		.byte	0xff
 148 0002 01       		.byte	0x1
 149 0003 12       		.uleb128 .LLSDACSE1193-.LLSDACSB1193
 150              	.LLSDACSB1193:
 151 0004 1E       		.uleb128 .LEHB0-.LFB1193
 152 0005 05       		.uleb128 .LEHE0-.LEHB0
 153 0006 00       		.uleb128 0
 154 0007 00       		.uleb128 0
 155 0008 34       		.uleb128 .LEHB1-.LFB1193
 156 0009 05       		.uleb128 .LEHE1-.LEHB1
 157 000a 8C01     		.uleb128 .L8-.LFB1193
 158 000c 00       		.uleb128 0
 159 000d 66       		.uleb128 .LEHB2-.LFB1193
 160 000e 05       		.uleb128 .LEHE2-.LEHB2
 161 000f 6D       		.uleb128 .L9-.LFB1193
 162 0010 00       		.uleb128 0
 163 0011 AB01     		.uleb128 .LEHB3-.LFB1193
 164 0013 05       		.uleb128 .LEHE3-.LEHB3
 165 0014 00       		.uleb128 0
 166 0015 00       		.uleb128 0
 167              	.LLSDACSE1193:
 168              		.section	.text._ZN8UnitTest15MemoryOutStreamC1Ev,"axG",@progbits,_ZN8UnitTest15MemoryOutStreamC1Ev
 170              		.section	.rodata
 171              	.LC1:
 172 000d 74657374 		.string	"testHexIO.cpp"
 172      48657849 
 172      4F2E6370 
 172      7000
 173              	.LC2:
 174 001b 48657849 		.string	"HexIO_testValidDataLine"
 174      4F5F7465 
 174      73745661 
 174      6C696444 
 174      6174614C 
 175              		.section	.text._ZN27TestHexIO_testValidDataLineC2Ev,"axG",@progbits,_ZN27TestHexIO_testValidDataLi
 176              		.align 2
 177              		.weak	_ZN27TestHexIO_testValidDataLineC2Ev
 179              	_ZN27TestHexIO_testValidDataLineC2Ev:
 180              	.LFB1210:
 181              		.file 4 "testHexIO.cpp"
   1:testHexIO.cpp **** /*
   2:testHexIO.cpp ****  * Copyright (C) 2009-2012 Chris McClelland
   3:testHexIO.cpp ****  *
   4:testHexIO.cpp ****  * This program is free software: you can redistribute it and/or modify
   5:testHexIO.cpp ****  * it under the terms of the GNU Lesser General Public License as published by
   6:testHexIO.cpp ****  * the Free Software Foundation, either version 3 of the License, or
   7:testHexIO.cpp ****  * (at your option) any later version.
   8:testHexIO.cpp ****  *
   9:testHexIO.cpp ****  * This program is distributed in the hope that it will be useful,
  10:testHexIO.cpp ****  * but WITHOUT ANY WARRANTY; without even the implied warranty of
  11:testHexIO.cpp ****  * MERCHANTABILITY or FITNESS FOR A PARTICULAR PURPOSE.  See the
  12:testHexIO.cpp ****  * GNU Lesser General Public License for more details.
  13:testHexIO.cpp ****  *
  14:testHexIO.cpp ****  * You should have received a copy of the GNU Lesser General Public License
  15:testHexIO.cpp ****  * along with this program.  If not, see <http://www.gnu.org/licenses/>.
  16:testHexIO.cpp ****  */
  17:testHexIO.cpp **** #include <cstdarg>
  18:testHexIO.cpp **** #include <string>
  19:testHexIO.cpp **** #include <fstream>
  20:testHexIO.cpp **** #include <cstring>
  21:testHexIO.cpp **** #include <UnitTest++.h>
  22:testHexIO.cpp **** #include "../private.h"
  23:testHexIO.cpp **** #include "../libbuffer.h"
  24:testHexIO.cpp **** 
  25:testHexIO.cpp **** using namespace std;
  26:testHexIO.cpp **** 
  27:testHexIO.cpp **** TEST(HexIO_testValidDataLine) {
 182              		.loc 4 27 1 is_stmt 1
 183              		.cfi_startproc
 184 0000 F30F1EFA 		endbr64
 185 0004 55       		pushq	%rbp
 186              		.cfi_def_cfa_offset 16
 187              		.cfi_offset 6, -16
 188 0005 4889E5   		movq	%rsp, %rbp
 189              		.cfi_def_cfa_register 6
 190 0008 53       		pushq	%rbx
 191 0009 4883EC18 		subq	$24, %rsp
 192              		.cfi_offset 3, -24
 193 000d 48897DE8 		movq	%rdi, -24(%rbp)
 194              	.LBB4:
 195              		.loc 4 27 1
 196 0011 488B5DE8 		movq	-24(%rbp), %rbx
 197 0015 E8000000 		call	_ZN13UnitTestSuite12GetSuiteNameEv
 197      00
 198 001a 4889C2   		movq	%rax, %rdx
 199 001d 41B81B00 		movl	$27, %r8d
 199      0000
 200 0023 488D0500 		leaq	.LC1(%rip), %rax
 200      000000
 201 002a 4889C1   		movq	%rax, %rcx
 202 002d 488D0500 		leaq	.LC2(%rip), %rax
 202      000000
 203 0034 4889C6   		movq	%rax, %rsi
 204 0037 4889DF   		movq	%rbx, %rdi
 205 003a E8000000 		call	_ZN8UnitTest4TestC2EPKcS2_S2_i@PLT
 205      00
 206 003f 488D1500 		leaq	16+_ZTV27TestHexIO_testValidDataLine(%rip), %rdx
 206      000000
 207 0046 488B45E8 		movq	-24(%rbp), %rax
 208 004a 488910   		movq	%rdx, (%rax)
 209              	.LBE4:
 210 004d 90       		nop
 211 004e 488B5DF8 		movq	-8(%rbp), %rbx
 212 0052 C9       		leave
 213              		.cfi_def_cfa 7, 8
 214 0053 C3       		ret
 215              		.cfi_endproc
 216              	.LFE1210:
 218              		.weak	_ZN27TestHexIO_testValidDataLineC1Ev
 219              		.set	_ZN27TestHexIO_testValidDataLineC1Ev,_ZN27TestHexIO_testValidDataLineC2Ev
 220              		.globl	testHexIO_testValidDataLineInstance
 221              		.bss
 222              		.align 32
 225              	testHexIO_testValidDataLineInstance:
 226 0000 00000000 		.zero	56
 226      00000000 
 226      00000000 
 226      00000000 
 226      00000000 
 227              		.globl	adderHexIO_testValidDataLine
 230              	adderHexIO_testValidDataLine:
 231 0038 00       		.zero	1
 232              		.section	.rodata
 233              	.LC3:
 234 0033 3A303430 		.string	":040BE10075820022F7\n"
 234      42453130 
 234      30373538 
 234      32303032 
 234      3246370A 
 235              		.align 8
 236              	.LC4:
 237 0048 556E6861 		.string	"Unhandled exception in CHECK_EQUAL(BUF_SUCCESS, status)"
 237      6E646C65 
 237      64206578 
 237      63657074 
 237      696F6E20 
 238              		.align 8
 239              	.LC5:
 240 0080 556E6861 		.string	"Unhandled exception in CHECK_EQUAL(0x00, recordType)"
 240      6E646C65 
 240      64206578 
 240      63657074 
 240      696F6E20 
 241 00b5 000000   		.align 8
 242              	.LC6:
 243 00b8 556E6861 		.string	"Unhandled exception in CHECK_EQUAL(0x0BE1+4UL, data.length)"
 243      6E646C65 
 243      64206578 
 243      63657074 
 243      696F6E20 
 244 00f4 00000000 		.align 8
 245              	.LC7:
 246 00f8 556E6861 		.string	"Unhandled exception in CHECK_EQUAL(0x0BE1+4UL, mask.length)"
 246      6E646C65 
 246      64206578 
 246      63657074 
 246      696F6E20 
 247 0134 00000000 		.align 8
 248              	.LC8:
 249 0138 556E6861 		.string	"Unhandled exception in CHECK_EQUAL(4096UL, data.capacity)"
 249      6E646C65 
 249      64206578 
 249      63657074 
 249      696F6E20 
 250 0172 00000000 		.align 8
 250      0000
 251              	.LC9:
 252 0178 556E6861 		.string	"Unhandled exception in CHECK_EQUAL(4096UL, mask.capacity)"
 252      6E646C65 
 252      64206578 
 252      63657074 
 252      696F6E20 
 253 01b2 00000000 		.align 8
 253      0000
 254              	.LC10:
 255 01b8 556E6861 		.string	"Unhandled exception in CHECK_ARRAY_EQUAL(expected, data.data + 0x0BE1)"
 255      6E646C65 
 255      64206578 
 255      63657074 
 255      696F6E20 
 256              		.text
 257              		.align 2
 258              		.globl	_ZNK27TestHexIO_testValidDataLine7RunImplEv
 260              	_ZNK27TestHexIO_testValidDataLine7RunImplEv:
 261              	.LFB1212:
 262              		.loc 4 27 31
 263              		.cfi_startproc
 264              		.cfi_personality 0x9b,DW.ref.__gxx_personality_v0
 265              		.cfi_lsda 0x1b,.LLSDA1212
 266 0000 F30F1EFA 		endbr64
 267 0004 55       		pushq	%rbp
 268              		.cfi_def_cfa_offset 16
 269              		.cfi_offset 6, -16
 270 0005 4889E5   		movq	%rsp, %rbp
 271              		.cfi_def_cfa_register 6
 272 0008 53       		pushq	%rbx
 273 0009 4881ECA8 		subq	$168, %rsp
 273      000000
 274              		.cfi_offset 3, -24
 275 0010 4889BD58 		movq	%rdi, -168(%rbp)
 275      FFFFFF
 276              		.loc 4 27 31
 277 0017 64488B04 		movq	%fs:40, %rax
 277      25280000 
 277      00
 278 0020 488945E8 		movq	%rax, -24(%rbp)
 279 0024 31C0     		xorl	%eax, %eax
  28:testHexIO.cpp **** 	Buffer data, mask;
  29:testHexIO.cpp **** 	BufferStatus status;
  30:testHexIO.cpp **** 	const char *line = ":040BE10075820022F7\n";
 280              		.loc 4 30 14
 281 0026 488D0500 		leaq	.LC3(%rip), %rax
 281      000000
 282 002d 48898578 		movq	%rax, -136(%rbp)
 282      FFFFFF
  31:testHexIO.cpp **** 	uint8 recordType;
  32:testHexIO.cpp **** 	uint32 seg = 0x00000000;
 283              		.loc 4 32 9
 284 0034 C7856CFF 		movl	$0, -148(%rbp)
 284      FFFF0000 
 284      0000
  33:testHexIO.cpp **** 	const uint8 expected[] = {0x75, 0x82, 0x00, 0x22};
 285              		.loc 4 33 14
 286 003e C745E475 		movl	$570458741, -28(%rbp)
 286      820022
  34:testHexIO.cpp **** 	status = bufInitialise(&data, 1024, 0x00, NULL);
 287              		.loc 4 34 24
 288 0045 488D4580 		leaq	-128(%rbp), %rax
 289 0049 B9000000 		movl	$0, %ecx
 289      00
 290 004e BA000000 		movl	$0, %edx
 290      00
 291 0053 BE000400 		movl	$1024, %esi
 291      00
 292 0058 4889C7   		movq	%rax, %rdi
 293              	.LEHB4:
 294 005b E8000000 		call	bufInitialise@PLT
 294      00
 295              	.LEHE4:
 296              		.loc 4 34 9
 297 0060 898568FF 		movl	%eax, -152(%rbp)
 297      FFFF
 298              	.LEHB5:
  35:testHexIO.cpp **** 	CHECK_EQUAL(BUF_SUCCESS, status);
 299              		.loc 4 35 2
 300 0066 E8000000 		call	_ZN8UnitTest11CurrentTest7DetailsEv@PLT
 300      00
 301 006b 488B08   		movq	(%rax), %rcx
 302 006e 488D45C0 		leaq	-64(%rbp), %rax
 303 0072 BA230000 		movl	$35, %edx
 303      00
 304 0077 4889CE   		movq	%rcx, %rsi
 305 007a 4889C7   		movq	%rax, %rdi
 306 007d E8000000 		call	_ZN8UnitTest11TestDetailsC1ERKS0_i@PLT
 306      00
 307              		.loc 4 35 2 is_stmt 0 discriminator 4
 308 0082 C745A000 		movl	$0, -96(%rbp)
 308      000000
 309 0089 E8000000 		call	_ZN8UnitTest11CurrentTest7ResultsEv@PLT
 309      00
 310 008e 488B00   		movq	(%rax), %rax
 311 0091 488D4DC0 		leaq	-64(%rbp), %rcx
 312 0095 488D9568 		leaq	-152(%rbp), %rdx
 312      FFFFFF
 313 009c 488D75A0 		leaq	-96(%rbp), %rsi
 314 00a0 4889C7   		movq	%rax, %rdi
 315 00a3 E8000000 		call	_ZN8UnitTest10CheckEqualI12BufferStatusS1_EEvRNS_11TestResultsERKT_RKT0_RKNS_11TestDetailsE
 315      00
 316              	.LEHE5:
 317              	.L14:
  36:testHexIO.cpp **** 	status = bufInitialise(&mask, 1024, 0x00, NULL);
 318              		.loc 4 36 24 is_stmt 1
 319 00a8 488D45A0 		leaq	-96(%rbp), %rax
 320 00ac B9000000 		movl	$0, %ecx
 320      00
 321 00b1 BA000000 		movl	$0, %edx
 321      00
 322 00b6 BE000400 		movl	$1024, %esi
 322      00
 323 00bb 4889C7   		movq	%rax, %rdi
 324              	.LEHB6:
 325 00be E8000000 		call	bufInitialise@PLT
 325      00
 326              	.LEHE6:
 327              		.loc 4 36 9
 328 00c3 898568FF 		movl	%eax, -152(%rbp)
 328      FFFF
 329              	.LEHB7:
  37:testHexIO.cpp **** 	CHECK_EQUAL(BUF_SUCCESS, status);
 330              		.loc 4 37 2
 331 00c9 E8000000 		call	_ZN8UnitTest11CurrentTest7DetailsEv@PLT
 331      00
 332 00ce 488B08   		movq	(%rax), %rcx
 333 00d1 488D45C0 		leaq	-64(%rbp), %rax
 334 00d5 BA250000 		movl	$37, %edx
 334      00
 335 00da 4889CE   		movq	%rcx, %rsi
 336 00dd 4889C7   		movq	%rax, %rdi
 337 00e0 E8000000 		call	_ZN8UnitTest11TestDetailsC1ERKS0_i@PLT
 337      00
 338              		.loc 4 37 2 is_stmt 0 discriminator 4
 339 00e5 C78570FF 		movl	$0, -144(%rbp)
 339      FFFF0000 
 339      0000
 340 00ef E8000000 		call	_ZN8UnitTest11CurrentTest7ResultsEv@PLT
 340      00
 341 00f4 488B00   		movq	(%rax), %rax
 342 00f7 488D4DC0 		leaq	-64(%rbp), %rcx
 343 00fb 488D9568 		leaq	-152(%rbp), %rdx
 343      FFFFFF
 344 0102 488DB570 		leaq	-144(%rbp), %rsi
 344      FFFFFF
 345 0109 4889C7   		movq	%rax, %rdi
 346 010c E8000000 		call	_ZN8UnitTest10CheckEqualI12BufferStatusS1_EEvRNS_11TestResultsERKT_RKT0_RKNS_11TestDetailsE
 346      00
 347              	.LEHE7:
 348              	.L17:
  38:testHexIO.cpp **** 	status = bufProcessLine(line, 0, &data, &mask, &seg, &recordType, NULL);
 349              		.loc 4 38 25 is_stmt 1
 350 0111 488DBD67 		leaq	-153(%rbp), %rdi
 350      FFFFFF
 351 0118 488DB56C 		leaq	-148(%rbp), %rsi
 351      FFFFFF
 352 011f 488D4DA0 		leaq	-96(%rbp), %rcx
 353 0123 488D5580 		leaq	-128(%rbp), %rdx
 354 0127 488B8578 		movq	-136(%rbp), %rax
 354      FFFFFF
 355 012e 4883EC08 		subq	$8, %rsp
 356 0132 6A00     		pushq	$0
 357 0134 4989F9   		movq	%rdi, %r9
 358 0137 4989F0   		movq	%rsi, %r8
 359 013a BE000000 		movl	$0, %esi
 359      00
 360 013f 4889C7   		movq	%rax, %rdi
 361              	.LEHB8:
 362 0142 E8000000 		call	bufProcessLine@PLT
 362      00
 363              	.LEHE8:
 364 0147 4883C410 		addq	$16, %rsp
 365              		.loc 4 38 9
 366 014b 898568FF 		movl	%eax, -152(%rbp)
 366      FFFF
 367              	.LEHB9:
  39:testHexIO.cpp **** 	CHECK_EQUAL(BUF_SUCCESS, status);
 368              		.loc 4 39 2
 369 0151 E8000000 		call	_ZN8UnitTest11CurrentTest7DetailsEv@PLT
 369      00
 370 0156 488B08   		movq	(%rax), %rcx
 371 0159 488D45C0 		leaq	-64(%rbp), %rax
 372 015d BA270000 		movl	$39, %edx
 372      00
 373 0162 4889CE   		movq	%rcx, %rsi
 374 0165 4889C7   		movq	%rax, %rdi
 375 0168 E8000000 		call	_ZN8UnitTest11TestDetailsC1ERKS0_i@PLT
 375      00
 376              		.loc 4 39 2 is_stmt 0 discriminator 4
 377 016d C78570FF 		movl	$0, -144(%rbp)
 377      FFFF0000 
 377      0000
 378 0177 E8000000 		call	_ZN8UnitTest11CurrentTest7ResultsEv@PLT
 378      00
 379 017c 488B00   		movq	(%rax), %rax
 380 017f 488D4DC0 		leaq	-64(%rbp), %rcx
 381 0183 488D9568 		leaq	-152(%rbp), %rdx
 381      FFFFFF
 382 018a 488DB570 		leaq	-144(%rbp), %rsi
 382      FFFFFF
 383 0191 4889C7   		movq	%rax, %rdi
 384 0194 E8000000 		call	_ZN8UnitTest10CheckEqualI12BufferStatusS1_EEvRNS_11TestResultsERKT_RKT0_RKNS_11TestDetailsE
 384      00
 385              	.LEHE9:
 386              	.L20:
 387              	.LEHB10:
  40:testHexIO.cpp **** 	CHECK_EQUAL(0x00, recordType);
 388              		.loc 4 40 2 is_stmt 1
 389 0199 E8000000 		call	_ZN8UnitTest11CurrentTest7DetailsEv@PLT
 389      00
 390 019e 488B08   		movq	(%rax), %rcx
 391 01a1 488D45C0 		leaq	-64(%rbp), %rax
 392 01a5 BA280000 		movl	$40, %edx
 392      00
 393 01aa 4889CE   		movq	%rcx, %rsi
 394 01ad 4889C7   		movq	%rax, %rdi
 395 01b0 E8000000 		call	_ZN8UnitTest11TestDetailsC1ERKS0_i@PLT
 395      00
 396              		.loc 4 40 2 is_stmt 0 discriminator 4
 397 01b5 C78570FF 		movl	$0, -144(%rbp)
 397      FFFF0000 
 397      0000
 398 01bf E8000000 		call	_ZN8UnitTest11CurrentTest7ResultsEv@PLT
 398      00
 399 01c4 488B00   		movq	(%rax), %rax
 400 01c7 488D4DC0 		leaq	-64(%rbp), %rcx
 401 01cb 488D9567 		leaq	-153(%rbp), %rdx
 401      FFFFFF
 402 01d2 488DB570 		leaq	-144(%rbp), %rsi
 402      FFFFFF
 403 01d9 4889C7   		movq	%rax, %rdi
 404 01dc E8000000 		call	_ZN8UnitTest10CheckEqualIihEEvRNS_11TestResultsERKT_RKT0_RKNS_11TestDetailsE
 404      00
 405              	.LEHE10:
 406              	.L23:
 407              	.LEHB11:
  41:testHexIO.cpp **** 	CHECK_EQUAL(0x0BE1+4UL, data.length);
 408              		.loc 4 41 2 is_stmt 1
 409 01e1 E8000000 		call	_ZN8UnitTest11CurrentTest7DetailsEv@PLT
 409      00
 410 01e6 488B08   		movq	(%rax), %rcx
 411 01e9 488D45C0 		leaq	-64(%rbp), %rax
 412 01ed BA290000 		movl	$41, %edx
 412      00
 413 01f2 4889CE   		movq	%rcx, %rsi
 414 01f5 4889C7   		movq	%rax, %rdi
 415 01f8 E8000000 		call	_ZN8UnitTest11TestDetailsC1ERKS0_i@PLT
 415      00
 416              		.loc 4 41 2 is_stmt 0 discriminator 4
 417 01fd 48C78570 		movq	$3045, -144(%rbp)
 417      FFFFFFE5 
 417      0B0000
 418 0208 E8000000 		call	_ZN8UnitTest11CurrentTest7ResultsEv@PLT
 418      00
 419 020d 488B00   		movq	(%rax), %rax
 420 0210 488D55C0 		leaq	-64(%rbp), %rdx
 421 0214 488D4D80 		leaq	-128(%rbp), %rcx
 422 0218 488D7908 		leaq	8(%rcx), %rdi
 423 021c 488DB570 		leaq	-144(%rbp), %rsi
 423      FFFFFF
 424 0223 4889D1   		movq	%rdx, %rcx
 425 0226 4889FA   		movq	%rdi, %rdx
 426 0229 4889C7   		movq	%rax, %rdi
 427 022c E8000000 		call	_ZN8UnitTest10CheckEqualImmEEvRNS_11TestResultsERKT_RKT0_RKNS_11TestDetailsE
 427      00
 428              	.LEHE11:
 429              	.L26:
 430              	.LEHB12:
  42:testHexIO.cpp **** 	CHECK_EQUAL(0x0BE1+4UL, mask.length);
 431              		.loc 4 42 2 is_stmt 1
 432 0231 E8000000 		call	_ZN8UnitTest11CurrentTest7DetailsEv@PLT
 432      00
 433 0236 488B08   		movq	(%rax), %rcx
 434 0239 488D45C0 		leaq	-64(%rbp), %rax
 435 023d BA2A0000 		movl	$42, %edx
 435      00
 436 0242 4889CE   		movq	%rcx, %rsi
 437 0245 4889C7   		movq	%rax, %rdi
 438 0248 E8000000 		call	_ZN8UnitTest11TestDetailsC1ERKS0_i@PLT
 438      00
 439              		.loc 4 42 2 is_stmt 0 discriminator 4
 440 024d 48C78570 		movq	$3045, -144(%rbp)
 440      FFFFFFE5 
 440      0B0000
 441 0258 E8000000 		call	_ZN8UnitTest11CurrentTest7ResultsEv@PLT
 441      00
 442 025d 488B00   		movq	(%rax), %rax
 443 0260 488D55C0 		leaq	-64(%rbp), %rdx
 444 0264 488D4DA0 		leaq	-96(%rbp), %rcx
 445 0268 488D7908 		leaq	8(%rcx), %rdi
 446 026c 488DB570 		leaq	-144(%rbp), %rsi
 446      FFFFFF
 447 0273 4889D1   		movq	%rdx, %rcx
 448 0276 4889FA   		movq	%rdi, %rdx
 449 0279 4889C7   		movq	%rax, %rdi
 450 027c E8000000 		call	_ZN8UnitTest10CheckEqualImmEEvRNS_11TestResultsERKT_RKT0_RKNS_11TestDetailsE
 450      00
 451              	.LEHE12:
 452              	.L29:
 453              	.LEHB13:
  43:testHexIO.cpp **** 	CHECK_EQUAL(4096UL, data.capacity);
 454              		.loc 4 43 2 is_stmt 1
 455 0281 E8000000 		call	_ZN8UnitTest11CurrentTest7DetailsEv@PLT
 455      00
 456 0286 488B08   		movq	(%rax), %rcx
 457 0289 488D45C0 		leaq	-64(%rbp), %rax
 458 028d BA2B0000 		movl	$43, %edx
 458      00
 459 0292 4889CE   		movq	%rcx, %rsi
 460 0295 4889C7   		movq	%rax, %rdi
 461 0298 E8000000 		call	_ZN8UnitTest11TestDetailsC1ERKS0_i@PLT
 461      00
 462              		.loc 4 43 2 is_stmt 0 discriminator 4
 463 029d 48C78570 		movq	$4096, -144(%rbp)
 463      FFFFFF00 
 463      100000
 464 02a8 E8000000 		call	_ZN8UnitTest11CurrentTest7ResultsEv@PLT
 464      00
 465 02ad 488B00   		movq	(%rax), %rax
 466 02b0 488D55C0 		leaq	-64(%rbp), %rdx
 467 02b4 488D4D80 		leaq	-128(%rbp), %rcx
 468 02b8 488D7910 		leaq	16(%rcx), %rdi
 469 02bc 488DB570 		leaq	-144(%rbp), %rsi
 469      FFFFFF
 470 02c3 4889D1   		movq	%rdx, %rcx
 471 02c6 4889FA   		movq	%rdi, %rdx
 472 02c9 4889C7   		movq	%rax, %rdi
 473 02cc E8000000 		call	_ZN8UnitTest10CheckEqualImmEEvRNS_11TestResultsERKT_RKT0_RKNS_11TestDetailsE
 473      00
 474              	.LEHE13:
 475              	.L32:
 476              	.LEHB14:
  44:testHexIO.cpp **** 	CHECK_EQUAL(4096UL, mask.capacity);
 477              		.loc 4 44 2 is_stmt 1
 478 02d1 E8000000 		call	_ZN8UnitTest11CurrentTest7DetailsEv@PLT
 478      00
 479 02d6 488B08   		movq	(%rax), %rcx
 480 02d9 488D45C0 		leaq	-64(%rbp), %rax
 481 02dd BA2C0000 		movl	$44, %edx
 481      00
 482 02e2 4889CE   		movq	%rcx, %rsi
 483 02e5 4889C7   		movq	%rax, %rdi
 484 02e8 E8000000 		call	_ZN8UnitTest11TestDetailsC1ERKS0_i@PLT
 484      00
 485              		.loc 4 44 2 is_stmt 0 discriminator 4
 486 02ed 48C78570 		movq	$4096, -144(%rbp)
 486      FFFFFF00 
 486      100000
 487 02f8 E8000000 		call	_ZN8UnitTest11CurrentTest7ResultsEv@PLT
 487      00
 488 02fd 488B00   		movq	(%rax), %rax
 489 0300 488D55C0 		leaq	-64(%rbp), %rdx
 490 0304 488D4DA0 		leaq	-96(%rbp), %rcx
 491 0308 488D7910 		leaq	16(%rcx), %rdi
 492 030c 488DB570 		leaq	-144(%rbp), %rsi
 492      FFFFFF
 493 0313 4889D1   		movq	%rdx, %rcx
 494 0316 4889FA   		movq	%rdi, %rdx
 495 0319 4889C7   		movq	%rax, %rdi
 496 031c E8000000 		call	_ZN8UnitTest10CheckEqualImmEEvRNS_11TestResultsERKT_RKT0_RKNS_11TestDetailsE
 496      00
 497              	.LEHE14:
 498              	.L35:
 499              	.LEHB15:
  45:testHexIO.cpp **** 	CHECK_ARRAY_EQUAL(expected, data.data + 0x0BE1, 4);
 500              		.loc 4 45 2 is_stmt 1
 501 0321 E8000000 		call	_ZN8UnitTest11CurrentTest7DetailsEv@PLT
 501      00
 502 0326 488B08   		movq	(%rax), %rcx
 503 0329 488D45C0 		leaq	-64(%rbp), %rax
 504 032d BA2D0000 		movl	$45, %edx
 504      00
 505 0332 4889CE   		movq	%rcx, %rsi
 506 0335 4889C7   		movq	%rax, %rdi
 507 0338 E8000000 		call	_ZN8UnitTest11TestDetailsC1ERKS0_i@PLT
 507      00
 508              		.loc 4 45 2 is_stmt 0 discriminator 4
 509 033d 488B4580 		movq	-128(%rbp), %rax
 510 0341 4805E10B 		addq	$3041, %rax
 510      0000
 511 0347 48898570 		movq	%rax, -144(%rbp)
 511      FFFFFF
 512 034e E8000000 		call	_ZN8UnitTest11CurrentTest7ResultsEv@PLT
 512      00
 513 0353 488B00   		movq	(%rax), %rax
 514 0356 488D4DC0 		leaq	-64(%rbp), %rcx
 515 035a 488D9570 		leaq	-144(%rbp), %rdx
 515      FFFFFF
 516 0361 488D75E4 		leaq	-28(%rbp), %rsi
 517 0365 4989C8   		movq	%rcx, %r8
 518 0368 B9040000 		movl	$4, %ecx
 518      00
 519 036d 4889C7   		movq	%rax, %rdi
 520 0370 E8000000 		call	_ZN8UnitTest15CheckArrayEqualIA4_hPhEEvRNS_11TestResultsERKT_RKT0_iRKNS_11TestDetailsE
 520      00
 521              	.LEHE15:
 522              	.L38:
  46:testHexIO.cpp **** 	bufDestroy(&mask);
 523              		.loc 4 46 12 is_stmt 1
 524 0375 488D45A0 		leaq	-96(%rbp), %rax
 525 0379 4889C7   		movq	%rax, %rdi
 526              	.LEHB16:
 527 037c E8000000 		call	bufDestroy@PLT
 527      00
  47:testHexIO.cpp **** 	bufDestroy(&data);
 528              		.loc 4 47 12
 529 0381 488D4580 		leaq	-128(%rbp), %rax
 530 0385 4889C7   		movq	%rax, %rdi
 531 0388 E8000000 		call	bufDestroy@PLT
 531      00
 532              	.LEHE16:
  48:testHexIO.cpp **** }
 533              		.loc 4 48 1
 534 038d 90       		nop
 535 038e 488B45E8 		movq	-24(%rbp), %rax
 536 0392 64482B04 		subq	%fs:40, %rax
 536      25280000 
 536      00
 537 039b 0F84A903 		je	.L40
 537      0000
 538 03a1 E99F0300 		jmp	.L59
 538      00
 539              	.L41:
 540 03a6 F30F1EFA 		endbr64
  35:testHexIO.cpp **** 	status = bufInitialise(&mask, 1024, 0x00, NULL);
 541              		.loc 4 35 2
 542 03aa 4889C7   		movq	%rax, %rdi
 543 03ad E8000000 		call	__cxa_begin_catch@PLT
 543      00
 544              	.LEHB17:
 545 03b2 E8000000 		call	_ZN8UnitTest11CurrentTest7ResultsEv@PLT
 545      00
  35:testHexIO.cpp **** 	status = bufInitialise(&mask, 1024, 0x00, NULL);
 546              		.loc 4 35 2 is_stmt 0 discriminator 3
 547 03b7 488B18   		movq	(%rax), %rbx
 548 03ba E8000000 		call	_ZN8UnitTest11CurrentTest7DetailsEv@PLT
 548      00
  35:testHexIO.cpp **** 	status = bufInitialise(&mask, 1024, 0x00, NULL);
 549              		.loc 4 35 2 discriminator 11
 550 03bf 488B08   		movq	(%rax), %rcx
 551 03c2 488D45C0 		leaq	-64(%rbp), %rax
 552 03c6 BA230000 		movl	$35, %edx
 552      00
 553 03cb 4889CE   		movq	%rcx, %rsi
 554 03ce 4889C7   		movq	%rax, %rdi
 555 03d1 E8000000 		call	_ZN8UnitTest11TestDetailsC1ERKS0_i@PLT
 555      00
  35:testHexIO.cpp **** 	status = bufInitialise(&mask, 1024, 0x00, NULL);
 556              		.loc 4 35 2 discriminator 15
 557 03d6 488D45C0 		leaq	-64(%rbp), %rax
 558 03da 488D1500 		leaq	.LC4(%rip), %rdx
 558      000000
 559 03e1 4889C6   		movq	%rax, %rsi
 560 03e4 4889DF   		movq	%rbx, %rdi
 561 03e7 E8000000 		call	_ZN8UnitTest11TestResults13OnTestFailureERKNS_11TestDetailsEPKc@PLT
 561      00
 562              	.LEHE17:
 563              	.LEHB18:
  35:testHexIO.cpp **** 	status = bufInitialise(&mask, 1024, 0x00, NULL);
 564              		.loc 4 35 2 discriminator 17
 565 03ec E8000000 		call	__cxa_end_catch@PLT
 565      00
 566              	.LEHE18:
 567 03f1 E9B2FCFF 		jmp	.L14
 567      FF
 568              	.L42:
 569 03f6 F30F1EFA 		endbr64
  35:testHexIO.cpp **** 	status = bufInitialise(&mask, 1024, 0x00, NULL);
 570              		.loc 4 35 2
 571 03fa 4889C3   		movq	%rax, %rbx
 572 03fd E8000000 		call	__cxa_end_catch@PLT
 572      00
 573 0402 4889D8   		movq	%rbx, %rax
 574 0405 4889C7   		movq	%rax, %rdi
 575              	.LEHB19:
 576 0408 E8000000 		call	_Unwind_Resume@PLT
 576      00
 577              	.LEHE19:
 578              	.L43:
 579 040d F30F1EFA 		endbr64
  37:testHexIO.cpp **** 	status = bufProcessLine(line, 0, &data, &mask, &seg, &recordType, NULL);
 580              		.loc 4 37 2 is_stmt 1
 581 0411 4889C7   		movq	%rax, %rdi
 582 0414 E8000000 		call	__cxa_begin_catch@PLT
 582      00
 583              	.LEHB20:
 584 0419 E8000000 		call	_ZN8UnitTest11CurrentTest7ResultsEv@PLT
 584      00
  37:testHexIO.cpp **** 	status = bufProcessLine(line, 0, &data, &mask, &seg, &recordType, NULL);
 585              		.loc 4 37 2 is_stmt 0 discriminator 3
 586 041e 488B18   		movq	(%rax), %rbx
 587 0421 E8000000 		call	_ZN8UnitTest11CurrentTest7DetailsEv@PLT
 587      00
  37:testHexIO.cpp **** 	status = bufProcessLine(line, 0, &data, &mask, &seg, &recordType, NULL);
 588              		.loc 4 37 2 discriminator 11
 589 0426 488B08   		movq	(%rax), %rcx
 590 0429 488D45C0 		leaq	-64(%rbp), %rax
 591 042d BA250000 		movl	$37, %edx
 591      00
 592 0432 4889CE   		movq	%rcx, %rsi
 593 0435 4889C7   		movq	%rax, %rdi
 594 0438 E8000000 		call	_ZN8UnitTest11TestDetailsC1ERKS0_i@PLT
 594      00
  37:testHexIO.cpp **** 	status = bufProcessLine(line, 0, &data, &mask, &seg, &recordType, NULL);
 595              		.loc 4 37 2 discriminator 15
 596 043d 488D45C0 		leaq	-64(%rbp), %rax
 597 0441 488D1500 		leaq	.LC4(%rip), %rdx
 597      000000
 598 0448 4889C6   		movq	%rax, %rsi
 599 044b 4889DF   		movq	%rbx, %rdi
 600 044e E8000000 		call	_ZN8UnitTest11TestResults13OnTestFailureERKNS_11TestDetailsEPKc@PLT
 600      00
 601              	.LEHE20:
 602              	.LEHB21:
  37:testHexIO.cpp **** 	status = bufProcessLine(line, 0, &data, &mask, &seg, &recordType, NULL);
 603              		.loc 4 37 2 discriminator 17
 604 0453 E8000000 		call	__cxa_end_catch@PLT
 604      00
 605              	.LEHE21:
 606 0458 E9B4FCFF 		jmp	.L17
 606      FF
 607              	.L44:
 608 045d F30F1EFA 		endbr64
  37:testHexIO.cpp **** 	status = bufProcessLine(line, 0, &data, &mask, &seg, &recordType, NULL);
 609              		.loc 4 37 2
 610 0461 4889C3   		movq	%rax, %rbx
 611 0464 E8000000 		call	__cxa_end_catch@PLT
 611      00
 612 0469 4889D8   		movq	%rbx, %rax
 613 046c 4889C7   		movq	%rax, %rdi
 614              	.LEHB22:
 615 046f E8000000 		call	_Unwind_Resume@PLT
 615      00
 616              	.LEHE22:
 617              	.L45:
 618 0474 F30F1EFA 		endbr64
  39:testHexIO.cpp **** 	CHECK_EQUAL(0x00, recordType);
 619              		.loc 4 39 2 is_stmt 1
 620 0478 4889C7   		movq	%rax, %rdi
 621 047b E8000000 		call	__cxa_begin_catch@PLT
 621      00
 622              	.LEHB23:
 623 0480 E8000000 		call	_ZN8UnitTest11CurrentTest7ResultsEv@PLT
 623      00
  39:testHexIO.cpp **** 	CHECK_EQUAL(0x00, recordType);
 624              		.loc 4 39 2 is_stmt 0 discriminator 3
 625 0485 488B18   		movq	(%rax), %rbx
 626 0488 E8000000 		call	_ZN8UnitTest11CurrentTest7DetailsEv@PLT
 626      00
  39:testHexIO.cpp **** 	CHECK_EQUAL(0x00, recordType);
 627              		.loc 4 39 2 discriminator 11
 628 048d 488B08   		movq	(%rax), %rcx
 629 0490 488D45C0 		leaq	-64(%rbp), %rax
 630 0494 BA270000 		movl	$39, %edx
 630      00
 631 0499 4889CE   		movq	%rcx, %rsi
 632 049c 4889C7   		movq	%rax, %rdi
 633 049f E8000000 		call	_ZN8UnitTest11TestDetailsC1ERKS0_i@PLT
 633      00
  39:testHexIO.cpp **** 	CHECK_EQUAL(0x00, recordType);
 634              		.loc 4 39 2 discriminator 15
 635 04a4 488D45C0 		leaq	-64(%rbp), %rax
 636 04a8 488D1500 		leaq	.LC4(%rip), %rdx
 636      000000
 637 04af 4889C6   		movq	%rax, %rsi
 638 04b2 4889DF   		movq	%rbx, %rdi
 639 04b5 E8000000 		call	_ZN8UnitTest11TestResults13OnTestFailureERKNS_11TestDetailsEPKc@PLT
 639      00
 640              	.LEHE23:
 641              	.LEHB24:
  39:testHexIO.cpp **** 	CHECK_EQUAL(0x00, recordType);
 642              		.loc 4 39 2 discriminator 17
 643 04ba E8000000 		call	__cxa_end_catch@PLT
 643      00
 644              	.LEHE24:
 645 04bf E9D5FCFF 		jmp	.L20
 645      FF
 646              	.L46:
 647 04c4 F30F1EFA 		endbr64
  39:testHexIO.cpp **** 	CHECK_EQUAL(0x00, recordType);
 648              		.loc 4 39 2
 649 04c8 4889C3   		movq	%rax, %rbx
 650 04cb E8000000 		call	__cxa_end_catch@PLT
 650      00
 651 04d0 4889D8   		movq	%rbx, %rax
 652 04d3 4889C7   		movq	%rax, %rdi
 653              	.LEHB25:
 654 04d6 E8000000 		call	_Unwind_Resume@PLT
 654      00
 655              	.LEHE25:
 656              	.L47:
 657 04db F30F1EFA 		endbr64
  40:testHexIO.cpp **** 	CHECK_EQUAL(0x0BE1+4UL, data.length);
 658              		.loc 4 40 2 is_stmt 1
 659 04df 4889C7   		movq	%rax, %rdi
 660 04e2 E8000000 		call	__cxa_begin_catch@PLT
 660      00
 661              	.LEHB26:
 662 04e7 E8000000 		call	_ZN8UnitTest11CurrentTest7ResultsEv@PLT
 662      00
  40:testHexIO.cpp **** 	CHECK_EQUAL(0x0BE1+4UL, data.length);
 663              		.loc 4 40 2 is_stmt 0 discriminator 3
 664 04ec 488B18   		movq	(%rax), %rbx
 665 04ef E8000000 		call	_ZN8UnitTest11CurrentTest7DetailsEv@PLT
 665      00
  40:testHexIO.cpp **** 	CHECK_EQUAL(0x0BE1+4UL, data.length);
 666              		.loc 4 40 2 discriminator 11
 667 04f4 488B08   		movq	(%rax), %rcx
 668 04f7 488D45C0 		leaq	-64(%rbp), %rax
 669 04fb BA280000 		movl	$40, %edx
 669      00
 670 0500 4889CE   		movq	%rcx, %rsi
 671 0503 4889C7   		movq	%rax, %rdi
 672 0506 E8000000 		call	_ZN8UnitTest11TestDetailsC1ERKS0_i@PLT
 672      00
  40:testHexIO.cpp **** 	CHECK_EQUAL(0x0BE1+4UL, data.length);
 673              		.loc 4 40 2 discriminator 15
 674 050b 488D45C0 		leaq	-64(%rbp), %rax
 675 050f 488D1500 		leaq	.LC5(%rip), %rdx
 675      000000
 676 0516 4889C6   		movq	%rax, %rsi
 677 0519 4889DF   		movq	%rbx, %rdi
 678 051c E8000000 		call	_ZN8UnitTest11TestResults13OnTestFailureERKNS_11TestDetailsEPKc@PLT
 678      00
 679              	.LEHE26:
 680              	.LEHB27:
  40:testHexIO.cpp **** 	CHECK_EQUAL(0x0BE1+4UL, data.length);
 681              		.loc 4 40 2 discriminator 17
 682 0521 E8000000 		call	__cxa_end_catch@PLT
 682      00
 683              	.LEHE27:
 684 0526 E9B6FCFF 		jmp	.L23
 684      FF
 685              	.L48:
 686 052b F30F1EFA 		endbr64
  40:testHexIO.cpp **** 	CHECK_EQUAL(0x0BE1+4UL, data.length);
 687              		.loc 4 40 2
 688 052f 4889C3   		movq	%rax, %rbx
 689 0532 E8000000 		call	__cxa_end_catch@PLT
 689      00
 690 0537 4889D8   		movq	%rbx, %rax
 691 053a 4889C7   		movq	%rax, %rdi
 692              	.LEHB28:
 693 053d E8000000 		call	_Unwind_Resume@PLT
 693      00
 694              	.LEHE28:
 695              	.L49:
 696 0542 F30F1EFA 		endbr64
  41:testHexIO.cpp **** 	CHECK_EQUAL(0x0BE1+4UL, mask.length);
 697              		.loc 4 41 2 is_stmt 1
 698 0546 4889C7   		movq	%rax, %rdi
 699 0549 E8000000 		call	__cxa_begin_catch@PLT
 699      00
 700              	.LEHB29:
 701 054e E8000000 		call	_ZN8UnitTest11CurrentTest7ResultsEv@PLT
 701      00
  41:testHexIO.cpp **** 	CHECK_EQUAL(0x0BE1+4UL, mask.length);
 702              		.loc 4 41 2 is_stmt 0 discriminator 3
 703 0553 488B18   		movq	(%rax), %rbx
 704 0556 E8000000 		call	_ZN8UnitTest11CurrentTest7DetailsEv@PLT
 704      00
  41:testHexIO.cpp **** 	CHECK_EQUAL(0x0BE1+4UL, mask.length);
 705              		.loc 4 41 2 discriminator 11
 706 055b 488B08   		movq	(%rax), %rcx
 707 055e 488D45C0 		leaq	-64(%rbp), %rax
 708 0562 BA290000 		movl	$41, %edx
 708      00
 709 0567 4889CE   		movq	%rcx, %rsi
 710 056a 4889C7   		movq	%rax, %rdi
 711 056d E8000000 		call	_ZN8UnitTest11TestDetailsC1ERKS0_i@PLT
 711      00
  41:testHexIO.cpp **** 	CHECK_EQUAL(0x0BE1+4UL, mask.length);
 712              		.loc 4 41 2 discriminator 15
 713 0572 488D45C0 		leaq	-64(%rbp), %rax
 714 0576 488D1500 		leaq	.LC6(%rip), %rdx
 714      000000
 715 057d 4889C6   		movq	%rax, %rsi
 716 0580 4889DF   		movq	%rbx, %rdi
 717 0583 E8000000 		call	_ZN8UnitTest11TestResults13OnTestFailureERKNS_11TestDetailsEPKc@PLT
 717      00
 718              	.LEHE29:
 719              	.LEHB30:
  41:testHexIO.cpp **** 	CHECK_EQUAL(0x0BE1+4UL, mask.length);
 720              		.loc 4 41 2 discriminator 17
 721 0588 E8000000 		call	__cxa_end_catch@PLT
 721      00
 722              	.LEHE30:
 723 058d E99FFCFF 		jmp	.L26
 723      FF
 724              	.L50:
 725 0592 F30F1EFA 		endbr64
  41:testHexIO.cpp **** 	CHECK_EQUAL(0x0BE1+4UL, mask.length);
 726              		.loc 4 41 2
 727 0596 4889C3   		movq	%rax, %rbx
 728 0599 E8000000 		call	__cxa_end_catch@PLT
 728      00
 729 059e 4889D8   		movq	%rbx, %rax
 730 05a1 4889C7   		movq	%rax, %rdi
 731              	.LEHB31:
 732 05a4 E8000000 		call	_Unwind_Resume@PLT
 732      00
 733              	.LEHE31:
 734              	.L51:
 735 05a9 F30F1EFA 		endbr64
  42:testHexIO.cpp **** 	CHECK_EQUAL(4096UL, data.capacity);
 736              		.loc 4 42 2 is_stmt 1
 737 05ad 4889C7   		movq	%rax, %rdi
 738 05b0 E8000000 		call	__cxa_begin_catch@PLT
 738      00
 739              	.LEHB32:
 740 05b5 E8000000 		call	_ZN8UnitTest11CurrentTest7ResultsEv@PLT
 740      00
  42:testHexIO.cpp **** 	CHECK_EQUAL(4096UL, data.capacity);
 741              		.loc 4 42 2 is_stmt 0 discriminator 3
 742 05ba 488B18   		movq	(%rax), %rbx
 743 05bd E8000000 		call	_ZN8UnitTest11CurrentTest7DetailsEv@PLT
 743      00
  42:testHexIO.cpp **** 	CHECK_EQUAL(4096UL, data.capacity);
 744              		.loc 4 42 2 discriminator 11
 745 05c2 488B08   		movq	(%rax), %rcx
 746 05c5 488D45C0 		leaq	-64(%rbp), %rax
 747 05c9 BA2A0000 		movl	$42, %edx
 747      00
 748 05ce 4889CE   		movq	%rcx, %rsi
 749 05d1 4889C7   		movq	%rax, %rdi
 750 05d4 E8000000 		call	_ZN8UnitTest11TestDetailsC1ERKS0_i@PLT
 750      00
  42:testHexIO.cpp **** 	CHECK_EQUAL(4096UL, data.capacity);
 751              		.loc 4 42 2 discriminator 15
 752 05d9 488D45C0 		leaq	-64(%rbp), %rax
 753 05dd 488D1500 		leaq	.LC7(%rip), %rdx
 753      000000
 754 05e4 4889C6   		movq	%rax, %rsi
 755 05e7 4889DF   		movq	%rbx, %rdi
 756 05ea E8000000 		call	_ZN8UnitTest11TestResults13OnTestFailureERKNS_11TestDetailsEPKc@PLT
 756      00
 757              	.LEHE32:
 758              	.LEHB33:
  42:testHexIO.cpp **** 	CHECK_EQUAL(4096UL, data.capacity);
 759              		.loc 4 42 2 discriminator 17
 760 05ef E8000000 		call	__cxa_end_catch@PLT
 760      00
 761              	.LEHE33:
 762 05f4 E988FCFF 		jmp	.L29
 762      FF
 763              	.L52:
 764 05f9 F30F1EFA 		endbr64
  42:testHexIO.cpp **** 	CHECK_EQUAL(4096UL, data.capacity);
 765              		.loc 4 42 2
 766 05fd 4889C3   		movq	%rax, %rbx
 767 0600 E8000000 		call	__cxa_end_catch@PLT
 767      00
 768 0605 4889D8   		movq	%rbx, %rax
 769 0608 4889C7   		movq	%rax, %rdi
 770              	.LEHB34:
 771 060b E8000000 		call	_Unwind_Resume@PLT
 771      00
 772              	.LEHE34:
 773              	.L53:
 774 0610 F30F1EFA 		endbr64
  43:testHexIO.cpp **** 	CHECK_EQUAL(4096UL, mask.capacity);
 775              		.loc 4 43 2 is_stmt 1
 776 0614 4889C7   		movq	%rax, %rdi
 777 0617 E8000000 		call	__cxa_begin_catch@PLT
 777      00
 778              	.LEHB35:
 779 061c E8000000 		call	_ZN8UnitTest11CurrentTest7ResultsEv@PLT
 779      00
  43:testHexIO.cpp **** 	CHECK_EQUAL(4096UL, mask.capacity);
 780              		.loc 4 43 2 is_stmt 0 discriminator 3
 781 0621 488B18   		movq	(%rax), %rbx
 782 0624 E8000000 		call	_ZN8UnitTest11CurrentTest7DetailsEv@PLT
 782      00
  43:testHexIO.cpp **** 	CHECK_EQUAL(4096UL, mask.capacity);
 783              		.loc 4 43 2 discriminator 11
 784 0629 488B08   		movq	(%rax), %rcx
 785 062c 488D45C0 		leaq	-64(%rbp), %rax
 786 0630 BA2B0000 		movl	$43, %edx
 786      00
 787 0635 4889CE   		movq	%rcx, %rsi
 788 0638 4889C7   		movq	%rax, %rdi
 789 063b E8000000 		call	_ZN8UnitTest11TestDetailsC1ERKS0_i@PLT
 789      00
  43:testHexIO.cpp **** 	CHECK_EQUAL(4096UL, mask.capacity);
 790              		.loc 4 43 2 discriminator 15
 791 0640 488D45C0 		leaq	-64(%rbp), %rax
 792 0644 488D1500 		leaq	.LC8(%rip), %rdx
 792      000000
 793 064b 4889C6   		movq	%rax, %rsi
 794 064e 4889DF   		movq	%rbx, %rdi
 795 0651 E8000000 		call	_ZN8UnitTest11TestResults13OnTestFailureERKNS_11TestDetailsEPKc@PLT
 795      00
 796              	.LEHE35:
 797              	.LEHB36:
  43:testHexIO.cpp **** 	CHECK_EQUAL(4096UL, mask.capacity);
 798              		.loc 4 43 2 discriminator 17
 799 0656 E8000000 		call	__cxa_end_catch@PLT
 799      00
 800              	.LEHE36:
 801 065b E971FCFF 		jmp	.L32
 801      FF
 802              	.L54:
 803 0660 F30F1EFA 		endbr64
  43:testHexIO.cpp **** 	CHECK_EQUAL(4096UL, mask.capacity);
 804              		.loc 4 43 2
 805 0664 4889C3   		movq	%rax, %rbx
 806 0667 E8000000 		call	__cxa_end_catch@PLT
 806      00
 807 066c 4889D8   		movq	%rbx, %rax
 808 066f 4889C7   		movq	%rax, %rdi
 809              	.LEHB37:
 810 0672 E8000000 		call	_Unwind_Resume@PLT
 810      00
 811              	.LEHE37:
 812              	.L55:
 813 0677 F30F1EFA 		endbr64
  44:testHexIO.cpp **** 	CHECK_ARRAY_EQUAL(expected, data.data + 0x0BE1, 4);
 814              		.loc 4 44 2 is_stmt 1
 815 067b 4889C7   		movq	%rax, %rdi
 816 067e E8000000 		call	__cxa_begin_catch@PLT
 816      00
 817              	.LEHB38:
 818 0683 E8000000 		call	_ZN8UnitTest11CurrentTest7ResultsEv@PLT
 818      00
  44:testHexIO.cpp **** 	CHECK_ARRAY_EQUAL(expected, data.data + 0x0BE1, 4);
 819              		.loc 4 44 2 is_stmt 0 discriminator 3
 820 0688 488B18   		movq	(%rax), %rbx
 821 068b E8000000 		call	_ZN8UnitTest11CurrentTest7DetailsEv@PLT
 821      00
  44:testHexIO.cpp **** 	CHECK_ARRAY_EQUAL(expected, data.data + 0x0BE1, 4);
 822              		.loc 4 44 2 discriminator 11
 823 0690 488B08   		movq	(%rax), %rcx
 824 0693 488D45C0 		leaq	-64(%rbp), %rax
 825 0697 BA2C0000 		movl	$44, %edx
 825      00
 826 069c 4889CE   		movq	%rcx, %rsi
 827 069f 4889C7   		movq	%rax, %rdi
 828 06a2 E8000000 		call	_ZN8UnitTest11TestDetailsC1ERKS0_i@PLT
 828      00
  44:testHexIO.cpp **** 	CHECK_ARRAY_EQUAL(expected, data.data + 0x0BE1, 4);
 829              		.loc 4 44 2 discriminator 15
 830 06a7 488D45C0 		leaq	-64(%rbp), %rax
 831 06ab 488D1500 		leaq	.LC9(%rip), %rdx
 831      000000
 832 06b2 4889C6   		movq	%rax, %rsi
 833 06b5 4889DF   		movq	%rbx, %rdi
 834 06b8 E8000000 		call	_ZN8UnitTest11TestResults13OnTestFailureERKNS_11TestDetailsEPKc@PLT
 834      00
 835              	.LEHE38:
 836              	.LEHB39:
  44:testHexIO.cpp **** 	CHECK_ARRAY_EQUAL(expected, data.data + 0x0BE1, 4);
 837              		.loc 4 44 2 discriminator 17
 838 06bd E8000000 		call	__cxa_end_catch@PLT
 838      00
 839              	.LEHE39:
 840 06c2 E95AFCFF 		jmp	.L35
 840      FF
 841              	.L56:
 842 06c7 F30F1EFA 		endbr64
  44:testHexIO.cpp **** 	CHECK_ARRAY_EQUAL(expected, data.data + 0x0BE1, 4);
 843              		.loc 4 44 2
 844 06cb 4889C3   		movq	%rax, %rbx
 845 06ce E8000000 		call	__cxa_end_catch@PLT
 845      00
 846 06d3 4889D8   		movq	%rbx, %rax
 847 06d6 4889C7   		movq	%rax, %rdi
 848              	.LEHB40:
 849 06d9 E8000000 		call	_Unwind_Resume@PLT
 849      00
 850              	.LEHE40:
 851              	.L57:
 852 06de F30F1EFA 		endbr64
  45:testHexIO.cpp **** 	bufDestroy(&mask);
 853              		.loc 4 45 2 is_stmt 1
 854 06e2 4889C7   		movq	%rax, %rdi
 855 06e5 E8000000 		call	__cxa_begin_catch@PLT
 855      00
 856              	.LEHB41:
 857 06ea E8000000 		call	_ZN8UnitTest11CurrentTest7ResultsEv@PLT
 857      00
  45:testHexIO.cpp **** 	bufDestroy(&mask);
 858              		.loc 4 45 2 is_stmt 0 discriminator 3
 859 06ef 488B18   		movq	(%rax), %rbx
 860 06f2 E8000000 		call	_ZN8UnitTest11CurrentTest7DetailsEv@PLT
 860      00
  45:testHexIO.cpp **** 	bufDestroy(&mask);
 861              		.loc 4 45 2 discriminator 11
 862 06f7 488B08   		movq	(%rax), %rcx
 863 06fa 488D45C0 		leaq	-64(%rbp), %rax
 864 06fe BA2D0000 		movl	$45, %edx
 864      00
 865 0703 4889CE   		movq	%rcx, %rsi
 866 0706 4889C7   		movq	%rax, %rdi
 867 0709 E8000000 		call	_ZN8UnitTest11TestDetailsC1ERKS0_i@PLT
 867      00
  45:testHexIO.cpp **** 	bufDestroy(&mask);
 868              		.loc 4 45 2 discriminator 15
 869 070e 488D45C0 		leaq	-64(%rbp), %rax
 870 0712 488D1500 		leaq	.LC10(%rip), %rdx
 870      000000
 871 0719 4889C6   		movq	%rax, %rsi
 872 071c 4889DF   		movq	%rbx, %rdi
 873 071f E8000000 		call	_ZN8UnitTest11TestResults13OnTestFailureERKNS_11TestDetailsEPKc@PLT
 873      00
 874              	.LEHE41:
 875              	.LEHB42:
  45:testHexIO.cpp **** 	bufDestroy(&mask);
 876              		.loc 4 45 2 discriminator 17
 877 0724 E8000000 		call	__cxa_end_catch@PLT
 877      00
 878              	.LEHE42:
 879 0729 E947FCFF 		jmp	.L38
 879      FF
 880              	.L58:
 881 072e F30F1EFA 		endbr64
  45:testHexIO.cpp **** 	bufDestroy(&mask);
 882              		.loc 4 45 2
 883 0732 4889C3   		movq	%rax, %rbx
 884 0735 E8000000 		call	__cxa_end_catch@PLT
 884      00
 885 073a 4889D8   		movq	%rbx, %rax
 886 073d 4889C7   		movq	%rax, %rdi
 887              	.LEHB43:
 888 0740 E8000000 		call	_Unwind_Resume@PLT
 888      00
 889              	.LEHE43:
 890              	.L59:
 891              		.loc 4 48 1 is_stmt 1
 892 0745 E8000000 		call	__stack_chk_fail@PLT
 892      00
 893              	.L40:
 894 074a 488B5DF8 		movq	-8(%rbp), %rbx
 895 074e C9       		leave
 896              		.cfi_def_cfa 7, 8
 897 074f C3       		ret
 898              		.cfi_endproc
 899              	.LFE1212:
 900              		.section	.gcc_except_table,"a",@progbits
 901              		.align 4
 902              	.LLSDA1212:
 903 0000 FF       		.byte	0xff
 904 0001 9B       		.byte	0x9b
 905 0002 E401     		.uleb128 .LLSDATT1212-.LLSDATTD1212
 906              	.LLSDATTD1212:
 907 0004 01       		.byte	0x1
 908 0005 D801     		.uleb128 .LLSDACSE1212-.LLSDACSB1212
 909              	.LLSDACSB1212:
 910 0007 5B       		.uleb128 .LEHB4-.LFB1212
 911 0008 05       		.uleb128 .LEHE4-.LEHB4
 912 0009 00       		.uleb128 0
 913 000a 00       		.uleb128 0
 914 000b 66       		.uleb128 .LEHB5-.LFB1212
 915 000c 42       		.uleb128 .LEHE5-.LEHB5
 916 000d A607     		.uleb128 .L41-.LFB1212
 917 000f 01       		.uleb128 0x1
 918 0010 BE01     		.uleb128 .LEHB6-.LFB1212
 919 0012 05       		.uleb128 .LEHE6-.LEHB6
 920 0013 00       		.uleb128 0
 921 0014 00       		.uleb128 0
 922 0015 C901     		.uleb128 .LEHB7-.LFB1212
 923 0017 48       		.uleb128 .LEHE7-.LEHB7
 924 0018 8D08     		.uleb128 .L43-.LFB1212
 925 001a 01       		.uleb128 0x1
 926 001b C202     		.uleb128 .LEHB8-.LFB1212
 927 001d 05       		.uleb128 .LEHE8-.LEHB8
 928 001e 00       		.uleb128 0
 929 001f 00       		.uleb128 0
 930 0020 D102     		.uleb128 .LEHB9-.LFB1212
 931 0022 48       		.uleb128 .LEHE9-.LEHB9
 932 0023 F408     		.uleb128 .L45-.LFB1212
 933 0025 01       		.uleb128 0x1
 934 0026 9903     		.uleb128 .LEHB10-.LFB1212
 935 0028 48       		.uleb128 .LEHE10-.LEHB10
 936 0029 DB09     		.uleb128 .L47-.LFB1212
 937 002b 01       		.uleb128 0x1
 938 002c E103     		.uleb128 .LEHB11-.LFB1212
 939 002e 50       		.uleb128 .LEHE11-.LEHB11
 940 002f C20A     		.uleb128 .L49-.LFB1212
 941 0031 01       		.uleb128 0x1
 942 0032 B104     		.uleb128 .LEHB12-.LFB1212
 943 0034 50       		.uleb128 .LEHE12-.LEHB12
 944 0035 A90B     		.uleb128 .L51-.LFB1212
 945 0037 01       		.uleb128 0x1
 946 0038 8105     		.uleb128 .LEHB13-.LFB1212
 947 003a 50       		.uleb128 .LEHE13-.LEHB13
 948 003b 900C     		.uleb128 .L53-.LFB1212
 949 003d 01       		.uleb128 0x1
 950 003e D105     		.uleb128 .LEHB14-.LFB1212
 951 0040 50       		.uleb128 .LEHE14-.LEHB14
 952 0041 F70C     		.uleb128 .L55-.LFB1212
 953 0043 01       		.uleb128 0x1
 954 0044 A106     		.uleb128 .LEHB15-.LFB1212
 955 0046 54       		.uleb128 .LEHE15-.LEHB15
 956 0047 DE0D     		.uleb128 .L57-.LFB1212
 957 0049 01       		.uleb128 0x1
 958 004a FC06     		.uleb128 .LEHB16-.LFB1212
 959 004c 11       		.uleb128 .LEHE16-.LEHB16
 960 004d 00       		.uleb128 0
 961 004e 00       		.uleb128 0
 962 004f B207     		.uleb128 .LEHB17-.LFB1212
 963 0051 3A       		.uleb128 .LEHE17-.LEHB17
 964 0052 F607     		.uleb128 .L42-.LFB1212
 965 0054 00       		.uleb128 0
 966 0055 EC07     		.uleb128 .LEHB18-.LFB1212
 967 0057 05       		.uleb128 .LEHE18-.LEHB18
 968 0058 00       		.uleb128 0
 969 0059 00       		.uleb128 0
 970 005a 8808     		.uleb128 .LEHB19-.LFB1212
 971 005c 05       		.uleb128 .LEHE19-.LEHB19
 972 005d 00       		.uleb128 0
 973 005e 00       		.uleb128 0
 974 005f 9908     		.uleb128 .LEHB20-.LFB1212
 975 0061 3A       		.uleb128 .LEHE20-.LEHB20
 976 0062 DD08     		.uleb128 .L44-.LFB1212
 977 0064 00       		.uleb128 0
 978 0065 D308     		.uleb128 .LEHB21-.LFB1212
 979 0067 05       		.uleb128 .LEHE21-.LEHB21
 980 0068 00       		.uleb128 0
 981 0069 00       		.uleb128 0
 982 006a EF08     		.uleb128 .LEHB22-.LFB1212
 983 006c 05       		.uleb128 .LEHE22-.LEHB22
 984 006d 00       		.uleb128 0
 985 006e 00       		.uleb128 0
 986 006f 8009     		.uleb128 .LEHB23-.LFB1212
 987 0071 3A       		.uleb128 .LEHE23-.LEHB23
 988 0072 C409     		.uleb128 .L46-.LFB1212
 989 0074 00       		.uleb128 0
 990 0075 BA09     		.uleb128 .LEHB24-.LFB1212
 991 0077 05       		.uleb128 .LEHE24-.LEHB24
 992 0078 00       		.uleb128 0
 993 0079 00       		.uleb128 0
 994 007a D609     		.uleb128 .LEHB25-.LFB1212
 995 007c 05       		.uleb128 .LEHE25-.LEHB25
 996 007d 00       		.uleb128 0
 997 007e 00       		.uleb128 0
 998 007f E709     		.uleb128 .LEHB26-.LFB1212
 999 0081 3A       		.uleb128 .LEHE26-.LEHB26
 1000 0082 AB0A     		.uleb128 .L48-.LFB1212
 1001 0084 00       		.uleb128 0
 1002 0085 A10A     		.uleb128 .LEHB27-.LFB1212
 1003 0087 05       		.uleb128 .LEHE27-.LEHB27
 1004 0088 00       		.uleb128 0
 1005 0089 00       		.uleb128 0
 1006 008a BD0A     		.uleb128 .LEHB28-.LFB1212
 1007 008c 05       		.uleb128 .LEHE28-.LEHB28
 1008 008d 00       		.uleb128 0
 1009 008e 00       		.uleb128 0
 1010 008f CE0A     		.uleb128 .LEHB29-.LFB1212
 1011 0091 3A       		.uleb128 .LEHE29-.LEHB29
 1012 0092 920B     		.uleb128 .L50-.LFB1212
 1013 0094 00       		.uleb128 0
 1014 0095 880B     		.uleb128 .LEHB30-.LFB1212
 1015 0097 05       		.uleb128 .LEHE30-.LEHB30
 1016 0098 00       		.uleb128 0
 1017 0099 00       		.uleb128 0
 1018 009a A40B     		.uleb128 .LEHB31-.LFB1212
 1019 009c 05       		.uleb128 .LEHE31-.LEHB31
 1020 009d 00       		.uleb128 0
 1021 009e 00       		.uleb128 0
 1022 009f B50B     		.uleb128 .LEHB32-.LFB1212
 1023 00a1 3A       		.uleb128 .LEHE32-.LEHB32
 1024 00a2 F90B     		.uleb128 .L52-.LFB1212
 1025 00a4 00       		.uleb128 0
 1026 00a5 EF0B     		.uleb128 .LEHB33-.LFB1212
 1027 00a7 05       		.uleb128 .LEHE33-.LEHB33
 1028 00a8 00       		.uleb128 0
 1029 00a9 00       		.uleb128 0
 1030 00aa 8B0C     		.uleb128 .LEHB34-.LFB1212
 1031 00ac 05       		.uleb128 .LEHE34-.LEHB34
 1032 00ad 00       		.uleb128 0
 1033 00ae 00       		.uleb128 0
 1034 00af 9C0C     		.uleb128 .LEHB35-.LFB1212
 1035 00b1 3A       		.uleb128 .LEHE35-.LEHB35
 1036 00b2 E00C     		.uleb128 .L54-.LFB1212
 1037 00b4 00       		.uleb128 0
 1038 00b5 D60C     		.uleb128 .LEHB36-.LFB1212
 1039 00b7 05       		.uleb128 .LEHE36-.LEHB36
 1040 00b8 00       		.uleb128 0
 1041 00b9 00       		.uleb128 0
 1042 00ba F20C     		.uleb128 .LEHB37-.LFB1212
 1043 00bc 05       		.uleb128 .LEHE37-.LEHB37
 1044 00bd 00       		.uleb128 0
 1045 00be 00       		.uleb128 0
 1046 00bf 830D     		.uleb128 .LEHB38-.LFB1212
 1047 00c1 3A       		.uleb128 .LEHE38-.LEHB38
 1048 00c2 C70D     		.uleb128 .L56-.LFB1212
 1049 00c4 00       		.uleb128 0
 1050 00c5 BD0D     		.uleb128 .LEHB39-.LFB1212
 1051 00c7 05       		.uleb128 .LEHE39-.LEHB39
 1052 00c8 00       		.uleb128 0
 1053 00c9 00       		.uleb128 0
 1054 00ca D90D     		.uleb128 .LEHB40-.LFB1212
 1055 00cc 05       		.uleb128 .LEHE40-.LEHB40
 1056 00cd 00       		.uleb128 0
 1057 00ce 00       		.uleb128 0
 1058 00cf EA0D     		.uleb128 .LEHB41-.LFB1212
 1059 00d1 3A       		.uleb128 .LEHE41-.LEHB41
 1060 00d2 AE0E     		.uleb128 .L58-.LFB1212
 1061 00d4 00       		.uleb128 0
 1062 00d5 A40E     		.uleb128 .LEHB42-.LFB1212
 1063 00d7 05       		.uleb128 .LEHE42-.LEHB42
 1064 00d8 00       		.uleb128 0
 1065 00d9 00       		.uleb128 0
 1066 00da C00E     		.uleb128 .LEHB43-.LFB1212
 1067 00dc 05       		.uleb128 .LEHE43-.LEHB43
 1068 00dd 00       		.uleb128 0
 1069 00de 00       		.uleb128 0
 1070              	.LLSDACSE1212:
 1071 00df 01       		.byte	0x1
 1072 00e0 00       		.byte	0
 1073 00e1 000000   		.align 4
 1074 00e4 00000000 		.long	0
 1075              	
 1076              	.LLSDATT1212:
 1077              		.text
 1079              		.section	.rodata
 1080              	.LC11:
 1081 01ff 48657849 		.string	"HexIO_testValidEOF"
 1081      4F5F7465 
 1081      73745661 
 1081      6C696445 
 1081      4F4600
 1082              		.section	.text._ZN22TestHexIO_testValidEOFC2Ev,"axG",@progbits,_ZN22TestHexIO_testValidEOFC5Ev,com
 1083              		.align 2
 1084              		.weak	_ZN22TestHexIO_testValidEOFC2Ev
 1086              	_ZN22TestHexIO_testValidEOFC2Ev:
 1087              	.LFB1214:
  49:testHexIO.cpp **** 
  50:testHexIO.cpp **** TEST(HexIO_testValidEOF) {
 1088              		.loc 4 50 1
 1089              		.cfi_startproc
 1090 0000 F30F1EFA 		endbr64
 1091 0004 55       		pushq	%rbp
 1092              		.cfi_def_cfa_offset 16
 1093              		.cfi_offset 6, -16
 1094 0005 4889E5   		movq	%rsp, %rbp
 1095              		.cfi_def_cfa_register 6
 1096 0008 53       		pushq	%rbx
 1097 0009 4883EC18 		subq	$24, %rsp
 1098              		.cfi_offset 3, -24
 1099 000d 48897DE8 		movq	%rdi, -24(%rbp)
 1100              	.LBB5:
 1101              		.loc 4 50 1
 1102 0011 488B5DE8 		movq	-24(%rbp), %rbx
 1103 0015 E8000000 		call	_ZN13UnitTestSuite12GetSuiteNameEv
 1103      00
 1104 001a 4889C2   		movq	%rax, %rdx
 1105 001d 41B83200 		movl	$50, %r8d
 1105      0000
 1106 0023 488D0500 		leaq	.LC1(%rip), %rax
 1106      000000
 1107 002a 4889C1   		movq	%rax, %rcx
 1108 002d 488D0500 		leaq	.LC11(%rip), %rax
 1108      000000
 1109 0034 4889C6   		movq	%rax, %rsi
 1110 0037 4889DF   		movq	%rbx, %rdi
 1111 003a E8000000 		call	_ZN8UnitTest4TestC2EPKcS2_S2_i@PLT
 1111      00
 1112 003f 488D1500 		leaq	16+_ZTV22TestHexIO_testValidEOF(%rip), %rdx
 1112      000000
 1113 0046 488B45E8 		movq	-24(%rbp), %rax
 1114 004a 488910   		movq	%rdx, (%rax)
 1115              	.LBE5:
 1116 004d 90       		nop
 1117 004e 488B5DF8 		movq	-8(%rbp), %rbx
 1118 0052 C9       		leave
 1119              		.cfi_def_cfa 7, 8
 1120 0053 C3       		ret
 1121              		.cfi_endproc
 1122              	.LFE1214:
 1124              		.weak	_ZN22TestHexIO_testValidEOFC1Ev
 1125              		.set	_ZN22TestHexIO_testValidEOFC1Ev,_ZN22TestHexIO_testValidEOFC2Ev
 1126              		.globl	testHexIO_testValidEOFInstance
 1127              		.bss
 1128 0039 00000000 		.align 32
 1128      000000
 1131              	testHexIO_testValidEOFInstance:
 1132 0040 00000000 		.zero	56
 1132      00000000 
 1132      00000000 
 1132      00000000 
 1132      00000000 
 1133              		.globl	adderHexIO_testValidEOF
 1136              	adderHexIO_testValidEOF:
 1137 0078 00       		.zero	1
 1138              		.section	.rodata
 1139              	.LC12:
 1140 0212 3A303030 		.string	":00000001FF\n"
 1140      30303030 
 1140      3146460A 
 1140      00
 1141 021f 00       		.align 8
 1142              	.LC13:
 1143 0220 556E6861 		.string	"Unhandled exception in CHECK_EQUAL(0x01, recordType)"
 1143      6E646C65 
 1143      64206578 
 1143      63657074 
 1143      696F6E20 
 1144 0255 000000   		.align 8
 1145              	.LC14:
 1146 0258 556E6861 		.string	"Unhandled exception in CHECK_EQUAL(0UL, data.length)"
 1146      6E646C65 
 1146      64206578 
 1146      63657074 
 1146      696F6E20 
 1147 028d 000000   		.align 8
 1148              	.LC15:
 1149 0290 556E6861 		.string	"Unhandled exception in CHECK_EQUAL(0UL, mask.length)"
 1149      6E646C65 
 1149      64206578 
 1149      63657074 
 1149      696F6E20 
 1150              		.text
 1151              		.align 2
 1152              		.globl	_ZNK22TestHexIO_testValidEOF7RunImplEv
 1154              	_ZNK22TestHexIO_testValidEOF7RunImplEv:
 1155              	.LFB1216:
 1156              		.loc 4 50 26
 1157              		.cfi_startproc
 1158              		.cfi_personality 0x9b,DW.ref.__gxx_personality_v0
 1159              		.cfi_lsda 0x1b,.LLSDA1216
 1160 0750 F30F1EFA 		endbr64
 1161 0754 55       		pushq	%rbp
 1162              		.cfi_def_cfa_offset 16
 1163              		.cfi_offset 6, -16
 1164 0755 4889E5   		movq	%rsp, %rbp
 1165              		.cfi_def_cfa_register 6
 1166 0758 53       		pushq	%rbx
 1167 0759 4881ECA8 		subq	$168, %rsp
 1167      000000
 1168              		.cfi_offset 3, -24
 1169 0760 4889BD58 		movq	%rdi, -168(%rbp)
 1169      FFFFFF
 1170              		.loc 4 50 26
 1171 0767 64488B04 		movq	%fs:40, %rax
 1171      25280000 
 1171      00
 1172 0770 488945E8 		movq	%rax, -24(%rbp)
 1173 0774 31C0     		xorl	%eax, %eax
  51:testHexIO.cpp **** 	Buffer data, mask;
  52:testHexIO.cpp **** 	BufferStatus status;
  53:testHexIO.cpp **** 	const char *line = ":00000001FF\n";
 1174              		.loc 4 53 14
 1175 0776 488D0500 		leaq	.LC12(%rip), %rax
 1175      000000
 1176 077d 48898578 		movq	%rax, -136(%rbp)
 1176      FFFFFF
  54:testHexIO.cpp **** 	uint8 recordType;
  55:testHexIO.cpp **** 	uint32 seg = 0x00000000;
 1177              		.loc 4 55 9
 1178 0784 C7856CFF 		movl	$0, -148(%rbp)
 1178      FFFF0000 
 1178      0000
  56:testHexIO.cpp **** 	status = bufInitialise(&data, 1024, 0x00, NULL);
 1179              		.loc 4 56 24
 1180 078e 488D4580 		leaq	-128(%rbp), %rax
 1181 0792 B9000000 		movl	$0, %ecx
 1181      00
 1182 0797 BA000000 		movl	$0, %edx
 1182      00
 1183 079c BE000400 		movl	$1024, %esi
 1183      00
 1184 07a1 4889C7   		movq	%rax, %rdi
 1185              	.LEHB44:
 1186 07a4 E8000000 		call	bufInitialise@PLT
 1186      00
 1187              	.LEHE44:
 1188              		.loc 4 56 9
 1189 07a9 898568FF 		movl	%eax, -152(%rbp)
 1189      FFFF
 1190              	.LEHB45:
  57:testHexIO.cpp **** 	CHECK_EQUAL(BUF_SUCCESS, status);
 1191              		.loc 4 57 2
 1192 07af E8000000 		call	_ZN8UnitTest11CurrentTest7DetailsEv@PLT
 1192      00
 1193 07b4 488B08   		movq	(%rax), %rcx
 1194 07b7 488D45C0 		leaq	-64(%rbp), %rax
 1195 07bb BA390000 		movl	$57, %edx
 1195      00
 1196 07c0 4889CE   		movq	%rcx, %rsi
 1197 07c3 4889C7   		movq	%rax, %rdi
 1198 07c6 E8000000 		call	_ZN8UnitTest11TestDetailsC1ERKS0_i@PLT
 1198      00
 1199              		.loc 4 57 2 is_stmt 0 discriminator 4
 1200 07cb C745A000 		movl	$0, -96(%rbp)
 1200      000000
 1201 07d2 E8000000 		call	_ZN8UnitTest11CurrentTest7ResultsEv@PLT
 1201      00
 1202 07d7 488B00   		movq	(%rax), %rax
 1203 07da 488D4DC0 		leaq	-64(%rbp), %rcx
 1204 07de 488D9568 		leaq	-152(%rbp), %rdx
 1204      FFFFFF
 1205 07e5 488D75A0 		leaq	-96(%rbp), %rsi
 1206 07e9 4889C7   		movq	%rax, %rdi
 1207 07ec E8000000 		call	_ZN8UnitTest10CheckEqualI12BufferStatusS1_EEvRNS_11TestResultsERKT_RKT0_RKNS_11TestDetailsE
 1207      00
 1208              	.LEHE45:
 1209              	.L63:
  58:testHexIO.cpp **** 	status = bufInitialise(&mask, 1024, 0x00, NULL);
 1210              		.loc 4 58 24 is_stmt 1
 1211 07f1 488D45A0 		leaq	-96(%rbp), %rax
 1212 07f5 B9000000 		movl	$0, %ecx
 1212      00
 1213 07fa BA000000 		movl	$0, %edx
 1213      00
 1214 07ff BE000400 		movl	$1024, %esi
 1214      00
 1215 0804 4889C7   		movq	%rax, %rdi
 1216              	.LEHB46:
 1217 0807 E8000000 		call	bufInitialise@PLT
 1217      00
 1218              	.LEHE46:
 1219              		.loc 4 58 9
 1220 080c 898568FF 		movl	%eax, -152(%rbp)
 1220      FFFF
 1221              	.LEHB47:
  59:testHexIO.cpp **** 	CHECK_EQUAL(BUF_SUCCESS, status);
 1222              		.loc 4 59 2
 1223 0812 E8000000 		call	_ZN8UnitTest11CurrentTest7DetailsEv@PLT
 1223      00
 1224 0817 488B08   		movq	(%rax), %rcx
 1225 081a 488D45C0 		leaq	-64(%rbp), %rax
 1226 081e BA3B0000 		movl	$59, %edx
 1226      00
 1227 0823 4889CE   		movq	%rcx, %rsi
 1228 0826 4889C7   		movq	%rax, %rdi
 1229 0829 E8000000 		call	_ZN8UnitTest11TestDetailsC1ERKS0_i@PLT
 1229      00
 1230              		.loc 4 59 2 is_stmt 0 discriminator 4
 1231 082e C78570FF 		movl	$0, -144(%rbp)
 1231      FFFF0000 
 1231      0000
 1232 0838 E8000000 		call	_ZN8UnitTest11CurrentTest7ResultsEv@PLT
 1232      00
 1233 083d 488B00   		movq	(%rax), %rax
 1234 0840 488D4DC0 		leaq	-64(%rbp), %rcx
 1235 0844 488D9568 		leaq	-152(%rbp), %rdx
 1235      FFFFFF
 1236 084b 488DB570 		leaq	-144(%rbp), %rsi
 1236      FFFFFF
 1237 0852 4889C7   		movq	%rax, %rdi
 1238 0855 E8000000 		call	_ZN8UnitTest10CheckEqualI12BufferStatusS1_EEvRNS_11TestResultsERKT_RKT0_RKNS_11TestDetailsE
 1238      00
 1239              	.LEHE47:
 1240              	.L66:
  60:testHexIO.cpp **** 	status = bufProcessLine(line, 0, &data, &mask, &seg, &recordType, NULL);
 1241              		.loc 4 60 25 is_stmt 1
 1242 085a 488DBD67 		leaq	-153(%rbp), %rdi
 1242      FFFFFF
 1243 0861 488DB56C 		leaq	-148(%rbp), %rsi
 1243      FFFFFF
 1244 0868 488D4DA0 		leaq	-96(%rbp), %rcx
 1245 086c 488D5580 		leaq	-128(%rbp), %rdx
 1246 0870 488B8578 		movq	-136(%rbp), %rax
 1246      FFFFFF
 1247 0877 4883EC08 		subq	$8, %rsp
 1248 087b 6A00     		pushq	$0
 1249 087d 4989F9   		movq	%rdi, %r9
 1250 0880 4989F0   		movq	%rsi, %r8
 1251 0883 BE000000 		movl	$0, %esi
 1251      00
 1252 0888 4889C7   		movq	%rax, %rdi
 1253              	.LEHB48:
 1254 088b E8000000 		call	bufProcessLine@PLT
 1254      00
 1255              	.LEHE48:
 1256 0890 4883C410 		addq	$16, %rsp
 1257              		.loc 4 60 9
 1258 0894 898568FF 		movl	%eax, -152(%rbp)
 1258      FFFF
 1259              	.LEHB49:
  61:testHexIO.cpp **** 	CHECK_EQUAL(BUF_SUCCESS, status);
 1260              		.loc 4 61 2
 1261 089a E8000000 		call	_ZN8UnitTest11CurrentTest7DetailsEv@PLT
 1261      00
 1262 089f 488B08   		movq	(%rax), %rcx
 1263 08a2 488D45C0 		leaq	-64(%rbp), %rax
 1264 08a6 BA3D0000 		movl	$61, %edx
 1264      00
 1265 08ab 4889CE   		movq	%rcx, %rsi
 1266 08ae 4889C7   		movq	%rax, %rdi
 1267 08b1 E8000000 		call	_ZN8UnitTest11TestDetailsC1ERKS0_i@PLT
 1267      00
 1268              		.loc 4 61 2 is_stmt 0 discriminator 4
 1269 08b6 C78570FF 		movl	$0, -144(%rbp)
 1269      FFFF0000 
 1269      0000
 1270 08c0 E8000000 		call	_ZN8UnitTest11CurrentTest7ResultsEv@PLT
 1270      00
 1271 08c5 488B00   		movq	(%rax), %rax
 1272 08c8 488D4DC0 		leaq	-64(%rbp), %rcx
 1273 08cc 488D9568 		leaq	-152(%rbp), %rdx
 1273      FFFFFF
 1274 08d3 488DB570 		leaq	-144(%rbp), %rsi
 1274      FFFFFF
 1275 08da 4889C7   		movq	%rax, %rdi
 1276 08dd E8000000 		call	_ZN8UnitTest10CheckEqualI12BufferStatusS1_EEvRNS_11TestResultsERKT_RKT0_RKNS_11TestDetailsE
 1276      00
 1277              	.LEHE49:
 1278              	.L69:
 1279              	.LEHB50:
  62:testHexIO.cpp **** 	CHECK_EQUAL(0x01, recordType);
 1280              		.loc 4 62 2 is_stmt 1
 1281 08e2 E8000000 		call	_ZN8UnitTest11CurrentTest7DetailsEv@PLT
 1281      00
 1282 08e7 488B08   		movq	(%rax), %rcx
 1283 08ea 488D45C0 		leaq	-64(%rbp), %rax
 1284 08ee BA3E0000 		movl	$62, %edx
 1284      00
 1285 08f3 4889CE   		movq	%rcx, %rsi
 1286 08f6 4889C7   		movq	%rax, %rdi
 1287 08f9 E8000000 		call	_ZN8UnitTest11TestDetailsC1ERKS0_i@PLT
 1287      00
 1288              		.loc 4 62 2 is_stmt 0 discriminator 4
 1289 08fe C78570FF 		movl	$1, -144(%rbp)
 1289      FFFF0100 
 1289      0000
 1290 0908 E8000000 		call	_ZN8UnitTest11CurrentTest7ResultsEv@PLT
 1290      00
 1291 090d 488B00   		movq	(%rax), %rax
 1292 0910 488D4DC0 		leaq	-64(%rbp), %rcx
 1293 0914 488D9567 		leaq	-153(%rbp), %rdx
 1293      FFFFFF
 1294 091b 488DB570 		leaq	-144(%rbp), %rsi
 1294      FFFFFF
 1295 0922 4889C7   		movq	%rax, %rdi
 1296 0925 E8000000 		call	_ZN8UnitTest10CheckEqualIihEEvRNS_11TestResultsERKT_RKT0_RKNS_11TestDetailsE
 1296      00
 1297              	.LEHE50:
 1298              	.L72:
 1299              	.LEHB51:
  63:testHexIO.cpp **** 	CHECK_EQUAL(0UL, data.length);
 1300              		.loc 4 63 2 is_stmt 1
 1301 092a E8000000 		call	_ZN8UnitTest11CurrentTest7DetailsEv@PLT
 1301      00
 1302 092f 488B08   		movq	(%rax), %rcx
 1303 0932 488D45C0 		leaq	-64(%rbp), %rax
 1304 0936 BA3F0000 		movl	$63, %edx
 1304      00
 1305 093b 4889CE   		movq	%rcx, %rsi
 1306 093e 4889C7   		movq	%rax, %rdi
 1307 0941 E8000000 		call	_ZN8UnitTest11TestDetailsC1ERKS0_i@PLT
 1307      00
 1308              		.loc 4 63 2 is_stmt 0 discriminator 4
 1309 0946 48C78570 		movq	$0, -144(%rbp)
 1309      FFFFFF00 
 1309      000000
 1310 0951 E8000000 		call	_ZN8UnitTest11CurrentTest7ResultsEv@PLT
 1310      00
 1311 0956 488B00   		movq	(%rax), %rax
 1312 0959 488D55C0 		leaq	-64(%rbp), %rdx
 1313 095d 488D4D80 		leaq	-128(%rbp), %rcx
 1314 0961 488D7908 		leaq	8(%rcx), %rdi
 1315 0965 488DB570 		leaq	-144(%rbp), %rsi
 1315      FFFFFF
 1316 096c 4889D1   		movq	%rdx, %rcx
 1317 096f 4889FA   		movq	%rdi, %rdx
 1318 0972 4889C7   		movq	%rax, %rdi
 1319 0975 E8000000 		call	_ZN8UnitTest10CheckEqualImmEEvRNS_11TestResultsERKT_RKT0_RKNS_11TestDetailsE
 1319      00
 1320              	.LEHE51:
 1321              	.L75:
 1322              	.LEHB52:
  64:testHexIO.cpp **** 	CHECK_EQUAL(0UL, mask.length);
 1323              		.loc 4 64 2 is_stmt 1
 1324 097a E8000000 		call	_ZN8UnitTest11CurrentTest7DetailsEv@PLT
 1324      00
 1325 097f 488B08   		movq	(%rax), %rcx
 1326 0982 488D45C0 		leaq	-64(%rbp), %rax
 1327 0986 BA400000 		movl	$64, %edx
 1327      00
 1328 098b 4889CE   		movq	%rcx, %rsi
 1329 098e 4889C7   		movq	%rax, %rdi
 1330 0991 E8000000 		call	_ZN8UnitTest11TestDetailsC1ERKS0_i@PLT
 1330      00
 1331              		.loc 4 64 2 is_stmt 0 discriminator 4
 1332 0996 48C78570 		movq	$0, -144(%rbp)
 1332      FFFFFF00 
 1332      000000
 1333 09a1 E8000000 		call	_ZN8UnitTest11CurrentTest7ResultsEv@PLT
 1333      00
 1334 09a6 488B00   		movq	(%rax), %rax
 1335 09a9 488D55C0 		leaq	-64(%rbp), %rdx
 1336 09ad 488D4DA0 		leaq	-96(%rbp), %rcx
 1337 09b1 488D7908 		leaq	8(%rcx), %rdi
 1338 09b5 488DB570 		leaq	-144(%rbp), %rsi
 1338      FFFFFF
 1339 09bc 4889D1   		movq	%rdx, %rcx
 1340 09bf 4889FA   		movq	%rdi, %rdx
 1341 09c2 4889C7   		movq	%rax, %rdi
 1342 09c5 E8000000 		call	_ZN8UnitTest10CheckEqualImmEEvRNS_11TestResultsERKT_RKT0_RKNS_11TestDetailsE
 1342      00
 1343              	.LEHE52:
 1344              	.L78:
  65:testHexIO.cpp **** 	bufDestroy(&mask);
 1345              		.loc 4 65 12 is_stmt 1
 1346 09ca 488D45A0 		leaq	-96(%rbp), %rax
 1347 09ce 4889C7   		movq	%rax, %rdi
 1348              	.LEHB53:
 1349 09d1 E8000000 		call	bufDestroy@PLT
 1349      00
  66:testHexIO.cpp **** 	bufDestroy(&data);
 1350              		.loc 4 66 12
 1351 09d6 488D4580 		leaq	-128(%rbp), %rax
 1352 09da 4889C7   		movq	%rax, %rdi
 1353 09dd E8000000 		call	bufDestroy@PLT
 1353      00
 1354              	.LEHE53:
  67:testHexIO.cpp **** }
 1355              		.loc 4 67 1
 1356 09e2 90       		nop
 1357 09e3 488B45E8 		movq	-24(%rbp), %rax
 1358 09e7 64482B04 		subq	%fs:40, %rax
 1358      25280000 
 1358      00
 1359 09f0 0F847402 		je	.L80
 1359      0000
 1360 09f6 E96A0200 		jmp	.L93
 1360      00
 1361              	.L81:
 1362 09fb F30F1EFA 		endbr64
  57:testHexIO.cpp **** 	status = bufInitialise(&mask, 1024, 0x00, NULL);
 1363              		.loc 4 57 2
 1364 09ff 4889C7   		movq	%rax, %rdi
 1365 0a02 E8000000 		call	__cxa_begin_catch@PLT
 1365      00
 1366              	.LEHB54:
 1367 0a07 E8000000 		call	_ZN8UnitTest11CurrentTest7ResultsEv@PLT
 1367      00
  57:testHexIO.cpp **** 	status = bufInitialise(&mask, 1024, 0x00, NULL);
 1368              		.loc 4 57 2 is_stmt 0 discriminator 3
 1369 0a0c 488B18   		movq	(%rax), %rbx
 1370 0a0f E8000000 		call	_ZN8UnitTest11CurrentTest7DetailsEv@PLT
 1370      00
  57:testHexIO.cpp **** 	status = bufInitialise(&mask, 1024, 0x00, NULL);
 1371              		.loc 4 57 2 discriminator 11
 1372 0a14 488B08   		movq	(%rax), %rcx
 1373 0a17 488D45C0 		leaq	-64(%rbp), %rax
 1374 0a1b BA390000 		movl	$57, %edx
 1374      00
 1375 0a20 4889CE   		movq	%rcx, %rsi
 1376 0a23 4889C7   		movq	%rax, %rdi
 1377 0a26 E8000000 		call	_ZN8UnitTest11TestDetailsC1ERKS0_i@PLT
 1377      00
  57:testHexIO.cpp **** 	status = bufInitialise(&mask, 1024, 0x00, NULL);
 1378              		.loc 4 57 2 discriminator 15
 1379 0a2b 488D45C0 		leaq	-64(%rbp), %rax
 1380 0a2f 488D1500 		leaq	.LC4(%rip), %rdx
 1380      000000
 1381 0a36 4889C6   		movq	%rax, %rsi
 1382 0a39 4889DF   		movq	%rbx, %rdi
 1383 0a3c E8000000 		call	_ZN8UnitTest11TestResults13OnTestFailureERKNS_11TestDetailsEPKc@PLT
 1383      00
 1384              	.LEHE54:
 1385              	.LEHB55:
  57:testHexIO.cpp **** 	status = bufInitialise(&mask, 1024, 0x00, NULL);
 1386              		.loc 4 57 2 discriminator 17
 1387 0a41 E8000000 		call	__cxa_end_catch@PLT
 1387      00
 1388              	.LEHE55:
 1389 0a46 E9A6FDFF 		jmp	.L63
 1389      FF
 1390              	.L82:
 1391 0a4b F30F1EFA 		endbr64
  57:testHexIO.cpp **** 	status = bufInitialise(&mask, 1024, 0x00, NULL);
 1392              		.loc 4 57 2
 1393 0a4f 4889C3   		movq	%rax, %rbx
 1394 0a52 E8000000 		call	__cxa_end_catch@PLT
 1394      00
 1395 0a57 4889D8   		movq	%rbx, %rax
 1396 0a5a 4889C7   		movq	%rax, %rdi
 1397              	.LEHB56:
 1398 0a5d E8000000 		call	_Unwind_Resume@PLT
 1398      00
 1399              	.LEHE56:
 1400              	.L83:
 1401 0a62 F30F1EFA 		endbr64
  59:testHexIO.cpp **** 	status = bufProcessLine(line, 0, &data, &mask, &seg, &recordType, NULL);
 1402              		.loc 4 59 2 is_stmt 1
 1403 0a66 4889C7   		movq	%rax, %rdi
 1404 0a69 E8000000 		call	__cxa_begin_catch@PLT
 1404      00
 1405              	.LEHB57:
 1406 0a6e E8000000 		call	_ZN8UnitTest11CurrentTest7ResultsEv@PLT
 1406      00
  59:testHexIO.cpp **** 	status = bufProcessLine(line, 0, &data, &mask, &seg, &recordType, NULL);
 1407              		.loc 4 59 2 is_stmt 0 discriminator 3
 1408 0a73 488B18   		movq	(%rax), %rbx
 1409 0a76 E8000000 		call	_ZN8UnitTest11CurrentTest7DetailsEv@PLT
 1409      00
  59:testHexIO.cpp **** 	status = bufProcessLine(line, 0, &data, &mask, &seg, &recordType, NULL);
 1410              		.loc 4 59 2 discriminator 11
 1411 0a7b 488B08   		movq	(%rax), %rcx
 1412 0a7e 488D45C0 		leaq	-64(%rbp), %rax
 1413 0a82 BA3B0000 		movl	$59, %edx
 1413      00
 1414 0a87 4889CE   		movq	%rcx, %rsi
 1415 0a8a 4889C7   		movq	%rax, %rdi
 1416 0a8d E8000000 		call	_ZN8UnitTest11TestDetailsC1ERKS0_i@PLT
 1416      00
  59:testHexIO.cpp **** 	status = bufProcessLine(line, 0, &data, &mask, &seg, &recordType, NULL);
 1417              		.loc 4 59 2 discriminator 15
 1418 0a92 488D45C0 		leaq	-64(%rbp), %rax
 1419 0a96 488D1500 		leaq	.LC4(%rip), %rdx
 1419      000000
 1420 0a9d 4889C6   		movq	%rax, %rsi
 1421 0aa0 4889DF   		movq	%rbx, %rdi
 1422 0aa3 E8000000 		call	_ZN8UnitTest11TestResults13OnTestFailureERKNS_11TestDetailsEPKc@PLT
 1422      00
 1423              	.LEHE57:
 1424              	.LEHB58:
  59:testHexIO.cpp **** 	status = bufProcessLine(line, 0, &data, &mask, &seg, &recordType, NULL);
 1425              		.loc 4 59 2 discriminator 17
 1426 0aa8 E8000000 		call	__cxa_end_catch@PLT
 1426      00
 1427              	.LEHE58:
 1428 0aad E9A8FDFF 		jmp	.L66
 1428      FF
 1429              	.L84:
 1430 0ab2 F30F1EFA 		endbr64
  59:testHexIO.cpp **** 	status = bufProcessLine(line, 0, &data, &mask, &seg, &recordType, NULL);
 1431              		.loc 4 59 2
 1432 0ab6 4889C3   		movq	%rax, %rbx
 1433 0ab9 E8000000 		call	__cxa_end_catch@PLT
 1433      00
 1434 0abe 4889D8   		movq	%rbx, %rax
 1435 0ac1 4889C7   		movq	%rax, %rdi
 1436              	.LEHB59:
 1437 0ac4 E8000000 		call	_Unwind_Resume@PLT
 1437      00
 1438              	.LEHE59:
 1439              	.L85:
 1440 0ac9 F30F1EFA 		endbr64
  61:testHexIO.cpp **** 	CHECK_EQUAL(0x01, recordType);
 1441              		.loc 4 61 2 is_stmt 1
 1442 0acd 4889C7   		movq	%rax, %rdi
 1443 0ad0 E8000000 		call	__cxa_begin_catch@PLT
 1443      00
 1444              	.LEHB60:
 1445 0ad5 E8000000 		call	_ZN8UnitTest11CurrentTest7ResultsEv@PLT
 1445      00
  61:testHexIO.cpp **** 	CHECK_EQUAL(0x01, recordType);
 1446              		.loc 4 61 2 is_stmt 0 discriminator 3
 1447 0ada 488B18   		movq	(%rax), %rbx
 1448 0add E8000000 		call	_ZN8UnitTest11CurrentTest7DetailsEv@PLT
 1448      00
  61:testHexIO.cpp **** 	CHECK_EQUAL(0x01, recordType);
 1449              		.loc 4 61 2 discriminator 11
 1450 0ae2 488B08   		movq	(%rax), %rcx
 1451 0ae5 488D45C0 		leaq	-64(%rbp), %rax
 1452 0ae9 BA3D0000 		movl	$61, %edx
 1452      00
 1453 0aee 4889CE   		movq	%rcx, %rsi
 1454 0af1 4889C7   		movq	%rax, %rdi
 1455 0af4 E8000000 		call	_ZN8UnitTest11TestDetailsC1ERKS0_i@PLT
 1455      00
  61:testHexIO.cpp **** 	CHECK_EQUAL(0x01, recordType);
 1456              		.loc 4 61 2 discriminator 15
 1457 0af9 488D45C0 		leaq	-64(%rbp), %rax
 1458 0afd 488D1500 		leaq	.LC4(%rip), %rdx
 1458      000000
 1459 0b04 4889C6   		movq	%rax, %rsi
 1460 0b07 4889DF   		movq	%rbx, %rdi
 1461 0b0a E8000000 		call	_ZN8UnitTest11TestResults13OnTestFailureERKNS_11TestDetailsEPKc@PLT
 1461      00
 1462              	.LEHE60:
 1463              	.LEHB61:
  61:testHexIO.cpp **** 	CHECK_EQUAL(0x01, recordType);
 1464              		.loc 4 61 2 discriminator 17
 1465 0b0f E8000000 		call	__cxa_end_catch@PLT
 1465      00
 1466              	.LEHE61:
 1467 0b14 E9C9FDFF 		jmp	.L69
 1467      FF
 1468              	.L86:
 1469 0b19 F30F1EFA 		endbr64
  61:testHexIO.cpp **** 	CHECK_EQUAL(0x01, recordType);
 1470              		.loc 4 61 2
 1471 0b1d 4889C3   		movq	%rax, %rbx
 1472 0b20 E8000000 		call	__cxa_end_catch@PLT
 1472      00
 1473 0b25 4889D8   		movq	%rbx, %rax
 1474 0b28 4889C7   		movq	%rax, %rdi
 1475              	.LEHB62:
 1476 0b2b E8000000 		call	_Unwind_Resume@PLT
 1476      00
 1477              	.LEHE62:
 1478              	.L87:
 1479 0b30 F30F1EFA 		endbr64
  62:testHexIO.cpp **** 	CHECK_EQUAL(0UL, data.length);
 1480              		.loc 4 62 2 is_stmt 1
 1481 0b34 4889C7   		movq	%rax, %rdi
 1482 0b37 E8000000 		call	__cxa_begin_catch@PLT
 1482      00
 1483              	.LEHB63:
 1484 0b3c E8000000 		call	_ZN8UnitTest11CurrentTest7ResultsEv@PLT
 1484      00
  62:testHexIO.cpp **** 	CHECK_EQUAL(0UL, data.length);
 1485              		.loc 4 62 2 is_stmt 0 discriminator 3
 1486 0b41 488B18   		movq	(%rax), %rbx
 1487 0b44 E8000000 		call	_ZN8UnitTest11CurrentTest7DetailsEv@PLT
 1487      00
  62:testHexIO.cpp **** 	CHECK_EQUAL(0UL, data.length);
 1488              		.loc 4 62 2 discriminator 11
 1489 0b49 488B08   		movq	(%rax), %rcx
 1490 0b4c 488D45C0 		leaq	-64(%rbp), %rax
 1491 0b50 BA3E0000 		movl	$62, %edx
 1491      00
 1492 0b55 4889CE   		movq	%rcx, %rsi
 1493 0b58 4889C7   		movq	%rax, %rdi
 1494 0b5b E8000000 		call	_ZN8UnitTest11TestDetailsC1ERKS0_i@PLT
 1494      00
  62:testHexIO.cpp **** 	CHECK_EQUAL(0UL, data.length);
 1495              		.loc 4 62 2 discriminator 15
 1496 0b60 488D45C0 		leaq	-64(%rbp), %rax
 1497 0b64 488D1500 		leaq	.LC13(%rip), %rdx
 1497      000000
 1498 0b6b 4889C6   		movq	%rax, %rsi
 1499 0b6e 4889DF   		movq	%rbx, %rdi
 1500 0b71 E8000000 		call	_ZN8UnitTest11TestResults13OnTestFailureERKNS_11TestDetailsEPKc@PLT
 1500      00
 1501              	.LEHE63:
 1502              	.LEHB64:
  62:testHexIO.cpp **** 	CHECK_EQUAL(0UL, data.length);
 1503              		.loc 4 62 2 discriminator 17
 1504 0b76 E8000000 		call	__cxa_end_catch@PLT
 1504      00
 1505              	.LEHE64:
 1506 0b7b E9AAFDFF 		jmp	.L72
 1506      FF
 1507              	.L88:
 1508 0b80 F30F1EFA 		endbr64
  62:testHexIO.cpp **** 	CHECK_EQUAL(0UL, data.length);
 1509              		.loc 4 62 2
 1510 0b84 4889C3   		movq	%rax, %rbx
 1511 0b87 E8000000 		call	__cxa_end_catch@PLT
 1511      00
 1512 0b8c 4889D8   		movq	%rbx, %rax
 1513 0b8f 4889C7   		movq	%rax, %rdi
 1514              	.LEHB65:
 1515 0b92 E8000000 		call	_Unwind_Resume@PLT
 1515      00
 1516              	.LEHE65:
 1517              	.L89:
 1518 0b97 F30F1EFA 		endbr64
  63:testHexIO.cpp **** 	CHECK_EQUAL(0UL, mask.length);
 1519              		.loc 4 63 2 is_stmt 1
 1520 0b9b 4889C7   		movq	%rax, %rdi
 1521 0b9e E8000000 		call	__cxa_begin_catch@PLT
 1521      00
 1522              	.LEHB66:
 1523 0ba3 E8000000 		call	_ZN8UnitTest11CurrentTest7ResultsEv@PLT
 1523      00
  63:testHexIO.cpp **** 	CHECK_EQUAL(0UL, mask.length);
 1524              		.loc 4 63 2 is_stmt 0 discriminator 3
 1525 0ba8 488B18   		movq	(%rax), %rbx
 1526 0bab E8000000 		call	_ZN8UnitTest11CurrentTest7DetailsEv@PLT
 1526      00
  63:testHexIO.cpp **** 	CHECK_EQUAL(0UL, mask.length);
 1527              		.loc 4 63 2 discriminator 11
 1528 0bb0 488B08   		movq	(%rax), %rcx
 1529 0bb3 488D45C0 		leaq	-64(%rbp), %rax
 1530 0bb7 BA3F0000 		movl	$63, %edx
 1530      00
 1531 0bbc 4889CE   		movq	%rcx, %rsi
 1532 0bbf 4889C7   		movq	%rax, %rdi
 1533 0bc2 E8000000 		call	_ZN8UnitTest11TestDetailsC1ERKS0_i@PLT
 1533      00
  63:testHexIO.cpp **** 	CHECK_EQUAL(0UL, mask.length);
 1534              		.loc 4 63 2 discriminator 15
 1535 0bc7 488D45C0 		leaq	-64(%rbp), %rax
 1536 0bcb 488D1500 		leaq	.LC14(%rip), %rdx
 1536      000000
 1537 0bd2 4889C6   		movq	%rax, %rsi
 1538 0bd5 4889DF   		movq	%rbx, %rdi
 1539 0bd8 E8000000 		call	_ZN8UnitTest11TestResults13OnTestFailureERKNS_11TestDetailsEPKc@PLT
 1539      00
 1540              	.LEHE66:
 1541              	.LEHB67:
  63:testHexIO.cpp **** 	CHECK_EQUAL(0UL, mask.length);
 1542              		.loc 4 63 2 discriminator 17
 1543 0bdd E8000000 		call	__cxa_end_catch@PLT
 1543      00
 1544              	.LEHE67:
 1545 0be2 E993FDFF 		jmp	.L75
 1545      FF
 1546              	.L90:
 1547 0be7 F30F1EFA 		endbr64
  63:testHexIO.cpp **** 	CHECK_EQUAL(0UL, mask.length);
 1548              		.loc 4 63 2
 1549 0beb 4889C3   		movq	%rax, %rbx
 1550 0bee E8000000 		call	__cxa_end_catch@PLT
 1550      00
 1551 0bf3 4889D8   		movq	%rbx, %rax
 1552 0bf6 4889C7   		movq	%rax, %rdi
 1553              	.LEHB68:
 1554 0bf9 E8000000 		call	_Unwind_Resume@PLT
 1554      00
 1555              	.LEHE68:
 1556              	.L91:
 1557 0bfe F30F1EFA 		endbr64
  64:testHexIO.cpp **** 	bufDestroy(&mask);
 1558              		.loc 4 64 2 is_stmt 1
 1559 0c02 4889C7   		movq	%rax, %rdi
 1560 0c05 E8000000 		call	__cxa_begin_catch@PLT
 1560      00
 1561              	.LEHB69:
 1562 0c0a E8000000 		call	_ZN8UnitTest11CurrentTest7ResultsEv@PLT
 1562      00
  64:testHexIO.cpp **** 	bufDestroy(&mask);
 1563              		.loc 4 64 2 is_stmt 0 discriminator 3
 1564 0c0f 488B18   		movq	(%rax), %rbx
 1565 0c12 E8000000 		call	_ZN8UnitTest11CurrentTest7DetailsEv@PLT
 1565      00
  64:testHexIO.cpp **** 	bufDestroy(&mask);
 1566              		.loc 4 64 2 discriminator 11
 1567 0c17 488B08   		movq	(%rax), %rcx
 1568 0c1a 488D45C0 		leaq	-64(%rbp), %rax
 1569 0c1e BA400000 		movl	$64, %edx
 1569      00
 1570 0c23 4889CE   		movq	%rcx, %rsi
 1571 0c26 4889C7   		movq	%rax, %rdi
 1572 0c29 E8000000 		call	_ZN8UnitTest11TestDetailsC1ERKS0_i@PLT
 1572      00
  64:testHexIO.cpp **** 	bufDestroy(&mask);
 1573              		.loc 4 64 2 discriminator 15
 1574 0c2e 488D45C0 		leaq	-64(%rbp), %rax
 1575 0c32 488D1500 		leaq	.LC15(%rip), %rdx
 1575      000000
 1576 0c39 4889C6   		movq	%rax, %rsi
 1577 0c3c 4889DF   		movq	%rbx, %rdi
 1578 0c3f E8000000 		call	_ZN8UnitTest11TestResults13OnTestFailureERKNS_11TestDetailsEPKc@PLT
 1578      00
 1579              	.LEHE69:
 1580              	.LEHB70:
  64:testHexIO.cpp **** 	bufDestroy(&mask);
 1581              		.loc 4 64 2 discriminator 17
 1582 0c44 E8000000 		call	__cxa_end_catch@PLT
 1582      00
 1583              	.LEHE70:
 1584 0c49 E97CFDFF 		jmp	.L78
 1584      FF
 1585              	.L92:
 1586 0c4e F30F1EFA 		endbr64
  64:testHexIO.cpp **** 	bufDestroy(&mask);
 1587              		.loc 4 64 2
 1588 0c52 4889C3   		movq	%rax, %rbx
 1589 0c55 E8000000 		call	__cxa_end_catch@PLT
 1589      00
 1590 0c5a 4889D8   		movq	%rbx, %rax
 1591 0c5d 4889C7   		movq	%rax, %rdi
 1592              	.LEHB71:
 1593 0c60 E8000000 		call	_Unwind_Resume@PLT
 1593      00
 1594              	.LEHE71:
 1595              	.L93:
 1596              		.loc 4 67 1 is_stmt 1
 1597 0c65 E8000000 		call	__stack_chk_fail@PLT
 1597      00
 1598              	.L80:
 1599 0c6a 488B5DF8 		movq	-8(%rbp), %rbx
 1600 0c6e C9       		leave
 1601              		.cfi_def_cfa 7, 8
 1602 0c6f C3       		ret
 1603              		.cfi_endproc
 1604              	.LFE1216:
 1605              		.section	.gcc_except_table
 1606              		.align 4
 1607              	.LLSDA1216:
 1608 00e8 FF       		.byte	0xff
 1609 00e9 9B       		.byte	0x9b
 1610 00ea A001     		.uleb128 .LLSDATT1216-.LLSDATTD1216
 1611              	.LLSDATTD1216:
 1612 00ec 01       		.byte	0x1
 1613 00ed 9601     		.uleb128 .LLSDACSE1216-.LLSDACSB1216
 1614              	.LLSDACSB1216:
 1615 00ef 54       		.uleb128 .LEHB44-.LFB1216
 1616 00f0 05       		.uleb128 .LEHE44-.LEHB44
 1617 00f1 00       		.uleb128 0
 1618 00f2 00       		.uleb128 0
 1619 00f3 5F       		.uleb128 .LEHB45-.LFB1216
 1620 00f4 42       		.uleb128 .LEHE45-.LEHB45
 1621 00f5 AB05     		.uleb128 .L81-.LFB1216
 1622 00f7 01       		.uleb128 0x1
 1623 00f8 B701     		.uleb128 .LEHB46-.LFB1216
 1624 00fa 05       		.uleb128 .LEHE46-.LEHB46
 1625 00fb 00       		.uleb128 0
 1626 00fc 00       		.uleb128 0
 1627 00fd C201     		.uleb128 .LEHB47-.LFB1216
 1628 00ff 48       		.uleb128 .LEHE47-.LEHB47
 1629 0100 9206     		.uleb128 .L83-.LFB1216
 1630 0102 01       		.uleb128 0x1
 1631 0103 BB02     		.uleb128 .LEHB48-.LFB1216
 1632 0105 05       		.uleb128 .LEHE48-.LEHB48
 1633 0106 00       		.uleb128 0
 1634 0107 00       		.uleb128 0
 1635 0108 CA02     		.uleb128 .LEHB49-.LFB1216
 1636 010a 48       		.uleb128 .LEHE49-.LEHB49
 1637 010b F906     		.uleb128 .L85-.LFB1216
 1638 010d 01       		.uleb128 0x1
 1639 010e 9203     		.uleb128 .LEHB50-.LFB1216
 1640 0110 48       		.uleb128 .LEHE50-.LEHB50
 1641 0111 E007     		.uleb128 .L87-.LFB1216
 1642 0113 01       		.uleb128 0x1
 1643 0114 DA03     		.uleb128 .LEHB51-.LFB1216
 1644 0116 50       		.uleb128 .LEHE51-.LEHB51
 1645 0117 C708     		.uleb128 .L89-.LFB1216
 1646 0119 01       		.uleb128 0x1
 1647 011a AA04     		.uleb128 .LEHB52-.LFB1216
 1648 011c 50       		.uleb128 .LEHE52-.LEHB52
 1649 011d AE09     		.uleb128 .L91-.LFB1216
 1650 011f 01       		.uleb128 0x1
 1651 0120 8105     		.uleb128 .LEHB53-.LFB1216
 1652 0122 11       		.uleb128 .LEHE53-.LEHB53
 1653 0123 00       		.uleb128 0
 1654 0124 00       		.uleb128 0
 1655 0125 B705     		.uleb128 .LEHB54-.LFB1216
 1656 0127 3A       		.uleb128 .LEHE54-.LEHB54
 1657 0128 FB05     		.uleb128 .L82-.LFB1216
 1658 012a 00       		.uleb128 0
 1659 012b F105     		.uleb128 .LEHB55-.LFB1216
 1660 012d 05       		.uleb128 .LEHE55-.LEHB55
 1661 012e 00       		.uleb128 0
 1662 012f 00       		.uleb128 0
 1663 0130 8D06     		.uleb128 .LEHB56-.LFB1216
 1664 0132 05       		.uleb128 .LEHE56-.LEHB56
 1665 0133 00       		.uleb128 0
 1666 0134 00       		.uleb128 0
 1667 0135 9E06     		.uleb128 .LEHB57-.LFB1216
 1668 0137 3A       		.uleb128 .LEHE57-.LEHB57
 1669 0138 E206     		.uleb128 .L84-.LFB1216
 1670 013a 00       		.uleb128 0
 1671 013b D806     		.uleb128 .LEHB58-.LFB1216
 1672 013d 05       		.uleb128 .LEHE58-.LEHB58
 1673 013e 00       		.uleb128 0
 1674 013f 00       		.uleb128 0
 1675 0140 F406     		.uleb128 .LEHB59-.LFB1216
 1676 0142 05       		.uleb128 .LEHE59-.LEHB59
 1677 0143 00       		.uleb128 0
 1678 0144 00       		.uleb128 0
 1679 0145 8507     		.uleb128 .LEHB60-.LFB1216
 1680 0147 3A       		.uleb128 .LEHE60-.LEHB60
 1681 0148 C907     		.uleb128 .L86-.LFB1216
 1682 014a 00       		.uleb128 0
 1683 014b BF07     		.uleb128 .LEHB61-.LFB1216
 1684 014d 05       		.uleb128 .LEHE61-.LEHB61
 1685 014e 00       		.uleb128 0
 1686 014f 00       		.uleb128 0
 1687 0150 DB07     		.uleb128 .LEHB62-.LFB1216
 1688 0152 05       		.uleb128 .LEHE62-.LEHB62
 1689 0153 00       		.uleb128 0
 1690 0154 00       		.uleb128 0
 1691 0155 EC07     		.uleb128 .LEHB63-.LFB1216
 1692 0157 3A       		.uleb128 .LEHE63-.LEHB63
 1693 0158 B008     		.uleb128 .L88-.LFB1216
 1694 015a 00       		.uleb128 0
 1695 015b A608     		.uleb128 .LEHB64-.LFB1216
 1696 015d 05       		.uleb128 .LEHE64-.LEHB64
 1697 015e 00       		.uleb128 0
 1698 015f 00       		.uleb128 0
 1699 0160 C208     		.uleb128 .LEHB65-.LFB1216
 1700 0162 05       		.uleb128 .LEHE65-.LEHB65
 1701 0163 00       		.uleb128 0
 1702 0164 00       		.uleb128 0
 1703 0165 D308     		.uleb128 .LEHB66-.LFB1216
 1704 0167 3A       		.uleb128 .LEHE66-.LEHB66
 1705 0168 9709     		.uleb128 .L90-.LFB1216
 1706 016a 00       		.uleb128 0
 1707 016b 8D09     		.uleb128 .LEHB67-.LFB1216
 1708 016d 05       		.uleb128 .LEHE67-.LEHB67
 1709 016e 00       		.uleb128 0
 1710 016f 00       		.uleb128 0
 1711 0170 A909     		.uleb128 .LEHB68-.LFB1216
 1712 0172 05       		.uleb128 .LEHE68-.LEHB68
 1713 0173 00       		.uleb128 0
 1714 0174 00       		.uleb128 0
 1715 0175 BA09     		.uleb128 .LEHB69-.LFB1216
 1716 0177 3A       		.uleb128 .LEHE69-.LEHB69
 1717 0178 FE09     		.uleb128 .L92-.LFB1216
 1718 017a 00       		.uleb128 0
 1719 017b F409     		.uleb128 .LEHB70-.LFB1216
 1720 017d 05       		.uleb128 .LEHE70-.LEHB70
 1721 017e 00       		.uleb128 0
 1722 017f 00       		.uleb128 0
 1723 0180 900A     		.uleb128 .LEHB71-.LFB1216
 1724 0182 05       		.uleb128 .LEHE71-.LEHB71
 1725 0183 00       		.uleb128 0
 1726 0184 00       		.uleb128 0
 1727              	.LLSDACSE1216:
 1728 0185 01       		.byte	0x1
 1729 0186 00       		.byte	0
 1730 0187 00       		.align 4
 1731 0188 00000000 		.long	0
 1732              	
 1733              	.LLSDATT1216:
 1734              		.text
 1736              		.section	.rodata
 1737              	.LC16:
 1738 02c5 48657849 		.string	"HexIO_testJunkStartCode"
 1738      4F5F7465 
 1738      73744A75 
 1738      6E6B5374 
 1738      61727443 
 1739              		.section	.text._ZN27TestHexIO_testJunkStartCodeC2Ev,"axG",@progbits,_ZN27TestHexIO_testJunkStartCo
 1740              		.align 2
 1741              		.weak	_ZN27TestHexIO_testJunkStartCodeC2Ev
 1743              	_ZN27TestHexIO_testJunkStartCodeC2Ev:
 1744              	.LFB1218:
  68:testHexIO.cpp **** 
  69:testHexIO.cpp **** TEST(HexIO_testJunkStartCode) {
 1745              		.loc 4 69 1
 1746              		.cfi_startproc
 1747 0000 F30F1EFA 		endbr64
 1748 0004 55       		pushq	%rbp
 1749              		.cfi_def_cfa_offset 16
 1750              		.cfi_offset 6, -16
 1751 0005 4889E5   		movq	%rsp, %rbp
 1752              		.cfi_def_cfa_register 6
 1753 0008 53       		pushq	%rbx
 1754 0009 4883EC18 		subq	$24, %rsp
 1755              		.cfi_offset 3, -24
 1756 000d 48897DE8 		movq	%rdi, -24(%rbp)
 1757              	.LBB6:
 1758              		.loc 4 69 1
 1759 0011 488B5DE8 		movq	-24(%rbp), %rbx
 1760 0015 E8000000 		call	_ZN13UnitTestSuite12GetSuiteNameEv
 1760      00
 1761 001a 4889C2   		movq	%rax, %rdx
 1762 001d 41B84500 		movl	$69, %r8d
 1762      0000
 1763 0023 488D0500 		leaq	.LC1(%rip), %rax
 1763      000000
 1764 002a 4889C1   		movq	%rax, %rcx
 1765 002d 488D0500 		leaq	.LC16(%rip), %rax
 1765      000000
 1766 0034 4889C6   		movq	%rax, %rsi
 1767 0037 4889DF   		movq	%rbx, %rdi
 1768 003a E8000000 		call	_ZN8UnitTest4TestC2EPKcS2_S2_i@PLT
 1768      00
 1769 003f 488D1500 		leaq	16+_ZTV27TestHexIO_testJunkStartCode(%rip), %rdx
 1769      000000
 1770 0046 488B45E8 		movq	-24(%rbp), %rax
 1771 004a 488910   		movq	%rdx, (%rax)
 1772              	.LBE6:
 1773 004d 90       		nop
 1774 004e 488B5DF8 		movq	-8(%rbp), %rbx
 1775 0052 C9       		leave
 1776              		.cfi_def_cfa 7, 8
 1777 0053 C3       		ret
 1778              		.cfi_endproc
 1779              	.LFE1218:
 1781              		.weak	_ZN27TestHexIO_testJunkStartCodeC1Ev
 1782              		.set	_ZN27TestHexIO_testJunkStartCodeC1Ev,_ZN27TestHexIO_testJunkStartCodeC2Ev
 1783              		.globl	testHexIO_testJunkStartCodeInstance
 1784              		.bss
 1785 0079 00000000 		.align 32
 1785      000000
 1788              	testHexIO_testJunkStartCodeInstance:
 1789 0080 00000000 		.zero	56
 1789      00000000 
 1789      00000000 
 1789      00000000 
 1789      00000000 
 1790              		.globl	adderHexIO_testJunkStartCode
 1793              	adderHexIO_testJunkStartCode:
 1794 00b8 00       		.zero	1
 1795              		.section	.rodata
 1796              	.LC17:
 1797 02dd 2E303430 		.string	".040BE10075820022F7\n"
 1797      42453130 
 1797      30373538 
 1797      32303032 
 1797      3246370A 
 1798 02f2 00000000 		.align 8
 1798      0000
 1799              	.LC18:
 1800 02f8 556E6861 		.string	"Unhandled exception in CHECK_EQUAL(HEX_JUNK_START_CODE, status)"
 1800      6E646C65 
 1800      64206578 
 1800      63657074 
 1800      696F6E20 
 1801              		.text
 1802              		.align 2
 1803              		.globl	_ZNK27TestHexIO_testJunkStartCode7RunImplEv
 1805              	_ZNK27TestHexIO_testJunkStartCode7RunImplEv:
 1806              	.LFB1220:
 1807              		.loc 4 69 31
 1808              		.cfi_startproc
 1809              		.cfi_personality 0x9b,DW.ref.__gxx_personality_v0
 1810              		.cfi_lsda 0x1b,.LLSDA1220
 1811 0c70 F30F1EFA 		endbr64
 1812 0c74 55       		pushq	%rbp
 1813              		.cfi_def_cfa_offset 16
 1814              		.cfi_offset 6, -16
 1815 0c75 4889E5   		movq	%rsp, %rbp
 1816              		.cfi_def_cfa_register 6
 1817 0c78 53       		pushq	%rbx
 1818 0c79 4881EC88 		subq	$136, %rsp
 1818      000000
 1819              		.cfi_offset 3, -24
 1820 0c80 4889BD78 		movq	%rdi, -136(%rbp)
 1820      FFFFFF
 1821              		.loc 4 69 31
 1822 0c87 64488B04 		movq	%fs:40, %rax
 1822      25280000 
 1822      00
 1823 0c90 488945E8 		movq	%rax, -24(%rbp)
 1824 0c94 31C0     		xorl	%eax, %eax
  70:testHexIO.cpp **** 	Buffer data;
  71:testHexIO.cpp **** 	BufferStatus status;
  72:testHexIO.cpp **** 	const char *line = ".040BE10075820022F7\n";
 1825              		.loc 4 72 14
 1826 0c96 488D0500 		leaq	.LC17(%rip), %rax
 1826      000000
 1827 0c9d 48894598 		movq	%rax, -104(%rbp)
  73:testHexIO.cpp **** 	uint8 recordType;
  74:testHexIO.cpp **** 	uint32 seg = 0x00000000;
 1828              		.loc 4 74 9
 1829 0ca1 C7459000 		movl	$0, -112(%rbp)
 1829      000000
  75:testHexIO.cpp **** 	status = bufInitialise(&data, 1024, 0x00, NULL);
 1830              		.loc 4 75 24
 1831 0ca8 488D45A0 		leaq	-96(%rbp), %rax
 1832 0cac B9000000 		movl	$0, %ecx
 1832      00
 1833 0cb1 BA000000 		movl	$0, %edx
 1833      00
 1834 0cb6 BE000400 		movl	$1024, %esi
 1834      00
 1835 0cbb 4889C7   		movq	%rax, %rdi
 1836              	.LEHB72:
 1837 0cbe E8000000 		call	bufInitialise@PLT
 1837      00
 1838              	.LEHE72:
 1839              		.loc 4 75 9
 1840 0cc3 89458C   		movl	%eax, -116(%rbp)
 1841              	.LEHB73:
  76:testHexIO.cpp **** 	CHECK_EQUAL(BUF_SUCCESS, status);
 1842              		.loc 4 76 2
 1843 0cc6 E8000000 		call	_ZN8UnitTest11CurrentTest7DetailsEv@PLT
 1843      00
 1844 0ccb 488B08   		movq	(%rax), %rcx
 1845 0cce 488D45C0 		leaq	-64(%rbp), %rax
 1846 0cd2 BA4C0000 		movl	$76, %edx
 1846      00
 1847 0cd7 4889CE   		movq	%rcx, %rsi
 1848 0cda 4889C7   		movq	%rax, %rdi
 1849 0cdd E8000000 		call	_ZN8UnitTest11TestDetailsC1ERKS0_i@PLT
 1849      00
 1850              		.loc 4 76 2 is_stmt 0 discriminator 4
 1851 0ce2 C7459400 		movl	$0, -108(%rbp)
 1851      000000
 1852 0ce9 E8000000 		call	_ZN8UnitTest11CurrentTest7ResultsEv@PLT
 1852      00
 1853 0cee 488B00   		movq	(%rax), %rax
 1854 0cf1 488D4DC0 		leaq	-64(%rbp), %rcx
 1855 0cf5 488D558C 		leaq	-116(%rbp), %rdx
 1856 0cf9 488D7594 		leaq	-108(%rbp), %rsi
 1857 0cfd 4889C7   		movq	%rax, %rdi
 1858 0d00 E8000000 		call	_ZN8UnitTest10CheckEqualI12BufferStatusS1_EEvRNS_11TestResultsERKT_RKT0_RKNS_11TestDetailsE
 1858      00
 1859              	.LEHE73:
 1860              	.L97:
  77:testHexIO.cpp **** 	status = bufProcessLine(line, 0, &data, NULL, &seg, &recordType, NULL);
 1861              		.loc 4 77 25 is_stmt 1
 1862 0d05 488D758B 		leaq	-117(%rbp), %rsi
 1863 0d09 488D4D90 		leaq	-112(%rbp), %rcx
 1864 0d0d 488D55A0 		leaq	-96(%rbp), %rdx
 1865 0d11 488B4598 		movq	-104(%rbp), %rax
 1866 0d15 4883EC08 		subq	$8, %rsp
 1867 0d19 6A00     		pushq	$0
 1868 0d1b 4989F1   		movq	%rsi, %r9
 1869 0d1e 4989C8   		movq	%rcx, %r8
 1870 0d21 B9000000 		movl	$0, %ecx
 1870      00
 1871 0d26 BE000000 		movl	$0, %esi
 1871      00
 1872 0d2b 4889C7   		movq	%rax, %rdi
 1873              	.LEHB74:
 1874 0d2e E8000000 		call	bufProcessLine@PLT
 1874      00
 1875              	.LEHE74:
 1876 0d33 4883C410 		addq	$16, %rsp
 1877              		.loc 4 77 9
 1878 0d37 89458C   		movl	%eax, -116(%rbp)
 1879              	.LEHB75:
  78:testHexIO.cpp **** 	CHECK_EQUAL(HEX_JUNK_START_CODE, status);
 1880              		.loc 4 78 2
 1881 0d3a E8000000 		call	_ZN8UnitTest11CurrentTest7DetailsEv@PLT
 1881      00
 1882 0d3f 488B08   		movq	(%rax), %rcx
 1883 0d42 488D45C0 		leaq	-64(%rbp), %rax
 1884 0d46 BA4E0000 		movl	$78, %edx
 1884      00
 1885 0d4b 4889CE   		movq	%rcx, %rsi
 1886 0d4e 4889C7   		movq	%rax, %rdi
 1887 0d51 E8000000 		call	_ZN8UnitTest11TestDetailsC1ERKS0_i@PLT
 1887      00
 1888              		.loc 4 78 2 is_stmt 0 discriminator 4
 1889 0d56 C7459408 		movl	$8, -108(%rbp)
 1889      000000
 1890 0d5d E8000000 		call	_ZN8UnitTest11CurrentTest7ResultsEv@PLT
 1890      00
 1891 0d62 488B00   		movq	(%rax), %rax
 1892 0d65 488D4DC0 		leaq	-64(%rbp), %rcx
 1893 0d69 488D558C 		leaq	-116(%rbp), %rdx
 1894 0d6d 488D7594 		leaq	-108(%rbp), %rsi
 1895 0d71 4889C7   		movq	%rax, %rdi
 1896 0d74 E8000000 		call	_ZN8UnitTest10CheckEqualI12BufferStatusS1_EEvRNS_11TestResultsERKT_RKT0_RKNS_11TestDetailsE
 1896      00
 1897              	.LEHE75:
 1898              	.L100:
  79:testHexIO.cpp **** 	bufDestroy(&data);
 1899              		.loc 4 79 12 is_stmt 1
 1900 0d79 488D45A0 		leaq	-96(%rbp), %rax
 1901 0d7d 4889C7   		movq	%rax, %rdi
 1902              	.LEHB76:
 1903 0d80 E8000000 		call	bufDestroy@PLT
 1903      00
 1904              	.LEHE76:
  80:testHexIO.cpp **** }
 1905              		.loc 4 80 1
 1906 0d85 90       		nop
 1907 0d86 488B45E8 		movq	-24(%rbp), %rax
 1908 0d8a 64482B04 		subq	%fs:40, %rax
 1908      25280000 
 1908      00
 1909 0d93 0F84D800 		je	.L102
 1909      0000
 1910 0d99 E9CE0000 		jmp	.L107
 1910      00
 1911              	.L103:
 1912 0d9e F30F1EFA 		endbr64
  76:testHexIO.cpp **** 	status = bufProcessLine(line, 0, &data, NULL, &seg, &recordType, NULL);
 1913              		.loc 4 76 2
 1914 0da2 4889C7   		movq	%rax, %rdi
 1915 0da5 E8000000 		call	__cxa_begin_catch@PLT
 1915      00
 1916              	.LEHB77:
 1917 0daa E8000000 		call	_ZN8UnitTest11CurrentTest7ResultsEv@PLT
 1917      00
  76:testHexIO.cpp **** 	status = bufProcessLine(line, 0, &data, NULL, &seg, &recordType, NULL);
 1918              		.loc 4 76 2 is_stmt 0 discriminator 3
 1919 0daf 488B18   		movq	(%rax), %rbx
 1920 0db2 E8000000 		call	_ZN8UnitTest11CurrentTest7DetailsEv@PLT
 1920      00
  76:testHexIO.cpp **** 	status = bufProcessLine(line, 0, &data, NULL, &seg, &recordType, NULL);
 1921              		.loc 4 76 2 discriminator 11
 1922 0db7 488B08   		movq	(%rax), %rcx
 1923 0dba 488D45C0 		leaq	-64(%rbp), %rax
 1924 0dbe BA4C0000 		movl	$76, %edx
 1924      00
 1925 0dc3 4889CE   		movq	%rcx, %rsi
 1926 0dc6 4889C7   		movq	%rax, %rdi
 1927 0dc9 E8000000 		call	_ZN8UnitTest11TestDetailsC1ERKS0_i@PLT
 1927      00
  76:testHexIO.cpp **** 	status = bufProcessLine(line, 0, &data, NULL, &seg, &recordType, NULL);
 1928              		.loc 4 76 2 discriminator 15
 1929 0dce 488D45C0 		leaq	-64(%rbp), %rax
 1930 0dd2 488D1500 		leaq	.LC4(%rip), %rdx
 1930      000000
 1931 0dd9 4889C6   		movq	%rax, %rsi
 1932 0ddc 4889DF   		movq	%rbx, %rdi
 1933 0ddf E8000000 		call	_ZN8UnitTest11TestResults13OnTestFailureERKNS_11TestDetailsEPKc@PLT
 1933      00
 1934              	.LEHE77:
 1935              	.LEHB78:
  76:testHexIO.cpp **** 	status = bufProcessLine(line, 0, &data, NULL, &seg, &recordType, NULL);
 1936              		.loc 4 76 2 discriminator 17
 1937 0de4 E8000000 		call	__cxa_end_catch@PLT
 1937      00
 1938              	.LEHE78:
 1939 0de9 E917FFFF 		jmp	.L97
 1939      FF
 1940              	.L104:
 1941 0dee F30F1EFA 		endbr64
  76:testHexIO.cpp **** 	status = bufProcessLine(line, 0, &data, NULL, &seg, &recordType, NULL);
 1942              		.loc 4 76 2
 1943 0df2 4889C3   		movq	%rax, %rbx
 1944 0df5 E8000000 		call	__cxa_end_catch@PLT
 1944      00
 1945 0dfa 4889D8   		movq	%rbx, %rax
 1946 0dfd 4889C7   		movq	%rax, %rdi
 1947              	.LEHB79:
 1948 0e00 E8000000 		call	_Unwind_Resume@PLT
 1948      00
 1949              	.LEHE79:
 1950              	.L105:
 1951 0e05 F30F1EFA 		endbr64
  78:testHexIO.cpp **** 	bufDestroy(&data);
 1952              		.loc 4 78 2 is_stmt 1
 1953 0e09 4889C7   		movq	%rax, %rdi
 1954 0e0c E8000000 		call	__cxa_begin_catch@PLT
 1954      00
 1955              	.LEHB80:
 1956 0e11 E8000000 		call	_ZN8UnitTest11CurrentTest7ResultsEv@PLT
 1956      00
  78:testHexIO.cpp **** 	bufDestroy(&data);
 1957              		.loc 4 78 2 is_stmt 0 discriminator 3
 1958 0e16 488B18   		movq	(%rax), %rbx
 1959 0e19 E8000000 		call	_ZN8UnitTest11CurrentTest7DetailsEv@PLT
 1959      00
  78:testHexIO.cpp **** 	bufDestroy(&data);
 1960              		.loc 4 78 2 discriminator 11
 1961 0e1e 488B08   		movq	(%rax), %rcx
 1962 0e21 488D45C0 		leaq	-64(%rbp), %rax
 1963 0e25 BA4E0000 		movl	$78, %edx
 1963      00
 1964 0e2a 4889CE   		movq	%rcx, %rsi
 1965 0e2d 4889C7   		movq	%rax, %rdi
 1966 0e30 E8000000 		call	_ZN8UnitTest11TestDetailsC1ERKS0_i@PLT
 1966      00
  78:testHexIO.cpp **** 	bufDestroy(&data);
 1967              		.loc 4 78 2 discriminator 15
 1968 0e35 488D45C0 		leaq	-64(%rbp), %rax
 1969 0e39 488D1500 		leaq	.LC18(%rip), %rdx
 1969      000000
 1970 0e40 4889C6   		movq	%rax, %rsi
 1971 0e43 4889DF   		movq	%rbx, %rdi
 1972 0e46 E8000000 		call	_ZN8UnitTest11TestResults13OnTestFailureERKNS_11TestDetailsEPKc@PLT
 1972      00
 1973              	.LEHE80:
 1974              	.LEHB81:
  78:testHexIO.cpp **** 	bufDestroy(&data);
 1975              		.loc 4 78 2 discriminator 17
 1976 0e4b E8000000 		call	__cxa_end_catch@PLT
 1976      00
 1977              	.LEHE81:
 1978 0e50 E924FFFF 		jmp	.L100
 1978      FF
 1979              	.L106:
 1980 0e55 F30F1EFA 		endbr64
  78:testHexIO.cpp **** 	bufDestroy(&data);
 1981              		.loc 4 78 2
 1982 0e59 4889C3   		movq	%rax, %rbx
 1983 0e5c E8000000 		call	__cxa_end_catch@PLT
 1983      00
 1984 0e61 4889D8   		movq	%rbx, %rax
 1985 0e64 4889C7   		movq	%rax, %rdi
 1986              	.LEHB82:
 1987 0e67 E8000000 		call	_Unwind_Resume@PLT
 1987      00
 1988              	.LEHE82:
 1989              	.L107:
 1990              		.loc 4 80 1 is_stmt 1
 1991 0e6c E8000000 		call	__stack_chk_fail@PLT
 1991      00
 1992              	.L102:
 1993 0e71 488B5DF8 		movq	-8(%rbp), %rbx
 1994 0e75 C9       		leave
 1995              		.cfi_def_cfa 7, 8
 1996 0e76 C3       		ret
 1997              		.cfi_endproc
 1998              	.LFE1220:
 1999              		.section	.gcc_except_table
 2000              		.align 4
 2001              	.LLSDA1220:
 2002 018c FF       		.byte	0xff
 2003 018d 9B       		.byte	0x9b
 2004 018e 41       		.uleb128 .LLSDATT1220-.LLSDATTD1220
 2005              	.LLSDATTD1220:
 2006 018f 01       		.byte	0x1
 2007 0190 39       		.uleb128 .LLSDACSE1220-.LLSDACSB1220
 2008              	.LLSDACSB1220:
 2009 0191 4E       		.uleb128 .LEHB72-.LFB1220
 2010 0192 05       		.uleb128 .LEHE72-.LEHB72
 2011 0193 00       		.uleb128 0
 2012 0194 00       		.uleb128 0
 2013 0195 56       		.uleb128 .LEHB73-.LFB1220
 2014 0196 3F       		.uleb128 .LEHE73-.LEHB73
 2015 0197 AE02     		.uleb128 .L103-.LFB1220
 2016 0199 01       		.uleb128 0x1
 2017 019a BE01     		.uleb128 .LEHB74-.LFB1220
 2018 019c 05       		.uleb128 .LEHE74-.LEHB74
 2019 019d 00       		.uleb128 0
 2020 019e 00       		.uleb128 0
 2021 019f CA01     		.uleb128 .LEHB75-.LFB1220
 2022 01a1 3F       		.uleb128 .LEHE75-.LEHB75
 2023 01a2 9503     		.uleb128 .L105-.LFB1220
 2024 01a4 01       		.uleb128 0x1
 2025 01a5 9002     		.uleb128 .LEHB76-.LFB1220
 2026 01a7 05       		.uleb128 .LEHE76-.LEHB76
 2027 01a8 00       		.uleb128 0
 2028 01a9 00       		.uleb128 0
 2029 01aa BA02     		.uleb128 .LEHB77-.LFB1220
 2030 01ac 3A       		.uleb128 .LEHE77-.LEHB77
 2031 01ad FE02     		.uleb128 .L104-.LFB1220
 2032 01af 00       		.uleb128 0
 2033 01b0 F402     		.uleb128 .LEHB78-.LFB1220
 2034 01b2 05       		.uleb128 .LEHE78-.LEHB78
 2035 01b3 00       		.uleb128 0
 2036 01b4 00       		.uleb128 0
 2037 01b5 9003     		.uleb128 .LEHB79-.LFB1220
 2038 01b7 05       		.uleb128 .LEHE79-.LEHB79
 2039 01b8 00       		.uleb128 0
 2040 01b9 00       		.uleb128 0
 2041 01ba A103     		.uleb128 .LEHB80-.LFB1220
 2042 01bc 3A       		.uleb128 .LEHE80-.LEHB80
 2043 01bd E503     		.uleb128 .L106-.LFB1220
 2044 01bf 00       		.uleb128 0
 2045 01c0 DB03     		.uleb128 .LEHB81-.LFB1220
 2046 01c2 05       		.uleb128 .LEHE81-.LEHB81
 2047 01c3 00       		.uleb128 0
 2048 01c4 00       		.uleb128 0
 2049 01c5 F703     		.uleb128 .LEHB82-.LFB1220
 2050 01c7 05       		.uleb128 .LEHE82-.LEHB82
 2051 01c8 00       		.uleb128 0
 2052 01c9 00       		.uleb128 0
 2053              	.LLSDACSE1220:
 2054 01ca 01       		.byte	0x1
 2055 01cb 00       		.byte	0
 2056              		.align 4
 2057 01cc 00000000 		.long	0
 2058              	
 2059              	.LLSDATT1220:
 2060              		.text
 2062              		.section	.rodata
 2063              	.LC19:
 2064 0338 48657849 		.string	"HexIO_testJunkByteCount"
 2064      4F5F7465 
 2064      73744A75 
 2064      6E6B4279 
 2064      7465436F 
 2065              		.section	.text._ZN27TestHexIO_testJunkByteCountC2Ev,"axG",@progbits,_ZN27TestHexIO_testJunkByteCou
 2066              		.align 2
 2067              		.weak	_ZN27TestHexIO_testJunkByteCountC2Ev
 2069              	_ZN27TestHexIO_testJunkByteCountC2Ev:
 2070              	.LFB1222:
  81:testHexIO.cpp **** 
  82:testHexIO.cpp **** TEST(HexIO_testJunkByteCount) {
 2071              		.loc 4 82 1
 2072              		.cfi_startproc
 2073 0000 F30F1EFA 		endbr64
 2074 0004 55       		pushq	%rbp
 2075              		.cfi_def_cfa_offset 16
 2076              		.cfi_offset 6, -16
 2077 0005 4889E5   		movq	%rsp, %rbp
 2078              		.cfi_def_cfa_register 6
 2079 0008 53       		pushq	%rbx
 2080 0009 4883EC18 		subq	$24, %rsp
 2081              		.cfi_offset 3, -24
 2082 000d 48897DE8 		movq	%rdi, -24(%rbp)
 2083              	.LBB7:
 2084              		.loc 4 82 1
 2085 0011 488B5DE8 		movq	-24(%rbp), %rbx
 2086 0015 E8000000 		call	_ZN13UnitTestSuite12GetSuiteNameEv
 2086      00
 2087 001a 4889C2   		movq	%rax, %rdx
 2088 001d 41B85200 		movl	$82, %r8d
 2088      0000
 2089 0023 488D0500 		leaq	.LC1(%rip), %rax
 2089      000000
 2090 002a 4889C1   		movq	%rax, %rcx
 2091 002d 488D0500 		leaq	.LC19(%rip), %rax
 2091      000000
 2092 0034 4889C6   		movq	%rax, %rsi
 2093 0037 4889DF   		movq	%rbx, %rdi
 2094 003a E8000000 		call	_ZN8UnitTest4TestC2EPKcS2_S2_i@PLT
 2094      00
 2095 003f 488D1500 		leaq	16+_ZTV27TestHexIO_testJunkByteCount(%rip), %rdx
 2095      000000
 2096 0046 488B45E8 		movq	-24(%rbp), %rax
 2097 004a 488910   		movq	%rdx, (%rax)
 2098              	.LBE7:
 2099 004d 90       		nop
 2100 004e 488B5DF8 		movq	-8(%rbp), %rbx
 2101 0052 C9       		leave
 2102              		.cfi_def_cfa 7, 8
 2103 0053 C3       		ret
 2104              		.cfi_endproc
 2105              	.LFE1222:
 2107              		.weak	_ZN27TestHexIO_testJunkByteCountC1Ev
 2108              		.set	_ZN27TestHexIO_testJunkByteCountC1Ev,_ZN27TestHexIO_testJunkByteCountC2Ev
 2109              		.globl	testHexIO_testJunkByteCountInstance
 2110              		.bss
 2111 00b9 00000000 		.align 32
 2111      000000
 2114              	testHexIO_testJunkByteCountInstance:
 2115 00c0 00000000 		.zero	56
 2115      00000000 
 2115      00000000 
 2115      00000000 
 2115      00000000 
 2116              		.globl	adderHexIO_testJunkByteCount
 2119              	adderHexIO_testJunkByteCount:
 2120 00f8 00       		.zero	1
 2121              		.section	.rodata
 2122              	.LC20:
 2123 0350 3A2E2E30 		.string	":..0BE10075820022F7\n"
 2123      42453130 
 2123      30373538 
 2123      32303032 
 2123      3246370A 
 2124 0365 000000   		.align 8
 2125              	.LC21:
 2126 0368 556E6861 		.string	"Unhandled exception in CHECK_EQUAL(HEX_JUNK_BYTE_COUNT, status)"
 2126      6E646C65 
 2126      64206578 
 2126      63657074 
 2126      696F6E20 
 2127              		.text
 2128 0e77 90       		.align 2
 2129              		.globl	_ZNK27TestHexIO_testJunkByteCount7RunImplEv
 2131              	_ZNK27TestHexIO_testJunkByteCount7RunImplEv:
 2132              	.LFB1224:
 2133              		.loc 4 82 31
 2134              		.cfi_startproc
 2135              		.cfi_personality 0x9b,DW.ref.__gxx_personality_v0
 2136              		.cfi_lsda 0x1b,.LLSDA1224
 2137 0e78 F30F1EFA 		endbr64
 2138 0e7c 55       		pushq	%rbp
 2139              		.cfi_def_cfa_offset 16
 2140              		.cfi_offset 6, -16
 2141 0e7d 4889E5   		movq	%rsp, %rbp
 2142              		.cfi_def_cfa_register 6
 2143 0e80 53       		pushq	%rbx
 2144 0e81 4881EC88 		subq	$136, %rsp
 2144      000000
 2145              		.cfi_offset 3, -24
 2146 0e88 4889BD78 		movq	%rdi, -136(%rbp)
 2146      FFFFFF
 2147              		.loc 4 82 31
 2148 0e8f 64488B04 		movq	%fs:40, %rax
 2148      25280000 
 2148      00
 2149 0e98 488945E8 		movq	%rax, -24(%rbp)
 2150 0e9c 31C0     		xorl	%eax, %eax
  83:testHexIO.cpp **** 	Buffer data;
  84:testHexIO.cpp **** 	BufferStatus status;
  85:testHexIO.cpp **** 	const char *line = ":..0BE10075820022F7\n";
 2151              		.loc 4 85 14
 2152 0e9e 488D0500 		leaq	.LC20(%rip), %rax
 2152      000000
 2153 0ea5 48894598 		movq	%rax, -104(%rbp)
  86:testHexIO.cpp **** 	uint8 recordType;
  87:testHexIO.cpp **** 	uint32 seg = 0x00000000;
 2154              		.loc 4 87 9
 2155 0ea9 C7459000 		movl	$0, -112(%rbp)
 2155      000000
  88:testHexIO.cpp **** 	status = bufInitialise(&data, 1024, 0x00, NULL);
 2156              		.loc 4 88 24
 2157 0eb0 488D45A0 		leaq	-96(%rbp), %rax
 2158 0eb4 B9000000 		movl	$0, %ecx
 2158      00
 2159 0eb9 BA000000 		movl	$0, %edx
 2159      00
 2160 0ebe BE000400 		movl	$1024, %esi
 2160      00
 2161 0ec3 4889C7   		movq	%rax, %rdi
 2162              	.LEHB83:
 2163 0ec6 E8000000 		call	bufInitialise@PLT
 2163      00
 2164              	.LEHE83:
 2165              		.loc 4 88 9
 2166 0ecb 89458C   		movl	%eax, -116(%rbp)
 2167              	.LEHB84:
  89:testHexIO.cpp **** 	CHECK_EQUAL(BUF_SUCCESS, status);
 2168              		.loc 4 89 2
 2169 0ece E8000000 		call	_ZN8UnitTest11CurrentTest7DetailsEv@PLT
 2169      00
 2170 0ed3 488B08   		movq	(%rax), %rcx
 2171 0ed6 488D45C0 		leaq	-64(%rbp), %rax
 2172 0eda BA590000 		movl	$89, %edx
 2172      00
 2173 0edf 4889CE   		movq	%rcx, %rsi
 2174 0ee2 4889C7   		movq	%rax, %rdi
 2175 0ee5 E8000000 		call	_ZN8UnitTest11TestDetailsC1ERKS0_i@PLT
 2175      00
 2176              		.loc 4 89 2 is_stmt 0 discriminator 4
 2177 0eea C7459400 		movl	$0, -108(%rbp)
 2177      000000
 2178 0ef1 E8000000 		call	_ZN8UnitTest11CurrentTest7ResultsEv@PLT
 2178      00
 2179 0ef6 488B00   		movq	(%rax), %rax
 2180 0ef9 488D4DC0 		leaq	-64(%rbp), %rcx
 2181 0efd 488D558C 		leaq	-116(%rbp), %rdx
 2182 0f01 488D7594 		leaq	-108(%rbp), %rsi
 2183 0f05 4889C7   		movq	%rax, %rdi
 2184 0f08 E8000000 		call	_ZN8UnitTest10CheckEqualI12BufferStatusS1_EEvRNS_11TestResultsERKT_RKT0_RKNS_11TestDetailsE
 2184      00
 2185              	.LEHE84:
 2186              	.L111:
  90:testHexIO.cpp **** 	status = bufProcessLine(line, 0, &data, NULL, &seg, &recordType, NULL);
 2187              		.loc 4 90 25 is_stmt 1
 2188 0f0d 488D758B 		leaq	-117(%rbp), %rsi
 2189 0f11 488D4D90 		leaq	-112(%rbp), %rcx
 2190 0f15 488D55A0 		leaq	-96(%rbp), %rdx
 2191 0f19 488B4598 		movq	-104(%rbp), %rax
 2192 0f1d 4883EC08 		subq	$8, %rsp
 2193 0f21 6A00     		pushq	$0
 2194 0f23 4989F1   		movq	%rsi, %r9
 2195 0f26 4989C8   		movq	%rcx, %r8
 2196 0f29 B9000000 		movl	$0, %ecx
 2196      00
 2197 0f2e BE000000 		movl	$0, %esi
 2197      00
 2198 0f33 4889C7   		movq	%rax, %rdi
 2199              	.LEHB85:
 2200 0f36 E8000000 		call	bufProcessLine@PLT
 2200      00
 2201              	.LEHE85:
 2202 0f3b 4883C410 		addq	$16, %rsp
 2203              		.loc 4 90 9
 2204 0f3f 89458C   		movl	%eax, -116(%rbp)
 2205              	.LEHB86:
  91:testHexIO.cpp **** 	CHECK_EQUAL(HEX_JUNK_BYTE_COUNT, status);
 2206              		.loc 4 91 2
 2207 0f42 E8000000 		call	_ZN8UnitTest11CurrentTest7DetailsEv@PLT
 2207      00
 2208 0f47 488B08   		movq	(%rax), %rcx
 2209 0f4a 488D45C0 		leaq	-64(%rbp), %rax
 2210 0f4e BA5B0000 		movl	$91, %edx
 2210      00
 2211 0f53 4889CE   		movq	%rcx, %rsi
 2212 0f56 4889C7   		movq	%rax, %rdi
 2213 0f59 E8000000 		call	_ZN8UnitTest11TestDetailsC1ERKS0_i@PLT
 2213      00
 2214              		.loc 4 91 2 is_stmt 0 discriminator 4
 2215 0f5e C7459409 		movl	$9, -108(%rbp)
 2215      000000
 2216 0f65 E8000000 		call	_ZN8UnitTest11CurrentTest7ResultsEv@PLT
 2216      00
 2217 0f6a 488B00   		movq	(%rax), %rax
 2218 0f6d 488D4DC0 		leaq	-64(%rbp), %rcx
 2219 0f71 488D558C 		leaq	-116(%rbp), %rdx
 2220 0f75 488D7594 		leaq	-108(%rbp), %rsi
 2221 0f79 4889C7   		movq	%rax, %rdi
 2222 0f7c E8000000 		call	_ZN8UnitTest10CheckEqualI12BufferStatusS1_EEvRNS_11TestResultsERKT_RKT0_RKNS_11TestDetailsE
 2222      00
 2223              	.LEHE86:
 2224              	.L114:
  92:testHexIO.cpp **** 	bufDestroy(&data);
 2225              		.loc 4 92 12 is_stmt 1
 2226 0f81 488D45A0 		leaq	-96(%rbp), %rax
 2227 0f85 4889C7   		movq	%rax, %rdi
 2228              	.LEHB87:
 2229 0f88 E8000000 		call	bufDestroy@PLT
 2229      00
 2230              	.LEHE87:
  93:testHexIO.cpp **** }
 2231              		.loc 4 93 1
 2232 0f8d 90       		nop
 2233 0f8e 488B45E8 		movq	-24(%rbp), %rax
 2234 0f92 64482B04 		subq	%fs:40, %rax
 2234      25280000 
 2234      00
 2235 0f9b 0F84D800 		je	.L116
 2235      0000
 2236 0fa1 E9CE0000 		jmp	.L121
 2236      00
 2237              	.L117:
 2238 0fa6 F30F1EFA 		endbr64
  89:testHexIO.cpp **** 	status = bufProcessLine(line, 0, &data, NULL, &seg, &recordType, NULL);
 2239              		.loc 4 89 2
 2240 0faa 4889C7   		movq	%rax, %rdi
 2241 0fad E8000000 		call	__cxa_begin_catch@PLT
 2241      00
 2242              	.LEHB88:
 2243 0fb2 E8000000 		call	_ZN8UnitTest11CurrentTest7ResultsEv@PLT
 2243      00
  89:testHexIO.cpp **** 	status = bufProcessLine(line, 0, &data, NULL, &seg, &recordType, NULL);
 2244              		.loc 4 89 2 is_stmt 0 discriminator 3
 2245 0fb7 488B18   		movq	(%rax), %rbx
 2246 0fba E8000000 		call	_ZN8UnitTest11CurrentTest7DetailsEv@PLT
 2246      00
  89:testHexIO.cpp **** 	status = bufProcessLine(line, 0, &data, NULL, &seg, &recordType, NULL);
 2247              		.loc 4 89 2 discriminator 11
 2248 0fbf 488B08   		movq	(%rax), %rcx
 2249 0fc2 488D45C0 		leaq	-64(%rbp), %rax
 2250 0fc6 BA590000 		movl	$89, %edx
 2250      00
 2251 0fcb 4889CE   		movq	%rcx, %rsi
 2252 0fce 4889C7   		movq	%rax, %rdi
 2253 0fd1 E8000000 		call	_ZN8UnitTest11TestDetailsC1ERKS0_i@PLT
 2253      00
  89:testHexIO.cpp **** 	status = bufProcessLine(line, 0, &data, NULL, &seg, &recordType, NULL);
 2254              		.loc 4 89 2 discriminator 15
 2255 0fd6 488D45C0 		leaq	-64(%rbp), %rax
 2256 0fda 488D1500 		leaq	.LC4(%rip), %rdx
 2256      000000
 2257 0fe1 4889C6   		movq	%rax, %rsi
 2258 0fe4 4889DF   		movq	%rbx, %rdi
 2259 0fe7 E8000000 		call	_ZN8UnitTest11TestResults13OnTestFailureERKNS_11TestDetailsEPKc@PLT
 2259      00
 2260              	.LEHE88:
 2261              	.LEHB89:
  89:testHexIO.cpp **** 	status = bufProcessLine(line, 0, &data, NULL, &seg, &recordType, NULL);
 2262              		.loc 4 89 2 discriminator 17
 2263 0fec E8000000 		call	__cxa_end_catch@PLT
 2263      00
 2264              	.LEHE89:
 2265 0ff1 E917FFFF 		jmp	.L111
 2265      FF
 2266              	.L118:
 2267 0ff6 F30F1EFA 		endbr64
  89:testHexIO.cpp **** 	status = bufProcessLine(line, 0, &data, NULL, &seg, &recordType, NULL);
 2268              		.loc 4 89 2
 2269 0ffa 4889C3   		movq	%rax, %rbx
 2270 0ffd E8000000 		call	__cxa_end_catch@PLT
 2270      00
 2271 1002 4889D8   		movq	%rbx, %rax
 2272 1005 4889C7   		movq	%rax, %rdi
 2273              	.LEHB90:
 2274 1008 E8000000 		call	_Unwind_Resume@PLT
 2274      00
 2275              	.LEHE90:
 2276              	.L119:
 2277 100d F30F1EFA 		endbr64
  91:testHexIO.cpp **** 	bufDestroy(&data);
 2278              		.loc 4 91 2 is_stmt 1
 2279 1011 4889C7   		movq	%rax, %rdi
 2280 1014 E8000000 		call	__cxa_begin_catch@PLT
 2280      00
 2281              	.LEHB91:
 2282 1019 E8000000 		call	_ZN8UnitTest11CurrentTest7ResultsEv@PLT
 2282      00
  91:testHexIO.cpp **** 	bufDestroy(&data);
 2283              		.loc 4 91 2 is_stmt 0 discriminator 3
 2284 101e 488B18   		movq	(%rax), %rbx
 2285 1021 E8000000 		call	_ZN8UnitTest11CurrentTest7DetailsEv@PLT
 2285      00
  91:testHexIO.cpp **** 	bufDestroy(&data);
 2286              		.loc 4 91 2 discriminator 11
 2287 1026 488B08   		movq	(%rax), %rcx
 2288 1029 488D45C0 		leaq	-64(%rbp), %rax
 2289 102d BA5B0000 		movl	$91, %edx
 2289      00
 2290 1032 4889CE   		movq	%rcx, %rsi
 2291 1035 4889C7   		movq	%rax, %rdi
 2292 1038 E8000000 		call	_ZN8UnitTest11TestDetailsC1ERKS0_i@PLT
 2292      00
  91:testHexIO.cpp **** 	bufDestroy(&data);
 2293              		.loc 4 91 2 discriminator 15
 2294 103d 488D45C0 		leaq	-64(%rbp), %rax
 2295 1041 488D1500 		leaq	.LC21(%rip), %rdx
 2295      000000
 2296 1048 4889C6   		movq	%rax, %rsi
 2297 104b 4889DF   		movq	%rbx, %rdi
 2298 104e E8000000 		call	_ZN8UnitTest11TestResults13OnTestFailureERKNS_11TestDetailsEPKc@PLT
 2298      00
 2299              	.LEHE91:
 2300              	.LEHB92:
  91:testHexIO.cpp **** 	bufDestroy(&data);
 2301              		.loc 4 91 2 discriminator 17
 2302 1053 E8000000 		call	__cxa_end_catch@PLT
 2302      00
 2303              	.LEHE92:
 2304 1058 E924FFFF 		jmp	.L114
 2304      FF
 2305              	.L120:
 2306 105d F30F1EFA 		endbr64
  91:testHexIO.cpp **** 	bufDestroy(&data);
 2307              		.loc 4 91 2
 2308 1061 4889C3   		movq	%rax, %rbx
 2309 1064 E8000000 		call	__cxa_end_catch@PLT
 2309      00
 2310 1069 4889D8   		movq	%rbx, %rax
 2311 106c 4889C7   		movq	%rax, %rdi
 2312              	.LEHB93:
 2313 106f E8000000 		call	_Unwind_Resume@PLT
 2313      00
 2314              	.LEHE93:
 2315              	.L121:
 2316              		.loc 4 93 1 is_stmt 1
 2317 1074 E8000000 		call	__stack_chk_fail@PLT
 2317      00
 2318              	.L116:
 2319 1079 488B5DF8 		movq	-8(%rbp), %rbx
 2320 107d C9       		leave
 2321              		.cfi_def_cfa 7, 8
 2322 107e C3       		ret
 2323              		.cfi_endproc
 2324              	.LFE1224:
 2325              		.section	.gcc_except_table
 2326              		.align 4
 2327              	.LLSDA1224:
 2328 01d0 FF       		.byte	0xff
 2329 01d1 9B       		.byte	0x9b
 2330 01d2 41       		.uleb128 .LLSDATT1224-.LLSDATTD1224
 2331              	.LLSDATTD1224:
 2332 01d3 01       		.byte	0x1
 2333 01d4 39       		.uleb128 .LLSDACSE1224-.LLSDACSB1224
 2334              	.LLSDACSB1224:
 2335 01d5 4E       		.uleb128 .LEHB83-.LFB1224
 2336 01d6 05       		.uleb128 .LEHE83-.LEHB83
 2337 01d7 00       		.uleb128 0
 2338 01d8 00       		.uleb128 0
 2339 01d9 56       		.uleb128 .LEHB84-.LFB1224
 2340 01da 3F       		.uleb128 .LEHE84-.LEHB84
 2341 01db AE02     		.uleb128 .L117-.LFB1224
 2342 01dd 01       		.uleb128 0x1
 2343 01de BE01     		.uleb128 .LEHB85-.LFB1224
 2344 01e0 05       		.uleb128 .LEHE85-.LEHB85
 2345 01e1 00       		.uleb128 0
 2346 01e2 00       		.uleb128 0
 2347 01e3 CA01     		.uleb128 .LEHB86-.LFB1224
 2348 01e5 3F       		.uleb128 .LEHE86-.LEHB86
 2349 01e6 9503     		.uleb128 .L119-.LFB1224
 2350 01e8 01       		.uleb128 0x1
 2351 01e9 9002     		.uleb128 .LEHB87-.LFB1224
 2352 01eb 05       		.uleb128 .LEHE87-.LEHB87
 2353 01ec 00       		.uleb128 0
 2354 01ed 00       		.uleb128 0
 2355 01ee BA02     		.uleb128 .LEHB88-.LFB1224
 2356 01f0 3A       		.uleb128 .LEHE88-.LEHB88
 2357 01f1 FE02     		.uleb128 .L118-.LFB1224
 2358 01f3 00       		.uleb128 0
 2359 01f4 F402     		.uleb128 .LEHB89-.LFB1224
 2360 01f6 05       		.uleb128 .LEHE89-.LEHB89
 2361 01f7 00       		.uleb128 0
 2362 01f8 00       		.uleb128 0
 2363 01f9 9003     		.uleb128 .LEHB90-.LFB1224
 2364 01fb 05       		.uleb128 .LEHE90-.LEHB90
 2365 01fc 00       		.uleb128 0
 2366 01fd 00       		.uleb128 0
 2367 01fe A103     		.uleb128 .LEHB91-.LFB1224
 2368 0200 3A       		.uleb128 .LEHE91-.LEHB91
 2369 0201 E503     		.uleb128 .L120-.LFB1224
 2370 0203 00       		.uleb128 0
 2371 0204 DB03     		.uleb128 .LEHB92-.LFB1224
 2372 0206 05       		.uleb128 .LEHE92-.LEHB92
 2373 0207 00       		.uleb128 0
 2374 0208 00       		.uleb128 0
 2375 0209 F703     		.uleb128 .LEHB93-.LFB1224
 2376 020b 05       		.uleb128 .LEHE93-.LEHB93
 2377 020c 00       		.uleb128 0
 2378 020d 00       		.uleb128 0
 2379              	.LLSDACSE1224:
 2380 020e 01       		.byte	0x1
 2381 020f 00       		.byte	0
 2382              		.align 4
 2383 0210 00000000 		.long	0
 2384              	
 2385              	.LLSDATT1224:
 2386              		.text
 2388              		.section	.rodata
 2389              	.LC22:
 2390 03a8 48657849 		.string	"HexIO_testJunkAddrMsb"
 2390      4F5F7465 
 2390      73744A75 
 2390      6E6B4164 
 2390      64724D73 
 2391              		.section	.text._ZN25TestHexIO_testJunkAddrMsbC2Ev,"axG",@progbits,_ZN25TestHexIO_testJunkAddrMsbC5
 2392              		.align 2
 2393              		.weak	_ZN25TestHexIO_testJunkAddrMsbC2Ev
 2395              	_ZN25TestHexIO_testJunkAddrMsbC2Ev:
 2396              	.LFB1226:
  94:testHexIO.cpp **** 
  95:testHexIO.cpp **** TEST(HexIO_testJunkAddrMsb) {
 2397              		.loc 4 95 1
 2398              		.cfi_startproc
 2399 0000 F30F1EFA 		endbr64
 2400 0004 55       		pushq	%rbp
 2401              		.cfi_def_cfa_offset 16
 2402              		.cfi_offset 6, -16
 2403 0005 4889E5   		movq	%rsp, %rbp
 2404              		.cfi_def_cfa_register 6
 2405 0008 53       		pushq	%rbx
 2406 0009 4883EC18 		subq	$24, %rsp
 2407              		.cfi_offset 3, -24
 2408 000d 48897DE8 		movq	%rdi, -24(%rbp)
 2409              	.LBB8:
 2410              		.loc 4 95 1
 2411 0011 488B5DE8 		movq	-24(%rbp), %rbx
 2412 0015 E8000000 		call	_ZN13UnitTestSuite12GetSuiteNameEv
 2412      00
 2413 001a 4889C2   		movq	%rax, %rdx
 2414 001d 41B85F00 		movl	$95, %r8d
 2414      0000
 2415 0023 488D0500 		leaq	.LC1(%rip), %rax
 2415      000000
 2416 002a 4889C1   		movq	%rax, %rcx
 2417 002d 488D0500 		leaq	.LC22(%rip), %rax
 2417      000000
 2418 0034 4889C6   		movq	%rax, %rsi
 2419 0037 4889DF   		movq	%rbx, %rdi
 2420 003a E8000000 		call	_ZN8UnitTest4TestC2EPKcS2_S2_i@PLT
 2420      00
 2421 003f 488D1500 		leaq	16+_ZTV25TestHexIO_testJunkAddrMsb(%rip), %rdx
 2421      000000
 2422 0046 488B45E8 		movq	-24(%rbp), %rax
 2423 004a 488910   		movq	%rdx, (%rax)
 2424              	.LBE8:
 2425 004d 90       		nop
 2426 004e 488B5DF8 		movq	-8(%rbp), %rbx
 2427 0052 C9       		leave
 2428              		.cfi_def_cfa 7, 8
 2429 0053 C3       		ret
 2430              		.cfi_endproc
 2431              	.LFE1226:
 2433              		.weak	_ZN25TestHexIO_testJunkAddrMsbC1Ev
 2434              		.set	_ZN25TestHexIO_testJunkAddrMsbC1Ev,_ZN25TestHexIO_testJunkAddrMsbC2Ev
 2435              		.globl	testHexIO_testJunkAddrMsbInstance
 2436              		.bss
 2437 00f9 00000000 		.align 32
 2437      000000
 2440              	testHexIO_testJunkAddrMsbInstance:
 2441 0100 00000000 		.zero	56
 2441      00000000 
 2441      00000000 
 2441      00000000 
 2441      00000000 
 2442              		.globl	adderHexIO_testJunkAddrMsb
 2445              	adderHexIO_testJunkAddrMsb:
 2446 0138 00       		.zero	1
 2447              		.section	.rodata
 2448              	.LC23:
 2449 03be 3A30342E 		.string	":04..E10075820022F7\n"
 2449      2E453130 
 2449      30373538 
 2449      32303032 
 2449      3246370A 
 2450 03d3 00000000 		.align 8
 2450      00
 2451              	.LC24:
 2452 03d8 556E6861 		.string	"Unhandled exception in CHECK_EQUAL(HEX_JUNK_ADDR_MSB, status)"
 2452      6E646C65 
 2452      64206578 
 2452      63657074 
 2452      696F6E20 
 2453              		.text
 2454 107f 90       		.align 2
 2455              		.globl	_ZNK25TestHexIO_testJunkAddrMsb7RunImplEv
 2457              	_ZNK25TestHexIO_testJunkAddrMsb7RunImplEv:
 2458              	.LFB1228:
 2459              		.loc 4 95 29
 2460              		.cfi_startproc
 2461              		.cfi_personality 0x9b,DW.ref.__gxx_personality_v0
 2462              		.cfi_lsda 0x1b,.LLSDA1228
 2463 1080 F30F1EFA 		endbr64
 2464 1084 55       		pushq	%rbp
 2465              		.cfi_def_cfa_offset 16
 2466              		.cfi_offset 6, -16
 2467 1085 4889E5   		movq	%rsp, %rbp
 2468              		.cfi_def_cfa_register 6
 2469 1088 53       		pushq	%rbx
 2470 1089 4881EC88 		subq	$136, %rsp
 2470      000000
 2471              		.cfi_offset 3, -24
 2472 1090 4889BD78 		movq	%rdi, -136(%rbp)
 2472      FFFFFF
 2473              		.loc 4 95 29
 2474 1097 64488B04 		movq	%fs:40, %rax
 2474      25280000 
 2474      00
 2475 10a0 488945E8 		movq	%rax, -24(%rbp)
 2476 10a4 31C0     		xorl	%eax, %eax
  96:testHexIO.cpp **** 	Buffer data;
  97:testHexIO.cpp **** 	BufferStatus status;
  98:testHexIO.cpp **** 	const char *line = ":04..E10075820022F7\n";
 2477              		.loc 4 98 14
 2478 10a6 488D0500 		leaq	.LC23(%rip), %rax
 2478      000000
 2479 10ad 48894598 		movq	%rax, -104(%rbp)
  99:testHexIO.cpp **** 	uint8 recordType;
 100:testHexIO.cpp **** 	uint32 seg = 0x00000000;
 2480              		.loc 4 100 9
 2481 10b1 C7459000 		movl	$0, -112(%rbp)
 2481      000000
 101:testHexIO.cpp **** 	status = bufInitialise(&data, 1024, 0x00, NULL);
 2482              		.loc 4 101 24
 2483 10b8 488D45A0 		leaq	-96(%rbp), %rax
 2484 10bc B9000000 		movl	$0, %ecx
 2484      00
 2485 10c1 BA000000 		movl	$0, %edx
 2485      00
 2486 10c6 BE000400 		movl	$1024, %esi
 2486      00
 2487 10cb 4889C7   		movq	%rax, %rdi
 2488              	.LEHB94:
 2489 10ce E8000000 		call	bufInitialise@PLT
 2489      00
 2490              	.LEHE94:
 2491              		.loc 4 101 9
 2492 10d3 89458C   		movl	%eax, -116(%rbp)
 2493              	.LEHB95:
 102:testHexIO.cpp **** 	CHECK_EQUAL(BUF_SUCCESS, status);
 2494              		.loc 4 102 2
 2495 10d6 E8000000 		call	_ZN8UnitTest11CurrentTest7DetailsEv@PLT
 2495      00
 2496 10db 488B08   		movq	(%rax), %rcx
 2497 10de 488D45C0 		leaq	-64(%rbp), %rax
 2498 10e2 BA660000 		movl	$102, %edx
 2498      00
 2499 10e7 4889CE   		movq	%rcx, %rsi
 2500 10ea 4889C7   		movq	%rax, %rdi
 2501 10ed E8000000 		call	_ZN8UnitTest11TestDetailsC1ERKS0_i@PLT
 2501      00
 2502              		.loc 4 102 2 is_stmt 0 discriminator 4
 2503 10f2 C7459400 		movl	$0, -108(%rbp)
 2503      000000
 2504 10f9 E8000000 		call	_ZN8UnitTest11CurrentTest7ResultsEv@PLT
 2504      00
 2505 10fe 488B00   		movq	(%rax), %rax
 2506 1101 488D4DC0 		leaq	-64(%rbp), %rcx
 2507 1105 488D558C 		leaq	-116(%rbp), %rdx
 2508 1109 488D7594 		leaq	-108(%rbp), %rsi
 2509 110d 4889C7   		movq	%rax, %rdi
 2510 1110 E8000000 		call	_ZN8UnitTest10CheckEqualI12BufferStatusS1_EEvRNS_11TestResultsERKT_RKT0_RKNS_11TestDetailsE
 2510      00
 2511              	.LEHE95:
 2512              	.L125:
 103:testHexIO.cpp **** 	status = bufProcessLine(line, 0, &data, NULL, &seg, &recordType, NULL);
 2513              		.loc 4 103 25 is_stmt 1
 2514 1115 488D758B 		leaq	-117(%rbp), %rsi
 2515 1119 488D4D90 		leaq	-112(%rbp), %rcx
 2516 111d 488D55A0 		leaq	-96(%rbp), %rdx
 2517 1121 488B4598 		movq	-104(%rbp), %rax
 2518 1125 4883EC08 		subq	$8, %rsp
 2519 1129 6A00     		pushq	$0
 2520 112b 4989F1   		movq	%rsi, %r9
 2521 112e 4989C8   		movq	%rcx, %r8
 2522 1131 B9000000 		movl	$0, %ecx
 2522      00
 2523 1136 BE000000 		movl	$0, %esi
 2523      00
 2524 113b 4889C7   		movq	%rax, %rdi
 2525              	.LEHB96:
 2526 113e E8000000 		call	bufProcessLine@PLT
 2526      00
 2527              	.LEHE96:
 2528 1143 4883C410 		addq	$16, %rsp
 2529              		.loc 4 103 9
 2530 1147 89458C   		movl	%eax, -116(%rbp)
 2531              	.LEHB97:
 104:testHexIO.cpp **** 	CHECK_EQUAL(HEX_JUNK_ADDR_MSB, status);
 2532              		.loc 4 104 2
 2533 114a E8000000 		call	_ZN8UnitTest11CurrentTest7DetailsEv@PLT
 2533      00
 2534 114f 488B08   		movq	(%rax), %rcx
 2535 1152 488D45C0 		leaq	-64(%rbp), %rax
 2536 1156 BA680000 		movl	$104, %edx
 2536      00
 2537 115b 4889CE   		movq	%rcx, %rsi
 2538 115e 4889C7   		movq	%rax, %rdi
 2539 1161 E8000000 		call	_ZN8UnitTest11TestDetailsC1ERKS0_i@PLT
 2539      00
 2540              		.loc 4 104 2 is_stmt 0 discriminator 4
 2541 1166 C745940A 		movl	$10, -108(%rbp)
 2541      000000
 2542 116d E8000000 		call	_ZN8UnitTest11CurrentTest7ResultsEv@PLT
 2542      00
 2543 1172 488B00   		movq	(%rax), %rax
 2544 1175 488D4DC0 		leaq	-64(%rbp), %rcx
 2545 1179 488D558C 		leaq	-116(%rbp), %rdx
 2546 117d 488D7594 		leaq	-108(%rbp), %rsi
 2547 1181 4889C7   		movq	%rax, %rdi
 2548 1184 E8000000 		call	_ZN8UnitTest10CheckEqualI12BufferStatusS1_EEvRNS_11TestResultsERKT_RKT0_RKNS_11TestDetailsE
 2548      00
 2549              	.LEHE97:
 2550              	.L128:
 105:testHexIO.cpp **** 	bufDestroy(&data);
 2551              		.loc 4 105 12 is_stmt 1
 2552 1189 488D45A0 		leaq	-96(%rbp), %rax
 2553 118d 4889C7   		movq	%rax, %rdi
 2554              	.LEHB98:
 2555 1190 E8000000 		call	bufDestroy@PLT
 2555      00
 2556              	.LEHE98:
 106:testHexIO.cpp **** }
 2557              		.loc 4 106 1
 2558 1195 90       		nop
 2559 1196 488B45E8 		movq	-24(%rbp), %rax
 2560 119a 64482B04 		subq	%fs:40, %rax
 2560      25280000 
 2560      00
 2561 11a3 0F84D800 		je	.L130
 2561      0000
 2562 11a9 E9CE0000 		jmp	.L135
 2562      00
 2563              	.L131:
 2564 11ae F30F1EFA 		endbr64
 102:testHexIO.cpp **** 	status = bufProcessLine(line, 0, &data, NULL, &seg, &recordType, NULL);
 2565              		.loc 4 102 2
 2566 11b2 4889C7   		movq	%rax, %rdi
 2567 11b5 E8000000 		call	__cxa_begin_catch@PLT
 2567      00
 2568              	.LEHB99:
 2569 11ba E8000000 		call	_ZN8UnitTest11CurrentTest7ResultsEv@PLT
 2569      00
 102:testHexIO.cpp **** 	status = bufProcessLine(line, 0, &data, NULL, &seg, &recordType, NULL);
 2570              		.loc 4 102 2 is_stmt 0 discriminator 3
 2571 11bf 488B18   		movq	(%rax), %rbx
 2572 11c2 E8000000 		call	_ZN8UnitTest11CurrentTest7DetailsEv@PLT
 2572      00
 102:testHexIO.cpp **** 	status = bufProcessLine(line, 0, &data, NULL, &seg, &recordType, NULL);
 2573              		.loc 4 102 2 discriminator 11
 2574 11c7 488B08   		movq	(%rax), %rcx
 2575 11ca 488D45C0 		leaq	-64(%rbp), %rax
 2576 11ce BA660000 		movl	$102, %edx
 2576      00
 2577 11d3 4889CE   		movq	%rcx, %rsi
 2578 11d6 4889C7   		movq	%rax, %rdi
 2579 11d9 E8000000 		call	_ZN8UnitTest11TestDetailsC1ERKS0_i@PLT
 2579      00
 102:testHexIO.cpp **** 	status = bufProcessLine(line, 0, &data, NULL, &seg, &recordType, NULL);
 2580              		.loc 4 102 2 discriminator 15
 2581 11de 488D45C0 		leaq	-64(%rbp), %rax
 2582 11e2 488D1500 		leaq	.LC4(%rip), %rdx
 2582      000000
 2583 11e9 4889C6   		movq	%rax, %rsi
 2584 11ec 4889DF   		movq	%rbx, %rdi
 2585 11ef E8000000 		call	_ZN8UnitTest11TestResults13OnTestFailureERKNS_11TestDetailsEPKc@PLT
 2585      00
 2586              	.LEHE99:
 2587              	.LEHB100:
 102:testHexIO.cpp **** 	status = bufProcessLine(line, 0, &data, NULL, &seg, &recordType, NULL);
 2588              		.loc 4 102 2 discriminator 17
 2589 11f4 E8000000 		call	__cxa_end_catch@PLT
 2589      00
 2590              	.LEHE100:
 2591 11f9 E917FFFF 		jmp	.L125
 2591      FF
 2592              	.L132:
 2593 11fe F30F1EFA 		endbr64
 102:testHexIO.cpp **** 	status = bufProcessLine(line, 0, &data, NULL, &seg, &recordType, NULL);
 2594              		.loc 4 102 2
 2595 1202 4889C3   		movq	%rax, %rbx
 2596 1205 E8000000 		call	__cxa_end_catch@PLT
 2596      00
 2597 120a 4889D8   		movq	%rbx, %rax
 2598 120d 4889C7   		movq	%rax, %rdi
 2599              	.LEHB101:
 2600 1210 E8000000 		call	_Unwind_Resume@PLT
 2600      00
 2601              	.LEHE101:
 2602              	.L133:
 2603 1215 F30F1EFA 		endbr64
 104:testHexIO.cpp **** 	bufDestroy(&data);
 2604              		.loc 4 104 2 is_stmt 1
 2605 1219 4889C7   		movq	%rax, %rdi
 2606 121c E8000000 		call	__cxa_begin_catch@PLT
 2606      00
 2607              	.LEHB102:
 2608 1221 E8000000 		call	_ZN8UnitTest11CurrentTest7ResultsEv@PLT
 2608      00
 104:testHexIO.cpp **** 	bufDestroy(&data);
 2609              		.loc 4 104 2 is_stmt 0 discriminator 3
 2610 1226 488B18   		movq	(%rax), %rbx
 2611 1229 E8000000 		call	_ZN8UnitTest11CurrentTest7DetailsEv@PLT
 2611      00
 104:testHexIO.cpp **** 	bufDestroy(&data);
 2612              		.loc 4 104 2 discriminator 11
 2613 122e 488B08   		movq	(%rax), %rcx
 2614 1231 488D45C0 		leaq	-64(%rbp), %rax
 2615 1235 BA680000 		movl	$104, %edx
 2615      00
 2616 123a 4889CE   		movq	%rcx, %rsi
 2617 123d 4889C7   		movq	%rax, %rdi
 2618 1240 E8000000 		call	_ZN8UnitTest11TestDetailsC1ERKS0_i@PLT
 2618      00
 104:testHexIO.cpp **** 	bufDestroy(&data);
 2619              		.loc 4 104 2 discriminator 15
 2620 1245 488D45C0 		leaq	-64(%rbp), %rax
 2621 1249 488D1500 		leaq	.LC24(%rip), %rdx
 2621      000000
 2622 1250 4889C6   		movq	%rax, %rsi
 2623 1253 4889DF   		movq	%rbx, %rdi
 2624 1256 E8000000 		call	_ZN8UnitTest11TestResults13OnTestFailureERKNS_11TestDetailsEPKc@PLT
 2624      00
 2625              	.LEHE102:
 2626              	.LEHB103:
 104:testHexIO.cpp **** 	bufDestroy(&data);
 2627              		.loc 4 104 2 discriminator 17
 2628 125b E8000000 		call	__cxa_end_catch@PLT
 2628      00
 2629              	.LEHE103:
 2630 1260 E924FFFF 		jmp	.L128
 2630      FF
 2631              	.L134:
 2632 1265 F30F1EFA 		endbr64
 104:testHexIO.cpp **** 	bufDestroy(&data);
 2633              		.loc 4 104 2
 2634 1269 4889C3   		movq	%rax, %rbx
 2635 126c E8000000 		call	__cxa_end_catch@PLT
 2635      00
 2636 1271 4889D8   		movq	%rbx, %rax
 2637 1274 4889C7   		movq	%rax, %rdi
 2638              	.LEHB104:
 2639 1277 E8000000 		call	_Unwind_Resume@PLT
 2639      00
 2640              	.LEHE104:
 2641              	.L135:
 2642              		.loc 4 106 1 is_stmt 1
 2643 127c E8000000 		call	__stack_chk_fail@PLT
 2643      00
 2644              	.L130:
 2645 1281 488B5DF8 		movq	-8(%rbp), %rbx
 2646 1285 C9       		leave
 2647              		.cfi_def_cfa 7, 8
 2648 1286 C3       		ret
 2649              		.cfi_endproc
 2650              	.LFE1228:
 2651              		.section	.gcc_except_table
 2652              		.align 4
 2653              	.LLSDA1228:
 2654 0214 FF       		.byte	0xff
 2655 0215 9B       		.byte	0x9b
 2656 0216 41       		.uleb128 .LLSDATT1228-.LLSDATTD1228
 2657              	.LLSDATTD1228:
 2658 0217 01       		.byte	0x1
 2659 0218 39       		.uleb128 .LLSDACSE1228-.LLSDACSB1228
 2660              	.LLSDACSB1228:
 2661 0219 4E       		.uleb128 .LEHB94-.LFB1228
 2662 021a 05       		.uleb128 .LEHE94-.LEHB94
 2663 021b 00       		.uleb128 0
 2664 021c 00       		.uleb128 0
 2665 021d 56       		.uleb128 .LEHB95-.LFB1228
 2666 021e 3F       		.uleb128 .LEHE95-.LEHB95
 2667 021f AE02     		.uleb128 .L131-.LFB1228
 2668 0221 01       		.uleb128 0x1
 2669 0222 BE01     		.uleb128 .LEHB96-.LFB1228
 2670 0224 05       		.uleb128 .LEHE96-.LEHB96
 2671 0225 00       		.uleb128 0
 2672 0226 00       		.uleb128 0
 2673 0227 CA01     		.uleb128 .LEHB97-.LFB1228
 2674 0229 3F       		.uleb128 .LEHE97-.LEHB97
 2675 022a 9503     		.uleb128 .L133-.LFB1228
 2676 022c 01       		.uleb128 0x1
 2677 022d 9002     		.uleb128 .LEHB98-.LFB1228
 2678 022f 05       		.uleb128 .LEHE98-.LEHB98
 2679 0230 00       		.uleb128 0
 2680 0231 00       		.uleb128 0
 2681 0232 BA02     		.uleb128 .LEHB99-.LFB1228
 2682 0234 3A       		.uleb128 .LEHE99-.LEHB99
 2683 0235 FE02     		.uleb128 .L132-.LFB1228
 2684 0237 00       		.uleb128 0
 2685 0238 F402     		.uleb128 .LEHB100-.LFB1228
 2686 023a 05       		.uleb128 .LEHE100-.LEHB100
 2687 023b 00       		.uleb128 0
 2688 023c 00       		.uleb128 0
 2689 023d 9003     		.uleb128 .LEHB101-.LFB1228
 2690 023f 05       		.uleb128 .LEHE101-.LEHB101
 2691 0240 00       		.uleb128 0
 2692 0241 00       		.uleb128 0
 2693 0242 A103     		.uleb128 .LEHB102-.LFB1228
 2694 0244 3A       		.uleb128 .LEHE102-.LEHB102
 2695 0245 E503     		.uleb128 .L134-.LFB1228
 2696 0247 00       		.uleb128 0
 2697 0248 DB03     		.uleb128 .LEHB103-.LFB1228
 2698 024a 05       		.uleb128 .LEHE103-.LEHB103
 2699 024b 00       		.uleb128 0
 2700 024c 00       		.uleb128 0
 2701 024d F703     		.uleb128 .LEHB104-.LFB1228
 2702 024f 05       		.uleb128 .LEHE104-.LEHB104
 2703 0250 00       		.uleb128 0
 2704 0251 00       		.uleb128 0
 2705              	.LLSDACSE1228:
 2706 0252 01       		.byte	0x1
 2707 0253 00       		.byte	0
 2708              		.align 4
 2709 0254 00000000 		.long	0
 2710              	
 2711              	.LLSDATT1228:
 2712              		.text
 2714              		.section	.rodata
 2715              	.LC25:
 2716 0416 48657849 		.string	"HexIO_testJunkAddrLsb"
 2716      4F5F7465 
 2716      73744A75 
 2716      6E6B4164 
 2716      64724C73 
 2717              		.section	.text._ZN25TestHexIO_testJunkAddrLsbC2Ev,"axG",@progbits,_ZN25TestHexIO_testJunkAddrLsbC5
 2718              		.align 2
 2719              		.weak	_ZN25TestHexIO_testJunkAddrLsbC2Ev
 2721              	_ZN25TestHexIO_testJunkAddrLsbC2Ev:
 2722              	.LFB1230:
 107:testHexIO.cpp **** 
 108:testHexIO.cpp **** TEST(HexIO_testJunkAddrLsb) {
 2723              		.loc 4 108 1
 2724              		.cfi_startproc
 2725 0000 F30F1EFA 		endbr64
 2726 0004 55       		pushq	%rbp
 2727              		.cfi_def_cfa_offset 16
 2728              		.cfi_offset 6, -16
 2729 0005 4889E5   		movq	%rsp, %rbp
 2730              		.cfi_def_cfa_register 6
 2731 0008 53       		pushq	%rbx
 2732 0009 4883EC18 		subq	$24, %rsp
 2733              		.cfi_offset 3, -24
 2734 000d 48897DE8 		movq	%rdi, -24(%rbp)
 2735              	.LBB9:
 2736              		.loc 4 108 1
 2737 0011 488B5DE8 		movq	-24(%rbp), %rbx
 2738 0015 E8000000 		call	_ZN13UnitTestSuite12GetSuiteNameEv
 2738      00
 2739 001a 4889C2   		movq	%rax, %rdx
 2740 001d 41B86C00 		movl	$108, %r8d
 2740      0000
 2741 0023 488D0500 		leaq	.LC1(%rip), %rax
 2741      000000
 2742 002a 4889C1   		movq	%rax, %rcx
 2743 002d 488D0500 		leaq	.LC25(%rip), %rax
 2743      000000
 2744 0034 4889C6   		movq	%rax, %rsi
 2745 0037 4889DF   		movq	%rbx, %rdi
 2746 003a E8000000 		call	_ZN8UnitTest4TestC2EPKcS2_S2_i@PLT
 2746      00
 2747 003f 488D1500 		leaq	16+_ZTV25TestHexIO_testJunkAddrLsb(%rip), %rdx
 2747      000000
 2748 0046 488B45E8 		movq	-24(%rbp), %rax
 2749 004a 488910   		movq	%rdx, (%rax)
 2750              	.LBE9:
 2751 004d 90       		nop
 2752 004e 488B5DF8 		movq	-8(%rbp), %rbx
 2753 0052 C9       		leave
 2754              		.cfi_def_cfa 7, 8
 2755 0053 C3       		ret
 2756              		.cfi_endproc
 2757              	.LFE1230:
 2759              		.weak	_ZN25TestHexIO_testJunkAddrLsbC1Ev
 2760              		.set	_ZN25TestHexIO_testJunkAddrLsbC1Ev,_ZN25TestHexIO_testJunkAddrLsbC2Ev
 2761              		.globl	testHexIO_testJunkAddrLsbInstance
 2762              		.bss
 2763 0139 00000000 		.align 32
 2763      000000
 2766              	testHexIO_testJunkAddrLsbInstance:
 2767 0140 00000000 		.zero	56
 2767      00000000 
 2767      00000000 
 2767      00000000 
 2767      00000000 
 2768              		.globl	adderHexIO_testJunkAddrLsb
 2771              	adderHexIO_testJunkAddrLsb:
 2772 0178 00       		.zero	1
 2773              		.section	.rodata
 2774              	.LC26:
 2775 042c 3A303430 		.string	":040B..0075820022F7\n"
 2775      422E2E30 
 2775      30373538 
 2775      32303032 
 2775      3246370A 
 2776 0441 00000000 		.align 8
 2776      000000
 2777              	.LC27:
 2778 0448 556E6861 		.string	"Unhandled exception in CHECK_EQUAL(HEX_JUNK_ADDR_LSB, status)"
 2778      6E646C65 
 2778      64206578 
 2778      63657074 
 2778      696F6E20 
 2779              		.text
 2780 1287 90       		.align 2
 2781              		.globl	_ZNK25TestHexIO_testJunkAddrLsb7RunImplEv
 2783              	_ZNK25TestHexIO_testJunkAddrLsb7RunImplEv:
 2784              	.LFB1232:
 2785              		.loc 4 108 29
 2786              		.cfi_startproc
 2787              		.cfi_personality 0x9b,DW.ref.__gxx_personality_v0
 2788              		.cfi_lsda 0x1b,.LLSDA1232
 2789 1288 F30F1EFA 		endbr64
 2790 128c 55       		pushq	%rbp
 2791              		.cfi_def_cfa_offset 16
 2792              		.cfi_offset 6, -16
 2793 128d 4889E5   		movq	%rsp, %rbp
 2794              		.cfi_def_cfa_register 6
 2795 1290 53       		pushq	%rbx
 2796 1291 4881EC88 		subq	$136, %rsp
 2796      000000
 2797              		.cfi_offset 3, -24
 2798 1298 4889BD78 		movq	%rdi, -136(%rbp)
 2798      FFFFFF
 2799              		.loc 4 108 29
 2800 129f 64488B04 		movq	%fs:40, %rax
 2800      25280000 
 2800      00
 2801 12a8 488945E8 		movq	%rax, -24(%rbp)
 2802 12ac 31C0     		xorl	%eax, %eax
 109:testHexIO.cpp **** 	Buffer data;
 110:testHexIO.cpp **** 	BufferStatus status;
 111:testHexIO.cpp **** 	const char *line = ":040B..0075820022F7\n";
 2803              		.loc 4 111 14
 2804 12ae 488D0500 		leaq	.LC26(%rip), %rax
 2804      000000
 2805 12b5 48894598 		movq	%rax, -104(%rbp)
 112:testHexIO.cpp **** 	uint8 recordType;
 113:testHexIO.cpp **** 	uint32 seg = 0x00000000;
 2806              		.loc 4 113 9
 2807 12b9 C7459000 		movl	$0, -112(%rbp)
 2807      000000
 114:testHexIO.cpp **** 	status = bufInitialise(&data, 1024, 0x00, NULL);
 2808              		.loc 4 114 24
 2809 12c0 488D45A0 		leaq	-96(%rbp), %rax
 2810 12c4 B9000000 		movl	$0, %ecx
 2810      00
 2811 12c9 BA000000 		movl	$0, %edx
 2811      00
 2812 12ce BE000400 		movl	$1024, %esi
 2812      00
 2813 12d3 4889C7   		movq	%rax, %rdi
 2814              	.LEHB105:
 2815 12d6 E8000000 		call	bufInitialise@PLT
 2815      00
 2816              	.LEHE105:
 2817              		.loc 4 114 9
 2818 12db 89458C   		movl	%eax, -116(%rbp)
 2819              	.LEHB106:
 115:testHexIO.cpp **** 	CHECK_EQUAL(BUF_SUCCESS, status);
 2820              		.loc 4 115 2
 2821 12de E8000000 		call	_ZN8UnitTest11CurrentTest7DetailsEv@PLT
 2821      00
 2822 12e3 488B08   		movq	(%rax), %rcx
 2823 12e6 488D45C0 		leaq	-64(%rbp), %rax
 2824 12ea BA730000 		movl	$115, %edx
 2824      00
 2825 12ef 4889CE   		movq	%rcx, %rsi
 2826 12f2 4889C7   		movq	%rax, %rdi
 2827 12f5 E8000000 		call	_ZN8UnitTest11TestDetailsC1ERKS0_i@PLT
 2827      00
 2828              		.loc 4 115 2 is_stmt 0 discriminator 4
 2829 12fa C7459400 		movl	$0, -108(%rbp)
 2829      000000
 2830 1301 E8000000 		call	_ZN8UnitTest11CurrentTest7ResultsEv@PLT
 2830      00
 2831 1306 488B00   		movq	(%rax), %rax
 2832 1309 488D4DC0 		leaq	-64(%rbp), %rcx
 2833 130d 488D558C 		leaq	-116(%rbp), %rdx
 2834 1311 488D7594 		leaq	-108(%rbp), %rsi
 2835 1315 4889C7   		movq	%rax, %rdi
 2836 1318 E8000000 		call	_ZN8UnitTest10CheckEqualI12BufferStatusS1_EEvRNS_11TestResultsERKT_RKT0_RKNS_11TestDetailsE
 2836      00
 2837              	.LEHE106:
 2838              	.L139:
 116:testHexIO.cpp **** 	status = bufProcessLine(line, 0, &data, NULL, &seg, &recordType, NULL);
 2839              		.loc 4 116 25 is_stmt 1
 2840 131d 488D758B 		leaq	-117(%rbp), %rsi
 2841 1321 488D4D90 		leaq	-112(%rbp), %rcx
 2842 1325 488D55A0 		leaq	-96(%rbp), %rdx
 2843 1329 488B4598 		movq	-104(%rbp), %rax
 2844 132d 4883EC08 		subq	$8, %rsp
 2845 1331 6A00     		pushq	$0
 2846 1333 4989F1   		movq	%rsi, %r9
 2847 1336 4989C8   		movq	%rcx, %r8
 2848 1339 B9000000 		movl	$0, %ecx
 2848      00
 2849 133e BE000000 		movl	$0, %esi
 2849      00
 2850 1343 4889C7   		movq	%rax, %rdi
 2851              	.LEHB107:
 2852 1346 E8000000 		call	bufProcessLine@PLT
 2852      00
 2853              	.LEHE107:
 2854 134b 4883C410 		addq	$16, %rsp
 2855              		.loc 4 116 9
 2856 134f 89458C   		movl	%eax, -116(%rbp)
 2857              	.LEHB108:
 117:testHexIO.cpp **** 	CHECK_EQUAL(HEX_JUNK_ADDR_LSB, status);
 2858              		.loc 4 117 2
 2859 1352 E8000000 		call	_ZN8UnitTest11CurrentTest7DetailsEv@PLT
 2859      00
 2860 1357 488B08   		movq	(%rax), %rcx
 2861 135a 488D45C0 		leaq	-64(%rbp), %rax
 2862 135e BA750000 		movl	$117, %edx
 2862      00
 2863 1363 4889CE   		movq	%rcx, %rsi
 2864 1366 4889C7   		movq	%rax, %rdi
 2865 1369 E8000000 		call	_ZN8UnitTest11TestDetailsC1ERKS0_i@PLT
 2865      00
 2866              		.loc 4 117 2 is_stmt 0 discriminator 4
 2867 136e C745940B 		movl	$11, -108(%rbp)
 2867      000000
 2868 1375 E8000000 		call	_ZN8UnitTest11CurrentTest7ResultsEv@PLT
 2868      00
 2869 137a 488B00   		movq	(%rax), %rax
 2870 137d 488D4DC0 		leaq	-64(%rbp), %rcx
 2871 1381 488D558C 		leaq	-116(%rbp), %rdx
 2872 1385 488D7594 		leaq	-108(%rbp), %rsi
 2873 1389 4889C7   		movq	%rax, %rdi
 2874 138c E8000000 		call	_ZN8UnitTest10CheckEqualI12BufferStatusS1_EEvRNS_11TestResultsERKT_RKT0_RKNS_11TestDetailsE
 2874      00
 2875              	.LEHE108:
 2876              	.L142:
 118:testHexIO.cpp **** 	bufDestroy(&data);
 2877              		.loc 4 118 12 is_stmt 1
 2878 1391 488D45A0 		leaq	-96(%rbp), %rax
 2879 1395 4889C7   		movq	%rax, %rdi
 2880              	.LEHB109:
 2881 1398 E8000000 		call	bufDestroy@PLT
 2881      00
 2882              	.LEHE109:
 119:testHexIO.cpp **** }
 2883              		.loc 4 119 1
 2884 139d 90       		nop
 2885 139e 488B45E8 		movq	-24(%rbp), %rax
 2886 13a2 64482B04 		subq	%fs:40, %rax
 2886      25280000 
 2886      00
 2887 13ab 0F84D800 		je	.L144
 2887      0000
 2888 13b1 E9CE0000 		jmp	.L149
 2888      00
 2889              	.L145:
 2890 13b6 F30F1EFA 		endbr64
 115:testHexIO.cpp **** 	status = bufProcessLine(line, 0, &data, NULL, &seg, &recordType, NULL);
 2891              		.loc 4 115 2
 2892 13ba 4889C7   		movq	%rax, %rdi
 2893 13bd E8000000 		call	__cxa_begin_catch@PLT
 2893      00
 2894              	.LEHB110:
 2895 13c2 E8000000 		call	_ZN8UnitTest11CurrentTest7ResultsEv@PLT
 2895      00
 115:testHexIO.cpp **** 	status = bufProcessLine(line, 0, &data, NULL, &seg, &recordType, NULL);
 2896              		.loc 4 115 2 is_stmt 0 discriminator 3
 2897 13c7 488B18   		movq	(%rax), %rbx
 2898 13ca E8000000 		call	_ZN8UnitTest11CurrentTest7DetailsEv@PLT
 2898      00
 115:testHexIO.cpp **** 	status = bufProcessLine(line, 0, &data, NULL, &seg, &recordType, NULL);
 2899              		.loc 4 115 2 discriminator 11
 2900 13cf 488B08   		movq	(%rax), %rcx
 2901 13d2 488D45C0 		leaq	-64(%rbp), %rax
 2902 13d6 BA730000 		movl	$115, %edx
 2902      00
 2903 13db 4889CE   		movq	%rcx, %rsi
 2904 13de 4889C7   		movq	%rax, %rdi
 2905 13e1 E8000000 		call	_ZN8UnitTest11TestDetailsC1ERKS0_i@PLT
 2905      00
 115:testHexIO.cpp **** 	status = bufProcessLine(line, 0, &data, NULL, &seg, &recordType, NULL);
 2906              		.loc 4 115 2 discriminator 15
 2907 13e6 488D45C0 		leaq	-64(%rbp), %rax
 2908 13ea 488D1500 		leaq	.LC4(%rip), %rdx
 2908      000000
 2909 13f1 4889C6   		movq	%rax, %rsi
 2910 13f4 4889DF   		movq	%rbx, %rdi
 2911 13f7 E8000000 		call	_ZN8UnitTest11TestResults13OnTestFailureERKNS_11TestDetailsEPKc@PLT
 2911      00
 2912              	.LEHE110:
 2913              	.LEHB111:
 115:testHexIO.cpp **** 	status = bufProcessLine(line, 0, &data, NULL, &seg, &recordType, NULL);
 2914              		.loc 4 115 2 discriminator 17
 2915 13fc E8000000 		call	__cxa_end_catch@PLT
 2915      00
 2916              	.LEHE111:
 2917 1401 E917FFFF 		jmp	.L139
 2917      FF
 2918              	.L146:
 2919 1406 F30F1EFA 		endbr64
 115:testHexIO.cpp **** 	status = bufProcessLine(line, 0, &data, NULL, &seg, &recordType, NULL);
 2920              		.loc 4 115 2
 2921 140a 4889C3   		movq	%rax, %rbx
 2922 140d E8000000 		call	__cxa_end_catch@PLT
 2922      00
 2923 1412 4889D8   		movq	%rbx, %rax
 2924 1415 4889C7   		movq	%rax, %rdi
 2925              	.LEHB112:
 2926 1418 E8000000 		call	_Unwind_Resume@PLT
 2926      00
 2927              	.LEHE112:
 2928              	.L147:
 2929 141d F30F1EFA 		endbr64
 117:testHexIO.cpp **** 	bufDestroy(&data);
 2930              		.loc 4 117 2 is_stmt 1
 2931 1421 4889C7   		movq	%rax, %rdi
 2932 1424 E8000000 		call	__cxa_begin_catch@PLT
 2932      00
 2933              	.LEHB113:
 2934 1429 E8000000 		call	_ZN8UnitTest11CurrentTest7ResultsEv@PLT
 2934      00
 117:testHexIO.cpp **** 	bufDestroy(&data);
 2935              		.loc 4 117 2 is_stmt 0 discriminator 3
 2936 142e 488B18   		movq	(%rax), %rbx
 2937 1431 E8000000 		call	_ZN8UnitTest11CurrentTest7DetailsEv@PLT
 2937      00
 117:testHexIO.cpp **** 	bufDestroy(&data);
 2938              		.loc 4 117 2 discriminator 11
 2939 1436 488B08   		movq	(%rax), %rcx
 2940 1439 488D45C0 		leaq	-64(%rbp), %rax
 2941 143d BA750000 		movl	$117, %edx
 2941      00
 2942 1442 4889CE   		movq	%rcx, %rsi
 2943 1445 4889C7   		movq	%rax, %rdi
 2944 1448 E8000000 		call	_ZN8UnitTest11TestDetailsC1ERKS0_i@PLT
 2944      00
 117:testHexIO.cpp **** 	bufDestroy(&data);
 2945              		.loc 4 117 2 discriminator 15
 2946 144d 488D45C0 		leaq	-64(%rbp), %rax
 2947 1451 488D1500 		leaq	.LC27(%rip), %rdx
 2947      000000
 2948 1458 4889C6   		movq	%rax, %rsi
 2949 145b 4889DF   		movq	%rbx, %rdi
 2950 145e E8000000 		call	_ZN8UnitTest11TestResults13OnTestFailureERKNS_11TestDetailsEPKc@PLT
 2950      00
 2951              	.LEHE113:
 2952              	.LEHB114:
 117:testHexIO.cpp **** 	bufDestroy(&data);
 2953              		.loc 4 117 2 discriminator 17
 2954 1463 E8000000 		call	__cxa_end_catch@PLT
 2954      00
 2955              	.LEHE114:
 2956 1468 E924FFFF 		jmp	.L142
 2956      FF
 2957              	.L148:
 2958 146d F30F1EFA 		endbr64
 117:testHexIO.cpp **** 	bufDestroy(&data);
 2959              		.loc 4 117 2
 2960 1471 4889C3   		movq	%rax, %rbx
 2961 1474 E8000000 		call	__cxa_end_catch@PLT
 2961      00
 2962 1479 4889D8   		movq	%rbx, %rax
 2963 147c 4889C7   		movq	%rax, %rdi
 2964              	.LEHB115:
 2965 147f E8000000 		call	_Unwind_Resume@PLT
 2965      00
 2966              	.LEHE115:
 2967              	.L149:
 2968              		.loc 4 119 1 is_stmt 1
 2969 1484 E8000000 		call	__stack_chk_fail@PLT
 2969      00
 2970              	.L144:
 2971 1489 488B5DF8 		movq	-8(%rbp), %rbx
 2972 148d C9       		leave
 2973              		.cfi_def_cfa 7, 8
 2974 148e C3       		ret
 2975              		.cfi_endproc
 2976              	.LFE1232:
 2977              		.section	.gcc_except_table
 2978              		.align 4
 2979              	.LLSDA1232:
 2980 0258 FF       		.byte	0xff
 2981 0259 9B       		.byte	0x9b
 2982 025a 41       		.uleb128 .LLSDATT1232-.LLSDATTD1232
 2983              	.LLSDATTD1232:
 2984 025b 01       		.byte	0x1
 2985 025c 39       		.uleb128 .LLSDACSE1232-.LLSDACSB1232
 2986              	.LLSDACSB1232:
 2987 025d 4E       		.uleb128 .LEHB105-.LFB1232
 2988 025e 05       		.uleb128 .LEHE105-.LEHB105
 2989 025f 00       		.uleb128 0
 2990 0260 00       		.uleb128 0
 2991 0261 56       		.uleb128 .LEHB106-.LFB1232
 2992 0262 3F       		.uleb128 .LEHE106-.LEHB106
 2993 0263 AE02     		.uleb128 .L145-.LFB1232
 2994 0265 01       		.uleb128 0x1
 2995 0266 BE01     		.uleb128 .LEHB107-.LFB1232
 2996 0268 05       		.uleb128 .LEHE107-.LEHB107
 2997 0269 00       		.uleb128 0
 2998 026a 00       		.uleb128 0
 2999 026b CA01     		.uleb128 .LEHB108-.LFB1232
 3000 026d 3F       		.uleb128 .LEHE108-.LEHB108
 3001 026e 9503     		.uleb128 .L147-.LFB1232
 3002 0270 01       		.uleb128 0x1
 3003 0271 9002     		.uleb128 .LEHB109-.LFB1232
 3004 0273 05       		.uleb128 .LEHE109-.LEHB109
 3005 0274 00       		.uleb128 0
 3006 0275 00       		.uleb128 0
 3007 0276 BA02     		.uleb128 .LEHB110-.LFB1232
 3008 0278 3A       		.uleb128 .LEHE110-.LEHB110
 3009 0279 FE02     		.uleb128 .L146-.LFB1232
 3010 027b 00       		.uleb128 0
 3011 027c F402     		.uleb128 .LEHB111-.LFB1232
 3012 027e 05       		.uleb128 .LEHE111-.LEHB111
 3013 027f 00       		.uleb128 0
 3014 0280 00       		.uleb128 0
 3015 0281 9003     		.uleb128 .LEHB112-.LFB1232
 3016 0283 05       		.uleb128 .LEHE112-.LEHB112
 3017 0284 00       		.uleb128 0
 3018 0285 00       		.uleb128 0
 3019 0286 A103     		.uleb128 .LEHB113-.LFB1232
 3020 0288 3A       		.uleb128 .LEHE113-.LEHB113
 3021 0289 E503     		.uleb128 .L148-.LFB1232
 3022 028b 00       		.uleb128 0
 3023 028c DB03     		.uleb128 .LEHB114-.LFB1232
 3024 028e 05       		.uleb128 .LEHE114-.LEHB114
 3025 028f 00       		.uleb128 0
 3026 0290 00       		.uleb128 0
 3027 0291 F703     		.uleb128 .LEHB115-.LFB1232
 3028 0293 05       		.uleb128 .LEHE115-.LEHB115
 3029 0294 00       		.uleb128 0
 3030 0295 00       		.uleb128 0
 3031              	.LLSDACSE1232:
 3032 0296 01       		.byte	0x1
 3033 0297 00       		.byte	0
 3034              		.align 4
 3035 0298 00000000 		.long	0
 3036              	
 3037              	.LLSDATT1232:
 3038              		.text
 3040              		.section	.rodata
 3041              	.LC28:
 3042 0486 48657849 		.string	"HexIO_testJunkRecType"
 3042      4F5F7465 
 3042      73744A75 
 3042      6E6B5265 
 3042      63547970 
 3043              		.section	.text._ZN25TestHexIO_testJunkRecTypeC2Ev,"axG",@progbits,_ZN25TestHexIO_testJunkRecTypeC5
 3044              		.align 2
 3045              		.weak	_ZN25TestHexIO_testJunkRecTypeC2Ev
 3047              	_ZN25TestHexIO_testJunkRecTypeC2Ev:
 3048              	.LFB1234:
 120:testHexIO.cpp **** 
 121:testHexIO.cpp **** TEST(HexIO_testJunkRecType) {
 3049              		.loc 4 121 1
 3050              		.cfi_startproc
 3051 0000 F30F1EFA 		endbr64
 3052 0004 55       		pushq	%rbp
 3053              		.cfi_def_cfa_offset 16
 3054              		.cfi_offset 6, -16
 3055 0005 4889E5   		movq	%rsp, %rbp
 3056              		.cfi_def_cfa_register 6
 3057 0008 53       		pushq	%rbx
 3058 0009 4883EC18 		subq	$24, %rsp
 3059              		.cfi_offset 3, -24
 3060 000d 48897DE8 		movq	%rdi, -24(%rbp)
 3061              	.LBB10:
 3062              		.loc 4 121 1
 3063 0011 488B5DE8 		movq	-24(%rbp), %rbx
 3064 0015 E8000000 		call	_ZN13UnitTestSuite12GetSuiteNameEv
 3064      00
 3065 001a 4889C2   		movq	%rax, %rdx
 3066 001d 41B87900 		movl	$121, %r8d
 3066      0000
 3067 0023 488D0500 		leaq	.LC1(%rip), %rax
 3067      000000
 3068 002a 4889C1   		movq	%rax, %rcx
 3069 002d 488D0500 		leaq	.LC28(%rip), %rax
 3069      000000
 3070 0034 4889C6   		movq	%rax, %rsi
 3071 0037 4889DF   		movq	%rbx, %rdi
 3072 003a E8000000 		call	_ZN8UnitTest4TestC2EPKcS2_S2_i@PLT
 3072      00
 3073 003f 488D1500 		leaq	16+_ZTV25TestHexIO_testJunkRecType(%rip), %rdx
 3073      000000
 3074 0046 488B45E8 		movq	-24(%rbp), %rax
 3075 004a 488910   		movq	%rdx, (%rax)
 3076              	.LBE10:
 3077 004d 90       		nop
 3078 004e 488B5DF8 		movq	-8(%rbp), %rbx
 3079 0052 C9       		leave
 3080              		.cfi_def_cfa 7, 8
 3081 0053 C3       		ret
 3082              		.cfi_endproc
 3083              	.LFE1234:
 3085              		.weak	_ZN25TestHexIO_testJunkRecTypeC1Ev
 3086              		.set	_ZN25TestHexIO_testJunkRecTypeC1Ev,_ZN25TestHexIO_testJunkRecTypeC2Ev
 3087              		.globl	testHexIO_testJunkRecTypeInstance
 3088              		.bss
 3089 0179 00000000 		.align 32
 3089      000000
 3092              	testHexIO_testJunkRecTypeInstance:
 3093 0180 00000000 		.zero	56
 3093      00000000 
 3093      00000000 
 3093      00000000 
 3093      00000000 
 3094              		.globl	adderHexIO_testJunkRecType
 3097              	adderHexIO_testJunkRecType:
 3098 01b8 00       		.zero	1
 3099              		.section	.rodata
 3100              	.LC29:
 3101 049c 3A303430 		.string	":040BE1..75820022F7\n"
 3101      4245312E 
 3101      2E373538 
 3101      32303032 
 3101      3246370A 
 3102 04b1 00000000 		.align 8
 3102      000000
 3103              	.LC30:
 3104 04b8 556E6861 		.string	"Unhandled exception in CHECK_EQUAL(HEX_JUNK_REC_TYPE, status)"
 3104      6E646C65 
 3104      64206578 
 3104      63657074 
 3104      696F6E20 
 3105              		.text
 3106 148f 90       		.align 2
 3107              		.globl	_ZNK25TestHexIO_testJunkRecType7RunImplEv
 3109              	_ZNK25TestHexIO_testJunkRecType7RunImplEv:
 3110              	.LFB1236:
 3111              		.loc 4 121 29
 3112              		.cfi_startproc
 3113              		.cfi_personality 0x9b,DW.ref.__gxx_personality_v0
 3114              		.cfi_lsda 0x1b,.LLSDA1236
 3115 1490 F30F1EFA 		endbr64
 3116 1494 55       		pushq	%rbp
 3117              		.cfi_def_cfa_offset 16
 3118              		.cfi_offset 6, -16
 3119 1495 4889E5   		movq	%rsp, %rbp
 3120              		.cfi_def_cfa_register 6
 3121 1498 53       		pushq	%rbx
 3122 1499 4881EC88 		subq	$136, %rsp
 3122      000000
 3123              		.cfi_offset 3, -24
 3124 14a0 4889BD78 		movq	%rdi, -136(%rbp)
 3124      FFFFFF
 3125              		.loc 4 121 29
 3126 14a7 64488B04 		movq	%fs:40, %rax
 3126      25280000 
 3126      00
 3127 14b0 488945E8 		movq	%rax, -24(%rbp)
 3128 14b4 31C0     		xorl	%eax, %eax
 122:testHexIO.cpp **** 	Buffer data;
 123:testHexIO.cpp **** 	BufferStatus status;
 124:testHexIO.cpp **** 	const char *line = ":040BE1..75820022F7\n";
 3129              		.loc 4 124 14
 3130 14b6 488D0500 		leaq	.LC29(%rip), %rax
 3130      000000
 3131 14bd 48894598 		movq	%rax, -104(%rbp)
 125:testHexIO.cpp **** 	uint8 recordType;
 126:testHexIO.cpp **** 	uint32 seg = 0x00000000;
 3132              		.loc 4 126 9
 3133 14c1 C7459000 		movl	$0, -112(%rbp)
 3133      000000
 127:testHexIO.cpp **** 	status = bufInitialise(&data, 1024, 0x00, NULL);
 3134              		.loc 4 127 24
 3135 14c8 488D45A0 		leaq	-96(%rbp), %rax
 3136 14cc B9000000 		movl	$0, %ecx
 3136      00
 3137 14d1 BA000000 		movl	$0, %edx
 3137      00
 3138 14d6 BE000400 		movl	$1024, %esi
 3138      00
 3139 14db 4889C7   		movq	%rax, %rdi
 3140              	.LEHB116:
 3141 14de E8000000 		call	bufInitialise@PLT
 3141      00
 3142              	.LEHE116:
 3143              		.loc 4 127 9
 3144 14e3 89458C   		movl	%eax, -116(%rbp)
 3145              	.LEHB117:
 128:testHexIO.cpp **** 	CHECK_EQUAL(BUF_SUCCESS, status);
 3146              		.loc 4 128 2
 3147 14e6 E8000000 		call	_ZN8UnitTest11CurrentTest7DetailsEv@PLT
 3147      00
 3148 14eb 488B08   		movq	(%rax), %rcx
 3149 14ee 488D45C0 		leaq	-64(%rbp), %rax
 3150 14f2 BA800000 		movl	$128, %edx
 3150      00
 3151 14f7 4889CE   		movq	%rcx, %rsi
 3152 14fa 4889C7   		movq	%rax, %rdi
 3153 14fd E8000000 		call	_ZN8UnitTest11TestDetailsC1ERKS0_i@PLT
 3153      00
 3154              		.loc 4 128 2 is_stmt 0 discriminator 4
 3155 1502 C7459400 		movl	$0, -108(%rbp)
 3155      000000
 3156 1509 E8000000 		call	_ZN8UnitTest11CurrentTest7ResultsEv@PLT
 3156      00
 3157 150e 488B00   		movq	(%rax), %rax
 3158 1511 488D4DC0 		leaq	-64(%rbp), %rcx
 3159 1515 488D558C 		leaq	-116(%rbp), %rdx
 3160 1519 488D7594 		leaq	-108(%rbp), %rsi
 3161 151d 4889C7   		movq	%rax, %rdi
 3162 1520 E8000000 		call	_ZN8UnitTest10CheckEqualI12BufferStatusS1_EEvRNS_11TestResultsERKT_RKT0_RKNS_11TestDetailsE
 3162      00
 3163              	.LEHE117:
 3164              	.L153:
 129:testHexIO.cpp **** 	status = bufProcessLine(line, 0, &data, NULL, &seg, &recordType, NULL);
 3165              		.loc 4 129 25 is_stmt 1
 3166 1525 488D758B 		leaq	-117(%rbp), %rsi
 3167 1529 488D4D90 		leaq	-112(%rbp), %rcx
 3168 152d 488D55A0 		leaq	-96(%rbp), %rdx
 3169 1531 488B4598 		movq	-104(%rbp), %rax
 3170 1535 4883EC08 		subq	$8, %rsp
 3171 1539 6A00     		pushq	$0
 3172 153b 4989F1   		movq	%rsi, %r9
 3173 153e 4989C8   		movq	%rcx, %r8
 3174 1541 B9000000 		movl	$0, %ecx
 3174      00
 3175 1546 BE000000 		movl	$0, %esi
 3175      00
 3176 154b 4889C7   		movq	%rax, %rdi
 3177              	.LEHB118:
 3178 154e E8000000 		call	bufProcessLine@PLT
 3178      00
 3179              	.LEHE118:
 3180 1553 4883C410 		addq	$16, %rsp
 3181              		.loc 4 129 9
 3182 1557 89458C   		movl	%eax, -116(%rbp)
 3183              	.LEHB119:
 130:testHexIO.cpp **** 	CHECK_EQUAL(HEX_JUNK_REC_TYPE, status);
 3184              		.loc 4 130 2
 3185 155a E8000000 		call	_ZN8UnitTest11CurrentTest7DetailsEv@PLT
 3185      00
 3186 155f 488B08   		movq	(%rax), %rcx
 3187 1562 488D45C0 		leaq	-64(%rbp), %rax
 3188 1566 BA820000 		movl	$130, %edx
 3188      00
 3189 156b 4889CE   		movq	%rcx, %rsi
 3190 156e 4889C7   		movq	%rax, %rdi
 3191 1571 E8000000 		call	_ZN8UnitTest11TestDetailsC1ERKS0_i@PLT
 3191      00
 3192              		.loc 4 130 2 is_stmt 0 discriminator 4
 3193 1576 C745940C 		movl	$12, -108(%rbp)
 3193      000000
 3194 157d E8000000 		call	_ZN8UnitTest11CurrentTest7ResultsEv@PLT
 3194      00
 3195 1582 488B00   		movq	(%rax), %rax
 3196 1585 488D4DC0 		leaq	-64(%rbp), %rcx
 3197 1589 488D558C 		leaq	-116(%rbp), %rdx
 3198 158d 488D7594 		leaq	-108(%rbp), %rsi
 3199 1591 4889C7   		movq	%rax, %rdi
 3200 1594 E8000000 		call	_ZN8UnitTest10CheckEqualI12BufferStatusS1_EEvRNS_11TestResultsERKT_RKT0_RKNS_11TestDetailsE
 3200      00
 3201              	.LEHE119:
 3202              	.L156:
 131:testHexIO.cpp **** 	bufDestroy(&data);
 3203              		.loc 4 131 12 is_stmt 1
 3204 1599 488D45A0 		leaq	-96(%rbp), %rax
 3205 159d 4889C7   		movq	%rax, %rdi
 3206              	.LEHB120:
 3207 15a0 E8000000 		call	bufDestroy@PLT
 3207      00
 3208              	.LEHE120:
 132:testHexIO.cpp **** }
 3209              		.loc 4 132 1
 3210 15a5 90       		nop
 3211 15a6 488B45E8 		movq	-24(%rbp), %rax
 3212 15aa 64482B04 		subq	%fs:40, %rax
 3212      25280000 
 3212      00
 3213 15b3 0F84D800 		je	.L158
 3213      0000
 3214 15b9 E9CE0000 		jmp	.L163
 3214      00
 3215              	.L159:
 3216 15be F30F1EFA 		endbr64
 128:testHexIO.cpp **** 	status = bufProcessLine(line, 0, &data, NULL, &seg, &recordType, NULL);
 3217              		.loc 4 128 2
 3218 15c2 4889C7   		movq	%rax, %rdi
 3219 15c5 E8000000 		call	__cxa_begin_catch@PLT
 3219      00
 3220              	.LEHB121:
 3221 15ca E8000000 		call	_ZN8UnitTest11CurrentTest7ResultsEv@PLT
 3221      00
 128:testHexIO.cpp **** 	status = bufProcessLine(line, 0, &data, NULL, &seg, &recordType, NULL);
 3222              		.loc 4 128 2 is_stmt 0 discriminator 3
 3223 15cf 488B18   		movq	(%rax), %rbx
 3224 15d2 E8000000 		call	_ZN8UnitTest11CurrentTest7DetailsEv@PLT
 3224      00
 128:testHexIO.cpp **** 	status = bufProcessLine(line, 0, &data, NULL, &seg, &recordType, NULL);
 3225              		.loc 4 128 2 discriminator 11
 3226 15d7 488B08   		movq	(%rax), %rcx
 3227 15da 488D45C0 		leaq	-64(%rbp), %rax
 3228 15de BA800000 		movl	$128, %edx
 3228      00
 3229 15e3 4889CE   		movq	%rcx, %rsi
 3230 15e6 4889C7   		movq	%rax, %rdi
 3231 15e9 E8000000 		call	_ZN8UnitTest11TestDetailsC1ERKS0_i@PLT
 3231      00
 128:testHexIO.cpp **** 	status = bufProcessLine(line, 0, &data, NULL, &seg, &recordType, NULL);
 3232              		.loc 4 128 2 discriminator 15
 3233 15ee 488D45C0 		leaq	-64(%rbp), %rax
 3234 15f2 488D1500 		leaq	.LC4(%rip), %rdx
 3234      000000
 3235 15f9 4889C6   		movq	%rax, %rsi
 3236 15fc 4889DF   		movq	%rbx, %rdi
 3237 15ff E8000000 		call	_ZN8UnitTest11TestResults13OnTestFailureERKNS_11TestDetailsEPKc@PLT
 3237      00
 3238              	.LEHE121:
 3239              	.LEHB122:
 128:testHexIO.cpp **** 	status = bufProcessLine(line, 0, &data, NULL, &seg, &recordType, NULL);
 3240              		.loc 4 128 2 discriminator 17
 3241 1604 E8000000 		call	__cxa_end_catch@PLT
 3241      00
 3242              	.LEHE122:
 3243 1609 E917FFFF 		jmp	.L153
 3243      FF
 3244              	.L160:
 3245 160e F30F1EFA 		endbr64
 128:testHexIO.cpp **** 	status = bufProcessLine(line, 0, &data, NULL, &seg, &recordType, NULL);
 3246              		.loc 4 128 2
 3247 1612 4889C3   		movq	%rax, %rbx
 3248 1615 E8000000 		call	__cxa_end_catch@PLT
 3248      00
 3249 161a 4889D8   		movq	%rbx, %rax
 3250 161d 4889C7   		movq	%rax, %rdi
 3251              	.LEHB123:
 3252 1620 E8000000 		call	_Unwind_Resume@PLT
 3252      00
 3253              	.LEHE123:
 3254              	.L161:
 3255 1625 F30F1EFA 		endbr64
 130:testHexIO.cpp **** 	bufDestroy(&data);
 3256              		.loc 4 130 2 is_stmt 1
 3257 1629 4889C7   		movq	%rax, %rdi
 3258 162c E8000000 		call	__cxa_begin_catch@PLT
 3258      00
 3259              	.LEHB124:
 3260 1631 E8000000 		call	_ZN8UnitTest11CurrentTest7ResultsEv@PLT
 3260      00
 130:testHexIO.cpp **** 	bufDestroy(&data);
 3261              		.loc 4 130 2 is_stmt 0 discriminator 3
 3262 1636 488B18   		movq	(%rax), %rbx
 3263 1639 E8000000 		call	_ZN8UnitTest11CurrentTest7DetailsEv@PLT
 3263      00
 130:testHexIO.cpp **** 	bufDestroy(&data);
 3264              		.loc 4 130 2 discriminator 11
 3265 163e 488B08   		movq	(%rax), %rcx
 3266 1641 488D45C0 		leaq	-64(%rbp), %rax
 3267 1645 BA820000 		movl	$130, %edx
 3267      00
 3268 164a 4889CE   		movq	%rcx, %rsi
 3269 164d 4889C7   		movq	%rax, %rdi
 3270 1650 E8000000 		call	_ZN8UnitTest11TestDetailsC1ERKS0_i@PLT
 3270      00
 130:testHexIO.cpp **** 	bufDestroy(&data);
 3271              		.loc 4 130 2 discriminator 15
 3272 1655 488D45C0 		leaq	-64(%rbp), %rax
 3273 1659 488D1500 		leaq	.LC30(%rip), %rdx
 3273      000000
 3274 1660 4889C6   		movq	%rax, %rsi
 3275 1663 4889DF   		movq	%rbx, %rdi
 3276 1666 E8000000 		call	_ZN8UnitTest11TestResults13OnTestFailureERKNS_11TestDetailsEPKc@PLT
 3276      00
 3277              	.LEHE124:
 3278              	.LEHB125:
 130:testHexIO.cpp **** 	bufDestroy(&data);
 3279              		.loc 4 130 2 discriminator 17
 3280 166b E8000000 		call	__cxa_end_catch@PLT
 3280      00
 3281              	.LEHE125:
 3282 1670 E924FFFF 		jmp	.L156
 3282      FF
 3283              	.L162:
 3284 1675 F30F1EFA 		endbr64
 130:testHexIO.cpp **** 	bufDestroy(&data);
 3285              		.loc 4 130 2
 3286 1679 4889C3   		movq	%rax, %rbx
 3287 167c E8000000 		call	__cxa_end_catch@PLT
 3287      00
 3288 1681 4889D8   		movq	%rbx, %rax
 3289 1684 4889C7   		movq	%rax, %rdi
 3290              	.LEHB126:
 3291 1687 E8000000 		call	_Unwind_Resume@PLT
 3291      00
 3292              	.LEHE126:
 3293              	.L163:
 3294              		.loc 4 132 1 is_stmt 1
 3295 168c E8000000 		call	__stack_chk_fail@PLT
 3295      00
 3296              	.L158:
 3297 1691 488B5DF8 		movq	-8(%rbp), %rbx
 3298 1695 C9       		leave
 3299              		.cfi_def_cfa 7, 8
 3300 1696 C3       		ret
 3301              		.cfi_endproc
 3302              	.LFE1236:
 3303              		.section	.gcc_except_table
 3304              		.align 4
 3305              	.LLSDA1236:
 3306 029c FF       		.byte	0xff
 3307 029d 9B       		.byte	0x9b
 3308 029e 41       		.uleb128 .LLSDATT1236-.LLSDATTD1236
 3309              	.LLSDATTD1236:
 3310 029f 01       		.byte	0x1
 3311 02a0 39       		.uleb128 .LLSDACSE1236-.LLSDACSB1236
 3312              	.LLSDACSB1236:
 3313 02a1 4E       		.uleb128 .LEHB116-.LFB1236
 3314 02a2 05       		.uleb128 .LEHE116-.LEHB116
 3315 02a3 00       		.uleb128 0
 3316 02a4 00       		.uleb128 0
 3317 02a5 56       		.uleb128 .LEHB117-.LFB1236
 3318 02a6 3F       		.uleb128 .LEHE117-.LEHB117
 3319 02a7 AE02     		.uleb128 .L159-.LFB1236
 3320 02a9 01       		.uleb128 0x1
 3321 02aa BE01     		.uleb128 .LEHB118-.LFB1236
 3322 02ac 05       		.uleb128 .LEHE118-.LEHB118
 3323 02ad 00       		.uleb128 0
 3324 02ae 00       		.uleb128 0
 3325 02af CA01     		.uleb128 .LEHB119-.LFB1236
 3326 02b1 3F       		.uleb128 .LEHE119-.LEHB119
 3327 02b2 9503     		.uleb128 .L161-.LFB1236
 3328 02b4 01       		.uleb128 0x1
 3329 02b5 9002     		.uleb128 .LEHB120-.LFB1236
 3330 02b7 05       		.uleb128 .LEHE120-.LEHB120
 3331 02b8 00       		.uleb128 0
 3332 02b9 00       		.uleb128 0
 3333 02ba BA02     		.uleb128 .LEHB121-.LFB1236
 3334 02bc 3A       		.uleb128 .LEHE121-.LEHB121
 3335 02bd FE02     		.uleb128 .L160-.LFB1236
 3336 02bf 00       		.uleb128 0
 3337 02c0 F402     		.uleb128 .LEHB122-.LFB1236
 3338 02c2 05       		.uleb128 .LEHE122-.LEHB122
 3339 02c3 00       		.uleb128 0
 3340 02c4 00       		.uleb128 0
 3341 02c5 9003     		.uleb128 .LEHB123-.LFB1236
 3342 02c7 05       		.uleb128 .LEHE123-.LEHB123
 3343 02c8 00       		.uleb128 0
 3344 02c9 00       		.uleb128 0
 3345 02ca A103     		.uleb128 .LEHB124-.LFB1236
 3346 02cc 3A       		.uleb128 .LEHE124-.LEHB124
 3347 02cd E503     		.uleb128 .L162-.LFB1236
 3348 02cf 00       		.uleb128 0
 3349 02d0 DB03     		.uleb128 .LEHB125-.LFB1236
 3350 02d2 05       		.uleb128 .LEHE125-.LEHB125
 3351 02d3 00       		.uleb128 0
 3352 02d4 00       		.uleb128 0
 3353 02d5 F703     		.uleb128 .LEHB126-.LFB1236
 3354 02d7 05       		.uleb128 .LEHE126-.LEHB126
 3355 02d8 00       		.uleb128 0
 3356 02d9 00       		.uleb128 0
 3357              	.LLSDACSE1236:
 3358 02da 01       		.byte	0x1
 3359 02db 00       		.byte	0
 3360              		.align 4
 3361 02dc 00000000 		.long	0
 3362              	
 3363              	.LLSDATT1236:
 3364              		.text
 3366              		.section	.rodata
 3367              	.LC31:
 3368 04f6 48657849 		.string	"HexIO_testJunkDataByte"
 3368      4F5F7465 
 3368      73744A75 
 3368      6E6B4461 
 3368      74614279 
 3369              		.section	.text._ZN26TestHexIO_testJunkDataByteC2Ev,"axG",@progbits,_ZN26TestHexIO_testJunkDataByte
 3370              		.align 2
 3371              		.weak	_ZN26TestHexIO_testJunkDataByteC2Ev
 3373              	_ZN26TestHexIO_testJunkDataByteC2Ev:
 3374              	.LFB1238:
 133:testHexIO.cpp **** 
 134:testHexIO.cpp **** TEST(HexIO_testJunkDataByte) {
 3375              		.loc 4 134 1
 3376              		.cfi_startproc
 3377 0000 F30F1EFA 		endbr64
 3378 0004 55       		pushq	%rbp
 3379              		.cfi_def_cfa_offset 16
 3380              		.cfi_offset 6, -16
 3381 0005 4889E5   		movq	%rsp, %rbp
 3382              		.cfi_def_cfa_register 6
 3383 0008 53       		pushq	%rbx
 3384 0009 4883EC18 		subq	$24, %rsp
 3385              		.cfi_offset 3, -24
 3386 000d 48897DE8 		movq	%rdi, -24(%rbp)
 3387              	.LBB11:
 3388              		.loc 4 134 1
 3389 0011 488B5DE8 		movq	-24(%rbp), %rbx
 3390 0015 E8000000 		call	_ZN13UnitTestSuite12GetSuiteNameEv
 3390      00
 3391 001a 4889C2   		movq	%rax, %rdx
 3392 001d 41B88600 		movl	$134, %r8d
 3392      0000
 3393 0023 488D0500 		leaq	.LC1(%rip), %rax
 3393      000000
 3394 002a 4889C1   		movq	%rax, %rcx
 3395 002d 488D0500 		leaq	.LC31(%rip), %rax
 3395      000000
 3396 0034 4889C6   		movq	%rax, %rsi
 3397 0037 4889DF   		movq	%rbx, %rdi
 3398 003a E8000000 		call	_ZN8UnitTest4TestC2EPKcS2_S2_i@PLT
 3398      00
 3399 003f 488D1500 		leaq	16+_ZTV26TestHexIO_testJunkDataByte(%rip), %rdx
 3399      000000
 3400 0046 488B45E8 		movq	-24(%rbp), %rax
 3401 004a 488910   		movq	%rdx, (%rax)
 3402              	.LBE11:
 3403 004d 90       		nop
 3404 004e 488B5DF8 		movq	-8(%rbp), %rbx
 3405 0052 C9       		leave
 3406              		.cfi_def_cfa 7, 8
 3407 0053 C3       		ret
 3408              		.cfi_endproc
 3409              	.LFE1238:
 3411              		.weak	_ZN26TestHexIO_testJunkDataByteC1Ev
 3412              		.set	_ZN26TestHexIO_testJunkDataByteC1Ev,_ZN26TestHexIO_testJunkDataByteC2Ev
 3413              		.globl	testHexIO_testJunkDataByteInstance
 3414              		.bss
 3415 01b9 00000000 		.align 32
 3415      000000
 3418              	testHexIO_testJunkDataByteInstance:
 3419 01c0 00000000 		.zero	56
 3419      00000000 
 3419      00000000 
 3419      00000000 
 3419      00000000 
 3420              		.globl	adderHexIO_testJunkDataByte
 3423              	adderHexIO_testJunkDataByte:
 3424 01f8 00       		.zero	1
 3425              		.section	.rodata
 3426              	.LC32:
 3427 050d 3A303430 		.string	":040BE100..820022F7\n"
 3427      42453130 
 3427      302E2E38 
 3427      32303032 
 3427      3246370A 
 3428 0522 00000000 		.align 8
 3428      0000
 3429              	.LC33:
 3430 0528 556E6861 		.string	"Unhandled exception in CHECK_EQUAL(HEX_JUNK_DATA_BYTE, status)"
 3430      6E646C65 
 3430      64206578 
 3430      63657074 
 3430      696F6E20 
 3431              		.text
 3432 1697 90       		.align 2
 3433              		.globl	_ZNK26TestHexIO_testJunkDataByte7RunImplEv
 3435              	_ZNK26TestHexIO_testJunkDataByte7RunImplEv:
 3436              	.LFB1240:
 3437              		.loc 4 134 30
 3438              		.cfi_startproc
 3439              		.cfi_personality 0x9b,DW.ref.__gxx_personality_v0
 3440              		.cfi_lsda 0x1b,.LLSDA1240
 3441 1698 F30F1EFA 		endbr64
 3442 169c 55       		pushq	%rbp
 3443              		.cfi_def_cfa_offset 16
 3444              		.cfi_offset 6, -16
 3445 169d 4889E5   		movq	%rsp, %rbp
 3446              		.cfi_def_cfa_register 6
 3447 16a0 53       		pushq	%rbx
 3448 16a1 4881EC88 		subq	$136, %rsp
 3448      000000
 3449              		.cfi_offset 3, -24
 3450 16a8 4889BD78 		movq	%rdi, -136(%rbp)
 3450      FFFFFF
 3451              		.loc 4 134 30
 3452 16af 64488B04 		movq	%fs:40, %rax
 3452      25280000 
 3452      00
 3453 16b8 488945E8 		movq	%rax, -24(%rbp)
 3454 16bc 31C0     		xorl	%eax, %eax
 135:testHexIO.cpp **** 	Buffer data;
 136:testHexIO.cpp **** 	BufferStatus status;
 137:testHexIO.cpp **** 	const char *line = ":040BE100..820022F7\n";
 3455              		.loc 4 137 14
 3456 16be 488D0500 		leaq	.LC32(%rip), %rax
 3456      000000
 3457 16c5 48894598 		movq	%rax, -104(%rbp)
 138:testHexIO.cpp **** 	uint8 recordType;
 139:testHexIO.cpp **** 	uint32 seg = 0x00000000;
 3458              		.loc 4 139 9
 3459 16c9 C7459000 		movl	$0, -112(%rbp)
 3459      000000
 140:testHexIO.cpp **** 	status = bufInitialise(&data, 1024, 0x00, NULL);
 3460              		.loc 4 140 24
 3461 16d0 488D45A0 		leaq	-96(%rbp), %rax
 3462 16d4 B9000000 		movl	$0, %ecx
 3462      00
 3463 16d9 BA000000 		movl	$0, %edx
 3463      00
 3464 16de BE000400 		movl	$1024, %esi
 3464      00
 3465 16e3 4889C7   		movq	%rax, %rdi
 3466              	.LEHB127:
 3467 16e6 E8000000 		call	bufInitialise@PLT
 3467      00
 3468              	.LEHE127:
 3469              		.loc 4 140 9
 3470 16eb 89458C   		movl	%eax, -116(%rbp)
 3471              	.LEHB128:
 141:testHexIO.cpp **** 	CHECK_EQUAL(BUF_SUCCESS, status);
 3472              		.loc 4 141 2
 3473 16ee E8000000 		call	_ZN8UnitTest11CurrentTest7DetailsEv@PLT
 3473      00
 3474 16f3 488B08   		movq	(%rax), %rcx
 3475 16f6 488D45C0 		leaq	-64(%rbp), %rax
 3476 16fa BA8D0000 		movl	$141, %edx
 3476      00
 3477 16ff 4889CE   		movq	%rcx, %rsi
 3478 1702 4889C7   		movq	%rax, %rdi
 3479 1705 E8000000 		call	_ZN8UnitTest11TestDetailsC1ERKS0_i@PLT
 3479      00
 3480              		.loc 4 141 2 is_stmt 0 discriminator 4
 3481 170a C7459400 		movl	$0, -108(%rbp)
 3481      000000
 3482 1711 E8000000 		call	_ZN8UnitTest11CurrentTest7ResultsEv@PLT
 3482      00
 3483 1716 488B00   		movq	(%rax), %rax
 3484 1719 488D4DC0 		leaq	-64(%rbp), %rcx
 3485 171d 488D558C 		leaq	-116(%rbp), %rdx
 3486 1721 488D7594 		leaq	-108(%rbp), %rsi
 3487 1725 4889C7   		movq	%rax, %rdi
 3488 1728 E8000000 		call	_ZN8UnitTest10CheckEqualI12BufferStatusS1_EEvRNS_11TestResultsERKT_RKT0_RKNS_11TestDetailsE
 3488      00
 3489              	.LEHE128:
 3490              	.L167:
 142:testHexIO.cpp **** 	status = bufProcessLine(line, 0, &data, NULL, &seg, &recordType, NULL);
 3491              		.loc 4 142 25 is_stmt 1
 3492 172d 488D758B 		leaq	-117(%rbp), %rsi
 3493 1731 488D4D90 		leaq	-112(%rbp), %rcx
 3494 1735 488D55A0 		leaq	-96(%rbp), %rdx
 3495 1739 488B4598 		movq	-104(%rbp), %rax
 3496 173d 4883EC08 		subq	$8, %rsp
 3497 1741 6A00     		pushq	$0
 3498 1743 4989F1   		movq	%rsi, %r9
 3499 1746 4989C8   		movq	%rcx, %r8
 3500 1749 B9000000 		movl	$0, %ecx
 3500      00
 3501 174e BE000000 		movl	$0, %esi
 3501      00
 3502 1753 4889C7   		movq	%rax, %rdi
 3503              	.LEHB129:
 3504 1756 E8000000 		call	bufProcessLine@PLT
 3504      00
 3505              	.LEHE129:
 3506 175b 4883C410 		addq	$16, %rsp
 3507              		.loc 4 142 9
 3508 175f 89458C   		movl	%eax, -116(%rbp)
 3509              	.LEHB130:
 143:testHexIO.cpp **** 	CHECK_EQUAL(HEX_JUNK_DATA_BYTE, status);
 3510              		.loc 4 143 2
 3511 1762 E8000000 		call	_ZN8UnitTest11CurrentTest7DetailsEv@PLT
 3511      00
 3512 1767 488B08   		movq	(%rax), %rcx
 3513 176a 488D45C0 		leaq	-64(%rbp), %rax
 3514 176e BA8F0000 		movl	$143, %edx
 3514      00
 3515 1773 4889CE   		movq	%rcx, %rsi
 3516 1776 4889C7   		movq	%rax, %rdi
 3517 1779 E8000000 		call	_ZN8UnitTest11TestDetailsC1ERKS0_i@PLT
 3517      00
 3518              		.loc 4 143 2 is_stmt 0 discriminator 4
 3519 177e C745940E 		movl	$14, -108(%rbp)
 3519      000000
 3520 1785 E8000000 		call	_ZN8UnitTest11CurrentTest7ResultsEv@PLT
 3520      00
 3521 178a 488B00   		movq	(%rax), %rax
 3522 178d 488D4DC0 		leaq	-64(%rbp), %rcx
 3523 1791 488D558C 		leaq	-116(%rbp), %rdx
 3524 1795 488D7594 		leaq	-108(%rbp), %rsi
 3525 1799 4889C7   		movq	%rax, %rdi
 3526 179c E8000000 		call	_ZN8UnitTest10CheckEqualI12BufferStatusS1_EEvRNS_11TestResultsERKT_RKT0_RKNS_11TestDetailsE
 3526      00
 3527              	.LEHE130:
 3528              	.L170:
 144:testHexIO.cpp **** 	bufDestroy(&data);
 3529              		.loc 4 144 12 is_stmt 1
 3530 17a1 488D45A0 		leaq	-96(%rbp), %rax
 3531 17a5 4889C7   		movq	%rax, %rdi
 3532              	.LEHB131:
 3533 17a8 E8000000 		call	bufDestroy@PLT
 3533      00
 3534              	.LEHE131:
 145:testHexIO.cpp **** }
 3535              		.loc 4 145 1
 3536 17ad 90       		nop
 3537 17ae 488B45E8 		movq	-24(%rbp), %rax
 3538 17b2 64482B04 		subq	%fs:40, %rax
 3538      25280000 
 3538      00
 3539 17bb 0F84D800 		je	.L172
 3539      0000
 3540 17c1 E9CE0000 		jmp	.L177
 3540      00
 3541              	.L173:
 3542 17c6 F30F1EFA 		endbr64
 141:testHexIO.cpp **** 	status = bufProcessLine(line, 0, &data, NULL, &seg, &recordType, NULL);
 3543              		.loc 4 141 2
 3544 17ca 4889C7   		movq	%rax, %rdi
 3545 17cd E8000000 		call	__cxa_begin_catch@PLT
 3545      00
 3546              	.LEHB132:
 3547 17d2 E8000000 		call	_ZN8UnitTest11CurrentTest7ResultsEv@PLT
 3547      00
 141:testHexIO.cpp **** 	status = bufProcessLine(line, 0, &data, NULL, &seg, &recordType, NULL);
 3548              		.loc 4 141 2 is_stmt 0 discriminator 3
 3549 17d7 488B18   		movq	(%rax), %rbx
 3550 17da E8000000 		call	_ZN8UnitTest11CurrentTest7DetailsEv@PLT
 3550      00
 141:testHexIO.cpp **** 	status = bufProcessLine(line, 0, &data, NULL, &seg, &recordType, NULL);
 3551              		.loc 4 141 2 discriminator 11
 3552 17df 488B08   		movq	(%rax), %rcx
 3553 17e2 488D45C0 		leaq	-64(%rbp), %rax
 3554 17e6 BA8D0000 		movl	$141, %edx
 3554      00
 3555 17eb 4889CE   		movq	%rcx, %rsi
 3556 17ee 4889C7   		movq	%rax, %rdi
 3557 17f1 E8000000 		call	_ZN8UnitTest11TestDetailsC1ERKS0_i@PLT
 3557      00
 141:testHexIO.cpp **** 	status = bufProcessLine(line, 0, &data, NULL, &seg, &recordType, NULL);
 3558              		.loc 4 141 2 discriminator 15
 3559 17f6 488D45C0 		leaq	-64(%rbp), %rax
 3560 17fa 488D1500 		leaq	.LC4(%rip), %rdx
 3560      000000
 3561 1801 4889C6   		movq	%rax, %rsi
 3562 1804 4889DF   		movq	%rbx, %rdi
 3563 1807 E8000000 		call	_ZN8UnitTest11TestResults13OnTestFailureERKNS_11TestDetailsEPKc@PLT
 3563      00
 3564              	.LEHE132:
 3565              	.LEHB133:
 141:testHexIO.cpp **** 	status = bufProcessLine(line, 0, &data, NULL, &seg, &recordType, NULL);
 3566              		.loc 4 141 2 discriminator 17
 3567 180c E8000000 		call	__cxa_end_catch@PLT
 3567      00
 3568              	.LEHE133:
 3569 1811 E917FFFF 		jmp	.L167
 3569      FF
 3570              	.L174:
 3571 1816 F30F1EFA 		endbr64
 141:testHexIO.cpp **** 	status = bufProcessLine(line, 0, &data, NULL, &seg, &recordType, NULL);
 3572              		.loc 4 141 2
 3573 181a 4889C3   		movq	%rax, %rbx
 3574 181d E8000000 		call	__cxa_end_catch@PLT
 3574      00
 3575 1822 4889D8   		movq	%rbx, %rax
 3576 1825 4889C7   		movq	%rax, %rdi
 3577              	.LEHB134:
 3578 1828 E8000000 		call	_Unwind_Resume@PLT
 3578      00
 3579              	.LEHE134:
 3580              	.L175:
 3581 182d F30F1EFA 		endbr64
 143:testHexIO.cpp **** 	bufDestroy(&data);
 3582              		.loc 4 143 2 is_stmt 1
 3583 1831 4889C7   		movq	%rax, %rdi
 3584 1834 E8000000 		call	__cxa_begin_catch@PLT
 3584      00
 3585              	.LEHB135:
 3586 1839 E8000000 		call	_ZN8UnitTest11CurrentTest7ResultsEv@PLT
 3586      00
 143:testHexIO.cpp **** 	bufDestroy(&data);
 3587              		.loc 4 143 2 is_stmt 0 discriminator 3
 3588 183e 488B18   		movq	(%rax), %rbx
 3589 1841 E8000000 		call	_ZN8UnitTest11CurrentTest7DetailsEv@PLT
 3589      00
 143:testHexIO.cpp **** 	bufDestroy(&data);
 3590              		.loc 4 143 2 discriminator 11
 3591 1846 488B08   		movq	(%rax), %rcx
 3592 1849 488D45C0 		leaq	-64(%rbp), %rax
 3593 184d BA8F0000 		movl	$143, %edx
 3593      00
 3594 1852 4889CE   		movq	%rcx, %rsi
 3595 1855 4889C7   		movq	%rax, %rdi
 3596 1858 E8000000 		call	_ZN8UnitTest11TestDetailsC1ERKS0_i@PLT
 3596      00
 143:testHexIO.cpp **** 	bufDestroy(&data);
 3597              		.loc 4 143 2 discriminator 15
 3598 185d 488D45C0 		leaq	-64(%rbp), %rax
 3599 1861 488D1500 		leaq	.LC33(%rip), %rdx
 3599      000000
 3600 1868 4889C6   		movq	%rax, %rsi
 3601 186b 4889DF   		movq	%rbx, %rdi
 3602 186e E8000000 		call	_ZN8UnitTest11TestResults13OnTestFailureERKNS_11TestDetailsEPKc@PLT
 3602      00
 3603              	.LEHE135:
 3604              	.LEHB136:
 143:testHexIO.cpp **** 	bufDestroy(&data);
 3605              		.loc 4 143 2 discriminator 17
 3606 1873 E8000000 		call	__cxa_end_catch@PLT
 3606      00
 3607              	.LEHE136:
 3608 1878 E924FFFF 		jmp	.L170
 3608      FF
 3609              	.L176:
 3610 187d F30F1EFA 		endbr64
 143:testHexIO.cpp **** 	bufDestroy(&data);
 3611              		.loc 4 143 2
 3612 1881 4889C3   		movq	%rax, %rbx
 3613 1884 E8000000 		call	__cxa_end_catch@PLT
 3613      00
 3614 1889 4889D8   		movq	%rbx, %rax
 3615 188c 4889C7   		movq	%rax, %rdi
 3616              	.LEHB137:
 3617 188f E8000000 		call	_Unwind_Resume@PLT
 3617      00
 3618              	.LEHE137:
 3619              	.L177:
 3620              		.loc 4 145 1 is_stmt 1
 3621 1894 E8000000 		call	__stack_chk_fail@PLT
 3621      00
 3622              	.L172:
 3623 1899 488B5DF8 		movq	-8(%rbp), %rbx
 3624 189d C9       		leave
 3625              		.cfi_def_cfa 7, 8
 3626 189e C3       		ret
 3627              		.cfi_endproc
 3628              	.LFE1240:
 3629              		.section	.gcc_except_table
 3630              		.align 4
 3631              	.LLSDA1240:
 3632 02e0 FF       		.byte	0xff
 3633 02e1 9B       		.byte	0x9b
 3634 02e2 41       		.uleb128 .LLSDATT1240-.LLSDATTD1240
 3635              	.LLSDATTD1240:
 3636 02e3 01       		.byte	0x1
 3637 02e4 39       		.uleb128 .LLSDACSE1240-.LLSDACSB1240
 3638              	.LLSDACSB1240:
 3639 02e5 4E       		.uleb128 .LEHB127-.LFB1240
 3640 02e6 05       		.uleb128 .LEHE127-.LEHB127
 3641 02e7 00       		.uleb128 0
 3642 02e8 00       		.uleb128 0
 3643 02e9 56       		.uleb128 .LEHB128-.LFB1240
 3644 02ea 3F       		.uleb128 .LEHE128-.LEHB128
 3645 02eb AE02     		.uleb128 .L173-.LFB1240
 3646 02ed 01       		.uleb128 0x1
 3647 02ee BE01     		.uleb128 .LEHB129-.LFB1240
 3648 02f0 05       		.uleb128 .LEHE129-.LEHB129
 3649 02f1 00       		.uleb128 0
 3650 02f2 00       		.uleb128 0
 3651 02f3 CA01     		.uleb128 .LEHB130-.LFB1240
 3652 02f5 3F       		.uleb128 .LEHE130-.LEHB130
 3653 02f6 9503     		.uleb128 .L175-.LFB1240
 3654 02f8 01       		.uleb128 0x1
 3655 02f9 9002     		.uleb128 .LEHB131-.LFB1240
 3656 02fb 05       		.uleb128 .LEHE131-.LEHB131
 3657 02fc 00       		.uleb128 0
 3658 02fd 00       		.uleb128 0
 3659 02fe BA02     		.uleb128 .LEHB132-.LFB1240
 3660 0300 3A       		.uleb128 .LEHE132-.LEHB132
 3661 0301 FE02     		.uleb128 .L174-.LFB1240
 3662 0303 00       		.uleb128 0
 3663 0304 F402     		.uleb128 .LEHB133-.LFB1240
 3664 0306 05       		.uleb128 .LEHE133-.LEHB133
 3665 0307 00       		.uleb128 0
 3666 0308 00       		.uleb128 0
 3667 0309 9003     		.uleb128 .LEHB134-.LFB1240
 3668 030b 05       		.uleb128 .LEHE134-.LEHB134
 3669 030c 00       		.uleb128 0
 3670 030d 00       		.uleb128 0
 3671 030e A103     		.uleb128 .LEHB135-.LFB1240
 3672 0310 3A       		.uleb128 .LEHE135-.LEHB135
 3673 0311 E503     		.uleb128 .L176-.LFB1240
 3674 0313 00       		.uleb128 0
 3675 0314 DB03     		.uleb128 .LEHB136-.LFB1240
 3676 0316 05       		.uleb128 .LEHE136-.LEHB136
 3677 0317 00       		.uleb128 0
 3678 0318 00       		.uleb128 0
 3679 0319 F703     		.uleb128 .LEHB137-.LFB1240
 3680 031b 05       		.uleb128 .LEHE137-.LEHB137
 3681 031c 00       		.uleb128 0
 3682 031d 00       		.uleb128 0
 3683              	.LLSDACSE1240:
 3684 031e 01       		.byte	0x1
 3685 031f 00       		.byte	0
 3686              		.align 4
 3687 0320 00000000 		.long	0
 3688              	
 3689              	.LLSDATT1240:
 3690              		.text
 3692              		.section	.rodata
 3693              	.LC34:
 3694 0567 48657849 		.string	"HexIO_testJunkChecksum"
 3694      4F5F7465 
 3694      73744A75 
 3694      6E6B4368 
 3694      65636B73 
 3695              		.section	.text._ZN26TestHexIO_testJunkChecksumC2Ev,"axG",@progbits,_ZN26TestHexIO_testJunkChecksum
 3696              		.align 2
 3697              		.weak	_ZN26TestHexIO_testJunkChecksumC2Ev
 3699              	_ZN26TestHexIO_testJunkChecksumC2Ev:
 3700              	.LFB1242:
 146:testHexIO.cpp **** 
 147:testHexIO.cpp **** TEST(HexIO_testJunkChecksum) {
 3701              		.loc 4 147 1
 3702              		.cfi_startproc
 3703 0000 F30F1EFA 		endbr64
 3704 0004 55       		pushq	%rbp
 3705              		.cfi_def_cfa_offset 16
 3706              		.cfi_offset 6, -16
 3707 0005 4889E5   		movq	%rsp, %rbp
 3708              		.cfi_def_cfa_register 6
 3709 0008 53       		pushq	%rbx
 3710 0009 4883EC18 		subq	$24, %rsp
 3711              		.cfi_offset 3, -24
 3712 000d 48897DE8 		movq	%rdi, -24(%rbp)
 3713              	.LBB12:
 3714              		.loc 4 147 1
 3715 0011 488B5DE8 		movq	-24(%rbp), %rbx
 3716 0015 E8000000 		call	_ZN13UnitTestSuite12GetSuiteNameEv
 3716      00
 3717 001a 4889C2   		movq	%rax, %rdx
 3718 001d 41B89300 		movl	$147, %r8d
 3718      0000
 3719 0023 488D0500 		leaq	.LC1(%rip), %rax
 3719      000000
 3720 002a 4889C1   		movq	%rax, %rcx
 3721 002d 488D0500 		leaq	.LC34(%rip), %rax
 3721      000000
 3722 0034 4889C6   		movq	%rax, %rsi
 3723 0037 4889DF   		movq	%rbx, %rdi
 3724 003a E8000000 		call	_ZN8UnitTest4TestC2EPKcS2_S2_i@PLT
 3724      00
 3725 003f 488D1500 		leaq	16+_ZTV26TestHexIO_testJunkChecksum(%rip), %rdx
 3725      000000
 3726 0046 488B45E8 		movq	-24(%rbp), %rax
 3727 004a 488910   		movq	%rdx, (%rax)
 3728              	.LBE12:
 3729 004d 90       		nop
 3730 004e 488B5DF8 		movq	-8(%rbp), %rbx
 3731 0052 C9       		leave
 3732              		.cfi_def_cfa 7, 8
 3733 0053 C3       		ret
 3734              		.cfi_endproc
 3735              	.LFE1242:
 3737              		.weak	_ZN26TestHexIO_testJunkChecksumC1Ev
 3738              		.set	_ZN26TestHexIO_testJunkChecksumC1Ev,_ZN26TestHexIO_testJunkChecksumC2Ev
 3739              		.globl	testHexIO_testJunkChecksumInstance
 3740              		.bss
 3741 01f9 00000000 		.align 32
 3741      000000
 3744              	testHexIO_testJunkChecksumInstance:
 3745 0200 00000000 		.zero	56
 3745      00000000 
 3745      00000000 
 3745      00000000 
 3745      00000000 
 3746              		.globl	adderHexIO_testJunkChecksum
 3749              	adderHexIO_testJunkChecksum:
 3750 0238 00       		.zero	1
 3751              		.section	.rodata
 3752              	.LC35:
 3753 057e 3A303430 		.string	":040BE10075820022..\n"
 3753      42453130 
 3753      30373538 
 3753      32303032 
 3753      322E2E0A 
 3754 0593 00000000 		.align 8
 3754      00
 3755              	.LC36:
 3756 0598 556E6861 		.string	"Unhandled exception in CHECK_EQUAL(HEX_JUNK_CHECKSUM, status)"
 3756      6E646C65 
 3756      64206578 
 3756      63657074 
 3756      696F6E20 
 3757              		.text
 3758 189f 90       		.align 2
 3759              		.globl	_ZNK26TestHexIO_testJunkChecksum7RunImplEv
 3761              	_ZNK26TestHexIO_testJunkChecksum7RunImplEv:
 3762              	.LFB1244:
 3763              		.loc 4 147 30
 3764              		.cfi_startproc
 3765              		.cfi_personality 0x9b,DW.ref.__gxx_personality_v0
 3766              		.cfi_lsda 0x1b,.LLSDA1244
 3767 18a0 F30F1EFA 		endbr64
 3768 18a4 55       		pushq	%rbp
 3769              		.cfi_def_cfa_offset 16
 3770              		.cfi_offset 6, -16
 3771 18a5 4889E5   		movq	%rsp, %rbp
 3772              		.cfi_def_cfa_register 6
 3773 18a8 53       		pushq	%rbx
 3774 18a9 4881EC88 		subq	$136, %rsp
 3774      000000
 3775              		.cfi_offset 3, -24
 3776 18b0 4889BD78 		movq	%rdi, -136(%rbp)
 3776      FFFFFF
 3777              		.loc 4 147 30
 3778 18b7 64488B04 		movq	%fs:40, %rax
 3778      25280000 
 3778      00
 3779 18c0 488945E8 		movq	%rax, -24(%rbp)
 3780 18c4 31C0     		xorl	%eax, %eax
 148:testHexIO.cpp **** 	Buffer data;
 149:testHexIO.cpp **** 	BufferStatus status;
 150:testHexIO.cpp **** 	const char *line = ":040BE10075820022..\n";
 3781              		.loc 4 150 14
 3782 18c6 488D0500 		leaq	.LC35(%rip), %rax
 3782      000000
 3783 18cd 48894598 		movq	%rax, -104(%rbp)
 151:testHexIO.cpp **** 	uint8 recordType;
 152:testHexIO.cpp **** 	uint32 seg = 0x00000000;
 3784              		.loc 4 152 9
 3785 18d1 C7459000 		movl	$0, -112(%rbp)
 3785      000000
 153:testHexIO.cpp **** 	status = bufInitialise(&data, 1024, 0x00, NULL);
 3786              		.loc 4 153 24
 3787 18d8 488D45A0 		leaq	-96(%rbp), %rax
 3788 18dc B9000000 		movl	$0, %ecx
 3788      00
 3789 18e1 BA000000 		movl	$0, %edx
 3789      00
 3790 18e6 BE000400 		movl	$1024, %esi
 3790      00
 3791 18eb 4889C7   		movq	%rax, %rdi
 3792              	.LEHB138:
 3793 18ee E8000000 		call	bufInitialise@PLT
 3793      00
 3794              	.LEHE138:
 3795              		.loc 4 153 9
 3796 18f3 89458C   		movl	%eax, -116(%rbp)
 3797              	.LEHB139:
 154:testHexIO.cpp **** 	CHECK_EQUAL(BUF_SUCCESS, status);
 3798              		.loc 4 154 2
 3799 18f6 E8000000 		call	_ZN8UnitTest11CurrentTest7DetailsEv@PLT
 3799      00
 3800 18fb 488B08   		movq	(%rax), %rcx
 3801 18fe 488D45C0 		leaq	-64(%rbp), %rax
 3802 1902 BA9A0000 		movl	$154, %edx
 3802      00
 3803 1907 4889CE   		movq	%rcx, %rsi
 3804 190a 4889C7   		movq	%rax, %rdi
 3805 190d E8000000 		call	_ZN8UnitTest11TestDetailsC1ERKS0_i@PLT
 3805      00
 3806              		.loc 4 154 2 is_stmt 0 discriminator 4
 3807 1912 C7459400 		movl	$0, -108(%rbp)
 3807      000000
 3808 1919 E8000000 		call	_ZN8UnitTest11CurrentTest7ResultsEv@PLT
 3808      00
 3809 191e 488B00   		movq	(%rax), %rax
 3810 1921 488D4DC0 		leaq	-64(%rbp), %rcx
 3811 1925 488D558C 		leaq	-116(%rbp), %rdx
 3812 1929 488D7594 		leaq	-108(%rbp), %rsi
 3813 192d 4889C7   		movq	%rax, %rdi
 3814 1930 E8000000 		call	_ZN8UnitTest10CheckEqualI12BufferStatusS1_EEvRNS_11TestResultsERKT_RKT0_RKNS_11TestDetailsE
 3814      00
 3815              	.LEHE139:
 3816              	.L181:
 155:testHexIO.cpp **** 	status = bufProcessLine(line, 0, &data, NULL, &seg, &recordType, NULL);
 3817              		.loc 4 155 25 is_stmt 1
 3818 1935 488D758B 		leaq	-117(%rbp), %rsi
 3819 1939 488D4D90 		leaq	-112(%rbp), %rcx
 3820 193d 488D55A0 		leaq	-96(%rbp), %rdx
 3821 1941 488B4598 		movq	-104(%rbp), %rax
 3822 1945 4883EC08 		subq	$8, %rsp
 3823 1949 6A00     		pushq	$0
 3824 194b 4989F1   		movq	%rsi, %r9
 3825 194e 4989C8   		movq	%rcx, %r8
 3826 1951 B9000000 		movl	$0, %ecx
 3826      00
 3827 1956 BE000000 		movl	$0, %esi
 3827      00
 3828 195b 4889C7   		movq	%rax, %rdi
 3829              	.LEHB140:
 3830 195e E8000000 		call	bufProcessLine@PLT
 3830      00
 3831              	.LEHE140:
 3832 1963 4883C410 		addq	$16, %rsp
 3833              		.loc 4 155 9
 3834 1967 89458C   		movl	%eax, -116(%rbp)
 3835              	.LEHB141:
 156:testHexIO.cpp **** 	CHECK_EQUAL(HEX_JUNK_CHECKSUM, status);
 3836              		.loc 4 156 2
 3837 196a E8000000 		call	_ZN8UnitTest11CurrentTest7DetailsEv@PLT
 3837      00
 3838 196f 488B08   		movq	(%rax), %rcx
 3839 1972 488D45C0 		leaq	-64(%rbp), %rax
 3840 1976 BA9C0000 		movl	$156, %edx
 3840      00
 3841 197b 4889CE   		movq	%rcx, %rsi
 3842 197e 4889C7   		movq	%rax, %rdi
 3843 1981 E8000000 		call	_ZN8UnitTest11TestDetailsC1ERKS0_i@PLT
 3843      00
 3844              		.loc 4 156 2 is_stmt 0 discriminator 4
 3845 1986 C745940F 		movl	$15, -108(%rbp)
 3845      000000
 3846 198d E8000000 		call	_ZN8UnitTest11CurrentTest7ResultsEv@PLT
 3846      00
 3847 1992 488B00   		movq	(%rax), %rax
 3848 1995 488D4DC0 		leaq	-64(%rbp), %rcx
 3849 1999 488D558C 		leaq	-116(%rbp), %rdx
 3850 199d 488D7594 		leaq	-108(%rbp), %rsi
 3851 19a1 4889C7   		movq	%rax, %rdi
 3852 19a4 E8000000 		call	_ZN8UnitTest10CheckEqualI12BufferStatusS1_EEvRNS_11TestResultsERKT_RKT0_RKNS_11TestDetailsE
 3852      00
 3853              	.LEHE141:
 3854              	.L184:
 157:testHexIO.cpp **** 	bufDestroy(&data);
 3855              		.loc 4 157 12 is_stmt 1
 3856 19a9 488D45A0 		leaq	-96(%rbp), %rax
 3857 19ad 4889C7   		movq	%rax, %rdi
 3858              	.LEHB142:
 3859 19b0 E8000000 		call	bufDestroy@PLT
 3859      00
 3860              	.LEHE142:
 158:testHexIO.cpp **** }
 3861              		.loc 4 158 1
 3862 19b5 90       		nop
 3863 19b6 488B45E8 		movq	-24(%rbp), %rax
 3864 19ba 64482B04 		subq	%fs:40, %rax
 3864      25280000 
 3864      00
 3865 19c3 0F84D800 		je	.L186
 3865      0000
 3866 19c9 E9CE0000 		jmp	.L191
 3866      00
 3867              	.L187:
 3868 19ce F30F1EFA 		endbr64
 154:testHexIO.cpp **** 	status = bufProcessLine(line, 0, &data, NULL, &seg, &recordType, NULL);
 3869              		.loc 4 154 2
 3870 19d2 4889C7   		movq	%rax, %rdi
 3871 19d5 E8000000 		call	__cxa_begin_catch@PLT
 3871      00
 3872              	.LEHB143:
 3873 19da E8000000 		call	_ZN8UnitTest11CurrentTest7ResultsEv@PLT
 3873      00
 154:testHexIO.cpp **** 	status = bufProcessLine(line, 0, &data, NULL, &seg, &recordType, NULL);
 3874              		.loc 4 154 2 is_stmt 0 discriminator 3
 3875 19df 488B18   		movq	(%rax), %rbx
 3876 19e2 E8000000 		call	_ZN8UnitTest11CurrentTest7DetailsEv@PLT
 3876      00
 154:testHexIO.cpp **** 	status = bufProcessLine(line, 0, &data, NULL, &seg, &recordType, NULL);
 3877              		.loc 4 154 2 discriminator 11
 3878 19e7 488B08   		movq	(%rax), %rcx
 3879 19ea 488D45C0 		leaq	-64(%rbp), %rax
 3880 19ee BA9A0000 		movl	$154, %edx
 3880      00
 3881 19f3 4889CE   		movq	%rcx, %rsi
 3882 19f6 4889C7   		movq	%rax, %rdi
 3883 19f9 E8000000 		call	_ZN8UnitTest11TestDetailsC1ERKS0_i@PLT
 3883      00
 154:testHexIO.cpp **** 	status = bufProcessLine(line, 0, &data, NULL, &seg, &recordType, NULL);
 3884              		.loc 4 154 2 discriminator 15
 3885 19fe 488D45C0 		leaq	-64(%rbp), %rax
 3886 1a02 488D1500 		leaq	.LC4(%rip), %rdx
 3886      000000
 3887 1a09 4889C6   		movq	%rax, %rsi
 3888 1a0c 4889DF   		movq	%rbx, %rdi
 3889 1a0f E8000000 		call	_ZN8UnitTest11TestResults13OnTestFailureERKNS_11TestDetailsEPKc@PLT
 3889      00
 3890              	.LEHE143:
 3891              	.LEHB144:
 154:testHexIO.cpp **** 	status = bufProcessLine(line, 0, &data, NULL, &seg, &recordType, NULL);
 3892              		.loc 4 154 2 discriminator 17
 3893 1a14 E8000000 		call	__cxa_end_catch@PLT
 3893      00
 3894              	.LEHE144:
 3895 1a19 E917FFFF 		jmp	.L181
 3895      FF
 3896              	.L188:
 3897 1a1e F30F1EFA 		endbr64
 154:testHexIO.cpp **** 	status = bufProcessLine(line, 0, &data, NULL, &seg, &recordType, NULL);
 3898              		.loc 4 154 2
 3899 1a22 4889C3   		movq	%rax, %rbx
 3900 1a25 E8000000 		call	__cxa_end_catch@PLT
 3900      00
 3901 1a2a 4889D8   		movq	%rbx, %rax
 3902 1a2d 4889C7   		movq	%rax, %rdi
 3903              	.LEHB145:
 3904 1a30 E8000000 		call	_Unwind_Resume@PLT
 3904      00
 3905              	.LEHE145:
 3906              	.L189:
 3907 1a35 F30F1EFA 		endbr64
 156:testHexIO.cpp **** 	bufDestroy(&data);
 3908              		.loc 4 156 2 is_stmt 1
 3909 1a39 4889C7   		movq	%rax, %rdi
 3910 1a3c E8000000 		call	__cxa_begin_catch@PLT
 3910      00
 3911              	.LEHB146:
 3912 1a41 E8000000 		call	_ZN8UnitTest11CurrentTest7ResultsEv@PLT
 3912      00
 156:testHexIO.cpp **** 	bufDestroy(&data);
 3913              		.loc 4 156 2 is_stmt 0 discriminator 3
 3914 1a46 488B18   		movq	(%rax), %rbx
 3915 1a49 E8000000 		call	_ZN8UnitTest11CurrentTest7DetailsEv@PLT
 3915      00
 156:testHexIO.cpp **** 	bufDestroy(&data);
 3916              		.loc 4 156 2 discriminator 11
 3917 1a4e 488B08   		movq	(%rax), %rcx
 3918 1a51 488D45C0 		leaq	-64(%rbp), %rax
 3919 1a55 BA9C0000 		movl	$156, %edx
 3919      00
 3920 1a5a 4889CE   		movq	%rcx, %rsi
 3921 1a5d 4889C7   		movq	%rax, %rdi
 3922 1a60 E8000000 		call	_ZN8UnitTest11TestDetailsC1ERKS0_i@PLT
 3922      00
 156:testHexIO.cpp **** 	bufDestroy(&data);
 3923              		.loc 4 156 2 discriminator 15
 3924 1a65 488D45C0 		leaq	-64(%rbp), %rax
 3925 1a69 488D1500 		leaq	.LC36(%rip), %rdx
 3925      000000
 3926 1a70 4889C6   		movq	%rax, %rsi
 3927 1a73 4889DF   		movq	%rbx, %rdi
 3928 1a76 E8000000 		call	_ZN8UnitTest11TestResults13OnTestFailureERKNS_11TestDetailsEPKc@PLT
 3928      00
 3929              	.LEHE146:
 3930              	.LEHB147:
 156:testHexIO.cpp **** 	bufDestroy(&data);
 3931              		.loc 4 156 2 discriminator 17
 3932 1a7b E8000000 		call	__cxa_end_catch@PLT
 3932      00
 3933              	.LEHE147:
 3934 1a80 E924FFFF 		jmp	.L184
 3934      FF
 3935              	.L190:
 3936 1a85 F30F1EFA 		endbr64
 156:testHexIO.cpp **** 	bufDestroy(&data);
 3937              		.loc 4 156 2
 3938 1a89 4889C3   		movq	%rax, %rbx
 3939 1a8c E8000000 		call	__cxa_end_catch@PLT
 3939      00
 3940 1a91 4889D8   		movq	%rbx, %rax
 3941 1a94 4889C7   		movq	%rax, %rdi
 3942              	.LEHB148:
 3943 1a97 E8000000 		call	_Unwind_Resume@PLT
 3943      00
 3944              	.LEHE148:
 3945              	.L191:
 3946              		.loc 4 158 1 is_stmt 1
 3947 1a9c E8000000 		call	__stack_chk_fail@PLT
 3947      00
 3948              	.L186:
 3949 1aa1 488B5DF8 		movq	-8(%rbp), %rbx
 3950 1aa5 C9       		leave
 3951              		.cfi_def_cfa 7, 8
 3952 1aa6 C3       		ret
 3953              		.cfi_endproc
 3954              	.LFE1244:
 3955              		.section	.gcc_except_table
 3956              		.align 4
 3957              	.LLSDA1244:
 3958 0324 FF       		.byte	0xff
 3959 0325 9B       		.byte	0x9b
 3960 0326 41       		.uleb128 .LLSDATT1244-.LLSDATTD1244
 3961              	.LLSDATTD1244:
 3962 0327 01       		.byte	0x1
 3963 0328 39       		.uleb128 .LLSDACSE1244-.LLSDACSB1244
 3964              	.LLSDACSB1244:
 3965 0329 4E       		.uleb128 .LEHB138-.LFB1244
 3966 032a 05       		.uleb128 .LEHE138-.LEHB138
 3967 032b 00       		.uleb128 0
 3968 032c 00       		.uleb128 0
 3969 032d 56       		.uleb128 .LEHB139-.LFB1244
 3970 032e 3F       		.uleb128 .LEHE139-.LEHB139
 3971 032f AE02     		.uleb128 .L187-.LFB1244
 3972 0331 01       		.uleb128 0x1
 3973 0332 BE01     		.uleb128 .LEHB140-.LFB1244
 3974 0334 05       		.uleb128 .LEHE140-.LEHB140
 3975 0335 00       		.uleb128 0
 3976 0336 00       		.uleb128 0
 3977 0337 CA01     		.uleb128 .LEHB141-.LFB1244
 3978 0339 3F       		.uleb128 .LEHE141-.LEHB141
 3979 033a 9503     		.uleb128 .L189-.LFB1244
 3980 033c 01       		.uleb128 0x1
 3981 033d 9002     		.uleb128 .LEHB142-.LFB1244
 3982 033f 05       		.uleb128 .LEHE142-.LEHB142
 3983 0340 00       		.uleb128 0
 3984 0341 00       		.uleb128 0
 3985 0342 BA02     		.uleb128 .LEHB143-.LFB1244
 3986 0344 3A       		.uleb128 .LEHE143-.LEHB143
 3987 0345 FE02     		.uleb128 .L188-.LFB1244
 3988 0347 00       		.uleb128 0
 3989 0348 F402     		.uleb128 .LEHB144-.LFB1244
 3990 034a 05       		.uleb128 .LEHE144-.LEHB144
 3991 034b 00       		.uleb128 0
 3992 034c 00       		.uleb128 0
 3993 034d 9003     		.uleb128 .LEHB145-.LFB1244
 3994 034f 05       		.uleb128 .LEHE145-.LEHB145
 3995 0350 00       		.uleb128 0
 3996 0351 00       		.uleb128 0
 3997 0352 A103     		.uleb128 .LEHB146-.LFB1244
 3998 0354 3A       		.uleb128 .LEHE146-.LEHB146
 3999 0355 E503     		.uleb128 .L190-.LFB1244
 4000 0357 00       		.uleb128 0
 4001 0358 DB03     		.uleb128 .LEHB147-.LFB1244
 4002 035a 05       		.uleb128 .LEHE147-.LEHB147
 4003 035b 00       		.uleb128 0
 4004 035c 00       		.uleb128 0
 4005 035d F703     		.uleb128 .LEHB148-.LFB1244
 4006 035f 05       		.uleb128 .LEHE148-.LEHB148
 4007 0360 00       		.uleb128 0
 4008 0361 00       		.uleb128 0
 4009              	.LLSDACSE1244:
 4010 0362 01       		.byte	0x1
 4011 0363 00       		.byte	0
 4012              		.align 4
 4013 0364 00000000 		.long	0
 4014              	
 4015              	.LLSDATT1244:
 4016              		.text
 4018              		.section	.rodata
 4019              	.LC37:
 4020 05d6 48657849 		.string	"HexIO_testBadChecksum"
 4020      4F5F7465 
 4020      73744261 
 4020      64436865 
 4020      636B7375 
 4021              		.section	.text._ZN25TestHexIO_testBadChecksumC2Ev,"axG",@progbits,_ZN25TestHexIO_testBadChecksumC5
 4022              		.align 2
 4023              		.weak	_ZN25TestHexIO_testBadChecksumC2Ev
 4025              	_ZN25TestHexIO_testBadChecksumC2Ev:
 4026              	.LFB1246:
 159:testHexIO.cpp **** 
 160:testHexIO.cpp **** TEST(HexIO_testBadChecksum) {
 4027              		.loc 4 160 1
 4028              		.cfi_startproc
 4029 0000 F30F1EFA 		endbr64
 4030 0004 55       		pushq	%rbp
 4031              		.cfi_def_cfa_offset 16
 4032              		.cfi_offset 6, -16
 4033 0005 4889E5   		movq	%rsp, %rbp
 4034              		.cfi_def_cfa_register 6
 4035 0008 53       		pushq	%rbx
 4036 0009 4883EC18 		subq	$24, %rsp
 4037              		.cfi_offset 3, -24
 4038 000d 48897DE8 		movq	%rdi, -24(%rbp)
 4039              	.LBB13:
 4040              		.loc 4 160 1
 4041 0011 488B5DE8 		movq	-24(%rbp), %rbx
 4042 0015 E8000000 		call	_ZN13UnitTestSuite12GetSuiteNameEv
 4042      00
 4043 001a 4889C2   		movq	%rax, %rdx
 4044 001d 41B8A000 		movl	$160, %r8d
 4044      0000
 4045 0023 488D0500 		leaq	.LC1(%rip), %rax
 4045      000000
 4046 002a 4889C1   		movq	%rax, %rcx
 4047 002d 488D0500 		leaq	.LC37(%rip), %rax
 4047      000000
 4048 0034 4889C6   		movq	%rax, %rsi
 4049 0037 4889DF   		movq	%rbx, %rdi
 4050 003a E8000000 		call	_ZN8UnitTest4TestC2EPKcS2_S2_i@PLT
 4050      00
 4051 003f 488D1500 		leaq	16+_ZTV25TestHexIO_testBadChecksum(%rip), %rdx
 4051      000000
 4052 0046 488B45E8 		movq	-24(%rbp), %rax
 4053 004a 488910   		movq	%rdx, (%rax)
 4054              	.LBE13:
 4055 004d 90       		nop
 4056 004e 488B5DF8 		movq	-8(%rbp), %rbx
 4057 0052 C9       		leave
 4058              		.cfi_def_cfa 7, 8
 4059 0053 C3       		ret
 4060              		.cfi_endproc
 4061              	.LFE1246:
 4063              		.weak	_ZN25TestHexIO_testBadChecksumC1Ev
 4064              		.set	_ZN25TestHexIO_testBadChecksumC1Ev,_ZN25TestHexIO_testBadChecksumC2Ev
 4065              		.globl	testHexIO_testBadChecksumInstance
 4066              		.bss
 4067 0239 00000000 		.align 32
 4067      000000
 4070              	testHexIO_testBadChecksumInstance:
 4071 0240 00000000 		.zero	56
 4071      00000000 
 4071      00000000 
 4071      00000000 
 4071      00000000 
 4072              		.globl	adderHexIO_testBadChecksum
 4075              	adderHexIO_testBadChecksum:
 4076 0278 00       		.zero	1
 4077              		.section	.rodata
 4078              	.LC38:
 4079 05ec 3A303430 		.string	":040BE10075820022F8\n"
 4079      42453130 
 4079      30373538 
 4079      32303032 
 4079      3246380A 
 4080 0601 00000000 		.align 8
 4080      000000
 4081              	.LC39:
 4082 0608 556E6861 		.string	"Unhandled exception in CHECK_EQUAL(HEX_BAD_CHECKSUM, status)"
 4082      6E646C65 
 4082      64206578 
 4082      63657074 
 4082      696F6E20 
 4083              		.text
 4084 1aa7 90       		.align 2
 4085              		.globl	_ZNK25TestHexIO_testBadChecksum7RunImplEv
 4087              	_ZNK25TestHexIO_testBadChecksum7RunImplEv:
 4088              	.LFB1248:
 4089              		.loc 4 160 29
 4090              		.cfi_startproc
 4091              		.cfi_personality 0x9b,DW.ref.__gxx_personality_v0
 4092              		.cfi_lsda 0x1b,.LLSDA1248
 4093 1aa8 F30F1EFA 		endbr64
 4094 1aac 55       		pushq	%rbp
 4095              		.cfi_def_cfa_offset 16
 4096              		.cfi_offset 6, -16
 4097 1aad 4889E5   		movq	%rsp, %rbp
 4098              		.cfi_def_cfa_register 6
 4099 1ab0 53       		pushq	%rbx
 4100 1ab1 4881EC88 		subq	$136, %rsp
 4100      000000
 4101              		.cfi_offset 3, -24
 4102 1ab8 4889BD78 		movq	%rdi, -136(%rbp)
 4102      FFFFFF
 4103              		.loc 4 160 29
 4104 1abf 64488B04 		movq	%fs:40, %rax
 4104      25280000 
 4104      00
 4105 1ac8 488945E8 		movq	%rax, -24(%rbp)
 4106 1acc 31C0     		xorl	%eax, %eax
 161:testHexIO.cpp **** 	Buffer data;
 162:testHexIO.cpp **** 	BufferStatus status;
 163:testHexIO.cpp **** 	const char *line = ":040BE10075820022F8\n";
 4107              		.loc 4 163 14
 4108 1ace 488D0500 		leaq	.LC38(%rip), %rax
 4108      000000
 4109 1ad5 48894598 		movq	%rax, -104(%rbp)
 164:testHexIO.cpp **** 	uint8 recordType;
 165:testHexIO.cpp **** 	uint32 seg = 0x00000000;
 4110              		.loc 4 165 9
 4111 1ad9 C7459000 		movl	$0, -112(%rbp)
 4111      000000
 166:testHexIO.cpp **** 	status = bufInitialise(&data, 1024, 0x00, NULL);
 4112              		.loc 4 166 24
 4113 1ae0 488D45A0 		leaq	-96(%rbp), %rax
 4114 1ae4 B9000000 		movl	$0, %ecx
 4114      00
 4115 1ae9 BA000000 		movl	$0, %edx
 4115      00
 4116 1aee BE000400 		movl	$1024, %esi
 4116      00
 4117 1af3 4889C7   		movq	%rax, %rdi
 4118              	.LEHB149:
 4119 1af6 E8000000 		call	bufInitialise@PLT
 4119      00
 4120              	.LEHE149:
 4121              		.loc 4 166 9
 4122 1afb 89458C   		movl	%eax, -116(%rbp)
 4123              	.LEHB150:
 167:testHexIO.cpp **** 	CHECK_EQUAL(BUF_SUCCESS, status);
 4124              		.loc 4 167 2
 4125 1afe E8000000 		call	_ZN8UnitTest11CurrentTest7DetailsEv@PLT
 4125      00
 4126 1b03 488B08   		movq	(%rax), %rcx
 4127 1b06 488D45C0 		leaq	-64(%rbp), %rax
 4128 1b0a BAA70000 		movl	$167, %edx
 4128      00
 4129 1b0f 4889CE   		movq	%rcx, %rsi
 4130 1b12 4889C7   		movq	%rax, %rdi
 4131 1b15 E8000000 		call	_ZN8UnitTest11TestDetailsC1ERKS0_i@PLT
 4131      00
 4132              		.loc 4 167 2 is_stmt 0 discriminator 4
 4133 1b1a C7459400 		movl	$0, -108(%rbp)
 4133      000000
 4134 1b21 E8000000 		call	_ZN8UnitTest11CurrentTest7ResultsEv@PLT
 4134      00
 4135 1b26 488B00   		movq	(%rax), %rax
 4136 1b29 488D4DC0 		leaq	-64(%rbp), %rcx
 4137 1b2d 488D558C 		leaq	-116(%rbp), %rdx
 4138 1b31 488D7594 		leaq	-108(%rbp), %rsi
 4139 1b35 4889C7   		movq	%rax, %rdi
 4140 1b38 E8000000 		call	_ZN8UnitTest10CheckEqualI12BufferStatusS1_EEvRNS_11TestResultsERKT_RKT0_RKNS_11TestDetailsE
 4140      00
 4141              	.LEHE150:
 4142              	.L195:
 168:testHexIO.cpp **** 	status = bufProcessLine(line, 0, &data, NULL, &seg, &recordType, NULL);
 4143              		.loc 4 168 25 is_stmt 1
 4144 1b3d 488D758B 		leaq	-117(%rbp), %rsi
 4145 1b41 488D4D90 		leaq	-112(%rbp), %rcx
 4146 1b45 488D55A0 		leaq	-96(%rbp), %rdx
 4147 1b49 488B4598 		movq	-104(%rbp), %rax
 4148 1b4d 4883EC08 		subq	$8, %rsp
 4149 1b51 6A00     		pushq	$0
 4150 1b53 4989F1   		movq	%rsi, %r9
 4151 1b56 4989C8   		movq	%rcx, %r8
 4152 1b59 B9000000 		movl	$0, %ecx
 4152      00
 4153 1b5e BE000000 		movl	$0, %esi
 4153      00
 4154 1b63 4889C7   		movq	%rax, %rdi
 4155              	.LEHB151:
 4156 1b66 E8000000 		call	bufProcessLine@PLT
 4156      00
 4157              	.LEHE151:
 4158 1b6b 4883C410 		addq	$16, %rsp
 4159              		.loc 4 168 9
 4160 1b6f 89458C   		movl	%eax, -116(%rbp)
 4161              	.LEHB152:
 169:testHexIO.cpp **** 	CHECK_EQUAL(HEX_BAD_CHECKSUM, status);
 4162              		.loc 4 169 2
 4163 1b72 E8000000 		call	_ZN8UnitTest11CurrentTest7DetailsEv@PLT
 4163      00
 4164 1b77 488B08   		movq	(%rax), %rcx
 4165 1b7a 488D45C0 		leaq	-64(%rbp), %rax
 4166 1b7e BAA90000 		movl	$169, %edx
 4166      00
 4167 1b83 4889CE   		movq	%rcx, %rsi
 4168 1b86 4889C7   		movq	%rax, %rdi
 4169 1b89 E8000000 		call	_ZN8UnitTest11TestDetailsC1ERKS0_i@PLT
 4169      00
 4170              		.loc 4 169 2 is_stmt 0 discriminator 4
 4171 1b8e C7459410 		movl	$16, -108(%rbp)
 4171      000000
 4172 1b95 E8000000 		call	_ZN8UnitTest11CurrentTest7ResultsEv@PLT
 4172      00
 4173 1b9a 488B00   		movq	(%rax), %rax
 4174 1b9d 488D4DC0 		leaq	-64(%rbp), %rcx
 4175 1ba1 488D558C 		leaq	-116(%rbp), %rdx
 4176 1ba5 488D7594 		leaq	-108(%rbp), %rsi
 4177 1ba9 4889C7   		movq	%rax, %rdi
 4178 1bac E8000000 		call	_ZN8UnitTest10CheckEqualI12BufferStatusS1_EEvRNS_11TestResultsERKT_RKT0_RKNS_11TestDetailsE
 4178      00
 4179              	.LEHE152:
 4180              	.L198:
 170:testHexIO.cpp **** 	bufDestroy(&data);
 4181              		.loc 4 170 12 is_stmt 1
 4182 1bb1 488D45A0 		leaq	-96(%rbp), %rax
 4183 1bb5 4889C7   		movq	%rax, %rdi
 4184              	.LEHB153:
 4185 1bb8 E8000000 		call	bufDestroy@PLT
 4185      00
 4186              	.LEHE153:
 171:testHexIO.cpp **** }
 4187              		.loc 4 171 1
 4188 1bbd 90       		nop
 4189 1bbe 488B45E8 		movq	-24(%rbp), %rax
 4190 1bc2 64482B04 		subq	%fs:40, %rax
 4190      25280000 
 4190      00
 4191 1bcb 0F84D800 		je	.L200
 4191      0000
 4192 1bd1 E9CE0000 		jmp	.L205
 4192      00
 4193              	.L201:
 4194 1bd6 F30F1EFA 		endbr64
 167:testHexIO.cpp **** 	status = bufProcessLine(line, 0, &data, NULL, &seg, &recordType, NULL);
 4195              		.loc 4 167 2
 4196 1bda 4889C7   		movq	%rax, %rdi
 4197 1bdd E8000000 		call	__cxa_begin_catch@PLT
 4197      00
 4198              	.LEHB154:
 4199 1be2 E8000000 		call	_ZN8UnitTest11CurrentTest7ResultsEv@PLT
 4199      00
 167:testHexIO.cpp **** 	status = bufProcessLine(line, 0, &data, NULL, &seg, &recordType, NULL);
 4200              		.loc 4 167 2 is_stmt 0 discriminator 3
 4201 1be7 488B18   		movq	(%rax), %rbx
 4202 1bea E8000000 		call	_ZN8UnitTest11CurrentTest7DetailsEv@PLT
 4202      00
 167:testHexIO.cpp **** 	status = bufProcessLine(line, 0, &data, NULL, &seg, &recordType, NULL);
 4203              		.loc 4 167 2 discriminator 11
 4204 1bef 488B08   		movq	(%rax), %rcx
 4205 1bf2 488D45C0 		leaq	-64(%rbp), %rax
 4206 1bf6 BAA70000 		movl	$167, %edx
 4206      00
 4207 1bfb 4889CE   		movq	%rcx, %rsi
 4208 1bfe 4889C7   		movq	%rax, %rdi
 4209 1c01 E8000000 		call	_ZN8UnitTest11TestDetailsC1ERKS0_i@PLT
 4209      00
 167:testHexIO.cpp **** 	status = bufProcessLine(line, 0, &data, NULL, &seg, &recordType, NULL);
 4210              		.loc 4 167 2 discriminator 15
 4211 1c06 488D45C0 		leaq	-64(%rbp), %rax
 4212 1c0a 488D1500 		leaq	.LC4(%rip), %rdx
 4212      000000
 4213 1c11 4889C6   		movq	%rax, %rsi
 4214 1c14 4889DF   		movq	%rbx, %rdi
 4215 1c17 E8000000 		call	_ZN8UnitTest11TestResults13OnTestFailureERKNS_11TestDetailsEPKc@PLT
 4215      00
 4216              	.LEHE154:
 4217              	.LEHB155:
 167:testHexIO.cpp **** 	status = bufProcessLine(line, 0, &data, NULL, &seg, &recordType, NULL);
 4218              		.loc 4 167 2 discriminator 17
 4219 1c1c E8000000 		call	__cxa_end_catch@PLT
 4219      00
 4220              	.LEHE155:
 4221 1c21 E917FFFF 		jmp	.L195
 4221      FF
 4222              	.L202:
 4223 1c26 F30F1EFA 		endbr64
 167:testHexIO.cpp **** 	status = bufProcessLine(line, 0, &data, NULL, &seg, &recordType, NULL);
 4224              		.loc 4 167 2
 4225 1c2a 4889C3   		movq	%rax, %rbx
 4226 1c2d E8000000 		call	__cxa_end_catch@PLT
 4226      00
 4227 1c32 4889D8   		movq	%rbx, %rax
 4228 1c35 4889C7   		movq	%rax, %rdi
 4229              	.LEHB156:
 4230 1c38 E8000000 		call	_Unwind_Resume@PLT
 4230      00
 4231              	.LEHE156:
 4232              	.L203:
 4233 1c3d F30F1EFA 		endbr64
 169:testHexIO.cpp **** 	bufDestroy(&data);
 4234              		.loc 4 169 2 is_stmt 1
 4235 1c41 4889C7   		movq	%rax, %rdi
 4236 1c44 E8000000 		call	__cxa_begin_catch@PLT
 4236      00
 4237              	.LEHB157:
 4238 1c49 E8000000 		call	_ZN8UnitTest11CurrentTest7ResultsEv@PLT
 4238      00
 169:testHexIO.cpp **** 	bufDestroy(&data);
 4239              		.loc 4 169 2 is_stmt 0 discriminator 3
 4240 1c4e 488B18   		movq	(%rax), %rbx
 4241 1c51 E8000000 		call	_ZN8UnitTest11CurrentTest7DetailsEv@PLT
 4241      00
 169:testHexIO.cpp **** 	bufDestroy(&data);
 4242              		.loc 4 169 2 discriminator 11
 4243 1c56 488B08   		movq	(%rax), %rcx
 4244 1c59 488D45C0 		leaq	-64(%rbp), %rax
 4245 1c5d BAA90000 		movl	$169, %edx
 4245      00
 4246 1c62 4889CE   		movq	%rcx, %rsi
 4247 1c65 4889C7   		movq	%rax, %rdi
 4248 1c68 E8000000 		call	_ZN8UnitTest11TestDetailsC1ERKS0_i@PLT
 4248      00
 169:testHexIO.cpp **** 	bufDestroy(&data);
 4249              		.loc 4 169 2 discriminator 15
 4250 1c6d 488D45C0 		leaq	-64(%rbp), %rax
 4251 1c71 488D1500 		leaq	.LC39(%rip), %rdx
 4251      000000
 4252 1c78 4889C6   		movq	%rax, %rsi
 4253 1c7b 4889DF   		movq	%rbx, %rdi
 4254 1c7e E8000000 		call	_ZN8UnitTest11TestResults13OnTestFailureERKNS_11TestDetailsEPKc@PLT
 4254      00
 4255              	.LEHE157:
 4256              	.LEHB158:
 169:testHexIO.cpp **** 	bufDestroy(&data);
 4257              		.loc 4 169 2 discriminator 17
 4258 1c83 E8000000 		call	__cxa_end_catch@PLT
 4258      00
 4259              	.LEHE158:
 4260 1c88 E924FFFF 		jmp	.L198
 4260      FF
 4261              	.L204:
 4262 1c8d F30F1EFA 		endbr64
 169:testHexIO.cpp **** 	bufDestroy(&data);
 4263              		.loc 4 169 2
 4264 1c91 4889C3   		movq	%rax, %rbx
 4265 1c94 E8000000 		call	__cxa_end_catch@PLT
 4265      00
 4266 1c99 4889D8   		movq	%rbx, %rax
 4267 1c9c 4889C7   		movq	%rax, %rdi
 4268              	.LEHB159:
 4269 1c9f E8000000 		call	_Unwind_Resume@PLT
 4269      00
 4270              	.LEHE159:
 4271              	.L205:
 4272              		.loc 4 171 1 is_stmt 1
 4273 1ca4 E8000000 		call	__stack_chk_fail@PLT
 4273      00
 4274              	.L200:
 4275 1ca9 488B5DF8 		movq	-8(%rbp), %rbx
 4276 1cad C9       		leave
 4277              		.cfi_def_cfa 7, 8
 4278 1cae C3       		ret
 4279              		.cfi_endproc
 4280              	.LFE1248:
 4281              		.section	.gcc_except_table
 4282              		.align 4
 4283              	.LLSDA1248:
 4284 0368 FF       		.byte	0xff
 4285 0369 9B       		.byte	0x9b
 4286 036a 41       		.uleb128 .LLSDATT1248-.LLSDATTD1248
 4287              	.LLSDATTD1248:
 4288 036b 01       		.byte	0x1
 4289 036c 39       		.uleb128 .LLSDACSE1248-.LLSDACSB1248
 4290              	.LLSDACSB1248:
 4291 036d 4E       		.uleb128 .LEHB149-.LFB1248
 4292 036e 05       		.uleb128 .LEHE149-.LEHB149
 4293 036f 00       		.uleb128 0
 4294 0370 00       		.uleb128 0
 4295 0371 56       		.uleb128 .LEHB150-.LFB1248
 4296 0372 3F       		.uleb128 .LEHE150-.LEHB150
 4297 0373 AE02     		.uleb128 .L201-.LFB1248
 4298 0375 01       		.uleb128 0x1
 4299 0376 BE01     		.uleb128 .LEHB151-.LFB1248
 4300 0378 05       		.uleb128 .LEHE151-.LEHB151
 4301 0379 00       		.uleb128 0
 4302 037a 00       		.uleb128 0
 4303 037b CA01     		.uleb128 .LEHB152-.LFB1248
 4304 037d 3F       		.uleb128 .LEHE152-.LEHB152
 4305 037e 9503     		.uleb128 .L203-.LFB1248
 4306 0380 01       		.uleb128 0x1
 4307 0381 9002     		.uleb128 .LEHB153-.LFB1248
 4308 0383 05       		.uleb128 .LEHE153-.LEHB153
 4309 0384 00       		.uleb128 0
 4310 0385 00       		.uleb128 0
 4311 0386 BA02     		.uleb128 .LEHB154-.LFB1248
 4312 0388 3A       		.uleb128 .LEHE154-.LEHB154
 4313 0389 FE02     		.uleb128 .L202-.LFB1248
 4314 038b 00       		.uleb128 0
 4315 038c F402     		.uleb128 .LEHB155-.LFB1248
 4316 038e 05       		.uleb128 .LEHE155-.LEHB155
 4317 038f 00       		.uleb128 0
 4318 0390 00       		.uleb128 0
 4319 0391 9003     		.uleb128 .LEHB156-.LFB1248
 4320 0393 05       		.uleb128 .LEHE156-.LEHB156
 4321 0394 00       		.uleb128 0
 4322 0395 00       		.uleb128 0
 4323 0396 A103     		.uleb128 .LEHB157-.LFB1248
 4324 0398 3A       		.uleb128 .LEHE157-.LEHB157
 4325 0399 E503     		.uleb128 .L204-.LFB1248
 4326 039b 00       		.uleb128 0
 4327 039c DB03     		.uleb128 .LEHB158-.LFB1248
 4328 039e 05       		.uleb128 .LEHE158-.LEHB158
 4329 039f 00       		.uleb128 0
 4330 03a0 00       		.uleb128 0
 4331 03a1 F703     		.uleb128 .LEHB159-.LFB1248
 4332 03a3 05       		.uleb128 .LEHE159-.LEHB159
 4333 03a4 00       		.uleb128 0
 4334 03a5 00       		.uleb128 0
 4335              	.LLSDACSE1248:
 4336 03a6 01       		.byte	0x1
 4337 03a7 00       		.byte	0
 4338              		.align 4
 4339 03a8 00000000 		.long	0
 4340              	
 4341              	.LLSDATT1248:
 4342              		.text
 4344              		.section	.rodata
 4345              	.LC40:
 4346 0645 48657849 		.string	"HexIO_testCorruptLine"
 4346      4F5F7465 
 4346      7374436F 
 4346      72727570 
 4346      744C696E 
 4347              		.section	.text._ZN25TestHexIO_testCorruptLineC2Ev,"axG",@progbits,_ZN25TestHexIO_testCorruptLineC5
 4348              		.align 2
 4349              		.weak	_ZN25TestHexIO_testCorruptLineC2Ev
 4351              	_ZN25TestHexIO_testCorruptLineC2Ev:
 4352              	.LFB1250:
 172:testHexIO.cpp **** 
 173:testHexIO.cpp **** TEST(HexIO_testCorruptLine) {
 4353              		.loc 4 173 1
 4354              		.cfi_startproc
 4355 0000 F30F1EFA 		endbr64
 4356 0004 55       		pushq	%rbp
 4357              		.cfi_def_cfa_offset 16
 4358              		.cfi_offset 6, -16
 4359 0005 4889E5   		movq	%rsp, %rbp
 4360              		.cfi_def_cfa_register 6
 4361 0008 53       		pushq	%rbx
 4362 0009 4883EC18 		subq	$24, %rsp
 4363              		.cfi_offset 3, -24
 4364 000d 48897DE8 		movq	%rdi, -24(%rbp)
 4365              	.LBB14:
 4366              		.loc 4 173 1
 4367 0011 488B5DE8 		movq	-24(%rbp), %rbx
 4368 0015 E8000000 		call	_ZN13UnitTestSuite12GetSuiteNameEv
 4368      00
 4369 001a 4889C2   		movq	%rax, %rdx
 4370 001d 41B8AD00 		movl	$173, %r8d
 4370      0000
 4371 0023 488D0500 		leaq	.LC1(%rip), %rax
 4371      000000
 4372 002a 4889C1   		movq	%rax, %rcx
 4373 002d 488D0500 		leaq	.LC40(%rip), %rax
 4373      000000
 4374 0034 4889C6   		movq	%rax, %rsi
 4375 0037 4889DF   		movq	%rbx, %rdi
 4376 003a E8000000 		call	_ZN8UnitTest4TestC2EPKcS2_S2_i@PLT
 4376      00
 4377 003f 488D1500 		leaq	16+_ZTV25TestHexIO_testCorruptLine(%rip), %rdx
 4377      000000
 4378 0046 488B45E8 		movq	-24(%rbp), %rax
 4379 004a 488910   		movq	%rdx, (%rax)
 4380              	.LBE14:
 4381 004d 90       		nop
 4382 004e 488B5DF8 		movq	-8(%rbp), %rbx
 4383 0052 C9       		leave
 4384              		.cfi_def_cfa 7, 8
 4385 0053 C3       		ret
 4386              		.cfi_endproc
 4387              	.LFE1250:
 4389              		.weak	_ZN25TestHexIO_testCorruptLineC1Ev
 4390              		.set	_ZN25TestHexIO_testCorruptLineC1Ev,_ZN25TestHexIO_testCorruptLineC2Ev
 4391              		.globl	testHexIO_testCorruptLineInstance
 4392              		.bss
 4393 0279 00000000 		.align 32
 4393      000000
 4396              	testHexIO_testCorruptLineInstance:
 4397 0280 00000000 		.zero	56
 4397      00000000 
 4397      00000000 
 4397      00000000 
 4397      00000000 
 4398              		.globl	adderHexIO_testCorruptLine
 4401              	adderHexIO_testCorruptLine:
 4402 02b8 00       		.zero	1
 4403              		.section	.rodata
 4404              	.LC41:
 4405 065b 3A303430 		.string	":040BE10075820022F7 \n"
 4405      42453130 
 4405      30373538 
 4405      32303032 
 4405      32463720 
 4406 0671 00000000 		.align 8
 4406      000000
 4407              	.LC42:
 4408 0678 556E6861 		.string	"Unhandled exception in CHECK_EQUAL(HEX_CORRUPT_LINE, status)"
 4408      6E646C65 
 4408      64206578 
 4408      63657074 
 4408      696F6E20 
 4409              		.text
 4410 1caf 90       		.align 2
 4411              		.globl	_ZNK25TestHexIO_testCorruptLine7RunImplEv
 4413              	_ZNK25TestHexIO_testCorruptLine7RunImplEv:
 4414              	.LFB1252:
 4415              		.loc 4 173 29
 4416              		.cfi_startproc
 4417              		.cfi_personality 0x9b,DW.ref.__gxx_personality_v0
 4418              		.cfi_lsda 0x1b,.LLSDA1252
 4419 1cb0 F30F1EFA 		endbr64
 4420 1cb4 55       		pushq	%rbp
 4421              		.cfi_def_cfa_offset 16
 4422              		.cfi_offset 6, -16
 4423 1cb5 4889E5   		movq	%rsp, %rbp
 4424              		.cfi_def_cfa_register 6
 4425 1cb8 53       		pushq	%rbx
 4426 1cb9 4881EC88 		subq	$136, %rsp
 4426      000000
 4427              		.cfi_offset 3, -24
 4428 1cc0 4889BD78 		movq	%rdi, -136(%rbp)
 4428      FFFFFF
 4429              		.loc 4 173 29
 4430 1cc7 64488B04 		movq	%fs:40, %rax
 4430      25280000 
 4430      00
 4431 1cd0 488945E8 		movq	%rax, -24(%rbp)
 4432 1cd4 31C0     		xorl	%eax, %eax
 174:testHexIO.cpp **** 	Buffer data;
 175:testHexIO.cpp **** 	BufferStatus status;
 176:testHexIO.cpp **** 	const char *line = ":040BE10075820022F7 \n";
 4433              		.loc 4 176 14
 4434 1cd6 488D0500 		leaq	.LC41(%rip), %rax
 4434      000000
 4435 1cdd 48894598 		movq	%rax, -104(%rbp)
 177:testHexIO.cpp **** 	uint8 recordType;
 178:testHexIO.cpp **** 	uint32 seg = 0x00000000;
 4436              		.loc 4 178 9
 4437 1ce1 C7459000 		movl	$0, -112(%rbp)
 4437      000000
 179:testHexIO.cpp **** 	status = bufInitialise(&data, 1024, 0x00, NULL);
 4438              		.loc 4 179 24
 4439 1ce8 488D45A0 		leaq	-96(%rbp), %rax
 4440 1cec B9000000 		movl	$0, %ecx
 4440      00
 4441 1cf1 BA000000 		movl	$0, %edx
 4441      00
 4442 1cf6 BE000400 		movl	$1024, %esi
 4442      00
 4443 1cfb 4889C7   		movq	%rax, %rdi
 4444              	.LEHB160:
 4445 1cfe E8000000 		call	bufInitialise@PLT
 4445      00
 4446              	.LEHE160:
 4447              		.loc 4 179 9
 4448 1d03 89458C   		movl	%eax, -116(%rbp)
 4449              	.LEHB161:
 180:testHexIO.cpp **** 	CHECK_EQUAL(BUF_SUCCESS, status);
 4450              		.loc 4 180 2
 4451 1d06 E8000000 		call	_ZN8UnitTest11CurrentTest7DetailsEv@PLT
 4451      00
 4452 1d0b 488B08   		movq	(%rax), %rcx
 4453 1d0e 488D45C0 		leaq	-64(%rbp), %rax
 4454 1d12 BAB40000 		movl	$180, %edx
 4454      00
 4455 1d17 4889CE   		movq	%rcx, %rsi
 4456 1d1a 4889C7   		movq	%rax, %rdi
 4457 1d1d E8000000 		call	_ZN8UnitTest11TestDetailsC1ERKS0_i@PLT
 4457      00
 4458              		.loc 4 180 2 is_stmt 0 discriminator 4
 4459 1d22 C7459400 		movl	$0, -108(%rbp)
 4459      000000
 4460 1d29 E8000000 		call	_ZN8UnitTest11CurrentTest7ResultsEv@PLT
 4460      00
 4461 1d2e 488B00   		movq	(%rax), %rax
 4462 1d31 488D4DC0 		leaq	-64(%rbp), %rcx
 4463 1d35 488D558C 		leaq	-116(%rbp), %rdx
 4464 1d39 488D7594 		leaq	-108(%rbp), %rsi
 4465 1d3d 4889C7   		movq	%rax, %rdi
 4466 1d40 E8000000 		call	_ZN8UnitTest10CheckEqualI12BufferStatusS1_EEvRNS_11TestResultsERKT_RKT0_RKNS_11TestDetailsE
 4466      00
 4467              	.LEHE161:
 4468              	.L209:
 181:testHexIO.cpp **** 	status = bufProcessLine(line, 0, &data, NULL, &seg, &recordType, NULL);
 4469              		.loc 4 181 25 is_stmt 1
 4470 1d45 488D758B 		leaq	-117(%rbp), %rsi
 4471 1d49 488D4D90 		leaq	-112(%rbp), %rcx
 4472 1d4d 488D55A0 		leaq	-96(%rbp), %rdx
 4473 1d51 488B4598 		movq	-104(%rbp), %rax
 4474 1d55 4883EC08 		subq	$8, %rsp
 4475 1d59 6A00     		pushq	$0
 4476 1d5b 4989F1   		movq	%rsi, %r9
 4477 1d5e 4989C8   		movq	%rcx, %r8
 4478 1d61 B9000000 		movl	$0, %ecx
 4478      00
 4479 1d66 BE000000 		movl	$0, %esi
 4479      00
 4480 1d6b 4889C7   		movq	%rax, %rdi
 4481              	.LEHB162:
 4482 1d6e E8000000 		call	bufProcessLine@PLT
 4482      00
 4483              	.LEHE162:
 4484 1d73 4883C410 		addq	$16, %rsp
 4485              		.loc 4 181 9
 4486 1d77 89458C   		movl	%eax, -116(%rbp)
 4487              	.LEHB163:
 182:testHexIO.cpp **** 	CHECK_EQUAL(HEX_CORRUPT_LINE, status);
 4488              		.loc 4 182 2
 4489 1d7a E8000000 		call	_ZN8UnitTest11CurrentTest7DetailsEv@PLT
 4489      00
 4490 1d7f 488B08   		movq	(%rax), %rcx
 4491 1d82 488D45C0 		leaq	-64(%rbp), %rax
 4492 1d86 BAB60000 		movl	$182, %edx
 4492      00
 4493 1d8b 4889CE   		movq	%rcx, %rsi
 4494 1d8e 4889C7   		movq	%rax, %rdi
 4495 1d91 E8000000 		call	_ZN8UnitTest11TestDetailsC1ERKS0_i@PLT
 4495      00
 4496              		.loc 4 182 2 is_stmt 0 discriminator 4
 4497 1d96 C7459411 		movl	$17, -108(%rbp)
 4497      000000
 4498 1d9d E8000000 		call	_ZN8UnitTest11CurrentTest7ResultsEv@PLT
 4498      00
 4499 1da2 488B00   		movq	(%rax), %rax
 4500 1da5 488D4DC0 		leaq	-64(%rbp), %rcx
 4501 1da9 488D558C 		leaq	-116(%rbp), %rdx
 4502 1dad 488D7594 		leaq	-108(%rbp), %rsi
 4503 1db1 4889C7   		movq	%rax, %rdi
 4504 1db4 E8000000 		call	_ZN8UnitTest10CheckEqualI12BufferStatusS1_EEvRNS_11TestResultsERKT_RKT0_RKNS_11TestDetailsE
 4504      00
 4505              	.LEHE163:
 4506              	.L212:
 183:testHexIO.cpp **** 	bufDestroy(&data);
 4507              		.loc 4 183 12 is_stmt 1
 4508 1db9 488D45A0 		leaq	-96(%rbp), %rax
 4509 1dbd 4889C7   		movq	%rax, %rdi
 4510              	.LEHB164:
 4511 1dc0 E8000000 		call	bufDestroy@PLT
 4511      00
 4512              	.LEHE164:
 184:testHexIO.cpp **** }
 4513              		.loc 4 184 1
 4514 1dc5 90       		nop
 4515 1dc6 488B45E8 		movq	-24(%rbp), %rax
 4516 1dca 64482B04 		subq	%fs:40, %rax
 4516      25280000 
 4516      00
 4517 1dd3 0F84D800 		je	.L214
 4517      0000
 4518 1dd9 E9CE0000 		jmp	.L219
 4518      00
 4519              	.L215:
 4520 1dde F30F1EFA 		endbr64
 180:testHexIO.cpp **** 	status = bufProcessLine(line, 0, &data, NULL, &seg, &recordType, NULL);
 4521              		.loc 4 180 2
 4522 1de2 4889C7   		movq	%rax, %rdi
 4523 1de5 E8000000 		call	__cxa_begin_catch@PLT
 4523      00
 4524              	.LEHB165:
 4525 1dea E8000000 		call	_ZN8UnitTest11CurrentTest7ResultsEv@PLT
 4525      00
 180:testHexIO.cpp **** 	status = bufProcessLine(line, 0, &data, NULL, &seg, &recordType, NULL);
 4526              		.loc 4 180 2 is_stmt 0 discriminator 3
 4527 1def 488B18   		movq	(%rax), %rbx
 4528 1df2 E8000000 		call	_ZN8UnitTest11CurrentTest7DetailsEv@PLT
 4528      00
 180:testHexIO.cpp **** 	status = bufProcessLine(line, 0, &data, NULL, &seg, &recordType, NULL);
 4529              		.loc 4 180 2 discriminator 11
 4530 1df7 488B08   		movq	(%rax), %rcx
 4531 1dfa 488D45C0 		leaq	-64(%rbp), %rax
 4532 1dfe BAB40000 		movl	$180, %edx
 4532      00
 4533 1e03 4889CE   		movq	%rcx, %rsi
 4534 1e06 4889C7   		movq	%rax, %rdi
 4535 1e09 E8000000 		call	_ZN8UnitTest11TestDetailsC1ERKS0_i@PLT
 4535      00
 180:testHexIO.cpp **** 	status = bufProcessLine(line, 0, &data, NULL, &seg, &recordType, NULL);
 4536              		.loc 4 180 2 discriminator 15
 4537 1e0e 488D45C0 		leaq	-64(%rbp), %rax
 4538 1e12 488D1500 		leaq	.LC4(%rip), %rdx
 4538      000000
 4539 1e19 4889C6   		movq	%rax, %rsi
 4540 1e1c 4889DF   		movq	%rbx, %rdi
 4541 1e1f E8000000 		call	_ZN8UnitTest11TestResults13OnTestFailureERKNS_11TestDetailsEPKc@PLT
 4541      00
 4542              	.LEHE165:
 4543              	.LEHB166:
 180:testHexIO.cpp **** 	status = bufProcessLine(line, 0, &data, NULL, &seg, &recordType, NULL);
 4544              		.loc 4 180 2 discriminator 17
 4545 1e24 E8000000 		call	__cxa_end_catch@PLT
 4545      00
 4546              	.LEHE166:
 4547 1e29 E917FFFF 		jmp	.L209
 4547      FF
 4548              	.L216:
 4549 1e2e F30F1EFA 		endbr64
 180:testHexIO.cpp **** 	status = bufProcessLine(line, 0, &data, NULL, &seg, &recordType, NULL);
 4550              		.loc 4 180 2
 4551 1e32 4889C3   		movq	%rax, %rbx
 4552 1e35 E8000000 		call	__cxa_end_catch@PLT
 4552      00
 4553 1e3a 4889D8   		movq	%rbx, %rax
 4554 1e3d 4889C7   		movq	%rax, %rdi
 4555              	.LEHB167:
 4556 1e40 E8000000 		call	_Unwind_Resume@PLT
 4556      00
 4557              	.LEHE167:
 4558              	.L217:
 4559 1e45 F30F1EFA 		endbr64
 182:testHexIO.cpp **** 	bufDestroy(&data);
 4560              		.loc 4 182 2 is_stmt 1
 4561 1e49 4889C7   		movq	%rax, %rdi
 4562 1e4c E8000000 		call	__cxa_begin_catch@PLT
 4562      00
 4563              	.LEHB168:
 4564 1e51 E8000000 		call	_ZN8UnitTest11CurrentTest7ResultsEv@PLT
 4564      00
 182:testHexIO.cpp **** 	bufDestroy(&data);
 4565              		.loc 4 182 2 is_stmt 0 discriminator 3
 4566 1e56 488B18   		movq	(%rax), %rbx
 4567 1e59 E8000000 		call	_ZN8UnitTest11CurrentTest7DetailsEv@PLT
 4567      00
 182:testHexIO.cpp **** 	bufDestroy(&data);
 4568              		.loc 4 182 2 discriminator 11
 4569 1e5e 488B08   		movq	(%rax), %rcx
 4570 1e61 488D45C0 		leaq	-64(%rbp), %rax
 4571 1e65 BAB60000 		movl	$182, %edx
 4571      00
 4572 1e6a 4889CE   		movq	%rcx, %rsi
 4573 1e6d 4889C7   		movq	%rax, %rdi
 4574 1e70 E8000000 		call	_ZN8UnitTest11TestDetailsC1ERKS0_i@PLT
 4574      00
 182:testHexIO.cpp **** 	bufDestroy(&data);
 4575              		.loc 4 182 2 discriminator 15
 4576 1e75 488D45C0 		leaq	-64(%rbp), %rax
 4577 1e79 488D1500 		leaq	.LC42(%rip), %rdx
 4577      000000
 4578 1e80 4889C6   		movq	%rax, %rsi
 4579 1e83 4889DF   		movq	%rbx, %rdi
 4580 1e86 E8000000 		call	_ZN8UnitTest11TestResults13OnTestFailureERKNS_11TestDetailsEPKc@PLT
 4580      00
 4581              	.LEHE168:
 4582              	.LEHB169:
 182:testHexIO.cpp **** 	bufDestroy(&data);
 4583              		.loc 4 182 2 discriminator 17
 4584 1e8b E8000000 		call	__cxa_end_catch@PLT
 4584      00
 4585              	.LEHE169:
 4586 1e90 E924FFFF 		jmp	.L212
 4586      FF
 4587              	.L218:
 4588 1e95 F30F1EFA 		endbr64
 182:testHexIO.cpp **** 	bufDestroy(&data);
 4589              		.loc 4 182 2
 4590 1e99 4889C3   		movq	%rax, %rbx
 4591 1e9c E8000000 		call	__cxa_end_catch@PLT
 4591      00
 4592 1ea1 4889D8   		movq	%rbx, %rax
 4593 1ea4 4889C7   		movq	%rax, %rdi
 4594              	.LEHB170:
 4595 1ea7 E8000000 		call	_Unwind_Resume@PLT
 4595      00
 4596              	.LEHE170:
 4597              	.L219:
 4598              		.loc 4 184 1 is_stmt 1
 4599 1eac E8000000 		call	__stack_chk_fail@PLT
 4599      00
 4600              	.L214:
 4601 1eb1 488B5DF8 		movq	-8(%rbp), %rbx
 4602 1eb5 C9       		leave
 4603              		.cfi_def_cfa 7, 8
 4604 1eb6 C3       		ret
 4605              		.cfi_endproc
 4606              	.LFE1252:
 4607              		.section	.gcc_except_table
 4608              		.align 4
 4609              	.LLSDA1252:
 4610 03ac FF       		.byte	0xff
 4611 03ad 9B       		.byte	0x9b
 4612 03ae 41       		.uleb128 .LLSDATT1252-.LLSDATTD1252
 4613              	.LLSDATTD1252:
 4614 03af 01       		.byte	0x1
 4615 03b0 39       		.uleb128 .LLSDACSE1252-.LLSDACSB1252
 4616              	.LLSDACSB1252:
 4617 03b1 4E       		.uleb128 .LEHB160-.LFB1252
 4618 03b2 05       		.uleb128 .LEHE160-.LEHB160
 4619 03b3 00       		.uleb128 0
 4620 03b4 00       		.uleb128 0
 4621 03b5 56       		.uleb128 .LEHB161-.LFB1252
 4622 03b6 3F       		.uleb128 .LEHE161-.LEHB161
 4623 03b7 AE02     		.uleb128 .L215-.LFB1252
 4624 03b9 01       		.uleb128 0x1
 4625 03ba BE01     		.uleb128 .LEHB162-.LFB1252
 4626 03bc 05       		.uleb128 .LEHE162-.LEHB162
 4627 03bd 00       		.uleb128 0
 4628 03be 00       		.uleb128 0
 4629 03bf CA01     		.uleb128 .LEHB163-.LFB1252
 4630 03c1 3F       		.uleb128 .LEHE163-.LEHB163
 4631 03c2 9503     		.uleb128 .L217-.LFB1252
 4632 03c4 01       		.uleb128 0x1
 4633 03c5 9002     		.uleb128 .LEHB164-.LFB1252
 4634 03c7 05       		.uleb128 .LEHE164-.LEHB164
 4635 03c8 00       		.uleb128 0
 4636 03c9 00       		.uleb128 0
 4637 03ca BA02     		.uleb128 .LEHB165-.LFB1252
 4638 03cc 3A       		.uleb128 .LEHE165-.LEHB165
 4639 03cd FE02     		.uleb128 .L216-.LFB1252
 4640 03cf 00       		.uleb128 0
 4641 03d0 F402     		.uleb128 .LEHB166-.LFB1252
 4642 03d2 05       		.uleb128 .LEHE166-.LEHB166
 4643 03d3 00       		.uleb128 0
 4644 03d4 00       		.uleb128 0
 4645 03d5 9003     		.uleb128 .LEHB167-.LFB1252
 4646 03d7 05       		.uleb128 .LEHE167-.LEHB167
 4647 03d8 00       		.uleb128 0
 4648 03d9 00       		.uleb128 0
 4649 03da A103     		.uleb128 .LEHB168-.LFB1252
 4650 03dc 3A       		.uleb128 .LEHE168-.LEHB168
 4651 03dd E503     		.uleb128 .L218-.LFB1252
 4652 03df 00       		.uleb128 0
 4653 03e0 DB03     		.uleb128 .LEHB169-.LFB1252
 4654 03e2 05       		.uleb128 .LEHE169-.LEHB169
 4655 03e3 00       		.uleb128 0
 4656 03e4 00       		.uleb128 0
 4657 03e5 F703     		.uleb128 .LEHB170-.LFB1252
 4658 03e7 05       		.uleb128 .LEHE170-.LEHB170
 4659 03e8 00       		.uleb128 0
 4660 03e9 00       		.uleb128 0
 4661              	.LLSDACSE1252:
 4662 03ea 01       		.byte	0x1
 4663 03eb 00       		.byte	0
 4664              		.align 4
 4665 03ec 00000000 		.long	0
 4666              	
 4667              	.LLSDATT1252:
 4668              		.text
 4670              		.section	.rodata
 4671              	.LC43:
 4672 06b5 746D7046 		.string	"tmpFile.hex"
 4672      696C652E 
 4672      68657800 
 4673              	.LC44:
 4674 06c1 66696C65 		.string	"file.is_open()"
 4674      2E69735F 
 4674      6F70656E 
 4674      282900
 4675              		.align 8
 4676              	.LC45:
 4677 06d0 556E6861 		.string	"Unhandled exception in CHECK(file.is_open())"
 4677      6E646C65 
 4677      64206578 
 4677      63657074 
 4677      696F6E20 
 4678 06fd 000000   		.align 8
 4679              	.LC46:
 4680 0700 556E6861 		.string	"Unhandled exception in CHECK_EQUAL(expected.size(), (unsigned int)length)"
 4680      6E646C65 
 4680      64206578 
 4680      63657074 
 4680      696F6E20 
 4681 074a 00000000 		.align 8
 4681      0000
 4682              	.LC47:
 4683 0750 556E6861 		.string	"Unhandled exception in CHECK_ARRAY_EQUAL(expected.c_str(), (const char *)fileData)"
 4683      6E646C65 
 4683      64206578 
 4683      63657074 
 4683      696F6E20 
 4684 07a3 00000000 		.align 8
 4684      00
 4685              	.LC48:
 4686 07a8 556E6861 		.string	"Unhandled exception in CHECK_EQUAL(data.length, readbackData.length)"
 4686      6E646C65 
 4686      64206578 
 4686      63657074 
 4686      696F6E20 
 4687 07ed 000000   		.align 8
 4688              	.LC49:
 4689 07f0 556E6861 		.string	"Unhandled exception in CHECK_ARRAY_EQUAL(data.data, readbackData.data)"
 4689      6E646C65 
 4689      64206578 
 4689      63657074 
 4689      696F6E20 
 4690 0837 00       		.align 8
 4691              	.LC50:
 4692 0838 556E6861 		.string	"Unhandled exception in CHECK_EQUAL(mask.length, readbackMask.length)"
 4692      6E646C65 
 4692      64206578 
 4692      63657074 
 4692      696F6E20 
 4693 087d 000000   		.align 8
 4694              	.LC51:
 4695 0880 556E6861 		.string	"Unhandled exception in CHECK_ARRAY_EQUAL(mask.data, readbackMask.data)"
 4695      6E646C65 
 4695      64206578 
 4695      63657074 
 4695      696F6E20 
 4696              		.text
 4697              		.globl	_Z13testRoundTripPKcz
 4699              	_Z13testRoundTripPKcz:
 4700              	.LFB1253:
 185:testHexIO.cpp **** 
 186:testHexIO.cpp **** void testRoundTrip(const char *firstLine, ...) {
 4701              		.loc 4 186 48
 4702              		.cfi_startproc
 4703              		.cfi_personality 0x9b,DW.ref.__gxx_personality_v0
 4704              		.cfi_lsda 0x1b,.LLSDA1253
 4705 1eb7 F30F1EFA 		endbr64
 4706 1ebb 55       		pushq	%rbp
 4707              		.cfi_def_cfa_offset 16
 4708              		.cfi_offset 6, -16
 4709 1ebc 4889E5   		movq	%rsp, %rbp
 4710              		.cfi_def_cfa_register 6
 4711 1ebf 53       		pushq	%rbx
 4712 1ec0 4881ECF8 		subq	$1016, %rsp
 4712      030000
 4713              		.cfi_offset 3, -24
 4714 1ec7 4889BD08 		movq	%rdi, -1016(%rbp)
 4714      FCFFFF
 4715 1ece 4889B548 		movq	%rsi, -184(%rbp)
 4715      FFFFFF
 4716 1ed5 48899550 		movq	%rdx, -176(%rbp)
 4716      FFFFFF
 4717 1edc 48898D58 		movq	%rcx, -168(%rbp)
 4717      FFFFFF
 4718 1ee3 4C898560 		movq	%r8, -160(%rbp)
 4718      FFFFFF
 4719 1eea 4C898D68 		movq	%r9, -152(%rbp)
 4719      FFFFFF
 4720 1ef1 84C0     		testb	%al, %al
 4721 1ef3 7423     		je	.L221
 4722 1ef5 0F298570 		movaps	%xmm0, -144(%rbp)
 4722      FFFFFF
 4723 1efc 0F294D80 		movaps	%xmm1, -128(%rbp)
 4724 1f00 0F295590 		movaps	%xmm2, -112(%rbp)
 4725 1f04 0F295DA0 		movaps	%xmm3, -96(%rbp)
 4726 1f08 0F2965B0 		movaps	%xmm4, -80(%rbp)
 4727 1f0c 0F296DC0 		movaps	%xmm5, -64(%rbp)
 4728 1f10 0F2975D0 		movaps	%xmm6, -48(%rbp)
 4729 1f14 0F297DE0 		movaps	%xmm7, -32(%rbp)
 4730              	.L221:
 4731              		.loc 4 186 48
 4732 1f18 64488B04 		movq	%fs:40, %rax
 4732      25280000 
 4732      00
 4733 1f21 48898538 		movq	%rax, -200(%rbp)
 4733      FFFFFF
 4734 1f28 31C0     		xorl	%eax, %eax
 187:testHexIO.cpp **** 	const char *const FILENAME = "tmpFile.hex";
 4735              		.loc 4 187 20
 4736 1f2a 488D0500 		leaq	.LC43(%rip), %rax
 4736      000000
 4737 1f31 48898528 		movq	%rax, -984(%rbp)
 4737      FCFFFF
 188:testHexIO.cpp **** 	Buffer data, mask, readbackData, readbackMask;
 189:testHexIO.cpp **** 	BufferStatus status;
 190:testHexIO.cpp **** 	va_list vl;
 191:testHexIO.cpp **** 	const char *line;
 192:testHexIO.cpp **** 	string expected;
 4738              		.loc 4 192 9
 4739 1f38 488D8510 		leaq	-752(%rbp), %rax
 4739      FDFFFF
 4740 1f3f 4889C7   		movq	%rax, %rdi
 4741              	.LEHB171:
