   1              		.file	"testConv.cpp"
   2              		.text
   3              	.Ltext0:
   4              		.file 0 "/home/pong/FPGALink/makestuff/libs/libbuffer/tests" "testConv.cpp"
   5              		.section	.rodata
   6              	.LC0:
   7 0000 44656661 		.string	"DefaultSuite"
   7      756C7453 
   7      75697465 
   7      00
   8              		.section	.text._ZN13UnitTestSuite12GetSuiteNameEv,"axG",@progbits,_ZN13UnitTestSuite12GetSuiteName
   9              		.weak	_ZN13UnitTestSuite12GetSuiteNameEv
  11              	_ZN13UnitTestSuite12GetSuiteNameEv:
  12              	.LFB0:
  13              		.file 1 "/home/pong/FPGALink/makestuff/libs/libutpp/TestSuite.h"
   1:/home/pong/FPGALink/makestuff/libs/libutpp/TestSuite.h **** #ifndef UNITTEST_TESTSUITE_H
   2:/home/pong/FPGALink/makestuff/libs/libutpp/TestSuite.h **** #define UNITTEST_TESTSUITE_H
   3:/home/pong/FPGALink/makestuff/libs/libutpp/TestSuite.h **** 
   4:/home/pong/FPGALink/makestuff/libs/libutpp/TestSuite.h **** namespace UnitTestSuite {
   5:/home/pong/FPGALink/makestuff/libs/libutpp/TestSuite.h **** 
   6:/home/pong/FPGALink/makestuff/libs/libutpp/TestSuite.h ****     inline char const* GetSuiteName ()
   7:/home/pong/FPGALink/makestuff/libs/libutpp/TestSuite.h ****     {
  14              		.loc 1 7 5
  15              		.cfi_startproc
  16 0000 F30F1EFA 		endbr64
  17 0004 55       		pushq	%rbp
  18              		.cfi_def_cfa_offset 16
  19              		.cfi_offset 6, -16
  20 0005 4889E5   		movq	%rsp, %rbp
  21              		.cfi_def_cfa_register 6
   8:/home/pong/FPGALink/makestuff/libs/libutpp/TestSuite.h ****         return "DefaultSuite";
  22              		.loc 1 8 16
  23 0008 488D0500 		leaq	.LC0(%rip), %rax
  23      000000
   9:/home/pong/FPGALink/makestuff/libs/libutpp/TestSuite.h ****     }
  24              		.loc 1 9 5
  25 000f 5D       		popq	%rbp
  26              		.cfi_def_cfa 7, 8
  27 0010 C3       		ret
  28              		.cfi_endproc
  29              	.LFE0:
  31              		.section	.text._ZN8UnitTest15MemoryOutStreamC1Ev,"axG",@progbits,_ZN8UnitTest15MemoryOutStreamC1Ev
  32              		.align 2
  33              		.weak	_ZN8UnitTest15MemoryOutStreamC1Ev
  35              	_ZN8UnitTest15MemoryOutStreamC1Ev:
  36              	.LFB1129:
  37              		.file 2 "/home/pong/FPGALink/makestuff/libs/libutpp/MemoryOutStream.h"
   1:/home/pong/FPGALink/makestuff/libs/libutpp/MemoryOutStream.h **** #ifndef UNITTEST_MEMORYOUTSTREAM_H
   2:/home/pong/FPGALink/makestuff/libs/libutpp/MemoryOutStream.h **** #define UNITTEST_MEMORYOUTSTREAM_H
   3:/home/pong/FPGALink/makestuff/libs/libutpp/MemoryOutStream.h **** 
   4:/home/pong/FPGALink/makestuff/libs/libutpp/MemoryOutStream.h **** #include "Config.h"
   5:/home/pong/FPGALink/makestuff/libs/libutpp/MemoryOutStream.h **** 
   6:/home/pong/FPGALink/makestuff/libs/libutpp/MemoryOutStream.h **** #ifndef UNITTEST_USE_CUSTOM_STREAMS
   7:/home/pong/FPGALink/makestuff/libs/libutpp/MemoryOutStream.h **** 
   8:/home/pong/FPGALink/makestuff/libs/libutpp/MemoryOutStream.h **** #include <sstream>
   9:/home/pong/FPGALink/makestuff/libs/libutpp/MemoryOutStream.h **** 
  10:/home/pong/FPGALink/makestuff/libs/libutpp/MemoryOutStream.h **** namespace UnitTest
  11:/home/pong/FPGALink/makestuff/libs/libutpp/MemoryOutStream.h **** {
  12:/home/pong/FPGALink/makestuff/libs/libutpp/MemoryOutStream.h **** 
  13:/home/pong/FPGALink/makestuff/libs/libutpp/MemoryOutStream.h **** class MemoryOutStream : public std::ostringstream
  14:/home/pong/FPGALink/makestuff/libs/libutpp/MemoryOutStream.h **** {
  15:/home/pong/FPGALink/makestuff/libs/libutpp/MemoryOutStream.h **** public:
  16:/home/pong/FPGALink/makestuff/libs/libutpp/MemoryOutStream.h ****     MemoryOutStream() {}
  38              		.loc 2 16 5
  39              		.cfi_startproc
  40              		.cfi_personality 0x9b,DW.ref.__gxx_personality_v0
  41              		.cfi_lsda 0x1b,.LLSDA1129
  42 0000 F30F1EFA 		endbr64
  43 0004 55       		pushq	%rbp
  44              		.cfi_def_cfa_offset 16
  45              		.cfi_offset 6, -16
  46 0005 4889E5   		movq	%rsp, %rbp
  47              		.cfi_def_cfa_register 6
  48 0008 53       		pushq	%rbx
  49 0009 4883EC18 		subq	$24, %rsp
  50              		.cfi_offset 3, -24
  51 000d 48897DE8 		movq	%rdi, -24(%rbp)
  52              	.LBB2:
  53              		.loc 2 16 23
  54 0011 488B45E8 		movq	-24(%rbp), %rax
  55 0015 48059000 		addq	$144, %rax
  55      0000
  56 001b 4889C7   		movq	%rax, %rdi
  57              	.LEHB0:
  58 001e E8000000 		call	_ZNSt9basic_iosIcSt11char_traitsIcEEC2Ev@PLT
  58      00
  59              	.LEHE0:
  60 0023 488B45E8 		movq	-24(%rbp), %rax
  61 0027 488D1500 		leaq	8+_ZTTN8UnitTest15MemoryOutStreamE(%rip), %rdx
  61      000000
  62 002e 4889D6   		movq	%rdx, %rsi
  63 0031 4889C7   		movq	%rax, %rdi
  64              	.LEHB1:
  65 0034 E8000000 		call	_ZNSt7__cxx1119basic_ostringstreamIcSt11char_traitsIcESaIcEEC2Ev@PLT
  65      00
  66              	.LEHE1:
  67              		.loc 2 16 23 is_stmt 0 discriminator 2
  68 0039 488D1500 		leaq	24+_ZTVN8UnitTest15MemoryOutStreamE(%rip), %rdx
  68      000000
  69 0040 488B45E8 		movq	-24(%rbp), %rax
  70 0044 488910   		movq	%rdx, (%rax)
  71 0047 488B45E8 		movq	-24(%rbp), %rax
  72 004b 48059000 		addq	$144, %rax
  72      0000
  73 0051 488D1500 		leaq	64+_ZTVN8UnitTest15MemoryOutStreamE(%rip), %rdx
  73      000000
  74 0058 488910   		movq	%rdx, (%rax)
  75 005b 488B45E8 		movq	-24(%rbp), %rax
  76 005f 4883C070 		addq	$112, %rax
  77 0063 4889C7   		movq	%rax, %rdi
  78              	.LEHB2:
  79 0066 E8000000 		call	_ZNSt7__cxx1112basic_stringIcSt11char_traitsIcESaIcEEC1Ev@PLT
  79      00
  80              	.LEHE2:
  81              	.LBE2:
  82              		.loc 2 16 24 is_stmt 1
  83 006b EB43     		jmp	.L8
  84              	.L7:
  85 006d F30F1EFA 		endbr64
  86              	.LBB3:
  87 0071 4889C3   		movq	%rax, %rbx
  88 0074 488B45E8 		movq	-24(%rbp), %rax
  89 0078 488D1500 		leaq	8+_ZTTN8UnitTest15MemoryOutStreamE(%rip), %rdx
  89      000000
  90 007f 4889D6   		movq	%rdx, %rsi
  91 0082 4889C7   		movq	%rax, %rdi
  92 0085 E8000000 		call	_ZNSt7__cxx1119basic_ostringstreamIcSt11char_traitsIcESaIcEED2Ev@PLT
  92      00
  93 008a EB07     		jmp	.L5
  94              	.L6:
  95 008c F30F1EFA 		endbr64
  96 0090 4889C3   		movq	%rax, %rbx
  97              	.L5:
  98              		.loc 2 16 24 is_stmt 0 discriminator 1
  99 0093 488B45E8 		movq	-24(%rbp), %rax
 100 0097 48059000 		addq	$144, %rax
 100      0000
 101 009d 4889C7   		movq	%rax, %rdi
 102 00a0 E8000000 		call	_ZNSt9basic_iosIcSt11char_traitsIcEED2Ev@PLT
 102      00
 103 00a5 4889D8   		movq	%rbx, %rax
 104 00a8 4889C7   		movq	%rax, %rdi
 105              	.LEHB3:
 106 00ab E8000000 		call	_Unwind_Resume@PLT
 106      00
 107              	.LEHE3:
 108              	.L8:
 109              	.LBE3:
 110              		.loc 2 16 24
 111 00b0 488B5DF8 		movq	-8(%rbp), %rbx
 112 00b4 C9       		leave
 113              		.cfi_def_cfa 7, 8
 114 00b5 C3       		ret
 115              		.cfi_endproc
 116              	.LFE1129:
 117              		.globl	__gxx_personality_v0
 118              		.section	.gcc_except_table._ZN8UnitTest15MemoryOutStreamC1Ev,"aG",@progbits,_ZN8UnitTest15MemoryOu
 119              	.LLSDA1129:
 120 0000 FF       		.byte	0xff
 121 0001 FF       		.byte	0xff
 122 0002 01       		.byte	0x1
 123 0003 12       		.uleb128 .LLSDACSE1129-.LLSDACSB1129
 124              	.LLSDACSB1129:
 125 0004 1E       		.uleb128 .LEHB0-.LFB1129
 126 0005 05       		.uleb128 .LEHE0-.LEHB0
 127 0006 00       		.uleb128 0
 128 0007 00       		.uleb128 0
 129 0008 34       		.uleb128 .LEHB1-.LFB1129
 130 0009 05       		.uleb128 .LEHE1-.LEHB1
 131 000a 8C01     		.uleb128 .L6-.LFB1129
 132 000c 00       		.uleb128 0
 133 000d 66       		.uleb128 .LEHB2-.LFB1129
 134 000e 05       		.uleb128 .LEHE2-.LEHB2
 135 000f 6D       		.uleb128 .L7-.LFB1129
 136 0010 00       		.uleb128 0
 137 0011 AB01     		.uleb128 .LEHB3-.LFB1129
 138 0013 05       		.uleb128 .LEHE3-.LEHB3
 139 0014 00       		.uleb128 0
 140 0015 00       		.uleb128 0
 141              	.LLSDACSE1129:
 142              		.section	.text._ZN8UnitTest15MemoryOutStreamC1Ev,"axG",@progbits,_ZN8UnitTest15MemoryOutStreamC1Ev
 144              		.section	.rodata
 145              	.LC1:
 146 000d 74657374 		.string	"testConv.cpp"
 146      436F6E76 
 146      2E637070 
 146      00
 147              	.LC2:
 148 001a 436F6E76 		.string	"Conv_testGetHexNibble"
 148      5F746573 
 148      74476574 
 148      4865784E 
 148      6962626C 
 149              		.section	.text._ZN25TestConv_testGetHexNibbleC2Ev,"axG",@progbits,_ZN25TestConv_testGetHexNibbleC5
 150              		.align 2
 151              		.weak	_ZN25TestConv_testGetHexNibbleC2Ev
 153              	_ZN25TestConv_testGetHexNibbleC2Ev:
 154              	.LFB1146:
 155              		.file 3 "testConv.cpp"
   1:testConv.cpp  **** /*
   2:testConv.cpp  ****  * Copyright (C) 2009-2012 Chris McClelland
   3:testConv.cpp  ****  *
   4:testConv.cpp  ****  * This program is free software: you can redistribute it and/or modify
   5:testConv.cpp  ****  * it under the terms of the GNU Lesser General Public License as published by
   6:testConv.cpp  ****  * the Free Software Foundation, either version 3 of the License, or
   7:testConv.cpp  ****  * (at your option) any later version.
   8:testConv.cpp  ****  *
   9:testConv.cpp  ****  * This program is distributed in the hope that it will be useful,
  10:testConv.cpp  ****  * but WITHOUT ANY WARRANTY; without even the implied warranty of
  11:testConv.cpp  ****  * MERCHANTABILITY or FITNESS FOR A PARTICULAR PURPOSE.  See the
  12:testConv.cpp  ****  * GNU Lesser General Public License for more details.
  13:testConv.cpp  ****  *
  14:testConv.cpp  ****  * You should have received a copy of the GNU Lesser General Public License
  15:testConv.cpp  ****  * along with this program.  If not, see <http://www.gnu.org/licenses/>.
  16:testConv.cpp  ****  */
  17:testConv.cpp  **** #include <UnitTest++.h>
  18:testConv.cpp  **** #include "../conv.h"
  19:testConv.cpp  **** 
  20:testConv.cpp  **** TEST(Conv_testGetHexNibble) {
 156              		.loc 3 20 1 is_stmt 1
 157              		.cfi_startproc
 158 0000 F30F1EFA 		endbr64
 159 0004 55       		pushq	%rbp
 160              		.cfi_def_cfa_offset 16
 161              		.cfi_offset 6, -16
 162 0005 4889E5   		movq	%rsp, %rbp
 163              		.cfi_def_cfa_register 6
 164 0008 53       		pushq	%rbx
 165 0009 4883EC18 		subq	$24, %rsp
 166              		.cfi_offset 3, -24
 167 000d 48897DE8 		movq	%rdi, -24(%rbp)
 168              	.LBB4:
 169              		.loc 3 20 1
 170 0011 488B5DE8 		movq	-24(%rbp), %rbx
 171 0015 E8000000 		call	_ZN13UnitTestSuite12GetSuiteNameEv
 171      00
 172 001a 4889C2   		movq	%rax, %rdx
 173 001d 41B81400 		movl	$20, %r8d
 173      0000
 174 0023 488D0500 		leaq	.LC1(%rip), %rax
 174      000000
 175 002a 4889C1   		movq	%rax, %rcx
 176 002d 488D0500 		leaq	.LC2(%rip), %rax
 176      000000
 177 0034 4889C6   		movq	%rax, %rsi
 178 0037 4889DF   		movq	%rbx, %rdi
 179 003a E8000000 		call	_ZN8UnitTest4TestC2EPKcS2_S2_i@PLT
 179      00
 180 003f 488D1500 		leaq	16+_ZTV25TestConv_testGetHexNibble(%rip), %rdx
 180      000000
 181 0046 488B45E8 		movq	-24(%rbp), %rax
 182 004a 488910   		movq	%rdx, (%rax)
 183              	.LBE4:
 184 004d 90       		nop
 185 004e 488B5DF8 		movq	-8(%rbp), %rbx
 186 0052 C9       		leave
 187              		.cfi_def_cfa 7, 8
 188 0053 C3       		ret
 189              		.cfi_endproc
 190              	.LFE1146:
 192              		.weak	_ZN25TestConv_testGetHexNibbleC1Ev
 193              		.set	_ZN25TestConv_testGetHexNibbleC1Ev,_ZN25TestConv_testGetHexNibbleC2Ev
 194              		.globl	testConv_testGetHexNibbleInstance
 195              		.bss
 196              		.align 32
 199              	testConv_testGetHexNibbleInstance:
 200 0000 00000000 		.zero	56
 200      00000000 
 200      00000000 
 200      00000000 
 200      00000000 
 201              		.globl	adderConv_testGetHexNibble
 204              	adderConv_testGetHexNibble:
 205 0038 00       		.zero	1
 206              		.section	.rodata
 207              		.align 8
 208              	.LC3:
 209 0030 556E6861 		.string	"Unhandled exception in CHECK_EQUAL(false, status)"
 209      6E646C65 
 209      64206578 
 209      63657074 
 209      696F6E20 
 210 0062 00000000 		.align 8
 210      0000
 211              	.LC4:
 212 0068 556E6861 		.string	"Unhandled exception in CHECK_EQUAL(0, nibble)"
 212      6E646C65 
 212      64206578 
 212      63657074 
 212      696F6E20 
 213 0096 0000     		.align 8
 214              	.LC5:
 215 0098 556E6861 		.string	"Unhandled exception in CHECK_EQUAL(1, nibble)"
 215      6E646C65 
 215      64206578 
 215      63657074 
 215      696F6E20 
 216 00c6 0000     		.align 8
 217              	.LC6:
 218 00c8 556E6861 		.string	"Unhandled exception in CHECK_EQUAL(2, nibble)"
 218      6E646C65 
 218      64206578 
 218      63657074 
 218      696F6E20 
 219 00f6 0000     		.align 8
 220              	.LC7:
 221 00f8 556E6861 		.string	"Unhandled exception in CHECK_EQUAL(3, nibble)"
 221      6E646C65 
 221      64206578 
 221      63657074 
 221      696F6E20 
 222 0126 0000     		.align 8
 223              	.LC8:
 224 0128 556E6861 		.string	"Unhandled exception in CHECK_EQUAL(4, nibble)"
 224      6E646C65 
 224      64206578 
 224      63657074 
 224      696F6E20 
 225 0156 0000     		.align 8
 226              	.LC9:
 227 0158 556E6861 		.string	"Unhandled exception in CHECK_EQUAL(5, nibble)"
 227      6E646C65 
 227      64206578 
 227      63657074 
 227      696F6E20 
 228 0186 0000     		.align 8
 229              	.LC10:
 230 0188 556E6861 		.string	"Unhandled exception in CHECK_EQUAL(6, nibble)"
 230      6E646C65 
 230      64206578 
 230      63657074 
 230      696F6E20 
 231 01b6 0000     		.align 8
 232              	.LC11:
 233 01b8 556E6861 		.string	"Unhandled exception in CHECK_EQUAL(7, nibble)"
 233      6E646C65 
 233      64206578 
 233      63657074 
 233      696F6E20 
 234 01e6 0000     		.align 8
 235              	.LC12:
 236 01e8 556E6861 		.string	"Unhandled exception in CHECK_EQUAL(8, nibble)"
 236      6E646C65 
 236      64206578 
 236      63657074 
 236      696F6E20 
 237 0216 0000     		.align 8
 238              	.LC13:
 239 0218 556E6861 		.string	"Unhandled exception in CHECK_EQUAL(9, nibble)"
 239      6E646C65 
 239      64206578 
 239      63657074 
 239      696F6E20 
 240 0246 0000     		.align 8
 241              	.LC14:
 242 0248 556E6861 		.string	"Unhandled exception in CHECK_EQUAL(10, nibble)"
 242      6E646C65 
 242      64206578 
 242      63657074 
 242      696F6E20 
 243 0277 00       		.align 8
 244              	.LC15:
 245 0278 556E6861 		.string	"Unhandled exception in CHECK_EQUAL(11, nibble)"
 245      6E646C65 
 245      64206578 
 245      63657074 
 245      696F6E20 
 246 02a7 00       		.align 8
 247              	.LC16:
 248 02a8 556E6861 		.string	"Unhandled exception in CHECK_EQUAL(12, nibble)"
 248      6E646C65 
 248      64206578 
 248      63657074 
 248      696F6E20 
 249 02d7 00       		.align 8
 250              	.LC17:
 251 02d8 556E6861 		.string	"Unhandled exception in CHECK_EQUAL(13, nibble)"
 251      6E646C65 
 251      64206578 
 251      63657074 
 251      696F6E20 
 252 0307 00       		.align 8
 253              	.LC18:
 254 0308 556E6861 		.string	"Unhandled exception in CHECK_EQUAL(14, nibble)"
 254      6E646C65 
 254      64206578 
 254      63657074 
 254      696F6E20 
 255 0337 00       		.align 8
 256              	.LC19:
 257 0338 556E6861 		.string	"Unhandled exception in CHECK_EQUAL(15, nibble)"
 257      6E646C65 
 257      64206578 
 257      63657074 
 257      696F6E20 
 258 0367 00       		.align 8
 259              	.LC20:
 260 0368 556E6861 		.string	"Unhandled exception in CHECK_EQUAL(true, status)"
 260      6E646C65 
 260      64206578 
 260      63657074 
 260      696F6E20 
 261              		.text
 262              		.align 2
 263              		.globl	_ZNK25TestConv_testGetHexNibble7RunImplEv
 265              	_ZNK25TestConv_testGetHexNibble7RunImplEv:
 266              	.LFB1148:
 267              		.loc 3 20 29
 268              		.cfi_startproc
 269              		.cfi_personality 0x9b,DW.ref.__gxx_personality_v0
 270              		.cfi_lsda 0x1b,.LLSDA1148
 271 0000 F30F1EFA 		endbr64
 272 0004 55       		pushq	%rbp
 273              		.cfi_def_cfa_offset 16
 274              		.cfi_offset 6, -16
 275 0005 4889E5   		movq	%rsp, %rbp
 276              		.cfi_def_cfa_register 6
 277 0008 53       		pushq	%rbx
 278 0009 4883EC58 		subq	$88, %rsp
 279              		.cfi_offset 3, -24
 280 000d 48897DA8 		movq	%rdi, -88(%rbp)
 281              		.loc 3 20 29
 282 0011 64488B04 		movq	%fs:40, %rax
 282      25280000 
 282      00
 283 001a 488945E8 		movq	%rax, -24(%rbp)
 284 001e 31C0     		xorl	%eax, %eax
  21:testConv.cpp  **** 	uint8 nibble;
  22:testConv.cpp  **** 	bool status;
  23:testConv.cpp  **** 	status = getHexNibble('0', &nibble);
 285              		.loc 3 23 23
 286 0020 488D45BA 		leaq	-70(%rbp), %rax
 287 0024 4889C6   		movq	%rax, %rsi
 288 0027 BF300000 		movl	$48, %edi
 288      00
 289              	.LEHB4:
 290 002c E8000000 		call	getHexNibble@PLT
 290      00
 291              	.LEHE4:
 292              		.loc 3 23 9
 293 0031 8845BB   		movb	%al, -69(%rbp)
 294              	.LEHB5:
  24:testConv.cpp  **** 	CHECK_EQUAL(false, status);
 295              		.loc 3 24 2
 296 0034 E8000000 		call	_ZN8UnitTest11CurrentTest7DetailsEv@PLT
 296      00
 297 0039 488B08   		movq	(%rax), %rcx
 298 003c 488D45C0 		leaq	-64(%rbp), %rax
 299 0040 BA180000 		movl	$24, %edx
 299      00
 300 0045 4889CE   		movq	%rcx, %rsi
 301 0048 4889C7   		movq	%rax, %rdi
 302 004b E8000000 		call	_ZN8UnitTest11TestDetailsC1ERKS0_i@PLT
 302      00
 303              		.loc 3 24 2 is_stmt 0 discriminator 4
 304 0050 C645BC00 		movb	$0, -68(%rbp)
 305 0054 E8000000 		call	_ZN8UnitTest11CurrentTest7ResultsEv@PLT
 305      00
 306 0059 488B00   		movq	(%rax), %rax
 307 005c 488D4DC0 		leaq	-64(%rbp), %rcx
 308 0060 488D55BB 		leaq	-69(%rbp), %rdx
 309 0064 488D75BC 		leaq	-68(%rbp), %rsi
 310 0068 4889C7   		movq	%rax, %rdi
 311 006b E8000000 		call	_ZN8UnitTest10CheckEqualIbbEEvRNS_11TestResultsERKT_RKT0_RKNS_11TestDetailsE
 311      00
 312              	.LEHE5:
 313              	.L12:
 314              	.LEHB6:
  25:testConv.cpp  **** 	CHECK_EQUAL(0, nibble);
 315              		.loc 3 25 2 is_stmt 1
 316 0070 E8000000 		call	_ZN8UnitTest11CurrentTest7DetailsEv@PLT
 316      00
 317 0075 488B08   		movq	(%rax), %rcx
 318 0078 488D45C0 		leaq	-64(%rbp), %rax
 319 007c BA190000 		movl	$25, %edx
 319      00
 320 0081 4889CE   		movq	%rcx, %rsi
 321 0084 4889C7   		movq	%rax, %rdi
 322 0087 E8000000 		call	_ZN8UnitTest11TestDetailsC1ERKS0_i@PLT
 322      00
 323              		.loc 3 25 2 is_stmt 0 discriminator 4
 324 008c C745BC00 		movl	$0, -68(%rbp)
 324      000000
 325 0093 E8000000 		call	_ZN8UnitTest11CurrentTest7ResultsEv@PLT
 325      00
 326 0098 488B00   		movq	(%rax), %rax
 327 009b 488D4DC0 		leaq	-64(%rbp), %rcx
 328 009f 488D55BA 		leaq	-70(%rbp), %rdx
 329 00a3 488D75BC 		leaq	-68(%rbp), %rsi
 330 00a7 4889C7   		movq	%rax, %rdi
 331 00aa E8000000 		call	_ZN8UnitTest10CheckEqualIihEEvRNS_11TestResultsERKT_RKT0_RKNS_11TestDetailsE
 331      00
 332              	.LEHE6:
 333              	.L15:
  26:testConv.cpp  **** 	status = getHexNibble('1', &nibble);
 334              		.loc 3 26 23 is_stmt 1
 335 00af 488D45BA 		leaq	-70(%rbp), %rax
 336 00b3 4889C6   		movq	%rax, %rsi
 337 00b6 BF310000 		movl	$49, %edi
 337      00
 338              	.LEHB7:
 339 00bb E8000000 		call	getHexNibble@PLT
 339      00
 340              	.LEHE7:
 341              		.loc 3 26 9
 342 00c0 8845BB   		movb	%al, -69(%rbp)
 343              	.LEHB8:
  27:testConv.cpp  **** 	CHECK_EQUAL(false, status);
 344              		.loc 3 27 2
 345 00c3 E8000000 		call	_ZN8UnitTest11CurrentTest7DetailsEv@PLT
 345      00
 346 00c8 488B08   		movq	(%rax), %rcx
 347 00cb 488D45C0 		leaq	-64(%rbp), %rax
 348 00cf BA1B0000 		movl	$27, %edx
 348      00
 349 00d4 4889CE   		movq	%rcx, %rsi
 350 00d7 4889C7   		movq	%rax, %rdi
 351 00da E8000000 		call	_ZN8UnitTest11TestDetailsC1ERKS0_i@PLT
 351      00
 352              		.loc 3 27 2 is_stmt 0 discriminator 4
 353 00df C645BC00 		movb	$0, -68(%rbp)
 354 00e3 E8000000 		call	_ZN8UnitTest11CurrentTest7ResultsEv@PLT
 354      00
 355 00e8 488B00   		movq	(%rax), %rax
 356 00eb 488D4DC0 		leaq	-64(%rbp), %rcx
 357 00ef 488D55BB 		leaq	-69(%rbp), %rdx
 358 00f3 488D75BC 		leaq	-68(%rbp), %rsi
 359 00f7 4889C7   		movq	%rax, %rdi
 360 00fa E8000000 		call	_ZN8UnitTest10CheckEqualIbbEEvRNS_11TestResultsERKT_RKT0_RKNS_11TestDetailsE
 360      00
 361              	.LEHE8:
 362              	.L18:
 363              	.LEHB9:
  28:testConv.cpp  **** 	CHECK_EQUAL(1, nibble);
 364              		.loc 3 28 2 is_stmt 1
 365 00ff E8000000 		call	_ZN8UnitTest11CurrentTest7DetailsEv@PLT
 365      00
 366 0104 488B08   		movq	(%rax), %rcx
 367 0107 488D45C0 		leaq	-64(%rbp), %rax
 368 010b BA1C0000 		movl	$28, %edx
 368      00
 369 0110 4889CE   		movq	%rcx, %rsi
 370 0113 4889C7   		movq	%rax, %rdi
 371 0116 E8000000 		call	_ZN8UnitTest11TestDetailsC1ERKS0_i@PLT
 371      00
 372              		.loc 3 28 2 is_stmt 0 discriminator 4
 373 011b C745BC01 		movl	$1, -68(%rbp)
 373      000000
 374 0122 E8000000 		call	_ZN8UnitTest11CurrentTest7ResultsEv@PLT
 374      00
 375 0127 488B00   		movq	(%rax), %rax
 376 012a 488D4DC0 		leaq	-64(%rbp), %rcx
 377 012e 488D55BA 		leaq	-70(%rbp), %rdx
 378 0132 488D75BC 		leaq	-68(%rbp), %rsi
 379 0136 4889C7   		movq	%rax, %rdi
 380 0139 E8000000 		call	_ZN8UnitTest10CheckEqualIihEEvRNS_11TestResultsERKT_RKT0_RKNS_11TestDetailsE
 380      00
 381              	.LEHE9:
 382              	.L21:
  29:testConv.cpp  **** 	status = getHexNibble('2', &nibble);
 383              		.loc 3 29 23 is_stmt 1
 384 013e 488D45BA 		leaq	-70(%rbp), %rax
 385 0142 4889C6   		movq	%rax, %rsi
 386 0145 BF320000 		movl	$50, %edi
 386      00
 387              	.LEHB10:
 388 014a E8000000 		call	getHexNibble@PLT
 388      00
 389              	.LEHE10:
 390              		.loc 3 29 9
 391 014f 8845BB   		movb	%al, -69(%rbp)
 392              	.LEHB11:
  30:testConv.cpp  **** 	CHECK_EQUAL(false, status);
 393              		.loc 3 30 2
 394 0152 E8000000 		call	_ZN8UnitTest11CurrentTest7DetailsEv@PLT
 394      00
 395 0157 488B08   		movq	(%rax), %rcx
 396 015a 488D45C0 		leaq	-64(%rbp), %rax
 397 015e BA1E0000 		movl	$30, %edx
 397      00
 398 0163 4889CE   		movq	%rcx, %rsi
 399 0166 4889C7   		movq	%rax, %rdi
 400 0169 E8000000 		call	_ZN8UnitTest11TestDetailsC1ERKS0_i@PLT
 400      00
 401              		.loc 3 30 2 is_stmt 0 discriminator 4
 402 016e C645BC00 		movb	$0, -68(%rbp)
 403 0172 E8000000 		call	_ZN8UnitTest11CurrentTest7ResultsEv@PLT
 403      00
 404 0177 488B00   		movq	(%rax), %rax
 405 017a 488D4DC0 		leaq	-64(%rbp), %rcx
 406 017e 488D55BB 		leaq	-69(%rbp), %rdx
 407 0182 488D75BC 		leaq	-68(%rbp), %rsi
 408 0186 4889C7   		movq	%rax, %rdi
 409 0189 E8000000 		call	_ZN8UnitTest10CheckEqualIbbEEvRNS_11TestResultsERKT_RKT0_RKNS_11TestDetailsE
 409      00
 410              	.LEHE11:
 411              	.L24:
 412              	.LEHB12:
  31:testConv.cpp  **** 	CHECK_EQUAL(2, nibble);
 413              		.loc 3 31 2 is_stmt 1
 414 018e E8000000 		call	_ZN8UnitTest11CurrentTest7DetailsEv@PLT
 414      00
 415 0193 488B08   		movq	(%rax), %rcx
 416 0196 488D45C0 		leaq	-64(%rbp), %rax
 417 019a BA1F0000 		movl	$31, %edx
 417      00
 418 019f 4889CE   		movq	%rcx, %rsi
 419 01a2 4889C7   		movq	%rax, %rdi
 420 01a5 E8000000 		call	_ZN8UnitTest11TestDetailsC1ERKS0_i@PLT
 420      00
 421              		.loc 3 31 2 is_stmt 0 discriminator 4
 422 01aa C745BC02 		movl	$2, -68(%rbp)
 422      000000
 423 01b1 E8000000 		call	_ZN8UnitTest11CurrentTest7ResultsEv@PLT
 423      00
 424 01b6 488B00   		movq	(%rax), %rax
 425 01b9 488D4DC0 		leaq	-64(%rbp), %rcx
 426 01bd 488D55BA 		leaq	-70(%rbp), %rdx
 427 01c1 488D75BC 		leaq	-68(%rbp), %rsi
 428 01c5 4889C7   		movq	%rax, %rdi
 429 01c8 E8000000 		call	_ZN8UnitTest10CheckEqualIihEEvRNS_11TestResultsERKT_RKT0_RKNS_11TestDetailsE
 429      00
 430              	.LEHE12:
 431              	.L27:
  32:testConv.cpp  **** 	status = getHexNibble('3', &nibble);
 432              		.loc 3 32 23 is_stmt 1
 433 01cd 488D45BA 		leaq	-70(%rbp), %rax
 434 01d1 4889C6   		movq	%rax, %rsi
 435 01d4 BF330000 		movl	$51, %edi
 435      00
 436              	.LEHB13:
 437 01d9 E8000000 		call	getHexNibble@PLT
 437      00
 438              	.LEHE13:
 439              		.loc 3 32 9
 440 01de 8845BB   		movb	%al, -69(%rbp)
 441              	.LEHB14:
  33:testConv.cpp  **** 	CHECK_EQUAL(false, status);
 442              		.loc 3 33 2
 443 01e1 E8000000 		call	_ZN8UnitTest11CurrentTest7DetailsEv@PLT
 443      00
 444 01e6 488B08   		movq	(%rax), %rcx
 445 01e9 488D45C0 		leaq	-64(%rbp), %rax
 446 01ed BA210000 		movl	$33, %edx
 446      00
 447 01f2 4889CE   		movq	%rcx, %rsi
 448 01f5 4889C7   		movq	%rax, %rdi
 449 01f8 E8000000 		call	_ZN8UnitTest11TestDetailsC1ERKS0_i@PLT
 449      00
 450              		.loc 3 33 2 is_stmt 0 discriminator 4
 451 01fd C645BC00 		movb	$0, -68(%rbp)
 452 0201 E8000000 		call	_ZN8UnitTest11CurrentTest7ResultsEv@PLT
 452      00
 453 0206 488B00   		movq	(%rax), %rax
 454 0209 488D4DC0 		leaq	-64(%rbp), %rcx
 455 020d 488D55BB 		leaq	-69(%rbp), %rdx
 456 0211 488D75BC 		leaq	-68(%rbp), %rsi
 457 0215 4889C7   		movq	%rax, %rdi
 458 0218 E8000000 		call	_ZN8UnitTest10CheckEqualIbbEEvRNS_11TestResultsERKT_RKT0_RKNS_11TestDetailsE
 458      00
 459              	.LEHE14:
 460              	.L30:
 461              	.LEHB15:
  34:testConv.cpp  **** 	CHECK_EQUAL(3, nibble);
 462              		.loc 3 34 2 is_stmt 1
 463 021d E8000000 		call	_ZN8UnitTest11CurrentTest7DetailsEv@PLT
 463      00
 464 0222 488B08   		movq	(%rax), %rcx
 465 0225 488D45C0 		leaq	-64(%rbp), %rax
 466 0229 BA220000 		movl	$34, %edx
 466      00
 467 022e 4889CE   		movq	%rcx, %rsi
 468 0231 4889C7   		movq	%rax, %rdi
 469 0234 E8000000 		call	_ZN8UnitTest11TestDetailsC1ERKS0_i@PLT
 469      00
 470              		.loc 3 34 2 is_stmt 0 discriminator 4
 471 0239 C745BC03 		movl	$3, -68(%rbp)
 471      000000
 472 0240 E8000000 		call	_ZN8UnitTest11CurrentTest7ResultsEv@PLT
 472      00
 473 0245 488B00   		movq	(%rax), %rax
 474 0248 488D4DC0 		leaq	-64(%rbp), %rcx
 475 024c 488D55BA 		leaq	-70(%rbp), %rdx
 476 0250 488D75BC 		leaq	-68(%rbp), %rsi
 477 0254 4889C7   		movq	%rax, %rdi
 478 0257 E8000000 		call	_ZN8UnitTest10CheckEqualIihEEvRNS_11TestResultsERKT_RKT0_RKNS_11TestDetailsE
 478      00
 479              	.LEHE15:
 480              	.L33:
  35:testConv.cpp  **** 	status = getHexNibble('4', &nibble);
 481              		.loc 3 35 23 is_stmt 1
 482 025c 488D45BA 		leaq	-70(%rbp), %rax
 483 0260 4889C6   		movq	%rax, %rsi
 484 0263 BF340000 		movl	$52, %edi
 484      00
 485              	.LEHB16:
 486 0268 E8000000 		call	getHexNibble@PLT
 486      00
 487              	.LEHE16:
 488              		.loc 3 35 9
 489 026d 8845BB   		movb	%al, -69(%rbp)
 490              	.LEHB17:
  36:testConv.cpp  **** 	CHECK_EQUAL(false, status);
 491              		.loc 3 36 2
 492 0270 E8000000 		call	_ZN8UnitTest11CurrentTest7DetailsEv@PLT
 492      00
 493 0275 488B08   		movq	(%rax), %rcx
 494 0278 488D45C0 		leaq	-64(%rbp), %rax
 495 027c BA240000 		movl	$36, %edx
 495      00
 496 0281 4889CE   		movq	%rcx, %rsi
 497 0284 4889C7   		movq	%rax, %rdi
 498 0287 E8000000 		call	_ZN8UnitTest11TestDetailsC1ERKS0_i@PLT
 498      00
 499              		.loc 3 36 2 is_stmt 0 discriminator 4
 500 028c C645BC00 		movb	$0, -68(%rbp)
 501 0290 E8000000 		call	_ZN8UnitTest11CurrentTest7ResultsEv@PLT
 501      00
 502 0295 488B00   		movq	(%rax), %rax
 503 0298 488D4DC0 		leaq	-64(%rbp), %rcx
 504 029c 488D55BB 		leaq	-69(%rbp), %rdx
 505 02a0 488D75BC 		leaq	-68(%rbp), %rsi
 506 02a4 4889C7   		movq	%rax, %rdi
 507 02a7 E8000000 		call	_ZN8UnitTest10CheckEqualIbbEEvRNS_11TestResultsERKT_RKT0_RKNS_11TestDetailsE
 507      00
 508              	.LEHE17:
 509              	.L36:
 510              	.LEHB18:
  37:testConv.cpp  **** 	CHECK_EQUAL(4, nibble);
 511              		.loc 3 37 2 is_stmt 1
 512 02ac E8000000 		call	_ZN8UnitTest11CurrentTest7DetailsEv@PLT
 512      00
 513 02b1 488B08   		movq	(%rax), %rcx
 514 02b4 488D45C0 		leaq	-64(%rbp), %rax
 515 02b8 BA250000 		movl	$37, %edx
 515      00
 516 02bd 4889CE   		movq	%rcx, %rsi
 517 02c0 4889C7   		movq	%rax, %rdi
 518 02c3 E8000000 		call	_ZN8UnitTest11TestDetailsC1ERKS0_i@PLT
 518      00
 519              		.loc 3 37 2 is_stmt 0 discriminator 4
 520 02c8 C745BC04 		movl	$4, -68(%rbp)
 520      000000
 521 02cf E8000000 		call	_ZN8UnitTest11CurrentTest7ResultsEv@PLT
 521      00
 522 02d4 488B00   		movq	(%rax), %rax
 523 02d7 488D4DC0 		leaq	-64(%rbp), %rcx
 524 02db 488D55BA 		leaq	-70(%rbp), %rdx
 525 02df 488D75BC 		leaq	-68(%rbp), %rsi
 526 02e3 4889C7   		movq	%rax, %rdi
 527 02e6 E8000000 		call	_ZN8UnitTest10CheckEqualIihEEvRNS_11TestResultsERKT_RKT0_RKNS_11TestDetailsE
 527      00
 528              	.LEHE18:
 529              	.L39:
  38:testConv.cpp  **** 	status = getHexNibble('5', &nibble);
 530              		.loc 3 38 23 is_stmt 1
 531 02eb 488D45BA 		leaq	-70(%rbp), %rax
 532 02ef 4889C6   		movq	%rax, %rsi
 533 02f2 BF350000 		movl	$53, %edi
 533      00
 534              	.LEHB19:
 535 02f7 E8000000 		call	getHexNibble@PLT
 535      00
 536              	.LEHE19:
 537              		.loc 3 38 9
 538 02fc 8845BB   		movb	%al, -69(%rbp)
 539              	.LEHB20:
  39:testConv.cpp  **** 	CHECK_EQUAL(false, status);
 540              		.loc 3 39 2
 541 02ff E8000000 		call	_ZN8UnitTest11CurrentTest7DetailsEv@PLT
 541      00
 542 0304 488B08   		movq	(%rax), %rcx
 543 0307 488D45C0 		leaq	-64(%rbp), %rax
 544 030b BA270000 		movl	$39, %edx
 544      00
 545 0310 4889CE   		movq	%rcx, %rsi
 546 0313 4889C7   		movq	%rax, %rdi
 547 0316 E8000000 		call	_ZN8UnitTest11TestDetailsC1ERKS0_i@PLT
 547      00
 548              		.loc 3 39 2 is_stmt 0 discriminator 4
 549 031b C645BC00 		movb	$0, -68(%rbp)
 550 031f E8000000 		call	_ZN8UnitTest11CurrentTest7ResultsEv@PLT
 550      00
 551 0324 488B00   		movq	(%rax), %rax
 552 0327 488D4DC0 		leaq	-64(%rbp), %rcx
 553 032b 488D55BB 		leaq	-69(%rbp), %rdx
 554 032f 488D75BC 		leaq	-68(%rbp), %rsi
 555 0333 4889C7   		movq	%rax, %rdi
 556 0336 E8000000 		call	_ZN8UnitTest10CheckEqualIbbEEvRNS_11TestResultsERKT_RKT0_RKNS_11TestDetailsE
 556      00
 557              	.LEHE20:
 558              	.L42:
 559              	.LEHB21:
  40:testConv.cpp  **** 	CHECK_EQUAL(5, nibble);
 560              		.loc 3 40 2 is_stmt 1
 561 033b E8000000 		call	_ZN8UnitTest11CurrentTest7DetailsEv@PLT
 561      00
 562 0340 488B08   		movq	(%rax), %rcx
 563 0343 488D45C0 		leaq	-64(%rbp), %rax
 564 0347 BA280000 		movl	$40, %edx
 564      00
 565 034c 4889CE   		movq	%rcx, %rsi
 566 034f 4889C7   		movq	%rax, %rdi
 567 0352 E8000000 		call	_ZN8UnitTest11TestDetailsC1ERKS0_i@PLT
 567      00
 568              		.loc 3 40 2 is_stmt 0 discriminator 4
 569 0357 C745BC05 		movl	$5, -68(%rbp)
 569      000000
 570 035e E8000000 		call	_ZN8UnitTest11CurrentTest7ResultsEv@PLT
 570      00
 571 0363 488B00   		movq	(%rax), %rax
 572 0366 488D4DC0 		leaq	-64(%rbp), %rcx
 573 036a 488D55BA 		leaq	-70(%rbp), %rdx
 574 036e 488D75BC 		leaq	-68(%rbp), %rsi
 575 0372 4889C7   		movq	%rax, %rdi
 576 0375 E8000000 		call	_ZN8UnitTest10CheckEqualIihEEvRNS_11TestResultsERKT_RKT0_RKNS_11TestDetailsE
 576      00
 577              	.LEHE21:
 578              	.L45:
  41:testConv.cpp  **** 	status = getHexNibble('6', &nibble);
 579              		.loc 3 41 23 is_stmt 1
 580 037a 488D45BA 		leaq	-70(%rbp), %rax
 581 037e 4889C6   		movq	%rax, %rsi
 582 0381 BF360000 		movl	$54, %edi
 582      00
 583              	.LEHB22:
 584 0386 E8000000 		call	getHexNibble@PLT
 584      00
 585              	.LEHE22:
 586              		.loc 3 41 9
 587 038b 8845BB   		movb	%al, -69(%rbp)
 588              	.LEHB23:
  42:testConv.cpp  **** 	CHECK_EQUAL(false, status);
 589              		.loc 3 42 2
 590 038e E8000000 		call	_ZN8UnitTest11CurrentTest7DetailsEv@PLT
 590      00
 591 0393 488B08   		movq	(%rax), %rcx
 592 0396 488D45C0 		leaq	-64(%rbp), %rax
 593 039a BA2A0000 		movl	$42, %edx
 593      00
 594 039f 4889CE   		movq	%rcx, %rsi
 595 03a2 4889C7   		movq	%rax, %rdi
 596 03a5 E8000000 		call	_ZN8UnitTest11TestDetailsC1ERKS0_i@PLT
 596      00
 597              		.loc 3 42 2 is_stmt 0 discriminator 4
 598 03aa C645BC00 		movb	$0, -68(%rbp)
 599 03ae E8000000 		call	_ZN8UnitTest11CurrentTest7ResultsEv@PLT
 599      00
 600 03b3 488B00   		movq	(%rax), %rax
 601 03b6 488D4DC0 		leaq	-64(%rbp), %rcx
 602 03ba 488D55BB 		leaq	-69(%rbp), %rdx
 603 03be 488D75BC 		leaq	-68(%rbp), %rsi
 604 03c2 4889C7   		movq	%rax, %rdi
 605 03c5 E8000000 		call	_ZN8UnitTest10CheckEqualIbbEEvRNS_11TestResultsERKT_RKT0_RKNS_11TestDetailsE
 605      00
 606              	.LEHE23:
 607              	.L48:
 608              	.LEHB24:
  43:testConv.cpp  **** 	CHECK_EQUAL(6, nibble);
 609              		.loc 3 43 2 is_stmt 1
 610 03ca E8000000 		call	_ZN8UnitTest11CurrentTest7DetailsEv@PLT
 610      00
 611 03cf 488B08   		movq	(%rax), %rcx
 612 03d2 488D45C0 		leaq	-64(%rbp), %rax
 613 03d6 BA2B0000 		movl	$43, %edx
 613      00
 614 03db 4889CE   		movq	%rcx, %rsi
 615 03de 4889C7   		movq	%rax, %rdi
 616 03e1 E8000000 		call	_ZN8UnitTest11TestDetailsC1ERKS0_i@PLT
 616      00
 617              		.loc 3 43 2 is_stmt 0 discriminator 4
 618 03e6 C745BC06 		movl	$6, -68(%rbp)
 618      000000
 619 03ed E8000000 		call	_ZN8UnitTest11CurrentTest7ResultsEv@PLT
 619      00
 620 03f2 488B00   		movq	(%rax), %rax
 621 03f5 488D4DC0 		leaq	-64(%rbp), %rcx
 622 03f9 488D55BA 		leaq	-70(%rbp), %rdx
 623 03fd 488D75BC 		leaq	-68(%rbp), %rsi
 624 0401 4889C7   		movq	%rax, %rdi
 625 0404 E8000000 		call	_ZN8UnitTest10CheckEqualIihEEvRNS_11TestResultsERKT_RKT0_RKNS_11TestDetailsE
 625      00
 626              	.LEHE24:
 627              	.L51:
  44:testConv.cpp  **** 	status = getHexNibble('7', &nibble);
 628              		.loc 3 44 23 is_stmt 1
 629 0409 488D45BA 		leaq	-70(%rbp), %rax
 630 040d 4889C6   		movq	%rax, %rsi
 631 0410 BF370000 		movl	$55, %edi
 631      00
 632              	.LEHB25:
 633 0415 E8000000 		call	getHexNibble@PLT
 633      00
 634              	.LEHE25:
 635              		.loc 3 44 9
 636 041a 8845BB   		movb	%al, -69(%rbp)
 637              	.LEHB26:
  45:testConv.cpp  **** 	CHECK_EQUAL(false, status);
 638              		.loc 3 45 2
 639 041d E8000000 		call	_ZN8UnitTest11CurrentTest7DetailsEv@PLT
 639      00
 640 0422 488B08   		movq	(%rax), %rcx
 641 0425 488D45C0 		leaq	-64(%rbp), %rax
 642 0429 BA2D0000 		movl	$45, %edx
 642      00
 643 042e 4889CE   		movq	%rcx, %rsi
 644 0431 4889C7   		movq	%rax, %rdi
 645 0434 E8000000 		call	_ZN8UnitTest11TestDetailsC1ERKS0_i@PLT
 645      00
 646              		.loc 3 45 2 is_stmt 0 discriminator 4
 647 0439 C645BC00 		movb	$0, -68(%rbp)
 648 043d E8000000 		call	_ZN8UnitTest11CurrentTest7ResultsEv@PLT
 648      00
 649 0442 488B00   		movq	(%rax), %rax
 650 0445 488D4DC0 		leaq	-64(%rbp), %rcx
 651 0449 488D55BB 		leaq	-69(%rbp), %rdx
 652 044d 488D75BC 		leaq	-68(%rbp), %rsi
 653 0451 4889C7   		movq	%rax, %rdi
 654 0454 E8000000 		call	_ZN8UnitTest10CheckEqualIbbEEvRNS_11TestResultsERKT_RKT0_RKNS_11TestDetailsE
 654      00
 655              	.LEHE26:
 656              	.L54:
 657              	.LEHB27:
  46:testConv.cpp  **** 	CHECK_EQUAL(7, nibble);
 658              		.loc 3 46 2 is_stmt 1
 659 0459 E8000000 		call	_ZN8UnitTest11CurrentTest7DetailsEv@PLT
 659      00
 660 045e 488B08   		movq	(%rax), %rcx
 661 0461 488D45C0 		leaq	-64(%rbp), %rax
 662 0465 BA2E0000 		movl	$46, %edx
 662      00
 663 046a 4889CE   		movq	%rcx, %rsi
 664 046d 4889C7   		movq	%rax, %rdi
 665 0470 E8000000 		call	_ZN8UnitTest11TestDetailsC1ERKS0_i@PLT
 665      00
 666              		.loc 3 46 2 is_stmt 0 discriminator 4
 667 0475 C745BC07 		movl	$7, -68(%rbp)
 667      000000
 668 047c E8000000 		call	_ZN8UnitTest11CurrentTest7ResultsEv@PLT
 668      00
 669 0481 488B00   		movq	(%rax), %rax
 670 0484 488D4DC0 		leaq	-64(%rbp), %rcx
 671 0488 488D55BA 		leaq	-70(%rbp), %rdx
 672 048c 488D75BC 		leaq	-68(%rbp), %rsi
 673 0490 4889C7   		movq	%rax, %rdi
 674 0493 E8000000 		call	_ZN8UnitTest10CheckEqualIihEEvRNS_11TestResultsERKT_RKT0_RKNS_11TestDetailsE
 674      00
 675              	.LEHE27:
 676              	.L57:
  47:testConv.cpp  **** 	status = getHexNibble('8', &nibble);
 677              		.loc 3 47 23 is_stmt 1
 678 0498 488D45BA 		leaq	-70(%rbp), %rax
 679 049c 4889C6   		movq	%rax, %rsi
 680 049f BF380000 		movl	$56, %edi
 680      00
 681              	.LEHB28:
 682 04a4 E8000000 		call	getHexNibble@PLT
 682      00
 683              	.LEHE28:
 684              		.loc 3 47 9
 685 04a9 8845BB   		movb	%al, -69(%rbp)
 686              	.LEHB29:
  48:testConv.cpp  **** 	CHECK_EQUAL(false, status);
 687              		.loc 3 48 2
 688 04ac E8000000 		call	_ZN8UnitTest11CurrentTest7DetailsEv@PLT
 688      00
 689 04b1 488B08   		movq	(%rax), %rcx
 690 04b4 488D45C0 		leaq	-64(%rbp), %rax
 691 04b8 BA300000 		movl	$48, %edx
 691      00
 692 04bd 4889CE   		movq	%rcx, %rsi
 693 04c0 4889C7   		movq	%rax, %rdi
 694 04c3 E8000000 		call	_ZN8UnitTest11TestDetailsC1ERKS0_i@PLT
 694      00
 695              		.loc 3 48 2 is_stmt 0 discriminator 4
 696 04c8 C645BC00 		movb	$0, -68(%rbp)
 697 04cc E8000000 		call	_ZN8UnitTest11CurrentTest7ResultsEv@PLT
 697      00
 698 04d1 488B00   		movq	(%rax), %rax
 699 04d4 488D4DC0 		leaq	-64(%rbp), %rcx
 700 04d8 488D55BB 		leaq	-69(%rbp), %rdx
 701 04dc 488D75BC 		leaq	-68(%rbp), %rsi
 702 04e0 4889C7   		movq	%rax, %rdi
 703 04e3 E8000000 		call	_ZN8UnitTest10CheckEqualIbbEEvRNS_11TestResultsERKT_RKT0_RKNS_11TestDetailsE
 703      00
 704              	.LEHE29:
 705              	.L60:
 706              	.LEHB30:
  49:testConv.cpp  **** 	CHECK_EQUAL(8, nibble);
 707              		.loc 3 49 2 is_stmt 1
 708 04e8 E8000000 		call	_ZN8UnitTest11CurrentTest7DetailsEv@PLT
 708      00
 709 04ed 488B08   		movq	(%rax), %rcx
 710 04f0 488D45C0 		leaq	-64(%rbp), %rax
 711 04f4 BA310000 		movl	$49, %edx
 711      00
 712 04f9 4889CE   		movq	%rcx, %rsi
 713 04fc 4889C7   		movq	%rax, %rdi
 714 04ff E8000000 		call	_ZN8UnitTest11TestDetailsC1ERKS0_i@PLT
 714      00
 715              		.loc 3 49 2 is_stmt 0 discriminator 4
 716 0504 C745BC08 		movl	$8, -68(%rbp)
 716      000000
 717 050b E8000000 		call	_ZN8UnitTest11CurrentTest7ResultsEv@PLT
 717      00
 718 0510 488B00   		movq	(%rax), %rax
 719 0513 488D4DC0 		leaq	-64(%rbp), %rcx
 720 0517 488D55BA 		leaq	-70(%rbp), %rdx
 721 051b 488D75BC 		leaq	-68(%rbp), %rsi
 722 051f 4889C7   		movq	%rax, %rdi
 723 0522 E8000000 		call	_ZN8UnitTest10CheckEqualIihEEvRNS_11TestResultsERKT_RKT0_RKNS_11TestDetailsE
 723      00
 724              	.LEHE30:
 725              	.L63:
  50:testConv.cpp  **** 	status = getHexNibble('9', &nibble);
 726              		.loc 3 50 23 is_stmt 1
 727 0527 488D45BA 		leaq	-70(%rbp), %rax
 728 052b 4889C6   		movq	%rax, %rsi
 729 052e BF390000 		movl	$57, %edi
 729      00
 730              	.LEHB31:
 731 0533 E8000000 		call	getHexNibble@PLT
 731      00
 732              	.LEHE31:
 733              		.loc 3 50 9
 734 0538 8845BB   		movb	%al, -69(%rbp)
 735              	.LEHB32:
  51:testConv.cpp  **** 	CHECK_EQUAL(false, status);
 736              		.loc 3 51 2
 737 053b E8000000 		call	_ZN8UnitTest11CurrentTest7DetailsEv@PLT
 737      00
 738 0540 488B08   		movq	(%rax), %rcx
 739 0543 488D45C0 		leaq	-64(%rbp), %rax
 740 0547 BA330000 		movl	$51, %edx
 740      00
 741 054c 4889CE   		movq	%rcx, %rsi
 742 054f 4889C7   		movq	%rax, %rdi
 743 0552 E8000000 		call	_ZN8UnitTest11TestDetailsC1ERKS0_i@PLT
 743      00
 744              		.loc 3 51 2 is_stmt 0 discriminator 4
 745 0557 C645BC00 		movb	$0, -68(%rbp)
 746 055b E8000000 		call	_ZN8UnitTest11CurrentTest7ResultsEv@PLT
 746      00
 747 0560 488B00   		movq	(%rax), %rax
 748 0563 488D4DC0 		leaq	-64(%rbp), %rcx
 749 0567 488D55BB 		leaq	-69(%rbp), %rdx
 750 056b 488D75BC 		leaq	-68(%rbp), %rsi
 751 056f 4889C7   		movq	%rax, %rdi
 752 0572 E8000000 		call	_ZN8UnitTest10CheckEqualIbbEEvRNS_11TestResultsERKT_RKT0_RKNS_11TestDetailsE
 752      00
 753              	.LEHE32:
 754              	.L66:
 755              	.LEHB33:
  52:testConv.cpp  **** 	CHECK_EQUAL(9, nibble);
 756              		.loc 3 52 2 is_stmt 1
 757 0577 E8000000 		call	_ZN8UnitTest11CurrentTest7DetailsEv@PLT
 757      00
 758 057c 488B08   		movq	(%rax), %rcx
 759 057f 488D45C0 		leaq	-64(%rbp), %rax
 760 0583 BA340000 		movl	$52, %edx
 760      00
 761 0588 4889CE   		movq	%rcx, %rsi
 762 058b 4889C7   		movq	%rax, %rdi
 763 058e E8000000 		call	_ZN8UnitTest11TestDetailsC1ERKS0_i@PLT
 763      00
 764              		.loc 3 52 2 is_stmt 0 discriminator 4
 765 0593 C745BC09 		movl	$9, -68(%rbp)
 765      000000
 766 059a E8000000 		call	_ZN8UnitTest11CurrentTest7ResultsEv@PLT
 766      00
 767 059f 488B00   		movq	(%rax), %rax
 768 05a2 488D4DC0 		leaq	-64(%rbp), %rcx
 769 05a6 488D55BA 		leaq	-70(%rbp), %rdx
 770 05aa 488D75BC 		leaq	-68(%rbp), %rsi
 771 05ae 4889C7   		movq	%rax, %rdi
 772 05b1 E8000000 		call	_ZN8UnitTest10CheckEqualIihEEvRNS_11TestResultsERKT_RKT0_RKNS_11TestDetailsE
 772      00
 773              	.LEHE33:
 774              	.L69:
  53:testConv.cpp  **** 	status = getHexNibble('A', &nibble);
 775              		.loc 3 53 23 is_stmt 1
 776 05b6 488D45BA 		leaq	-70(%rbp), %rax
 777 05ba 4889C6   		movq	%rax, %rsi
 778 05bd BF410000 		movl	$65, %edi
 778      00
 779              	.LEHB34:
 780 05c2 E8000000 		call	getHexNibble@PLT
 780      00
 781              	.LEHE34:
 782              		.loc 3 53 9
 783 05c7 8845BB   		movb	%al, -69(%rbp)
 784              	.LEHB35:
  54:testConv.cpp  **** 	CHECK_EQUAL(false, status);
 785              		.loc 3 54 2
 786 05ca E8000000 		call	_ZN8UnitTest11CurrentTest7DetailsEv@PLT
 786      00
 787 05cf 488B08   		movq	(%rax), %rcx
 788 05d2 488D45C0 		leaq	-64(%rbp), %rax
 789 05d6 BA360000 		movl	$54, %edx
 789      00
 790 05db 4889CE   		movq	%rcx, %rsi
 791 05de 4889C7   		movq	%rax, %rdi
 792 05e1 E8000000 		call	_ZN8UnitTest11TestDetailsC1ERKS0_i@PLT
 792      00
 793              		.loc 3 54 2 is_stmt 0 discriminator 4
 794 05e6 C645BC00 		movb	$0, -68(%rbp)
 795 05ea E8000000 		call	_ZN8UnitTest11CurrentTest7ResultsEv@PLT
 795      00
 796 05ef 488B00   		movq	(%rax), %rax
 797 05f2 488D4DC0 		leaq	-64(%rbp), %rcx
 798 05f6 488D55BB 		leaq	-69(%rbp), %rdx
 799 05fa 488D75BC 		leaq	-68(%rbp), %rsi
 800 05fe 4889C7   		movq	%rax, %rdi
 801 0601 E8000000 		call	_ZN8UnitTest10CheckEqualIbbEEvRNS_11TestResultsERKT_RKT0_RKNS_11TestDetailsE
 801      00
 802              	.LEHE35:
 803              	.L72:
 804              	.LEHB36:
  55:testConv.cpp  **** 	CHECK_EQUAL(10, nibble);
 805              		.loc 3 55 2 is_stmt 1
 806 0606 E8000000 		call	_ZN8UnitTest11CurrentTest7DetailsEv@PLT
 806      00
 807 060b 488B08   		movq	(%rax), %rcx
 808 060e 488D45C0 		leaq	-64(%rbp), %rax
 809 0612 BA370000 		movl	$55, %edx
 809      00
 810 0617 4889CE   		movq	%rcx, %rsi
 811 061a 4889C7   		movq	%rax, %rdi
 812 061d E8000000 		call	_ZN8UnitTest11TestDetailsC1ERKS0_i@PLT
 812      00
 813              		.loc 3 55 2 is_stmt 0 discriminator 4
 814 0622 C745BC0A 		movl	$10, -68(%rbp)
 814      000000
 815 0629 E8000000 		call	_ZN8UnitTest11CurrentTest7ResultsEv@PLT
 815      00
 816 062e 488B00   		movq	(%rax), %rax
 817 0631 488D4DC0 		leaq	-64(%rbp), %rcx
 818 0635 488D55BA 		leaq	-70(%rbp), %rdx
 819 0639 488D75BC 		leaq	-68(%rbp), %rsi
 820 063d 4889C7   		movq	%rax, %rdi
 821 0640 E8000000 		call	_ZN8UnitTest10CheckEqualIihEEvRNS_11TestResultsERKT_RKT0_RKNS_11TestDetailsE
 821      00
 822              	.LEHE36:
 823              	.L75:
  56:testConv.cpp  **** 	status = getHexNibble('B', &nibble);
 824              		.loc 3 56 23 is_stmt 1
 825 0645 488D45BA 		leaq	-70(%rbp), %rax
 826 0649 4889C6   		movq	%rax, %rsi
 827 064c BF420000 		movl	$66, %edi
 827      00
 828              	.LEHB37:
 829 0651 E8000000 		call	getHexNibble@PLT
 829      00
 830              	.LEHE37:
 831              		.loc 3 56 9
 832 0656 8845BB   		movb	%al, -69(%rbp)
 833              	.LEHB38:
  57:testConv.cpp  **** 	CHECK_EQUAL(false, status);
 834              		.loc 3 57 2
 835 0659 E8000000 		call	_ZN8UnitTest11CurrentTest7DetailsEv@PLT
 835      00
 836 065e 488B08   		movq	(%rax), %rcx
 837 0661 488D45C0 		leaq	-64(%rbp), %rax
 838 0665 BA390000 		movl	$57, %edx
 838      00
 839 066a 4889CE   		movq	%rcx, %rsi
 840 066d 4889C7   		movq	%rax, %rdi
 841 0670 E8000000 		call	_ZN8UnitTest11TestDetailsC1ERKS0_i@PLT
 841      00
 842              		.loc 3 57 2 is_stmt 0 discriminator 4
 843 0675 C645BC00 		movb	$0, -68(%rbp)
 844 0679 E8000000 		call	_ZN8UnitTest11CurrentTest7ResultsEv@PLT
 844      00
 845 067e 488B00   		movq	(%rax), %rax
 846 0681 488D4DC0 		leaq	-64(%rbp), %rcx
 847 0685 488D55BB 		leaq	-69(%rbp), %rdx
 848 0689 488D75BC 		leaq	-68(%rbp), %rsi
 849 068d 4889C7   		movq	%rax, %rdi
 850 0690 E8000000 		call	_ZN8UnitTest10CheckEqualIbbEEvRNS_11TestResultsERKT_RKT0_RKNS_11TestDetailsE
 850      00
 851              	.LEHE38:
 852              	.L78:
 853              	.LEHB39:
  58:testConv.cpp  **** 	CHECK_EQUAL(11, nibble);
 854              		.loc 3 58 2 is_stmt 1
 855 0695 E8000000 		call	_ZN8UnitTest11CurrentTest7DetailsEv@PLT
 855      00
 856 069a 488B08   		movq	(%rax), %rcx
 857 069d 488D45C0 		leaq	-64(%rbp), %rax
 858 06a1 BA3A0000 		movl	$58, %edx
 858      00
 859 06a6 4889CE   		movq	%rcx, %rsi
 860 06a9 4889C7   		movq	%rax, %rdi
 861 06ac E8000000 		call	_ZN8UnitTest11TestDetailsC1ERKS0_i@PLT
 861      00
 862              		.loc 3 58 2 is_stmt 0 discriminator 4
 863 06b1 C745BC0B 		movl	$11, -68(%rbp)
 863      000000
 864 06b8 E8000000 		call	_ZN8UnitTest11CurrentTest7ResultsEv@PLT
 864      00
 865 06bd 488B00   		movq	(%rax), %rax
 866 06c0 488D4DC0 		leaq	-64(%rbp), %rcx
 867 06c4 488D55BA 		leaq	-70(%rbp), %rdx
 868 06c8 488D75BC 		leaq	-68(%rbp), %rsi
 869 06cc 4889C7   		movq	%rax, %rdi
 870 06cf E8000000 		call	_ZN8UnitTest10CheckEqualIihEEvRNS_11TestResultsERKT_RKT0_RKNS_11TestDetailsE
 870      00
 871              	.LEHE39:
 872              	.L81:
  59:testConv.cpp  **** 	status = getHexNibble('C', &nibble);
 873              		.loc 3 59 23 is_stmt 1
 874 06d4 488D45BA 		leaq	-70(%rbp), %rax
 875 06d8 4889C6   		movq	%rax, %rsi
 876 06db BF430000 		movl	$67, %edi
 876      00
 877              	.LEHB40:
 878 06e0 E8000000 		call	getHexNibble@PLT
 878      00
 879              	.LEHE40:
 880              		.loc 3 59 9
 881 06e5 8845BB   		movb	%al, -69(%rbp)
 882              	.LEHB41:
  60:testConv.cpp  **** 	CHECK_EQUAL(false, status);
 883              		.loc 3 60 2
 884 06e8 E8000000 		call	_ZN8UnitTest11CurrentTest7DetailsEv@PLT
 884      00
 885 06ed 488B08   		movq	(%rax), %rcx
 886 06f0 488D45C0 		leaq	-64(%rbp), %rax
 887 06f4 BA3C0000 		movl	$60, %edx
 887      00
 888 06f9 4889CE   		movq	%rcx, %rsi
 889 06fc 4889C7   		movq	%rax, %rdi
 890 06ff E8000000 		call	_ZN8UnitTest11TestDetailsC1ERKS0_i@PLT
 890      00
 891              		.loc 3 60 2 is_stmt 0 discriminator 4
 892 0704 C645BC00 		movb	$0, -68(%rbp)
 893 0708 E8000000 		call	_ZN8UnitTest11CurrentTest7ResultsEv@PLT
 893      00
 894 070d 488B00   		movq	(%rax), %rax
 895 0710 488D4DC0 		leaq	-64(%rbp), %rcx
 896 0714 488D55BB 		leaq	-69(%rbp), %rdx
 897 0718 488D75BC 		leaq	-68(%rbp), %rsi
 898 071c 4889C7   		movq	%rax, %rdi
 899 071f E8000000 		call	_ZN8UnitTest10CheckEqualIbbEEvRNS_11TestResultsERKT_RKT0_RKNS_11TestDetailsE
 899      00
 900              	.LEHE41:
 901              	.L84:
 902              	.LEHB42:
  61:testConv.cpp  **** 	CHECK_EQUAL(12, nibble);
 903              		.loc 3 61 2 is_stmt 1
 904 0724 E8000000 		call	_ZN8UnitTest11CurrentTest7DetailsEv@PLT
 904      00
 905 0729 488B08   		movq	(%rax), %rcx
 906 072c 488D45C0 		leaq	-64(%rbp), %rax
 907 0730 BA3D0000 		movl	$61, %edx
 907      00
 908 0735 4889CE   		movq	%rcx, %rsi
 909 0738 4889C7   		movq	%rax, %rdi
 910 073b E8000000 		call	_ZN8UnitTest11TestDetailsC1ERKS0_i@PLT
 910      00
 911              		.loc 3 61 2 is_stmt 0 discriminator 4
 912 0740 C745BC0C 		movl	$12, -68(%rbp)
 912      000000
 913 0747 E8000000 		call	_ZN8UnitTest11CurrentTest7ResultsEv@PLT
 913      00
 914 074c 488B00   		movq	(%rax), %rax
 915 074f 488D4DC0 		leaq	-64(%rbp), %rcx
 916 0753 488D55BA 		leaq	-70(%rbp), %rdx
 917 0757 488D75BC 		leaq	-68(%rbp), %rsi
 918 075b 4889C7   		movq	%rax, %rdi
 919 075e E8000000 		call	_ZN8UnitTest10CheckEqualIihEEvRNS_11TestResultsERKT_RKT0_RKNS_11TestDetailsE
 919      00
 920              	.LEHE42:
 921              	.L87:
  62:testConv.cpp  **** 	status = getHexNibble('D', &nibble);
 922              		.loc 3 62 23 is_stmt 1
 923 0763 488D45BA 		leaq	-70(%rbp), %rax
 924 0767 4889C6   		movq	%rax, %rsi
 925 076a BF440000 		movl	$68, %edi
 925      00
 926              	.LEHB43:
 927 076f E8000000 		call	getHexNibble@PLT
 927      00
 928              	.LEHE43:
 929              		.loc 3 62 9
 930 0774 8845BB   		movb	%al, -69(%rbp)
 931              	.LEHB44:
  63:testConv.cpp  **** 	CHECK_EQUAL(false, status);
 932              		.loc 3 63 2
 933 0777 E8000000 		call	_ZN8UnitTest11CurrentTest7DetailsEv@PLT
 933      00
 934 077c 488B08   		movq	(%rax), %rcx
 935 077f 488D45C0 		leaq	-64(%rbp), %rax
 936 0783 BA3F0000 		movl	$63, %edx
 936      00
 937 0788 4889CE   		movq	%rcx, %rsi
 938 078b 4889C7   		movq	%rax, %rdi
 939 078e E8000000 		call	_ZN8UnitTest11TestDetailsC1ERKS0_i@PLT
 939      00
 940              		.loc 3 63 2 is_stmt 0 discriminator 4
 941 0793 C645BC00 		movb	$0, -68(%rbp)
 942 0797 E8000000 		call	_ZN8UnitTest11CurrentTest7ResultsEv@PLT
 942      00
 943 079c 488B00   		movq	(%rax), %rax
 944 079f 488D4DC0 		leaq	-64(%rbp), %rcx
 945 07a3 488D55BB 		leaq	-69(%rbp), %rdx
 946 07a7 488D75BC 		leaq	-68(%rbp), %rsi
 947 07ab 4889C7   		movq	%rax, %rdi
 948 07ae E8000000 		call	_ZN8UnitTest10CheckEqualIbbEEvRNS_11TestResultsERKT_RKT0_RKNS_11TestDetailsE
 948      00
 949              	.LEHE44:
 950              	.L90:
 951              	.LEHB45:
  64:testConv.cpp  **** 	CHECK_EQUAL(13, nibble);
 952              		.loc 3 64 2 is_stmt 1
 953 07b3 E8000000 		call	_ZN8UnitTest11CurrentTest7DetailsEv@PLT
 953      00
 954 07b8 488B08   		movq	(%rax), %rcx
 955 07bb 488D45C0 		leaq	-64(%rbp), %rax
 956 07bf BA400000 		movl	$64, %edx
 956      00
 957 07c4 4889CE   		movq	%rcx, %rsi
 958 07c7 4889C7   		movq	%rax, %rdi
 959 07ca E8000000 		call	_ZN8UnitTest11TestDetailsC1ERKS0_i@PLT
 959      00
 960              		.loc 3 64 2 is_stmt 0 discriminator 4
 961 07cf C745BC0D 		movl	$13, -68(%rbp)
 961      000000
 962 07d6 E8000000 		call	_ZN8UnitTest11CurrentTest7ResultsEv@PLT
 962      00
 963 07db 488B00   		movq	(%rax), %rax
 964 07de 488D4DC0 		leaq	-64(%rbp), %rcx
 965 07e2 488D55BA 		leaq	-70(%rbp), %rdx
 966 07e6 488D75BC 		leaq	-68(%rbp), %rsi
 967 07ea 4889C7   		movq	%rax, %rdi
 968 07ed E8000000 		call	_ZN8UnitTest10CheckEqualIihEEvRNS_11TestResultsERKT_RKT0_RKNS_11TestDetailsE
 968      00
 969              	.LEHE45:
 970              	.L93:
  65:testConv.cpp  **** 	status = getHexNibble('E', &nibble);
 971              		.loc 3 65 23 is_stmt 1
 972 07f2 488D45BA 		leaq	-70(%rbp), %rax
 973 07f6 4889C6   		movq	%rax, %rsi
 974 07f9 BF450000 		movl	$69, %edi
 974      00
 975              	.LEHB46:
 976 07fe E8000000 		call	getHexNibble@PLT
 976      00
 977              	.LEHE46:
 978              		.loc 3 65 9
 979 0803 8845BB   		movb	%al, -69(%rbp)
 980              	.LEHB47:
  66:testConv.cpp  **** 	CHECK_EQUAL(false, status);
 981              		.loc 3 66 2
 982 0806 E8000000 		call	_ZN8UnitTest11CurrentTest7DetailsEv@PLT
 982      00
 983 080b 488B08   		movq	(%rax), %rcx
 984 080e 488D45C0 		leaq	-64(%rbp), %rax
 985 0812 BA420000 		movl	$66, %edx
 985      00
 986 0817 4889CE   		movq	%rcx, %rsi
 987 081a 4889C7   		movq	%rax, %rdi
 988 081d E8000000 		call	_ZN8UnitTest11TestDetailsC1ERKS0_i@PLT
 988      00
 989              		.loc 3 66 2 is_stmt 0 discriminator 4
 990 0822 C645BC00 		movb	$0, -68(%rbp)
 991 0826 E8000000 		call	_ZN8UnitTest11CurrentTest7ResultsEv@PLT
 991      00
 992 082b 488B00   		movq	(%rax), %rax
 993 082e 488D4DC0 		leaq	-64(%rbp), %rcx
 994 0832 488D55BB 		leaq	-69(%rbp), %rdx
 995 0836 488D75BC 		leaq	-68(%rbp), %rsi
 996 083a 4889C7   		movq	%rax, %rdi
 997 083d E8000000 		call	_ZN8UnitTest10CheckEqualIbbEEvRNS_11TestResultsERKT_RKT0_RKNS_11TestDetailsE
 997      00
 998              	.LEHE47:
 999              	.L96:
 1000              	.LEHB48:
  67:testConv.cpp  **** 	CHECK_EQUAL(14, nibble);
 1001              		.loc 3 67 2 is_stmt 1
 1002 0842 E8000000 		call	_ZN8UnitTest11CurrentTest7DetailsEv@PLT
 1002      00
 1003 0847 488B08   		movq	(%rax), %rcx
 1004 084a 488D45C0 		leaq	-64(%rbp), %rax
 1005 084e BA430000 		movl	$67, %edx
 1005      00
 1006 0853 4889CE   		movq	%rcx, %rsi
 1007 0856 4889C7   		movq	%rax, %rdi
 1008 0859 E8000000 		call	_ZN8UnitTest11TestDetailsC1ERKS0_i@PLT
 1008      00
 1009              		.loc 3 67 2 is_stmt 0 discriminator 4
 1010 085e C745BC0E 		movl	$14, -68(%rbp)
 1010      000000
 1011 0865 E8000000 		call	_ZN8UnitTest11CurrentTest7ResultsEv@PLT
 1011      00
 1012 086a 488B00   		movq	(%rax), %rax
 1013 086d 488D4DC0 		leaq	-64(%rbp), %rcx
 1014 0871 488D55BA 		leaq	-70(%rbp), %rdx
 1015 0875 488D75BC 		leaq	-68(%rbp), %rsi
 1016 0879 4889C7   		movq	%rax, %rdi
 1017 087c E8000000 		call	_ZN8UnitTest10CheckEqualIihEEvRNS_11TestResultsERKT_RKT0_RKNS_11TestDetailsE
 1017      00
 1018              	.LEHE48:
 1019              	.L99:
  68:testConv.cpp  **** 	status = getHexNibble('F', &nibble);
 1020              		.loc 3 68 23 is_stmt 1
 1021 0881 488D45BA 		leaq	-70(%rbp), %rax
 1022 0885 4889C6   		movq	%rax, %rsi
 1023 0888 BF460000 		movl	$70, %edi
 1023      00
 1024              	.LEHB49:
 1025 088d E8000000 		call	getHexNibble@PLT
 1025      00
 1026              	.LEHE49:
 1027              		.loc 3 68 9
 1028 0892 8845BB   		movb	%al, -69(%rbp)
 1029              	.LEHB50:
  69:testConv.cpp  **** 	CHECK_EQUAL(false, status);
 1030              		.loc 3 69 2
 1031 0895 E8000000 		call	_ZN8UnitTest11CurrentTest7DetailsEv@PLT
 1031      00
 1032 089a 488B08   		movq	(%rax), %rcx
 1033 089d 488D45C0 		leaq	-64(%rbp), %rax
 1034 08a1 BA450000 		movl	$69, %edx
 1034      00
 1035 08a6 4889CE   		movq	%rcx, %rsi
 1036 08a9 4889C7   		movq	%rax, %rdi
 1037 08ac E8000000 		call	_ZN8UnitTest11TestDetailsC1ERKS0_i@PLT
 1037      00
 1038              		.loc 3 69 2 is_stmt 0 discriminator 4
 1039 08b1 C645BC00 		movb	$0, -68(%rbp)
 1040 08b5 E8000000 		call	_ZN8UnitTest11CurrentTest7ResultsEv@PLT
 1040      00
 1041 08ba 488B00   		movq	(%rax), %rax
 1042 08bd 488D4DC0 		leaq	-64(%rbp), %rcx
 1043 08c1 488D55BB 		leaq	-69(%rbp), %rdx
 1044 08c5 488D75BC 		leaq	-68(%rbp), %rsi
 1045 08c9 4889C7   		movq	%rax, %rdi
 1046 08cc E8000000 		call	_ZN8UnitTest10CheckEqualIbbEEvRNS_11TestResultsERKT_RKT0_RKNS_11TestDetailsE
 1046      00
 1047              	.LEHE50:
 1048              	.L102:
 1049              	.LEHB51:
  70:testConv.cpp  **** 	CHECK_EQUAL(15, nibble);
 1050              		.loc 3 70 2 is_stmt 1
 1051 08d1 E8000000 		call	_ZN8UnitTest11CurrentTest7DetailsEv@PLT
 1051      00
 1052 08d6 488B08   		movq	(%rax), %rcx
 1053 08d9 488D45C0 		leaq	-64(%rbp), %rax
 1054 08dd BA460000 		movl	$70, %edx
 1054      00
 1055 08e2 4889CE   		movq	%rcx, %rsi
 1056 08e5 4889C7   		movq	%rax, %rdi
 1057 08e8 E8000000 		call	_ZN8UnitTest11TestDetailsC1ERKS0_i@PLT
 1057      00
 1058              		.loc 3 70 2 is_stmt 0 discriminator 4
 1059 08ed C745BC0F 		movl	$15, -68(%rbp)
 1059      000000
 1060 08f4 E8000000 		call	_ZN8UnitTest11CurrentTest7ResultsEv@PLT
 1060      00
 1061 08f9 488B00   		movq	(%rax), %rax
 1062 08fc 488D4DC0 		leaq	-64(%rbp), %rcx
 1063 0900 488D55BA 		leaq	-70(%rbp), %rdx
 1064 0904 488D75BC 		leaq	-68(%rbp), %rsi
 1065 0908 4889C7   		movq	%rax, %rdi
 1066 090b E8000000 		call	_ZN8UnitTest10CheckEqualIihEEvRNS_11TestResultsERKT_RKT0_RKNS_11TestDetailsE
 1066      00
 1067              	.LEHE51:
 1068              	.L105:
  71:testConv.cpp  **** 	status = getHexNibble('a', &nibble);
 1069              		.loc 3 71 23 is_stmt 1
 1070 0910 488D45BA 		leaq	-70(%rbp), %rax
 1071 0914 4889C6   		movq	%rax, %rsi
 1072 0917 BF610000 		movl	$97, %edi
 1072      00
 1073              	.LEHB52:
 1074 091c E8000000 		call	getHexNibble@PLT
 1074      00
 1075              	.LEHE52:
 1076              		.loc 3 71 9
 1077 0921 8845BB   		movb	%al, -69(%rbp)
 1078              	.LEHB53:
  72:testConv.cpp  **** 	CHECK_EQUAL(false, status);
 1079              		.loc 3 72 2
 1080 0924 E8000000 		call	_ZN8UnitTest11CurrentTest7DetailsEv@PLT
 1080      00
 1081 0929 488B08   		movq	(%rax), %rcx
 1082 092c 488D45C0 		leaq	-64(%rbp), %rax
 1083 0930 BA480000 		movl	$72, %edx
 1083      00
 1084 0935 4889CE   		movq	%rcx, %rsi
 1085 0938 4889C7   		movq	%rax, %rdi
 1086 093b E8000000 		call	_ZN8UnitTest11TestDetailsC1ERKS0_i@PLT
 1086      00
 1087              		.loc 3 72 2 is_stmt 0 discriminator 4
 1088 0940 C645BC00 		movb	$0, -68(%rbp)
 1089 0944 E8000000 		call	_ZN8UnitTest11CurrentTest7ResultsEv@PLT
 1089      00
 1090 0949 488B00   		movq	(%rax), %rax
 1091 094c 488D4DC0 		leaq	-64(%rbp), %rcx
 1092 0950 488D55BB 		leaq	-69(%rbp), %rdx
 1093 0954 488D75BC 		leaq	-68(%rbp), %rsi
 1094 0958 4889C7   		movq	%rax, %rdi
 1095 095b E8000000 		call	_ZN8UnitTest10CheckEqualIbbEEvRNS_11TestResultsERKT_RKT0_RKNS_11TestDetailsE
 1095      00
 1096              	.LEHE53:
 1097              	.L108:
 1098              	.LEHB54:
  73:testConv.cpp  **** 	CHECK_EQUAL(10, nibble);
 1099              		.loc 3 73 2 is_stmt 1
 1100 0960 E8000000 		call	_ZN8UnitTest11CurrentTest7DetailsEv@PLT
 1100      00
 1101 0965 488B08   		movq	(%rax), %rcx
 1102 0968 488D45C0 		leaq	-64(%rbp), %rax
 1103 096c BA490000 		movl	$73, %edx
 1103      00
 1104 0971 4889CE   		movq	%rcx, %rsi
 1105 0974 4889C7   		movq	%rax, %rdi
 1106 0977 E8000000 		call	_ZN8UnitTest11TestDetailsC1ERKS0_i@PLT
 1106      00
 1107              		.loc 3 73 2 is_stmt 0 discriminator 4
 1108 097c C745BC0A 		movl	$10, -68(%rbp)
 1108      000000
 1109 0983 E8000000 		call	_ZN8UnitTest11CurrentTest7ResultsEv@PLT
 1109      00
 1110 0988 488B00   		movq	(%rax), %rax
 1111 098b 488D4DC0 		leaq	-64(%rbp), %rcx
 1112 098f 488D55BA 		leaq	-70(%rbp), %rdx
 1113 0993 488D75BC 		leaq	-68(%rbp), %rsi
 1114 0997 4889C7   		movq	%rax, %rdi
 1115 099a E8000000 		call	_ZN8UnitTest10CheckEqualIihEEvRNS_11TestResultsERKT_RKT0_RKNS_11TestDetailsE
 1115      00
 1116              	.LEHE54:
 1117              	.L111:
  74:testConv.cpp  **** 	status = getHexNibble('b', &nibble);
 1118              		.loc 3 74 23 is_stmt 1
 1119 099f 488D45BA 		leaq	-70(%rbp), %rax
 1120 09a3 4889C6   		movq	%rax, %rsi
 1121 09a6 BF620000 		movl	$98, %edi
 1121      00
 1122              	.LEHB55:
 1123 09ab E8000000 		call	getHexNibble@PLT
 1123      00
 1124              	.LEHE55:
 1125              		.loc 3 74 9
 1126 09b0 8845BB   		movb	%al, -69(%rbp)
 1127              	.LEHB56:
  75:testConv.cpp  **** 	CHECK_EQUAL(false, status);
 1128              		.loc 3 75 2
 1129 09b3 E8000000 		call	_ZN8UnitTest11CurrentTest7DetailsEv@PLT
 1129      00
 1130 09b8 488B08   		movq	(%rax), %rcx
 1131 09bb 488D45C0 		leaq	-64(%rbp), %rax
 1132 09bf BA4B0000 		movl	$75, %edx
 1132      00
 1133 09c4 4889CE   		movq	%rcx, %rsi
 1134 09c7 4889C7   		movq	%rax, %rdi
 1135 09ca E8000000 		call	_ZN8UnitTest11TestDetailsC1ERKS0_i@PLT
 1135      00
 1136              		.loc 3 75 2 is_stmt 0 discriminator 4
 1137 09cf C645BC00 		movb	$0, -68(%rbp)
 1138 09d3 E8000000 		call	_ZN8UnitTest11CurrentTest7ResultsEv@PLT
 1138      00
 1139 09d8 488B00   		movq	(%rax), %rax
 1140 09db 488D4DC0 		leaq	-64(%rbp), %rcx
 1141 09df 488D55BB 		leaq	-69(%rbp), %rdx
 1142 09e3 488D75BC 		leaq	-68(%rbp), %rsi
 1143 09e7 4889C7   		movq	%rax, %rdi
 1144 09ea E8000000 		call	_ZN8UnitTest10CheckEqualIbbEEvRNS_11TestResultsERKT_RKT0_RKNS_11TestDetailsE
 1144      00
 1145              	.LEHE56:
 1146              	.L114:
 1147              	.LEHB57:
  76:testConv.cpp  **** 	CHECK_EQUAL(11, nibble);
 1148              		.loc 3 76 2 is_stmt 1
 1149 09ef E8000000 		call	_ZN8UnitTest11CurrentTest7DetailsEv@PLT
 1149      00
 1150 09f4 488B08   		movq	(%rax), %rcx
 1151 09f7 488D45C0 		leaq	-64(%rbp), %rax
 1152 09fb BA4C0000 		movl	$76, %edx
 1152      00
 1153 0a00 4889CE   		movq	%rcx, %rsi
 1154 0a03 4889C7   		movq	%rax, %rdi
 1155 0a06 E8000000 		call	_ZN8UnitTest11TestDetailsC1ERKS0_i@PLT
 1155      00
 1156              		.loc 3 76 2 is_stmt 0 discriminator 4
 1157 0a0b C745BC0B 		movl	$11, -68(%rbp)
 1157      000000
 1158 0a12 E8000000 		call	_ZN8UnitTest11CurrentTest7ResultsEv@PLT
 1158      00
 1159 0a17 488B00   		movq	(%rax), %rax
 1160 0a1a 488D4DC0 		leaq	-64(%rbp), %rcx
 1161 0a1e 488D55BA 		leaq	-70(%rbp), %rdx
 1162 0a22 488D75BC 		leaq	-68(%rbp), %rsi
 1163 0a26 4889C7   		movq	%rax, %rdi
 1164 0a29 E8000000 		call	_ZN8UnitTest10CheckEqualIihEEvRNS_11TestResultsERKT_RKT0_RKNS_11TestDetailsE
 1164      00
 1165              	.LEHE57:
 1166              	.L117:
  77:testConv.cpp  **** 	status = getHexNibble('c', &nibble);
 1167              		.loc 3 77 23 is_stmt 1
 1168 0a2e 488D45BA 		leaq	-70(%rbp), %rax
 1169 0a32 4889C6   		movq	%rax, %rsi
 1170 0a35 BF630000 		movl	$99, %edi
 1170      00
 1171              	.LEHB58:
 1172 0a3a E8000000 		call	getHexNibble@PLT
 1172      00
 1173              	.LEHE58:
 1174              		.loc 3 77 9
 1175 0a3f 8845BB   		movb	%al, -69(%rbp)
 1176              	.LEHB59:
  78:testConv.cpp  **** 	CHECK_EQUAL(false, status);
 1177              		.loc 3 78 2
 1178 0a42 E8000000 		call	_ZN8UnitTest11CurrentTest7DetailsEv@PLT
 1178      00
 1179 0a47 488B08   		movq	(%rax), %rcx
 1180 0a4a 488D45C0 		leaq	-64(%rbp), %rax
 1181 0a4e BA4E0000 		movl	$78, %edx
 1181      00
 1182 0a53 4889CE   		movq	%rcx, %rsi
 1183 0a56 4889C7   		movq	%rax, %rdi
 1184 0a59 E8000000 		call	_ZN8UnitTest11TestDetailsC1ERKS0_i@PLT
 1184      00
 1185              		.loc 3 78 2 is_stmt 0 discriminator 4
 1186 0a5e C645BC00 		movb	$0, -68(%rbp)
 1187 0a62 E8000000 		call	_ZN8UnitTest11CurrentTest7ResultsEv@PLT
 1187      00
 1188 0a67 488B00   		movq	(%rax), %rax
 1189 0a6a 488D4DC0 		leaq	-64(%rbp), %rcx
 1190 0a6e 488D55BB 		leaq	-69(%rbp), %rdx
 1191 0a72 488D75BC 		leaq	-68(%rbp), %rsi
 1192 0a76 4889C7   		movq	%rax, %rdi
 1193 0a79 E8000000 		call	_ZN8UnitTest10CheckEqualIbbEEvRNS_11TestResultsERKT_RKT0_RKNS_11TestDetailsE
 1193      00
 1194              	.LEHE59:
 1195              	.L120:
 1196              	.LEHB60:
  79:testConv.cpp  **** 	CHECK_EQUAL(12, nibble);
 1197              		.loc 3 79 2 is_stmt 1
 1198 0a7e E8000000 		call	_ZN8UnitTest11CurrentTest7DetailsEv@PLT
 1198      00
 1199 0a83 488B08   		movq	(%rax), %rcx
 1200 0a86 488D45C0 		leaq	-64(%rbp), %rax
 1201 0a8a BA4F0000 		movl	$79, %edx
 1201      00
 1202 0a8f 4889CE   		movq	%rcx, %rsi
 1203 0a92 4889C7   		movq	%rax, %rdi
 1204 0a95 E8000000 		call	_ZN8UnitTest11TestDetailsC1ERKS0_i@PLT
 1204      00
 1205              		.loc 3 79 2 is_stmt 0 discriminator 4
 1206 0a9a C745BC0C 		movl	$12, -68(%rbp)
 1206      000000
 1207 0aa1 E8000000 		call	_ZN8UnitTest11CurrentTest7ResultsEv@PLT
 1207      00
 1208 0aa6 488B00   		movq	(%rax), %rax
 1209 0aa9 488D4DC0 		leaq	-64(%rbp), %rcx
 1210 0aad 488D55BA 		leaq	-70(%rbp), %rdx
 1211 0ab1 488D75BC 		leaq	-68(%rbp), %rsi
 1212 0ab5 4889C7   		movq	%rax, %rdi
 1213 0ab8 E8000000 		call	_ZN8UnitTest10CheckEqualIihEEvRNS_11TestResultsERKT_RKT0_RKNS_11TestDetailsE
 1213      00
 1214              	.LEHE60:
 1215              	.L123:
  80:testConv.cpp  **** 	status = getHexNibble('d', &nibble);
 1216              		.loc 3 80 23 is_stmt 1
 1217 0abd 488D45BA 		leaq	-70(%rbp), %rax
 1218 0ac1 4889C6   		movq	%rax, %rsi
 1219 0ac4 BF640000 		movl	$100, %edi
 1219      00
 1220              	.LEHB61:
 1221 0ac9 E8000000 		call	getHexNibble@PLT
 1221      00
 1222              	.LEHE61:
 1223              		.loc 3 80 9
 1224 0ace 8845BB   		movb	%al, -69(%rbp)
 1225              	.LEHB62:
  81:testConv.cpp  **** 	CHECK_EQUAL(false, status);
 1226              		.loc 3 81 2
 1227 0ad1 E8000000 		call	_ZN8UnitTest11CurrentTest7DetailsEv@PLT
 1227      00
 1228 0ad6 488B08   		movq	(%rax), %rcx
 1229 0ad9 488D45C0 		leaq	-64(%rbp), %rax
 1230 0add BA510000 		movl	$81, %edx
 1230      00
 1231 0ae2 4889CE   		movq	%rcx, %rsi
 1232 0ae5 4889C7   		movq	%rax, %rdi
 1233 0ae8 E8000000 		call	_ZN8UnitTest11TestDetailsC1ERKS0_i@PLT
 1233      00
 1234              		.loc 3 81 2 is_stmt 0 discriminator 4
 1235 0aed C645BC00 		movb	$0, -68(%rbp)
 1236 0af1 E8000000 		call	_ZN8UnitTest11CurrentTest7ResultsEv@PLT
 1236      00
 1237 0af6 488B00   		movq	(%rax), %rax
 1238 0af9 488D4DC0 		leaq	-64(%rbp), %rcx
 1239 0afd 488D55BB 		leaq	-69(%rbp), %rdx
 1240 0b01 488D75BC 		leaq	-68(%rbp), %rsi
 1241 0b05 4889C7   		movq	%rax, %rdi
 1242 0b08 E8000000 		call	_ZN8UnitTest10CheckEqualIbbEEvRNS_11TestResultsERKT_RKT0_RKNS_11TestDetailsE
 1242      00
 1243              	.LEHE62:
 1244              	.L126:
 1245              	.LEHB63:
  82:testConv.cpp  **** 	CHECK_EQUAL(13, nibble);
 1246              		.loc 3 82 2 is_stmt 1
 1247 0b0d E8000000 		call	_ZN8UnitTest11CurrentTest7DetailsEv@PLT
 1247      00
 1248 0b12 488B08   		movq	(%rax), %rcx
 1249 0b15 488D45C0 		leaq	-64(%rbp), %rax
 1250 0b19 BA520000 		movl	$82, %edx
 1250      00
 1251 0b1e 4889CE   		movq	%rcx, %rsi
 1252 0b21 4889C7   		movq	%rax, %rdi
 1253 0b24 E8000000 		call	_ZN8UnitTest11TestDetailsC1ERKS0_i@PLT
 1253      00
 1254              		.loc 3 82 2 is_stmt 0 discriminator 4
 1255 0b29 C745BC0D 		movl	$13, -68(%rbp)
 1255      000000
 1256 0b30 E8000000 		call	_ZN8UnitTest11CurrentTest7ResultsEv@PLT
 1256      00
 1257 0b35 488B00   		movq	(%rax), %rax
 1258 0b38 488D4DC0 		leaq	-64(%rbp), %rcx
 1259 0b3c 488D55BA 		leaq	-70(%rbp), %rdx
 1260 0b40 488D75BC 		leaq	-68(%rbp), %rsi
 1261 0b44 4889C7   		movq	%rax, %rdi
 1262 0b47 E8000000 		call	_ZN8UnitTest10CheckEqualIihEEvRNS_11TestResultsERKT_RKT0_RKNS_11TestDetailsE
 1262      00
 1263              	.LEHE63:
 1264              	.L129:
  83:testConv.cpp  **** 	status = getHexNibble('e', &nibble);
 1265              		.loc 3 83 23 is_stmt 1
 1266 0b4c 488D45BA 		leaq	-70(%rbp), %rax
 1267 0b50 4889C6   		movq	%rax, %rsi
 1268 0b53 BF650000 		movl	$101, %edi
 1268      00
 1269              	.LEHB64:
 1270 0b58 E8000000 		call	getHexNibble@PLT
 1270      00
 1271              	.LEHE64:
 1272              		.loc 3 83 9
 1273 0b5d 8845BB   		movb	%al, -69(%rbp)
 1274              	.LEHB65:
  84:testConv.cpp  **** 	CHECK_EQUAL(false, status);
 1275              		.loc 3 84 2
 1276 0b60 E8000000 		call	_ZN8UnitTest11CurrentTest7DetailsEv@PLT
 1276      00
 1277 0b65 488B08   		movq	(%rax), %rcx
 1278 0b68 488D45C0 		leaq	-64(%rbp), %rax
 1279 0b6c BA540000 		movl	$84, %edx
 1279      00
 1280 0b71 4889CE   		movq	%rcx, %rsi
 1281 0b74 4889C7   		movq	%rax, %rdi
 1282 0b77 E8000000 		call	_ZN8UnitTest11TestDetailsC1ERKS0_i@PLT
 1282      00
 1283              		.loc 3 84 2 is_stmt 0 discriminator 4
 1284 0b7c C645BC00 		movb	$0, -68(%rbp)
 1285 0b80 E8000000 		call	_ZN8UnitTest11CurrentTest7ResultsEv@PLT
 1285      00
 1286 0b85 488B00   		movq	(%rax), %rax
 1287 0b88 488D4DC0 		leaq	-64(%rbp), %rcx
 1288 0b8c 488D55BB 		leaq	-69(%rbp), %rdx
 1289 0b90 488D75BC 		leaq	-68(%rbp), %rsi
 1290 0b94 4889C7   		movq	%rax, %rdi
 1291 0b97 E8000000 		call	_ZN8UnitTest10CheckEqualIbbEEvRNS_11TestResultsERKT_RKT0_RKNS_11TestDetailsE
 1291      00
 1292              	.LEHE65:
 1293              	.L132:
 1294              	.LEHB66:
  85:testConv.cpp  **** 	CHECK_EQUAL(14, nibble);
 1295              		.loc 3 85 2 is_stmt 1
 1296 0b9c E8000000 		call	_ZN8UnitTest11CurrentTest7DetailsEv@PLT
 1296      00
 1297 0ba1 488B08   		movq	(%rax), %rcx
 1298 0ba4 488D45C0 		leaq	-64(%rbp), %rax
 1299 0ba8 BA550000 		movl	$85, %edx
 1299      00
 1300 0bad 4889CE   		movq	%rcx, %rsi
 1301 0bb0 4889C7   		movq	%rax, %rdi
 1302 0bb3 E8000000 		call	_ZN8UnitTest11TestDetailsC1ERKS0_i@PLT
 1302      00
 1303              		.loc 3 85 2 is_stmt 0 discriminator 4
 1304 0bb8 C745BC0E 		movl	$14, -68(%rbp)
 1304      000000
 1305 0bbf E8000000 		call	_ZN8UnitTest11CurrentTest7ResultsEv@PLT
 1305      00
 1306 0bc4 488B00   		movq	(%rax), %rax
 1307 0bc7 488D4DC0 		leaq	-64(%rbp), %rcx
 1308 0bcb 488D55BA 		leaq	-70(%rbp), %rdx
 1309 0bcf 488D75BC 		leaq	-68(%rbp), %rsi
 1310 0bd3 4889C7   		movq	%rax, %rdi
 1311 0bd6 E8000000 		call	_ZN8UnitTest10CheckEqualIihEEvRNS_11TestResultsERKT_RKT0_RKNS_11TestDetailsE
 1311      00
 1312              	.LEHE66:
 1313              	.L135:
  86:testConv.cpp  **** 	status = getHexNibble('f', &nibble);
 1314              		.loc 3 86 23 is_stmt 1
 1315 0bdb 488D45BA 		leaq	-70(%rbp), %rax
 1316 0bdf 4889C6   		movq	%rax, %rsi
 1317 0be2 BF660000 		movl	$102, %edi
 1317      00
 1318              	.LEHB67:
 1319 0be7 E8000000 		call	getHexNibble@PLT
 1319      00
 1320              	.LEHE67:
 1321              		.loc 3 86 9
 1322 0bec 8845BB   		movb	%al, -69(%rbp)
 1323              	.LEHB68:
  87:testConv.cpp  **** 	CHECK_EQUAL(false, status);
 1324              		.loc 3 87 2
 1325 0bef E8000000 		call	_ZN8UnitTest11CurrentTest7DetailsEv@PLT
 1325      00
 1326 0bf4 488B08   		movq	(%rax), %rcx
 1327 0bf7 488D45C0 		leaq	-64(%rbp), %rax
 1328 0bfb BA570000 		movl	$87, %edx
 1328      00
 1329 0c00 4889CE   		movq	%rcx, %rsi
 1330 0c03 4889C7   		movq	%rax, %rdi
 1331 0c06 E8000000 		call	_ZN8UnitTest11TestDetailsC1ERKS0_i@PLT
 1331      00
 1332              		.loc 3 87 2 is_stmt 0 discriminator 4
 1333 0c0b C645BC00 		movb	$0, -68(%rbp)
 1334 0c0f E8000000 		call	_ZN8UnitTest11CurrentTest7ResultsEv@PLT
 1334      00
 1335 0c14 488B00   		movq	(%rax), %rax
 1336 0c17 488D4DC0 		leaq	-64(%rbp), %rcx
 1337 0c1b 488D55BB 		leaq	-69(%rbp), %rdx
 1338 0c1f 488D75BC 		leaq	-68(%rbp), %rsi
 1339 0c23 4889C7   		movq	%rax, %rdi
 1340 0c26 E8000000 		call	_ZN8UnitTest10CheckEqualIbbEEvRNS_11TestResultsERKT_RKT0_RKNS_11TestDetailsE
 1340      00
 1341              	.LEHE68:
 1342              	.L138:
 1343              	.LEHB69:
  88:testConv.cpp  **** 	CHECK_EQUAL(15, nibble);
 1344              		.loc 3 88 2 is_stmt 1
 1345 0c2b E8000000 		call	_ZN8UnitTest11CurrentTest7DetailsEv@PLT
 1345      00
 1346 0c30 488B08   		movq	(%rax), %rcx
 1347 0c33 488D45C0 		leaq	-64(%rbp), %rax
 1348 0c37 BA580000 		movl	$88, %edx
 1348      00
 1349 0c3c 4889CE   		movq	%rcx, %rsi
 1350 0c3f 4889C7   		movq	%rax, %rdi
 1351 0c42 E8000000 		call	_ZN8UnitTest11TestDetailsC1ERKS0_i@PLT
 1351      00
 1352              		.loc 3 88 2 is_stmt 0 discriminator 4
 1353 0c47 C745BC0F 		movl	$15, -68(%rbp)
 1353      000000
 1354 0c4e E8000000 		call	_ZN8UnitTest11CurrentTest7ResultsEv@PLT
 1354      00
 1355 0c53 488B00   		movq	(%rax), %rax
 1356 0c56 488D4DC0 		leaq	-64(%rbp), %rcx
 1357 0c5a 488D55BA 		leaq	-70(%rbp), %rdx
 1358 0c5e 488D75BC 		leaq	-68(%rbp), %rsi
 1359 0c62 4889C7   		movq	%rax, %rdi
 1360 0c65 E8000000 		call	_ZN8UnitTest10CheckEqualIihEEvRNS_11TestResultsERKT_RKT0_RKNS_11TestDetailsE
 1360      00
 1361              	.LEHE69:
 1362              	.L141:
  89:testConv.cpp  **** 	status = getHexNibble('.', &nibble);
 1363              		.loc 3 89 23 is_stmt 1
 1364 0c6a 488D45BA 		leaq	-70(%rbp), %rax
 1365 0c6e 4889C6   		movq	%rax, %rsi
 1366 0c71 BF2E0000 		movl	$46, %edi
 1366      00
 1367              	.LEHB70:
 1368 0c76 E8000000 		call	getHexNibble@PLT
 1368      00
 1369              	.LEHE70:
 1370              		.loc 3 89 9
 1371 0c7b 8845BB   		movb	%al, -69(%rbp)
 1372              	.LEHB71:
  90:testConv.cpp  **** 	CHECK_EQUAL(true, status);
 1373              		.loc 3 90 2
 1374 0c7e E8000000 		call	_ZN8UnitTest11CurrentTest7DetailsEv@PLT
 1374      00
 1375 0c83 488B08   		movq	(%rax), %rcx
 1376 0c86 488D45C0 		leaq	-64(%rbp), %rax
 1377 0c8a BA5A0000 		movl	$90, %edx
 1377      00
 1378 0c8f 4889CE   		movq	%rcx, %rsi
 1379 0c92 4889C7   		movq	%rax, %rdi
 1380 0c95 E8000000 		call	_ZN8UnitTest11TestDetailsC1ERKS0_i@PLT
 1380      00
 1381              		.loc 3 90 2 is_stmt 0 discriminator 4
 1382 0c9a C645BC01 		movb	$1, -68(%rbp)
 1383 0c9e E8000000 		call	_ZN8UnitTest11CurrentTest7ResultsEv@PLT
 1383      00
 1384 0ca3 488B00   		movq	(%rax), %rax
 1385 0ca6 488D4DC0 		leaq	-64(%rbp), %rcx
 1386 0caa 488D55BB 		leaq	-69(%rbp), %rdx
 1387 0cae 488D75BC 		leaq	-68(%rbp), %rsi
 1388 0cb2 4889C7   		movq	%rax, %rdi
 1389 0cb5 E8000000 		call	_ZN8UnitTest10CheckEqualIbbEEvRNS_11TestResultsERKT_RKT0_RKNS_11TestDetailsE
 1389      00
 1390              	.LEHE71:
  91:testConv.cpp  **** }
 1391              		.loc 3 91 1 is_stmt 1
 1392 0cba E9181200 		jmp	.L10
 1392      00
 1393              	.L147:
 1394 0cbf F30F1EFA 		endbr64
  24:testConv.cpp  **** 	CHECK_EQUAL(0, nibble);
 1395              		.loc 3 24 2
 1396 0cc3 4889C7   		movq	%rax, %rdi
 1397 0cc6 E8000000 		call	__cxa_begin_catch@PLT
 1397      00
 1398              	.LEHB72:
 1399 0ccb E8000000 		call	_ZN8UnitTest11CurrentTest7ResultsEv@PLT
 1399      00
  24:testConv.cpp  **** 	CHECK_EQUAL(0, nibble);
 1400              		.loc 3 24 2 is_stmt 0 discriminator 3
 1401 0cd0 488B18   		movq	(%rax), %rbx
 1402 0cd3 E8000000 		call	_ZN8UnitTest11CurrentTest7DetailsEv@PLT
 1402      00
  24:testConv.cpp  **** 	CHECK_EQUAL(0, nibble);
 1403              		.loc 3 24 2 discriminator 11
 1404 0cd8 488B08   		movq	(%rax), %rcx
 1405 0cdb 488D45C0 		leaq	-64(%rbp), %rax
 1406 0cdf BA180000 		movl	$24, %edx
 1406      00
 1407 0ce4 4889CE   		movq	%rcx, %rsi
 1408 0ce7 4889C7   		movq	%rax, %rdi
 1409 0cea E8000000 		call	_ZN8UnitTest11TestDetailsC1ERKS0_i@PLT
 1409      00
  24:testConv.cpp  **** 	CHECK_EQUAL(0, nibble);
 1410              		.loc 3 24 2 discriminator 15
 1411 0cef 488D45C0 		leaq	-64(%rbp), %rax
 1412 0cf3 488D1500 		leaq	.LC3(%rip), %rdx
 1412      000000
 1413 0cfa 4889C6   		movq	%rax, %rsi
 1414 0cfd 4889DF   		movq	%rbx, %rdi
 1415 0d00 E8000000 		call	_ZN8UnitTest11TestResults13OnTestFailureERKNS_11TestDetailsEPKc@PLT
 1415      00
 1416              	.LEHE72:
 1417              	.LEHB73:
  24:testConv.cpp  **** 	CHECK_EQUAL(0, nibble);
 1418              		.loc 3 24 2 discriminator 17
 1419 0d05 E8000000 		call	__cxa_end_catch@PLT
 1419      00
 1420              	.LEHE73:
 1421 0d0a E961F3FF 		jmp	.L12
 1421      FF
 1422              	.L148:
 1423 0d0f F30F1EFA 		endbr64
  24:testConv.cpp  **** 	CHECK_EQUAL(0, nibble);
 1424              		.loc 3 24 2
 1425 0d13 4889C3   		movq	%rax, %rbx
 1426 0d16 E8000000 		call	__cxa_end_catch@PLT
 1426      00
 1427 0d1b 4889D8   		movq	%rbx, %rax
 1428 0d1e 4889C7   		movq	%rax, %rdi
 1429              	.LEHB74:
 1430 0d21 E8000000 		call	_Unwind_Resume@PLT
 1430      00
 1431              	.LEHE74:
 1432              	.L149:
 1433 0d26 F30F1EFA 		endbr64
  25:testConv.cpp  **** 	status = getHexNibble('1', &nibble);
 1434              		.loc 3 25 2 is_stmt 1
 1435 0d2a 4889C7   		movq	%rax, %rdi
 1436 0d2d E8000000 		call	__cxa_begin_catch@PLT
 1436      00
 1437              	.LEHB75:
 1438 0d32 E8000000 		call	_ZN8UnitTest11CurrentTest7ResultsEv@PLT
 1438      00
  25:testConv.cpp  **** 	status = getHexNibble('1', &nibble);
 1439              		.loc 3 25 2 is_stmt 0 discriminator 3
 1440 0d37 488B18   		movq	(%rax), %rbx
 1441 0d3a E8000000 		call	_ZN8UnitTest11CurrentTest7DetailsEv@PLT
 1441      00
  25:testConv.cpp  **** 	status = getHexNibble('1', &nibble);
 1442              		.loc 3 25 2 discriminator 11
 1443 0d3f 488B08   		movq	(%rax), %rcx
 1444 0d42 488D45C0 		leaq	-64(%rbp), %rax
 1445 0d46 BA190000 		movl	$25, %edx
 1445      00
 1446 0d4b 4889CE   		movq	%rcx, %rsi
 1447 0d4e 4889C7   		movq	%rax, %rdi
 1448 0d51 E8000000 		call	_ZN8UnitTest11TestDetailsC1ERKS0_i@PLT
 1448      00
  25:testConv.cpp  **** 	status = getHexNibble('1', &nibble);
 1449              		.loc 3 25 2 discriminator 15
 1450 0d56 488D45C0 		leaq	-64(%rbp), %rax
 1451 0d5a 488D1500 		leaq	.LC4(%rip), %rdx
 1451      000000
 1452 0d61 4889C6   		movq	%rax, %rsi
 1453 0d64 4889DF   		movq	%rbx, %rdi
 1454 0d67 E8000000 		call	_ZN8UnitTest11TestResults13OnTestFailureERKNS_11TestDetailsEPKc@PLT
 1454      00
 1455              	.LEHE75:
 1456              	.LEHB76:
  25:testConv.cpp  **** 	status = getHexNibble('1', &nibble);
 1457              		.loc 3 25 2 discriminator 17
 1458 0d6c E8000000 		call	__cxa_end_catch@PLT
 1458      00
 1459              	.LEHE76:
 1460 0d71 E939F3FF 		jmp	.L15
 1460      FF
 1461              	.L150:
 1462 0d76 F30F1EFA 		endbr64
  25:testConv.cpp  **** 	status = getHexNibble('1', &nibble);
 1463              		.loc 3 25 2
 1464 0d7a 4889C3   		movq	%rax, %rbx
 1465 0d7d E8000000 		call	__cxa_end_catch@PLT
 1465      00
 1466 0d82 4889D8   		movq	%rbx, %rax
 1467 0d85 4889C7   		movq	%rax, %rdi
 1468              	.LEHB77:
 1469 0d88 E8000000 		call	_Unwind_Resume@PLT
 1469      00
 1470              	.LEHE77:
 1471              	.L151:
 1472 0d8d F30F1EFA 		endbr64
  27:testConv.cpp  **** 	CHECK_EQUAL(1, nibble);
 1473              		.loc 3 27 2 is_stmt 1
 1474 0d91 4889C7   		movq	%rax, %rdi
 1475 0d94 E8000000 		call	__cxa_begin_catch@PLT
 1475      00
 1476              	.LEHB78:
 1477 0d99 E8000000 		call	_ZN8UnitTest11CurrentTest7ResultsEv@PLT
 1477      00
  27:testConv.cpp  **** 	CHECK_EQUAL(1, nibble);
 1478              		.loc 3 27 2 is_stmt 0 discriminator 3
 1479 0d9e 488B18   		movq	(%rax), %rbx
 1480 0da1 E8000000 		call	_ZN8UnitTest11CurrentTest7DetailsEv@PLT
 1480      00
  27:testConv.cpp  **** 	CHECK_EQUAL(1, nibble);
 1481              		.loc 3 27 2 discriminator 11
 1482 0da6 488B08   		movq	(%rax), %rcx
 1483 0da9 488D45C0 		leaq	-64(%rbp), %rax
 1484 0dad BA1B0000 		movl	$27, %edx
 1484      00
 1485 0db2 4889CE   		movq	%rcx, %rsi
 1486 0db5 4889C7   		movq	%rax, %rdi
 1487 0db8 E8000000 		call	_ZN8UnitTest11TestDetailsC1ERKS0_i@PLT
 1487      00
  27:testConv.cpp  **** 	CHECK_EQUAL(1, nibble);
 1488              		.loc 3 27 2 discriminator 15
 1489 0dbd 488D45C0 		leaq	-64(%rbp), %rax
 1490 0dc1 488D1500 		leaq	.LC3(%rip), %rdx
 1490      000000
 1491 0dc8 4889C6   		movq	%rax, %rsi
 1492 0dcb 4889DF   		movq	%rbx, %rdi
 1493 0dce E8000000 		call	_ZN8UnitTest11TestResults13OnTestFailureERKNS_11TestDetailsEPKc@PLT
 1493      00
 1494              	.LEHE78:
 1495              	.LEHB79:
  27:testConv.cpp  **** 	CHECK_EQUAL(1, nibble);
 1496              		.loc 3 27 2 discriminator 17
 1497 0dd3 E8000000 		call	__cxa_end_catch@PLT
 1497      00
 1498              	.LEHE79:
 1499 0dd8 E922F3FF 		jmp	.L18
 1499      FF
 1500              	.L152:
 1501 0ddd F30F1EFA 		endbr64
  27:testConv.cpp  **** 	CHECK_EQUAL(1, nibble);
 1502              		.loc 3 27 2
 1503 0de1 4889C3   		movq	%rax, %rbx
 1504 0de4 E8000000 		call	__cxa_end_catch@PLT
 1504      00
 1505 0de9 4889D8   		movq	%rbx, %rax
 1506 0dec 4889C7   		movq	%rax, %rdi
 1507              	.LEHB80:
 1508 0def E8000000 		call	_Unwind_Resume@PLT
 1508      00
 1509              	.LEHE80:
 1510              	.L153:
 1511 0df4 F30F1EFA 		endbr64
  28:testConv.cpp  **** 	status = getHexNibble('2', &nibble);
 1512              		.loc 3 28 2 is_stmt 1
 1513 0df8 4889C7   		movq	%rax, %rdi
 1514 0dfb E8000000 		call	__cxa_begin_catch@PLT
 1514      00
 1515              	.LEHB81:
 1516 0e00 E8000000 		call	_ZN8UnitTest11CurrentTest7ResultsEv@PLT
 1516      00
  28:testConv.cpp  **** 	status = getHexNibble('2', &nibble);
 1517              		.loc 3 28 2 is_stmt 0 discriminator 3
 1518 0e05 488B18   		movq	(%rax), %rbx
 1519 0e08 E8000000 		call	_ZN8UnitTest11CurrentTest7DetailsEv@PLT
 1519      00
  28:testConv.cpp  **** 	status = getHexNibble('2', &nibble);
 1520              		.loc 3 28 2 discriminator 11
 1521 0e0d 488B08   		movq	(%rax), %rcx
 1522 0e10 488D45C0 		leaq	-64(%rbp), %rax
 1523 0e14 BA1C0000 		movl	$28, %edx
 1523      00
 1524 0e19 4889CE   		movq	%rcx, %rsi
 1525 0e1c 4889C7   		movq	%rax, %rdi
 1526 0e1f E8000000 		call	_ZN8UnitTest11TestDetailsC1ERKS0_i@PLT
 1526      00
  28:testConv.cpp  **** 	status = getHexNibble('2', &nibble);
 1527              		.loc 3 28 2 discriminator 15
 1528 0e24 488D45C0 		leaq	-64(%rbp), %rax
 1529 0e28 488D1500 		leaq	.LC5(%rip), %rdx
 1529      000000
 1530 0e2f 4889C6   		movq	%rax, %rsi
 1531 0e32 4889DF   		movq	%rbx, %rdi
 1532 0e35 E8000000 		call	_ZN8UnitTest11TestResults13OnTestFailureERKNS_11TestDetailsEPKc@PLT
 1532      00
 1533              	.LEHE81:
 1534              	.LEHB82:
  28:testConv.cpp  **** 	status = getHexNibble('2', &nibble);
 1535              		.loc 3 28 2 discriminator 17
 1536 0e3a E8000000 		call	__cxa_end_catch@PLT
 1536      00
 1537              	.LEHE82:
 1538 0e3f E9FAF2FF 		jmp	.L21
 1538      FF
 1539              	.L154:
 1540 0e44 F30F1EFA 		endbr64
  28:testConv.cpp  **** 	status = getHexNibble('2', &nibble);
 1541              		.loc 3 28 2
 1542 0e48 4889C3   		movq	%rax, %rbx
 1543 0e4b E8000000 		call	__cxa_end_catch@PLT
 1543      00
 1544 0e50 4889D8   		movq	%rbx, %rax
 1545 0e53 4889C7   		movq	%rax, %rdi
 1546              	.LEHB83:
 1547 0e56 E8000000 		call	_Unwind_Resume@PLT
 1547      00
 1548              	.LEHE83:
 1549              	.L155:
 1550 0e5b F30F1EFA 		endbr64
  30:testConv.cpp  **** 	CHECK_EQUAL(2, nibble);
 1551              		.loc 3 30 2 is_stmt 1
 1552 0e5f 4889C7   		movq	%rax, %rdi
 1553 0e62 E8000000 		call	__cxa_begin_catch@PLT
 1553      00
 1554              	.LEHB84:
 1555 0e67 E8000000 		call	_ZN8UnitTest11CurrentTest7ResultsEv@PLT
 1555      00
  30:testConv.cpp  **** 	CHECK_EQUAL(2, nibble);
 1556              		.loc 3 30 2 is_stmt 0 discriminator 3
 1557 0e6c 488B18   		movq	(%rax), %rbx
 1558 0e6f E8000000 		call	_ZN8UnitTest11CurrentTest7DetailsEv@PLT
 1558      00
  30:testConv.cpp  **** 	CHECK_EQUAL(2, nibble);
 1559              		.loc 3 30 2 discriminator 11
 1560 0e74 488B08   		movq	(%rax), %rcx
 1561 0e77 488D45C0 		leaq	-64(%rbp), %rax
 1562 0e7b BA1E0000 		movl	$30, %edx
 1562      00
 1563 0e80 4889CE   		movq	%rcx, %rsi
 1564 0e83 4889C7   		movq	%rax, %rdi
 1565 0e86 E8000000 		call	_ZN8UnitTest11TestDetailsC1ERKS0_i@PLT
 1565      00
  30:testConv.cpp  **** 	CHECK_EQUAL(2, nibble);
 1566              		.loc 3 30 2 discriminator 15
 1567 0e8b 488D45C0 		leaq	-64(%rbp), %rax
 1568 0e8f 488D1500 		leaq	.LC3(%rip), %rdx
 1568      000000
 1569 0e96 4889C6   		movq	%rax, %rsi
 1570 0e99 4889DF   		movq	%rbx, %rdi
 1571 0e9c E8000000 		call	_ZN8UnitTest11TestResults13OnTestFailureERKNS_11TestDetailsEPKc@PLT
 1571      00
 1572              	.LEHE84:
 1573              	.LEHB85:
  30:testConv.cpp  **** 	CHECK_EQUAL(2, nibble);
 1574              		.loc 3 30 2 discriminator 17
 1575 0ea1 E8000000 		call	__cxa_end_catch@PLT
 1575      00
 1576              	.LEHE85:
 1577 0ea6 E9E3F2FF 		jmp	.L24
 1577      FF
 1578              	.L156:
 1579 0eab F30F1EFA 		endbr64
  30:testConv.cpp  **** 	CHECK_EQUAL(2, nibble);
 1580              		.loc 3 30 2
 1581 0eaf 4889C3   		movq	%rax, %rbx
 1582 0eb2 E8000000 		call	__cxa_end_catch@PLT
 1582      00
 1583 0eb7 4889D8   		movq	%rbx, %rax
 1584 0eba 4889C7   		movq	%rax, %rdi
 1585              	.LEHB86:
 1586 0ebd E8000000 		call	_Unwind_Resume@PLT
 1586      00
 1587              	.LEHE86:
 1588              	.L157:
 1589 0ec2 F30F1EFA 		endbr64
  31:testConv.cpp  **** 	status = getHexNibble('3', &nibble);
 1590              		.loc 3 31 2 is_stmt 1
 1591 0ec6 4889C7   		movq	%rax, %rdi
 1592 0ec9 E8000000 		call	__cxa_begin_catch@PLT
 1592      00
 1593              	.LEHB87:
 1594 0ece E8000000 		call	_ZN8UnitTest11CurrentTest7ResultsEv@PLT
 1594      00
  31:testConv.cpp  **** 	status = getHexNibble('3', &nibble);
 1595              		.loc 3 31 2 is_stmt 0 discriminator 3
 1596 0ed3 488B18   		movq	(%rax), %rbx
 1597 0ed6 E8000000 		call	_ZN8UnitTest11CurrentTest7DetailsEv@PLT
 1597      00
  31:testConv.cpp  **** 	status = getHexNibble('3', &nibble);
 1598              		.loc 3 31 2 discriminator 11
 1599 0edb 488B08   		movq	(%rax), %rcx
 1600 0ede 488D45C0 		leaq	-64(%rbp), %rax
 1601 0ee2 BA1F0000 		movl	$31, %edx
 1601      00
 1602 0ee7 4889CE   		movq	%rcx, %rsi
 1603 0eea 4889C7   		movq	%rax, %rdi
 1604 0eed E8000000 		call	_ZN8UnitTest11TestDetailsC1ERKS0_i@PLT
 1604      00
  31:testConv.cpp  **** 	status = getHexNibble('3', &nibble);
 1605              		.loc 3 31 2 discriminator 15
 1606 0ef2 488D45C0 		leaq	-64(%rbp), %rax
 1607 0ef6 488D1500 		leaq	.LC6(%rip), %rdx
 1607      000000
 1608 0efd 4889C6   		movq	%rax, %rsi
 1609 0f00 4889DF   		movq	%rbx, %rdi
 1610 0f03 E8000000 		call	_ZN8UnitTest11TestResults13OnTestFailureERKNS_11TestDetailsEPKc@PLT
 1610      00
 1611              	.LEHE87:
 1612              	.LEHB88:
  31:testConv.cpp  **** 	status = getHexNibble('3', &nibble);
 1613              		.loc 3 31 2 discriminator 17
 1614 0f08 E8000000 		call	__cxa_end_catch@PLT
 1614      00
 1615              	.LEHE88:
 1616 0f0d E9BBF2FF 		jmp	.L27
 1616      FF
 1617              	.L158:
 1618 0f12 F30F1EFA 		endbr64
  31:testConv.cpp  **** 	status = getHexNibble('3', &nibble);
 1619              		.loc 3 31 2
 1620 0f16 4889C3   		movq	%rax, %rbx
 1621 0f19 E8000000 		call	__cxa_end_catch@PLT
 1621      00
 1622 0f1e 4889D8   		movq	%rbx, %rax
 1623 0f21 4889C7   		movq	%rax, %rdi
 1624              	.LEHB89:
 1625 0f24 E8000000 		call	_Unwind_Resume@PLT
 1625      00
 1626              	.LEHE89:
 1627              	.L159:
 1628 0f29 F30F1EFA 		endbr64
  33:testConv.cpp  **** 	CHECK_EQUAL(3, nibble);
 1629              		.loc 3 33 2 is_stmt 1
 1630 0f2d 4889C7   		movq	%rax, %rdi
 1631 0f30 E8000000 		call	__cxa_begin_catch@PLT
 1631      00
 1632              	.LEHB90:
 1633 0f35 E8000000 		call	_ZN8UnitTest11CurrentTest7ResultsEv@PLT
 1633      00
  33:testConv.cpp  **** 	CHECK_EQUAL(3, nibble);
 1634              		.loc 3 33 2 is_stmt 0 discriminator 3
 1635 0f3a 488B18   		movq	(%rax), %rbx
 1636 0f3d E8000000 		call	_ZN8UnitTest11CurrentTest7DetailsEv@PLT
 1636      00
  33:testConv.cpp  **** 	CHECK_EQUAL(3, nibble);
 1637              		.loc 3 33 2 discriminator 11
 1638 0f42 488B08   		movq	(%rax), %rcx
 1639 0f45 488D45C0 		leaq	-64(%rbp), %rax
 1640 0f49 BA210000 		movl	$33, %edx
 1640      00
 1641 0f4e 4889CE   		movq	%rcx, %rsi
 1642 0f51 4889C7   		movq	%rax, %rdi
 1643 0f54 E8000000 		call	_ZN8UnitTest11TestDetailsC1ERKS0_i@PLT
 1643      00
  33:testConv.cpp  **** 	CHECK_EQUAL(3, nibble);
 1644              		.loc 3 33 2 discriminator 15
 1645 0f59 488D45C0 		leaq	-64(%rbp), %rax
 1646 0f5d 488D1500 		leaq	.LC3(%rip), %rdx
 1646      000000
 1647 0f64 4889C6   		movq	%rax, %rsi
 1648 0f67 4889DF   		movq	%rbx, %rdi
 1649 0f6a E8000000 		call	_ZN8UnitTest11TestResults13OnTestFailureERKNS_11TestDetailsEPKc@PLT
 1649      00
 1650              	.LEHE90:
 1651              	.LEHB91:
  33:testConv.cpp  **** 	CHECK_EQUAL(3, nibble);
 1652              		.loc 3 33 2 discriminator 17
 1653 0f6f E8000000 		call	__cxa_end_catch@PLT
 1653      00
 1654              	.LEHE91:
 1655 0f74 E9A4F2FF 		jmp	.L30
 1655      FF
 1656              	.L160:
 1657 0f79 F30F1EFA 		endbr64
  33:testConv.cpp  **** 	CHECK_EQUAL(3, nibble);
 1658              		.loc 3 33 2
 1659 0f7d 4889C3   		movq	%rax, %rbx
 1660 0f80 E8000000 		call	__cxa_end_catch@PLT
 1660      00
 1661 0f85 4889D8   		movq	%rbx, %rax
 1662 0f88 4889C7   		movq	%rax, %rdi
 1663              	.LEHB92:
 1664 0f8b E8000000 		call	_Unwind_Resume@PLT
 1664      00
 1665              	.LEHE92:
 1666              	.L161:
 1667 0f90 F30F1EFA 		endbr64
  34:testConv.cpp  **** 	status = getHexNibble('4', &nibble);
 1668              		.loc 3 34 2 is_stmt 1
 1669 0f94 4889C7   		movq	%rax, %rdi
 1670 0f97 E8000000 		call	__cxa_begin_catch@PLT
 1670      00
 1671              	.LEHB93:
 1672 0f9c E8000000 		call	_ZN8UnitTest11CurrentTest7ResultsEv@PLT
 1672      00
  34:testConv.cpp  **** 	status = getHexNibble('4', &nibble);
 1673              		.loc 3 34 2 is_stmt 0 discriminator 3
 1674 0fa1 488B18   		movq	(%rax), %rbx
 1675 0fa4 E8000000 		call	_ZN8UnitTest11CurrentTest7DetailsEv@PLT
 1675      00
  34:testConv.cpp  **** 	status = getHexNibble('4', &nibble);
 1676              		.loc 3 34 2 discriminator 11
 1677 0fa9 488B08   		movq	(%rax), %rcx
 1678 0fac 488D45C0 		leaq	-64(%rbp), %rax
 1679 0fb0 BA220000 		movl	$34, %edx
 1679      00
 1680 0fb5 4889CE   		movq	%rcx, %rsi
 1681 0fb8 4889C7   		movq	%rax, %rdi
 1682 0fbb E8000000 		call	_ZN8UnitTest11TestDetailsC1ERKS0_i@PLT
 1682      00
  34:testConv.cpp  **** 	status = getHexNibble('4', &nibble);
 1683              		.loc 3 34 2 discriminator 15
 1684 0fc0 488D45C0 		leaq	-64(%rbp), %rax
 1685 0fc4 488D1500 		leaq	.LC7(%rip), %rdx
 1685      000000
 1686 0fcb 4889C6   		movq	%rax, %rsi
 1687 0fce 4889DF   		movq	%rbx, %rdi
 1688 0fd1 E8000000 		call	_ZN8UnitTest11TestResults13OnTestFailureERKNS_11TestDetailsEPKc@PLT
 1688      00
 1689              	.LEHE93:
 1690              	.LEHB94:
  34:testConv.cpp  **** 	status = getHexNibble('4', &nibble);
 1691              		.loc 3 34 2 discriminator 17
 1692 0fd6 E8000000 		call	__cxa_end_catch@PLT
 1692      00
 1693              	.LEHE94:
 1694 0fdb E97CF2FF 		jmp	.L33
 1694      FF
 1695              	.L162:
 1696 0fe0 F30F1EFA 		endbr64
  34:testConv.cpp  **** 	status = getHexNibble('4', &nibble);
 1697              		.loc 3 34 2
 1698 0fe4 4889C3   		movq	%rax, %rbx
 1699 0fe7 E8000000 		call	__cxa_end_catch@PLT
 1699      00
 1700 0fec 4889D8   		movq	%rbx, %rax
 1701 0fef 4889C7   		movq	%rax, %rdi
 1702              	.LEHB95:
 1703 0ff2 E8000000 		call	_Unwind_Resume@PLT
 1703      00
 1704              	.LEHE95:
 1705              	.L163:
 1706 0ff7 F30F1EFA 		endbr64
  36:testConv.cpp  **** 	CHECK_EQUAL(4, nibble);
 1707              		.loc 3 36 2 is_stmt 1
 1708 0ffb 4889C7   		movq	%rax, %rdi
 1709 0ffe E8000000 		call	__cxa_begin_catch@PLT
 1709      00
 1710              	.LEHB96:
 1711 1003 E8000000 		call	_ZN8UnitTest11CurrentTest7ResultsEv@PLT
 1711      00
  36:testConv.cpp  **** 	CHECK_EQUAL(4, nibble);
 1712              		.loc 3 36 2 is_stmt 0 discriminator 3
 1713 1008 488B18   		movq	(%rax), %rbx
 1714 100b E8000000 		call	_ZN8UnitTest11CurrentTest7DetailsEv@PLT
 1714      00
  36:testConv.cpp  **** 	CHECK_EQUAL(4, nibble);
 1715              		.loc 3 36 2 discriminator 11
 1716 1010 488B08   		movq	(%rax), %rcx
 1717 1013 488D45C0 		leaq	-64(%rbp), %rax
 1718 1017 BA240000 		movl	$36, %edx
 1718      00
 1719 101c 4889CE   		movq	%rcx, %rsi
 1720 101f 4889C7   		movq	%rax, %rdi
 1721 1022 E8000000 		call	_ZN8UnitTest11TestDetailsC1ERKS0_i@PLT
 1721      00
  36:testConv.cpp  **** 	CHECK_EQUAL(4, nibble);
 1722              		.loc 3 36 2 discriminator 15
 1723 1027 488D45C0 		leaq	-64(%rbp), %rax
 1724 102b 488D1500 		leaq	.LC3(%rip), %rdx
 1724      000000
 1725 1032 4889C6   		movq	%rax, %rsi
 1726 1035 4889DF   		movq	%rbx, %rdi
 1727 1038 E8000000 		call	_ZN8UnitTest11TestResults13OnTestFailureERKNS_11TestDetailsEPKc@PLT
 1727      00
 1728              	.LEHE96:
 1729              	.LEHB97:
  36:testConv.cpp  **** 	CHECK_EQUAL(4, nibble);
 1730              		.loc 3 36 2 discriminator 17
 1731 103d E8000000 		call	__cxa_end_catch@PLT
 1731      00
 1732              	.LEHE97:
 1733 1042 E965F2FF 		jmp	.L36
 1733      FF
 1734              	.L164:
 1735 1047 F30F1EFA 		endbr64
  36:testConv.cpp  **** 	CHECK_EQUAL(4, nibble);
 1736              		.loc 3 36 2
 1737 104b 4889C3   		movq	%rax, %rbx
 1738 104e E8000000 		call	__cxa_end_catch@PLT
 1738      00
 1739 1053 4889D8   		movq	%rbx, %rax
 1740 1056 4889C7   		movq	%rax, %rdi
 1741              	.LEHB98:
 1742 1059 E8000000 		call	_Unwind_Resume@PLT
 1742      00
 1743              	.LEHE98:
 1744              	.L165:
 1745 105e F30F1EFA 		endbr64
  37:testConv.cpp  **** 	status = getHexNibble('5', &nibble);
 1746              		.loc 3 37 2 is_stmt 1
 1747 1062 4889C7   		movq	%rax, %rdi
 1748 1065 E8000000 		call	__cxa_begin_catch@PLT
 1748      00
 1749              	.LEHB99:
 1750 106a E8000000 		call	_ZN8UnitTest11CurrentTest7ResultsEv@PLT
 1750      00
  37:testConv.cpp  **** 	status = getHexNibble('5', &nibble);
 1751              		.loc 3 37 2 is_stmt 0 discriminator 3
 1752 106f 488B18   		movq	(%rax), %rbx
 1753 1072 E8000000 		call	_ZN8UnitTest11CurrentTest7DetailsEv@PLT
 1753      00
  37:testConv.cpp  **** 	status = getHexNibble('5', &nibble);
 1754              		.loc 3 37 2 discriminator 11
 1755 1077 488B08   		movq	(%rax), %rcx
 1756 107a 488D45C0 		leaq	-64(%rbp), %rax
 1757 107e BA250000 		movl	$37, %edx
 1757      00
 1758 1083 4889CE   		movq	%rcx, %rsi
 1759 1086 4889C7   		movq	%rax, %rdi
 1760 1089 E8000000 		call	_ZN8UnitTest11TestDetailsC1ERKS0_i@PLT
 1760      00
  37:testConv.cpp  **** 	status = getHexNibble('5', &nibble);
 1761              		.loc 3 37 2 discriminator 15
 1762 108e 488D45C0 		leaq	-64(%rbp), %rax
 1763 1092 488D1500 		leaq	.LC8(%rip), %rdx
 1763      000000
 1764 1099 4889C6   		movq	%rax, %rsi
 1765 109c 4889DF   		movq	%rbx, %rdi
 1766 109f E8000000 		call	_ZN8UnitTest11TestResults13OnTestFailureERKNS_11TestDetailsEPKc@PLT
 1766      00
 1767              	.LEHE99:
 1768              	.LEHB100:
  37:testConv.cpp  **** 	status = getHexNibble('5', &nibble);
 1769              		.loc 3 37 2 discriminator 17
 1770 10a4 E8000000 		call	__cxa_end_catch@PLT
 1770      00
 1771              	.LEHE100:
 1772 10a9 E93DF2FF 		jmp	.L39
 1772      FF
 1773              	.L166:
 1774 10ae F30F1EFA 		endbr64
  37:testConv.cpp  **** 	status = getHexNibble('5', &nibble);
 1775              		.loc 3 37 2
 1776 10b2 4889C3   		movq	%rax, %rbx
 1777 10b5 E8000000 		call	__cxa_end_catch@PLT
 1777      00
 1778 10ba 4889D8   		movq	%rbx, %rax
 1779 10bd 4889C7   		movq	%rax, %rdi
 1780              	.LEHB101:
 1781 10c0 E8000000 		call	_Unwind_Resume@PLT
 1781      00
 1782              	.LEHE101:
 1783              	.L167:
 1784 10c5 F30F1EFA 		endbr64
  39:testConv.cpp  **** 	CHECK_EQUAL(5, nibble);
 1785              		.loc 3 39 2 is_stmt 1
 1786 10c9 4889C7   		movq	%rax, %rdi
 1787 10cc E8000000 		call	__cxa_begin_catch@PLT
 1787      00
 1788              	.LEHB102:
 1789 10d1 E8000000 		call	_ZN8UnitTest11CurrentTest7ResultsEv@PLT
 1789      00
  39:testConv.cpp  **** 	CHECK_EQUAL(5, nibble);
 1790              		.loc 3 39 2 is_stmt 0 discriminator 3
 1791 10d6 488B18   		movq	(%rax), %rbx
 1792 10d9 E8000000 		call	_ZN8UnitTest11CurrentTest7DetailsEv@PLT
 1792      00
  39:testConv.cpp  **** 	CHECK_EQUAL(5, nibble);
 1793              		.loc 3 39 2 discriminator 11
 1794 10de 488B08   		movq	(%rax), %rcx
 1795 10e1 488D45C0 		leaq	-64(%rbp), %rax
 1796 10e5 BA270000 		movl	$39, %edx
 1796      00
 1797 10ea 4889CE   		movq	%rcx, %rsi
 1798 10ed 4889C7   		movq	%rax, %rdi
 1799 10f0 E8000000 		call	_ZN8UnitTest11TestDetailsC1ERKS0_i@PLT
 1799      00
  39:testConv.cpp  **** 	CHECK_EQUAL(5, nibble);
 1800              		.loc 3 39 2 discriminator 15
 1801 10f5 488D45C0 		leaq	-64(%rbp), %rax
 1802 10f9 488D1500 		leaq	.LC3(%rip), %rdx
 1802      000000
 1803 1100 4889C6   		movq	%rax, %rsi
 1804 1103 4889DF   		movq	%rbx, %rdi
 1805 1106 E8000000 		call	_ZN8UnitTest11TestResults13OnTestFailureERKNS_11TestDetailsEPKc@PLT
 1805      00
 1806              	.LEHE102:
 1807              	.LEHB103:
  39:testConv.cpp  **** 	CHECK_EQUAL(5, nibble);
 1808              		.loc 3 39 2 discriminator 17
 1809 110b E8000000 		call	__cxa_end_catch@PLT
 1809      00
 1810              	.LEHE103:
 1811 1110 E926F2FF 		jmp	.L42
 1811      FF
 1812              	.L168:
 1813 1115 F30F1EFA 		endbr64
  39:testConv.cpp  **** 	CHECK_EQUAL(5, nibble);
 1814              		.loc 3 39 2
 1815 1119 4889C3   		movq	%rax, %rbx
 1816 111c E8000000 		call	__cxa_end_catch@PLT
 1816      00
 1817 1121 4889D8   		movq	%rbx, %rax
 1818 1124 4889C7   		movq	%rax, %rdi
 1819              	.LEHB104:
 1820 1127 E8000000 		call	_Unwind_Resume@PLT
 1820      00
 1821              	.LEHE104:
 1822              	.L169:
 1823 112c F30F1EFA 		endbr64
  40:testConv.cpp  **** 	status = getHexNibble('6', &nibble);
 1824              		.loc 3 40 2 is_stmt 1
 1825 1130 4889C7   		movq	%rax, %rdi
 1826 1133 E8000000 		call	__cxa_begin_catch@PLT
 1826      00
 1827              	.LEHB105:
 1828 1138 E8000000 		call	_ZN8UnitTest11CurrentTest7ResultsEv@PLT
 1828      00
  40:testConv.cpp  **** 	status = getHexNibble('6', &nibble);
 1829              		.loc 3 40 2 is_stmt 0 discriminator 3
 1830 113d 488B18   		movq	(%rax), %rbx
 1831 1140 E8000000 		call	_ZN8UnitTest11CurrentTest7DetailsEv@PLT
 1831      00
  40:testConv.cpp  **** 	status = getHexNibble('6', &nibble);
 1832              		.loc 3 40 2 discriminator 11
 1833 1145 488B08   		movq	(%rax), %rcx
 1834 1148 488D45C0 		leaq	-64(%rbp), %rax
 1835 114c BA280000 		movl	$40, %edx
 1835      00
 1836 1151 4889CE   		movq	%rcx, %rsi
 1837 1154 4889C7   		movq	%rax, %rdi
 1838 1157 E8000000 		call	_ZN8UnitTest11TestDetailsC1ERKS0_i@PLT
 1838      00
  40:testConv.cpp  **** 	status = getHexNibble('6', &nibble);
 1839              		.loc 3 40 2 discriminator 15
 1840 115c 488D45C0 		leaq	-64(%rbp), %rax
 1841 1160 488D1500 		leaq	.LC9(%rip), %rdx
 1841      000000
 1842 1167 4889C6   		movq	%rax, %rsi
 1843 116a 4889DF   		movq	%rbx, %rdi
 1844 116d E8000000 		call	_ZN8UnitTest11TestResults13OnTestFailureERKNS_11TestDetailsEPKc@PLT
 1844      00
 1845              	.LEHE105:
 1846              	.LEHB106:
  40:testConv.cpp  **** 	status = getHexNibble('6', &nibble);
 1847              		.loc 3 40 2 discriminator 17
 1848 1172 E8000000 		call	__cxa_end_catch@PLT
 1848      00
 1849              	.LEHE106:
 1850 1177 E9FEF1FF 		jmp	.L45
 1850      FF
 1851              	.L170:
 1852 117c F30F1EFA 		endbr64
  40:testConv.cpp  **** 	status = getHexNibble('6', &nibble);
 1853              		.loc 3 40 2
 1854 1180 4889C3   		movq	%rax, %rbx
 1855 1183 E8000000 		call	__cxa_end_catch@PLT
 1855      00
 1856 1188 4889D8   		movq	%rbx, %rax
 1857 118b 4889C7   		movq	%rax, %rdi
 1858              	.LEHB107:
 1859 118e E8000000 		call	_Unwind_Resume@PLT
 1859      00
 1860              	.LEHE107:
 1861              	.L171:
 1862 1193 F30F1EFA 		endbr64
  42:testConv.cpp  **** 	CHECK_EQUAL(6, nibble);
 1863              		.loc 3 42 2 is_stmt 1
 1864 1197 4889C7   		movq	%rax, %rdi
 1865 119a E8000000 		call	__cxa_begin_catch@PLT
 1865      00
 1866              	.LEHB108:
 1867 119f E8000000 		call	_ZN8UnitTest11CurrentTest7ResultsEv@PLT
 1867      00
  42:testConv.cpp  **** 	CHECK_EQUAL(6, nibble);
 1868              		.loc 3 42 2 is_stmt 0 discriminator 3
 1869 11a4 488B18   		movq	(%rax), %rbx
 1870 11a7 E8000000 		call	_ZN8UnitTest11CurrentTest7DetailsEv@PLT
 1870      00
  42:testConv.cpp  **** 	CHECK_EQUAL(6, nibble);
 1871              		.loc 3 42 2 discriminator 11
 1872 11ac 488B08   		movq	(%rax), %rcx
 1873 11af 488D45C0 		leaq	-64(%rbp), %rax
 1874 11b3 BA2A0000 		movl	$42, %edx
 1874      00
 1875 11b8 4889CE   		movq	%rcx, %rsi
 1876 11bb 4889C7   		movq	%rax, %rdi
 1877 11be E8000000 		call	_ZN8UnitTest11TestDetailsC1ERKS0_i@PLT
 1877      00
  42:testConv.cpp  **** 	CHECK_EQUAL(6, nibble);
 1878              		.loc 3 42 2 discriminator 15
 1879 11c3 488D45C0 		leaq	-64(%rbp), %rax
 1880 11c7 488D1500 		leaq	.LC3(%rip), %rdx
 1880      000000
 1881 11ce 4889C6   		movq	%rax, %rsi
 1882 11d1 4889DF   		movq	%rbx, %rdi
 1883 11d4 E8000000 		call	_ZN8UnitTest11TestResults13OnTestFailureERKNS_11TestDetailsEPKc@PLT
 1883      00
 1884              	.LEHE108:
 1885              	.LEHB109:
  42:testConv.cpp  **** 	CHECK_EQUAL(6, nibble);
 1886              		.loc 3 42 2 discriminator 17
 1887 11d9 E8000000 		call	__cxa_end_catch@PLT
 1887      00
 1888              	.LEHE109:
 1889 11de E9E7F1FF 		jmp	.L48
 1889      FF
 1890              	.L172:
 1891 11e3 F30F1EFA 		endbr64
  42:testConv.cpp  **** 	CHECK_EQUAL(6, nibble);
 1892              		.loc 3 42 2
 1893 11e7 4889C3   		movq	%rax, %rbx
 1894 11ea E8000000 		call	__cxa_end_catch@PLT
 1894      00
 1895 11ef 4889D8   		movq	%rbx, %rax
 1896 11f2 4889C7   		movq	%rax, %rdi
 1897              	.LEHB110:
 1898 11f5 E8000000 		call	_Unwind_Resume@PLT
 1898      00
 1899              	.LEHE110:
 1900              	.L173:
 1901 11fa F30F1EFA 		endbr64
  43:testConv.cpp  **** 	status = getHexNibble('7', &nibble);
 1902              		.loc 3 43 2 is_stmt 1
 1903 11fe 4889C7   		movq	%rax, %rdi
 1904 1201 E8000000 		call	__cxa_begin_catch@PLT
 1904      00
 1905              	.LEHB111:
 1906 1206 E8000000 		call	_ZN8UnitTest11CurrentTest7ResultsEv@PLT
 1906      00
  43:testConv.cpp  **** 	status = getHexNibble('7', &nibble);
 1907              		.loc 3 43 2 is_stmt 0 discriminator 3
 1908 120b 488B18   		movq	(%rax), %rbx
 1909 120e E8000000 		call	_ZN8UnitTest11CurrentTest7DetailsEv@PLT
 1909      00
  43:testConv.cpp  **** 	status = getHexNibble('7', &nibble);
 1910              		.loc 3 43 2 discriminator 11
 1911 1213 488B08   		movq	(%rax), %rcx
 1912 1216 488D45C0 		leaq	-64(%rbp), %rax
 1913 121a BA2B0000 		movl	$43, %edx
 1913      00
 1914 121f 4889CE   		movq	%rcx, %rsi
 1915 1222 4889C7   		movq	%rax, %rdi
 1916 1225 E8000000 		call	_ZN8UnitTest11TestDetailsC1ERKS0_i@PLT
 1916      00
  43:testConv.cpp  **** 	status = getHexNibble('7', &nibble);
 1917              		.loc 3 43 2 discriminator 15
 1918 122a 488D45C0 		leaq	-64(%rbp), %rax
 1919 122e 488D1500 		leaq	.LC10(%rip), %rdx
 1919      000000
 1920 1235 4889C6   		movq	%rax, %rsi
 1921 1238 4889DF   		movq	%rbx, %rdi
 1922 123b E8000000 		call	_ZN8UnitTest11TestResults13OnTestFailureERKNS_11TestDetailsEPKc@PLT
 1922      00
 1923              	.LEHE111:
 1924              	.LEHB112:
  43:testConv.cpp  **** 	status = getHexNibble('7', &nibble);
 1925              		.loc 3 43 2 discriminator 17
 1926 1240 E8000000 		call	__cxa_end_catch@PLT
 1926      00
 1927              	.LEHE112:
 1928 1245 E9BFF1FF 		jmp	.L51
 1928      FF
 1929              	.L174:
 1930 124a F30F1EFA 		endbr64
  43:testConv.cpp  **** 	status = getHexNibble('7', &nibble);
 1931              		.loc 3 43 2
 1932 124e 4889C3   		movq	%rax, %rbx
 1933 1251 E8000000 		call	__cxa_end_catch@PLT
 1933      00
 1934 1256 4889D8   		movq	%rbx, %rax
 1935 1259 4889C7   		movq	%rax, %rdi
 1936              	.LEHB113:
 1937 125c E8000000 		call	_Unwind_Resume@PLT
 1937      00
 1938              	.LEHE113:
 1939              	.L175:
 1940 1261 F30F1EFA 		endbr64
  45:testConv.cpp  **** 	CHECK_EQUAL(7, nibble);
 1941              		.loc 3 45 2 is_stmt 1
 1942 1265 4889C7   		movq	%rax, %rdi
 1943 1268 E8000000 		call	__cxa_begin_catch@PLT
 1943      00
 1944              	.LEHB114:
 1945 126d E8000000 		call	_ZN8UnitTest11CurrentTest7ResultsEv@PLT
 1945      00
  45:testConv.cpp  **** 	CHECK_EQUAL(7, nibble);
 1946              		.loc 3 45 2 is_stmt 0 discriminator 3
 1947 1272 488B18   		movq	(%rax), %rbx
 1948 1275 E8000000 		call	_ZN8UnitTest11CurrentTest7DetailsEv@PLT
 1948      00
  45:testConv.cpp  **** 	CHECK_EQUAL(7, nibble);
 1949              		.loc 3 45 2 discriminator 11
 1950 127a 488B08   		movq	(%rax), %rcx
 1951 127d 488D45C0 		leaq	-64(%rbp), %rax
 1952 1281 BA2D0000 		movl	$45, %edx
 1952      00
 1953 1286 4889CE   		movq	%rcx, %rsi
 1954 1289 4889C7   		movq	%rax, %rdi
 1955 128c E8000000 		call	_ZN8UnitTest11TestDetailsC1ERKS0_i@PLT
 1955      00
  45:testConv.cpp  **** 	CHECK_EQUAL(7, nibble);
 1956              		.loc 3 45 2 discriminator 15
 1957 1291 488D45C0 		leaq	-64(%rbp), %rax
 1958 1295 488D1500 		leaq	.LC3(%rip), %rdx
 1958      000000
 1959 129c 4889C6   		movq	%rax, %rsi
 1960 129f 4889DF   		movq	%rbx, %rdi
 1961 12a2 E8000000 		call	_ZN8UnitTest11TestResults13OnTestFailureERKNS_11TestDetailsEPKc@PLT
 1961      00
 1962              	.LEHE114:
 1963              	.LEHB115:
  45:testConv.cpp  **** 	CHECK_EQUAL(7, nibble);
 1964              		.loc 3 45 2 discriminator 17
 1965 12a7 E8000000 		call	__cxa_end_catch@PLT
 1965      00
 1966              	.LEHE115:
 1967 12ac E9A8F1FF 		jmp	.L54
 1967      FF
 1968              	.L176:
 1969 12b1 F30F1EFA 		endbr64
  45:testConv.cpp  **** 	CHECK_EQUAL(7, nibble);
 1970              		.loc 3 45 2
 1971 12b5 4889C3   		movq	%rax, %rbx
 1972 12b8 E8000000 		call	__cxa_end_catch@PLT
 1972      00
 1973 12bd 4889D8   		movq	%rbx, %rax
 1974 12c0 4889C7   		movq	%rax, %rdi
 1975              	.LEHB116:
 1976 12c3 E8000000 		call	_Unwind_Resume@PLT
 1976      00
 1977              	.LEHE116:
 1978              	.L177:
 1979 12c8 F30F1EFA 		endbr64
  46:testConv.cpp  **** 	status = getHexNibble('8', &nibble);
 1980              		.loc 3 46 2 is_stmt 1
 1981 12cc 4889C7   		movq	%rax, %rdi
 1982 12cf E8000000 		call	__cxa_begin_catch@PLT
 1982      00
 1983              	.LEHB117:
 1984 12d4 E8000000 		call	_ZN8UnitTest11CurrentTest7ResultsEv@PLT
 1984      00
  46:testConv.cpp  **** 	status = getHexNibble('8', &nibble);
 1985              		.loc 3 46 2 is_stmt 0 discriminator 3
 1986 12d9 488B18   		movq	(%rax), %rbx
 1987 12dc E8000000 		call	_ZN8UnitTest11CurrentTest7DetailsEv@PLT
 1987      00
  46:testConv.cpp  **** 	status = getHexNibble('8', &nibble);
 1988              		.loc 3 46 2 discriminator 11
 1989 12e1 488B08   		movq	(%rax), %rcx
 1990 12e4 488D45C0 		leaq	-64(%rbp), %rax
 1991 12e8 BA2E0000 		movl	$46, %edx
 1991      00
 1992 12ed 4889CE   		movq	%rcx, %rsi
 1993 12f0 4889C7   		movq	%rax, %rdi
 1994 12f3 E8000000 		call	_ZN8UnitTest11TestDetailsC1ERKS0_i@PLT
 1994      00
  46:testConv.cpp  **** 	status = getHexNibble('8', &nibble);
 1995              		.loc 3 46 2 discriminator 15
 1996 12f8 488D45C0 		leaq	-64(%rbp), %rax
 1997 12fc 488D1500 		leaq	.LC11(%rip), %rdx
 1997      000000
 1998 1303 4889C6   		movq	%rax, %rsi
 1999 1306 4889DF   		movq	%rbx, %rdi
 2000 1309 E8000000 		call	_ZN8UnitTest11TestResults13OnTestFailureERKNS_11TestDetailsEPKc@PLT
 2000      00
 2001              	.LEHE117:
 2002              	.LEHB118:
  46:testConv.cpp  **** 	status = getHexNibble('8', &nibble);
 2003              		.loc 3 46 2 discriminator 17
 2004 130e E8000000 		call	__cxa_end_catch@PLT
 2004      00
 2005              	.LEHE118:
 2006 1313 E980F1FF 		jmp	.L57
 2006      FF
 2007              	.L178:
 2008 1318 F30F1EFA 		endbr64
  46:testConv.cpp  **** 	status = getHexNibble('8', &nibble);
 2009              		.loc 3 46 2
 2010 131c 4889C3   		movq	%rax, %rbx
 2011 131f E8000000 		call	__cxa_end_catch@PLT
 2011      00
 2012 1324 4889D8   		movq	%rbx, %rax
 2013 1327 4889C7   		movq	%rax, %rdi
 2014              	.LEHB119:
 2015 132a E8000000 		call	_Unwind_Resume@PLT
 2015      00
 2016              	.LEHE119:
 2017              	.L179:
 2018 132f F30F1EFA 		endbr64
  48:testConv.cpp  **** 	CHECK_EQUAL(8, nibble);
 2019              		.loc 3 48 2 is_stmt 1
 2020 1333 4889C7   		movq	%rax, %rdi
 2021 1336 E8000000 		call	__cxa_begin_catch@PLT
 2021      00
 2022              	.LEHB120:
 2023 133b E8000000 		call	_ZN8UnitTest11CurrentTest7ResultsEv@PLT
 2023      00
  48:testConv.cpp  **** 	CHECK_EQUAL(8, nibble);
 2024              		.loc 3 48 2 is_stmt 0 discriminator 3
 2025 1340 488B18   		movq	(%rax), %rbx
 2026 1343 E8000000 		call	_ZN8UnitTest11CurrentTest7DetailsEv@PLT
 2026      00
  48:testConv.cpp  **** 	CHECK_EQUAL(8, nibble);
 2027              		.loc 3 48 2 discriminator 11
 2028 1348 488B08   		movq	(%rax), %rcx
 2029 134b 488D45C0 		leaq	-64(%rbp), %rax
 2030 134f BA300000 		movl	$48, %edx
 2030      00
 2031 1354 4889CE   		movq	%rcx, %rsi
 2032 1357 4889C7   		movq	%rax, %rdi
 2033 135a E8000000 		call	_ZN8UnitTest11TestDetailsC1ERKS0_i@PLT
 2033      00
  48:testConv.cpp  **** 	CHECK_EQUAL(8, nibble);
 2034              		.loc 3 48 2 discriminator 15
 2035 135f 488D45C0 		leaq	-64(%rbp), %rax
 2036 1363 488D1500 		leaq	.LC3(%rip), %rdx
 2036      000000
 2037 136a 4889C6   		movq	%rax, %rsi
 2038 136d 4889DF   		movq	%rbx, %rdi
 2039 1370 E8000000 		call	_ZN8UnitTest11TestResults13OnTestFailureERKNS_11TestDetailsEPKc@PLT
 2039      00
 2040              	.LEHE120:
 2041              	.LEHB121:
  48:testConv.cpp  **** 	CHECK_EQUAL(8, nibble);
 2042              		.loc 3 48 2 discriminator 17
 2043 1375 E8000000 		call	__cxa_end_catch@PLT
 2043      00
 2044              	.LEHE121:
 2045 137a E969F1FF 		jmp	.L60
 2045      FF
 2046              	.L180:
 2047 137f F30F1EFA 		endbr64
  48:testConv.cpp  **** 	CHECK_EQUAL(8, nibble);
 2048              		.loc 3 48 2
 2049 1383 4889C3   		movq	%rax, %rbx
 2050 1386 E8000000 		call	__cxa_end_catch@PLT
 2050      00
 2051 138b 4889D8   		movq	%rbx, %rax
 2052 138e 4889C7   		movq	%rax, %rdi
 2053              	.LEHB122:
 2054 1391 E8000000 		call	_Unwind_Resume@PLT
 2054      00
 2055              	.LEHE122:
 2056              	.L181:
 2057 1396 F30F1EFA 		endbr64
  49:testConv.cpp  **** 	status = getHexNibble('9', &nibble);
 2058              		.loc 3 49 2 is_stmt 1
 2059 139a 4889C7   		movq	%rax, %rdi
 2060 139d E8000000 		call	__cxa_begin_catch@PLT
 2060      00
 2061              	.LEHB123:
 2062 13a2 E8000000 		call	_ZN8UnitTest11CurrentTest7ResultsEv@PLT
 2062      00
  49:testConv.cpp  **** 	status = getHexNibble('9', &nibble);
 2063              		.loc 3 49 2 is_stmt 0 discriminator 3
 2064 13a7 488B18   		movq	(%rax), %rbx
 2065 13aa E8000000 		call	_ZN8UnitTest11CurrentTest7DetailsEv@PLT
 2065      00
  49:testConv.cpp  **** 	status = getHexNibble('9', &nibble);
 2066              		.loc 3 49 2 discriminator 11
 2067 13af 488B08   		movq	(%rax), %rcx
 2068 13b2 488D45C0 		leaq	-64(%rbp), %rax
 2069 13b6 BA310000 		movl	$49, %edx
 2069      00
 2070 13bb 4889CE   		movq	%rcx, %rsi
 2071 13be 4889C7   		movq	%rax, %rdi
 2072 13c1 E8000000 		call	_ZN8UnitTest11TestDetailsC1ERKS0_i@PLT
 2072      00
  49:testConv.cpp  **** 	status = getHexNibble('9', &nibble);
 2073              		.loc 3 49 2 discriminator 15
 2074 13c6 488D45C0 		leaq	-64(%rbp), %rax
 2075 13ca 488D1500 		leaq	.LC12(%rip), %rdx
 2075      000000
 2076 13d1 4889C6   		movq	%rax, %rsi
 2077 13d4 4889DF   		movq	%rbx, %rdi
 2078 13d7 E8000000 		call	_ZN8UnitTest11TestResults13OnTestFailureERKNS_11TestDetailsEPKc@PLT
 2078      00
 2079              	.LEHE123:
 2080              	.LEHB124:
  49:testConv.cpp  **** 	status = getHexNibble('9', &nibble);
 2081              		.loc 3 49 2 discriminator 17
 2082 13dc E8000000 		call	__cxa_end_catch@PLT
 2082      00
 2083              	.LEHE124:
 2084 13e1 E941F1FF 		jmp	.L63
 2084      FF
 2085              	.L182:
 2086 13e6 F30F1EFA 		endbr64
  49:testConv.cpp  **** 	status = getHexNibble('9', &nibble);
 2087              		.loc 3 49 2
 2088 13ea 4889C3   		movq	%rax, %rbx
 2089 13ed E8000000 		call	__cxa_end_catch@PLT
 2089      00
 2090 13f2 4889D8   		movq	%rbx, %rax
 2091 13f5 4889C7   		movq	%rax, %rdi
 2092              	.LEHB125:
 2093 13f8 E8000000 		call	_Unwind_Resume@PLT
 2093      00
 2094              	.LEHE125:
 2095              	.L183:
 2096 13fd F30F1EFA 		endbr64
  51:testConv.cpp  **** 	CHECK_EQUAL(9, nibble);
 2097              		.loc 3 51 2 is_stmt 1
 2098 1401 4889C7   		movq	%rax, %rdi
 2099 1404 E8000000 		call	__cxa_begin_catch@PLT
 2099      00
 2100              	.LEHB126:
 2101 1409 E8000000 		call	_ZN8UnitTest11CurrentTest7ResultsEv@PLT
 2101      00
  51:testConv.cpp  **** 	CHECK_EQUAL(9, nibble);
 2102              		.loc 3 51 2 is_stmt 0 discriminator 3
 2103 140e 488B18   		movq	(%rax), %rbx
 2104 1411 E8000000 		call	_ZN8UnitTest11CurrentTest7DetailsEv@PLT
 2104      00
  51:testConv.cpp  **** 	CHECK_EQUAL(9, nibble);
 2105              		.loc 3 51 2 discriminator 11
 2106 1416 488B08   		movq	(%rax), %rcx
 2107 1419 488D45C0 		leaq	-64(%rbp), %rax
 2108 141d BA330000 		movl	$51, %edx
 2108      00
 2109 1422 4889CE   		movq	%rcx, %rsi
 2110 1425 4889C7   		movq	%rax, %rdi
 2111 1428 E8000000 		call	_ZN8UnitTest11TestDetailsC1ERKS0_i@PLT
 2111      00
  51:testConv.cpp  **** 	CHECK_EQUAL(9, nibble);
 2112              		.loc 3 51 2 discriminator 15
 2113 142d 488D45C0 		leaq	-64(%rbp), %rax
 2114 1431 488D1500 		leaq	.LC3(%rip), %rdx
 2114      000000
 2115 1438 4889C6   		movq	%rax, %rsi
 2116 143b 4889DF   		movq	%rbx, %rdi
 2117 143e E8000000 		call	_ZN8UnitTest11TestResults13OnTestFailureERKNS_11TestDetailsEPKc@PLT
 2117      00
 2118              	.LEHE126:
 2119              	.LEHB127:
  51:testConv.cpp  **** 	CHECK_EQUAL(9, nibble);
 2120              		.loc 3 51 2 discriminator 17
 2121 1443 E8000000 		call	__cxa_end_catch@PLT
 2121      00
 2122              	.LEHE127:
 2123 1448 E92AF1FF 		jmp	.L66
 2123      FF
 2124              	.L184:
 2125 144d F30F1EFA 		endbr64
  51:testConv.cpp  **** 	CHECK_EQUAL(9, nibble);
 2126              		.loc 3 51 2
 2127 1451 4889C3   		movq	%rax, %rbx
 2128 1454 E8000000 		call	__cxa_end_catch@PLT
 2128      00
 2129 1459 4889D8   		movq	%rbx, %rax
 2130 145c 4889C7   		movq	%rax, %rdi
 2131              	.LEHB128:
 2132 145f E8000000 		call	_Unwind_Resume@PLT
 2132      00
 2133              	.LEHE128:
 2134              	.L185:
 2135 1464 F30F1EFA 		endbr64
  52:testConv.cpp  **** 	status = getHexNibble('A', &nibble);
 2136              		.loc 3 52 2 is_stmt 1
 2137 1468 4889C7   		movq	%rax, %rdi
 2138 146b E8000000 		call	__cxa_begin_catch@PLT
 2138      00
 2139              	.LEHB129:
 2140 1470 E8000000 		call	_ZN8UnitTest11CurrentTest7ResultsEv@PLT
 2140      00
  52:testConv.cpp  **** 	status = getHexNibble('A', &nibble);
 2141              		.loc 3 52 2 is_stmt 0 discriminator 3
 2142 1475 488B18   		movq	(%rax), %rbx
 2143 1478 E8000000 		call	_ZN8UnitTest11CurrentTest7DetailsEv@PLT
 2143      00
  52:testConv.cpp  **** 	status = getHexNibble('A', &nibble);
 2144              		.loc 3 52 2 discriminator 11
 2145 147d 488B08   		movq	(%rax), %rcx
 2146 1480 488D45C0 		leaq	-64(%rbp), %rax
 2147 1484 BA340000 		movl	$52, %edx
 2147      00
 2148 1489 4889CE   		movq	%rcx, %rsi
 2149 148c 4889C7   		movq	%rax, %rdi
 2150 148f E8000000 		call	_ZN8UnitTest11TestDetailsC1ERKS0_i@PLT
 2150      00
  52:testConv.cpp  **** 	status = getHexNibble('A', &nibble);
 2151              		.loc 3 52 2 discriminator 15
 2152 1494 488D45C0 		leaq	-64(%rbp), %rax
 2153 1498 488D1500 		leaq	.LC13(%rip), %rdx
 2153      000000
 2154 149f 4889C6   		movq	%rax, %rsi
 2155 14a2 4889DF   		movq	%rbx, %rdi
 2156 14a5 E8000000 		call	_ZN8UnitTest11TestResults13OnTestFailureERKNS_11TestDetailsEPKc@PLT
 2156      00
 2157              	.LEHE129:
 2158              	.LEHB130:
  52:testConv.cpp  **** 	status = getHexNibble('A', &nibble);
 2159              		.loc 3 52 2 discriminator 17
 2160 14aa E8000000 		call	__cxa_end_catch@PLT
 2160      00
 2161              	.LEHE130:
 2162 14af E902F1FF 		jmp	.L69
 2162      FF
 2163              	.L186:
 2164 14b4 F30F1EFA 		endbr64
  52:testConv.cpp  **** 	status = getHexNibble('A', &nibble);
 2165              		.loc 3 52 2
 2166 14b8 4889C3   		movq	%rax, %rbx
 2167 14bb E8000000 		call	__cxa_end_catch@PLT
 2167      00
 2168 14c0 4889D8   		movq	%rbx, %rax
 2169 14c3 4889C7   		movq	%rax, %rdi
 2170              	.LEHB131:
 2171 14c6 E8000000 		call	_Unwind_Resume@PLT
 2171      00
 2172              	.LEHE131:
 2173              	.L187:
 2174 14cb F30F1EFA 		endbr64
  54:testConv.cpp  **** 	CHECK_EQUAL(10, nibble);
 2175              		.loc 3 54 2 is_stmt 1
 2176 14cf 4889C7   		movq	%rax, %rdi
 2177 14d2 E8000000 		call	__cxa_begin_catch@PLT
 2177      00
 2178              	.LEHB132:
 2179 14d7 E8000000 		call	_ZN8UnitTest11CurrentTest7ResultsEv@PLT
 2179      00
  54:testConv.cpp  **** 	CHECK_EQUAL(10, nibble);
 2180              		.loc 3 54 2 is_stmt 0 discriminator 3
 2181 14dc 488B18   		movq	(%rax), %rbx
 2182 14df E8000000 		call	_ZN8UnitTest11CurrentTest7DetailsEv@PLT
 2182      00
  54:testConv.cpp  **** 	CHECK_EQUAL(10, nibble);
 2183              		.loc 3 54 2 discriminator 11
 2184 14e4 488B08   		movq	(%rax), %rcx
 2185 14e7 488D45C0 		leaq	-64(%rbp), %rax
 2186 14eb BA360000 		movl	$54, %edx
 2186      00
 2187 14f0 4889CE   		movq	%rcx, %rsi
 2188 14f3 4889C7   		movq	%rax, %rdi
 2189 14f6 E8000000 		call	_ZN8UnitTest11TestDetailsC1ERKS0_i@PLT
 2189      00
  54:testConv.cpp  **** 	CHECK_EQUAL(10, nibble);
 2190              		.loc 3 54 2 discriminator 15
 2191 14fb 488D45C0 		leaq	-64(%rbp), %rax
 2192 14ff 488D1500 		leaq	.LC3(%rip), %rdx
 2192      000000
 2193 1506 4889C6   		movq	%rax, %rsi
 2194 1509 4889DF   		movq	%rbx, %rdi
 2195 150c E8000000 		call	_ZN8UnitTest11TestResults13OnTestFailureERKNS_11TestDetailsEPKc@PLT
 2195      00
 2196              	.LEHE132:
 2197              	.LEHB133:
  54:testConv.cpp  **** 	CHECK_EQUAL(10, nibble);
 2198              		.loc 3 54 2 discriminator 17
 2199 1511 E8000000 		call	__cxa_end_catch@PLT
 2199      00
 2200              	.LEHE133:
 2201 1516 E9EBF0FF 		jmp	.L72
 2201      FF
 2202              	.L188:
 2203 151b F30F1EFA 		endbr64
  54:testConv.cpp  **** 	CHECK_EQUAL(10, nibble);
 2204              		.loc 3 54 2
 2205 151f 4889C3   		movq	%rax, %rbx
 2206 1522 E8000000 		call	__cxa_end_catch@PLT
 2206      00
 2207 1527 4889D8   		movq	%rbx, %rax
 2208 152a 4889C7   		movq	%rax, %rdi
 2209              	.LEHB134:
 2210 152d E8000000 		call	_Unwind_Resume@PLT
 2210      00
 2211              	.LEHE134:
 2212              	.L189:
 2213 1532 F30F1EFA 		endbr64
  55:testConv.cpp  **** 	status = getHexNibble('B', &nibble);
 2214              		.loc 3 55 2 is_stmt 1
 2215 1536 4889C7   		movq	%rax, %rdi
 2216 1539 E8000000 		call	__cxa_begin_catch@PLT
 2216      00
 2217              	.LEHB135:
 2218 153e E8000000 		call	_ZN8UnitTest11CurrentTest7ResultsEv@PLT
 2218      00
  55:testConv.cpp  **** 	status = getHexNibble('B', &nibble);
 2219              		.loc 3 55 2 is_stmt 0 discriminator 3
 2220 1543 488B18   		movq	(%rax), %rbx
 2221 1546 E8000000 		call	_ZN8UnitTest11CurrentTest7DetailsEv@PLT
 2221      00
  55:testConv.cpp  **** 	status = getHexNibble('B', &nibble);
 2222              		.loc 3 55 2 discriminator 11
 2223 154b 488B08   		movq	(%rax), %rcx
 2224 154e 488D45C0 		leaq	-64(%rbp), %rax
 2225 1552 BA370000 		movl	$55, %edx
 2225      00
 2226 1557 4889CE   		movq	%rcx, %rsi
 2227 155a 4889C7   		movq	%rax, %rdi
 2228 155d E8000000 		call	_ZN8UnitTest11TestDetailsC1ERKS0_i@PLT
 2228      00
  55:testConv.cpp  **** 	status = getHexNibble('B', &nibble);
 2229              		.loc 3 55 2 discriminator 15
 2230 1562 488D45C0 		leaq	-64(%rbp), %rax
 2231 1566 488D1500 		leaq	.LC14(%rip), %rdx
 2231      000000
 2232 156d 4889C6   		movq	%rax, %rsi
 2233 1570 4889DF   		movq	%rbx, %rdi
 2234 1573 E8000000 		call	_ZN8UnitTest11TestResults13OnTestFailureERKNS_11TestDetailsEPKc@PLT
 2234      00
 2235              	.LEHE135:
 2236              	.LEHB136:
  55:testConv.cpp  **** 	status = getHexNibble('B', &nibble);
 2237              		.loc 3 55 2 discriminator 17
 2238 1578 E8000000 		call	__cxa_end_catch@PLT
 2238      00
 2239              	.LEHE136:
 2240 157d E9C3F0FF 		jmp	.L75
 2240      FF
 2241              	.L190:
 2242 1582 F30F1EFA 		endbr64
  55:testConv.cpp  **** 	status = getHexNibble('B', &nibble);
 2243              		.loc 3 55 2
 2244 1586 4889C3   		movq	%rax, %rbx
 2245 1589 E8000000 		call	__cxa_end_catch@PLT
 2245      00
 2246 158e 4889D8   		movq	%rbx, %rax
 2247 1591 4889C7   		movq	%rax, %rdi
 2248              	.LEHB137:
 2249 1594 E8000000 		call	_Unwind_Resume@PLT
 2249      00
 2250              	.LEHE137:
 2251              	.L191:
 2252 1599 F30F1EFA 		endbr64
  57:testConv.cpp  **** 	CHECK_EQUAL(11, nibble);
 2253              		.loc 3 57 2 is_stmt 1
 2254 159d 4889C7   		movq	%rax, %rdi
 2255 15a0 E8000000 		call	__cxa_begin_catch@PLT
 2255      00
 2256              	.LEHB138:
 2257 15a5 E8000000 		call	_ZN8UnitTest11CurrentTest7ResultsEv@PLT
 2257      00
  57:testConv.cpp  **** 	CHECK_EQUAL(11, nibble);
 2258              		.loc 3 57 2 is_stmt 0 discriminator 3
 2259 15aa 488B18   		movq	(%rax), %rbx
 2260 15ad E8000000 		call	_ZN8UnitTest11CurrentTest7DetailsEv@PLT
 2260      00
  57:testConv.cpp  **** 	CHECK_EQUAL(11, nibble);
 2261              		.loc 3 57 2 discriminator 11
 2262 15b2 488B08   		movq	(%rax), %rcx
 2263 15b5 488D45C0 		leaq	-64(%rbp), %rax
 2264 15b9 BA390000 		movl	$57, %edx
 2264      00
 2265 15be 4889CE   		movq	%rcx, %rsi
 2266 15c1 4889C7   		movq	%rax, %rdi
 2267 15c4 E8000000 		call	_ZN8UnitTest11TestDetailsC1ERKS0_i@PLT
 2267      00
  57:testConv.cpp  **** 	CHECK_EQUAL(11, nibble);
 2268              		.loc 3 57 2 discriminator 15
 2269 15c9 488D45C0 		leaq	-64(%rbp), %rax
 2270 15cd 488D1500 		leaq	.LC3(%rip), %rdx
 2270      000000
 2271 15d4 4889C6   		movq	%rax, %rsi
 2272 15d7 4889DF   		movq	%rbx, %rdi
 2273 15da E8000000 		call	_ZN8UnitTest11TestResults13OnTestFailureERKNS_11TestDetailsEPKc@PLT
 2273      00
 2274              	.LEHE138:
 2275              	.LEHB139:
  57:testConv.cpp  **** 	CHECK_EQUAL(11, nibble);
 2276              		.loc 3 57 2 discriminator 17
 2277 15df E8000000 		call	__cxa_end_catch@PLT
 2277      00
 2278              	.LEHE139:
 2279 15e4 E9ACF0FF 		jmp	.L78
 2279      FF
 2280              	.L192:
 2281 15e9 F30F1EFA 		endbr64
  57:testConv.cpp  **** 	CHECK_EQUAL(11, nibble);
 2282              		.loc 3 57 2
 2283 15ed 4889C3   		movq	%rax, %rbx
 2284 15f0 E8000000 		call	__cxa_end_catch@PLT
 2284      00
 2285 15f5 4889D8   		movq	%rbx, %rax
 2286 15f8 4889C7   		movq	%rax, %rdi
 2287              	.LEHB140:
 2288 15fb E8000000 		call	_Unwind_Resume@PLT
 2288      00
 2289              	.LEHE140:
 2290              	.L193:
 2291 1600 F30F1EFA 		endbr64
  58:testConv.cpp  **** 	status = getHexNibble('C', &nibble);
 2292              		.loc 3 58 2 is_stmt 1
 2293 1604 4889C7   		movq	%rax, %rdi
 2294 1607 E8000000 		call	__cxa_begin_catch@PLT
 2294      00
 2295              	.LEHB141:
 2296 160c E8000000 		call	_ZN8UnitTest11CurrentTest7ResultsEv@PLT
 2296      00
  58:testConv.cpp  **** 	status = getHexNibble('C', &nibble);
 2297              		.loc 3 58 2 is_stmt 0 discriminator 3
 2298 1611 488B18   		movq	(%rax), %rbx
 2299 1614 E8000000 		call	_ZN8UnitTest11CurrentTest7DetailsEv@PLT
 2299      00
  58:testConv.cpp  **** 	status = getHexNibble('C', &nibble);
 2300              		.loc 3 58 2 discriminator 11
 2301 1619 488B08   		movq	(%rax), %rcx
 2302 161c 488D45C0 		leaq	-64(%rbp), %rax
 2303 1620 BA3A0000 		movl	$58, %edx
 2303      00
 2304 1625 4889CE   		movq	%rcx, %rsi
 2305 1628 4889C7   		movq	%rax, %rdi
 2306 162b E8000000 		call	_ZN8UnitTest11TestDetailsC1ERKS0_i@PLT
 2306      00
  58:testConv.cpp  **** 	status = getHexNibble('C', &nibble);
 2307              		.loc 3 58 2 discriminator 15
 2308 1630 488D45C0 		leaq	-64(%rbp), %rax
 2309 1634 488D1500 		leaq	.LC15(%rip), %rdx
 2309      000000
 2310 163b 4889C6   		movq	%rax, %rsi
 2311 163e 4889DF   		movq	%rbx, %rdi
 2312 1641 E8000000 		call	_ZN8UnitTest11TestResults13OnTestFailureERKNS_11TestDetailsEPKc@PLT
 2312      00
 2313              	.LEHE141:
 2314              	.LEHB142:
  58:testConv.cpp  **** 	status = getHexNibble('C', &nibble);
 2315              		.loc 3 58 2 discriminator 17
 2316 1646 E8000000 		call	__cxa_end_catch@PLT
 2316      00
 2317              	.LEHE142:
 2318 164b E984F0FF 		jmp	.L81
 2318      FF
 2319              	.L194:
 2320 1650 F30F1EFA 		endbr64
  58:testConv.cpp  **** 	status = getHexNibble('C', &nibble);
 2321              		.loc 3 58 2
 2322 1654 4889C3   		movq	%rax, %rbx
 2323 1657 E8000000 		call	__cxa_end_catch@PLT
 2323      00
 2324 165c 4889D8   		movq	%rbx, %rax
 2325 165f 4889C7   		movq	%rax, %rdi
 2326              	.LEHB143:
 2327 1662 E8000000 		call	_Unwind_Resume@PLT
 2327      00
 2328              	.LEHE143:
 2329              	.L195:
 2330 1667 F30F1EFA 		endbr64
  60:testConv.cpp  **** 	CHECK_EQUAL(12, nibble);
 2331              		.loc 3 60 2 is_stmt 1
 2332 166b 4889C7   		movq	%rax, %rdi
 2333 166e E8000000 		call	__cxa_begin_catch@PLT
 2333      00
 2334              	.LEHB144:
 2335 1673 E8000000 		call	_ZN8UnitTest11CurrentTest7ResultsEv@PLT
 2335      00
  60:testConv.cpp  **** 	CHECK_EQUAL(12, nibble);
 2336              		.loc 3 60 2 is_stmt 0 discriminator 3
 2337 1678 488B18   		movq	(%rax), %rbx
 2338 167b E8000000 		call	_ZN8UnitTest11CurrentTest7DetailsEv@PLT
 2338      00
  60:testConv.cpp  **** 	CHECK_EQUAL(12, nibble);
 2339              		.loc 3 60 2 discriminator 11
 2340 1680 488B08   		movq	(%rax), %rcx
 2341 1683 488D45C0 		leaq	-64(%rbp), %rax
 2342 1687 BA3C0000 		movl	$60, %edx
 2342      00
 2343 168c 4889CE   		movq	%rcx, %rsi
 2344 168f 4889C7   		movq	%rax, %rdi
 2345 1692 E8000000 		call	_ZN8UnitTest11TestDetailsC1ERKS0_i@PLT
 2345      00
  60:testConv.cpp  **** 	CHECK_EQUAL(12, nibble);
 2346              		.loc 3 60 2 discriminator 15
 2347 1697 488D45C0 		leaq	-64(%rbp), %rax
 2348 169b 488D1500 		leaq	.LC3(%rip), %rdx
 2348      000000
 2349 16a2 4889C6   		movq	%rax, %rsi
 2350 16a5 4889DF   		movq	%rbx, %rdi
 2351 16a8 E8000000 		call	_ZN8UnitTest11TestResults13OnTestFailureERKNS_11TestDetailsEPKc@PLT
 2351      00
 2352              	.LEHE144:
 2353              	.LEHB145:
  60:testConv.cpp  **** 	CHECK_EQUAL(12, nibble);
 2354              		.loc 3 60 2 discriminator 17
 2355 16ad E8000000 		call	__cxa_end_catch@PLT
 2355      00
 2356              	.LEHE145:
 2357 16b2 E96DF0FF 		jmp	.L84
 2357      FF
 2358              	.L196:
 2359 16b7 F30F1EFA 		endbr64
  60:testConv.cpp  **** 	CHECK_EQUAL(12, nibble);
 2360              		.loc 3 60 2
 2361 16bb 4889C3   		movq	%rax, %rbx
 2362 16be E8000000 		call	__cxa_end_catch@PLT
 2362      00
 2363 16c3 4889D8   		movq	%rbx, %rax
 2364 16c6 4889C7   		movq	%rax, %rdi
 2365              	.LEHB146:
 2366 16c9 E8000000 		call	_Unwind_Resume@PLT
 2366      00
 2367              	.LEHE146:
 2368              	.L197:
 2369 16ce F30F1EFA 		endbr64
  61:testConv.cpp  **** 	status = getHexNibble('D', &nibble);
 2370              		.loc 3 61 2 is_stmt 1
 2371 16d2 4889C7   		movq	%rax, %rdi
 2372 16d5 E8000000 		call	__cxa_begin_catch@PLT
 2372      00
 2373              	.LEHB147:
 2374 16da E8000000 		call	_ZN8UnitTest11CurrentTest7ResultsEv@PLT
 2374      00
  61:testConv.cpp  **** 	status = getHexNibble('D', &nibble);
 2375              		.loc 3 61 2 is_stmt 0 discriminator 3
 2376 16df 488B18   		movq	(%rax), %rbx
 2377 16e2 E8000000 		call	_ZN8UnitTest11CurrentTest7DetailsEv@PLT
 2377      00
  61:testConv.cpp  **** 	status = getHexNibble('D', &nibble);
 2378              		.loc 3 61 2 discriminator 11
 2379 16e7 488B08   		movq	(%rax), %rcx
 2380 16ea 488D45C0 		leaq	-64(%rbp), %rax
 2381 16ee BA3D0000 		movl	$61, %edx
 2381      00
 2382 16f3 4889CE   		movq	%rcx, %rsi
 2383 16f6 4889C7   		movq	%rax, %rdi
 2384 16f9 E8000000 		call	_ZN8UnitTest11TestDetailsC1ERKS0_i@PLT
 2384      00
  61:testConv.cpp  **** 	status = getHexNibble('D', &nibble);
 2385              		.loc 3 61 2 discriminator 15
 2386 16fe 488D45C0 		leaq	-64(%rbp), %rax
 2387 1702 488D1500 		leaq	.LC16(%rip), %rdx
 2387      000000
 2388 1709 4889C6   		movq	%rax, %rsi
 2389 170c 4889DF   		movq	%rbx, %rdi
 2390 170f E8000000 		call	_ZN8UnitTest11TestResults13OnTestFailureERKNS_11TestDetailsEPKc@PLT
 2390      00
 2391              	.LEHE147:
 2392              	.LEHB148:
  61:testConv.cpp  **** 	status = getHexNibble('D', &nibble);
 2393              		.loc 3 61 2 discriminator 17
 2394 1714 E8000000 		call	__cxa_end_catch@PLT
 2394      00
 2395              	.LEHE148:
 2396 1719 E945F0FF 		jmp	.L87
 2396      FF
 2397              	.L198:
 2398 171e F30F1EFA 		endbr64
  61:testConv.cpp  **** 	status = getHexNibble('D', &nibble);
 2399              		.loc 3 61 2
 2400 1722 4889C3   		movq	%rax, %rbx
 2401 1725 E8000000 		call	__cxa_end_catch@PLT
 2401      00
 2402 172a 4889D8   		movq	%rbx, %rax
 2403 172d 4889C7   		movq	%rax, %rdi
 2404              	.LEHB149:
 2405 1730 E8000000 		call	_Unwind_Resume@PLT
 2405      00
 2406              	.LEHE149:
 2407              	.L199:
 2408 1735 F30F1EFA 		endbr64
  63:testConv.cpp  **** 	CHECK_EQUAL(13, nibble);
 2409              		.loc 3 63 2 is_stmt 1
 2410 1739 4889C7   		movq	%rax, %rdi
 2411 173c E8000000 		call	__cxa_begin_catch@PLT
 2411      00
 2412              	.LEHB150:
 2413 1741 E8000000 		call	_ZN8UnitTest11CurrentTest7ResultsEv@PLT
 2413      00
  63:testConv.cpp  **** 	CHECK_EQUAL(13, nibble);
 2414              		.loc 3 63 2 is_stmt 0 discriminator 3
 2415 1746 488B18   		movq	(%rax), %rbx
 2416 1749 E8000000 		call	_ZN8UnitTest11CurrentTest7DetailsEv@PLT
 2416      00
  63:testConv.cpp  **** 	CHECK_EQUAL(13, nibble);
 2417              		.loc 3 63 2 discriminator 11
 2418 174e 488B08   		movq	(%rax), %rcx
 2419 1751 488D45C0 		leaq	-64(%rbp), %rax
 2420 1755 BA3F0000 		movl	$63, %edx
 2420      00
 2421 175a 4889CE   		movq	%rcx, %rsi
 2422 175d 4889C7   		movq	%rax, %rdi
 2423 1760 E8000000 		call	_ZN8UnitTest11TestDetailsC1ERKS0_i@PLT
 2423      00
  63:testConv.cpp  **** 	CHECK_EQUAL(13, nibble);
 2424              		.loc 3 63 2 discriminator 15
 2425 1765 488D45C0 		leaq	-64(%rbp), %rax
 2426 1769 488D1500 		leaq	.LC3(%rip), %rdx
 2426      000000
 2427 1770 4889C6   		movq	%rax, %rsi
 2428 1773 4889DF   		movq	%rbx, %rdi
 2429 1776 E8000000 		call	_ZN8UnitTest11TestResults13OnTestFailureERKNS_11TestDetailsEPKc@PLT
 2429      00
 2430              	.LEHE150:
 2431              	.LEHB151:
  63:testConv.cpp  **** 	CHECK_EQUAL(13, nibble);
 2432              		.loc 3 63 2 discriminator 17
 2433 177b E8000000 		call	__cxa_end_catch@PLT
 2433      00
 2434              	.LEHE151:
 2435 1780 E92EF0FF 		jmp	.L90
 2435      FF
 2436              	.L200:
 2437 1785 F30F1EFA 		endbr64
  63:testConv.cpp  **** 	CHECK_EQUAL(13, nibble);
 2438              		.loc 3 63 2
 2439 1789 4889C3   		movq	%rax, %rbx
 2440 178c E8000000 		call	__cxa_end_catch@PLT
 2440      00
 2441 1791 4889D8   		movq	%rbx, %rax
 2442 1794 4889C7   		movq	%rax, %rdi
 2443              	.LEHB152:
 2444 1797 E8000000 		call	_Unwind_Resume@PLT
 2444      00
 2445              	.LEHE152:
 2446              	.L201:
 2447 179c F30F1EFA 		endbr64
  64:testConv.cpp  **** 	status = getHexNibble('E', &nibble);
 2448              		.loc 3 64 2 is_stmt 1
 2449 17a0 4889C7   		movq	%rax, %rdi
 2450 17a3 E8000000 		call	__cxa_begin_catch@PLT
 2450      00
 2451              	.LEHB153:
 2452 17a8 E8000000 		call	_ZN8UnitTest11CurrentTest7ResultsEv@PLT
 2452      00
  64:testConv.cpp  **** 	status = getHexNibble('E', &nibble);
 2453              		.loc 3 64 2 is_stmt 0 discriminator 3
 2454 17ad 488B18   		movq	(%rax), %rbx
 2455 17b0 E8000000 		call	_ZN8UnitTest11CurrentTest7DetailsEv@PLT
 2455      00
  64:testConv.cpp  **** 	status = getHexNibble('E', &nibble);
 2456              		.loc 3 64 2 discriminator 11
 2457 17b5 488B08   		movq	(%rax), %rcx
 2458 17b8 488D45C0 		leaq	-64(%rbp), %rax
 2459 17bc BA400000 		movl	$64, %edx
 2459      00
 2460 17c1 4889CE   		movq	%rcx, %rsi
 2461 17c4 4889C7   		movq	%rax, %rdi
 2462 17c7 E8000000 		call	_ZN8UnitTest11TestDetailsC1ERKS0_i@PLT
 2462      00
  64:testConv.cpp  **** 	status = getHexNibble('E', &nibble);
 2463              		.loc 3 64 2 discriminator 15
 2464 17cc 488D45C0 		leaq	-64(%rbp), %rax
 2465 17d0 488D1500 		leaq	.LC17(%rip), %rdx
 2465      000000
 2466 17d7 4889C6   		movq	%rax, %rsi
 2467 17da 4889DF   		movq	%rbx, %rdi
 2468 17dd E8000000 		call	_ZN8UnitTest11TestResults13OnTestFailureERKNS_11TestDetailsEPKc@PLT
 2468      00
 2469              	.LEHE153:
 2470              	.LEHB154:
  64:testConv.cpp  **** 	status = getHexNibble('E', &nibble);
 2471              		.loc 3 64 2 discriminator 17
 2472 17e2 E8000000 		call	__cxa_end_catch@PLT
 2472      00
 2473              	.LEHE154:
 2474 17e7 E906F0FF 		jmp	.L93
 2474      FF
 2475              	.L202:
 2476 17ec F30F1EFA 		endbr64
  64:testConv.cpp  **** 	status = getHexNibble('E', &nibble);
 2477              		.loc 3 64 2
 2478 17f0 4889C3   		movq	%rax, %rbx
 2479 17f3 E8000000 		call	__cxa_end_catch@PLT
 2479      00
 2480 17f8 4889D8   		movq	%rbx, %rax
 2481 17fb 4889C7   		movq	%rax, %rdi
 2482              	.LEHB155:
 2483 17fe E8000000 		call	_Unwind_Resume@PLT
 2483      00
 2484              	.LEHE155:
 2485              	.L203:
 2486 1803 F30F1EFA 		endbr64
  66:testConv.cpp  **** 	CHECK_EQUAL(14, nibble);
 2487              		.loc 3 66 2 is_stmt 1
 2488 1807 4889C7   		movq	%rax, %rdi
 2489 180a E8000000 		call	__cxa_begin_catch@PLT
 2489      00
 2490              	.LEHB156:
 2491 180f E8000000 		call	_ZN8UnitTest11CurrentTest7ResultsEv@PLT
 2491      00
  66:testConv.cpp  **** 	CHECK_EQUAL(14, nibble);
 2492              		.loc 3 66 2 is_stmt 0 discriminator 3
 2493 1814 488B18   		movq	(%rax), %rbx
 2494 1817 E8000000 		call	_ZN8UnitTest11CurrentTest7DetailsEv@PLT
 2494      00
  66:testConv.cpp  **** 	CHECK_EQUAL(14, nibble);
 2495              		.loc 3 66 2 discriminator 11
 2496 181c 488B08   		movq	(%rax), %rcx
 2497 181f 488D45C0 		leaq	-64(%rbp), %rax
 2498 1823 BA420000 		movl	$66, %edx
 2498      00
 2499 1828 4889CE   		movq	%rcx, %rsi
 2500 182b 4889C7   		movq	%rax, %rdi
 2501 182e E8000000 		call	_ZN8UnitTest11TestDetailsC1ERKS0_i@PLT
 2501      00
  66:testConv.cpp  **** 	CHECK_EQUAL(14, nibble);
 2502              		.loc 3 66 2 discriminator 15
 2503 1833 488D45C0 		leaq	-64(%rbp), %rax
 2504 1837 488D1500 		leaq	.LC3(%rip), %rdx
 2504      000000
 2505 183e 4889C6   		movq	%rax, %rsi
 2506 1841 4889DF   		movq	%rbx, %rdi
 2507 1844 E8000000 		call	_ZN8UnitTest11TestResults13OnTestFailureERKNS_11TestDetailsEPKc@PLT
 2507      00
 2508              	.LEHE156:
 2509              	.LEHB157:
  66:testConv.cpp  **** 	CHECK_EQUAL(14, nibble);
 2510              		.loc 3 66 2 discriminator 17
 2511 1849 E8000000 		call	__cxa_end_catch@PLT
 2511      00
 2512              	.LEHE157:
 2513 184e E9EFEFFF 		jmp	.L96
 2513      FF
 2514              	.L204:
 2515 1853 F30F1EFA 		endbr64
  66:testConv.cpp  **** 	CHECK_EQUAL(14, nibble);
 2516              		.loc 3 66 2
 2517 1857 4889C3   		movq	%rax, %rbx
 2518 185a E8000000 		call	__cxa_end_catch@PLT
 2518      00
 2519 185f 4889D8   		movq	%rbx, %rax
 2520 1862 4889C7   		movq	%rax, %rdi
 2521              	.LEHB158:
 2522 1865 E8000000 		call	_Unwind_Resume@PLT
 2522      00
 2523              	.LEHE158:
 2524              	.L205:
 2525 186a F30F1EFA 		endbr64
  67:testConv.cpp  **** 	status = getHexNibble('F', &nibble);
 2526              		.loc 3 67 2 is_stmt 1
 2527 186e 4889C7   		movq	%rax, %rdi
 2528 1871 E8000000 		call	__cxa_begin_catch@PLT
 2528      00
 2529              	.LEHB159:
 2530 1876 E8000000 		call	_ZN8UnitTest11CurrentTest7ResultsEv@PLT
 2530      00
  67:testConv.cpp  **** 	status = getHexNibble('F', &nibble);
 2531              		.loc 3 67 2 is_stmt 0 discriminator 3
 2532 187b 488B18   		movq	(%rax), %rbx
 2533 187e E8000000 		call	_ZN8UnitTest11CurrentTest7DetailsEv@PLT
 2533      00
  67:testConv.cpp  **** 	status = getHexNibble('F', &nibble);
 2534              		.loc 3 67 2 discriminator 11
 2535 1883 488B08   		movq	(%rax), %rcx
 2536 1886 488D45C0 		leaq	-64(%rbp), %rax
 2537 188a BA430000 		movl	$67, %edx
 2537      00
 2538 188f 4889CE   		movq	%rcx, %rsi
 2539 1892 4889C7   		movq	%rax, %rdi
 2540 1895 E8000000 		call	_ZN8UnitTest11TestDetailsC1ERKS0_i@PLT
 2540      00
  67:testConv.cpp  **** 	status = getHexNibble('F', &nibble);
 2541              		.loc 3 67 2 discriminator 15
 2542 189a 488D45C0 		leaq	-64(%rbp), %rax
 2543 189e 488D1500 		leaq	.LC18(%rip), %rdx
 2543      000000
 2544 18a5 4889C6   		movq	%rax, %rsi
 2545 18a8 4889DF   		movq	%rbx, %rdi
 2546 18ab E8000000 		call	_ZN8UnitTest11TestResults13OnTestFailureERKNS_11TestDetailsEPKc@PLT
 2546      00
 2547              	.LEHE159:
 2548              	.LEHB160:
  67:testConv.cpp  **** 	status = getHexNibble('F', &nibble);
 2549              		.loc 3 67 2 discriminator 17
 2550 18b0 E8000000 		call	__cxa_end_catch@PLT
 2550      00
 2551              	.LEHE160:
 2552 18b5 E9C7EFFF 		jmp	.L99
 2552      FF
 2553              	.L206:
 2554 18ba F30F1EFA 		endbr64
  67:testConv.cpp  **** 	status = getHexNibble('F', &nibble);
 2555              		.loc 3 67 2
 2556 18be 4889C3   		movq	%rax, %rbx
 2557 18c1 E8000000 		call	__cxa_end_catch@PLT
 2557      00
 2558 18c6 4889D8   		movq	%rbx, %rax
 2559 18c9 4889C7   		movq	%rax, %rdi
 2560              	.LEHB161:
 2561 18cc E8000000 		call	_Unwind_Resume@PLT
 2561      00
 2562              	.LEHE161:
 2563              	.L207:
 2564 18d1 F30F1EFA 		endbr64
  69:testConv.cpp  **** 	CHECK_EQUAL(15, nibble);
 2565              		.loc 3 69 2 is_stmt 1
 2566 18d5 4889C7   		movq	%rax, %rdi
 2567 18d8 E8000000 		call	__cxa_begin_catch@PLT
 2567      00
 2568              	.LEHB162:
 2569 18dd E8000000 		call	_ZN8UnitTest11CurrentTest7ResultsEv@PLT
 2569      00
  69:testConv.cpp  **** 	CHECK_EQUAL(15, nibble);
 2570              		.loc 3 69 2 is_stmt 0 discriminator 3
 2571 18e2 488B18   		movq	(%rax), %rbx
 2572 18e5 E8000000 		call	_ZN8UnitTest11CurrentTest7DetailsEv@PLT
 2572      00
  69:testConv.cpp  **** 	CHECK_EQUAL(15, nibble);
 2573              		.loc 3 69 2 discriminator 11
 2574 18ea 488B08   		movq	(%rax), %rcx
 2575 18ed 488D45C0 		leaq	-64(%rbp), %rax
 2576 18f1 BA450000 		movl	$69, %edx
 2576      00
 2577 18f6 4889CE   		movq	%rcx, %rsi
 2578 18f9 4889C7   		movq	%rax, %rdi
 2579 18fc E8000000 		call	_ZN8UnitTest11TestDetailsC1ERKS0_i@PLT
 2579      00
  69:testConv.cpp  **** 	CHECK_EQUAL(15, nibble);
 2580              		.loc 3 69 2 discriminator 15
 2581 1901 488D45C0 		leaq	-64(%rbp), %rax
 2582 1905 488D1500 		leaq	.LC3(%rip), %rdx
 2582      000000
 2583 190c 4889C6   		movq	%rax, %rsi
 2584 190f 4889DF   		movq	%rbx, %rdi
 2585 1912 E8000000 		call	_ZN8UnitTest11TestResults13OnTestFailureERKNS_11TestDetailsEPKc@PLT
 2585      00
 2586              	.LEHE162:
 2587              	.LEHB163:
  69:testConv.cpp  **** 	CHECK_EQUAL(15, nibble);
 2588              		.loc 3 69 2 discriminator 17
 2589 1917 E8000000 		call	__cxa_end_catch@PLT
 2589      00
 2590              	.LEHE163:
 2591 191c E9B0EFFF 		jmp	.L102
 2591      FF
 2592              	.L208:
 2593 1921 F30F1EFA 		endbr64
  69:testConv.cpp  **** 	CHECK_EQUAL(15, nibble);
 2594              		.loc 3 69 2
 2595 1925 4889C3   		movq	%rax, %rbx
 2596 1928 E8000000 		call	__cxa_end_catch@PLT
 2596      00
 2597 192d 4889D8   		movq	%rbx, %rax
 2598 1930 4889C7   		movq	%rax, %rdi
 2599              	.LEHB164:
 2600 1933 E8000000 		call	_Unwind_Resume@PLT
 2600      00
 2601              	.LEHE164:
 2602              	.L209:
 2603 1938 F30F1EFA 		endbr64
  70:testConv.cpp  **** 	status = getHexNibble('a', &nibble);
 2604              		.loc 3 70 2 is_stmt 1
 2605 193c 4889C7   		movq	%rax, %rdi
 2606 193f E8000000 		call	__cxa_begin_catch@PLT
 2606      00
 2607              	.LEHB165:
 2608 1944 E8000000 		call	_ZN8UnitTest11CurrentTest7ResultsEv@PLT
 2608      00
  70:testConv.cpp  **** 	status = getHexNibble('a', &nibble);
 2609              		.loc 3 70 2 is_stmt 0 discriminator 3
 2610 1949 488B18   		movq	(%rax), %rbx
 2611 194c E8000000 		call	_ZN8UnitTest11CurrentTest7DetailsEv@PLT
 2611      00
  70:testConv.cpp  **** 	status = getHexNibble('a', &nibble);
 2612              		.loc 3 70 2 discriminator 11
 2613 1951 488B08   		movq	(%rax), %rcx
 2614 1954 488D45C0 		leaq	-64(%rbp), %rax
 2615 1958 BA460000 		movl	$70, %edx
 2615      00
 2616 195d 4889CE   		movq	%rcx, %rsi
 2617 1960 4889C7   		movq	%rax, %rdi
 2618 1963 E8000000 		call	_ZN8UnitTest11TestDetailsC1ERKS0_i@PLT
 2618      00
  70:testConv.cpp  **** 	status = getHexNibble('a', &nibble);
 2619              		.loc 3 70 2 discriminator 15
 2620 1968 488D45C0 		leaq	-64(%rbp), %rax
 2621 196c 488D1500 		leaq	.LC19(%rip), %rdx
 2621      000000
 2622 1973 4889C6   		movq	%rax, %rsi
 2623 1976 4889DF   		movq	%rbx, %rdi
 2624 1979 E8000000 		call	_ZN8UnitTest11TestResults13OnTestFailureERKNS_11TestDetailsEPKc@PLT
 2624      00
 2625              	.LEHE165:
 2626              	.LEHB166:
  70:testConv.cpp  **** 	status = getHexNibble('a', &nibble);
 2627              		.loc 3 70 2 discriminator 17
 2628 197e E8000000 		call	__cxa_end_catch@PLT
 2628      00
 2629              	.LEHE166:
 2630 1983 E988EFFF 		jmp	.L105
 2630      FF
 2631              	.L210:
 2632 1988 F30F1EFA 		endbr64
  70:testConv.cpp  **** 	status = getHexNibble('a', &nibble);
 2633              		.loc 3 70 2
 2634 198c 4889C3   		movq	%rax, %rbx
 2635 198f E8000000 		call	__cxa_end_catch@PLT
 2635      00
 2636 1994 4889D8   		movq	%rbx, %rax
 2637 1997 4889C7   		movq	%rax, %rdi
 2638              	.LEHB167:
 2639 199a E8000000 		call	_Unwind_Resume@PLT
 2639      00
 2640              	.LEHE167:
 2641              	.L211:
 2642 199f F30F1EFA 		endbr64
  72:testConv.cpp  **** 	CHECK_EQUAL(10, nibble);
 2643              		.loc 3 72 2 is_stmt 1
 2644 19a3 4889C7   		movq	%rax, %rdi
 2645 19a6 E8000000 		call	__cxa_begin_catch@PLT
 2645      00
 2646              	.LEHB168:
 2647 19ab E8000000 		call	_ZN8UnitTest11CurrentTest7ResultsEv@PLT
 2647      00
  72:testConv.cpp  **** 	CHECK_EQUAL(10, nibble);
 2648              		.loc 3 72 2 is_stmt 0 discriminator 3
 2649 19b0 488B18   		movq	(%rax), %rbx
 2650 19b3 E8000000 		call	_ZN8UnitTest11CurrentTest7DetailsEv@PLT
 2650      00
  72:testConv.cpp  **** 	CHECK_EQUAL(10, nibble);
 2651              		.loc 3 72 2 discriminator 11
 2652 19b8 488B08   		movq	(%rax), %rcx
 2653 19bb 488D45C0 		leaq	-64(%rbp), %rax
 2654 19bf BA480000 		movl	$72, %edx
 2654      00
 2655 19c4 4889CE   		movq	%rcx, %rsi
 2656 19c7 4889C7   		movq	%rax, %rdi
 2657 19ca E8000000 		call	_ZN8UnitTest11TestDetailsC1ERKS0_i@PLT
 2657      00
  72:testConv.cpp  **** 	CHECK_EQUAL(10, nibble);
 2658              		.loc 3 72 2 discriminator 15
 2659 19cf 488D45C0 		leaq	-64(%rbp), %rax
 2660 19d3 488D1500 		leaq	.LC3(%rip), %rdx
 2660      000000
 2661 19da 4889C6   		movq	%rax, %rsi
 2662 19dd 4889DF   		movq	%rbx, %rdi
 2663 19e0 E8000000 		call	_ZN8UnitTest11TestResults13OnTestFailureERKNS_11TestDetailsEPKc@PLT
 2663      00
 2664              	.LEHE168:
 2665              	.LEHB169:
  72:testConv.cpp  **** 	CHECK_EQUAL(10, nibble);
 2666              		.loc 3 72 2 discriminator 17
 2667 19e5 E8000000 		call	__cxa_end_catch@PLT
 2667      00
 2668              	.LEHE169:
 2669 19ea E971EFFF 		jmp	.L108
 2669      FF
 2670              	.L212:
 2671 19ef F30F1EFA 		endbr64
  72:testConv.cpp  **** 	CHECK_EQUAL(10, nibble);
 2672              		.loc 3 72 2
 2673 19f3 4889C3   		movq	%rax, %rbx
 2674 19f6 E8000000 		call	__cxa_end_catch@PLT
 2674      00
 2675 19fb 4889D8   		movq	%rbx, %rax
 2676 19fe 4889C7   		movq	%rax, %rdi
 2677              	.LEHB170:
 2678 1a01 E8000000 		call	_Unwind_Resume@PLT
 2678      00
 2679              	.LEHE170:
 2680              	.L213:
 2681 1a06 F30F1EFA 		endbr64
  73:testConv.cpp  **** 	status = getHexNibble('b', &nibble);
 2682              		.loc 3 73 2 is_stmt 1
 2683 1a0a 4889C7   		movq	%rax, %rdi
 2684 1a0d E8000000 		call	__cxa_begin_catch@PLT
 2684      00
 2685              	.LEHB171:
 2686 1a12 E8000000 		call	_ZN8UnitTest11CurrentTest7ResultsEv@PLT
 2686      00
  73:testConv.cpp  **** 	status = getHexNibble('b', &nibble);
 2687              		.loc 3 73 2 is_stmt 0 discriminator 3
 2688 1a17 488B18   		movq	(%rax), %rbx
 2689 1a1a E8000000 		call	_ZN8UnitTest11CurrentTest7DetailsEv@PLT
 2689      00
  73:testConv.cpp  **** 	status = getHexNibble('b', &nibble);
 2690              		.loc 3 73 2 discriminator 11
 2691 1a1f 488B08   		movq	(%rax), %rcx
 2692 1a22 488D45C0 		leaq	-64(%rbp), %rax
 2693 1a26 BA490000 		movl	$73, %edx
 2693      00
 2694 1a2b 4889CE   		movq	%rcx, %rsi
 2695 1a2e 4889C7   		movq	%rax, %rdi
 2696 1a31 E8000000 		call	_ZN8UnitTest11TestDetailsC1ERKS0_i@PLT
 2696      00
  73:testConv.cpp  **** 	status = getHexNibble('b', &nibble);
 2697              		.loc 3 73 2 discriminator 15
 2698 1a36 488D45C0 		leaq	-64(%rbp), %rax
 2699 1a3a 488D1500 		leaq	.LC14(%rip), %rdx
 2699      000000
 2700 1a41 4889C6   		movq	%rax, %rsi
 2701 1a44 4889DF   		movq	%rbx, %rdi
 2702 1a47 E8000000 		call	_ZN8UnitTest11TestResults13OnTestFailureERKNS_11TestDetailsEPKc@PLT
 2702      00
 2703              	.LEHE171:
 2704              	.LEHB172:
  73:testConv.cpp  **** 	status = getHexNibble('b', &nibble);
 2705              		.loc 3 73 2 discriminator 17
 2706 1a4c E8000000 		call	__cxa_end_catch@PLT
 2706      00
 2707              	.LEHE172:
 2708 1a51 E949EFFF 		jmp	.L111
 2708      FF
 2709              	.L214:
 2710 1a56 F30F1EFA 		endbr64
  73:testConv.cpp  **** 	status = getHexNibble('b', &nibble);
 2711              		.loc 3 73 2
 2712 1a5a 4889C3   		movq	%rax, %rbx
 2713 1a5d E8000000 		call	__cxa_end_catch@PLT
 2713      00
 2714 1a62 4889D8   		movq	%rbx, %rax
 2715 1a65 4889C7   		movq	%rax, %rdi
 2716              	.LEHB173:
 2717 1a68 E8000000 		call	_Unwind_Resume@PLT
 2717      00
 2718              	.LEHE173:
 2719              	.L215:
 2720 1a6d F30F1EFA 		endbr64
  75:testConv.cpp  **** 	CHECK_EQUAL(11, nibble);
 2721              		.loc 3 75 2 is_stmt 1
 2722 1a71 4889C7   		movq	%rax, %rdi
 2723 1a74 E8000000 		call	__cxa_begin_catch@PLT
 2723      00
 2724              	.LEHB174:
 2725 1a79 E8000000 		call	_ZN8UnitTest11CurrentTest7ResultsEv@PLT
 2725      00
  75:testConv.cpp  **** 	CHECK_EQUAL(11, nibble);
 2726              		.loc 3 75 2 is_stmt 0 discriminator 3
 2727 1a7e 488B18   		movq	(%rax), %rbx
 2728 1a81 E8000000 		call	_ZN8UnitTest11CurrentTest7DetailsEv@PLT
 2728      00
  75:testConv.cpp  **** 	CHECK_EQUAL(11, nibble);
 2729              		.loc 3 75 2 discriminator 11
 2730 1a86 488B08   		movq	(%rax), %rcx
 2731 1a89 488D45C0 		leaq	-64(%rbp), %rax
 2732 1a8d BA4B0000 		movl	$75, %edx
 2732      00
 2733 1a92 4889CE   		movq	%rcx, %rsi
 2734 1a95 4889C7   		movq	%rax, %rdi
 2735 1a98 E8000000 		call	_ZN8UnitTest11TestDetailsC1ERKS0_i@PLT
 2735      00
  75:testConv.cpp  **** 	CHECK_EQUAL(11, nibble);
 2736              		.loc 3 75 2 discriminator 15
 2737 1a9d 488D45C0 		leaq	-64(%rbp), %rax
 2738 1aa1 488D1500 		leaq	.LC3(%rip), %rdx
 2738      000000
 2739 1aa8 4889C6   		movq	%rax, %rsi
 2740 1aab 4889DF   		movq	%rbx, %rdi
 2741 1aae E8000000 		call	_ZN8UnitTest11TestResults13OnTestFailureERKNS_11TestDetailsEPKc@PLT
 2741      00
 2742              	.LEHE174:
 2743              	.LEHB175:
  75:testConv.cpp  **** 	CHECK_EQUAL(11, nibble);
 2744              		.loc 3 75 2 discriminator 17
 2745 1ab3 E8000000 		call	__cxa_end_catch@PLT
 2745      00
 2746              	.LEHE175:
 2747 1ab8 E932EFFF 		jmp	.L114
 2747      FF
 2748              	.L216:
 2749 1abd F30F1EFA 		endbr64
  75:testConv.cpp  **** 	CHECK_EQUAL(11, nibble);
 2750              		.loc 3 75 2
 2751 1ac1 4889C3   		movq	%rax, %rbx
 2752 1ac4 E8000000 		call	__cxa_end_catch@PLT
 2752      00
 2753 1ac9 4889D8   		movq	%rbx, %rax
 2754 1acc 4889C7   		movq	%rax, %rdi
 2755              	.LEHB176:
 2756 1acf E8000000 		call	_Unwind_Resume@PLT
 2756      00
 2757              	.LEHE176:
 2758              	.L217:
 2759 1ad4 F30F1EFA 		endbr64
  76:testConv.cpp  **** 	status = getHexNibble('c', &nibble);
 2760              		.loc 3 76 2 is_stmt 1
 2761 1ad8 4889C7   		movq	%rax, %rdi
 2762 1adb E8000000 		call	__cxa_begin_catch@PLT
 2762      00
 2763              	.LEHB177:
 2764 1ae0 E8000000 		call	_ZN8UnitTest11CurrentTest7ResultsEv@PLT
 2764      00
  76:testConv.cpp  **** 	status = getHexNibble('c', &nibble);
 2765              		.loc 3 76 2 is_stmt 0 discriminator 3
 2766 1ae5 488B18   		movq	(%rax), %rbx
 2767 1ae8 E8000000 		call	_ZN8UnitTest11CurrentTest7DetailsEv@PLT
 2767      00
  76:testConv.cpp  **** 	status = getHexNibble('c', &nibble);
 2768              		.loc 3 76 2 discriminator 11
 2769 1aed 488B08   		movq	(%rax), %rcx
 2770 1af0 488D45C0 		leaq	-64(%rbp), %rax
 2771 1af4 BA4C0000 		movl	$76, %edx
 2771      00
 2772 1af9 4889CE   		movq	%rcx, %rsi
 2773 1afc 4889C7   		movq	%rax, %rdi
 2774 1aff E8000000 		call	_ZN8UnitTest11TestDetailsC1ERKS0_i@PLT
 2774      00
  76:testConv.cpp  **** 	status = getHexNibble('c', &nibble);
 2775              		.loc 3 76 2 discriminator 15
 2776 1b04 488D45C0 		leaq	-64(%rbp), %rax
 2777 1b08 488D1500 		leaq	.LC15(%rip), %rdx
 2777      000000
 2778 1b0f 4889C6   		movq	%rax, %rsi
 2779 1b12 4889DF   		movq	%rbx, %rdi
 2780 1b15 E8000000 		call	_ZN8UnitTest11TestResults13OnTestFailureERKNS_11TestDetailsEPKc@PLT
 2780      00
 2781              	.LEHE177:
 2782              	.LEHB178:
  76:testConv.cpp  **** 	status = getHexNibble('c', &nibble);
 2783              		.loc 3 76 2 discriminator 17
 2784 1b1a E8000000 		call	__cxa_end_catch@PLT
 2784      00
 2785              	.LEHE178:
 2786 1b1f E90AEFFF 		jmp	.L117
 2786      FF
 2787              	.L218:
 2788 1b24 F30F1EFA 		endbr64
  76:testConv.cpp  **** 	status = getHexNibble('c', &nibble);
 2789              		.loc 3 76 2
 2790 1b28 4889C3   		movq	%rax, %rbx
 2791 1b2b E8000000 		call	__cxa_end_catch@PLT
 2791      00
 2792 1b30 4889D8   		movq	%rbx, %rax
 2793 1b33 4889C7   		movq	%rax, %rdi
 2794              	.LEHB179:
 2795 1b36 E8000000 		call	_Unwind_Resume@PLT
 2795      00
 2796              	.LEHE179:
 2797              	.L219:
 2798 1b3b F30F1EFA 		endbr64
  78:testConv.cpp  **** 	CHECK_EQUAL(12, nibble);
 2799              		.loc 3 78 2 is_stmt 1
 2800 1b3f 4889C7   		movq	%rax, %rdi
 2801 1b42 E8000000 		call	__cxa_begin_catch@PLT
 2801      00
 2802              	.LEHB180:
 2803 1b47 E8000000 		call	_ZN8UnitTest11CurrentTest7ResultsEv@PLT
 2803      00
  78:testConv.cpp  **** 	CHECK_EQUAL(12, nibble);
 2804              		.loc 3 78 2 is_stmt 0 discriminator 3
 2805 1b4c 488B18   		movq	(%rax), %rbx
 2806 1b4f E8000000 		call	_ZN8UnitTest11CurrentTest7DetailsEv@PLT
 2806      00
  78:testConv.cpp  **** 	CHECK_EQUAL(12, nibble);
 2807              		.loc 3 78 2 discriminator 11
 2808 1b54 488B08   		movq	(%rax), %rcx
 2809 1b57 488D45C0 		leaq	-64(%rbp), %rax
 2810 1b5b BA4E0000 		movl	$78, %edx
 2810      00
 2811 1b60 4889CE   		movq	%rcx, %rsi
 2812 1b63 4889C7   		movq	%rax, %rdi
 2813 1b66 E8000000 		call	_ZN8UnitTest11TestDetailsC1ERKS0_i@PLT
 2813      00
  78:testConv.cpp  **** 	CHECK_EQUAL(12, nibble);
 2814              		.loc 3 78 2 discriminator 15
 2815 1b6b 488D45C0 		leaq	-64(%rbp), %rax
 2816 1b6f 488D1500 		leaq	.LC3(%rip), %rdx
 2816      000000
 2817 1b76 4889C6   		movq	%rax, %rsi
 2818 1b79 4889DF   		movq	%rbx, %rdi
 2819 1b7c E8000000 		call	_ZN8UnitTest11TestResults13OnTestFailureERKNS_11TestDetailsEPKc@PLT
 2819      00
 2820              	.LEHE180:
 2821              	.LEHB181:
  78:testConv.cpp  **** 	CHECK_EQUAL(12, nibble);
 2822              		.loc 3 78 2 discriminator 17
 2823 1b81 E8000000 		call	__cxa_end_catch@PLT
 2823      00
 2824              	.LEHE181:
 2825 1b86 E9F3EEFF 		jmp	.L120
 2825      FF
 2826              	.L220:
 2827 1b8b F30F1EFA 		endbr64
  78:testConv.cpp  **** 	CHECK_EQUAL(12, nibble);
 2828              		.loc 3 78 2
 2829 1b8f 4889C3   		movq	%rax, %rbx
 2830 1b92 E8000000 		call	__cxa_end_catch@PLT
 2830      00
 2831 1b97 4889D8   		movq	%rbx, %rax
 2832 1b9a 4889C7   		movq	%rax, %rdi
 2833              	.LEHB182:
 2834 1b9d E8000000 		call	_Unwind_Resume@PLT
 2834      00
 2835              	.LEHE182:
 2836              	.L221:
 2837 1ba2 F30F1EFA 		endbr64
  79:testConv.cpp  **** 	status = getHexNibble('d', &nibble);
 2838              		.loc 3 79 2 is_stmt 1
 2839 1ba6 4889C7   		movq	%rax, %rdi
 2840 1ba9 E8000000 		call	__cxa_begin_catch@PLT
 2840      00
 2841              	.LEHB183:
 2842 1bae E8000000 		call	_ZN8UnitTest11CurrentTest7ResultsEv@PLT
 2842      00
  79:testConv.cpp  **** 	status = getHexNibble('d', &nibble);
 2843              		.loc 3 79 2 is_stmt 0 discriminator 3
 2844 1bb3 488B18   		movq	(%rax), %rbx
 2845 1bb6 E8000000 		call	_ZN8UnitTest11CurrentTest7DetailsEv@PLT
 2845      00
  79:testConv.cpp  **** 	status = getHexNibble('d', &nibble);
 2846              		.loc 3 79 2 discriminator 11
 2847 1bbb 488B08   		movq	(%rax), %rcx
 2848 1bbe 488D45C0 		leaq	-64(%rbp), %rax
 2849 1bc2 BA4F0000 		movl	$79, %edx
 2849      00
 2850 1bc7 4889CE   		movq	%rcx, %rsi
 2851 1bca 4889C7   		movq	%rax, %rdi
 2852 1bcd E8000000 		call	_ZN8UnitTest11TestDetailsC1ERKS0_i@PLT
 2852      00
  79:testConv.cpp  **** 	status = getHexNibble('d', &nibble);
 2853              		.loc 3 79 2 discriminator 15
 2854 1bd2 488D45C0 		leaq	-64(%rbp), %rax
 2855 1bd6 488D1500 		leaq	.LC16(%rip), %rdx
 2855      000000
 2856 1bdd 4889C6   		movq	%rax, %rsi
 2857 1be0 4889DF   		movq	%rbx, %rdi
 2858 1be3 E8000000 		call	_ZN8UnitTest11TestResults13OnTestFailureERKNS_11TestDetailsEPKc@PLT
 2858      00
 2859              	.LEHE183:
 2860              	.LEHB184:
  79:testConv.cpp  **** 	status = getHexNibble('d', &nibble);
 2861              		.loc 3 79 2 discriminator 17
 2862 1be8 E8000000 		call	__cxa_end_catch@PLT
 2862      00
 2863              	.LEHE184:
 2864 1bed E9CBEEFF 		jmp	.L123
 2864      FF
 2865              	.L222:
 2866 1bf2 F30F1EFA 		endbr64
  79:testConv.cpp  **** 	status = getHexNibble('d', &nibble);
 2867              		.loc 3 79 2
 2868 1bf6 4889C3   		movq	%rax, %rbx
 2869 1bf9 E8000000 		call	__cxa_end_catch@PLT
 2869      00
 2870 1bfe 4889D8   		movq	%rbx, %rax
 2871 1c01 4889C7   		movq	%rax, %rdi
 2872              	.LEHB185:
 2873 1c04 E8000000 		call	_Unwind_Resume@PLT
 2873      00
 2874              	.LEHE185:
 2875              	.L223:
 2876 1c09 F30F1EFA 		endbr64
  81:testConv.cpp  **** 	CHECK_EQUAL(13, nibble);
 2877              		.loc 3 81 2 is_stmt 1
 2878 1c0d 4889C7   		movq	%rax, %rdi
 2879 1c10 E8000000 		call	__cxa_begin_catch@PLT
 2879      00
 2880              	.LEHB186:
 2881 1c15 E8000000 		call	_ZN8UnitTest11CurrentTest7ResultsEv@PLT
 2881      00
  81:testConv.cpp  **** 	CHECK_EQUAL(13, nibble);
 2882              		.loc 3 81 2 is_stmt 0 discriminator 3
 2883 1c1a 488B18   		movq	(%rax), %rbx
 2884 1c1d E8000000 		call	_ZN8UnitTest11CurrentTest7DetailsEv@PLT
 2884      00
  81:testConv.cpp  **** 	CHECK_EQUAL(13, nibble);
 2885              		.loc 3 81 2 discriminator 11
 2886 1c22 488B08   		movq	(%rax), %rcx
 2887 1c25 488D45C0 		leaq	-64(%rbp), %rax
 2888 1c29 BA510000 		movl	$81, %edx
 2888      00
 2889 1c2e 4889CE   		movq	%rcx, %rsi
 2890 1c31 4889C7   		movq	%rax, %rdi
 2891 1c34 E8000000 		call	_ZN8UnitTest11TestDetailsC1ERKS0_i@PLT
 2891      00
  81:testConv.cpp  **** 	CHECK_EQUAL(13, nibble);
 2892              		.loc 3 81 2 discriminator 15
 2893 1c39 488D45C0 		leaq	-64(%rbp), %rax
 2894 1c3d 488D1500 		leaq	.LC3(%rip), %rdx
 2894      000000
 2895 1c44 4889C6   		movq	%rax, %rsi
 2896 1c47 4889DF   		movq	%rbx, %rdi
 2897 1c4a E8000000 		call	_ZN8UnitTest11TestResults13OnTestFailureERKNS_11TestDetailsEPKc@PLT
 2897      00
 2898              	.LEHE186:
 2899              	.LEHB187:
  81:testConv.cpp  **** 	CHECK_EQUAL(13, nibble);
 2900              		.loc 3 81 2 discriminator 17
 2901 1c4f E8000000 		call	__cxa_end_catch@PLT
 2901      00
 2902              	.LEHE187:
 2903 1c54 E9B4EEFF 		jmp	.L126
 2903      FF
 2904              	.L224:
 2905 1c59 F30F1EFA 		endbr64
  81:testConv.cpp  **** 	CHECK_EQUAL(13, nibble);
 2906              		.loc 3 81 2
 2907 1c5d 4889C3   		movq	%rax, %rbx
 2908 1c60 E8000000 		call	__cxa_end_catch@PLT
 2908      00
 2909 1c65 4889D8   		movq	%rbx, %rax
 2910 1c68 4889C7   		movq	%rax, %rdi
 2911              	.LEHB188:
 2912 1c6b E8000000 		call	_Unwind_Resume@PLT
 2912      00
 2913              	.LEHE188:
 2914              	.L225:
 2915 1c70 F30F1EFA 		endbr64
  82:testConv.cpp  **** 	status = getHexNibble('e', &nibble);
 2916              		.loc 3 82 2 is_stmt 1
 2917 1c74 4889C7   		movq	%rax, %rdi
 2918 1c77 E8000000 		call	__cxa_begin_catch@PLT
 2918      00
 2919              	.LEHB189:
 2920 1c7c E8000000 		call	_ZN8UnitTest11CurrentTest7ResultsEv@PLT
 2920      00
  82:testConv.cpp  **** 	status = getHexNibble('e', &nibble);
 2921              		.loc 3 82 2 is_stmt 0 discriminator 3
 2922 1c81 488B18   		movq	(%rax), %rbx
 2923 1c84 E8000000 		call	_ZN8UnitTest11CurrentTest7DetailsEv@PLT
 2923      00
  82:testConv.cpp  **** 	status = getHexNibble('e', &nibble);
 2924              		.loc 3 82 2 discriminator 11
 2925 1c89 488B08   		movq	(%rax), %rcx
 2926 1c8c 488D45C0 		leaq	-64(%rbp), %rax
 2927 1c90 BA520000 		movl	$82, %edx
 2927      00
 2928 1c95 4889CE   		movq	%rcx, %rsi
 2929 1c98 4889C7   		movq	%rax, %rdi
 2930 1c9b E8000000 		call	_ZN8UnitTest11TestDetailsC1ERKS0_i@PLT
 2930      00
  82:testConv.cpp  **** 	status = getHexNibble('e', &nibble);
 2931              		.loc 3 82 2 discriminator 15
 2932 1ca0 488D45C0 		leaq	-64(%rbp), %rax
 2933 1ca4 488D1500 		leaq	.LC17(%rip), %rdx
 2933      000000
 2934 1cab 4889C6   		movq	%rax, %rsi
 2935 1cae 4889DF   		movq	%rbx, %rdi
 2936 1cb1 E8000000 		call	_ZN8UnitTest11TestResults13OnTestFailureERKNS_11TestDetailsEPKc@PLT
 2936      00
 2937              	.LEHE189:
 2938              	.LEHB190:
  82:testConv.cpp  **** 	status = getHexNibble('e', &nibble);
 2939              		.loc 3 82 2 discriminator 17
 2940 1cb6 E8000000 		call	__cxa_end_catch@PLT
 2940      00
 2941              	.LEHE190:
 2942 1cbb E98CEEFF 		jmp	.L129
 2942      FF
 2943              	.L226:
 2944 1cc0 F30F1EFA 		endbr64
  82:testConv.cpp  **** 	status = getHexNibble('e', &nibble);
 2945              		.loc 3 82 2
 2946 1cc4 4889C3   		movq	%rax, %rbx
 2947 1cc7 E8000000 		call	__cxa_end_catch@PLT
 2947      00
 2948 1ccc 4889D8   		movq	%rbx, %rax
 2949 1ccf 4889C7   		movq	%rax, %rdi
 2950              	.LEHB191:
 2951 1cd2 E8000000 		call	_Unwind_Resume@PLT
 2951      00
 2952              	.LEHE191:
 2953              	.L227:
 2954 1cd7 F30F1EFA 		endbr64
  84:testConv.cpp  **** 	CHECK_EQUAL(14, nibble);
 2955              		.loc 3 84 2 is_stmt 1
 2956 1cdb 4889C7   		movq	%rax, %rdi
 2957 1cde E8000000 		call	__cxa_begin_catch@PLT
 2957      00
 2958              	.LEHB192:
 2959 1ce3 E8000000 		call	_ZN8UnitTest11CurrentTest7ResultsEv@PLT
 2959      00
  84:testConv.cpp  **** 	CHECK_EQUAL(14, nibble);
 2960              		.loc 3 84 2 is_stmt 0 discriminator 3
 2961 1ce8 488B18   		movq	(%rax), %rbx
 2962 1ceb E8000000 		call	_ZN8UnitTest11CurrentTest7DetailsEv@PLT
 2962      00
  84:testConv.cpp  **** 	CHECK_EQUAL(14, nibble);
 2963              		.loc 3 84 2 discriminator 11
 2964 1cf0 488B08   		movq	(%rax), %rcx
 2965 1cf3 488D45C0 		leaq	-64(%rbp), %rax
 2966 1cf7 BA540000 		movl	$84, %edx
 2966      00
 2967 1cfc 4889CE   		movq	%rcx, %rsi
 2968 1cff 4889C7   		movq	%rax, %rdi
 2969 1d02 E8000000 		call	_ZN8UnitTest11TestDetailsC1ERKS0_i@PLT
 2969      00
  84:testConv.cpp  **** 	CHECK_EQUAL(14, nibble);
 2970              		.loc 3 84 2 discriminator 15
 2971 1d07 488D45C0 		leaq	-64(%rbp), %rax
 2972 1d0b 488D1500 		leaq	.LC3(%rip), %rdx
 2972      000000
 2973 1d12 4889C6   		movq	%rax, %rsi
 2974 1d15 4889DF   		movq	%rbx, %rdi
 2975 1d18 E8000000 		call	_ZN8UnitTest11TestResults13OnTestFailureERKNS_11TestDetailsEPKc@PLT
 2975      00
 2976              	.LEHE192:
 2977              	.LEHB193:
  84:testConv.cpp  **** 	CHECK_EQUAL(14, nibble);
 2978              		.loc 3 84 2 discriminator 17
 2979 1d1d E8000000 		call	__cxa_end_catch@PLT
 2979      00
 2980              	.LEHE193:
 2981 1d22 E975EEFF 		jmp	.L132
 2981      FF
 2982              	.L228:
 2983 1d27 F30F1EFA 		endbr64
  84:testConv.cpp  **** 	CHECK_EQUAL(14, nibble);
 2984              		.loc 3 84 2
 2985 1d2b 4889C3   		movq	%rax, %rbx
 2986 1d2e E8000000 		call	__cxa_end_catch@PLT
 2986      00
 2987 1d33 4889D8   		movq	%rbx, %rax
 2988 1d36 4889C7   		movq	%rax, %rdi
 2989              	.LEHB194:
 2990 1d39 E8000000 		call	_Unwind_Resume@PLT
 2990      00
 2991              	.LEHE194:
 2992              	.L229:
 2993 1d3e F30F1EFA 		endbr64
  85:testConv.cpp  **** 	status = getHexNibble('f', &nibble);
 2994              		.loc 3 85 2 is_stmt 1
 2995 1d42 4889C7   		movq	%rax, %rdi
 2996 1d45 E8000000 		call	__cxa_begin_catch@PLT
 2996      00
 2997              	.LEHB195:
 2998 1d4a E8000000 		call	_ZN8UnitTest11CurrentTest7ResultsEv@PLT
 2998      00
  85:testConv.cpp  **** 	status = getHexNibble('f', &nibble);
 2999              		.loc 3 85 2 is_stmt 0 discriminator 3
 3000 1d4f 488B18   		movq	(%rax), %rbx
 3001 1d52 E8000000 		call	_ZN8UnitTest11CurrentTest7DetailsEv@PLT
 3001      00
  85:testConv.cpp  **** 	status = getHexNibble('f', &nibble);
 3002              		.loc 3 85 2 discriminator 11
 3003 1d57 488B08   		movq	(%rax), %rcx
 3004 1d5a 488D45C0 		leaq	-64(%rbp), %rax
 3005 1d5e BA550000 		movl	$85, %edx
 3005      00
 3006 1d63 4889CE   		movq	%rcx, %rsi
 3007 1d66 4889C7   		movq	%rax, %rdi
 3008 1d69 E8000000 		call	_ZN8UnitTest11TestDetailsC1ERKS0_i@PLT
 3008      00
  85:testConv.cpp  **** 	status = getHexNibble('f', &nibble);
 3009              		.loc 3 85 2 discriminator 15
 3010 1d6e 488D45C0 		leaq	-64(%rbp), %rax
 3011 1d72 488D1500 		leaq	.LC18(%rip), %rdx
 3011      000000
 3012 1d79 4889C6   		movq	%rax, %rsi
 3013 1d7c 4889DF   		movq	%rbx, %rdi
 3014 1d7f E8000000 		call	_ZN8UnitTest11TestResults13OnTestFailureERKNS_11TestDetailsEPKc@PLT
 3014      00
 3015              	.LEHE195:
 3016              	.LEHB196:
  85:testConv.cpp  **** 	status = getHexNibble('f', &nibble);
 3017              		.loc 3 85 2 discriminator 17
 3018 1d84 E8000000 		call	__cxa_end_catch@PLT
 3018      00
 3019              	.LEHE196:
 3020 1d89 E94DEEFF 		jmp	.L135
 3020      FF
 3021              	.L230:
 3022 1d8e F30F1EFA 		endbr64
  85:testConv.cpp  **** 	status = getHexNibble('f', &nibble);
 3023              		.loc 3 85 2
 3024 1d92 4889C3   		movq	%rax, %rbx
 3025 1d95 E8000000 		call	__cxa_end_catch@PLT
 3025      00
 3026 1d9a 4889D8   		movq	%rbx, %rax
 3027 1d9d 4889C7   		movq	%rax, %rdi
 3028              	.LEHB197:
 3029 1da0 E8000000 		call	_Unwind_Resume@PLT
 3029      00
 3030              	.LEHE197:
 3031              	.L231:
 3032 1da5 F30F1EFA 		endbr64
  87:testConv.cpp  **** 	CHECK_EQUAL(15, nibble);
 3033              		.loc 3 87 2 is_stmt 1
 3034 1da9 4889C7   		movq	%rax, %rdi
 3035 1dac E8000000 		call	__cxa_begin_catch@PLT
 3035      00
 3036              	.LEHB198:
 3037 1db1 E8000000 		call	_ZN8UnitTest11CurrentTest7ResultsEv@PLT
 3037      00
  87:testConv.cpp  **** 	CHECK_EQUAL(15, nibble);
 3038              		.loc 3 87 2 is_stmt 0 discriminator 3
 3039 1db6 488B18   		movq	(%rax), %rbx
 3040 1db9 E8000000 		call	_ZN8UnitTest11CurrentTest7DetailsEv@PLT
 3040      00
  87:testConv.cpp  **** 	CHECK_EQUAL(15, nibble);
 3041              		.loc 3 87 2 discriminator 11
 3042 1dbe 488B08   		movq	(%rax), %rcx
 3043 1dc1 488D45C0 		leaq	-64(%rbp), %rax
 3044 1dc5 BA570000 		movl	$87, %edx
 3044      00
 3045 1dca 4889CE   		movq	%rcx, %rsi
 3046 1dcd 4889C7   		movq	%rax, %rdi
 3047 1dd0 E8000000 		call	_ZN8UnitTest11TestDetailsC1ERKS0_i@PLT
 3047      00
  87:testConv.cpp  **** 	CHECK_EQUAL(15, nibble);
 3048              		.loc 3 87 2 discriminator 15
 3049 1dd5 488D45C0 		leaq	-64(%rbp), %rax
 3050 1dd9 488D1500 		leaq	.LC3(%rip), %rdx
 3050      000000
 3051 1de0 4889C6   		movq	%rax, %rsi
 3052 1de3 4889DF   		movq	%rbx, %rdi
 3053 1de6 E8000000 		call	_ZN8UnitTest11TestResults13OnTestFailureERKNS_11TestDetailsEPKc@PLT
 3053      00
 3054              	.LEHE198:
 3055              	.LEHB199:
  87:testConv.cpp  **** 	CHECK_EQUAL(15, nibble);
 3056              		.loc 3 87 2 discriminator 17
 3057 1deb E8000000 		call	__cxa_end_catch@PLT
 3057      00
 3058              	.LEHE199:
 3059 1df0 E936EEFF 		jmp	.L138
 3059      FF
 3060              	.L232:
 3061 1df5 F30F1EFA 		endbr64
  87:testConv.cpp  **** 	CHECK_EQUAL(15, nibble);
 3062              		.loc 3 87 2
 3063 1df9 4889C3   		movq	%rax, %rbx
 3064 1dfc E8000000 		call	__cxa_end_catch@PLT
 3064      00
 3065 1e01 4889D8   		movq	%rbx, %rax
 3066 1e04 4889C7   		movq	%rax, %rdi
 3067              	.LEHB200:
 3068 1e07 E8000000 		call	_Unwind_Resume@PLT
 3068      00
 3069              	.LEHE200:
 3070              	.L233:
 3071 1e0c F30F1EFA 		endbr64
  88:testConv.cpp  **** 	status = getHexNibble('.', &nibble);
 3072              		.loc 3 88 2 is_stmt 1
 3073 1e10 4889C7   		movq	%rax, %rdi
 3074 1e13 E8000000 		call	__cxa_begin_catch@PLT
 3074      00
 3075              	.LEHB201:
 3076 1e18 E8000000 		call	_ZN8UnitTest11CurrentTest7ResultsEv@PLT
 3076      00
  88:testConv.cpp  **** 	status = getHexNibble('.', &nibble);
 3077              		.loc 3 88 2 is_stmt 0 discriminator 3
 3078 1e1d 488B18   		movq	(%rax), %rbx
 3079 1e20 E8000000 		call	_ZN8UnitTest11CurrentTest7DetailsEv@PLT
 3079      00
  88:testConv.cpp  **** 	status = getHexNibble('.', &nibble);
 3080              		.loc 3 88 2 discriminator 11
 3081 1e25 488B08   		movq	(%rax), %rcx
 3082 1e28 488D45C0 		leaq	-64(%rbp), %rax
 3083 1e2c BA580000 		movl	$88, %edx
 3083      00
 3084 1e31 4889CE   		movq	%rcx, %rsi
 3085 1e34 4889C7   		movq	%rax, %rdi
 3086 1e37 E8000000 		call	_ZN8UnitTest11TestDetailsC1ERKS0_i@PLT
 3086      00
  88:testConv.cpp  **** 	status = getHexNibble('.', &nibble);
 3087              		.loc 3 88 2 discriminator 15
 3088 1e3c 488D45C0 		leaq	-64(%rbp), %rax
 3089 1e40 488D1500 		leaq	.LC19(%rip), %rdx
 3089      000000
 3090 1e47 4889C6   		movq	%rax, %rsi
 3091 1e4a 4889DF   		movq	%rbx, %rdi
 3092 1e4d E8000000 		call	_ZN8UnitTest11TestResults13OnTestFailureERKNS_11TestDetailsEPKc@PLT
 3092      00
 3093              	.LEHE201:
 3094              	.LEHB202:
  88:testConv.cpp  **** 	status = getHexNibble('.', &nibble);
 3095              		.loc 3 88 2 discriminator 17
 3096 1e52 E8000000 		call	__cxa_end_catch@PLT
 3096      00
 3097              	.LEHE202:
 3098 1e57 E90EEEFF 		jmp	.L141
 3098      FF
 3099              	.L234:
 3100 1e5c F30F1EFA 		endbr64
  88:testConv.cpp  **** 	status = getHexNibble('.', &nibble);
 3101              		.loc 3 88 2
 3102 1e60 4889C3   		movq	%rax, %rbx
 3103 1e63 E8000000 		call	__cxa_end_catch@PLT
 3103      00
 3104 1e68 4889D8   		movq	%rbx, %rax
 3105 1e6b 4889C7   		movq	%rax, %rdi
 3106              	.LEHB203:
 3107 1e6e E8000000 		call	_Unwind_Resume@PLT
 3107      00
 3108              	.LEHE203:
 3109              	.L235:
 3110 1e73 F30F1EFA 		endbr64
  90:testConv.cpp  **** }
 3111              		.loc 3 90 2 is_stmt 1
 3112 1e77 4889C7   		movq	%rax, %rdi
 3113 1e7a E8000000 		call	__cxa_begin_catch@PLT
 3113      00
 3114              	.LEHB204:
 3115 1e7f E8000000 		call	_ZN8UnitTest11CurrentTest7ResultsEv@PLT
 3115      00
  90:testConv.cpp  **** }
 3116              		.loc 3 90 2 is_stmt 0 discriminator 3
 3117 1e84 488B18   		movq	(%rax), %rbx
 3118 1e87 E8000000 		call	_ZN8UnitTest11CurrentTest7DetailsEv@PLT
 3118      00
  90:testConv.cpp  **** }
 3119              		.loc 3 90 2 discriminator 11
 3120 1e8c 488B08   		movq	(%rax), %rcx
 3121 1e8f 488D45C0 		leaq	-64(%rbp), %rax
 3122 1e93 BA5A0000 		movl	$90, %edx
 3122      00
 3123 1e98 4889CE   		movq	%rcx, %rsi
 3124 1e9b 4889C7   		movq	%rax, %rdi
 3125 1e9e E8000000 		call	_ZN8UnitTest11TestDetailsC1ERKS0_i@PLT
 3125      00
  90:testConv.cpp  **** }
 3126              		.loc 3 90 2 discriminator 15
 3127 1ea3 488D45C0 		leaq	-64(%rbp), %rax
 3128 1ea7 488D1500 		leaq	.LC20(%rip), %rdx
 3128      000000
 3129 1eae 4889C6   		movq	%rax, %rsi
 3130 1eb1 4889DF   		movq	%rbx, %rdi
 3131 1eb4 E8000000 		call	_ZN8UnitTest11TestResults13OnTestFailureERKNS_11TestDetailsEPKc@PLT
 3131      00
 3132              	.LEHE204:
 3133              	.LEHB205:
  90:testConv.cpp  **** }
 3134              		.loc 3 90 2 discriminator 17
 3135 1eb9 E8000000 		call	__cxa_end_catch@PLT
 3135      00
 3136              	.LEHE205:
 3137              		.loc 3 91 1 is_stmt 1 discriminator 17
 3138 1ebe EB17     		jmp	.L10
 3139              	.L236:
 3140 1ec0 F30F1EFA 		endbr64
  90:testConv.cpp  **** }
 3141              		.loc 3 90 2
 3142 1ec4 4889C3   		movq	%rax, %rbx
 3143 1ec7 E8000000 		call	__cxa_end_catch@PLT
 3143      00
 3144 1ecc 4889D8   		movq	%rbx, %rax
 3145 1ecf 4889C7   		movq	%rax, %rdi
 3146              	.LEHB206:
 3147 1ed2 E8000000 		call	_Unwind_Resume@PLT
 3147      00
 3148              	.LEHE206:
 3149              	.L10:
 3150              		.loc 3 91 1
 3151 1ed7 488B45E8 		movq	-24(%rbp), %rax
 3152 1edb 64482B04 		subq	%fs:40, %rax
 3152      25280000 
 3152      00
 3153 1ee4 7405     		je	.L146
 3154 1ee6 E8000000 		call	__stack_chk_fail@PLT
 3154      00
 3155              	.L146:
 3156 1eeb 488B5DF8 		movq	-8(%rbp), %rbx
 3157 1eef C9       		leave
 3158              		.cfi_def_cfa 7, 8
 3159 1ef0 C3       		ret
 3160              		.cfi_endproc
 3161              	.LFE1148:
 3162              		.section	.gcc_except_table,"a",@progbits
 3163              		.align 4
 3164              	.LLSDA1148:
 3165 0000 FF       		.byte	0xff
 3166 0001 9B       		.byte	0x9b
 3167 0002 D808     		.uleb128 .LLSDATT1148-.LLSDATTD1148
 3168              	.LLSDATTD1148:
 3169 0004 01       		.byte	0x1
 3170 0005 CE08     		.uleb128 .LLSDACSE1148-.LLSDACSB1148
 3171              	.LLSDACSB1148:
 3172 0007 2C       		.uleb128 .LEHB4-.LFB1148
 3173 0008 05       		.uleb128 .LEHE4-.LEHB4
 3174 0009 00       		.uleb128 0
 3175 000a 00       		.uleb128 0
 3176 000b 34       		.uleb128 .LEHB5-.LFB1148
 3177 000c 3C       		.uleb128 .LEHE5-.LEHB5
 3178 000d BF19     		.uleb128 .L147-.LFB1148
 3179 000f 01       		.uleb128 0x1
 3180 0010 70       		.uleb128 .LEHB6-.LFB1148
 3181 0011 3F       		.uleb128 .LEHE6-.LEHB6
 3182 0012 A61A     		.uleb128 .L149-.LFB1148
 3183 0014 01       		.uleb128 0x1
 3184 0015 BB01     		.uleb128 .LEHB7-.LFB1148
 3185 0017 05       		.uleb128 .LEHE7-.LEHB7
 3186 0018 00       		.uleb128 0
 3187 0019 00       		.uleb128 0
 3188 001a C301     		.uleb128 .LEHB8-.LFB1148
 3189 001c 3C       		.uleb128 .LEHE8-.LEHB8
 3190 001d 8D1B     		.uleb128 .L151-.LFB1148
 3191 001f 01       		.uleb128 0x1
 3192 0020 FF01     		.uleb128 .LEHB9-.LFB1148
 3193 0022 3F       		.uleb128 .LEHE9-.LEHB9
 3194 0023 F41B     		.uleb128 .L153-.LFB1148
 3195 0025 01       		.uleb128 0x1
 3196 0026 CA02     		.uleb128 .LEHB10-.LFB1148
 3197 0028 05       		.uleb128 .LEHE10-.LEHB10
 3198 0029 00       		.uleb128 0
 3199 002a 00       		.uleb128 0
 3200 002b D202     		.uleb128 .LEHB11-.LFB1148
 3201 002d 3C       		.uleb128 .LEHE11-.LEHB11
 3202 002e DB1C     		.uleb128 .L155-.LFB1148
 3203 0030 01       		.uleb128 0x1
 3204 0031 8E03     		.uleb128 .LEHB12-.LFB1148
 3205 0033 3F       		.uleb128 .LEHE12-.LEHB12
 3206 0034 C21D     		.uleb128 .L157-.LFB1148
 3207 0036 01       		.uleb128 0x1
 3208 0037 D903     		.uleb128 .LEHB13-.LFB1148
 3209 0039 05       		.uleb128 .LEHE13-.LEHB13
 3210 003a 00       		.uleb128 0
 3211 003b 00       		.uleb128 0
 3212 003c E103     		.uleb128 .LEHB14-.LFB1148
 3213 003e 3C       		.uleb128 .LEHE14-.LEHB14
 3214 003f A91E     		.uleb128 .L159-.LFB1148
 3215 0041 01       		.uleb128 0x1
 3216 0042 9D04     		.uleb128 .LEHB15-.LFB1148
 3217 0044 3F       		.uleb128 .LEHE15-.LEHB15
 3218 0045 901F     		.uleb128 .L161-.LFB1148
 3219 0047 01       		.uleb128 0x1
 3220 0048 E804     		.uleb128 .LEHB16-.LFB1148
 3221 004a 05       		.uleb128 .LEHE16-.LEHB16
 3222 004b 00       		.uleb128 0
 3223 004c 00       		.uleb128 0
 3224 004d F004     		.uleb128 .LEHB17-.LFB1148
 3225 004f 3C       		.uleb128 .LEHE17-.LEHB17
 3226 0050 F71F     		.uleb128 .L163-.LFB1148
 3227 0052 01       		.uleb128 0x1
 3228 0053 AC05     		.uleb128 .LEHB18-.LFB1148
 3229 0055 3F       		.uleb128 .LEHE18-.LEHB18
 3230 0056 DE20     		.uleb128 .L165-.LFB1148
 3231 0058 01       		.uleb128 0x1
 3232 0059 F705     		.uleb128 .LEHB19-.LFB1148
 3233 005b 05       		.uleb128 .LEHE19-.LEHB19
 3234 005c 00       		.uleb128 0
 3235 005d 00       		.uleb128 0
 3236 005e FF05     		.uleb128 .LEHB20-.LFB1148
 3237 0060 3C       		.uleb128 .LEHE20-.LEHB20
 3238 0061 C521     		.uleb128 .L167-.LFB1148
 3239 0063 01       		.uleb128 0x1
 3240 0064 BB06     		.uleb128 .LEHB21-.LFB1148
 3241 0066 3F       		.uleb128 .LEHE21-.LEHB21
 3242 0067 AC22     		.uleb128 .L169-.LFB1148
 3243 0069 01       		.uleb128 0x1
 3244 006a 8607     		.uleb128 .LEHB22-.LFB1148
 3245 006c 05       		.uleb128 .LEHE22-.LEHB22
 3246 006d 00       		.uleb128 0
 3247 006e 00       		.uleb128 0
 3248 006f 8E07     		.uleb128 .LEHB23-.LFB1148
 3249 0071 3C       		.uleb128 .LEHE23-.LEHB23
 3250 0072 9323     		.uleb128 .L171-.LFB1148
 3251 0074 01       		.uleb128 0x1
 3252 0075 CA07     		.uleb128 .LEHB24-.LFB1148
 3253 0077 3F       		.uleb128 .LEHE24-.LEHB24
 3254 0078 FA23     		.uleb128 .L173-.LFB1148
 3255 007a 01       		.uleb128 0x1
 3256 007b 9508     		.uleb128 .LEHB25-.LFB1148
 3257 007d 05       		.uleb128 .LEHE25-.LEHB25
 3258 007e 00       		.uleb128 0
 3259 007f 00       		.uleb128 0
 3260 0080 9D08     		.uleb128 .LEHB26-.LFB1148
 3261 0082 3C       		.uleb128 .LEHE26-.LEHB26
 3262 0083 E124     		.uleb128 .L175-.LFB1148
 3263 0085 01       		.uleb128 0x1
 3264 0086 D908     		.uleb128 .LEHB27-.LFB1148
 3265 0088 3F       		.uleb128 .LEHE27-.LEHB27
 3266 0089 C825     		.uleb128 .L177-.LFB1148
 3267 008b 01       		.uleb128 0x1
 3268 008c A409     		.uleb128 .LEHB28-.LFB1148
 3269 008e 05       		.uleb128 .LEHE28-.LEHB28
 3270 008f 00       		.uleb128 0
 3271 0090 00       		.uleb128 0
 3272 0091 AC09     		.uleb128 .LEHB29-.LFB1148
 3273 0093 3C       		.uleb128 .LEHE29-.LEHB29
 3274 0094 AF26     		.uleb128 .L179-.LFB1148
 3275 0096 01       		.uleb128 0x1
 3276 0097 E809     		.uleb128 .LEHB30-.LFB1148
 3277 0099 3F       		.uleb128 .LEHE30-.LEHB30
 3278 009a 9627     		.uleb128 .L181-.LFB1148
 3279 009c 01       		.uleb128 0x1
 3280 009d B30A     		.uleb128 .LEHB31-.LFB1148
 3281 009f 05       		.uleb128 .LEHE31-.LEHB31
 3282 00a0 00       		.uleb128 0
 3283 00a1 00       		.uleb128 0
 3284 00a2 BB0A     		.uleb128 .LEHB32-.LFB1148
 3285 00a4 3C       		.uleb128 .LEHE32-.LEHB32
 3286 00a5 FD27     		.uleb128 .L183-.LFB1148
 3287 00a7 01       		.uleb128 0x1
 3288 00a8 F70A     		.uleb128 .LEHB33-.LFB1148
 3289 00aa 3F       		.uleb128 .LEHE33-.LEHB33
 3290 00ab E428     		.uleb128 .L185-.LFB1148
 3291 00ad 01       		.uleb128 0x1
 3292 00ae C20B     		.uleb128 .LEHB34-.LFB1148
 3293 00b0 05       		.uleb128 .LEHE34-.LEHB34
 3294 00b1 00       		.uleb128 0
 3295 00b2 00       		.uleb128 0
 3296 00b3 CA0B     		.uleb128 .LEHB35-.LFB1148
 3297 00b5 3C       		.uleb128 .LEHE35-.LEHB35
 3298 00b6 CB29     		.uleb128 .L187-.LFB1148
 3299 00b8 01       		.uleb128 0x1
 3300 00b9 860C     		.uleb128 .LEHB36-.LFB1148
 3301 00bb 3F       		.uleb128 .LEHE36-.LEHB36
 3302 00bc B22A     		.uleb128 .L189-.LFB1148
 3303 00be 01       		.uleb128 0x1
 3304 00bf D10C     		.uleb128 .LEHB37-.LFB1148
 3305 00c1 05       		.uleb128 .LEHE37-.LEHB37
 3306 00c2 00       		.uleb128 0
 3307 00c3 00       		.uleb128 0
 3308 00c4 D90C     		.uleb128 .LEHB38-.LFB1148
 3309 00c6 3C       		.uleb128 .LEHE38-.LEHB38
 3310 00c7 992B     		.uleb128 .L191-.LFB1148
 3311 00c9 01       		.uleb128 0x1
 3312 00ca 950D     		.uleb128 .LEHB39-.LFB1148
 3313 00cc 3F       		.uleb128 .LEHE39-.LEHB39
 3314 00cd 802C     		.uleb128 .L193-.LFB1148
 3315 00cf 01       		.uleb128 0x1
 3316 00d0 E00D     		.uleb128 .LEHB40-.LFB1148
 3317 00d2 05       		.uleb128 .LEHE40-.LEHB40
 3318 00d3 00       		.uleb128 0
 3319 00d4 00       		.uleb128 0
 3320 00d5 E80D     		.uleb128 .LEHB41-.LFB1148
 3321 00d7 3C       		.uleb128 .LEHE41-.LEHB41
 3322 00d8 E72C     		.uleb128 .L195-.LFB1148
 3323 00da 01       		.uleb128 0x1
 3324 00db A40E     		.uleb128 .LEHB42-.LFB1148
 3325 00dd 3F       		.uleb128 .LEHE42-.LEHB42
 3326 00de CE2D     		.uleb128 .L197-.LFB1148
 3327 00e0 01       		.uleb128 0x1
 3328 00e1 EF0E     		.uleb128 .LEHB43-.LFB1148
 3329 00e3 05       		.uleb128 .LEHE43-.LEHB43
 3330 00e4 00       		.uleb128 0
 3331 00e5 00       		.uleb128 0
 3332 00e6 F70E     		.uleb128 .LEHB44-.LFB1148
 3333 00e8 3C       		.uleb128 .LEHE44-.LEHB44
 3334 00e9 B52E     		.uleb128 .L199-.LFB1148
 3335 00eb 01       		.uleb128 0x1
 3336 00ec B30F     		.uleb128 .LEHB45-.LFB1148
 3337 00ee 3F       		.uleb128 .LEHE45-.LEHB45
 3338 00ef 9C2F     		.uleb128 .L201-.LFB1148
 3339 00f1 01       		.uleb128 0x1
 3340 00f2 FE0F     		.uleb128 .LEHB46-.LFB1148
 3341 00f4 05       		.uleb128 .LEHE46-.LEHB46
 3342 00f5 00       		.uleb128 0
 3343 00f6 00       		.uleb128 0
 3344 00f7 8610     		.uleb128 .LEHB47-.LFB1148
 3345 00f9 3C       		.uleb128 .LEHE47-.LEHB47
 3346 00fa 8330     		.uleb128 .L203-.LFB1148
 3347 00fc 01       		.uleb128 0x1
 3348 00fd C210     		.uleb128 .LEHB48-.LFB1148
 3349 00ff 3F       		.uleb128 .LEHE48-.LEHB48
 3350 0100 EA30     		.uleb128 .L205-.LFB1148
 3351 0102 01       		.uleb128 0x1
 3352 0103 8D11     		.uleb128 .LEHB49-.LFB1148
 3353 0105 05       		.uleb128 .LEHE49-.LEHB49
 3354 0106 00       		.uleb128 0
 3355 0107 00       		.uleb128 0
 3356 0108 9511     		.uleb128 .LEHB50-.LFB1148
 3357 010a 3C       		.uleb128 .LEHE50-.LEHB50
 3358 010b D131     		.uleb128 .L207-.LFB1148
 3359 010d 01       		.uleb128 0x1
 3360 010e D111     		.uleb128 .LEHB51-.LFB1148
 3361 0110 3F       		.uleb128 .LEHE51-.LEHB51
 3362 0111 B832     		.uleb128 .L209-.LFB1148
 3363 0113 01       		.uleb128 0x1
 3364 0114 9C12     		.uleb128 .LEHB52-.LFB1148
 3365 0116 05       		.uleb128 .LEHE52-.LEHB52
 3366 0117 00       		.uleb128 0
 3367 0118 00       		.uleb128 0
 3368 0119 A412     		.uleb128 .LEHB53-.LFB1148
 3369 011b 3C       		.uleb128 .LEHE53-.LEHB53
 3370 011c 9F33     		.uleb128 .L211-.LFB1148
 3371 011e 01       		.uleb128 0x1
 3372 011f E012     		.uleb128 .LEHB54-.LFB1148
 3373 0121 3F       		.uleb128 .LEHE54-.LEHB54
 3374 0122 8634     		.uleb128 .L213-.LFB1148
 3375 0124 01       		.uleb128 0x1
 3376 0125 AB13     		.uleb128 .LEHB55-.LFB1148
 3377 0127 05       		.uleb128 .LEHE55-.LEHB55
 3378 0128 00       		.uleb128 0
 3379 0129 00       		.uleb128 0
 3380 012a B313     		.uleb128 .LEHB56-.LFB1148
 3381 012c 3C       		.uleb128 .LEHE56-.LEHB56
 3382 012d ED34     		.uleb128 .L215-.LFB1148
 3383 012f 01       		.uleb128 0x1
 3384 0130 EF13     		.uleb128 .LEHB57-.LFB1148
 3385 0132 3F       		.uleb128 .LEHE57-.LEHB57
 3386 0133 D435     		.uleb128 .L217-.LFB1148
 3387 0135 01       		.uleb128 0x1
 3388 0136 BA14     		.uleb128 .LEHB58-.LFB1148
 3389 0138 05       		.uleb128 .LEHE58-.LEHB58
 3390 0139 00       		.uleb128 0
 3391 013a 00       		.uleb128 0
 3392 013b C214     		.uleb128 .LEHB59-.LFB1148
 3393 013d 3C       		.uleb128 .LEHE59-.LEHB59
 3394 013e BB36     		.uleb128 .L219-.LFB1148
 3395 0140 01       		.uleb128 0x1
 3396 0141 FE14     		.uleb128 .LEHB60-.LFB1148
 3397 0143 3F       		.uleb128 .LEHE60-.LEHB60
 3398 0144 A237     		.uleb128 .L221-.LFB1148
 3399 0146 01       		.uleb128 0x1
 3400 0147 C915     		.uleb128 .LEHB61-.LFB1148
 3401 0149 05       		.uleb128 .LEHE61-.LEHB61
 3402 014a 00       		.uleb128 0
 3403 014b 00       		.uleb128 0
 3404 014c D115     		.uleb128 .LEHB62-.LFB1148
 3405 014e 3C       		.uleb128 .LEHE62-.LEHB62
 3406 014f 8938     		.uleb128 .L223-.LFB1148
 3407 0151 01       		.uleb128 0x1
 3408 0152 8D16     		.uleb128 .LEHB63-.LFB1148
 3409 0154 3F       		.uleb128 .LEHE63-.LEHB63
 3410 0155 F038     		.uleb128 .L225-.LFB1148
 3411 0157 01       		.uleb128 0x1
 3412 0158 D816     		.uleb128 .LEHB64-.LFB1148
 3413 015a 05       		.uleb128 .LEHE64-.LEHB64
 3414 015b 00       		.uleb128 0
 3415 015c 00       		.uleb128 0
 3416 015d E016     		.uleb128 .LEHB65-.LFB1148
 3417 015f 3C       		.uleb128 .LEHE65-.LEHB65
 3418 0160 D739     		.uleb128 .L227-.LFB1148
 3419 0162 01       		.uleb128 0x1
 3420 0163 9C17     		.uleb128 .LEHB66-.LFB1148
 3421 0165 3F       		.uleb128 .LEHE66-.LEHB66
 3422 0166 BE3A     		.uleb128 .L229-.LFB1148
 3423 0168 01       		.uleb128 0x1
 3424 0169 E717     		.uleb128 .LEHB67-.LFB1148
 3425 016b 05       		.uleb128 .LEHE67-.LEHB67
 3426 016c 00       		.uleb128 0
 3427 016d 00       		.uleb128 0
 3428 016e EF17     		.uleb128 .LEHB68-.LFB1148
 3429 0170 3C       		.uleb128 .LEHE68-.LEHB68
 3430 0171 A53B     		.uleb128 .L231-.LFB1148
 3431 0173 01       		.uleb128 0x1
 3432 0174 AB18     		.uleb128 .LEHB69-.LFB1148
 3433 0176 3F       		.uleb128 .LEHE69-.LEHB69
 3434 0177 8C3C     		.uleb128 .L233-.LFB1148
 3435 0179 01       		.uleb128 0x1
 3436 017a F618     		.uleb128 .LEHB70-.LFB1148
 3437 017c 05       		.uleb128 .LEHE70-.LEHB70
 3438 017d 00       		.uleb128 0
 3439 017e 00       		.uleb128 0
 3440 017f FE18     		.uleb128 .LEHB71-.LFB1148
 3441 0181 3C       		.uleb128 .LEHE71-.LEHB71
 3442 0182 F33C     		.uleb128 .L235-.LFB1148
 3443 0184 01       		.uleb128 0x1
 3444 0185 CB19     		.uleb128 .LEHB72-.LFB1148
 3445 0187 3A       		.uleb128 .LEHE72-.LEHB72
 3446 0188 8F1A     		.uleb128 .L148-.LFB1148
 3447 018a 00       		.uleb128 0
 3448 018b 851A     		.uleb128 .LEHB73-.LFB1148
 3449 018d 05       		.uleb128 .LEHE73-.LEHB73
 3450 018e 00       		.uleb128 0
 3451 018f 00       		.uleb128 0
 3452 0190 A11A     		.uleb128 .LEHB74-.LFB1148
 3453 0192 05       		.uleb128 .LEHE74-.LEHB74
 3454 0193 00       		.uleb128 0
 3455 0194 00       		.uleb128 0
 3456 0195 B21A     		.uleb128 .LEHB75-.LFB1148
 3457 0197 3A       		.uleb128 .LEHE75-.LEHB75
 3458 0198 F61A     		.uleb128 .L150-.LFB1148
 3459 019a 00       		.uleb128 0
 3460 019b EC1A     		.uleb128 .LEHB76-.LFB1148
 3461 019d 05       		.uleb128 .LEHE76-.LEHB76
 3462 019e 00       		.uleb128 0
 3463 019f 00       		.uleb128 0
 3464 01a0 881B     		.uleb128 .LEHB77-.LFB1148
 3465 01a2 05       		.uleb128 .LEHE77-.LEHB77
 3466 01a3 00       		.uleb128 0
 3467 01a4 00       		.uleb128 0
 3468 01a5 991B     		.uleb128 .LEHB78-.LFB1148
 3469 01a7 3A       		.uleb128 .LEHE78-.LEHB78
 3470 01a8 DD1B     		.uleb128 .L152-.LFB1148
 3471 01aa 00       		.uleb128 0
 3472 01ab D31B     		.uleb128 .LEHB79-.LFB1148
 3473 01ad 05       		.uleb128 .LEHE79-.LEHB79
 3474 01ae 00       		.uleb128 0
 3475 01af 00       		.uleb128 0
 3476 01b0 EF1B     		.uleb128 .LEHB80-.LFB1148
 3477 01b2 05       		.uleb128 .LEHE80-.LEHB80
 3478 01b3 00       		.uleb128 0
 3479 01b4 00       		.uleb128 0
 3480 01b5 801C     		.uleb128 .LEHB81-.LFB1148
 3481 01b7 3A       		.uleb128 .LEHE81-.LEHB81
 3482 01b8 C41C     		.uleb128 .L154-.LFB1148
 3483 01ba 00       		.uleb128 0
 3484 01bb BA1C     		.uleb128 .LEHB82-.LFB1148
 3485 01bd 05       		.uleb128 .LEHE82-.LEHB82
 3486 01be 00       		.uleb128 0
 3487 01bf 00       		.uleb128 0
 3488 01c0 D61C     		.uleb128 .LEHB83-.LFB1148
 3489 01c2 05       		.uleb128 .LEHE83-.LEHB83
 3490 01c3 00       		.uleb128 0
 3491 01c4 00       		.uleb128 0
 3492 01c5 E71C     		.uleb128 .LEHB84-.LFB1148
 3493 01c7 3A       		.uleb128 .LEHE84-.LEHB84
 3494 01c8 AB1D     		.uleb128 .L156-.LFB1148
 3495 01ca 00       		.uleb128 0
 3496 01cb A11D     		.uleb128 .LEHB85-.LFB1148
 3497 01cd 05       		.uleb128 .LEHE85-.LEHB85
 3498 01ce 00       		.uleb128 0
 3499 01cf 00       		.uleb128 0
 3500 01d0 BD1D     		.uleb128 .LEHB86-.LFB1148
 3501 01d2 05       		.uleb128 .LEHE86-.LEHB86
 3502 01d3 00       		.uleb128 0
 3503 01d4 00       		.uleb128 0
 3504 01d5 CE1D     		.uleb128 .LEHB87-.LFB1148
 3505 01d7 3A       		.uleb128 .LEHE87-.LEHB87
 3506 01d8 921E     		.uleb128 .L158-.LFB1148
 3507 01da 00       		.uleb128 0
 3508 01db 881E     		.uleb128 .LEHB88-.LFB1148
 3509 01dd 05       		.uleb128 .LEHE88-.LEHB88
 3510 01de 00       		.uleb128 0
 3511 01df 00       		.uleb128 0
 3512 01e0 A41E     		.uleb128 .LEHB89-.LFB1148
 3513 01e2 05       		.uleb128 .LEHE89-.LEHB89
 3514 01e3 00       		.uleb128 0
 3515 01e4 00       		.uleb128 0
 3516 01e5 B51E     		.uleb128 .LEHB90-.LFB1148
 3517 01e7 3A       		.uleb128 .LEHE90-.LEHB90
 3518 01e8 F91E     		.uleb128 .L160-.LFB1148
 3519 01ea 00       		.uleb128 0
 3520 01eb EF1E     		.uleb128 .LEHB91-.LFB1148
 3521 01ed 05       		.uleb128 .LEHE91-.LEHB91
 3522 01ee 00       		.uleb128 0
 3523 01ef 00       		.uleb128 0
 3524 01f0 8B1F     		.uleb128 .LEHB92-.LFB1148
 3525 01f2 05       		.uleb128 .LEHE92-.LEHB92
 3526 01f3 00       		.uleb128 0
 3527 01f4 00       		.uleb128 0
 3528 01f5 9C1F     		.uleb128 .LEHB93-.LFB1148
 3529 01f7 3A       		.uleb128 .LEHE93-.LEHB93
 3530 01f8 E01F     		.uleb128 .L162-.LFB1148
 3531 01fa 00       		.uleb128 0
 3532 01fb D61F     		.uleb128 .LEHB94-.LFB1148
 3533 01fd 05       		.uleb128 .LEHE94-.LEHB94
 3534 01fe 00       		.uleb128 0
 3535 01ff 00       		.uleb128 0
 3536 0200 F21F     		.uleb128 .LEHB95-.LFB1148
 3537 0202 05       		.uleb128 .LEHE95-.LEHB95
 3538 0203 00       		.uleb128 0
 3539 0204 00       		.uleb128 0
 3540 0205 8320     		.uleb128 .LEHB96-.LFB1148
 3541 0207 3A       		.uleb128 .LEHE96-.LEHB96
 3542 0208 C720     		.uleb128 .L164-.LFB1148
 3543 020a 00       		.uleb128 0
 3544 020b BD20     		.uleb128 .LEHB97-.LFB1148
 3545 020d 05       		.uleb128 .LEHE97-.LEHB97
 3546 020e 00       		.uleb128 0
 3547 020f 00       		.uleb128 0
 3548 0210 D920     		.uleb128 .LEHB98-.LFB1148
 3549 0212 05       		.uleb128 .LEHE98-.LEHB98
 3550 0213 00       		.uleb128 0
 3551 0214 00       		.uleb128 0
 3552 0215 EA20     		.uleb128 .LEHB99-.LFB1148
 3553 0217 3A       		.uleb128 .LEHE99-.LEHB99
 3554 0218 AE21     		.uleb128 .L166-.LFB1148
 3555 021a 00       		.uleb128 0
 3556 021b A421     		.uleb128 .LEHB100-.LFB1148
 3557 021d 05       		.uleb128 .LEHE100-.LEHB100
 3558 021e 00       		.uleb128 0
 3559 021f 00       		.uleb128 0
 3560 0220 C021     		.uleb128 .LEHB101-.LFB1148
 3561 0222 05       		.uleb128 .LEHE101-.LEHB101
 3562 0223 00       		.uleb128 0
 3563 0224 00       		.uleb128 0
 3564 0225 D121     		.uleb128 .LEHB102-.LFB1148
 3565 0227 3A       		.uleb128 .LEHE102-.LEHB102
 3566 0228 9522     		.uleb128 .L168-.LFB1148
 3567 022a 00       		.uleb128 0
 3568 022b 8B22     		.uleb128 .LEHB103-.LFB1148
 3569 022d 05       		.uleb128 .LEHE103-.LEHB103
 3570 022e 00       		.uleb128 0
 3571 022f 00       		.uleb128 0
 3572 0230 A722     		.uleb128 .LEHB104-.LFB1148
 3573 0232 05       		.uleb128 .LEHE104-.LEHB104
 3574 0233 00       		.uleb128 0
 3575 0234 00       		.uleb128 0
 3576 0235 B822     		.uleb128 .LEHB105-.LFB1148
 3577 0237 3A       		.uleb128 .LEHE105-.LEHB105
 3578 0238 FC22     		.uleb128 .L170-.LFB1148
 3579 023a 00       		.uleb128 0
 3580 023b F222     		.uleb128 .LEHB106-.LFB1148
 3581 023d 05       		.uleb128 .LEHE106-.LEHB106
 3582 023e 00       		.uleb128 0
 3583 023f 00       		.uleb128 0
 3584 0240 8E23     		.uleb128 .LEHB107-.LFB1148
 3585 0242 05       		.uleb128 .LEHE107-.LEHB107
 3586 0243 00       		.uleb128 0
 3587 0244 00       		.uleb128 0
 3588 0245 9F23     		.uleb128 .LEHB108-.LFB1148
 3589 0247 3A       		.uleb128 .LEHE108-.LEHB108
 3590 0248 E323     		.uleb128 .L172-.LFB1148
 3591 024a 00       		.uleb128 0
 3592 024b D923     		.uleb128 .LEHB109-.LFB1148
 3593 024d 05       		.uleb128 .LEHE109-.LEHB109
 3594 024e 00       		.uleb128 0
 3595 024f 00       		.uleb128 0
 3596 0250 F523     		.uleb128 .LEHB110-.LFB1148
 3597 0252 05       		.uleb128 .LEHE110-.LEHB110
 3598 0253 00       		.uleb128 0
 3599 0254 00       		.uleb128 0
 3600 0255 8624     		.uleb128 .LEHB111-.LFB1148
 3601 0257 3A       		.uleb128 .LEHE111-.LEHB111
 3602 0258 CA24     		.uleb128 .L174-.LFB1148
 3603 025a 00       		.uleb128 0
 3604 025b C024     		.uleb128 .LEHB112-.LFB1148
 3605 025d 05       		.uleb128 .LEHE112-.LEHB112
 3606 025e 00       		.uleb128 0
 3607 025f 00       		.uleb128 0
 3608 0260 DC24     		.uleb128 .LEHB113-.LFB1148
 3609 0262 05       		.uleb128 .LEHE113-.LEHB113
 3610 0263 00       		.uleb128 0
 3611 0264 00       		.uleb128 0
 3612 0265 ED24     		.uleb128 .LEHB114-.LFB1148
 3613 0267 3A       		.uleb128 .LEHE114-.LEHB114
 3614 0268 B125     		.uleb128 .L176-.LFB1148
 3615 026a 00       		.uleb128 0
 3616 026b A725     		.uleb128 .LEHB115-.LFB1148
 3617 026d 05       		.uleb128 .LEHE115-.LEHB115
 3618 026e 00       		.uleb128 0
 3619 026f 00       		.uleb128 0
 3620 0270 C325     		.uleb128 .LEHB116-.LFB1148
 3621 0272 05       		.uleb128 .LEHE116-.LEHB116
 3622 0273 00       		.uleb128 0
 3623 0274 00       		.uleb128 0
 3624 0275 D425     		.uleb128 .LEHB117-.LFB1148
 3625 0277 3A       		.uleb128 .LEHE117-.LEHB117
 3626 0278 9826     		.uleb128 .L178-.LFB1148
 3627 027a 00       		.uleb128 0
 3628 027b 8E26     		.uleb128 .LEHB118-.LFB1148
 3629 027d 05       		.uleb128 .LEHE118-.LEHB118
 3630 027e 00       		.uleb128 0
 3631 027f 00       		.uleb128 0
 3632 0280 AA26     		.uleb128 .LEHB119-.LFB1148
 3633 0282 05       		.uleb128 .LEHE119-.LEHB119
 3634 0283 00       		.uleb128 0
 3635 0284 00       		.uleb128 0
 3636 0285 BB26     		.uleb128 .LEHB120-.LFB1148
 3637 0287 3A       		.uleb128 .LEHE120-.LEHB120
 3638 0288 FF26     		.uleb128 .L180-.LFB1148
 3639 028a 00       		.uleb128 0
 3640 028b F526     		.uleb128 .LEHB121-.LFB1148
 3641 028d 05       		.uleb128 .LEHE121-.LEHB121
 3642 028e 00       		.uleb128 0
 3643 028f 00       		.uleb128 0
 3644 0290 9127     		.uleb128 .LEHB122-.LFB1148
 3645 0292 05       		.uleb128 .LEHE122-.LEHB122
 3646 0293 00       		.uleb128 0
 3647 0294 00       		.uleb128 0
 3648 0295 A227     		.uleb128 .LEHB123-.LFB1148
 3649 0297 3A       		.uleb128 .LEHE123-.LEHB123
 3650 0298 E627     		.uleb128 .L182-.LFB1148
 3651 029a 00       		.uleb128 0
 3652 029b DC27     		.uleb128 .LEHB124-.LFB1148
 3653 029d 05       		.uleb128 .LEHE124-.LEHB124
 3654 029e 00       		.uleb128 0
 3655 029f 00       		.uleb128 0
 3656 02a0 F827     		.uleb128 .LEHB125-.LFB1148
 3657 02a2 05       		.uleb128 .LEHE125-.LEHB125
 3658 02a3 00       		.uleb128 0
 3659 02a4 00       		.uleb128 0
 3660 02a5 8928     		.uleb128 .LEHB126-.LFB1148
 3661 02a7 3A       		.uleb128 .LEHE126-.LEHB126
 3662 02a8 CD28     		.uleb128 .L184-.LFB1148
 3663 02aa 00       		.uleb128 0
 3664 02ab C328     		.uleb128 .LEHB127-.LFB1148
 3665 02ad 05       		.uleb128 .LEHE127-.LEHB127
 3666 02ae 00       		.uleb128 0
 3667 02af 00       		.uleb128 0
 3668 02b0 DF28     		.uleb128 .LEHB128-.LFB1148
 3669 02b2 05       		.uleb128 .LEHE128-.LEHB128
 3670 02b3 00       		.uleb128 0
 3671 02b4 00       		.uleb128 0
 3672 02b5 F028     		.uleb128 .LEHB129-.LFB1148
 3673 02b7 3A       		.uleb128 .LEHE129-.LEHB129
 3674 02b8 B429     		.uleb128 .L186-.LFB1148
 3675 02ba 00       		.uleb128 0
 3676 02bb AA29     		.uleb128 .LEHB130-.LFB1148
 3677 02bd 05       		.uleb128 .LEHE130-.LEHB130
 3678 02be 00       		.uleb128 0
 3679 02bf 00       		.uleb128 0
 3680 02c0 C629     		.uleb128 .LEHB131-.LFB1148
 3681 02c2 05       		.uleb128 .LEHE131-.LEHB131
 3682 02c3 00       		.uleb128 0
 3683 02c4 00       		.uleb128 0
 3684 02c5 D729     		.uleb128 .LEHB132-.LFB1148
 3685 02c7 3A       		.uleb128 .LEHE132-.LEHB132
 3686 02c8 9B2A     		.uleb128 .L188-.LFB1148
 3687 02ca 00       		.uleb128 0
 3688 02cb 912A     		.uleb128 .LEHB133-.LFB1148
 3689 02cd 05       		.uleb128 .LEHE133-.LEHB133
 3690 02ce 00       		.uleb128 0
 3691 02cf 00       		.uleb128 0
 3692 02d0 AD2A     		.uleb128 .LEHB134-.LFB1148
 3693 02d2 05       		.uleb128 .LEHE134-.LEHB134
 3694 02d3 00       		.uleb128 0
 3695 02d4 00       		.uleb128 0
 3696 02d5 BE2A     		.uleb128 .LEHB135-.LFB1148
 3697 02d7 3A       		.uleb128 .LEHE135-.LEHB135
 3698 02d8 822B     		.uleb128 .L190-.LFB1148
 3699 02da 00       		.uleb128 0
 3700 02db F82A     		.uleb128 .LEHB136-.LFB1148
 3701 02dd 05       		.uleb128 .LEHE136-.LEHB136
 3702 02de 00       		.uleb128 0
 3703 02df 00       		.uleb128 0
 3704 02e0 942B     		.uleb128 .LEHB137-.LFB1148
 3705 02e2 05       		.uleb128 .LEHE137-.LEHB137
 3706 02e3 00       		.uleb128 0
 3707 02e4 00       		.uleb128 0
 3708 02e5 A52B     		.uleb128 .LEHB138-.LFB1148
 3709 02e7 3A       		.uleb128 .LEHE138-.LEHB138
 3710 02e8 E92B     		.uleb128 .L192-.LFB1148
 3711 02ea 00       		.uleb128 0
 3712 02eb DF2B     		.uleb128 .LEHB139-.LFB1148
 3713 02ed 05       		.uleb128 .LEHE139-.LEHB139
 3714 02ee 00       		.uleb128 0
 3715 02ef 00       		.uleb128 0
 3716 02f0 FB2B     		.uleb128 .LEHB140-.LFB1148
 3717 02f2 05       		.uleb128 .LEHE140-.LEHB140
 3718 02f3 00       		.uleb128 0
 3719 02f4 00       		.uleb128 0
 3720 02f5 8C2C     		.uleb128 .LEHB141-.LFB1148
 3721 02f7 3A       		.uleb128 .LEHE141-.LEHB141
 3722 02f8 D02C     		.uleb128 .L194-.LFB1148
 3723 02fa 00       		.uleb128 0
 3724 02fb C62C     		.uleb128 .LEHB142-.LFB1148
 3725 02fd 05       		.uleb128 .LEHE142-.LEHB142
 3726 02fe 00       		.uleb128 0
 3727 02ff 00       		.uleb128 0
 3728 0300 E22C     		.uleb128 .LEHB143-.LFB1148
 3729 0302 05       		.uleb128 .LEHE143-.LEHB143
 3730 0303 00       		.uleb128 0
 3731 0304 00       		.uleb128 0
 3732 0305 F32C     		.uleb128 .LEHB144-.LFB1148
 3733 0307 3A       		.uleb128 .LEHE144-.LEHB144
 3734 0308 B72D     		.uleb128 .L196-.LFB1148
 3735 030a 00       		.uleb128 0
 3736 030b AD2D     		.uleb128 .LEHB145-.LFB1148
 3737 030d 05       		.uleb128 .LEHE145-.LEHB145
 3738 030e 00       		.uleb128 0
 3739 030f 00       		.uleb128 0
 3740 0310 C92D     		.uleb128 .LEHB146-.LFB1148
 3741 0312 05       		.uleb128 .LEHE146-.LEHB146
 3742 0313 00       		.uleb128 0
 3743 0314 00       		.uleb128 0
 3744 0315 DA2D     		.uleb128 .LEHB147-.LFB1148
 3745 0317 3A       		.uleb128 .LEHE147-.LEHB147
 3746 0318 9E2E     		.uleb128 .L198-.LFB1148
 3747 031a 00       		.uleb128 0
 3748 031b 942E     		.uleb128 .LEHB148-.LFB1148
 3749 031d 05       		.uleb128 .LEHE148-.LEHB148
 3750 031e 00       		.uleb128 0
 3751 031f 00       		.uleb128 0
 3752 0320 B02E     		.uleb128 .LEHB149-.LFB1148
 3753 0322 05       		.uleb128 .LEHE149-.LEHB149
 3754 0323 00       		.uleb128 0
 3755 0324 00       		.uleb128 0
 3756 0325 C12E     		.uleb128 .LEHB150-.LFB1148
 3757 0327 3A       		.uleb128 .LEHE150-.LEHB150
 3758 0328 852F     		.uleb128 .L200-.LFB1148
 3759 032a 00       		.uleb128 0
 3760 032b FB2E     		.uleb128 .LEHB151-.LFB1148
 3761 032d 05       		.uleb128 .LEHE151-.LEHB151
 3762 032e 00       		.uleb128 0
 3763 032f 00       		.uleb128 0
 3764 0330 972F     		.uleb128 .LEHB152-.LFB1148
 3765 0332 05       		.uleb128 .LEHE152-.LEHB152
 3766 0333 00       		.uleb128 0
 3767 0334 00       		.uleb128 0
 3768 0335 A82F     		.uleb128 .LEHB153-.LFB1148
 3769 0337 3A       		.uleb128 .LEHE153-.LEHB153
 3770 0338 EC2F     		.uleb128 .L202-.LFB1148
 3771 033a 00       		.uleb128 0
 3772 033b E22F     		.uleb128 .LEHB154-.LFB1148
 3773 033d 05       		.uleb128 .LEHE154-.LEHB154
 3774 033e 00       		.uleb128 0
 3775 033f 00       		.uleb128 0
 3776 0340 FE2F     		.uleb128 .LEHB155-.LFB1148
 3777 0342 05       		.uleb128 .LEHE155-.LEHB155
 3778 0343 00       		.uleb128 0
 3779 0344 00       		.uleb128 0
 3780 0345 8F30     		.uleb128 .LEHB156-.LFB1148
 3781 0347 3A       		.uleb128 .LEHE156-.LEHB156
 3782 0348 D330     		.uleb128 .L204-.LFB1148
 3783 034a 00       		.uleb128 0
 3784 034b C930     		.uleb128 .LEHB157-.LFB1148
 3785 034d 05       		.uleb128 .LEHE157-.LEHB157
 3786 034e 00       		.uleb128 0
 3787 034f 00       		.uleb128 0
 3788 0350 E530     		.uleb128 .LEHB158-.LFB1148
 3789 0352 05       		.uleb128 .LEHE158-.LEHB158
 3790 0353 00       		.uleb128 0
 3791 0354 00       		.uleb128 0
 3792 0355 F630     		.uleb128 .LEHB159-.LFB1148
 3793 0357 3A       		.uleb128 .LEHE159-.LEHB159
 3794 0358 BA31     		.uleb128 .L206-.LFB1148
 3795 035a 00       		.uleb128 0
 3796 035b B031     		.uleb128 .LEHB160-.LFB1148
 3797 035d 05       		.uleb128 .LEHE160-.LEHB160
 3798 035e 00       		.uleb128 0
 3799 035f 00       		.uleb128 0
 3800 0360 CC31     		.uleb128 .LEHB161-.LFB1148
 3801 0362 05       		.uleb128 .LEHE161-.LEHB161
 3802 0363 00       		.uleb128 0
 3803 0364 00       		.uleb128 0
 3804 0365 DD31     		.uleb128 .LEHB162-.LFB1148
 3805 0367 3A       		.uleb128 .LEHE162-.LEHB162
 3806 0368 A132     		.uleb128 .L208-.LFB1148
 3807 036a 00       		.uleb128 0
 3808 036b 9732     		.uleb128 .LEHB163-.LFB1148
 3809 036d 05       		.uleb128 .LEHE163-.LEHB163
 3810 036e 00       		.uleb128 0
 3811 036f 00       		.uleb128 0
 3812 0370 B332     		.uleb128 .LEHB164-.LFB1148
 3813 0372 05       		.uleb128 .LEHE164-.LEHB164
 3814 0373 00       		.uleb128 0
 3815 0374 00       		.uleb128 0
 3816 0375 C432     		.uleb128 .LEHB165-.LFB1148
 3817 0377 3A       		.uleb128 .LEHE165-.LEHB165
 3818 0378 8833     		.uleb128 .L210-.LFB1148
 3819 037a 00       		.uleb128 0
 3820 037b FE32     		.uleb128 .LEHB166-.LFB1148
 3821 037d 05       		.uleb128 .LEHE166-.LEHB166
 3822 037e 00       		.uleb128 0
 3823 037f 00       		.uleb128 0
 3824 0380 9A33     		.uleb128 .LEHB167-.LFB1148
 3825 0382 05       		.uleb128 .LEHE167-.LEHB167
 3826 0383 00       		.uleb128 0
 3827 0384 00       		.uleb128 0
 3828 0385 AB33     		.uleb128 .LEHB168-.LFB1148
 3829 0387 3A       		.uleb128 .LEHE168-.LEHB168
 3830 0388 EF33     		.uleb128 .L212-.LFB1148
 3831 038a 00       		.uleb128 0
 3832 038b E533     		.uleb128 .LEHB169-.LFB1148
 3833 038d 05       		.uleb128 .LEHE169-.LEHB169
 3834 038e 00       		.uleb128 0
 3835 038f 00       		.uleb128 0
 3836 0390 8134     		.uleb128 .LEHB170-.LFB1148
 3837 0392 05       		.uleb128 .LEHE170-.LEHB170
 3838 0393 00       		.uleb128 0
 3839 0394 00       		.uleb128 0
 3840 0395 9234     		.uleb128 .LEHB171-.LFB1148
 3841 0397 3A       		.uleb128 .LEHE171-.LEHB171
 3842 0398 D634     		.uleb128 .L214-.LFB1148
 3843 039a 00       		.uleb128 0
 3844 039b CC34     		.uleb128 .LEHB172-.LFB1148
 3845 039d 05       		.uleb128 .LEHE172-.LEHB172
 3846 039e 00       		.uleb128 0
 3847 039f 00       		.uleb128 0
 3848 03a0 E834     		.uleb128 .LEHB173-.LFB1148
 3849 03a2 05       		.uleb128 .LEHE173-.LEHB173
 3850 03a3 00       		.uleb128 0
 3851 03a4 00       		.uleb128 0
 3852 03a5 F934     		.uleb128 .LEHB174-.LFB1148
 3853 03a7 3A       		.uleb128 .LEHE174-.LEHB174
 3854 03a8 BD35     		.uleb128 .L216-.LFB1148
 3855 03aa 00       		.uleb128 0
 3856 03ab B335     		.uleb128 .LEHB175-.LFB1148
 3857 03ad 05       		.uleb128 .LEHE175-.LEHB175
 3858 03ae 00       		.uleb128 0
 3859 03af 00       		.uleb128 0
 3860 03b0 CF35     		.uleb128 .LEHB176-.LFB1148
 3861 03b2 05       		.uleb128 .LEHE176-.LEHB176
 3862 03b3 00       		.uleb128 0
 3863 03b4 00       		.uleb128 0
 3864 03b5 E035     		.uleb128 .LEHB177-.LFB1148
 3865 03b7 3A       		.uleb128 .LEHE177-.LEHB177
 3866 03b8 A436     		.uleb128 .L218-.LFB1148
 3867 03ba 00       		.uleb128 0
 3868 03bb 9A36     		.uleb128 .LEHB178-.LFB1148
 3869 03bd 05       		.uleb128 .LEHE178-.LEHB178
 3870 03be 00       		.uleb128 0
 3871 03bf 00       		.uleb128 0
 3872 03c0 B636     		.uleb128 .LEHB179-.LFB1148
 3873 03c2 05       		.uleb128 .LEHE179-.LEHB179
 3874 03c3 00       		.uleb128 0
 3875 03c4 00       		.uleb128 0
 3876 03c5 C736     		.uleb128 .LEHB180-.LFB1148
 3877 03c7 3A       		.uleb128 .LEHE180-.LEHB180
 3878 03c8 8B37     		.uleb128 .L220-.LFB1148
 3879 03ca 00       		.uleb128 0
 3880 03cb 8137     		.uleb128 .LEHB181-.LFB1148
 3881 03cd 05       		.uleb128 .LEHE181-.LEHB181
 3882 03ce 00       		.uleb128 0
 3883 03cf 00       		.uleb128 0
 3884 03d0 9D37     		.uleb128 .LEHB182-.LFB1148
 3885 03d2 05       		.uleb128 .LEHE182-.LEHB182
 3886 03d3 00       		.uleb128 0
 3887 03d4 00       		.uleb128 0
 3888 03d5 AE37     		.uleb128 .LEHB183-.LFB1148
 3889 03d7 3A       		.uleb128 .LEHE183-.LEHB183
 3890 03d8 F237     		.uleb128 .L222-.LFB1148
 3891 03da 00       		.uleb128 0
 3892 03db E837     		.uleb128 .LEHB184-.LFB1148
 3893 03dd 05       		.uleb128 .LEHE184-.LEHB184
 3894 03de 00       		.uleb128 0
 3895 03df 00       		.uleb128 0
 3896 03e0 8438     		.uleb128 .LEHB185-.LFB1148
 3897 03e2 05       		.uleb128 .LEHE185-.LEHB185
 3898 03e3 00       		.uleb128 0
 3899 03e4 00       		.uleb128 0
 3900 03e5 9538     		.uleb128 .LEHB186-.LFB1148
 3901 03e7 3A       		.uleb128 .LEHE186-.LEHB186
 3902 03e8 D938     		.uleb128 .L224-.LFB1148
 3903 03ea 00       		.uleb128 0
 3904 03eb CF38     		.uleb128 .LEHB187-.LFB1148
 3905 03ed 05       		.uleb128 .LEHE187-.LEHB187
 3906 03ee 00       		.uleb128 0
 3907 03ef 00       		.uleb128 0
 3908 03f0 EB38     		.uleb128 .LEHB188-.LFB1148
 3909 03f2 05       		.uleb128 .LEHE188-.LEHB188
 3910 03f3 00       		.uleb128 0
 3911 03f4 00       		.uleb128 0
 3912 03f5 FC38     		.uleb128 .LEHB189-.LFB1148
 3913 03f7 3A       		.uleb128 .LEHE189-.LEHB189
 3914 03f8 C039     		.uleb128 .L226-.LFB1148
 3915 03fa 00       		.uleb128 0
 3916 03fb B639     		.uleb128 .LEHB190-.LFB1148
 3917 03fd 05       		.uleb128 .LEHE190-.LEHB190
 3918 03fe 00       		.uleb128 0
 3919 03ff 00       		.uleb128 0
 3920 0400 D239     		.uleb128 .LEHB191-.LFB1148
 3921 0402 05       		.uleb128 .LEHE191-.LEHB191
 3922 0403 00       		.uleb128 0
 3923 0404 00       		.uleb128 0
 3924 0405 E339     		.uleb128 .LEHB192-.LFB1148
 3925 0407 3A       		.uleb128 .LEHE192-.LEHB192
 3926 0408 A73A     		.uleb128 .L228-.LFB1148
 3927 040a 00       		.uleb128 0
 3928 040b 9D3A     		.uleb128 .LEHB193-.LFB1148
 3929 040d 05       		.uleb128 .LEHE193-.LEHB193
 3930 040e 00       		.uleb128 0
 3931 040f 00       		.uleb128 0
 3932 0410 B93A     		.uleb128 .LEHB194-.LFB1148
 3933 0412 05       		.uleb128 .LEHE194-.LEHB194
 3934 0413 00       		.uleb128 0
 3935 0414 00       		.uleb128 0
 3936 0415 CA3A     		.uleb128 .LEHB195-.LFB1148
 3937 0417 3A       		.uleb128 .LEHE195-.LEHB195
 3938 0418 8E3B     		.uleb128 .L230-.LFB1148
 3939 041a 00       		.uleb128 0
 3940 041b 843B     		.uleb128 .LEHB196-.LFB1148
 3941 041d 05       		.uleb128 .LEHE196-.LEHB196
 3942 041e 00       		.uleb128 0
 3943 041f 00       		.uleb128 0
 3944 0420 A03B     		.uleb128 .LEHB197-.LFB1148
 3945 0422 05       		.uleb128 .LEHE197-.LEHB197
 3946 0423 00       		.uleb128 0
 3947 0424 00       		.uleb128 0
 3948 0425 B13B     		.uleb128 .LEHB198-.LFB1148
 3949 0427 3A       		.uleb128 .LEHE198-.LEHB198
 3950 0428 F53B     		.uleb128 .L232-.LFB1148
 3951 042a 00       		.uleb128 0
 3952 042b EB3B     		.uleb128 .LEHB199-.LFB1148
 3953 042d 05       		.uleb128 .LEHE199-.LEHB199
 3954 042e 00       		.uleb128 0
 3955 042f 00       		.uleb128 0
 3956 0430 873C     		.uleb128 .LEHB200-.LFB1148
 3957 0432 05       		.uleb128 .LEHE200-.LEHB200
 3958 0433 00       		.uleb128 0
 3959 0434 00       		.uleb128 0
 3960 0435 983C     		.uleb128 .LEHB201-.LFB1148
 3961 0437 3A       		.uleb128 .LEHE201-.LEHB201
 3962 0438 DC3C     		.uleb128 .L234-.LFB1148
 3963 043a 00       		.uleb128 0
 3964 043b D23C     		.uleb128 .LEHB202-.LFB1148
 3965 043d 05       		.uleb128 .LEHE202-.LEHB202
 3966 043e 00       		.uleb128 0
 3967 043f 00       		.uleb128 0
 3968 0440 EE3C     		.uleb128 .LEHB203-.LFB1148
 3969 0442 05       		.uleb128 .LEHE203-.LEHB203
 3970 0443 00       		.uleb128 0
 3971 0444 00       		.uleb128 0
 3972 0445 FF3C     		.uleb128 .LEHB204-.LFB1148
 3973 0447 3A       		.uleb128 .LEHE204-.LEHB204
 3974 0448 C03D     		.uleb128 .L236-.LFB1148
 3975 044a 00       		.uleb128 0
 3976 044b B93D     		.uleb128 .LEHB205-.LFB1148
 3977 044d 05       		.uleb128 .LEHE205-.LEHB205
 3978 044e 00       		.uleb128 0
 3979 044f 00       		.uleb128 0
 3980 0450 D23D     		.uleb128 .LEHB206-.LFB1148
 3981 0452 05       		.uleb128 .LEHE206-.LEHB206
 3982 0453 00       		.uleb128 0
 3983 0454 00       		.uleb128 0
 3984              	.LLSDACSE1148:
 3985 0455 01       		.byte	0x1
 3986 0456 00       		.byte	0
 3987 0457 00       		.align 4
 3988 0458 00000000 		.long	0
 3989              	
 3990              	.LLSDATT1148:
 3991              		.text
 3993              		.section	.rodata
 3994              	.LC21:
 3995 0399 436F6E76 		.string	"Conv_testGetHexByte"
 3995      5F746573 
 3995      74476574 
 3995      48657842 
 3995      79746500 
 3996              		.section	.text._ZN23TestConv_testGetHexByteC2Ev,"axG",@progbits,_ZN23TestConv_testGetHexByteC5Ev,c
 3997              		.align 2
 3998              		.weak	_ZN23TestConv_testGetHexByteC2Ev
 4000              	_ZN23TestConv_testGetHexByteC2Ev:
 4001              	.LFB1150:
  92:testConv.cpp  **** 
  93:testConv.cpp  **** TEST(Conv_testGetHexByte) {
 4002              		.loc 3 93 1
 4003              		.cfi_startproc
 4004 0000 F30F1EFA 		endbr64
 4005 0004 55       		pushq	%rbp
 4006              		.cfi_def_cfa_offset 16
 4007              		.cfi_offset 6, -16
 4008 0005 4889E5   		movq	%rsp, %rbp
 4009              		.cfi_def_cfa_register 6
 4010 0008 53       		pushq	%rbx
 4011 0009 4883EC18 		subq	$24, %rsp
 4012              		.cfi_offset 3, -24
 4013 000d 48897DE8 		movq	%rdi, -24(%rbp)
 4014              	.LBB5:
 4015              		.loc 3 93 1
 4016 0011 488B5DE8 		movq	-24(%rbp), %rbx
 4017 0015 E8000000 		call	_ZN13UnitTestSuite12GetSuiteNameEv
 4017      00
 4018 001a 4889C2   		movq	%rax, %rdx
 4019 001d 41B85D00 		movl	$93, %r8d
 4019      0000
 4020 0023 488D0500 		leaq	.LC1(%rip), %rax
 4020      000000
 4021 002a 4889C1   		movq	%rax, %rcx
 4022 002d 488D0500 		leaq	.LC21(%rip), %rax
 4022      000000
 4023 0034 4889C6   		movq	%rax, %rsi
 4024 0037 4889DF   		movq	%rbx, %rdi
 4025 003a E8000000 		call	_ZN8UnitTest4TestC2EPKcS2_S2_i@PLT
 4025      00
 4026 003f 488D1500 		leaq	16+_ZTV23TestConv_testGetHexByte(%rip), %rdx
 4026      000000
 4027 0046 488B45E8 		movq	-24(%rbp), %rax
 4028 004a 488910   		movq	%rdx, (%rax)
 4029              	.LBE5:
 4030 004d 90       		nop
 4031 004e 488B5DF8 		movq	-8(%rbp), %rbx
 4032 0052 C9       		leave
 4033              		.cfi_def_cfa 7, 8
 4034 0053 C3       		ret
 4035              		.cfi_endproc
 4036              	.LFE1150:
 4038              		.weak	_ZN23TestConv_testGetHexByteC1Ev
 4039              		.set	_ZN23TestConv_testGetHexByteC1Ev,_ZN23TestConv_testGetHexByteC2Ev
 4040              		.globl	testConv_testGetHexByteInstance
 4041              		.bss
 4042 0039 00000000 		.align 32
 4042      000000
 4045              	testConv_testGetHexByteInstance:
 4046 0040 00000000 		.zero	56
 4046      00000000 
 4046      00000000 
 4046      00000000 
 4046      00000000 
 4047              		.globl	adderConv_testGetHexByte
 4050              	adderConv_testGetHexByte:
 4051 0078 00       		.zero	1
 4052              		.section	.rodata
 4053              	.LC22:
 4054 03ad 303000   		.string	"00"
 4055              	.LC23:
 4056 03b0 413500   		.string	"A5"
 4057              	.LC24:
 4058 03b3 464600   		.string	"FF"
 4059              	.LC25:
 4060 03b6 474600   		.string	"GF"
 4061              	.LC26:
 4062 03b9 464700   		.string	"FG"
 4063 03bc 00000000 		.align 8
 4064              	.LC27:
 4065 03c0 556E6861 		.string	"Unhandled exception in CHECK_EQUAL(0x00, byte)"
 4065      6E646C65 
 4065      64206578 
 4065      63657074 
 4065      696F6E20 
 4066 03ef 00       		.align 8
 4067              	.LC28:
 4068 03f0 556E6861 		.string	"Unhandled exception in CHECK_EQUAL(0xA5, byte)"
 4068      6E646C65 
 4068      64206578 
 4068      63657074 
 4068      696F6E20 
 4069 041f 00       		.align 8
 4070              	.LC29:
 4071 0420 556E6861 		.string	"Unhandled exception in CHECK_EQUAL(0xFF, byte)"
 4071      6E646C65 
 4071      64206578 
 4071      63657074 
 4071      696F6E20 
 4072              		.text
 4073 1ef1 90       		.align 2
 4074              		.globl	_ZNK23TestConv_testGetHexByte7RunImplEv
 4076              	_ZNK23TestConv_testGetHexByte7RunImplEv:
 4077              	.LFB1152:
 4078              		.loc 3 93 27
 4079              		.cfi_startproc
 4080              		.cfi_personality 0x9b,DW.ref.__gxx_personality_v0
 4081              		.cfi_lsda 0x1b,.LLSDA1152
 4082 1ef2 F30F1EFA 		endbr64
 4083 1ef6 55       		pushq	%rbp
 4084              		.cfi_def_cfa_offset 16
 4085              		.cfi_offset 6, -16
 4086 1ef7 4889E5   		movq	%rsp, %rbp
 4087              		.cfi_def_cfa_register 6
 4088 1efa 53       		pushq	%rbx
 4089 1efb 4883EC58 		subq	$88, %rsp
 4090              		.cfi_offset 3, -24
 4091 1eff 48897DA8 		movq	%rdi, -88(%rbp)
 4092              		.loc 3 93 27
 4093 1f03 64488B04 		movq	%fs:40, %rax
 4093      25280000 
 4093      00
 4094 1f0c 488945E8 		movq	%rax, -24(%rbp)
 4095 1f10 31C0     		xorl	%eax, %eax
  94:testConv.cpp  **** 	uint8 byte;
  95:testConv.cpp  **** 	bool status;
  96:testConv.cpp  **** 	status = getHexByte("00", &byte);
 4096              		.loc 3 96 21
 4097 1f12 488D45BA 		leaq	-70(%rbp), %rax
 4098 1f16 4889C6   		movq	%rax, %rsi
 4099 1f19 488D0500 		leaq	.LC22(%rip), %rax
 4099      000000
 4100 1f20 4889C7   		movq	%rax, %rdi
 4101              	.LEHB207:
 4102 1f23 E8000000 		call	getHexByte@PLT
 4102      00
 4103              	.LEHE207:
 4104              		.loc 3 96 9
 4105 1f28 8845BB   		movb	%al, -69(%rbp)
 4106              	.LEHB208:
  97:testConv.cpp  **** 	CHECK_EQUAL(false, status);
 4107              		.loc 3 97 2
 4108 1f2b E8000000 		call	_ZN8UnitTest11CurrentTest7DetailsEv@PLT
 4108      00
 4109 1f30 488B08   		movq	(%rax), %rcx
 4110 1f33 488D45C0 		leaq	-64(%rbp), %rax
 4111 1f37 BA610000 		movl	$97, %edx
 4111      00
 4112 1f3c 4889CE   		movq	%rcx, %rsi
 4113 1f3f 4889C7   		movq	%rax, %rdi
 4114 1f42 E8000000 		call	_ZN8UnitTest11TestDetailsC1ERKS0_i@PLT
 4114      00
 4115              		.loc 3 97 2 is_stmt 0 discriminator 4
 4116 1f47 C645BC00 		movb	$0, -68(%rbp)
 4117 1f4b E8000000 		call	_ZN8UnitTest11CurrentTest7ResultsEv@PLT
 4117      00
 4118 1f50 488B00   		movq	(%rax), %rax
 4119 1f53 488D4DC0 		leaq	-64(%rbp), %rcx
 4120 1f57 488D55BB 		leaq	-69(%rbp), %rdx
 4121 1f5b 488D75BC 		leaq	-68(%rbp), %rsi
 4122 1f5f 4889C7   		movq	%rax, %rdi
 4123 1f62 E8000000 		call	_ZN8UnitTest10CheckEqualIbbEEvRNS_11TestResultsERKT_RKT0_RKNS_11TestDetailsE
 4123      00
 4124              	.LEHE208:
 4125              	.L240:
 4126              	.LEHB209:
  98:testConv.cpp  **** 	CHECK_EQUAL(0x00, byte);
 4127              		.loc 3 98 2 is_stmt 1
 4128 1f67 E8000000 		call	_ZN8UnitTest11CurrentTest7DetailsEv@PLT
 4128      00
 4129 1f6c 488B08   		movq	(%rax), %rcx
 4130 1f6f 488D45C0 		leaq	-64(%rbp), %rax
 4131 1f73 BA620000 		movl	$98, %edx
 4131      00
 4132 1f78 4889CE   		movq	%rcx, %rsi
 4133 1f7b 4889C7   		movq	%rax, %rdi
 4134 1f7e E8000000 		call	_ZN8UnitTest11TestDetailsC1ERKS0_i@PLT
 4134      00
 4135              		.loc 3 98 2 is_stmt 0 discriminator 4
 4136 1f83 C745BC00 		movl	$0, -68(%rbp)
 4136      000000
 4137 1f8a E8000000 		call	_ZN8UnitTest11CurrentTest7ResultsEv@PLT
 4137      00
 4138 1f8f 488B00   		movq	(%rax), %rax
 4139 1f92 488D4DC0 		leaq	-64(%rbp), %rcx
 4140 1f96 488D55BA 		leaq	-70(%rbp), %rdx
 4141 1f9a 488D75BC 		leaq	-68(%rbp), %rsi
 4142 1f9e 4889C7   		movq	%rax, %rdi
 4143 1fa1 E8000000 		call	_ZN8UnitTest10CheckEqualIihEEvRNS_11TestResultsERKT_RKT0_RKNS_11TestDetailsE
 4143      00
 4144              	.LEHE209:
 4145              	.L243:
  99:testConv.cpp  **** 	status = getHexByte("A5", &byte);
 4146              		.loc 3 99 21 is_stmt 1
 4147 1fa6 488D45BA 		leaq	-70(%rbp), %rax
 4148 1faa 4889C6   		movq	%rax, %rsi
 4149 1fad 488D0500 		leaq	.LC23(%rip), %rax
 4149      000000
 4150 1fb4 4889C7   		movq	%rax, %rdi
 4151              	.LEHB210:
 4152 1fb7 E8000000 		call	getHexByte@PLT
 4152      00
 4153              	.LEHE210:
 4154              		.loc 3 99 9
 4155 1fbc 8845BB   		movb	%al, -69(%rbp)
 4156              	.LEHB211:
 100:testConv.cpp  **** 	CHECK_EQUAL(false, status);
 4157              		.loc 3 100 2
 4158 1fbf E8000000 		call	_ZN8UnitTest11CurrentTest7DetailsEv@PLT
 4158      00
 4159 1fc4 488B08   		movq	(%rax), %rcx
 4160 1fc7 488D45C0 		leaq	-64(%rbp), %rax
 4161 1fcb BA640000 		movl	$100, %edx
 4161      00
 4162 1fd0 4889CE   		movq	%rcx, %rsi
 4163 1fd3 4889C7   		movq	%rax, %rdi
 4164 1fd6 E8000000 		call	_ZN8UnitTest11TestDetailsC1ERKS0_i@PLT
 4164      00
 4165              		.loc 3 100 2 is_stmt 0 discriminator 4
 4166 1fdb C645BC00 		movb	$0, -68(%rbp)
 4167 1fdf E8000000 		call	_ZN8UnitTest11CurrentTest7ResultsEv@PLT
 4167      00
 4168 1fe4 488B00   		movq	(%rax), %rax
 4169 1fe7 488D4DC0 		leaq	-64(%rbp), %rcx
 4170 1feb 488D55BB 		leaq	-69(%rbp), %rdx
 4171 1fef 488D75BC 		leaq	-68(%rbp), %rsi
 4172 1ff3 4889C7   		movq	%rax, %rdi
 4173 1ff6 E8000000 		call	_ZN8UnitTest10CheckEqualIbbEEvRNS_11TestResultsERKT_RKT0_RKNS_11TestDetailsE
 4173      00
 4174              	.LEHE211:
 4175              	.L246:
 4176              	.LEHB212:
 101:testConv.cpp  **** 	CHECK_EQUAL(0xA5, byte);
 4177              		.loc 3 101 2 is_stmt 1
 4178 1ffb E8000000 		call	_ZN8UnitTest11CurrentTest7DetailsEv@PLT
 4178      00
 4179 2000 488B08   		movq	(%rax), %rcx
 4180 2003 488D45C0 		leaq	-64(%rbp), %rax
 4181 2007 BA650000 		movl	$101, %edx
 4181      00
 4182 200c 4889CE   		movq	%rcx, %rsi
 4183 200f 4889C7   		movq	%rax, %rdi
 4184 2012 E8000000 		call	_ZN8UnitTest11TestDetailsC1ERKS0_i@PLT
 4184      00
 4185              		.loc 3 101 2 is_stmt 0 discriminator 4
 4186 2017 C745BCA5 		movl	$165, -68(%rbp)
 4186      000000
 4187 201e E8000000 		call	_ZN8UnitTest11CurrentTest7ResultsEv@PLT
 4187      00
 4188 2023 488B00   		movq	(%rax), %rax
 4189 2026 488D4DC0 		leaq	-64(%rbp), %rcx
 4190 202a 488D55BA 		leaq	-70(%rbp), %rdx
 4191 202e 488D75BC 		leaq	-68(%rbp), %rsi
 4192 2032 4889C7   		movq	%rax, %rdi
 4193 2035 E8000000 		call	_ZN8UnitTest10CheckEqualIihEEvRNS_11TestResultsERKT_RKT0_RKNS_11TestDetailsE
 4193      00
 4194              	.LEHE212:
 4195              	.L249:
 102:testConv.cpp  **** 	status = getHexByte("FF", &byte);
 4196              		.loc 3 102 21 is_stmt 1
 4197 203a 488D45BA 		leaq	-70(%rbp), %rax
 4198 203e 4889C6   		movq	%rax, %rsi
 4199 2041 488D0500 		leaq	.LC24(%rip), %rax
 4199      000000
 4200 2048 4889C7   		movq	%rax, %rdi
 4201              	.LEHB213:
 4202 204b E8000000 		call	getHexByte@PLT
 4202      00
 4203              	.LEHE213:
 4204              		.loc 3 102 9
 4205 2050 8845BB   		movb	%al, -69(%rbp)
 4206              	.LEHB214:
 103:testConv.cpp  **** 	CHECK_EQUAL(false, status);
 4207              		.loc 3 103 2
 4208 2053 E8000000 		call	_ZN8UnitTest11CurrentTest7DetailsEv@PLT
 4208      00
 4209 2058 488B08   		movq	(%rax), %rcx
 4210 205b 488D45C0 		leaq	-64(%rbp), %rax
 4211 205f BA670000 		movl	$103, %edx
 4211      00
 4212 2064 4889CE   		movq	%rcx, %rsi
 4213 2067 4889C7   		movq	%rax, %rdi
 4214 206a E8000000 		call	_ZN8UnitTest11TestDetailsC1ERKS0_i@PLT
 4214      00
 4215              		.loc 3 103 2 is_stmt 0 discriminator 4
 4216 206f C645BC00 		movb	$0, -68(%rbp)
 4217 2073 E8000000 		call	_ZN8UnitTest11CurrentTest7ResultsEv@PLT
 4217      00
 4218 2078 488B00   		movq	(%rax), %rax
 4219 207b 488D4DC0 		leaq	-64(%rbp), %rcx
 4220 207f 488D55BB 		leaq	-69(%rbp), %rdx
 4221 2083 488D75BC 		leaq	-68(%rbp), %rsi
 4222 2087 4889C7   		movq	%rax, %rdi
 4223 208a E8000000 		call	_ZN8UnitTest10CheckEqualIbbEEvRNS_11TestResultsERKT_RKT0_RKNS_11TestDetailsE
 4223      00
 4224              	.LEHE214:
 4225              	.L252:
 4226              	.LEHB215:
 104:testConv.cpp  **** 	CHECK_EQUAL(0xFF, byte);
 4227              		.loc 3 104 2 is_stmt 1
 4228 208f E8000000 		call	_ZN8UnitTest11CurrentTest7DetailsEv@PLT
 4228      00
 4229 2094 488B08   		movq	(%rax), %rcx
 4230 2097 488D45C0 		leaq	-64(%rbp), %rax
 4231 209b BA680000 		movl	$104, %edx
 4231      00
 4232 20a0 4889CE   		movq	%rcx, %rsi
 4233 20a3 4889C7   		movq	%rax, %rdi
 4234 20a6 E8000000 		call	_ZN8UnitTest11TestDetailsC1ERKS0_i@PLT
 4234      00
 4235              		.loc 3 104 2 is_stmt 0 discriminator 4
 4236 20ab C745BCFF 		movl	$255, -68(%rbp)
 4236      000000
 4237 20b2 E8000000 		call	_ZN8UnitTest11CurrentTest7ResultsEv@PLT
 4237      00
 4238 20b7 488B00   		movq	(%rax), %rax
 4239 20ba 488D4DC0 		leaq	-64(%rbp), %rcx
 4240 20be 488D55BA 		leaq	-70(%rbp), %rdx
 4241 20c2 488D75BC 		leaq	-68(%rbp), %rsi
 4242 20c6 4889C7   		movq	%rax, %rdi
 4243 20c9 E8000000 		call	_ZN8UnitTest10CheckEqualIihEEvRNS_11TestResultsERKT_RKT0_RKNS_11TestDetailsE
 4243      00
 4244              	.LEHE215:
 4245              	.L255:
 105:testConv.cpp  **** 	status = getHexByte("GF", &byte);
 4246              		.loc 3 105 21 is_stmt 1
 4247 20ce 488D45BA 		leaq	-70(%rbp), %rax
 4248 20d2 4889C6   		movq	%rax, %rsi
 4249 20d5 488D0500 		leaq	.LC25(%rip), %rax
 4249      000000
 4250 20dc 4889C7   		movq	%rax, %rdi
 4251              	.LEHB216:
 4252 20df E8000000 		call	getHexByte@PLT
 4252      00
 4253              	.LEHE216:
 4254              		.loc 3 105 9
 4255 20e4 8845BB   		movb	%al, -69(%rbp)
 4256              	.LEHB217:
 106:testConv.cpp  **** 	CHECK_EQUAL(true, status);
 4257              		.loc 3 106 2
 4258 20e7 E8000000 		call	_ZN8UnitTest11CurrentTest7DetailsEv@PLT
 4258      00
 4259 20ec 488B08   		movq	(%rax), %rcx
 4260 20ef 488D45C0 		leaq	-64(%rbp), %rax
 4261 20f3 BA6A0000 		movl	$106, %edx
 4261      00
 4262 20f8 4889CE   		movq	%rcx, %rsi
 4263 20fb 4889C7   		movq	%rax, %rdi
 4264 20fe E8000000 		call	_ZN8UnitTest11TestDetailsC1ERKS0_i@PLT
 4264      00
 4265              		.loc 3 106 2 is_stmt 0 discriminator 4
 4266 2103 C645BC01 		movb	$1, -68(%rbp)
 4267 2107 E8000000 		call	_ZN8UnitTest11CurrentTest7ResultsEv@PLT
 4267      00
 4268 210c 488B00   		movq	(%rax), %rax
 4269 210f 488D4DC0 		leaq	-64(%rbp), %rcx
 4270 2113 488D55BB 		leaq	-69(%rbp), %rdx
 4271 2117 488D75BC 		leaq	-68(%rbp), %rsi
 4272 211b 4889C7   		movq	%rax, %rdi
 4273 211e E8000000 		call	_ZN8UnitTest10CheckEqualIbbEEvRNS_11TestResultsERKT_RKT0_RKNS_11TestDetailsE
 4273      00
 4274              	.LEHE217:
 4275              	.L258:
 107:testConv.cpp  **** 	status = getHexByte("FG", &byte);
 4276              		.loc 3 107 21 is_stmt 1
 4277 2123 488D45BA 		leaq	-70(%rbp), %rax
 4278 2127 4889C6   		movq	%rax, %rsi
 4279 212a 488D0500 		leaq	.LC26(%rip), %rax
 4279      000000
 4280 2131 4889C7   		movq	%rax, %rdi
 4281              	.LEHB218:
 4282 2134 E8000000 		call	getHexByte@PLT
 4282      00
 4283              	.LEHE218:
 4284              		.loc 3 107 9
 4285 2139 8845BB   		movb	%al, -69(%rbp)
 4286              	.LEHB219:
 108:testConv.cpp  **** 	CHECK_EQUAL(true, status);
 4287              		.loc 3 108 2
 4288 213c E8000000 		call	_ZN8UnitTest11CurrentTest7DetailsEv@PLT
 4288      00
 4289 2141 488B08   		movq	(%rax), %rcx
 4290 2144 488D45C0 		leaq	-64(%rbp), %rax
 4291 2148 BA6C0000 		movl	$108, %edx
 4291      00
 4292 214d 4889CE   		movq	%rcx, %rsi
 4293 2150 4889C7   		movq	%rax, %rdi
 4294 2153 E8000000 		call	_ZN8UnitTest11TestDetailsC1ERKS0_i@PLT
 4294      00
 4295              		.loc 3 108 2 is_stmt 0 discriminator 4
 4296 2158 C645BC01 		movb	$1, -68(%rbp)
 4297 215c E8000000 		call	_ZN8UnitTest11CurrentTest7ResultsEv@PLT
 4297      00
 4298 2161 488B00   		movq	(%rax), %rax
 4299 2164 488D4DC0 		leaq	-64(%rbp), %rcx
 4300 2168 488D55BB 		leaq	-69(%rbp), %rdx
 4301 216c 488D75BC 		leaq	-68(%rbp), %rsi
 4302 2170 4889C7   		movq	%rax, %rdi
 4303 2173 E8000000 		call	_ZN8UnitTest10CheckEqualIbbEEvRNS_11TestResultsERKT_RKT0_RKNS_11TestDetailsE
 4303      00
 4304              	.LEHE219:
 109:testConv.cpp  **** }
 4305              		.loc 3 109 1 is_stmt 1
 4306 2178 E9350300 		jmp	.L238
 4306      00
 4307              	.L264:
 4308 217d F30F1EFA 		endbr64
  97:testConv.cpp  **** 	CHECK_EQUAL(0x00, byte);
 4309              		.loc 3 97 2
 4310 2181 4889C7   		movq	%rax, %rdi
 4311 2184 E8000000 		call	__cxa_begin_catch@PLT
 4311      00
 4312              	.LEHB220:
 4313 2189 E8000000 		call	_ZN8UnitTest11CurrentTest7ResultsEv@PLT
 4313      00
  97:testConv.cpp  **** 	CHECK_EQUAL(0x00, byte);
 4314              		.loc 3 97 2 is_stmt 0 discriminator 3
 4315 218e 488B18   		movq	(%rax), %rbx
 4316 2191 E8000000 		call	_ZN8UnitTest11CurrentTest7DetailsEv@PLT
 4316      00
  97:testConv.cpp  **** 	CHECK_EQUAL(0x00, byte);
 4317              		.loc 3 97 2 discriminator 11
 4318 2196 488B08   		movq	(%rax), %rcx
 4319 2199 488D45C0 		leaq	-64(%rbp), %rax
 4320 219d BA610000 		movl	$97, %edx
 4320      00
 4321 21a2 4889CE   		movq	%rcx, %rsi
 4322 21a5 4889C7   		movq	%rax, %rdi
 4323 21a8 E8000000 		call	_ZN8UnitTest11TestDetailsC1ERKS0_i@PLT
 4323      00
  97:testConv.cpp  **** 	CHECK_EQUAL(0x00, byte);
 4324              		.loc 3 97 2 discriminator 15
 4325 21ad 488D45C0 		leaq	-64(%rbp), %rax
 4326 21b1 488D1500 		leaq	.LC3(%rip), %rdx
 4326      000000
 4327 21b8 4889C6   		movq	%rax, %rsi
 4328 21bb 4889DF   		movq	%rbx, %rdi
 4329 21be E8000000 		call	_ZN8UnitTest11TestResults13OnTestFailureERKNS_11TestDetailsEPKc@PLT
 4329      00
 4330              	.LEHE220:
 4331              	.LEHB221:
  97:testConv.cpp  **** 	CHECK_EQUAL(0x00, byte);
 4332              		.loc 3 97 2 discriminator 17
 4333 21c3 E8000000 		call	__cxa_end_catch@PLT
 4333      00
 4334              	.LEHE221:
 4335 21c8 E99AFDFF 		jmp	.L240
 4335      FF
 4336              	.L265:
 4337 21cd F30F1EFA 		endbr64
  97:testConv.cpp  **** 	CHECK_EQUAL(0x00, byte);
 4338              		.loc 3 97 2
 4339 21d1 4889C3   		movq	%rax, %rbx
 4340 21d4 E8000000 		call	__cxa_end_catch@PLT
 4340      00
 4341 21d9 4889D8   		movq	%rbx, %rax
 4342 21dc 4889C7   		movq	%rax, %rdi
 4343              	.LEHB222:
 4344 21df E8000000 		call	_Unwind_Resume@PLT
 4344      00
 4345              	.LEHE222:
 4346              	.L266:
 4347 21e4 F30F1EFA 		endbr64
  98:testConv.cpp  **** 	status = getHexByte("A5", &byte);
 4348              		.loc 3 98 2 is_stmt 1
 4349 21e8 4889C7   		movq	%rax, %rdi
 4350 21eb E8000000 		call	__cxa_begin_catch@PLT
 4350      00
 4351              	.LEHB223:
 4352 21f0 E8000000 		call	_ZN8UnitTest11CurrentTest7ResultsEv@PLT
 4352      00
  98:testConv.cpp  **** 	status = getHexByte("A5", &byte);
 4353              		.loc 3 98 2 is_stmt 0 discriminator 3
 4354 21f5 488B18   		movq	(%rax), %rbx
 4355 21f8 E8000000 		call	_ZN8UnitTest11CurrentTest7DetailsEv@PLT
 4355      00
  98:testConv.cpp  **** 	status = getHexByte("A5", &byte);
 4356              		.loc 3 98 2 discriminator 11
 4357 21fd 488B08   		movq	(%rax), %rcx
 4358 2200 488D45C0 		leaq	-64(%rbp), %rax
 4359 2204 BA620000 		movl	$98, %edx
 4359      00
 4360 2209 4889CE   		movq	%rcx, %rsi
 4361 220c 4889C7   		movq	%rax, %rdi
 4362 220f E8000000 		call	_ZN8UnitTest11TestDetailsC1ERKS0_i@PLT
 4362      00
  98:testConv.cpp  **** 	status = getHexByte("A5", &byte);
 4363              		.loc 3 98 2 discriminator 15
 4364 2214 488D45C0 		leaq	-64(%rbp), %rax
 4365 2218 488D1500 		leaq	.LC27(%rip), %rdx
 4365      000000
 4366 221f 4889C6   		movq	%rax, %rsi
 4367 2222 4889DF   		movq	%rbx, %rdi
 4368 2225 E8000000 		call	_ZN8UnitTest11TestResults13OnTestFailureERKNS_11TestDetailsEPKc@PLT
 4368      00
 4369              	.LEHE223:
 4370              	.LEHB224:
  98:testConv.cpp  **** 	status = getHexByte("A5", &byte);
 4371              		.loc 3 98 2 discriminator 17
 4372 222a E8000000 		call	__cxa_end_catch@PLT
 4372      00
 4373              	.LEHE224:
 4374 222f E972FDFF 		jmp	.L243
 4374      FF
 4375              	.L267:
 4376 2234 F30F1EFA 		endbr64
  98:testConv.cpp  **** 	status = getHexByte("A5", &byte);
 4377              		.loc 3 98 2
 4378 2238 4889C3   		movq	%rax, %rbx
 4379 223b E8000000 		call	__cxa_end_catch@PLT
 4379      00
 4380 2240 4889D8   		movq	%rbx, %rax
 4381 2243 4889C7   		movq	%rax, %rdi
 4382              	.LEHB225:
 4383 2246 E8000000 		call	_Unwind_Resume@PLT
 4383      00
 4384              	.LEHE225:
 4385              	.L268:
 4386 224b F30F1EFA 		endbr64
 100:testConv.cpp  **** 	CHECK_EQUAL(0xA5, byte);
 4387              		.loc 3 100 2 is_stmt 1
 4388 224f 4889C7   		movq	%rax, %rdi
 4389 2252 E8000000 		call	__cxa_begin_catch@PLT
 4389      00
 4390              	.LEHB226:
 4391 2257 E8000000 		call	_ZN8UnitTest11CurrentTest7ResultsEv@PLT
 4391      00
 100:testConv.cpp  **** 	CHECK_EQUAL(0xA5, byte);
 4392              		.loc 3 100 2 is_stmt 0 discriminator 3
 4393 225c 488B18   		movq	(%rax), %rbx
 4394 225f E8000000 		call	_ZN8UnitTest11CurrentTest7DetailsEv@PLT
 4394      00
 100:testConv.cpp  **** 	CHECK_EQUAL(0xA5, byte);
 4395              		.loc 3 100 2 discriminator 11
 4396 2264 488B08   		movq	(%rax), %rcx
 4397 2267 488D45C0 		leaq	-64(%rbp), %rax
 4398 226b BA640000 		movl	$100, %edx
 4398      00
 4399 2270 4889CE   		movq	%rcx, %rsi
 4400 2273 4889C7   		movq	%rax, %rdi
 4401 2276 E8000000 		call	_ZN8UnitTest11TestDetailsC1ERKS0_i@PLT
 4401      00
 100:testConv.cpp  **** 	CHECK_EQUAL(0xA5, byte);
 4402              		.loc 3 100 2 discriminator 15
 4403 227b 488D45C0 		leaq	-64(%rbp), %rax
 4404 227f 488D1500 		leaq	.LC3(%rip), %rdx
 4404      000000
 4405 2286 4889C6   		movq	%rax, %rsi
 4406 2289 4889DF   		movq	%rbx, %rdi
 4407 228c E8000000 		call	_ZN8UnitTest11TestResults13OnTestFailureERKNS_11TestDetailsEPKc@PLT
 4407      00
 4408              	.LEHE226:
 4409              	.LEHB227:
 100:testConv.cpp  **** 	CHECK_EQUAL(0xA5, byte);
 4410              		.loc 3 100 2 discriminator 17
 4411 2291 E8000000 		call	__cxa_end_catch@PLT
 4411      00
 4412              	.LEHE227:
 4413 2296 E960FDFF 		jmp	.L246
 4413      FF
 4414              	.L269:
 4415 229b F30F1EFA 		endbr64
 100:testConv.cpp  **** 	CHECK_EQUAL(0xA5, byte);
 4416              		.loc 3 100 2
 4417 229f 4889C3   		movq	%rax, %rbx
 4418 22a2 E8000000 		call	__cxa_end_catch@PLT
 4418      00
 4419 22a7 4889D8   		movq	%rbx, %rax
 4420 22aa 4889C7   		movq	%rax, %rdi
 4421              	.LEHB228:
 4422 22ad E8000000 		call	_Unwind_Resume@PLT
 4422      00
 4423              	.LEHE228:
 4424              	.L270:
 4425 22b2 F30F1EFA 		endbr64
 101:testConv.cpp  **** 	status = getHexByte("FF", &byte);
 4426              		.loc 3 101 2 is_stmt 1
 4427 22b6 4889C7   		movq	%rax, %rdi
 4428 22b9 E8000000 		call	__cxa_begin_catch@PLT
 4428      00
 4429              	.LEHB229:
 4430 22be E8000000 		call	_ZN8UnitTest11CurrentTest7ResultsEv@PLT
 4430      00
 101:testConv.cpp  **** 	status = getHexByte("FF", &byte);
 4431              		.loc 3 101 2 is_stmt 0 discriminator 3
 4432 22c3 488B18   		movq	(%rax), %rbx
 4433 22c6 E8000000 		call	_ZN8UnitTest11CurrentTest7DetailsEv@PLT
 4433      00
 101:testConv.cpp  **** 	status = getHexByte("FF", &byte);
 4434              		.loc 3 101 2 discriminator 11
 4435 22cb 488B08   		movq	(%rax), %rcx
 4436 22ce 488D45C0 		leaq	-64(%rbp), %rax
 4437 22d2 BA650000 		movl	$101, %edx
 4437      00
 4438 22d7 4889CE   		movq	%rcx, %rsi
 4439 22da 4889C7   		movq	%rax, %rdi
 4440 22dd E8000000 		call	_ZN8UnitTest11TestDetailsC1ERKS0_i@PLT
 4440      00
 101:testConv.cpp  **** 	status = getHexByte("FF", &byte);
 4441              		.loc 3 101 2 discriminator 15
 4442 22e2 488D45C0 		leaq	-64(%rbp), %rax
 4443 22e6 488D1500 		leaq	.LC28(%rip), %rdx
 4443      000000
 4444 22ed 4889C6   		movq	%rax, %rsi
 4445 22f0 4889DF   		movq	%rbx, %rdi
 4446 22f3 E8000000 		call	_ZN8UnitTest11TestResults13OnTestFailureERKNS_11TestDetailsEPKc@PLT
 4446      00
 4447              	.LEHE229:
 4448              	.LEHB230:
 101:testConv.cpp  **** 	status = getHexByte("FF", &byte);
 4449              		.loc 3 101 2 discriminator 17
 4450 22f8 E8000000 		call	__cxa_end_catch@PLT
 4450      00
 4451              	.LEHE230:
 4452 22fd E938FDFF 		jmp	.L249
 4452      FF
 4453              	.L271:
 4454 2302 F30F1EFA 		endbr64
 101:testConv.cpp  **** 	status = getHexByte("FF", &byte);
 4455              		.loc 3 101 2
 4456 2306 4889C3   		movq	%rax, %rbx
 4457 2309 E8000000 		call	__cxa_end_catch@PLT
 4457      00
 4458 230e 4889D8   		movq	%rbx, %rax
 4459 2311 4889C7   		movq	%rax, %rdi
 4460              	.LEHB231:
 4461 2314 E8000000 		call	_Unwind_Resume@PLT
 4461      00
 4462              	.LEHE231:
 4463              	.L272:
 4464 2319 F30F1EFA 		endbr64
 103:testConv.cpp  **** 	CHECK_EQUAL(0xFF, byte);
 4465              		.loc 3 103 2 is_stmt 1
 4466 231d 4889C7   		movq	%rax, %rdi
 4467 2320 E8000000 		call	__cxa_begin_catch@PLT
 4467      00
 4468              	.LEHB232:
 4469 2325 E8000000 		call	_ZN8UnitTest11CurrentTest7ResultsEv@PLT
 4469      00
 103:testConv.cpp  **** 	CHECK_EQUAL(0xFF, byte);
 4470              		.loc 3 103 2 is_stmt 0 discriminator 3
 4471 232a 488B18   		movq	(%rax), %rbx
 4472 232d E8000000 		call	_ZN8UnitTest11CurrentTest7DetailsEv@PLT
 4472      00
 103:testConv.cpp  **** 	CHECK_EQUAL(0xFF, byte);
 4473              		.loc 3 103 2 discriminator 11
 4474 2332 488B08   		movq	(%rax), %rcx
 4475 2335 488D45C0 		leaq	-64(%rbp), %rax
 4476 2339 BA670000 		movl	$103, %edx
 4476      00
 4477 233e 4889CE   		movq	%rcx, %rsi
 4478 2341 4889C7   		movq	%rax, %rdi
 4479 2344 E8000000 		call	_ZN8UnitTest11TestDetailsC1ERKS0_i@PLT
 4479      00
 103:testConv.cpp  **** 	CHECK_EQUAL(0xFF, byte);
 4480              		.loc 3 103 2 discriminator 15
 4481 2349 488D45C0 		leaq	-64(%rbp), %rax
 4482 234d 488D1500 		leaq	.LC3(%rip), %rdx
 4482      000000
 4483 2354 4889C6   		movq	%rax, %rsi
 4484 2357 4889DF   		movq	%rbx, %rdi
 4485 235a E8000000 		call	_ZN8UnitTest11TestResults13OnTestFailureERKNS_11TestDetailsEPKc@PLT
 4485      00
 4486              	.LEHE232:
 4487              	.LEHB233:
 103:testConv.cpp  **** 	CHECK_EQUAL(0xFF, byte);
 4488              		.loc 3 103 2 discriminator 17
 4489 235f E8000000 		call	__cxa_end_catch@PLT
 4489      00
 4490              	.LEHE233:
 4491 2364 E926FDFF 		jmp	.L252
 4491      FF
 4492              	.L273:
 4493 2369 F30F1EFA 		endbr64
 103:testConv.cpp  **** 	CHECK_EQUAL(0xFF, byte);
 4494              		.loc 3 103 2
 4495 236d 4889C3   		movq	%rax, %rbx
 4496 2370 E8000000 		call	__cxa_end_catch@PLT
 4496      00
 4497 2375 4889D8   		movq	%rbx, %rax
 4498 2378 4889C7   		movq	%rax, %rdi
 4499              	.LEHB234:
 4500 237b E8000000 		call	_Unwind_Resume@PLT
 4500      00
 4501              	.LEHE234:
 4502              	.L274:
 4503 2380 F30F1EFA 		endbr64
 104:testConv.cpp  **** 	status = getHexByte("GF", &byte);
 4504              		.loc 3 104 2 is_stmt 1
 4505 2384 4889C7   		movq	%rax, %rdi
 4506 2387 E8000000 		call	__cxa_begin_catch@PLT
 4506      00
 4507              	.LEHB235:
 4508 238c E8000000 		call	_ZN8UnitTest11CurrentTest7ResultsEv@PLT
 4508      00
 104:testConv.cpp  **** 	status = getHexByte("GF", &byte);
 4509              		.loc 3 104 2 is_stmt 0 discriminator 3
 4510 2391 488B18   		movq	(%rax), %rbx
 4511 2394 E8000000 		call	_ZN8UnitTest11CurrentTest7DetailsEv@PLT
 4511      00
 104:testConv.cpp  **** 	status = getHexByte("GF", &byte);
 4512              		.loc 3 104 2 discriminator 11
 4513 2399 488B08   		movq	(%rax), %rcx
 4514 239c 488D45C0 		leaq	-64(%rbp), %rax
 4515 23a0 BA680000 		movl	$104, %edx
 4515      00
 4516 23a5 4889CE   		movq	%rcx, %rsi
 4517 23a8 4889C7   		movq	%rax, %rdi
 4518 23ab E8000000 		call	_ZN8UnitTest11TestDetailsC1ERKS0_i@PLT
 4518      00
 104:testConv.cpp  **** 	status = getHexByte("GF", &byte);
 4519              		.loc 3 104 2 discriminator 15
 4520 23b0 488D45C0 		leaq	-64(%rbp), %rax
 4521 23b4 488D1500 		leaq	.LC29(%rip), %rdx
 4521      000000
 4522 23bb 4889C6   		movq	%rax, %rsi
 4523 23be 4889DF   		movq	%rbx, %rdi
 4524 23c1 E8000000 		call	_ZN8UnitTest11TestResults13OnTestFailureERKNS_11TestDetailsEPKc@PLT
 4524      00
 4525              	.LEHE235:
 4526              	.LEHB236:
 104:testConv.cpp  **** 	status = getHexByte("GF", &byte);
 4527              		.loc 3 104 2 discriminator 17
 4528 23c6 E8000000 		call	__cxa_end_catch@PLT
 4528      00
 4529              	.LEHE236:
 4530 23cb E9FEFCFF 		jmp	.L255
 4530      FF
 4531              	.L275:
 4532 23d0 F30F1EFA 		endbr64
 104:testConv.cpp  **** 	status = getHexByte("GF", &byte);
 4533              		.loc 3 104 2
 4534 23d4 4889C3   		movq	%rax, %rbx
 4535 23d7 E8000000 		call	__cxa_end_catch@PLT
 4535      00
 4536 23dc 4889D8   		movq	%rbx, %rax
 4537 23df 4889C7   		movq	%rax, %rdi
 4538              	.LEHB237:
 4539 23e2 E8000000 		call	_Unwind_Resume@PLT
 4539      00
 4540              	.LEHE237:
 4541              	.L276:
 4542 23e7 F30F1EFA 		endbr64
 106:testConv.cpp  **** 	status = getHexByte("FG", &byte);
 4543              		.loc 3 106 2 is_stmt 1
 4544 23eb 4889C7   		movq	%rax, %rdi
 4545 23ee E8000000 		call	__cxa_begin_catch@PLT
 4545      00
 4546              	.LEHB238:
 4547 23f3 E8000000 		call	_ZN8UnitTest11CurrentTest7ResultsEv@PLT
 4547      00
 106:testConv.cpp  **** 	status = getHexByte("FG", &byte);
 4548              		.loc 3 106 2 is_stmt 0 discriminator 3
 4549 23f8 488B18   		movq	(%rax), %rbx
 4550 23fb E8000000 		call	_ZN8UnitTest11CurrentTest7DetailsEv@PLT
 4550      00
 106:testConv.cpp  **** 	status = getHexByte("FG", &byte);
 4551              		.loc 3 106 2 discriminator 11
 4552 2400 488B08   		movq	(%rax), %rcx
 4553 2403 488D45C0 		leaq	-64(%rbp), %rax
 4554 2407 BA6A0000 		movl	$106, %edx
 4554      00
 4555 240c 4889CE   		movq	%rcx, %rsi
 4556 240f 4889C7   		movq	%rax, %rdi
 4557 2412 E8000000 		call	_ZN8UnitTest11TestDetailsC1ERKS0_i@PLT
 4557      00
 106:testConv.cpp  **** 	status = getHexByte("FG", &byte);
 4558              		.loc 3 106 2 discriminator 15
 4559 2417 488D45C0 		leaq	-64(%rbp), %rax
 4560 241b 488D1500 		leaq	.LC20(%rip), %rdx
 4560      000000
 4561 2422 4889C6   		movq	%rax, %rsi
 4562 2425 4889DF   		movq	%rbx, %rdi
 4563 2428 E8000000 		call	_ZN8UnitTest11TestResults13OnTestFailureERKNS_11TestDetailsEPKc@PLT
 4563      00
 4564              	.LEHE238:
 4565              	.LEHB239:
 106:testConv.cpp  **** 	status = getHexByte("FG", &byte);
 4566              		.loc 3 106 2 discriminator 17
 4567 242d E8000000 		call	__cxa_end_catch@PLT
 4567      00
 4568              	.LEHE239:
 4569 2432 E9ECFCFF 		jmp	.L258
 4569      FF
 4570              	.L277:
 4571 2437 F30F1EFA 		endbr64
 106:testConv.cpp  **** 	status = getHexByte("FG", &byte);
 4572              		.loc 3 106 2
 4573 243b 4889C3   		movq	%rax, %rbx
 4574 243e E8000000 		call	__cxa_end_catch@PLT
 4574      00
 4575 2443 4889D8   		movq	%rbx, %rax
 4576 2446 4889C7   		movq	%rax, %rdi
 4577              	.LEHB240:
 4578 2449 E8000000 		call	_Unwind_Resume@PLT
 4578      00
 4579              	.LEHE240:
 4580              	.L278:
 4581 244e F30F1EFA 		endbr64
 108:testConv.cpp  **** }
 4582              		.loc 3 108 2 is_stmt 1
 4583 2452 4889C7   		movq	%rax, %rdi
 4584 2455 E8000000 		call	__cxa_begin_catch@PLT
 4584      00
 4585              	.LEHB241:
 4586 245a E8000000 		call	_ZN8UnitTest11CurrentTest7ResultsEv@PLT
 4586      00
 108:testConv.cpp  **** }
 4587              		.loc 3 108 2 is_stmt 0 discriminator 3
 4588 245f 488B18   		movq	(%rax), %rbx
 4589 2462 E8000000 		call	_ZN8UnitTest11CurrentTest7DetailsEv@PLT
 4589      00
 108:testConv.cpp  **** }
 4590              		.loc 3 108 2 discriminator 11
 4591 2467 488B08   		movq	(%rax), %rcx
 4592 246a 488D45C0 		leaq	-64(%rbp), %rax
 4593 246e BA6C0000 		movl	$108, %edx
 4593      00
 4594 2473 4889CE   		movq	%rcx, %rsi
 4595 2476 4889C7   		movq	%rax, %rdi
 4596 2479 E8000000 		call	_ZN8UnitTest11TestDetailsC1ERKS0_i@PLT
 4596      00
 108:testConv.cpp  **** }
 4597              		.loc 3 108 2 discriminator 15
 4598 247e 488D45C0 		leaq	-64(%rbp), %rax
 4599 2482 488D1500 		leaq	.LC20(%rip), %rdx
 4599      000000
 4600 2489 4889C6   		movq	%rax, %rsi
 4601 248c 4889DF   		movq	%rbx, %rdi
 4602 248f E8000000 		call	_ZN8UnitTest11TestResults13OnTestFailureERKNS_11TestDetailsEPKc@PLT
 4602      00
 4603              	.LEHE241:
 4604              	.LEHB242:
 108:testConv.cpp  **** }
 4605              		.loc 3 108 2 discriminator 17
 4606 2494 E8000000 		call	__cxa_end_catch@PLT
 4606      00
 4607              	.LEHE242:
 4608              		.loc 3 109 1 is_stmt 1 discriminator 17
 4609 2499 EB17     		jmp	.L238
 4610              	.L279:
 4611 249b F30F1EFA 		endbr64
 108:testConv.cpp  **** }
 4612              		.loc 3 108 2
 4613 249f 4889C3   		movq	%rax, %rbx
 4614 24a2 E8000000 		call	__cxa_end_catch@PLT
 4614      00
 4615 24a7 4889D8   		movq	%rbx, %rax
 4616 24aa 4889C7   		movq	%rax, %rdi
 4617              	.LEHB243:
 4618 24ad E8000000 		call	_Unwind_Resume@PLT
 4618      00
 4619              	.LEHE243:
 4620              	.L238:
 4621              		.loc 3 109 1
 4622 24b2 488B45E8 		movq	-24(%rbp), %rax
 4623 24b6 64482B04 		subq	%fs:40, %rax
 4623      25280000 
 4623      00
 4624 24bf 7405     		je	.L263
 4625 24c1 E8000000 		call	__stack_chk_fail@PLT
 4625      00
 4626              	.L263:
 4627 24c6 488B5DF8 		movq	-8(%rbp), %rbx
 4628 24ca C9       		leave
 4629              		.cfi_def_cfa 7, 8
 4630 24cb C3       		ret
 4631              		.cfi_endproc
 4632              	.LFE1152:
 4633              		.section	.gcc_except_table
 4634              		.align 4
 4635              	.LLSDA1152:
 4636 045c FF       		.byte	0xff
 4637 045d 9B       		.byte	0x9b
 4638 045e D001     		.uleb128 .LLSDATT1152-.LLSDATTD1152
 4639              	.LLSDATTD1152:
 4640 0460 01       		.byte	0x1
 4641 0461 C601     		.uleb128 .LLSDACSE1152-.LLSDACSB1152
 4642              	.LLSDACSB1152:
 4643 0463 31       		.uleb128 .LEHB207-.LFB1152
 4644 0464 05       		.uleb128 .LEHE207-.LEHB207
 4645 0465 00       		.uleb128 0
 4646 0466 00       		.uleb128 0
 4647 0467 39       		.uleb128 .LEHB208-.LFB1152
 4648 0468 3C       		.uleb128 .LEHE208-.LEHB208
 4649 0469 8B05     		.uleb128 .L264-.LFB1152
 4650 046b 01       		.uleb128 0x1
 4651 046c 75       		.uleb128 .LEHB209-.LFB1152
 4652 046d 3F       		.uleb128 .LEHE209-.LEHB209
 4653 046e F205     		.uleb128 .L266-.LFB1152
 4654 0470 01       		.uleb128 0x1
 4655 0471 C501     		.uleb128 .LEHB210-.LFB1152
 4656 0473 05       		.uleb128 .LEHE210-.LEHB210
 4657 0474 00       		.uleb128 0
 4658 0475 00       		.uleb128 0
 4659 0476 CD01     		.uleb128 .LEHB211-.LFB1152
 4660 0478 3C       		.uleb128 .LEHE211-.LEHB211
 4661 0479 D906     		.uleb128 .L268-.LFB1152
 4662 047b 01       		.uleb128 0x1
 4663 047c 8902     		.uleb128 .LEHB212-.LFB1152
 4664 047e 3F       		.uleb128 .LEHE212-.LEHB212
 4665 047f C007     		.uleb128 .L270-.LFB1152
 4666 0481 01       		.uleb128 0x1
 4667 0482 D902     		.uleb128 .LEHB213-.LFB1152
 4668 0484 05       		.uleb128 .LEHE213-.LEHB213
 4669 0485 00       		.uleb128 0
 4670 0486 00       		.uleb128 0
 4671 0487 E102     		.uleb128 .LEHB214-.LFB1152
 4672 0489 3C       		.uleb128 .LEHE214-.LEHB214
 4673 048a A708     		.uleb128 .L272-.LFB1152
 4674 048c 01       		.uleb128 0x1
 4675 048d 9D03     		.uleb128 .LEHB215-.LFB1152
 4676 048f 3F       		.uleb128 .LEHE215-.LEHB215
 4677 0490 8E09     		.uleb128 .L274-.LFB1152
 4678 0492 01       		.uleb128 0x1
 4679 0493 ED03     		.uleb128 .LEHB216-.LFB1152
 4680 0495 05       		.uleb128 .LEHE216-.LEHB216
 4681 0496 00       		.uleb128 0
 4682 0497 00       		.uleb128 0
 4683 0498 F503     		.uleb128 .LEHB217-.LFB1152
 4684 049a 3C       		.uleb128 .LEHE217-.LEHB217
 4685 049b F509     		.uleb128 .L276-.LFB1152
 4686 049d 01       		.uleb128 0x1
 4687 049e C204     		.uleb128 .LEHB218-.LFB1152
 4688 04a0 05       		.uleb128 .LEHE218-.LEHB218
 4689 04a1 00       		.uleb128 0
 4690 04a2 00       		.uleb128 0
 4691 04a3 CA04     		.uleb128 .LEHB219-.LFB1152
 4692 04a5 3C       		.uleb128 .LEHE219-.LEHB219
 4693 04a6 DC0A     		.uleb128 .L278-.LFB1152
 4694 04a8 01       		.uleb128 0x1
 4695 04a9 9705     		.uleb128 .LEHB220-.LFB1152
 4696 04ab 3A       		.uleb128 .LEHE220-.LEHB220
 4697 04ac DB05     		.uleb128 .L265-.LFB1152
 4698 04ae 00       		.uleb128 0
 4699 04af D105     		.uleb128 .LEHB221-.LFB1152
 4700 04b1 05       		.uleb128 .LEHE221-.LEHB221
 4701 04b2 00       		.uleb128 0
 4702 04b3 00       		.uleb128 0
 4703 04b4 ED05     		.uleb128 .LEHB222-.LFB1152
 4704 04b6 05       		.uleb128 .LEHE222-.LEHB222
 4705 04b7 00       		.uleb128 0
 4706 04b8 00       		.uleb128 0
 4707 04b9 FE05     		.uleb128 .LEHB223-.LFB1152
 4708 04bb 3A       		.uleb128 .LEHE223-.LEHB223
 4709 04bc C206     		.uleb128 .L267-.LFB1152
 4710 04be 00       		.uleb128 0
 4711 04bf B806     		.uleb128 .LEHB224-.LFB1152
 4712 04c1 05       		.uleb128 .LEHE224-.LEHB224
 4713 04c2 00       		.uleb128 0
 4714 04c3 00       		.uleb128 0
 4715 04c4 D406     		.uleb128 .LEHB225-.LFB1152
 4716 04c6 05       		.uleb128 .LEHE225-.LEHB225
 4717 04c7 00       		.uleb128 0
 4718 04c8 00       		.uleb128 0
 4719 04c9 E506     		.uleb128 .LEHB226-.LFB1152
 4720 04cb 3A       		.uleb128 .LEHE226-.LEHB226
 4721 04cc A907     		.uleb128 .L269-.LFB1152
 4722 04ce 00       		.uleb128 0
 4723 04cf 9F07     		.uleb128 .LEHB227-.LFB1152
 4724 04d1 05       		.uleb128 .LEHE227-.LEHB227
 4725 04d2 00       		.uleb128 0
 4726 04d3 00       		.uleb128 0
 4727 04d4 BB07     		.uleb128 .LEHB228-.LFB1152
 4728 04d6 05       		.uleb128 .LEHE228-.LEHB228
 4729 04d7 00       		.uleb128 0
 4730 04d8 00       		.uleb128 0
 4731 04d9 CC07     		.uleb128 .LEHB229-.LFB1152
 4732 04db 3A       		.uleb128 .LEHE229-.LEHB229
 4733 04dc 9008     		.uleb128 .L271-.LFB1152
 4734 04de 00       		.uleb128 0
 4735 04df 8608     		.uleb128 .LEHB230-.LFB1152
 4736 04e1 05       		.uleb128 .LEHE230-.LEHB230
 4737 04e2 00       		.uleb128 0
 4738 04e3 00       		.uleb128 0
 4739 04e4 A208     		.uleb128 .LEHB231-.LFB1152
 4740 04e6 05       		.uleb128 .LEHE231-.LEHB231
 4741 04e7 00       		.uleb128 0
 4742 04e8 00       		.uleb128 0
 4743 04e9 B308     		.uleb128 .LEHB232-.LFB1152
 4744 04eb 3A       		.uleb128 .LEHE232-.LEHB232
 4745 04ec F708     		.uleb128 .L273-.LFB1152
 4746 04ee 00       		.uleb128 0
 4747 04ef ED08     		.uleb128 .LEHB233-.LFB1152
 4748 04f1 05       		.uleb128 .LEHE233-.LEHB233
 4749 04f2 00       		.uleb128 0
 4750 04f3 00       		.uleb128 0
 4751 04f4 8909     		.uleb128 .LEHB234-.LFB1152
 4752 04f6 05       		.uleb128 .LEHE234-.LEHB234
 4753 04f7 00       		.uleb128 0
 4754 04f8 00       		.uleb128 0
 4755 04f9 9A09     		.uleb128 .LEHB235-.LFB1152
 4756 04fb 3A       		.uleb128 .LEHE235-.LEHB235
 4757 04fc DE09     		.uleb128 .L275-.LFB1152
 4758 04fe 00       		.uleb128 0
 4759 04ff D409     		.uleb128 .LEHB236-.LFB1152
 4760 0501 05       		.uleb128 .LEHE236-.LEHB236
 4761 0502 00       		.uleb128 0
 4762 0503 00       		.uleb128 0
 4763 0504 F009     		.uleb128 .LEHB237-.LFB1152
 4764 0506 05       		.uleb128 .LEHE237-.LEHB237
 4765 0507 00       		.uleb128 0
 4766 0508 00       		.uleb128 0
 4767 0509 810A     		.uleb128 .LEHB238-.LFB1152
 4768 050b 3A       		.uleb128 .LEHE238-.LEHB238
 4769 050c C50A     		.uleb128 .L277-.LFB1152
 4770 050e 00       		.uleb128 0
 4771 050f BB0A     		.uleb128 .LEHB239-.LFB1152
 4772 0511 05       		.uleb128 .LEHE239-.LEHB239
 4773 0512 00       		.uleb128 0
 4774 0513 00       		.uleb128 0
 4775 0514 D70A     		.uleb128 .LEHB240-.LFB1152
 4776 0516 05       		.uleb128 .LEHE240-.LEHB240
 4777 0517 00       		.uleb128 0
 4778 0518 00       		.uleb128 0
 4779 0519 E80A     		.uleb128 .LEHB241-.LFB1152
 4780 051b 3A       		.uleb128 .LEHE241-.LEHB241
 4781 051c A90B     		.uleb128 .L279-.LFB1152
 4782 051e 00       		.uleb128 0
 4783 051f A20B     		.uleb128 .LEHB242-.LFB1152
 4784 0521 05       		.uleb128 .LEHE242-.LEHB242
 4785 0522 00       		.uleb128 0
 4786 0523 00       		.uleb128 0
 4787 0524 BB0B     		.uleb128 .LEHB243-.LFB1152
 4788 0526 05       		.uleb128 .LEHE243-.LEHB243
 4789 0527 00       		.uleb128 0
 4790 0528 00       		.uleb128 0
 4791              	.LLSDACSE1152:
 4792 0529 01       		.byte	0x1
 4793 052a 00       		.byte	0
 4794 052b 00       		.align 4
 4795 052c 00000000 		.long	0
 4796              	
 4797              	.LLSDATT1152:
 4798              		.text
 4800              		.section	.rodata
 4801              	.LC30:
 4802 044f 436F6E76 		.string	"Conv_testGetHexUpperNibble"
 4802      5F746573 
 4802      74476574 
 4802      48657855 
 4802      70706572 
 4803              		.section	.text._ZN30TestConv_testGetHexUpperNibbleC2Ev,"axG",@progbits,_ZN30TestConv_testGetHexUpp
 4804              		.align 2
 4805              		.weak	_ZN30TestConv_testGetHexUpperNibbleC2Ev
 4807              	_ZN30TestConv_testGetHexUpperNibbleC2Ev:
 4808              	.LFB1154:
 110:testConv.cpp  **** 
 111:testConv.cpp  **** TEST(Conv_testGetHexUpperNibble) {
 4809              		.loc 3 111 1
 4810              		.cfi_startproc
 4811 0000 F30F1EFA 		endbr64
 4812 0004 55       		pushq	%rbp
 4813              		.cfi_def_cfa_offset 16
 4814              		.cfi_offset 6, -16
 4815 0005 4889E5   		movq	%rsp, %rbp
 4816              		.cfi_def_cfa_register 6
 4817 0008 53       		pushq	%rbx
 4818 0009 4883EC18 		subq	$24, %rsp
 4819              		.cfi_offset 3, -24
 4820 000d 48897DE8 		movq	%rdi, -24(%rbp)
 4821              	.LBB6:
 4822              		.loc 3 111 1
 4823 0011 488B5DE8 		movq	-24(%rbp), %rbx
 4824 0015 E8000000 		call	_ZN13UnitTestSuite12GetSuiteNameEv
 4824      00
 4825 001a 4889C2   		movq	%rax, %rdx
 4826 001d 41B86F00 		movl	$111, %r8d
 4826      0000
 4827 0023 488D0500 		leaq	.LC1(%rip), %rax
 4827      000000
 4828 002a 4889C1   		movq	%rax, %rcx
 4829 002d 488D0500 		leaq	.LC30(%rip), %rax
 4829      000000
 4830 0034 4889C6   		movq	%rax, %rsi
 4831 0037 4889DF   		movq	%rbx, %rdi
 4832 003a E8000000 		call	_ZN8UnitTest4TestC2EPKcS2_S2_i@PLT
 4832      00
 4833 003f 488D1500 		leaq	16+_ZTV30TestConv_testGetHexUpperNibble(%rip), %rdx
 4833      000000
 4834 0046 488B45E8 		movq	-24(%rbp), %rax
 4835 004a 488910   		movq	%rdx, (%rax)
 4836              	.LBE6:
 4837 004d 90       		nop
 4838 004e 488B5DF8 		movq	-8(%rbp), %rbx
 4839 0052 C9       		leave
 4840              		.cfi_def_cfa 7, 8
 4841 0053 C3       		ret
 4842              		.cfi_endproc
 4843              	.LFE1154:
 4845              		.weak	_ZN30TestConv_testGetHexUpperNibbleC1Ev
 4846              		.set	_ZN30TestConv_testGetHexUpperNibbleC1Ev,_ZN30TestConv_testGetHexUpperNibbleC2Ev
 4847              		.globl	testConv_testGetHexUpperNibbleInstance
 4848              		.bss
 4849 0079 00000000 		.align 32
 4849      000000
 4852              	testConv_testGetHexUpperNibbleInstance:
 4853 0080 00000000 		.zero	56
 4853      00000000 
 4853      00000000 
 4853      00000000 
 4853      00000000 
 4854              		.globl	adderConv_testGetHexUpperNibble
 4857              	adderConv_testGetHexUpperNibble:
 4858 00b8 00       		.zero	1
 4859              		.section	.rodata
 4860 046a 00000000 		.align 8
 4860      0000
 4861              	.LC31:
 4862 0470 556E6861 		.string	"Unhandled exception in CHECK_EQUAL('0', getHexUpperNibble(0x0F))"
 4862      6E646C65 
 4862      64206578 
 4862      63657074 
 4862      696F6E20 
 4863 04b1 00000000 		.align 8
 4863      000000
 4864              	.LC32:
 4865 04b8 556E6861 		.string	"Unhandled exception in CHECK_EQUAL('1', getHexUpperNibble(0x1F))"
 4865      6E646C65 
 4865      64206578 
 4865      63657074 
 4865      696F6E20 
 4866 04f9 00000000 		.align 8
 4866      000000
 4867              	.LC33:
 4868 0500 556E6861 		.string	"Unhandled exception in CHECK_EQUAL('2', getHexUpperNibble(0x2F))"
 4868      6E646C65 
 4868      64206578 
 4868      63657074 
 4868      696F6E20 
 4869 0541 00000000 		.align 8
 4869      000000
 4870              	.LC34:
 4871 0548 556E6861 		.string	"Unhandled exception in CHECK_EQUAL('3', getHexUpperNibble(0x3F))"
 4871      6E646C65 
 4871      64206578 
 4871      63657074 
 4871      696F6E20 
 4872 0589 00000000 		.align 8
 4872      000000
 4873              	.LC35:
 4874 0590 556E6861 		.string	"Unhandled exception in CHECK_EQUAL('4', getHexUpperNibble(0x4F))"
 4874      6E646C65 
 4874      64206578 
 4874      63657074 
 4874      696F6E20 
 4875 05d1 00000000 		.align 8
 4875      000000
 4876              	.LC36:
 4877 05d8 556E6861 		.string	"Unhandled exception in CHECK_EQUAL('5', getHexUpperNibble(0x5F))"
 4877      6E646C65 
 4877      64206578 
 4877      63657074 
 4877      696F6E20 
 4878 0619 00000000 		.align 8
 4878      000000
 4879              	.LC37:
 4880 0620 556E6861 		.string	"Unhandled exception in CHECK_EQUAL('6', getHexUpperNibble(0x6F))"
 4880      6E646C65 
 4880      64206578 
 4880      63657074 
 4880      696F6E20 
 4881 0661 00000000 		.align 8
 4881      000000
 4882              	.LC38:
 4883 0668 556E6861 		.string	"Unhandled exception in CHECK_EQUAL('7', getHexUpperNibble(0x7F))"
 4883      6E646C65 
 4883      64206578 
 4883      63657074 
 4883      696F6E20 
 4884 06a9 00000000 		.align 8
 4884      000000
 4885              	.LC39:
 4886 06b0 556E6861 		.string	"Unhandled exception in CHECK_EQUAL('8', getHexUpperNibble(0x8F))"
 4886      6E646C65 
 4886      64206578 
 4886      63657074 
 4886      696F6E20 
 4887 06f1 00000000 		.align 8
 4887      000000
 4888              	.LC40:
 4889 06f8 556E6861 		.string	"Unhandled exception in CHECK_EQUAL('9', getHexUpperNibble(0x9F))"
 4889      6E646C65 
 4889      64206578 
 4889      63657074 
 4889      696F6E20 
 4890 0739 00000000 		.align 8
 4890      000000
 4891              	.LC41:
 4892 0740 556E6861 		.string	"Unhandled exception in CHECK_EQUAL('A', getHexUpperNibble(0xAF))"
 4892      6E646C65 
 4892      64206578 
 4892      63657074 
 4892      696F6E20 
 4893 0781 00000000 		.align 8
 4893      000000
 4894              	.LC42:
 4895 0788 556E6861 		.string	"Unhandled exception in CHECK_EQUAL('B', getHexUpperNibble(0xBF))"
 4895      6E646C65 
 4895      64206578 
 4895      63657074 
 4895      696F6E20 
 4896 07c9 00000000 		.align 8
 4896      000000
 4897              	.LC43:
 4898 07d0 556E6861 		.string	"Unhandled exception in CHECK_EQUAL('C', getHexUpperNibble(0xCF))"
 4898      6E646C65 
 4898      64206578 
 4898      63657074 
 4898      696F6E20 
 4899 0811 00000000 		.align 8
 4899      000000
 4900              	.LC44:
 4901 0818 556E6861 		.string	"Unhandled exception in CHECK_EQUAL('D', getHexUpperNibble(0xDF))"
 4901      6E646C65 
 4901      64206578 
 4901      63657074 
 4901      696F6E20 
 4902 0859 00000000 		.align 8
 4902      000000
 4903              	.LC45:
 4904 0860 556E6861 		.string	"Unhandled exception in CHECK_EQUAL('E', getHexUpperNibble(0xEF))"
 4904      6E646C65 
 4904      64206578 
 4904      63657074 
 4904      696F6E20 
 4905 08a1 00000000 		.align 8
 4905      000000
 4906              	.LC46:
 4907 08a8 556E6861 		.string	"Unhandled exception in CHECK_EQUAL('F', getHexUpperNibble(0xFF))"
 4907      6E646C65 
 4907      64206578 
 4907      63657074 
 4907      696F6E20 
 4908              		.text
 4909              		.align 2
 4910              		.globl	_ZNK30TestConv_testGetHexUpperNibble7RunImplEv
 4912              	_ZNK30TestConv_testGetHexUpperNibble7RunImplEv:
 4913              	.LFB1156:
 4914              		.loc 3 111 34
 4915              		.cfi_startproc
 4916              		.cfi_personality 0x9b,DW.ref.__gxx_personality_v0
 4917              		.cfi_lsda 0x1b,.LLSDA1156
 4918 24cc F30F1EFA 		endbr64
 4919 24d0 55       		pushq	%rbp
 4920              		.cfi_def_cfa_offset 16
 4921              		.cfi_offset 6, -16
 4922 24d1 4889E5   		movq	%rsp, %rbp
 4923              		.cfi_def_cfa_register 6
 4924 24d4 53       		pushq	%rbx
 4925 24d5 4883EC58 		subq	$88, %rsp
 4926              		.cfi_offset 3, -24
 4927 24d9 48897DA8 		movq	%rdi, -88(%rbp)
 4928              		.loc 3 111 34
 4929 24dd 64488B04 		movq	%fs:40, %rax
 4929      25280000 
 4929      00
 4930 24e6 488945E8 		movq	%rax, -24(%rbp)
 4931 24ea 31C0     		xorl	%eax, %eax
 4932              	.LEHB244:
 112:testConv.cpp  **** 	CHECK_EQUAL('0', getHexUpperNibble(0x0F));
 4933              		.loc 3 112 2
 4934 24ec E8000000 		call	_ZN8UnitTest11CurrentTest7DetailsEv@PLT
 4934      00
 4935 24f1 488B08   		movq	(%rax), %rcx
 4936 24f4 488D45C0 		leaq	-64(%rbp), %rax
 4937 24f8 BA700000 		movl	$112, %edx
 4937      00
 4938 24fd 4889CE   		movq	%rcx, %rsi
 4939 2500 4889C7   		movq	%rax, %rdi
 4940 2503 E8000000 		call	_ZN8UnitTest11TestDetailsC1ERKS0_i@PLT
 4940      00
 4941              		.loc 3 112 2 is_stmt 0 discriminator 4
 4942 2508 BF0F0000 		movl	$15, %edi
 4942      00
 4943 250d E8000000 		call	getHexUpperNibble@PLT
 4943      00
 4944 2512 8845BF   		movb	%al, -65(%rbp)
 4945 2515 C645BE30 		movb	$48, -66(%rbp)
 4946 2519 E8000000 		call	_ZN8UnitTest11CurrentTest7ResultsEv@PLT
 4946      00
 4947              		.loc 3 112 2 discriminator 6
 4948 251e 488B00   		movq	(%rax), %rax
 4949 2521 488D4DC0 		leaq	-64(%rbp), %rcx
 4950 2525 488D55BF 		leaq	-65(%rbp), %rdx
 4951 2529 488D75BE 		leaq	-66(%rbp), %rsi
 4952 252d 4889C7   		movq	%rax, %rdi
 4953 2530 E8000000 		call	_ZN8UnitTest10CheckEqualIccEEvRNS_11TestResultsERKT_RKT0_RKNS_11TestDetailsE
 4953      00
 4954              	.LEHE244:
 4955              	.L283:
 4956              	.LEHB245:
 113:testConv.cpp  **** 	CHECK_EQUAL('1', getHexUpperNibble(0x1F));
 4957              		.loc 3 113 2 is_stmt 1
 4958 2535 E8000000 		call	_ZN8UnitTest11CurrentTest7DetailsEv@PLT
 4958      00
 4959 253a 488B08   		movq	(%rax), %rcx
 4960 253d 488D45C0 		leaq	-64(%rbp), %rax
 4961 2541 BA710000 		movl	$113, %edx
 4961      00
 4962 2546 4889CE   		movq	%rcx, %rsi
 4963 2549 4889C7   		movq	%rax, %rdi
 4964 254c E8000000 		call	_ZN8UnitTest11TestDetailsC1ERKS0_i@PLT
 4964      00
 4965              		.loc 3 113 2 is_stmt 0 discriminator 4
 4966 2551 BF1F0000 		movl	$31, %edi
 4966      00
 4967 2556 E8000000 		call	getHexUpperNibble@PLT
 4967      00
 4968 255b 8845BF   		movb	%al, -65(%rbp)
 4969 255e C645BE31 		movb	$49, -66(%rbp)
 4970 2562 E8000000 		call	_ZN8UnitTest11CurrentTest7ResultsEv@PLT
 4970      00
 4971              		.loc 3 113 2 discriminator 6
 4972 2567 488B00   		movq	(%rax), %rax
 4973 256a 488D4DC0 		leaq	-64(%rbp), %rcx
 4974 256e 488D55BF 		leaq	-65(%rbp), %rdx
 4975 2572 488D75BE 		leaq	-66(%rbp), %rsi
 4976 2576 4889C7   		movq	%rax, %rdi
 4977 2579 E8000000 		call	_ZN8UnitTest10CheckEqualIccEEvRNS_11TestResultsERKT_RKT0_RKNS_11TestDetailsE
 4977      00
 4978              	.LEHE245:
 4979              	.L286:
 4980              	.LEHB246:
 114:testConv.cpp  **** 	CHECK_EQUAL('2', getHexUpperNibble(0x2F));
 4981              		.loc 3 114 2 is_stmt 1
 4982 257e E8000000 		call	_ZN8UnitTest11CurrentTest7DetailsEv@PLT
 4982      00
 4983 2583 488B08   		movq	(%rax), %rcx
 4984 2586 488D45C0 		leaq	-64(%rbp), %rax
 4985 258a BA720000 		movl	$114, %edx
 4985      00
 4986 258f 4889CE   		movq	%rcx, %rsi
 4987 2592 4889C7   		movq	%rax, %rdi
 4988 2595 E8000000 		call	_ZN8UnitTest11TestDetailsC1ERKS0_i@PLT
 4988      00
 4989              		.loc 3 114 2 is_stmt 0 discriminator 4
 4990 259a BF2F0000 		movl	$47, %edi
 4990      00
 4991 259f E8000000 		call	getHexUpperNibble@PLT
 4991      00
 4992 25a4 8845BF   		movb	%al, -65(%rbp)
 4993 25a7 C645BE32 		movb	$50, -66(%rbp)
 4994 25ab E8000000 		call	_ZN8UnitTest11CurrentTest7ResultsEv@PLT
 4994      00
 4995              		.loc 3 114 2 discriminator 6
 4996 25b0 488B00   		movq	(%rax), %rax
 4997 25b3 488D4DC0 		leaq	-64(%rbp), %rcx
 4998 25b7 488D55BF 		leaq	-65(%rbp), %rdx
 4999 25bb 488D75BE 		leaq	-66(%rbp), %rsi
 5000 25bf 4889C7   		movq	%rax, %rdi
 5001 25c2 E8000000 		call	_ZN8UnitTest10CheckEqualIccEEvRNS_11TestResultsERKT_RKT0_RKNS_11TestDetailsE
 5001      00
 5002              	.LEHE246:
 5003              	.L289:
 5004              	.LEHB247:
 115:testConv.cpp  **** 	CHECK_EQUAL('3', getHexUpperNibble(0x3F));
 5005              		.loc 3 115 2 is_stmt 1
 5006 25c7 E8000000 		call	_ZN8UnitTest11CurrentTest7DetailsEv@PLT
 5006      00
 5007 25cc 488B08   		movq	(%rax), %rcx
 5008 25cf 488D45C0 		leaq	-64(%rbp), %rax
 5009 25d3 BA730000 		movl	$115, %edx
 5009      00
 5010 25d8 4889CE   		movq	%rcx, %rsi
 5011 25db 4889C7   		movq	%rax, %rdi
 5012 25de E8000000 		call	_ZN8UnitTest11TestDetailsC1ERKS0_i@PLT
 5012      00
 5013              		.loc 3 115 2 is_stmt 0 discriminator 4
 5014 25e3 BF3F0000 		movl	$63, %edi
 5014      00
 5015 25e8 E8000000 		call	getHexUpperNibble@PLT
 5015      00
 5016 25ed 8845BF   		movb	%al, -65(%rbp)
 5017 25f0 C645BE33 		movb	$51, -66(%rbp)
 5018 25f4 E8000000 		call	_ZN8UnitTest11CurrentTest7ResultsEv@PLT
 5018      00
 5019              		.loc 3 115 2 discriminator 6
 5020 25f9 488B00   		movq	(%rax), %rax
 5021 25fc 488D4DC0 		leaq	-64(%rbp), %rcx
 5022 2600 488D55BF 		leaq	-65(%rbp), %rdx
 5023 2604 488D75BE 		leaq	-66(%rbp), %rsi
 5024 2608 4889C7   		movq	%rax, %rdi
 5025 260b E8000000 		call	_ZN8UnitTest10CheckEqualIccEEvRNS_11TestResultsERKT_RKT0_RKNS_11TestDetailsE
 5025      00
 5026              	.LEHE247:
 5027              	.L292:
 5028              	.LEHB248:
 116:testConv.cpp  **** 	CHECK_EQUAL('4', getHexUpperNibble(0x4F));
 5029              		.loc 3 116 2 is_stmt 1
 5030 2610 E8000000 		call	_ZN8UnitTest11CurrentTest7DetailsEv@PLT
 5030      00
 5031 2615 488B08   		movq	(%rax), %rcx
 5032 2618 488D45C0 		leaq	-64(%rbp), %rax
 5033 261c BA740000 		movl	$116, %edx
 5033      00
 5034 2621 4889CE   		movq	%rcx, %rsi
 5035 2624 4889C7   		movq	%rax, %rdi
 5036 2627 E8000000 		call	_ZN8UnitTest11TestDetailsC1ERKS0_i@PLT
 5036      00
 5037              		.loc 3 116 2 is_stmt 0 discriminator 4
 5038 262c BF4F0000 		movl	$79, %edi
 5038      00
 5039 2631 E8000000 		call	getHexUpperNibble@PLT
 5039      00
 5040 2636 8845BF   		movb	%al, -65(%rbp)
 5041 2639 C645BE34 		movb	$52, -66(%rbp)
 5042 263d E8000000 		call	_ZN8UnitTest11CurrentTest7ResultsEv@PLT
 5042      00
 5043              		.loc 3 116 2 discriminator 6
 5044 2642 488B00   		movq	(%rax), %rax
 5045 2645 488D4DC0 		leaq	-64(%rbp), %rcx
 5046 2649 488D55BF 		leaq	-65(%rbp), %rdx
 5047 264d 488D75BE 		leaq	-66(%rbp), %rsi
 5048 2651 4889C7   		movq	%rax, %rdi
 5049 2654 E8000000 		call	_ZN8UnitTest10CheckEqualIccEEvRNS_11TestResultsERKT_RKT0_RKNS_11TestDetailsE
 5049      00
 5050              	.LEHE248:
 5051              	.L295:
 5052              	.LEHB249:
 117:testConv.cpp  **** 	CHECK_EQUAL('5', getHexUpperNibble(0x5F));
 5053              		.loc 3 117 2 is_stmt 1
 5054 2659 E8000000 		call	_ZN8UnitTest11CurrentTest7DetailsEv@PLT
 5054      00
 5055 265e 488B08   		movq	(%rax), %rcx
 5056 2661 488D45C0 		leaq	-64(%rbp), %rax
 5057 2665 BA750000 		movl	$117, %edx
 5057      00
 5058 266a 4889CE   		movq	%rcx, %rsi
 5059 266d 4889C7   		movq	%rax, %rdi
 5060 2670 E8000000 		call	_ZN8UnitTest11TestDetailsC1ERKS0_i@PLT
 5060      00
 5061              		.loc 3 117 2 is_stmt 0 discriminator 4
 5062 2675 BF5F0000 		movl	$95, %edi
 5062      00
 5063 267a E8000000 		call	getHexUpperNibble@PLT
 5063      00
 5064 267f 8845BF   		movb	%al, -65(%rbp)
 5065 2682 C645BE35 		movb	$53, -66(%rbp)
 5066 2686 E8000000 		call	_ZN8UnitTest11CurrentTest7ResultsEv@PLT
 5066      00
 5067              		.loc 3 117 2 discriminator 6
 5068 268b 488B00   		movq	(%rax), %rax
 5069 268e 488D4DC0 		leaq	-64(%rbp), %rcx
 5070 2692 488D55BF 		leaq	-65(%rbp), %rdx
 5071 2696 488D75BE 		leaq	-66(%rbp), %rsi
 5072 269a 4889C7   		movq	%rax, %rdi
 5073 269d E8000000 		call	_ZN8UnitTest10CheckEqualIccEEvRNS_11TestResultsERKT_RKT0_RKNS_11TestDetailsE
 5073      00
 5074              	.LEHE249:
 5075              	.L298:
 5076              	.LEHB250:
 118:testConv.cpp  **** 	CHECK_EQUAL('6', getHexUpperNibble(0x6F));
 5077              		.loc 3 118 2 is_stmt 1
 5078 26a2 E8000000 		call	_ZN8UnitTest11CurrentTest7DetailsEv@PLT
 5078      00
 5079 26a7 488B08   		movq	(%rax), %rcx
 5080 26aa 488D45C0 		leaq	-64(%rbp), %rax
 5081 26ae BA760000 		movl	$118, %edx
 5081      00
 5082 26b3 4889CE   		movq	%rcx, %rsi
 5083 26b6 4889C7   		movq	%rax, %rdi
 5084 26b9 E8000000 		call	_ZN8UnitTest11TestDetailsC1ERKS0_i@PLT
 5084      00
 5085              		.loc 3 118 2 is_stmt 0 discriminator 4
 5086 26be BF6F0000 		movl	$111, %edi
 5086      00
 5087 26c3 E8000000 		call	getHexUpperNibble@PLT
 5087      00
 5088 26c8 8845BF   		movb	%al, -65(%rbp)
 5089 26cb C645BE36 		movb	$54, -66(%rbp)
 5090 26cf E8000000 		call	_ZN8UnitTest11CurrentTest7ResultsEv@PLT
 5090      00
 5091              		.loc 3 118 2 discriminator 6
 5092 26d4 488B00   		movq	(%rax), %rax
 5093 26d7 488D4DC0 		leaq	-64(%rbp), %rcx
 5094 26db 488D55BF 		leaq	-65(%rbp), %rdx
 5095 26df 488D75BE 		leaq	-66(%rbp), %rsi
 5096 26e3 4889C7   		movq	%rax, %rdi
 5097 26e6 E8000000 		call	_ZN8UnitTest10CheckEqualIccEEvRNS_11TestResultsERKT_RKT0_RKNS_11TestDetailsE
 5097      00
 5098              	.LEHE250:
 5099              	.L301:
 5100              	.LEHB251:
 119:testConv.cpp  **** 	CHECK_EQUAL('7', getHexUpperNibble(0x7F));
 5101              		.loc 3 119 2 is_stmt 1
 5102 26eb E8000000 		call	_ZN8UnitTest11CurrentTest7DetailsEv@PLT
 5102      00
 5103 26f0 488B08   		movq	(%rax), %rcx
 5104 26f3 488D45C0 		leaq	-64(%rbp), %rax
 5105 26f7 BA770000 		movl	$119, %edx
 5105      00
 5106 26fc 4889CE   		movq	%rcx, %rsi
 5107 26ff 4889C7   		movq	%rax, %rdi
 5108 2702 E8000000 		call	_ZN8UnitTest11TestDetailsC1ERKS0_i@PLT
 5108      00
 5109              		.loc 3 119 2 is_stmt 0 discriminator 4
 5110 2707 BF7F0000 		movl	$127, %edi
 5110      00
 5111 270c E8000000 		call	getHexUpperNibble@PLT
 5111      00
 5112 2711 8845BF   		movb	%al, -65(%rbp)
 5113 2714 C645BE37 		movb	$55, -66(%rbp)
 5114 2718 E8000000 		call	_ZN8UnitTest11CurrentTest7ResultsEv@PLT
 5114      00
 5115              		.loc 3 119 2 discriminator 6
 5116 271d 488B00   		movq	(%rax), %rax
 5117 2720 488D4DC0 		leaq	-64(%rbp), %rcx
 5118 2724 488D55BF 		leaq	-65(%rbp), %rdx
 5119 2728 488D75BE 		leaq	-66(%rbp), %rsi
 5120 272c 4889C7   		movq	%rax, %rdi
 5121 272f E8000000 		call	_ZN8UnitTest10CheckEqualIccEEvRNS_11TestResultsERKT_RKT0_RKNS_11TestDetailsE
 5121      00
 5122              	.LEHE251:
 5123              	.L304:
 5124              	.LEHB252:
 120:testConv.cpp  **** 	CHECK_EQUAL('8', getHexUpperNibble(0x8F));
 5125              		.loc 3 120 2 is_stmt 1
 5126 2734 E8000000 		call	_ZN8UnitTest11CurrentTest7DetailsEv@PLT
 5126      00
 5127 2739 488B08   		movq	(%rax), %rcx
 5128 273c 488D45C0 		leaq	-64(%rbp), %rax
 5129 2740 BA780000 		movl	$120, %edx
 5129      00
 5130 2745 4889CE   		movq	%rcx, %rsi
 5131 2748 4889C7   		movq	%rax, %rdi
 5132 274b E8000000 		call	_ZN8UnitTest11TestDetailsC1ERKS0_i@PLT
 5132      00
 5133              		.loc 3 120 2 is_stmt 0 discriminator 4
 5134 2750 BF8F0000 		movl	$143, %edi
 5134      00
 5135 2755 E8000000 		call	getHexUpperNibble@PLT
 5135      00
 5136 275a 8845BF   		movb	%al, -65(%rbp)
 5137 275d C645BE38 		movb	$56, -66(%rbp)
 5138 2761 E8000000 		call	_ZN8UnitTest11CurrentTest7ResultsEv@PLT
 5138      00
 5139              		.loc 3 120 2 discriminator 6
 5140 2766 488B00   		movq	(%rax), %rax
 5141 2769 488D4DC0 		leaq	-64(%rbp), %rcx
 5142 276d 488D55BF 		leaq	-65(%rbp), %rdx
 5143 2771 488D75BE 		leaq	-66(%rbp), %rsi
 5144 2775 4889C7   		movq	%rax, %rdi
 5145 2778 E8000000 		call	_ZN8UnitTest10CheckEqualIccEEvRNS_11TestResultsERKT_RKT0_RKNS_11TestDetailsE
 5145      00
 5146              	.LEHE252:
 5147              	.L307:
 5148              	.LEHB253:
 121:testConv.cpp  **** 	CHECK_EQUAL('9', getHexUpperNibble(0x9F));
 5149              		.loc 3 121 2 is_stmt 1
 5150 277d E8000000 		call	_ZN8UnitTest11CurrentTest7DetailsEv@PLT
 5150      00
 5151 2782 488B08   		movq	(%rax), %rcx
 5152 2785 488D45C0 		leaq	-64(%rbp), %rax
 5153 2789 BA790000 		movl	$121, %edx
 5153      00
 5154 278e 4889CE   		movq	%rcx, %rsi
 5155 2791 4889C7   		movq	%rax, %rdi
 5156 2794 E8000000 		call	_ZN8UnitTest11TestDetailsC1ERKS0_i@PLT
 5156      00
 5157              		.loc 3 121 2 is_stmt 0 discriminator 4
 5158 2799 BF9F0000 		movl	$159, %edi
 5158      00
 5159 279e E8000000 		call	getHexUpperNibble@PLT
 5159      00
 5160 27a3 8845BF   		movb	%al, -65(%rbp)
 5161 27a6 C645BE39 		movb	$57, -66(%rbp)
 5162 27aa E8000000 		call	_ZN8UnitTest11CurrentTest7ResultsEv@PLT
 5162      00
 5163              		.loc 3 121 2 discriminator 6
 5164 27af 488B00   		movq	(%rax), %rax
 5165 27b2 488D4DC0 		leaq	-64(%rbp), %rcx
 5166 27b6 488D55BF 		leaq	-65(%rbp), %rdx
 5167 27ba 488D75BE 		leaq	-66(%rbp), %rsi
 5168 27be 4889C7   		movq	%rax, %rdi
 5169 27c1 E8000000 		call	_ZN8UnitTest10CheckEqualIccEEvRNS_11TestResultsERKT_RKT0_RKNS_11TestDetailsE
 5169      00
 5170              	.LEHE253:
 5171              	.L310:
 5172              	.LEHB254:
 122:testConv.cpp  **** 	CHECK_EQUAL('A', getHexUpperNibble(0xAF));
 5173              		.loc 3 122 2 is_stmt 1
 5174 27c6 E8000000 		call	_ZN8UnitTest11CurrentTest7DetailsEv@PLT
 5174      00
 5175 27cb 488B08   		movq	(%rax), %rcx
 5176 27ce 488D45C0 		leaq	-64(%rbp), %rax
 5177 27d2 BA7A0000 		movl	$122, %edx
 5177      00
 5178 27d7 4889CE   		movq	%rcx, %rsi
 5179 27da 4889C7   		movq	%rax, %rdi
 5180 27dd E8000000 		call	_ZN8UnitTest11TestDetailsC1ERKS0_i@PLT
 5180      00
 5181              		.loc 3 122 2 is_stmt 0 discriminator 4
 5182 27e2 BFAF0000 		movl	$175, %edi
 5182      00
 5183 27e7 E8000000 		call	getHexUpperNibble@PLT
 5183      00
 5184 27ec 8845BF   		movb	%al, -65(%rbp)
 5185 27ef C645BE41 		movb	$65, -66(%rbp)
 5186 27f3 E8000000 		call	_ZN8UnitTest11CurrentTest7ResultsEv@PLT
 5186      00
 5187              		.loc 3 122 2 discriminator 6
 5188 27f8 488B00   		movq	(%rax), %rax
 5189 27fb 488D4DC0 		leaq	-64(%rbp), %rcx
 5190 27ff 488D55BF 		leaq	-65(%rbp), %rdx
 5191 2803 488D75BE 		leaq	-66(%rbp), %rsi
 5192 2807 4889C7   		movq	%rax, %rdi
 5193 280a E8000000 		call	_ZN8UnitTest10CheckEqualIccEEvRNS_11TestResultsERKT_RKT0_RKNS_11TestDetailsE
 5193      00
 5194              	.LEHE254:
 5195              	.L313:
 5196              	.LEHB255:
 123:testConv.cpp  **** 	CHECK_EQUAL('B', getHexUpperNibble(0xBF));
 5197              		.loc 3 123 2 is_stmt 1
 5198 280f E8000000 		call	_ZN8UnitTest11CurrentTest7DetailsEv@PLT
 5198      00
 5199 2814 488B08   		movq	(%rax), %rcx
 5200 2817 488D45C0 		leaq	-64(%rbp), %rax
 5201 281b BA7B0000 		movl	$123, %edx
 5201      00
 5202 2820 4889CE   		movq	%rcx, %rsi
 5203 2823 4889C7   		movq	%rax, %rdi
 5204 2826 E8000000 		call	_ZN8UnitTest11TestDetailsC1ERKS0_i@PLT
 5204      00
 5205              		.loc 3 123 2 is_stmt 0 discriminator 4
 5206 282b BFBF0000 		movl	$191, %edi
 5206      00
 5207 2830 E8000000 		call	getHexUpperNibble@PLT
 5207      00
 5208 2835 8845BF   		movb	%al, -65(%rbp)
 5209 2838 C645BE42 		movb	$66, -66(%rbp)
 5210 283c E8000000 		call	_ZN8UnitTest11CurrentTest7ResultsEv@PLT
 5210      00
 5211              		.loc 3 123 2 discriminator 6
 5212 2841 488B00   		movq	(%rax), %rax
 5213 2844 488D4DC0 		leaq	-64(%rbp), %rcx
 5214 2848 488D55BF 		leaq	-65(%rbp), %rdx
 5215 284c 488D75BE 		leaq	-66(%rbp), %rsi
 5216 2850 4889C7   		movq	%rax, %rdi
 5217 2853 E8000000 		call	_ZN8UnitTest10CheckEqualIccEEvRNS_11TestResultsERKT_RKT0_RKNS_11TestDetailsE
 5217      00
 5218              	.LEHE255:
 5219              	.L316:
 5220              	.LEHB256:
 124:testConv.cpp  **** 	CHECK_EQUAL('C', getHexUpperNibble(0xCF));
 5221              		.loc 3 124 2 is_stmt 1
 5222 2858 E8000000 		call	_ZN8UnitTest11CurrentTest7DetailsEv@PLT
 5222      00
 5223 285d 488B08   		movq	(%rax), %rcx
 5224 2860 488D45C0 		leaq	-64(%rbp), %rax
 5225 2864 BA7C0000 		movl	$124, %edx
 5225      00
 5226 2869 4889CE   		movq	%rcx, %rsi
 5227 286c 4889C7   		movq	%rax, %rdi
 5228 286f E8000000 		call	_ZN8UnitTest11TestDetailsC1ERKS0_i@PLT
 5228      00
 5229              		.loc 3 124 2 is_stmt 0 discriminator 4
 5230 2874 BFCF0000 		movl	$207, %edi
 5230      00
 5231 2879 E8000000 		call	getHexUpperNibble@PLT
 5231      00
 5232 287e 8845BF   		movb	%al, -65(%rbp)
 5233 2881 C645BE43 		movb	$67, -66(%rbp)
 5234 2885 E8000000 		call	_ZN8UnitTest11CurrentTest7ResultsEv@PLT
 5234      00
 5235              		.loc 3 124 2 discriminator 6
 5236 288a 488B00   		movq	(%rax), %rax
 5237 288d 488D4DC0 		leaq	-64(%rbp), %rcx
 5238 2891 488D55BF 		leaq	-65(%rbp), %rdx
 5239 2895 488D75BE 		leaq	-66(%rbp), %rsi
 5240 2899 4889C7   		movq	%rax, %rdi
 5241 289c E8000000 		call	_ZN8UnitTest10CheckEqualIccEEvRNS_11TestResultsERKT_RKT0_RKNS_11TestDetailsE
 5241      00
 5242              	.LEHE256:
 5243              	.L319:
 5244              	.LEHB257:
 125:testConv.cpp  **** 	CHECK_EQUAL('D', getHexUpperNibble(0xDF));
 5245              		.loc 3 125 2 is_stmt 1
 5246 28a1 E8000000 		call	_ZN8UnitTest11CurrentTest7DetailsEv@PLT
 5246      00
 5247 28a6 488B08   		movq	(%rax), %rcx
 5248 28a9 488D45C0 		leaq	-64(%rbp), %rax
 5249 28ad BA7D0000 		movl	$125, %edx
 5249      00
 5250 28b2 4889CE   		movq	%rcx, %rsi
 5251 28b5 4889C7   		movq	%rax, %rdi
 5252 28b8 E8000000 		call	_ZN8UnitTest11TestDetailsC1ERKS0_i@PLT
 5252      00
 5253              		.loc 3 125 2 is_stmt 0 discriminator 4
 5254 28bd BFDF0000 		movl	$223, %edi
 5254      00
 5255 28c2 E8000000 		call	getHexUpperNibble@PLT
 5255      00
 5256 28c7 8845BF   		movb	%al, -65(%rbp)
 5257 28ca C645BE44 		movb	$68, -66(%rbp)
 5258 28ce E8000000 		call	_ZN8UnitTest11CurrentTest7ResultsEv@PLT
 5258      00
 5259              		.loc 3 125 2 discriminator 6
 5260 28d3 488B00   		movq	(%rax), %rax
 5261 28d6 488D4DC0 		leaq	-64(%rbp), %rcx
 5262 28da 488D55BF 		leaq	-65(%rbp), %rdx
 5263 28de 488D75BE 		leaq	-66(%rbp), %rsi
 5264 28e2 4889C7   		movq	%rax, %rdi
 5265 28e5 E8000000 		call	_ZN8UnitTest10CheckEqualIccEEvRNS_11TestResultsERKT_RKT0_RKNS_11TestDetailsE
 5265      00
 5266              	.LEHE257:
 5267              	.L322:
 5268              	.LEHB258:
 126:testConv.cpp  **** 	CHECK_EQUAL('E', getHexUpperNibble(0xEF));
 5269              		.loc 3 126 2 is_stmt 1
 5270 28ea E8000000 		call	_ZN8UnitTest11CurrentTest7DetailsEv@PLT
 5270      00
 5271 28ef 488B08   		movq	(%rax), %rcx
 5272 28f2 488D45C0 		leaq	-64(%rbp), %rax
 5273 28f6 BA7E0000 		movl	$126, %edx
 5273      00
 5274 28fb 4889CE   		movq	%rcx, %rsi
 5275 28fe 4889C7   		movq	%rax, %rdi
 5276 2901 E8000000 		call	_ZN8UnitTest11TestDetailsC1ERKS0_i@PLT
 5276      00
 5277              		.loc 3 126 2 is_stmt 0 discriminator 4
 5278 2906 BFEF0000 		movl	$239, %edi
 5278      00
 5279 290b E8000000 		call	getHexUpperNibble@PLT
 5279      00
 5280 2910 8845BF   		movb	%al, -65(%rbp)
 5281 2913 C645BE45 		movb	$69, -66(%rbp)
 5282 2917 E8000000 		call	_ZN8UnitTest11CurrentTest7ResultsEv@PLT
 5282      00
 5283              		.loc 3 126 2 discriminator 6
 5284 291c 488B00   		movq	(%rax), %rax
 5285 291f 488D4DC0 		leaq	-64(%rbp), %rcx
 5286 2923 488D55BF 		leaq	-65(%rbp), %rdx
 5287 2927 488D75BE 		leaq	-66(%rbp), %rsi
 5288 292b 4889C7   		movq	%rax, %rdi
 5289 292e E8000000 		call	_ZN8UnitTest10CheckEqualIccEEvRNS_11TestResultsERKT_RKT0_RKNS_11TestDetailsE
 5289      00
 5290              	.LEHE258:
 5291              	.L325:
 5292              	.LEHB259:
 127:testConv.cpp  **** 	CHECK_EQUAL('F', getHexUpperNibble(0xFF));
 5293              		.loc 3 127 2 is_stmt 1
 5294 2933 E8000000 		call	_ZN8UnitTest11CurrentTest7DetailsEv@PLT
 5294      00
 5295 2938 488B08   		movq	(%rax), %rcx
 5296 293b 488D45C0 		leaq	-64(%rbp), %rax
 5297 293f BA7F0000 		movl	$127, %edx
 5297      00
 5298 2944 4889CE   		movq	%rcx, %rsi
 5299 2947 4889C7   		movq	%rax, %rdi
 5300 294a E8000000 		call	_ZN8UnitTest11TestDetailsC1ERKS0_i@PLT
 5300      00
 5301              		.loc 3 127 2 is_stmt 0 discriminator 4
 5302 294f BFFF0000 		movl	$255, %edi
 5302      00
 5303 2954 E8000000 		call	getHexUpperNibble@PLT
 5303      00
 5304 2959 8845BF   		movb	%al, -65(%rbp)
 5305 295c C645BE46 		movb	$70, -66(%rbp)
 5306 2960 E8000000 		call	_ZN8UnitTest11CurrentTest7ResultsEv@PLT
 5306      00
 5307              		.loc 3 127 2 discriminator 6
 5308 2965 488B00   		movq	(%rax), %rax
 5309 2968 488D4DC0 		leaq	-64(%rbp), %rcx
 5310 296c 488D55BF 		leaq	-65(%rbp), %rdx
 5311 2970 488D75BE 		leaq	-66(%rbp), %rsi
 5312 2974 4889C7   		movq	%rax, %rdi
 5313 2977 E8000000 		call	_ZN8UnitTest10CheckEqualIccEEvRNS_11TestResultsERKT_RKT0_RKNS_11TestDetailsE
 5313      00
 5314              	.LEHE259:
 128:testConv.cpp  **** }
 5315              		.loc 3 128 1 is_stmt 1
 5316 297c E96D0600 		jmp	.L281
 5316      00
 5317              	.L331:
 5318 2981 F30F1EFA 		endbr64
 112:testConv.cpp  **** 	CHECK_EQUAL('1', getHexUpperNibble(0x1F));
 5319              		.loc 3 112 2
 5320 2985 4889C7   		movq	%rax, %rdi
 5321 2988 E8000000 		call	__cxa_begin_catch@PLT
 5321      00
 5322              	.LEHB260:
 5323 298d E8000000 		call	_ZN8UnitTest11CurrentTest7ResultsEv@PLT
 5323      00
 112:testConv.cpp  **** 	CHECK_EQUAL('1', getHexUpperNibble(0x1F));
 5324              		.loc 3 112 2 is_stmt 0 discriminator 3
 5325 2992 488B18   		movq	(%rax), %rbx
 5326 2995 E8000000 		call	_ZN8UnitTest11CurrentTest7DetailsEv@PLT
 5326      00
 112:testConv.cpp  **** 	CHECK_EQUAL('1', getHexUpperNibble(0x1F));
 5327              		.loc 3 112 2 discriminator 13
 5328 299a 488B08   		movq	(%rax), %rcx
 5329 299d 488D45C0 		leaq	-64(%rbp), %rax
 5330 29a1 BA700000 		movl	$112, %edx
 5330      00
 5331 29a6 4889CE   		movq	%rcx, %rsi
 5332 29a9 4889C7   		movq	%rax, %rdi
 5333 29ac E8000000 		call	_ZN8UnitTest11TestDetailsC1ERKS0_i@PLT
 5333      00
 112:testConv.cpp  **** 	CHECK_EQUAL('1', getHexUpperNibble(0x1F));
 5334              		.loc 3 112 2 discriminator 17
 5335 29b1 488D45C0 		leaq	-64(%rbp), %rax
 5336 29b5 488D1500 		leaq	.LC31(%rip), %rdx
 5336      000000
 5337 29bc 4889C6   		movq	%rax, %rsi
 5338 29bf 4889DF   		movq	%rbx, %rdi
 5339 29c2 E8000000 		call	_ZN8UnitTest11TestResults13OnTestFailureERKNS_11TestDetailsEPKc@PLT
 5339      00
 5340              	.LEHE260:
 5341              	.LEHB261:
 112:testConv.cpp  **** 	CHECK_EQUAL('1', getHexUpperNibble(0x1F));
 5342              		.loc 3 112 2 discriminator 19
 5343 29c7 E8000000 		call	__cxa_end_catch@PLT
 5343      00
 5344              	.LEHE261:
 5345 29cc E964FBFF 		jmp	.L283
 5345      FF
 5346              	.L332:
 5347 29d1 F30F1EFA 		endbr64
 112:testConv.cpp  **** 	CHECK_EQUAL('1', getHexUpperNibble(0x1F));
 5348              		.loc 3 112 2
 5349 29d5 4889C3   		movq	%rax, %rbx
 5350 29d8 E8000000 		call	__cxa_end_catch@PLT
 5350      00
 5351 29dd 4889D8   		movq	%rbx, %rax
 5352 29e0 4889C7   		movq	%rax, %rdi
 5353              	.LEHB262:
 5354 29e3 E8000000 		call	_Unwind_Resume@PLT
 5354      00
 5355              	.LEHE262:
 5356              	.L333:
 5357 29e8 F30F1EFA 		endbr64
 113:testConv.cpp  **** 	CHECK_EQUAL('2', getHexUpperNibble(0x2F));
 5358              		.loc 3 113 2 is_stmt 1
 5359 29ec 4889C7   		movq	%rax, %rdi
 5360 29ef E8000000 		call	__cxa_begin_catch@PLT
 5360      00
 5361              	.LEHB263:
 5362 29f4 E8000000 		call	_ZN8UnitTest11CurrentTest7ResultsEv@PLT
 5362      00
 113:testConv.cpp  **** 	CHECK_EQUAL('2', getHexUpperNibble(0x2F));
 5363              		.loc 3 113 2 is_stmt 0 discriminator 3
 5364 29f9 488B18   		movq	(%rax), %rbx
 5365 29fc E8000000 		call	_ZN8UnitTest11CurrentTest7DetailsEv@PLT
 5365      00
 113:testConv.cpp  **** 	CHECK_EQUAL('2', getHexUpperNibble(0x2F));
 5366              		.loc 3 113 2 discriminator 13
 5367 2a01 488B08   		movq	(%rax), %rcx
 5368 2a04 488D45C0 		leaq	-64(%rbp), %rax
 5369 2a08 BA710000 		movl	$113, %edx
 5369      00
 5370 2a0d 4889CE   		movq	%rcx, %rsi
 5371 2a10 4889C7   		movq	%rax, %rdi
 5372 2a13 E8000000 		call	_ZN8UnitTest11TestDetailsC1ERKS0_i@PLT
 5372      00
 113:testConv.cpp  **** 	CHECK_EQUAL('2', getHexUpperNibble(0x2F));
 5373              		.loc 3 113 2 discriminator 17
 5374 2a18 488D45C0 		leaq	-64(%rbp), %rax
 5375 2a1c 488D1500 		leaq	.LC32(%rip), %rdx
 5375      000000
 5376 2a23 4889C6   		movq	%rax, %rsi
 5377 2a26 4889DF   		movq	%rbx, %rdi
 5378 2a29 E8000000 		call	_ZN8UnitTest11TestResults13OnTestFailureERKNS_11TestDetailsEPKc@PLT
 5378      00
 5379              	.LEHE263:
 5380              	.LEHB264:
 113:testConv.cpp  **** 	CHECK_EQUAL('2', getHexUpperNibble(0x2F));
 5381              		.loc 3 113 2 discriminator 19
 5382 2a2e E8000000 		call	__cxa_end_catch@PLT
 5382      00
 5383              	.LEHE264:
 5384 2a33 E946FBFF 		jmp	.L286
 5384      FF
 5385              	.L334:
 5386 2a38 F30F1EFA 		endbr64
 113:testConv.cpp  **** 	CHECK_EQUAL('2', getHexUpperNibble(0x2F));
 5387              		.loc 3 113 2
 5388 2a3c 4889C3   		movq	%rax, %rbx
 5389 2a3f E8000000 		call	__cxa_end_catch@PLT
 5389      00
 5390 2a44 4889D8   		movq	%rbx, %rax
 5391 2a47 4889C7   		movq	%rax, %rdi
 5392              	.LEHB265:
 5393 2a4a E8000000 		call	_Unwind_Resume@PLT
 5393      00
 5394              	.LEHE265:
 5395              	.L335:
 5396 2a4f F30F1EFA 		endbr64
 114:testConv.cpp  **** 	CHECK_EQUAL('3', getHexUpperNibble(0x3F));
 5397              		.loc 3 114 2 is_stmt 1
 5398 2a53 4889C7   		movq	%rax, %rdi
 5399 2a56 E8000000 		call	__cxa_begin_catch@PLT
 5399      00
 5400              	.LEHB266:
 5401 2a5b E8000000 		call	_ZN8UnitTest11CurrentTest7ResultsEv@PLT
 5401      00
 114:testConv.cpp  **** 	CHECK_EQUAL('3', getHexUpperNibble(0x3F));
 5402              		.loc 3 114 2 is_stmt 0 discriminator 3
 5403 2a60 488B18   		movq	(%rax), %rbx
 5404 2a63 E8000000 		call	_ZN8UnitTest11CurrentTest7DetailsEv@PLT
 5404      00
 114:testConv.cpp  **** 	CHECK_EQUAL('3', getHexUpperNibble(0x3F));
 5405              		.loc 3 114 2 discriminator 13
 5406 2a68 488B08   		movq	(%rax), %rcx
 5407 2a6b 488D45C0 		leaq	-64(%rbp), %rax
 5408 2a6f BA720000 		movl	$114, %edx
 5408      00
 5409 2a74 4889CE   		movq	%rcx, %rsi
 5410 2a77 4889C7   		movq	%rax, %rdi
 5411 2a7a E8000000 		call	_ZN8UnitTest11TestDetailsC1ERKS0_i@PLT
 5411      00
 114:testConv.cpp  **** 	CHECK_EQUAL('3', getHexUpperNibble(0x3F));
 5412              		.loc 3 114 2 discriminator 17
 5413 2a7f 488D45C0 		leaq	-64(%rbp), %rax
 5414 2a83 488D1500 		leaq	.LC33(%rip), %rdx
 5414      000000
 5415 2a8a 4889C6   		movq	%rax, %rsi
 5416 2a8d 4889DF   		movq	%rbx, %rdi
 5417 2a90 E8000000 		call	_ZN8UnitTest11TestResults13OnTestFailureERKNS_11TestDetailsEPKc@PLT
 5417      00
 5418              	.LEHE266:
 5419              	.LEHB267:
 114:testConv.cpp  **** 	CHECK_EQUAL('3', getHexUpperNibble(0x3F));
 5420              		.loc 3 114 2 discriminator 19
 5421 2a95 E8000000 		call	__cxa_end_catch@PLT
 5421      00
 5422              	.LEHE267:
 5423 2a9a E928FBFF 		jmp	.L289
 5423      FF
 5424              	.L336:
 5425 2a9f F30F1EFA 		endbr64
 114:testConv.cpp  **** 	CHECK_EQUAL('3', getHexUpperNibble(0x3F));
 5426              		.loc 3 114 2
 5427 2aa3 4889C3   		movq	%rax, %rbx
 5428 2aa6 E8000000 		call	__cxa_end_catch@PLT
 5428      00
 5429 2aab 4889D8   		movq	%rbx, %rax
 5430 2aae 4889C7   		movq	%rax, %rdi
 5431              	.LEHB268:
 5432 2ab1 E8000000 		call	_Unwind_Resume@PLT
 5432      00
 5433              	.LEHE268:
 5434              	.L337:
 5435 2ab6 F30F1EFA 		endbr64
 115:testConv.cpp  **** 	CHECK_EQUAL('4', getHexUpperNibble(0x4F));
 5436              		.loc 3 115 2 is_stmt 1
 5437 2aba 4889C7   		movq	%rax, %rdi
 5438 2abd E8000000 		call	__cxa_begin_catch@PLT
 5438      00
 5439              	.LEHB269:
 5440 2ac2 E8000000 		call	_ZN8UnitTest11CurrentTest7ResultsEv@PLT
 5440      00
 115:testConv.cpp  **** 	CHECK_EQUAL('4', getHexUpperNibble(0x4F));
 5441              		.loc 3 115 2 is_stmt 0 discriminator 3
 5442 2ac7 488B18   		movq	(%rax), %rbx
 5443 2aca E8000000 		call	_ZN8UnitTest11CurrentTest7DetailsEv@PLT
 5443      00
 115:testConv.cpp  **** 	CHECK_EQUAL('4', getHexUpperNibble(0x4F));
 5444              		.loc 3 115 2 discriminator 13
 5445 2acf 488B08   		movq	(%rax), %rcx
 5446 2ad2 488D45C0 		leaq	-64(%rbp), %rax
 5447 2ad6 BA730000 		movl	$115, %edx
 5447      00
 5448 2adb 4889CE   		movq	%rcx, %rsi
 5449 2ade 4889C7   		movq	%rax, %rdi
 5450 2ae1 E8000000 		call	_ZN8UnitTest11TestDetailsC1ERKS0_i@PLT
 5450      00
 115:testConv.cpp  **** 	CHECK_EQUAL('4', getHexUpperNibble(0x4F));
 5451              		.loc 3 115 2 discriminator 17
 5452 2ae6 488D45C0 		leaq	-64(%rbp), %rax
 5453 2aea 488D1500 		leaq	.LC34(%rip), %rdx
 5453      000000
 5454 2af1 4889C6   		movq	%rax, %rsi
 5455 2af4 4889DF   		movq	%rbx, %rdi
 5456 2af7 E8000000 		call	_ZN8UnitTest11TestResults13OnTestFailureERKNS_11TestDetailsEPKc@PLT
 5456      00
 5457              	.LEHE269:
 5458              	.LEHB270:
 115:testConv.cpp  **** 	CHECK_EQUAL('4', getHexUpperNibble(0x4F));
 5459              		.loc 3 115 2 discriminator 19
 5460 2afc E8000000 		call	__cxa_end_catch@PLT
 5460      00
 5461              	.LEHE270:
 5462 2b01 E90AFBFF 		jmp	.L292
 5462      FF
 5463              	.L338:
 5464 2b06 F30F1EFA 		endbr64
 115:testConv.cpp  **** 	CHECK_EQUAL('4', getHexUpperNibble(0x4F));
 5465              		.loc 3 115 2
 5466 2b0a 4889C3   		movq	%rax, %rbx
 5467 2b0d E8000000 		call	__cxa_end_catch@PLT
 5467      00
 5468 2b12 4889D8   		movq	%rbx, %rax
 5469 2b15 4889C7   		movq	%rax, %rdi
 5470              	.LEHB271:
 5471 2b18 E8000000 		call	_Unwind_Resume@PLT
 5471      00
 5472              	.LEHE271:
 5473              	.L339:
 5474 2b1d F30F1EFA 		endbr64
 116:testConv.cpp  **** 	CHECK_EQUAL('5', getHexUpperNibble(0x5F));
 5475              		.loc 3 116 2 is_stmt 1
 5476 2b21 4889C7   		movq	%rax, %rdi
 5477 2b24 E8000000 		call	__cxa_begin_catch@PLT
 5477      00
 5478              	.LEHB272:
 5479 2b29 E8000000 		call	_ZN8UnitTest11CurrentTest7ResultsEv@PLT
 5479      00
 116:testConv.cpp  **** 	CHECK_EQUAL('5', getHexUpperNibble(0x5F));
 5480              		.loc 3 116 2 is_stmt 0 discriminator 3
 5481 2b2e 488B18   		movq	(%rax), %rbx
 5482 2b31 E8000000 		call	_ZN8UnitTest11CurrentTest7DetailsEv@PLT
 5482      00
 116:testConv.cpp  **** 	CHECK_EQUAL('5', getHexUpperNibble(0x5F));
 5483              		.loc 3 116 2 discriminator 13
 5484 2b36 488B08   		movq	(%rax), %rcx
 5485 2b39 488D45C0 		leaq	-64(%rbp), %rax
 5486 2b3d BA740000 		movl	$116, %edx
 5486      00
 5487 2b42 4889CE   		movq	%rcx, %rsi
 5488 2b45 4889C7   		movq	%rax, %rdi
 5489 2b48 E8000000 		call	_ZN8UnitTest11TestDetailsC1ERKS0_i@PLT
 5489      00
 116:testConv.cpp  **** 	CHECK_EQUAL('5', getHexUpperNibble(0x5F));
 5490              		.loc 3 116 2 discriminator 17
 5491 2b4d 488D45C0 		leaq	-64(%rbp), %rax
 5492 2b51 488D1500 		leaq	.LC35(%rip), %rdx
 5492      000000
 5493 2b58 4889C6   		movq	%rax, %rsi
 5494 2b5b 4889DF   		movq	%rbx, %rdi
 5495 2b5e E8000000 		call	_ZN8UnitTest11TestResults13OnTestFailureERKNS_11TestDetailsEPKc@PLT
 5495      00
 5496              	.LEHE272:
 5497              	.LEHB273:
 116:testConv.cpp  **** 	CHECK_EQUAL('5', getHexUpperNibble(0x5F));
 5498              		.loc 3 116 2 discriminator 19
 5499 2b63 E8000000 		call	__cxa_end_catch@PLT
 5499      00
 5500              	.LEHE273:
 5501 2b68 E9ECFAFF 		jmp	.L295
 5501      FF
 5502              	.L340:
 5503 2b6d F30F1EFA 		endbr64
 116:testConv.cpp  **** 	CHECK_EQUAL('5', getHexUpperNibble(0x5F));
 5504              		.loc 3 116 2
 5505 2b71 4889C3   		movq	%rax, %rbx
 5506 2b74 E8000000 		call	__cxa_end_catch@PLT
 5506      00
 5507 2b79 4889D8   		movq	%rbx, %rax
 5508 2b7c 4889C7   		movq	%rax, %rdi
 5509              	.LEHB274:
 5510 2b7f E8000000 		call	_Unwind_Resume@PLT
 5510      00
 5511              	.LEHE274:
 5512              	.L341:
 5513 2b84 F30F1EFA 		endbr64
 117:testConv.cpp  **** 	CHECK_EQUAL('6', getHexUpperNibble(0x6F));
 5514              		.loc 3 117 2 is_stmt 1
 5515 2b88 4889C7   		movq	%rax, %rdi
 5516 2b8b E8000000 		call	__cxa_begin_catch@PLT
 5516      00
 5517              	.LEHB275:
 5518 2b90 E8000000 		call	_ZN8UnitTest11CurrentTest7ResultsEv@PLT
 5518      00
 117:testConv.cpp  **** 	CHECK_EQUAL('6', getHexUpperNibble(0x6F));
 5519              		.loc 3 117 2 is_stmt 0 discriminator 3
 5520 2b95 488B18   		movq	(%rax), %rbx
 5521 2b98 E8000000 		call	_ZN8UnitTest11CurrentTest7DetailsEv@PLT
 5521      00
 117:testConv.cpp  **** 	CHECK_EQUAL('6', getHexUpperNibble(0x6F));
 5522              		.loc 3 117 2 discriminator 13
 5523 2b9d 488B08   		movq	(%rax), %rcx
 5524 2ba0 488D45C0 		leaq	-64(%rbp), %rax
 5525 2ba4 BA750000 		movl	$117, %edx
 5525      00
 5526 2ba9 4889CE   		movq	%rcx, %rsi
 5527 2bac 4889C7   		movq	%rax, %rdi
 5528 2baf E8000000 		call	_ZN8UnitTest11TestDetailsC1ERKS0_i@PLT
 5528      00
 117:testConv.cpp  **** 	CHECK_EQUAL('6', getHexUpperNibble(0x6F));
 5529              		.loc 3 117 2 discriminator 17
 5530 2bb4 488D45C0 		leaq	-64(%rbp), %rax
 5531 2bb8 488D1500 		leaq	.LC36(%rip), %rdx
 5531      000000
 5532 2bbf 4889C6   		movq	%rax, %rsi
 5533 2bc2 4889DF   		movq	%rbx, %rdi
 5534 2bc5 E8000000 		call	_ZN8UnitTest11TestResults13OnTestFailureERKNS_11TestDetailsEPKc@PLT
 5534      00
 5535              	.LEHE275:
 5536              	.LEHB276:
 117:testConv.cpp  **** 	CHECK_EQUAL('6', getHexUpperNibble(0x6F));
 5537              		.loc 3 117 2 discriminator 19
 5538 2bca E8000000 		call	__cxa_end_catch@PLT
 5538      00
 5539              	.LEHE276:
 5540 2bcf E9CEFAFF 		jmp	.L298
 5540      FF
 5541              	.L342:
 5542 2bd4 F30F1EFA 		endbr64
 117:testConv.cpp  **** 	CHECK_EQUAL('6', getHexUpperNibble(0x6F));
 5543              		.loc 3 117 2
 5544 2bd8 4889C3   		movq	%rax, %rbx
 5545 2bdb E8000000 		call	__cxa_end_catch@PLT
 5545      00
 5546 2be0 4889D8   		movq	%rbx, %rax
 5547 2be3 4889C7   		movq	%rax, %rdi
 5548              	.LEHB277:
 5549 2be6 E8000000 		call	_Unwind_Resume@PLT
 5549      00
 5550              	.LEHE277:
 5551              	.L343:
 5552 2beb F30F1EFA 		endbr64
 118:testConv.cpp  **** 	CHECK_EQUAL('7', getHexUpperNibble(0x7F));
 5553              		.loc 3 118 2 is_stmt 1
 5554 2bef 4889C7   		movq	%rax, %rdi
 5555 2bf2 E8000000 		call	__cxa_begin_catch@PLT
 5555      00
 5556              	.LEHB278:
 5557 2bf7 E8000000 		call	_ZN8UnitTest11CurrentTest7ResultsEv@PLT
 5557      00
 118:testConv.cpp  **** 	CHECK_EQUAL('7', getHexUpperNibble(0x7F));
 5558              		.loc 3 118 2 is_stmt 0 discriminator 3
 5559 2bfc 488B18   		movq	(%rax), %rbx
 5560 2bff E8000000 		call	_ZN8UnitTest11CurrentTest7DetailsEv@PLT
 5560      00
 118:testConv.cpp  **** 	CHECK_EQUAL('7', getHexUpperNibble(0x7F));
 5561              		.loc 3 118 2 discriminator 13
 5562 2c04 488B08   		movq	(%rax), %rcx
 5563 2c07 488D45C0 		leaq	-64(%rbp), %rax
 5564 2c0b BA760000 		movl	$118, %edx
 5564      00
 5565 2c10 4889CE   		movq	%rcx, %rsi
 5566 2c13 4889C7   		movq	%rax, %rdi
 5567 2c16 E8000000 		call	_ZN8UnitTest11TestDetailsC1ERKS0_i@PLT
 5567      00
 118:testConv.cpp  **** 	CHECK_EQUAL('7', getHexUpperNibble(0x7F));
 5568              		.loc 3 118 2 discriminator 17
 5569 2c1b 488D45C0 		leaq	-64(%rbp), %rax
 5570 2c1f 488D1500 		leaq	.LC37(%rip), %rdx
 5570      000000
 5571 2c26 4889C6   		movq	%rax, %rsi
 5572 2c29 4889DF   		movq	%rbx, %rdi
 5573 2c2c E8000000 		call	_ZN8UnitTest11TestResults13OnTestFailureERKNS_11TestDetailsEPKc@PLT
 5573      00
 5574              	.LEHE278:
 5575              	.LEHB279:
 118:testConv.cpp  **** 	CHECK_EQUAL('7', getHexUpperNibble(0x7F));
 5576              		.loc 3 118 2 discriminator 19
 5577 2c31 E8000000 		call	__cxa_end_catch@PLT
 5577      00
 5578              	.LEHE279:
 5579 2c36 E9B0FAFF 		jmp	.L301
 5579      FF
 5580              	.L344:
 5581 2c3b F30F1EFA 		endbr64
 118:testConv.cpp  **** 	CHECK_EQUAL('7', getHexUpperNibble(0x7F));
 5582              		.loc 3 118 2
 5583 2c3f 4889C3   		movq	%rax, %rbx
 5584 2c42 E8000000 		call	__cxa_end_catch@PLT
 5584      00
 5585 2c47 4889D8   		movq	%rbx, %rax
 5586 2c4a 4889C7   		movq	%rax, %rdi
 5587              	.LEHB280:
 5588 2c4d E8000000 		call	_Unwind_Resume@PLT
 5588      00
 5589              	.LEHE280:
 5590              	.L345:
 5591 2c52 F30F1EFA 		endbr64
 119:testConv.cpp  **** 	CHECK_EQUAL('8', getHexUpperNibble(0x8F));
 5592              		.loc 3 119 2 is_stmt 1
 5593 2c56 4889C7   		movq	%rax, %rdi
 5594 2c59 E8000000 		call	__cxa_begin_catch@PLT
 5594      00
 5595              	.LEHB281:
 5596 2c5e E8000000 		call	_ZN8UnitTest11CurrentTest7ResultsEv@PLT
 5596      00
 119:testConv.cpp  **** 	CHECK_EQUAL('8', getHexUpperNibble(0x8F));
 5597              		.loc 3 119 2 is_stmt 0 discriminator 3
 5598 2c63 488B18   		movq	(%rax), %rbx
 5599 2c66 E8000000 		call	_ZN8UnitTest11CurrentTest7DetailsEv@PLT
 5599      00
 119:testConv.cpp  **** 	CHECK_EQUAL('8', getHexUpperNibble(0x8F));
 5600              		.loc 3 119 2 discriminator 13
 5601 2c6b 488B08   		movq	(%rax), %rcx
 5602 2c6e 488D45C0 		leaq	-64(%rbp), %rax
 5603 2c72 BA770000 		movl	$119, %edx
 5603      00
 5604 2c77 4889CE   		movq	%rcx, %rsi
 5605 2c7a 4889C7   		movq	%rax, %rdi
 5606 2c7d E8000000 		call	_ZN8UnitTest11TestDetailsC1ERKS0_i@PLT
 5606      00
 119:testConv.cpp  **** 	CHECK_EQUAL('8', getHexUpperNibble(0x8F));
 5607              		.loc 3 119 2 discriminator 17
 5608 2c82 488D45C0 		leaq	-64(%rbp), %rax
 5609 2c86 488D1500 		leaq	.LC38(%rip), %rdx
 5609      000000
 5610 2c8d 4889C6   		movq	%rax, %rsi
 5611 2c90 4889DF   		movq	%rbx, %rdi
 5612 2c93 E8000000 		call	_ZN8UnitTest11TestResults13OnTestFailureERKNS_11TestDetailsEPKc@PLT
 5612      00
 5613              	.LEHE281:
 5614              	.LEHB282:
 119:testConv.cpp  **** 	CHECK_EQUAL('8', getHexUpperNibble(0x8F));
 5615              		.loc 3 119 2 discriminator 19
 5616 2c98 E8000000 		call	__cxa_end_catch@PLT
 5616      00
 5617              	.LEHE282:
 5618 2c9d E992FAFF 		jmp	.L304
 5618      FF
 5619              	.L346:
 5620 2ca2 F30F1EFA 		endbr64
 119:testConv.cpp  **** 	CHECK_EQUAL('8', getHexUpperNibble(0x8F));
 5621              		.loc 3 119 2
 5622 2ca6 4889C3   		movq	%rax, %rbx
 5623 2ca9 E8000000 		call	__cxa_end_catch@PLT
 5623      00
 5624 2cae 4889D8   		movq	%rbx, %rax
 5625 2cb1 4889C7   		movq	%rax, %rdi
 5626              	.LEHB283:
 5627 2cb4 E8000000 		call	_Unwind_Resume@PLT
 5627      00
 5628              	.LEHE283:
 5629              	.L347:
 5630 2cb9 F30F1EFA 		endbr64
 120:testConv.cpp  **** 	CHECK_EQUAL('9', getHexUpperNibble(0x9F));
 5631              		.loc 3 120 2 is_stmt 1
 5632 2cbd 4889C7   		movq	%rax, %rdi
 5633 2cc0 E8000000 		call	__cxa_begin_catch@PLT
 5633      00
 5634              	.LEHB284:
 5635 2cc5 E8000000 		call	_ZN8UnitTest11CurrentTest7ResultsEv@PLT
 5635      00
 120:testConv.cpp  **** 	CHECK_EQUAL('9', getHexUpperNibble(0x9F));
 5636              		.loc 3 120 2 is_stmt 0 discriminator 3
 5637 2cca 488B18   		movq	(%rax), %rbx
 5638 2ccd E8000000 		call	_ZN8UnitTest11CurrentTest7DetailsEv@PLT
 5638      00
 120:testConv.cpp  **** 	CHECK_EQUAL('9', getHexUpperNibble(0x9F));
 5639              		.loc 3 120 2 discriminator 13
 5640 2cd2 488B08   		movq	(%rax), %rcx
 5641 2cd5 488D45C0 		leaq	-64(%rbp), %rax
 5642 2cd9 BA780000 		movl	$120, %edx
 5642      00
 5643 2cde 4889CE   		movq	%rcx, %rsi
 5644 2ce1 4889C7   		movq	%rax, %rdi
 5645 2ce4 E8000000 		call	_ZN8UnitTest11TestDetailsC1ERKS0_i@PLT
 5645      00
 120:testConv.cpp  **** 	CHECK_EQUAL('9', getHexUpperNibble(0x9F));
 5646              		.loc 3 120 2 discriminator 17
 5647 2ce9 488D45C0 		leaq	-64(%rbp), %rax
 5648 2ced 488D1500 		leaq	.LC39(%rip), %rdx
 5648      000000
 5649 2cf4 4889C6   		movq	%rax, %rsi
 5650 2cf7 4889DF   		movq	%rbx, %rdi
 5651 2cfa E8000000 		call	_ZN8UnitTest11TestResults13OnTestFailureERKNS_11TestDetailsEPKc@PLT
 5651      00
 5652              	.LEHE284:
 5653              	.LEHB285:
 120:testConv.cpp  **** 	CHECK_EQUAL('9', getHexUpperNibble(0x9F));
 5654              		.loc 3 120 2 discriminator 19
 5655 2cff E8000000 		call	__cxa_end_catch@PLT
 5655      00
 5656              	.LEHE285:
 5657 2d04 E974FAFF 		jmp	.L307
 5657      FF
 5658              	.L348:
 5659 2d09 F30F1EFA 		endbr64
 120:testConv.cpp  **** 	CHECK_EQUAL('9', getHexUpperNibble(0x9F));
 5660              		.loc 3 120 2
 5661 2d0d 4889C3   		movq	%rax, %rbx
 5662 2d10 E8000000 		call	__cxa_end_catch@PLT
 5662      00
 5663 2d15 4889D8   		movq	%rbx, %rax
 5664 2d18 4889C7   		movq	%rax, %rdi
 5665              	.LEHB286:
 5666 2d1b E8000000 		call	_Unwind_Resume@PLT
 5666      00
 5667              	.LEHE286:
 5668              	.L349:
 5669 2d20 F30F1EFA 		endbr64
 121:testConv.cpp  **** 	CHECK_EQUAL('A', getHexUpperNibble(0xAF));
 5670              		.loc 3 121 2 is_stmt 1
 5671 2d24 4889C7   		movq	%rax, %rdi
 5672 2d27 E8000000 		call	__cxa_begin_catch@PLT
 5672      00
 5673              	.LEHB287:
 5674 2d2c E8000000 		call	_ZN8UnitTest11CurrentTest7ResultsEv@PLT
 5674      00
 121:testConv.cpp  **** 	CHECK_EQUAL('A', getHexUpperNibble(0xAF));
 5675              		.loc 3 121 2 is_stmt 0 discriminator 3
 5676 2d31 488B18   		movq	(%rax), %rbx
 5677 2d34 E8000000 		call	_ZN8UnitTest11CurrentTest7DetailsEv@PLT
 5677      00
 121:testConv.cpp  **** 	CHECK_EQUAL('A', getHexUpperNibble(0xAF));
 5678              		.loc 3 121 2 discriminator 13
 5679 2d39 488B08   		movq	(%rax), %rcx
 5680 2d3c 488D45C0 		leaq	-64(%rbp), %rax
 5681 2d40 BA790000 		movl	$121, %edx
 5681      00
 5682 2d45 4889CE   		movq	%rcx, %rsi
 5683 2d48 4889C7   		movq	%rax, %rdi
 5684 2d4b E8000000 		call	_ZN8UnitTest11TestDetailsC1ERKS0_i@PLT
 5684      00
 121:testConv.cpp  **** 	CHECK_EQUAL('A', getHexUpperNibble(0xAF));
 5685              		.loc 3 121 2 discriminator 17
 5686 2d50 488D45C0 		leaq	-64(%rbp), %rax
 5687 2d54 488D1500 		leaq	.LC40(%rip), %rdx
 5687      000000
 5688 2d5b 4889C6   		movq	%rax, %rsi
 5689 2d5e 4889DF   		movq	%rbx, %rdi
 5690 2d61 E8000000 		call	_ZN8UnitTest11TestResults13OnTestFailureERKNS_11TestDetailsEPKc@PLT
 5690      00
 5691              	.LEHE287:
 5692              	.LEHB288:
 121:testConv.cpp  **** 	CHECK_EQUAL('A', getHexUpperNibble(0xAF));
 5693              		.loc 3 121 2 discriminator 19
 5694 2d66 E8000000 		call	__cxa_end_catch@PLT
 5694      00
 5695              	.LEHE288:
 5696 2d6b E956FAFF 		jmp	.L310
 5696      FF
 5697              	.L350:
 5698 2d70 F30F1EFA 		endbr64
 121:testConv.cpp  **** 	CHECK_EQUAL('A', getHexUpperNibble(0xAF));
 5699              		.loc 3 121 2
 5700 2d74 4889C3   		movq	%rax, %rbx
 5701 2d77 E8000000 		call	__cxa_end_catch@PLT
 5701      00
 5702 2d7c 4889D8   		movq	%rbx, %rax
 5703 2d7f 4889C7   		movq	%rax, %rdi
 5704              	.LEHB289:
 5705 2d82 E8000000 		call	_Unwind_Resume@PLT
 5705      00
 5706              	.LEHE289:
 5707              	.L351:
 5708 2d87 F30F1EFA 		endbr64
 122:testConv.cpp  **** 	CHECK_EQUAL('B', getHexUpperNibble(0xBF));
 5709              		.loc 3 122 2 is_stmt 1
 5710 2d8b 4889C7   		movq	%rax, %rdi
 5711 2d8e E8000000 		call	__cxa_begin_catch@PLT
 5711      00
 5712              	.LEHB290:
 5713 2d93 E8000000 		call	_ZN8UnitTest11CurrentTest7ResultsEv@PLT
 5713      00
 122:testConv.cpp  **** 	CHECK_EQUAL('B', getHexUpperNibble(0xBF));
 5714              		.loc 3 122 2 is_stmt 0 discriminator 3
 5715 2d98 488B18   		movq	(%rax), %rbx
 5716 2d9b E8000000 		call	_ZN8UnitTest11CurrentTest7DetailsEv@PLT
 5716      00
 122:testConv.cpp  **** 	CHECK_EQUAL('B', getHexUpperNibble(0xBF));
 5717              		.loc 3 122 2 discriminator 13
 5718 2da0 488B08   		movq	(%rax), %rcx
 5719 2da3 488D45C0 		leaq	-64(%rbp), %rax
 5720 2da7 BA7A0000 		movl	$122, %edx
 5720      00
 5721 2dac 4889CE   		movq	%rcx, %rsi
 5722 2daf 4889C7   		movq	%rax, %rdi
 5723 2db2 E8000000 		call	_ZN8UnitTest11TestDetailsC1ERKS0_i@PLT
 5723      00
 122:testConv.cpp  **** 	CHECK_EQUAL('B', getHexUpperNibble(0xBF));
 5724              		.loc 3 122 2 discriminator 17
 5725 2db7 488D45C0 		leaq	-64(%rbp), %rax
 5726 2dbb 488D1500 		leaq	.LC41(%rip), %rdx
 5726      000000
 5727 2dc2 4889C6   		movq	%rax, %rsi
 5728 2dc5 4889DF   		movq	%rbx, %rdi
 5729 2dc8 E8000000 		call	_ZN8UnitTest11TestResults13OnTestFailureERKNS_11TestDetailsEPKc@PLT
 5729      00
 5730              	.LEHE290:
 5731              	.LEHB291:
 122:testConv.cpp  **** 	CHECK_EQUAL('B', getHexUpperNibble(0xBF));
 5732              		.loc 3 122 2 discriminator 19
 5733 2dcd E8000000 		call	__cxa_end_catch@PLT
 5733      00
 5734              	.LEHE291:
 5735 2dd2 E938FAFF 		jmp	.L313
 5735      FF
 5736              	.L352:
 5737 2dd7 F30F1EFA 		endbr64
 122:testConv.cpp  **** 	CHECK_EQUAL('B', getHexUpperNibble(0xBF));
 5738              		.loc 3 122 2
 5739 2ddb 4889C3   		movq	%rax, %rbx
 5740 2dde E8000000 		call	__cxa_end_catch@PLT
 5740      00
 5741 2de3 4889D8   		movq	%rbx, %rax
 5742 2de6 4889C7   		movq	%rax, %rdi
 5743              	.LEHB292:
 5744 2de9 E8000000 		call	_Unwind_Resume@PLT
 5744      00
 5745              	.LEHE292:
 5746              	.L353:
 5747 2dee F30F1EFA 		endbr64
 123:testConv.cpp  **** 	CHECK_EQUAL('C', getHexUpperNibble(0xCF));
 5748              		.loc 3 123 2 is_stmt 1
 5749 2df2 4889C7   		movq	%rax, %rdi
 5750 2df5 E8000000 		call	__cxa_begin_catch@PLT
 5750      00
 5751              	.LEHB293:
 5752 2dfa E8000000 		call	_ZN8UnitTest11CurrentTest7ResultsEv@PLT
 5752      00
 123:testConv.cpp  **** 	CHECK_EQUAL('C', getHexUpperNibble(0xCF));
 5753              		.loc 3 123 2 is_stmt 0 discriminator 3
 5754 2dff 488B18   		movq	(%rax), %rbx
 5755 2e02 E8000000 		call	_ZN8UnitTest11CurrentTest7DetailsEv@PLT
 5755      00
 123:testConv.cpp  **** 	CHECK_EQUAL('C', getHexUpperNibble(0xCF));
 5756              		.loc 3 123 2 discriminator 13
 5757 2e07 488B08   		movq	(%rax), %rcx
 5758 2e0a 488D45C0 		leaq	-64(%rbp), %rax
 5759 2e0e BA7B0000 		movl	$123, %edx
 5759      00
 5760 2e13 4889CE   		movq	%rcx, %rsi
 5761 2e16 4889C7   		movq	%rax, %rdi
 5762 2e19 E8000000 		call	_ZN8UnitTest11TestDetailsC1ERKS0_i@PLT
 5762      00
 123:testConv.cpp  **** 	CHECK_EQUAL('C', getHexUpperNibble(0xCF));
 5763              		.loc 3 123 2 discriminator 17
 5764 2e1e 488D45C0 		leaq	-64(%rbp), %rax
 5765 2e22 488D1500 		leaq	.LC42(%rip), %rdx
 5765      000000
 5766 2e29 4889C6   		movq	%rax, %rsi
 5767 2e2c 4889DF   		movq	%rbx, %rdi
 5768 2e2f E8000000 		call	_ZN8UnitTest11TestResults13OnTestFailureERKNS_11TestDetailsEPKc@PLT
 5768      00
 5769              	.LEHE293:
 5770              	.LEHB294:
 123:testConv.cpp  **** 	CHECK_EQUAL('C', getHexUpperNibble(0xCF));
 5771              		.loc 3 123 2 discriminator 19
 5772 2e34 E8000000 		call	__cxa_end_catch@PLT
 5772      00
 5773              	.LEHE294:
 5774 2e39 E91AFAFF 		jmp	.L316
 5774      FF
 5775              	.L354:
 5776 2e3e F30F1EFA 		endbr64
 123:testConv.cpp  **** 	CHECK_EQUAL('C', getHexUpperNibble(0xCF));
 5777              		.loc 3 123 2
 5778 2e42 4889C3   		movq	%rax, %rbx
 5779 2e45 E8000000 		call	__cxa_end_catch@PLT
 5779      00
 5780 2e4a 4889D8   		movq	%rbx, %rax
 5781 2e4d 4889C7   		movq	%rax, %rdi
 5782              	.LEHB295:
 5783 2e50 E8000000 		call	_Unwind_Resume@PLT
 5783      00
 5784              	.LEHE295:
 5785              	.L355:
 5786 2e55 F30F1EFA 		endbr64
 124:testConv.cpp  **** 	CHECK_EQUAL('D', getHexUpperNibble(0xDF));
 5787              		.loc 3 124 2 is_stmt 1
 5788 2e59 4889C7   		movq	%rax, %rdi
 5789 2e5c E8000000 		call	__cxa_begin_catch@PLT
 5789      00
 5790              	.LEHB296:
 5791 2e61 E8000000 		call	_ZN8UnitTest11CurrentTest7ResultsEv@PLT
 5791      00
 124:testConv.cpp  **** 	CHECK_EQUAL('D', getHexUpperNibble(0xDF));
 5792              		.loc 3 124 2 is_stmt 0 discriminator 3
 5793 2e66 488B18   		movq	(%rax), %rbx
 5794 2e69 E8000000 		call	_ZN8UnitTest11CurrentTest7DetailsEv@PLT
 5794      00
 124:testConv.cpp  **** 	CHECK_EQUAL('D', getHexUpperNibble(0xDF));
 5795              		.loc 3 124 2 discriminator 13
 5796 2e6e 488B08   		movq	(%rax), %rcx
 5797 2e71 488D45C0 		leaq	-64(%rbp), %rax
 5798 2e75 BA7C0000 		movl	$124, %edx
 5798      00
 5799 2e7a 4889CE   		movq	%rcx, %rsi
 5800 2e7d 4889C7   		movq	%rax, %rdi
 5801 2e80 E8000000 		call	_ZN8UnitTest11TestDetailsC1ERKS0_i@PLT
 5801      00
 124:testConv.cpp  **** 	CHECK_EQUAL('D', getHexUpperNibble(0xDF));
 5802              		.loc 3 124 2 discriminator 17
 5803 2e85 488D45C0 		leaq	-64(%rbp), %rax
 5804 2e89 488D1500 		leaq	.LC43(%rip), %rdx
 5804      000000
 5805 2e90 4889C6   		movq	%rax, %rsi
 5806 2e93 4889DF   		movq	%rbx, %rdi
 5807 2e96 E8000000 		call	_ZN8UnitTest11TestResults13OnTestFailureERKNS_11TestDetailsEPKc@PLT
 5807      00
 5808              	.LEHE296:
 5809              	.LEHB297:
 124:testConv.cpp  **** 	CHECK_EQUAL('D', getHexUpperNibble(0xDF));
 5810              		.loc 3 124 2 discriminator 19
 5811 2e9b E8000000 		call	__cxa_end_catch@PLT
 5811      00
 5812              	.LEHE297:
 5813 2ea0 E9FCF9FF 		jmp	.L319
 5813      FF
 5814              	.L356:
 5815 2ea5 F30F1EFA 		endbr64
 124:testConv.cpp  **** 	CHECK_EQUAL('D', getHexUpperNibble(0xDF));
 5816              		.loc 3 124 2
 5817 2ea9 4889C3   		movq	%rax, %rbx
 5818 2eac E8000000 		call	__cxa_end_catch@PLT
 5818      00
 5819 2eb1 4889D8   		movq	%rbx, %rax
 5820 2eb4 4889C7   		movq	%rax, %rdi
 5821              	.LEHB298:
 5822 2eb7 E8000000 		call	_Unwind_Resume@PLT
 5822      00
 5823              	.LEHE298:
 5824              	.L357:
 5825 2ebc F30F1EFA 		endbr64
 125:testConv.cpp  **** 	CHECK_EQUAL('E', getHexUpperNibble(0xEF));
 5826              		.loc 3 125 2 is_stmt 1
 5827 2ec0 4889C7   		movq	%rax, %rdi
 5828 2ec3 E8000000 		call	__cxa_begin_catch@PLT
 5828      00
 5829              	.LEHB299:
 5830 2ec8 E8000000 		call	_ZN8UnitTest11CurrentTest7ResultsEv@PLT
 5830      00
 125:testConv.cpp  **** 	CHECK_EQUAL('E', getHexUpperNibble(0xEF));
 5831              		.loc 3 125 2 is_stmt 0 discriminator 3
 5832 2ecd 488B18   		movq	(%rax), %rbx
 5833 2ed0 E8000000 		call	_ZN8UnitTest11CurrentTest7DetailsEv@PLT
 5833      00
 125:testConv.cpp  **** 	CHECK_EQUAL('E', getHexUpperNibble(0xEF));
 5834              		.loc 3 125 2 discriminator 13
 5835 2ed5 488B08   		movq	(%rax), %rcx
 5836 2ed8 488D45C0 		leaq	-64(%rbp), %rax
 5837 2edc BA7D0000 		movl	$125, %edx
 5837      00
 5838 2ee1 4889CE   		movq	%rcx, %rsi
 5839 2ee4 4889C7   		movq	%rax, %rdi
 5840 2ee7 E8000000 		call	_ZN8UnitTest11TestDetailsC1ERKS0_i@PLT
 5840      00
 125:testConv.cpp  **** 	CHECK_EQUAL('E', getHexUpperNibble(0xEF));
 5841              		.loc 3 125 2 discriminator 17
 5842 2eec 488D45C0 		leaq	-64(%rbp), %rax
 5843 2ef0 488D1500 		leaq	.LC44(%rip), %rdx
 5843      000000
 5844 2ef7 4889C6   		movq	%rax, %rsi
 5845 2efa 4889DF   		movq	%rbx, %rdi
 5846 2efd E8000000 		call	_ZN8UnitTest11TestResults13OnTestFailureERKNS_11TestDetailsEPKc@PLT
 5846      00
 5847              	.LEHE299:
 5848              	.LEHB300:
 125:testConv.cpp  **** 	CHECK_EQUAL('E', getHexUpperNibble(0xEF));
 5849              		.loc 3 125 2 discriminator 19
 5850 2f02 E8000000 		call	__cxa_end_catch@PLT
 5850      00
 5851              	.LEHE300:
 5852 2f07 E9DEF9FF 		jmp	.L322
 5852      FF
 5853              	.L358:
 5854 2f0c F30F1EFA 		endbr64
 125:testConv.cpp  **** 	CHECK_EQUAL('E', getHexUpperNibble(0xEF));
 5855              		.loc 3 125 2
 5856 2f10 4889C3   		movq	%rax, %rbx
 5857 2f13 E8000000 		call	__cxa_end_catch@PLT
 5857      00
 5858 2f18 4889D8   		movq	%rbx, %rax
 5859 2f1b 4889C7   		movq	%rax, %rdi
 5860              	.LEHB301:
 5861 2f1e E8000000 		call	_Unwind_Resume@PLT
 5861      00
 5862              	.LEHE301:
 5863              	.L359:
 5864 2f23 F30F1EFA 		endbr64
 126:testConv.cpp  **** 	CHECK_EQUAL('F', getHexUpperNibble(0xFF));
 5865              		.loc 3 126 2 is_stmt 1
 5866 2f27 4889C7   		movq	%rax, %rdi
 5867 2f2a E8000000 		call	__cxa_begin_catch@PLT
 5867      00
 5868              	.LEHB302:
 5869 2f2f E8000000 		call	_ZN8UnitTest11CurrentTest7ResultsEv@PLT
 5869      00
 126:testConv.cpp  **** 	CHECK_EQUAL('F', getHexUpperNibble(0xFF));
 5870              		.loc 3 126 2 is_stmt 0 discriminator 3
 5871 2f34 488B18   		movq	(%rax), %rbx
 5872 2f37 E8000000 		call	_ZN8UnitTest11CurrentTest7DetailsEv@PLT
 5872      00
 126:testConv.cpp  **** 	CHECK_EQUAL('F', getHexUpperNibble(0xFF));
 5873              		.loc 3 126 2 discriminator 13
 5874 2f3c 488B08   		movq	(%rax), %rcx
 5875 2f3f 488D45C0 		leaq	-64(%rbp), %rax
 5876 2f43 BA7E0000 		movl	$126, %edx
 5876      00
 5877 2f48 4889CE   		movq	%rcx, %rsi
 5878 2f4b 4889C7   		movq	%rax, %rdi
 5879 2f4e E8000000 		call	_ZN8UnitTest11TestDetailsC1ERKS0_i@PLT
 5879      00
 126:testConv.cpp  **** 	CHECK_EQUAL('F', getHexUpperNibble(0xFF));
 5880              		.loc 3 126 2 discriminator 17
 5881 2f53 488D45C0 		leaq	-64(%rbp), %rax
 5882 2f57 488D1500 		leaq	.LC45(%rip), %rdx
 5882      000000
 5883 2f5e 4889C6   		movq	%rax, %rsi
 5884 2f61 4889DF   		movq	%rbx, %rdi
 5885 2f64 E8000000 		call	_ZN8UnitTest11TestResults13OnTestFailureERKNS_11TestDetailsEPKc@PLT
 5885      00
 5886              	.LEHE302:
 5887              	.LEHB303:
 126:testConv.cpp  **** 	CHECK_EQUAL('F', getHexUpperNibble(0xFF));
 5888              		.loc 3 126 2 discriminator 19
 5889 2f69 E8000000 		call	__cxa_end_catch@PLT
 5889      00
 5890              	.LEHE303:
 5891 2f6e E9C0F9FF 		jmp	.L325
 5891      FF
 5892              	.L360:
 5893 2f73 F30F1EFA 		endbr64
 126:testConv.cpp  **** 	CHECK_EQUAL('F', getHexUpperNibble(0xFF));
 5894              		.loc 3 126 2
 5895 2f77 4889C3   		movq	%rax, %rbx
 5896 2f7a E8000000 		call	__cxa_end_catch@PLT
 5896      00
 5897 2f7f 4889D8   		movq	%rbx, %rax
 5898 2f82 4889C7   		movq	%rax, %rdi
 5899              	.LEHB304:
 5900 2f85 E8000000 		call	_Unwind_Resume@PLT
 5900      00
 5901              	.LEHE304:
 5902              	.L361:
 5903 2f8a F30F1EFA 		endbr64
 127:testConv.cpp  **** }
 5904              		.loc 3 127 2 is_stmt 1
 5905 2f8e 4889C7   		movq	%rax, %rdi
 5906 2f91 E8000000 		call	__cxa_begin_catch@PLT
 5906      00
 5907              	.LEHB305:
 5908 2f96 E8000000 		call	_ZN8UnitTest11CurrentTest7ResultsEv@PLT
 5908      00
 127:testConv.cpp  **** }
 5909              		.loc 3 127 2 is_stmt 0 discriminator 3
 5910 2f9b 488B18   		movq	(%rax), %rbx
 5911 2f9e E8000000 		call	_ZN8UnitTest11CurrentTest7DetailsEv@PLT
 5911      00
 127:testConv.cpp  **** }
 5912              		.loc 3 127 2 discriminator 13
 5913 2fa3 488B08   		movq	(%rax), %rcx
 5914 2fa6 488D45C0 		leaq	-64(%rbp), %rax
 5915 2faa BA7F0000 		movl	$127, %edx
 5915      00
 5916 2faf 4889CE   		movq	%rcx, %rsi
 5917 2fb2 4889C7   		movq	%rax, %rdi
 5918 2fb5 E8000000 		call	_ZN8UnitTest11TestDetailsC1ERKS0_i@PLT
 5918      00
 127:testConv.cpp  **** }
 5919              		.loc 3 127 2 discriminator 17
 5920 2fba 488D45C0 		leaq	-64(%rbp), %rax
 5921 2fbe 488D1500 		leaq	.LC46(%rip), %rdx
 5921      000000
 5922 2fc5 4889C6   		movq	%rax, %rsi
 5923 2fc8 4889DF   		movq	%rbx, %rdi
 5924 2fcb E8000000 		call	_ZN8UnitTest11TestResults13OnTestFailureERKNS_11TestDetailsEPKc@PLT
 5924      00
 5925              	.LEHE305:
 5926              	.LEHB306:
 127:testConv.cpp  **** }
 5927              		.loc 3 127 2 discriminator 19
 5928 2fd0 E8000000 		call	__cxa_end_catch@PLT
 5928      00
 5929              	.LEHE306:
 5930              		.loc 3 128 1 is_stmt 1 discriminator 19
 5931 2fd5 EB17     		jmp	.L281
 5932              	.L362:
 5933 2fd7 F30F1EFA 		endbr64
 127:testConv.cpp  **** }
 5934              		.loc 3 127 2
 5935 2fdb 4889C3   		movq	%rax, %rbx
 5936 2fde E8000000 		call	__cxa_end_catch@PLT
 5936      00
 5937 2fe3 4889D8   		movq	%rbx, %rax
 5938 2fe6 4889C7   		movq	%rax, %rdi
 5939              	.LEHB307:
 5940 2fe9 E8000000 		call	_Unwind_Resume@PLT
 5940      00
 5941              	.LEHE307:
 5942              	.L281:
 5943              		.loc 3 128 1
 5944 2fee 488B45E8 		movq	-24(%rbp), %rax
 5945 2ff2 64482B04 		subq	%fs:40, %rax
 5945      25280000 
 5945      00
 5946 2ffb 7405     		je	.L330
 5947 2ffd E8000000 		call	__stack_chk_fail@PLT
 5947      00
 5948              	.L330:
 5949 3002 488B5DF8 		movq	-8(%rbp), %rbx
 5950 3006 C9       		leave
 5951              		.cfi_def_cfa 7, 8
 5952 3007 C3       		ret
 5953              		.cfi_endproc
 5954              	.LFE1156:
 5955              		.section	.gcc_except_table
 5956              		.align 4
 5957              	.LLSDA1156:
 5958 0530 FF       		.byte	0xff
 5959 0531 9B       		.byte	0x9b
 5960 0532 E802     		.uleb128 .LLSDATT1156-.LLSDATTD1156
 5961              	.LLSDATTD1156:
 5962 0534 01       		.byte	0x1
 5963 0535 DE02     		.uleb128 .LLSDACSE1156-.LLSDACSB1156
 5964              	.LLSDACSB1156:
 5965 0537 20       		.uleb128 .LEHB244-.LFB1156
 5966 0538 49       		.uleb128 .LEHE244-.LEHB244
 5967 0539 B509     		.uleb128 .L331-.LFB1156
 5968 053b 01       		.uleb128 0x1
 5969 053c 69       		.uleb128 .LEHB245-.LFB1156
 5970 053d 49       		.uleb128 .LEHE245-.LEHB245
 5971 053e 9C0A     		.uleb128 .L333-.LFB1156
 5972 0540 01       		.uleb128 0x1
 5973 0541 B201     		.uleb128 .LEHB246-.LFB1156
 5974 0543 49       		.uleb128 .LEHE246-.LEHB246
 5975 0544 830B     		.uleb128 .L335-.LFB1156
 5976 0546 01       		.uleb128 0x1
 5977 0547 FB01     		.uleb128 .LEHB247-.LFB1156
 5978 0549 49       		.uleb128 .LEHE247-.LEHB247
 5979 054a EA0B     		.uleb128 .L337-.LFB1156
 5980 054c 01       		.uleb128 0x1
 5981 054d C402     		.uleb128 .LEHB248-.LFB1156
 5982 054f 49       		.uleb128 .LEHE248-.LEHB248
 5983 0550 D10C     		.uleb128 .L339-.LFB1156
 5984 0552 01       		.uleb128 0x1
 5985 0553 8D03     		.uleb128 .LEHB249-.LFB1156
 5986 0555 49       		.uleb128 .LEHE249-.LEHB249
 5987 0556 B80D     		.uleb128 .L341-.LFB1156
 5988 0558 01       		.uleb128 0x1
 5989 0559 D603     		.uleb128 .LEHB250-.LFB1156
 5990 055b 49       		.uleb128 .LEHE250-.LEHB250
 5991 055c 9F0E     		.uleb128 .L343-.LFB1156
 5992 055e 01       		.uleb128 0x1
 5993 055f 9F04     		.uleb128 .LEHB251-.LFB1156
 5994 0561 49       		.uleb128 .LEHE251-.LEHB251
 5995 0562 860F     		.uleb128 .L345-.LFB1156
 5996 0564 01       		.uleb128 0x1
 5997 0565 E804     		.uleb128 .LEHB252-.LFB1156
 5998 0567 49       		.uleb128 .LEHE252-.LEHB252
 5999 0568 ED0F     		.uleb128 .L347-.LFB1156
 6000 056a 01       		.uleb128 0x1
 6001 056b B105     		.uleb128 .LEHB253-.LFB1156
 6002 056d 49       		.uleb128 .LEHE253-.LEHB253
 6003 056e D410     		.uleb128 .L349-.LFB1156
 6004 0570 01       		.uleb128 0x1
 6005 0571 FA05     		.uleb128 .LEHB254-.LFB1156
 6006 0573 49       		.uleb128 .LEHE254-.LEHB254
 6007 0574 BB11     		.uleb128 .L351-.LFB1156
 6008 0576 01       		.uleb128 0x1
 6009 0577 C306     		.uleb128 .LEHB255-.LFB1156
 6010 0579 49       		.uleb128 .LEHE255-.LEHB255
 6011 057a A212     		.uleb128 .L353-.LFB1156
 6012 057c 01       		.uleb128 0x1
 6013 057d 8C07     		.uleb128 .LEHB256-.LFB1156
 6014 057f 49       		.uleb128 .LEHE256-.LEHB256
 6015 0580 8913     		.uleb128 .L355-.LFB1156
 6016 0582 01       		.uleb128 0x1
 6017 0583 D507     		.uleb128 .LEHB257-.LFB1156
 6018 0585 49       		.uleb128 .LEHE257-.LEHB257
 6019 0586 F013     		.uleb128 .L357-.LFB1156
 6020 0588 01       		.uleb128 0x1
 6021 0589 9E08     		.uleb128 .LEHB258-.LFB1156
 6022 058b 49       		.uleb128 .LEHE258-.LEHB258
 6023 058c D714     		.uleb128 .L359-.LFB1156
 6024 058e 01       		.uleb128 0x1
 6025 058f E708     		.uleb128 .LEHB259-.LFB1156
 6026 0591 49       		.uleb128 .LEHE259-.LEHB259
 6027 0592 BE15     		.uleb128 .L361-.LFB1156
 6028 0594 01       		.uleb128 0x1
 6029 0595 C109     		.uleb128 .LEHB260-.LFB1156
 6030 0597 3A       		.uleb128 .LEHE260-.LEHB260
 6031 0598 850A     		.uleb128 .L332-.LFB1156
 6032 059a 00       		.uleb128 0
 6033 059b FB09     		.uleb128 .LEHB261-.LFB1156
 6034 059d 05       		.uleb128 .LEHE261-.LEHB261
 6035 059e 00       		.uleb128 0
 6036 059f 00       		.uleb128 0
 6037 05a0 970A     		.uleb128 .LEHB262-.LFB1156
 6038 05a2 05       		.uleb128 .LEHE262-.LEHB262
 6039 05a3 00       		.uleb128 0
 6040 05a4 00       		.uleb128 0
 6041 05a5 A80A     		.uleb128 .LEHB263-.LFB1156
 6042 05a7 3A       		.uleb128 .LEHE263-.LEHB263
 6043 05a8 EC0A     		.uleb128 .L334-.LFB1156
 6044 05aa 00       		.uleb128 0
 6045 05ab E20A     		.uleb128 .LEHB264-.LFB1156
 6046 05ad 05       		.uleb128 .LEHE264-.LEHB264
 6047 05ae 00       		.uleb128 0
 6048 05af 00       		.uleb128 0
 6049 05b0 FE0A     		.uleb128 .LEHB265-.LFB1156
 6050 05b2 05       		.uleb128 .LEHE265-.LEHB265
 6051 05b3 00       		.uleb128 0
 6052 05b4 00       		.uleb128 0
 6053 05b5 8F0B     		.uleb128 .LEHB266-.LFB1156
 6054 05b7 3A       		.uleb128 .LEHE266-.LEHB266
 6055 05b8 D30B     		.uleb128 .L336-.LFB1156
 6056 05ba 00       		.uleb128 0
 6057 05bb C90B     		.uleb128 .LEHB267-.LFB1156
 6058 05bd 05       		.uleb128 .LEHE267-.LEHB267
 6059 05be 00       		.uleb128 0
 6060 05bf 00       		.uleb128 0
 6061 05c0 E50B     		.uleb128 .LEHB268-.LFB1156
 6062 05c2 05       		.uleb128 .LEHE268-.LEHB268
 6063 05c3 00       		.uleb128 0
 6064 05c4 00       		.uleb128 0
 6065 05c5 F60B     		.uleb128 .LEHB269-.LFB1156
 6066 05c7 3A       		.uleb128 .LEHE269-.LEHB269
 6067 05c8 BA0C     		.uleb128 .L338-.LFB1156
 6068 05ca 00       		.uleb128 0
 6069 05cb B00C     		.uleb128 .LEHB270-.LFB1156
 6070 05cd 05       		.uleb128 .LEHE270-.LEHB270
 6071 05ce 00       		.uleb128 0
 6072 05cf 00       		.uleb128 0
 6073 05d0 CC0C     		.uleb128 .LEHB271-.LFB1156
 6074 05d2 05       		.uleb128 .LEHE271-.LEHB271
 6075 05d3 00       		.uleb128 0
 6076 05d4 00       		.uleb128 0
 6077 05d5 DD0C     		.uleb128 .LEHB272-.LFB1156
 6078 05d7 3A       		.uleb128 .LEHE272-.LEHB272
 6079 05d8 A10D     		.uleb128 .L340-.LFB1156
 6080 05da 00       		.uleb128 0
 6081 05db 970D     		.uleb128 .LEHB273-.LFB1156
 6082 05dd 05       		.uleb128 .LEHE273-.LEHB273
 6083 05de 00       		.uleb128 0
 6084 05df 00       		.uleb128 0
 6085 05e0 B30D     		.uleb128 .LEHB274-.LFB1156
 6086 05e2 05       		.uleb128 .LEHE274-.LEHB274
 6087 05e3 00       		.uleb128 0
 6088 05e4 00       		.uleb128 0
 6089 05e5 C40D     		.uleb128 .LEHB275-.LFB1156
 6090 05e7 3A       		.uleb128 .LEHE275-.LEHB275
 6091 05e8 880E     		.uleb128 .L342-.LFB1156
 6092 05ea 00       		.uleb128 0
 6093 05eb FE0D     		.uleb128 .LEHB276-.LFB1156
 6094 05ed 05       		.uleb128 .LEHE276-.LEHB276
 6095 05ee 00       		.uleb128 0
 6096 05ef 00       		.uleb128 0
 6097 05f0 9A0E     		.uleb128 .LEHB277-.LFB1156
 6098 05f2 05       		.uleb128 .LEHE277-.LEHB277
 6099 05f3 00       		.uleb128 0
 6100 05f4 00       		.uleb128 0
 6101 05f5 AB0E     		.uleb128 .LEHB278-.LFB1156
 6102 05f7 3A       		.uleb128 .LEHE278-.LEHB278
 6103 05f8 EF0E     		.uleb128 .L344-.LFB1156
 6104 05fa 00       		.uleb128 0
 6105 05fb E50E     		.uleb128 .LEHB279-.LFB1156
 6106 05fd 05       		.uleb128 .LEHE279-.LEHB279
 6107 05fe 00       		.uleb128 0
 6108 05ff 00       		.uleb128 0
 6109 0600 810F     		.uleb128 .LEHB280-.LFB1156
 6110 0602 05       		.uleb128 .LEHE280-.LEHB280
 6111 0603 00       		.uleb128 0
 6112 0604 00       		.uleb128 0
 6113 0605 920F     		.uleb128 .LEHB281-.LFB1156
 6114 0607 3A       		.uleb128 .LEHE281-.LEHB281
 6115 0608 D60F     		.uleb128 .L346-.LFB1156
 6116 060a 00       		.uleb128 0
 6117 060b CC0F     		.uleb128 .LEHB282-.LFB1156
 6118 060d 05       		.uleb128 .LEHE282-.LEHB282
 6119 060e 00       		.uleb128 0
 6120 060f 00       		.uleb128 0
 6121 0610 E80F     		.uleb128 .LEHB283-.LFB1156
 6122 0612 05       		.uleb128 .LEHE283-.LEHB283
 6123 0613 00       		.uleb128 0
 6124 0614 00       		.uleb128 0
 6125 0615 F90F     		.uleb128 .LEHB284-.LFB1156
 6126 0617 3A       		.uleb128 .LEHE284-.LEHB284
 6127 0618 BD10     		.uleb128 .L348-.LFB1156
 6128 061a 00       		.uleb128 0
 6129 061b B310     		.uleb128 .LEHB285-.LFB1156
 6130 061d 05       		.uleb128 .LEHE285-.LEHB285
 6131 061e 00       		.uleb128 0
 6132 061f 00       		.uleb128 0
 6133 0620 CF10     		.uleb128 .LEHB286-.LFB1156
 6134 0622 05       		.uleb128 .LEHE286-.LEHB286
 6135 0623 00       		.uleb128 0
 6136 0624 00       		.uleb128 0
 6137 0625 E010     		.uleb128 .LEHB287-.LFB1156
 6138 0627 3A       		.uleb128 .LEHE287-.LEHB287
 6139 0628 A411     		.uleb128 .L350-.LFB1156
 6140 062a 00       		.uleb128 0
 6141 062b 9A11     		.uleb128 .LEHB288-.LFB1156
 6142 062d 05       		.uleb128 .LEHE288-.LEHB288
 6143 062e 00       		.uleb128 0
 6144 062f 00       		.uleb128 0
 6145 0630 B611     		.uleb128 .LEHB289-.LFB1156
 6146 0632 05       		.uleb128 .LEHE289-.LEHB289
 6147 0633 00       		.uleb128 0
 6148 0634 00       		.uleb128 0
 6149 0635 C711     		.uleb128 .LEHB290-.LFB1156
 6150 0637 3A       		.uleb128 .LEHE290-.LEHB290
 6151 0638 8B12     		.uleb128 .L352-.LFB1156
 6152 063a 00       		.uleb128 0
 6153 063b 8112     		.uleb128 .LEHB291-.LFB1156
 6154 063d 05       		.uleb128 .LEHE291-.LEHB291
 6155 063e 00       		.uleb128 0
 6156 063f 00       		.uleb128 0
 6157 0640 9D12     		.uleb128 .LEHB292-.LFB1156
 6158 0642 05       		.uleb128 .LEHE292-.LEHB292
 6159 0643 00       		.uleb128 0
 6160 0644 00       		.uleb128 0
 6161 0645 AE12     		.uleb128 .LEHB293-.LFB1156
 6162 0647 3A       		.uleb128 .LEHE293-.LEHB293
 6163 0648 F212     		.uleb128 .L354-.LFB1156
 6164 064a 00       		.uleb128 0
 6165 064b E812     		.uleb128 .LEHB294-.LFB1156
 6166 064d 05       		.uleb128 .LEHE294-.LEHB294
 6167 064e 00       		.uleb128 0
 6168 064f 00       		.uleb128 0
 6169 0650 8413     		.uleb128 .LEHB295-.LFB1156
 6170 0652 05       		.uleb128 .LEHE295-.LEHB295
 6171 0653 00       		.uleb128 0
 6172 0654 00       		.uleb128 0
 6173 0655 9513     		.uleb128 .LEHB296-.LFB1156
 6174 0657 3A       		.uleb128 .LEHE296-.LEHB296
 6175 0658 D913     		.uleb128 .L356-.LFB1156
 6176 065a 00       		.uleb128 0
 6177 065b CF13     		.uleb128 .LEHB297-.LFB1156
 6178 065d 05       		.uleb128 .LEHE297-.LEHB297
 6179 065e 00       		.uleb128 0
 6180 065f 00       		.uleb128 0
 6181 0660 EB13     		.uleb128 .LEHB298-.LFB1156
 6182 0662 05       		.uleb128 .LEHE298-.LEHB298
 6183 0663 00       		.uleb128 0
 6184 0664 00       		.uleb128 0
 6185 0665 FC13     		.uleb128 .LEHB299-.LFB1156
 6186 0667 3A       		.uleb128 .LEHE299-.LEHB299
 6187 0668 C014     		.uleb128 .L358-.LFB1156
 6188 066a 00       		.uleb128 0
 6189 066b B614     		.uleb128 .LEHB300-.LFB1156
 6190 066d 05       		.uleb128 .LEHE300-.LEHB300
 6191 066e 00       		.uleb128 0
 6192 066f 00       		.uleb128 0
 6193 0670 D214     		.uleb128 .LEHB301-.LFB1156
 6194 0672 05       		.uleb128 .LEHE301-.LEHB301
 6195 0673 00       		.uleb128 0
 6196 0674 00       		.uleb128 0
 6197 0675 E314     		.uleb128 .LEHB302-.LFB1156
 6198 0677 3A       		.uleb128 .LEHE302-.LEHB302
 6199 0678 A715     		.uleb128 .L360-.LFB1156
 6200 067a 00       		.uleb128 0
 6201 067b 9D15     		.uleb128 .LEHB303-.LFB1156
 6202 067d 05       		.uleb128 .LEHE303-.LEHB303
 6203 067e 00       		.uleb128 0
 6204 067f 00       		.uleb128 0
 6205 0680 B915     		.uleb128 .LEHB304-.LFB1156
 6206 0682 05       		.uleb128 .LEHE304-.LEHB304
 6207 0683 00       		.uleb128 0
 6208 0684 00       		.uleb128 0
 6209 0685 CA15     		.uleb128 .LEHB305-.LFB1156
 6210 0687 3A       		.uleb128 .LEHE305-.LEHB305
 6211 0688 8B16     		.uleb128 .L362-.LFB1156
 6212 068a 00       		.uleb128 0
 6213 068b 8416     		.uleb128 .LEHB306-.LFB1156
 6214 068d 05       		.uleb128 .LEHE306-.LEHB306
 6215 068e 00       		.uleb128 0
 6216 068f 00       		.uleb128 0
 6217 0690 9D16     		.uleb128 .LEHB307-.LFB1156
 6218 0692 05       		.uleb128 .LEHE307-.LEHB307
 6219 0693 00       		.uleb128 0
 6220 0694 00       		.uleb128 0
 6221              	.LLSDACSE1156:
 6222 0695 01       		.byte	0x1
 6223 0696 00       		.byte	0
 6224 0697 00       		.align 4
 6225 0698 00000000 		.long	0
 6226              	
 6227              	.LLSDATT1156:
 6228              		.text
 6230              		.section	.rodata
 6231              	.LC47:
 6232 08e9 436F6E76 		.string	"Conv_testGetHexLowerNibble"
 6232      5F746573 
 6232      74476574 
 6232      4865784C 
 6232      6F776572 
 6233              		.section	.text._ZN30TestConv_testGetHexLowerNibbleC2Ev,"axG",@progbits,_ZN30TestConv_testGetHexLow
 6234              		.align 2
 6235              		.weak	_ZN30TestConv_testGetHexLowerNibbleC2Ev
 6237              	_ZN30TestConv_testGetHexLowerNibbleC2Ev:
 6238              	.LFB1158:
 129:testConv.cpp  **** 
 130:testConv.cpp  **** TEST(Conv_testGetHexLowerNibble) {
 6239              		.loc 3 130 1
 6240              		.cfi_startproc
 6241 0000 F30F1EFA 		endbr64
 6242 0004 55       		pushq	%rbp
 6243              		.cfi_def_cfa_offset 16
 6244              		.cfi_offset 6, -16
 6245 0005 4889E5   		movq	%rsp, %rbp
 6246              		.cfi_def_cfa_register 6
 6247 0008 53       		pushq	%rbx
 6248 0009 4883EC18 		subq	$24, %rsp
 6249              		.cfi_offset 3, -24
 6250 000d 48897DE8 		movq	%rdi, -24(%rbp)
 6251              	.LBB7:
 6252              		.loc 3 130 1
 6253 0011 488B5DE8 		movq	-24(%rbp), %rbx
 6254 0015 E8000000 		call	_ZN13UnitTestSuite12GetSuiteNameEv
 6254      00
 6255 001a 4889C2   		movq	%rax, %rdx
 6256 001d 41B88200 		movl	$130, %r8d
 6256      0000
 6257 0023 488D0500 		leaq	.LC1(%rip), %rax
 6257      000000
 6258 002a 4889C1   		movq	%rax, %rcx
 6259 002d 488D0500 		leaq	.LC47(%rip), %rax
 6259      000000
 6260 0034 4889C6   		movq	%rax, %rsi
 6261 0037 4889DF   		movq	%rbx, %rdi
 6262 003a E8000000 		call	_ZN8UnitTest4TestC2EPKcS2_S2_i@PLT
 6262      00
 6263 003f 488D1500 		leaq	16+_ZTV30TestConv_testGetHexLowerNibble(%rip), %rdx
 6263      000000
 6264 0046 488B45E8 		movq	-24(%rbp), %rax
 6265 004a 488910   		movq	%rdx, (%rax)
 6266              	.LBE7:
 6267 004d 90       		nop
 6268 004e 488B5DF8 		movq	-8(%rbp), %rbx
 6269 0052 C9       		leave
 6270              		.cfi_def_cfa 7, 8
 6271 0053 C3       		ret
 6272              		.cfi_endproc
 6273              	.LFE1158:
 6275              		.weak	_ZN30TestConv_testGetHexLowerNibbleC1Ev
 6276              		.set	_ZN30TestConv_testGetHexLowerNibbleC1Ev,_ZN30TestConv_testGetHexLowerNibbleC2Ev
 6277              		.globl	testConv_testGetHexLowerNibbleInstance
 6278              		.bss
 6279 00b9 00000000 		.align 32
 6279      000000
 6282              	testConv_testGetHexLowerNibbleInstance:
 6283 00c0 00000000 		.zero	56
 6283      00000000 
 6283      00000000 
 6283      00000000 
 6283      00000000 
 6284              		.globl	adderConv_testGetHexLowerNibble
 6287              	adderConv_testGetHexLowerNibble:
 6288 00f8 00       		.zero	1
 6289              		.section	.rodata
 6290 0904 00000000 		.align 8
 6291              	.LC48:
 6292 0908 556E6861 		.string	"Unhandled exception in CHECK_EQUAL('0', getHexLowerNibble(0xF0))"
 6292      6E646C65 
 6292      64206578 
 6292      63657074 
 6292      696F6E20 
 6293 0949 00000000 		.align 8
 6293      000000
 6294              	.LC49:
 6295 0950 556E6861 		.string	"Unhandled exception in CHECK_EQUAL('1', getHexLowerNibble(0xF1))"
 6295      6E646C65 
 6295      64206578 
 6295      63657074 
 6295      696F6E20 
 6296 0991 00000000 		.align 8
 6296      000000
 6297              	.LC50:
 6298 0998 556E6861 		.string	"Unhandled exception in CHECK_EQUAL('2', getHexLowerNibble(0xF2))"
 6298      6E646C65 
 6298      64206578 
 6298      63657074 
 6298      696F6E20 
 6299 09d9 00000000 		.align 8
 6299      000000
 6300              	.LC51:
 6301 09e0 556E6861 		.string	"Unhandled exception in CHECK_EQUAL('3', getHexLowerNibble(0xF3))"
 6301      6E646C65 
 6301      64206578 
 6301      63657074 
 6301      696F6E20 
 6302 0a21 00000000 		.align 8
 6302      000000
 6303              	.LC52:
 6304 0a28 556E6861 		.string	"Unhandled exception in CHECK_EQUAL('4', getHexLowerNibble(0xF4))"
 6304      6E646C65 
 6304      64206578 
 6304      63657074 
 6304      696F6E20 
 6305 0a69 00000000 		.align 8
 6305      000000
 6306              	.LC53:
 6307 0a70 556E6861 		.string	"Unhandled exception in CHECK_EQUAL('5', getHexLowerNibble(0xF5))"
 6307      6E646C65 
 6307      64206578 
 6307      63657074 
 6307      696F6E20 
 6308 0ab1 00000000 		.align 8
 6308      000000
 6309              	.LC54:
 6310 0ab8 556E6861 		.string	"Unhandled exception in CHECK_EQUAL('6', getHexLowerNibble(0xF6))"
 6310      6E646C65 
 6310      64206578 
 6310      63657074 
 6310      696F6E20 
 6311 0af9 00000000 		.align 8
 6311      000000
 6312              	.LC55:
 6313 0b00 556E6861 		.string	"Unhandled exception in CHECK_EQUAL('7', getHexLowerNibble(0xF7))"
 6313      6E646C65 
 6313      64206578 
 6313      63657074 
 6313      696F6E20 
 6314 0b41 00000000 		.align 8
 6314      000000
 6315              	.LC56:
 6316 0b48 556E6861 		.string	"Unhandled exception in CHECK_EQUAL('8', getHexLowerNibble(0xF8))"
 6316      6E646C65 
 6316      64206578 
 6316      63657074 
 6316      696F6E20 
 6317 0b89 00000000 		.align 8
 6317      000000
 6318              	.LC57:
 6319 0b90 556E6861 		.string	"Unhandled exception in CHECK_EQUAL('9', getHexLowerNibble(0xF9))"
 6319      6E646C65 
 6319      64206578 
 6319      63657074 
 6319      696F6E20 
 6320 0bd1 00000000 		.align 8
 6320      000000
 6321              	.LC58:
 6322 0bd8 556E6861 		.string	"Unhandled exception in CHECK_EQUAL('A', getHexLowerNibble(0xFA))"
 6322      6E646C65 
 6322      64206578 
 6322      63657074 
 6322      696F6E20 
 6323 0c19 00000000 		.align 8
 6323      000000
 6324              	.LC59:
 6325 0c20 556E6861 		.string	"Unhandled exception in CHECK_EQUAL('B', getHexLowerNibble(0xFB))"
 6325      6E646C65 
 6325      64206578 
 6325      63657074 
 6325      696F6E20 
 6326 0c61 00000000 		.align 8
 6326      000000
 6327              	.LC60:
 6328 0c68 556E6861 		.string	"Unhandled exception in CHECK_EQUAL('C', getHexLowerNibble(0xFC))"
 6328      6E646C65 
 6328      64206578 
 6328      63657074 
 6328      696F6E20 
 6329 0ca9 00000000 		.align 8
 6329      000000
 6330              	.LC61:
 6331 0cb0 556E6861 		.string	"Unhandled exception in CHECK_EQUAL('D', getHexLowerNibble(0xFD))"
 6331      6E646C65 
 6331      64206578 
 6331      63657074 
 6331      696F6E20 
 6332 0cf1 00000000 		.align 8
 6332      000000
 6333              	.LC62:
 6334 0cf8 556E6861 		.string	"Unhandled exception in CHECK_EQUAL('E', getHexLowerNibble(0xFE))"
 6334      6E646C65 
 6334      64206578 
 6334      63657074 
 6334      696F6E20 
 6335 0d39 00000000 		.align 8
 6335      000000
 6336              	.LC63:
 6337 0d40 556E6861 		.string	"Unhandled exception in CHECK_EQUAL('F', getHexLowerNibble(0xFF))"
 6337      6E646C65 
 6337      64206578 
 6337      63657074 
 6337      696F6E20 
 6338              		.text
 6339              		.align 2
 6340              		.globl	_ZNK30TestConv_testGetHexLowerNibble7RunImplEv
 6342              	_ZNK30TestConv_testGetHexLowerNibble7RunImplEv:
 6343              	.LFB1160:
 6344              		.loc 3 130 34
 6345              		.cfi_startproc
 6346              		.cfi_personality 0x9b,DW.ref.__gxx_personality_v0
 6347              		.cfi_lsda 0x1b,.LLSDA1160
 6348 3008 F30F1EFA 		endbr64
 6349 300c 55       		pushq	%rbp
 6350              		.cfi_def_cfa_offset 16
 6351              		.cfi_offset 6, -16
 6352 300d 4889E5   		movq	%rsp, %rbp
 6353              		.cfi_def_cfa_register 6
 6354 3010 53       		pushq	%rbx
 6355 3011 4883EC58 		subq	$88, %rsp
 6356              		.cfi_offset 3, -24
 6357 3015 48897DA8 		movq	%rdi, -88(%rbp)
 6358              		.loc 3 130 34
 6359 3019 64488B04 		movq	%fs:40, %rax
 6359      25280000 
 6359      00
 6360 3022 488945E8 		movq	%rax, -24(%rbp)
 6361 3026 31C0     		xorl	%eax, %eax
 6362              	.LEHB308:
 131:testConv.cpp  **** 	CHECK_EQUAL('0', getHexLowerNibble(0xF0));
 6363              		.loc 3 131 2
 6364 3028 E8000000 		call	_ZN8UnitTest11CurrentTest7DetailsEv@PLT
 6364      00
 6365 302d 488B08   		movq	(%rax), %rcx
 6366 3030 488D45C0 		leaq	-64(%rbp), %rax
 6367 3034 BA830000 		movl	$131, %edx
 6367      00
 6368 3039 4889CE   		movq	%rcx, %rsi
 6369 303c 4889C7   		movq	%rax, %rdi
 6370 303f E8000000 		call	_ZN8UnitTest11TestDetailsC1ERKS0_i@PLT
 6370      00
 6371              		.loc 3 131 2 is_stmt 0 discriminator 4
 6372 3044 BFF00000 		movl	$240, %edi
 6372      00
 6373 3049 E8000000 		call	getHexLowerNibble@PLT
 6373      00
 6374 304e 8845BF   		movb	%al, -65(%rbp)
 6375 3051 C645BE30 		movb	$48, -66(%rbp)
 6376 3055 E8000000 		call	_ZN8UnitTest11CurrentTest7ResultsEv@PLT
 6376      00
 6377              		.loc 3 131 2 discriminator 6
 6378 305a 488B00   		movq	(%rax), %rax
 6379 305d 488D4DC0 		leaq	-64(%rbp), %rcx
 6380 3061 488D55BF 		leaq	-65(%rbp), %rdx
 6381 3065 488D75BE 		leaq	-66(%rbp), %rsi
 6382 3069 4889C7   		movq	%rax, %rdi
 6383 306c E8000000 		call	_ZN8UnitTest10CheckEqualIccEEvRNS_11TestResultsERKT_RKT0_RKNS_11TestDetailsE
 6383      00
 6384              	.LEHE308:
 6385              	.L366:
 6386              	.LEHB309:
 132:testConv.cpp  **** 	CHECK_EQUAL('1', getHexLowerNibble(0xF1));
 6387              		.loc 3 132 2 is_stmt 1
 6388 3071 E8000000 		call	_ZN8UnitTest11CurrentTest7DetailsEv@PLT
 6388      00
 6389 3076 488B08   		movq	(%rax), %rcx
 6390 3079 488D45C0 		leaq	-64(%rbp), %rax
 6391 307d BA840000 		movl	$132, %edx
 6391      00
 6392 3082 4889CE   		movq	%rcx, %rsi
 6393 3085 4889C7   		movq	%rax, %rdi
 6394 3088 E8000000 		call	_ZN8UnitTest11TestDetailsC1ERKS0_i@PLT
 6394      00
 6395              		.loc 3 132 2 is_stmt 0 discriminator 4
 6396 308d BFF10000 		movl	$241, %edi
 6396      00
 6397 3092 E8000000 		call	getHexLowerNibble@PLT
 6397      00
 6398 3097 8845BF   		movb	%al, -65(%rbp)
 6399 309a C645BE31 		movb	$49, -66(%rbp)
 6400 309e E8000000 		call	_ZN8UnitTest11CurrentTest7ResultsEv@PLT
 6400      00
 6401              		.loc 3 132 2 discriminator 6
 6402 30a3 488B00   		movq	(%rax), %rax
 6403 30a6 488D4DC0 		leaq	-64(%rbp), %rcx
 6404 30aa 488D55BF 		leaq	-65(%rbp), %rdx
 6405 30ae 488D75BE 		leaq	-66(%rbp), %rsi
 6406 30b2 4889C7   		movq	%rax, %rdi
 6407 30b5 E8000000 		call	_ZN8UnitTest10CheckEqualIccEEvRNS_11TestResultsERKT_RKT0_RKNS_11TestDetailsE
 6407      00
 6408              	.LEHE309:
 6409              	.L369:
 6410              	.LEHB310:
 133:testConv.cpp  **** 	CHECK_EQUAL('2', getHexLowerNibble(0xF2));
 6411              		.loc 3 133 2 is_stmt 1
 6412 30ba E8000000 		call	_ZN8UnitTest11CurrentTest7DetailsEv@PLT
 6412      00
 6413 30bf 488B08   		movq	(%rax), %rcx
 6414 30c2 488D45C0 		leaq	-64(%rbp), %rax
 6415 30c6 BA850000 		movl	$133, %edx
 6415      00
 6416 30cb 4889CE   		movq	%rcx, %rsi
 6417 30ce 4889C7   		movq	%rax, %rdi
 6418 30d1 E8000000 		call	_ZN8UnitTest11TestDetailsC1ERKS0_i@PLT
 6418      00
 6419              		.loc 3 133 2 is_stmt 0 discriminator 4
 6420 30d6 BFF20000 		movl	$242, %edi
 6420      00
 6421 30db E8000000 		call	getHexLowerNibble@PLT
 6421      00
 6422 30e0 8845BF   		movb	%al, -65(%rbp)
 6423 30e3 C645BE32 		movb	$50, -66(%rbp)
 6424 30e7 E8000000 		call	_ZN8UnitTest11CurrentTest7ResultsEv@PLT
 6424      00
 6425              		.loc 3 133 2 discriminator 6
 6426 30ec 488B00   		movq	(%rax), %rax
 6427 30ef 488D4DC0 		leaq	-64(%rbp), %rcx
 6428 30f3 488D55BF 		leaq	-65(%rbp), %rdx
 6429 30f7 488D75BE 		leaq	-66(%rbp), %rsi
 6430 30fb 4889C7   		movq	%rax, %rdi
 6431 30fe E8000000 		call	_ZN8UnitTest10CheckEqualIccEEvRNS_11TestResultsERKT_RKT0_RKNS_11TestDetailsE
 6431      00
 6432              	.LEHE310:
 6433              	.L372:
 6434              	.LEHB311:
 134:testConv.cpp  **** 	CHECK_EQUAL('3', getHexLowerNibble(0xF3));
 6435              		.loc 3 134 2 is_stmt 1
 6436 3103 E8000000 		call	_ZN8UnitTest11CurrentTest7DetailsEv@PLT
 6436      00
 6437 3108 488B08   		movq	(%rax), %rcx
 6438 310b 488D45C0 		leaq	-64(%rbp), %rax
 6439 310f BA860000 		movl	$134, %edx
 6439      00
 6440 3114 4889CE   		movq	%rcx, %rsi
 6441 3117 4889C7   		movq	%rax, %rdi
 6442 311a E8000000 		call	_ZN8UnitTest11TestDetailsC1ERKS0_i@PLT
 6442      00
 6443              		.loc 3 134 2 is_stmt 0 discriminator 4
 6444 311f BFF30000 		movl	$243, %edi
 6444      00
 6445 3124 E8000000 		call	getHexLowerNibble@PLT
 6445      00
 6446 3129 8845BF   		movb	%al, -65(%rbp)
 6447 312c C645BE33 		movb	$51, -66(%rbp)
 6448 3130 E8000000 		call	_ZN8UnitTest11CurrentTest7ResultsEv@PLT
 6448      00
 6449              		.loc 3 134 2 discriminator 6
 6450 3135 488B00   		movq	(%rax), %rax
 6451 3138 488D4DC0 		leaq	-64(%rbp), %rcx
 6452 313c 488D55BF 		leaq	-65(%rbp), %rdx
 6453 3140 488D75BE 		leaq	-66(%rbp), %rsi
 6454 3144 4889C7   		movq	%rax, %rdi
 6455 3147 E8000000 		call	_ZN8UnitTest10CheckEqualIccEEvRNS_11TestResultsERKT_RKT0_RKNS_11TestDetailsE
 6455      00
 6456              	.LEHE311:
 6457              	.L375:
 6458              	.LEHB312:
 135:testConv.cpp  **** 	CHECK_EQUAL('4', getHexLowerNibble(0xF4));
 6459              		.loc 3 135 2 is_stmt 1
 6460 314c E8000000 		call	_ZN8UnitTest11CurrentTest7DetailsEv@PLT
 6460      00
 6461 3151 488B08   		movq	(%rax), %rcx
 6462 3154 488D45C0 		leaq	-64(%rbp), %rax
 6463 3158 BA870000 		movl	$135, %edx
 6463      00
 6464 315d 4889CE   		movq	%rcx, %rsi
 6465 3160 4889C7   		movq	%rax, %rdi
 6466 3163 E8000000 		call	_ZN8UnitTest11TestDetailsC1ERKS0_i@PLT
 6466      00
 6467              		.loc 3 135 2 is_stmt 0 discriminator 4
 6468 3168 BFF40000 		movl	$244, %edi
 6468      00
 6469 316d E8000000 		call	getHexLowerNibble@PLT
 6469      00
 6470 3172 8845BF   		movb	%al, -65(%rbp)
 6471 3175 C645BE34 		movb	$52, -66(%rbp)
 6472 3179 E8000000 		call	_ZN8UnitTest11CurrentTest7ResultsEv@PLT
 6472      00
 6473              		.loc 3 135 2 discriminator 6
 6474 317e 488B00   		movq	(%rax), %rax
 6475 3181 488D4DC0 		leaq	-64(%rbp), %rcx
 6476 3185 488D55BF 		leaq	-65(%rbp), %rdx
 6477 3189 488D75BE 		leaq	-66(%rbp), %rsi
 6478 318d 4889C7   		movq	%rax, %rdi
 6479 3190 E8000000 		call	_ZN8UnitTest10CheckEqualIccEEvRNS_11TestResultsERKT_RKT0_RKNS_11TestDetailsE
 6479      00
 6480              	.LEHE312:
 6481              	.L378:
 6482              	.LEHB313:
 136:testConv.cpp  **** 	CHECK_EQUAL('5', getHexLowerNibble(0xF5));
 6483              		.loc 3 136 2 is_stmt 1
 6484 3195 E8000000 		call	_ZN8UnitTest11CurrentTest7DetailsEv@PLT
 6484      00
 6485 319a 488B08   		movq	(%rax), %rcx
 6486 319d 488D45C0 		leaq	-64(%rbp), %rax
 6487 31a1 BA880000 		movl	$136, %edx
 6487      00
 6488 31a6 4889CE   		movq	%rcx, %rsi
 6489 31a9 4889C7   		movq	%rax, %rdi
 6490 31ac E8000000 		call	_ZN8UnitTest11TestDetailsC1ERKS0_i@PLT
 6490      00
 6491              		.loc 3 136 2 is_stmt 0 discriminator 4
 6492 31b1 BFF50000 		movl	$245, %edi
 6492      00
 6493 31b6 E8000000 		call	getHexLowerNibble@PLT
 6493      00
 6494 31bb 8845BF   		movb	%al, -65(%rbp)
 6495 31be C645BE35 		movb	$53, -66(%rbp)
 6496 31c2 E8000000 		call	_ZN8UnitTest11CurrentTest7ResultsEv@PLT
 6496      00
 6497              		.loc 3 136 2 discriminator 6
 6498 31c7 488B00   		movq	(%rax), %rax
 6499 31ca 488D4DC0 		leaq	-64(%rbp), %rcx
 6500 31ce 488D55BF 		leaq	-65(%rbp), %rdx
 6501 31d2 488D75BE 		leaq	-66(%rbp), %rsi
 6502 31d6 4889C7   		movq	%rax, %rdi
 6503 31d9 E8000000 		call	_ZN8UnitTest10CheckEqualIccEEvRNS_11TestResultsERKT_RKT0_RKNS_11TestDetailsE
 6503      00
 6504              	.LEHE313:
 6505              	.L381:
 6506              	.LEHB314:
 137:testConv.cpp  **** 	CHECK_EQUAL('6', getHexLowerNibble(0xF6));
 6507              		.loc 3 137 2 is_stmt 1
 6508 31de E8000000 		call	_ZN8UnitTest11CurrentTest7DetailsEv@PLT
 6508      00
 6509 31e3 488B08   		movq	(%rax), %rcx
 6510 31e6 488D45C0 		leaq	-64(%rbp), %rax
 6511 31ea BA890000 		movl	$137, %edx
 6511      00
 6512 31ef 4889CE   		movq	%rcx, %rsi
 6513 31f2 4889C7   		movq	%rax, %rdi
 6514 31f5 E8000000 		call	_ZN8UnitTest11TestDetailsC1ERKS0_i@PLT
 6514      00
 6515              		.loc 3 137 2 is_stmt 0 discriminator 4
 6516 31fa BFF60000 		movl	$246, %edi
 6516      00
 6517 31ff E8000000 		call	getHexLowerNibble@PLT
 6517      00
 6518 3204 8845BF   		movb	%al, -65(%rbp)
 6519 3207 C645BE36 		movb	$54, -66(%rbp)
 6520 320b E8000000 		call	_ZN8UnitTest11CurrentTest7ResultsEv@PLT
 6520      00
 6521              		.loc 3 137 2 discriminator 6
 6522 3210 488B00   		movq	(%rax), %rax
 6523 3213 488D4DC0 		leaq	-64(%rbp), %rcx
 6524 3217 488D55BF 		leaq	-65(%rbp), %rdx
 6525 321b 488D75BE 		leaq	-66(%rbp), %rsi
 6526 321f 4889C7   		movq	%rax, %rdi
 6527 3222 E8000000 		call	_ZN8UnitTest10CheckEqualIccEEvRNS_11TestResultsERKT_RKT0_RKNS_11TestDetailsE
 6527      00
 6528              	.LEHE314:
 6529              	.L384:
 6530              	.LEHB315:
 138:testConv.cpp  **** 	CHECK_EQUAL('7', getHexLowerNibble(0xF7));
 6531              		.loc 3 138 2 is_stmt 1
 6532 3227 E8000000 		call	_ZN8UnitTest11CurrentTest7DetailsEv@PLT
 6532      00
 6533 322c 488B08   		movq	(%rax), %rcx
 6534 322f 488D45C0 		leaq	-64(%rbp), %rax
 6535 3233 BA8A0000 		movl	$138, %edx
 6535      00
 6536 3238 4889CE   		movq	%rcx, %rsi
 6537 323b 4889C7   		movq	%rax, %rdi
 6538 323e E8000000 		call	_ZN8UnitTest11TestDetailsC1ERKS0_i@PLT
 6538      00
 6539              		.loc 3 138 2 is_stmt 0 discriminator 4
 6540 3243 BFF70000 		movl	$247, %edi
 6540      00
 6541 3248 E8000000 		call	getHexLowerNibble@PLT
 6541      00
 6542 324d 8845BF   		movb	%al, -65(%rbp)
 6543 3250 C645BE37 		movb	$55, -66(%rbp)
 6544 3254 E8000000 		call	_ZN8UnitTest11CurrentTest7ResultsEv@PLT
 6544      00
 6545              		.loc 3 138 2 discriminator 6
 6546 3259 488B00   		movq	(%rax), %rax
 6547 325c 488D4DC0 		leaq	-64(%rbp), %rcx
 6548 3260 488D55BF 		leaq	-65(%rbp), %rdx
 6549 3264 488D75BE 		leaq	-66(%rbp), %rsi
 6550 3268 4889C7   		movq	%rax, %rdi
 6551 326b E8000000 		call	_ZN8UnitTest10CheckEqualIccEEvRNS_11TestResultsERKT_RKT0_RKNS_11TestDetailsE
 6551      00
 6552              	.LEHE315:
 6553              	.L387:
 6554              	.LEHB316:
 139:testConv.cpp  **** 	CHECK_EQUAL('8', getHexLowerNibble(0xF8));
 6555              		.loc 3 139 2 is_stmt 1
 6556 3270 E8000000 		call	_ZN8UnitTest11CurrentTest7DetailsEv@PLT
 6556      00
 6557 3275 488B08   		movq	(%rax), %rcx
 6558 3278 488D45C0 		leaq	-64(%rbp), %rax
 6559 327c BA8B0000 		movl	$139, %edx
 6559      00
 6560 3281 4889CE   		movq	%rcx, %rsi
 6561 3284 4889C7   		movq	%rax, %rdi
 6562 3287 E8000000 		call	_ZN8UnitTest11TestDetailsC1ERKS0_i@PLT
 6562      00
 6563              		.loc 3 139 2 is_stmt 0 discriminator 4
 6564 328c BFF80000 		movl	$248, %edi
 6564      00
 6565 3291 E8000000 		call	getHexLowerNibble@PLT
 6565      00
 6566 3296 8845BF   		movb	%al, -65(%rbp)
 6567 3299 C645BE38 		movb	$56, -66(%rbp)
 6568 329d E8000000 		call	_ZN8UnitTest11CurrentTest7ResultsEv@PLT
 6568      00
 6569              		.loc 3 139 2 discriminator 6
 6570 32a2 488B00   		movq	(%rax), %rax
 6571 32a5 488D4DC0 		leaq	-64(%rbp), %rcx
 6572 32a9 488D55BF 		leaq	-65(%rbp), %rdx
 6573 32ad 488D75BE 		leaq	-66(%rbp), %rsi
 6574 32b1 4889C7   		movq	%rax, %rdi
 6575 32b4 E8000000 		call	_ZN8UnitTest10CheckEqualIccEEvRNS_11TestResultsERKT_RKT0_RKNS_11TestDetailsE
 6575      00
 6576              	.LEHE316:
 6577              	.L390:
 6578              	.LEHB317:
 140:testConv.cpp  **** 	CHECK_EQUAL('9', getHexLowerNibble(0xF9));
 6579              		.loc 3 140 2 is_stmt 1
 6580 32b9 E8000000 		call	_ZN8UnitTest11CurrentTest7DetailsEv@PLT
 6580      00
 6581 32be 488B08   		movq	(%rax), %rcx
 6582 32c1 488D45C0 		leaq	-64(%rbp), %rax
 6583 32c5 BA8C0000 		movl	$140, %edx
 6583      00
 6584 32ca 4889CE   		movq	%rcx, %rsi
 6585 32cd 4889C7   		movq	%rax, %rdi
 6586 32d0 E8000000 		call	_ZN8UnitTest11TestDetailsC1ERKS0_i@PLT
 6586      00
 6587              		.loc 3 140 2 is_stmt 0 discriminator 4
 6588 32d5 BFF90000 		movl	$249, %edi
 6588      00
 6589 32da E8000000 		call	getHexLowerNibble@PLT
 6589      00
 6590 32df 8845BF   		movb	%al, -65(%rbp)
 6591 32e2 C645BE39 		movb	$57, -66(%rbp)
 6592 32e6 E8000000 		call	_ZN8UnitTest11CurrentTest7ResultsEv@PLT
 6592      00
 6593              		.loc 3 140 2 discriminator 6
 6594 32eb 488B00   		movq	(%rax), %rax
 6595 32ee 488D4DC0 		leaq	-64(%rbp), %rcx
 6596 32f2 488D55BF 		leaq	-65(%rbp), %rdx
 6597 32f6 488D75BE 		leaq	-66(%rbp), %rsi
 6598 32fa 4889C7   		movq	%rax, %rdi
 6599 32fd E8000000 		call	_ZN8UnitTest10CheckEqualIccEEvRNS_11TestResultsERKT_RKT0_RKNS_11TestDetailsE
 6599      00
 6600              	.LEHE317:
 6601              	.L393:
 6602              	.LEHB318:
 141:testConv.cpp  **** 	CHECK_EQUAL('A', getHexLowerNibble(0xFA));
 6603              		.loc 3 141 2 is_stmt 1
 6604 3302 E8000000 		call	_ZN8UnitTest11CurrentTest7DetailsEv@PLT
 6604      00
 6605 3307 488B08   		movq	(%rax), %rcx
 6606 330a 488D45C0 		leaq	-64(%rbp), %rax
 6607 330e BA8D0000 		movl	$141, %edx
 6607      00
 6608 3313 4889CE   		movq	%rcx, %rsi
 6609 3316 4889C7   		movq	%rax, %rdi
 6610 3319 E8000000 		call	_ZN8UnitTest11TestDetailsC1ERKS0_i@PLT
 6610      00
 6611              		.loc 3 141 2 is_stmt 0 discriminator 4
 6612 331e BFFA0000 		movl	$250, %edi
 6612      00
 6613 3323 E8000000 		call	getHexLowerNibble@PLT
 6613      00
 6614 3328 8845BF   		movb	%al, -65(%rbp)
 6615 332b C645BE41 		movb	$65, -66(%rbp)
 6616 332f E8000000 		call	_ZN8UnitTest11CurrentTest7ResultsEv@PLT
 6616      00
 6617              		.loc 3 141 2 discriminator 6
 6618 3334 488B00   		movq	(%rax), %rax
 6619 3337 488D4DC0 		leaq	-64(%rbp), %rcx
 6620 333b 488D55BF 		leaq	-65(%rbp), %rdx
 6621 333f 488D75BE 		leaq	-66(%rbp), %rsi
 6622 3343 4889C7   		movq	%rax, %rdi
 6623 3346 E8000000 		call	_ZN8UnitTest10CheckEqualIccEEvRNS_11TestResultsERKT_RKT0_RKNS_11TestDetailsE
 6623      00
 6624              	.LEHE318:
 6625              	.L396:
 6626              	.LEHB319:
 142:testConv.cpp  **** 	CHECK_EQUAL('B', getHexLowerNibble(0xFB));
 6627              		.loc 3 142 2 is_stmt 1
 6628 334b E8000000 		call	_ZN8UnitTest11CurrentTest7DetailsEv@PLT
 6628      00
 6629 3350 488B08   		movq	(%rax), %rcx
 6630 3353 488D45C0 		leaq	-64(%rbp), %rax
 6631 3357 BA8E0000 		movl	$142, %edx
 6631      00
 6632 335c 4889CE   		movq	%rcx, %rsi
 6633 335f 4889C7   		movq	%rax, %rdi
 6634 3362 E8000000 		call	_ZN8UnitTest11TestDetailsC1ERKS0_i@PLT
 6634      00
 6635              		.loc 3 142 2 is_stmt 0 discriminator 4
 6636 3367 BFFB0000 		movl	$251, %edi
 6636      00
 6637 336c E8000000 		call	getHexLowerNibble@PLT
 6637      00
 6638 3371 8845BF   		movb	%al, -65(%rbp)
 6639 3374 C645BE42 		movb	$66, -66(%rbp)
 6640 3378 E8000000 		call	_ZN8UnitTest11CurrentTest7ResultsEv@PLT
 6640      00
 6641              		.loc 3 142 2 discriminator 6
 6642 337d 488B00   		movq	(%rax), %rax
 6643 3380 488D4DC0 		leaq	-64(%rbp), %rcx
 6644 3384 488D55BF 		leaq	-65(%rbp), %rdx
 6645 3388 488D75BE 		leaq	-66(%rbp), %rsi
 6646 338c 4889C7   		movq	%rax, %rdi
 6647 338f E8000000 		call	_ZN8UnitTest10CheckEqualIccEEvRNS_11TestResultsERKT_RKT0_RKNS_11TestDetailsE
 6647      00
 6648              	.LEHE319:
 6649              	.L399:
 6650              	.LEHB320:
 143:testConv.cpp  **** 	CHECK_EQUAL('C', getHexLowerNibble(0xFC));
 6651              		.loc 3 143 2 is_stmt 1
 6652 3394 E8000000 		call	_ZN8UnitTest11CurrentTest7DetailsEv@PLT
 6652      00
 6653 3399 488B08   		movq	(%rax), %rcx
 6654 339c 488D45C0 		leaq	-64(%rbp), %rax
 6655 33a0 BA8F0000 		movl	$143, %edx
 6655      00
 6656 33a5 4889CE   		movq	%rcx, %rsi
 6657 33a8 4889C7   		movq	%rax, %rdi
 6658 33ab E8000000 		call	_ZN8UnitTest11TestDetailsC1ERKS0_i@PLT
 6658      00
 6659              		.loc 3 143 2 is_stmt 0 discriminator 4
 6660 33b0 BFFC0000 		movl	$252, %edi
 6660      00
 6661 33b5 E8000000 		call	getHexLowerNibble@PLT
 6661      00
 6662 33ba 8845BF   		movb	%al, -65(%rbp)
 6663 33bd C645BE43 		movb	$67, -66(%rbp)
 6664 33c1 E8000000 		call	_ZN8UnitTest11CurrentTest7ResultsEv@PLT
 6664      00
 6665              		.loc 3 143 2 discriminator 6
 6666 33c6 488B00   		movq	(%rax), %rax
 6667 33c9 488D4DC0 		leaq	-64(%rbp), %rcx
 6668 33cd 488D55BF 		leaq	-65(%rbp), %rdx
 6669 33d1 488D75BE 		leaq	-66(%rbp), %rsi
 6670 33d5 4889C7   		movq	%rax, %rdi
 6671 33d8 E8000000 		call	_ZN8UnitTest10CheckEqualIccEEvRNS_11TestResultsERKT_RKT0_RKNS_11TestDetailsE
 6671      00
 6672              	.LEHE320:
 6673              	.L402:
 6674              	.LEHB321:
 144:testConv.cpp  **** 	CHECK_EQUAL('D', getHexLowerNibble(0xFD));
 6675              		.loc 3 144 2 is_stmt 1
 6676 33dd E8000000 		call	_ZN8UnitTest11CurrentTest7DetailsEv@PLT
 6676      00
 6677 33e2 488B08   		movq	(%rax), %rcx
 6678 33e5 488D45C0 		leaq	-64(%rbp), %rax
 6679 33e9 BA900000 		movl	$144, %edx
 6679      00
 6680 33ee 4889CE   		movq	%rcx, %rsi
 6681 33f1 4889C7   		movq	%rax, %rdi
 6682 33f4 E8000000 		call	_ZN8UnitTest11TestDetailsC1ERKS0_i@PLT
 6682      00
 6683              		.loc 3 144 2 is_stmt 0 discriminator 4
 6684 33f9 BFFD0000 		movl	$253, %edi
 6684      00
 6685 33fe E8000000 		call	getHexLowerNibble@PLT
 6685      00
 6686 3403 8845BF   		movb	%al, -65(%rbp)
 6687 3406 C645BE44 		movb	$68, -66(%rbp)
 6688 340a E8000000 		call	_ZN8UnitTest11CurrentTest7ResultsEv@PLT
 6688      00
 6689              		.loc 3 144 2 discriminator 6
 6690 340f 488B00   		movq	(%rax), %rax
 6691 3412 488D4DC0 		leaq	-64(%rbp), %rcx
 6692 3416 488D55BF 		leaq	-65(%rbp), %rdx
 6693 341a 488D75BE 		leaq	-66(%rbp), %rsi
 6694 341e 4889C7   		movq	%rax, %rdi
 6695 3421 E8000000 		call	_ZN8UnitTest10CheckEqualIccEEvRNS_11TestResultsERKT_RKT0_RKNS_11TestDetailsE
 6695      00
 6696              	.LEHE321:
 6697              	.L405:
 6698              	.LEHB322:
 145:testConv.cpp  **** 	CHECK_EQUAL('E', getHexLowerNibble(0xFE));
 6699              		.loc 3 145 2 is_stmt 1
 6700 3426 E8000000 		call	_ZN8UnitTest11CurrentTest7DetailsEv@PLT
 6700      00
 6701 342b 488B08   		movq	(%rax), %rcx
 6702 342e 488D45C0 		leaq	-64(%rbp), %rax
 6703 3432 BA910000 		movl	$145, %edx
 6703      00
 6704 3437 4889CE   		movq	%rcx, %rsi
 6705 343a 4889C7   		movq	%rax, %rdi
 6706 343d E8000000 		call	_ZN8UnitTest11TestDetailsC1ERKS0_i@PLT
 6706      00
 6707              		.loc 3 145 2 is_stmt 0 discriminator 4
 6708 3442 BFFE0000 		movl	$254, %edi
 6708      00
 6709 3447 E8000000 		call	getHexLowerNibble@PLT
 6709      00
 6710 344c 8845BF   		movb	%al, -65(%rbp)
 6711 344f C645BE45 		movb	$69, -66(%rbp)
 6712 3453 E8000000 		call	_ZN8UnitTest11CurrentTest7ResultsEv@PLT
 6712      00
 6713              		.loc 3 145 2 discriminator 6
 6714 3458 488B00   		movq	(%rax), %rax
 6715 345b 488D4DC0 		leaq	-64(%rbp), %rcx
 6716 345f 488D55BF 		leaq	-65(%rbp), %rdx
 6717 3463 488D75BE 		leaq	-66(%rbp), %rsi
 6718 3467 4889C7   		movq	%rax, %rdi
 6719 346a E8000000 		call	_ZN8UnitTest10CheckEqualIccEEvRNS_11TestResultsERKT_RKT0_RKNS_11TestDetailsE
 6719      00
 6720              	.LEHE322:
 6721              	.L408:
 6722              	.LEHB323:
 146:testConv.cpp  **** 	CHECK_EQUAL('F', getHexLowerNibble(0xFF));
 6723              		.loc 3 146 2 is_stmt 1
 6724 346f E8000000 		call	_ZN8UnitTest11CurrentTest7DetailsEv@PLT
 6724      00
 6725 3474 488B08   		movq	(%rax), %rcx
 6726 3477 488D45C0 		leaq	-64(%rbp), %rax
 6727 347b BA920000 		movl	$146, %edx
 6727      00
 6728 3480 4889CE   		movq	%rcx, %rsi
 6729 3483 4889C7   		movq	%rax, %rdi
 6730 3486 E8000000 		call	_ZN8UnitTest11TestDetailsC1ERKS0_i@PLT
 6730      00
 6731              		.loc 3 146 2 is_stmt 0 discriminator 4
 6732 348b BFFF0000 		movl	$255, %edi
 6732      00
 6733 3490 E8000000 		call	getHexLowerNibble@PLT
 6733      00
 6734 3495 8845BF   		movb	%al, -65(%rbp)
 6735 3498 C645BE46 		movb	$70, -66(%rbp)
 6736 349c E8000000 		call	_ZN8UnitTest11CurrentTest7ResultsEv@PLT
 6736      00
 6737              		.loc 3 146 2 discriminator 6
 6738 34a1 488B00   		movq	(%rax), %rax
 6739 34a4 488D4DC0 		leaq	-64(%rbp), %rcx
 6740 34a8 488D55BF 		leaq	-65(%rbp), %rdx
 6741 34ac 488D75BE 		leaq	-66(%rbp), %rsi
 6742 34b0 4889C7   		movq	%rax, %rdi
 6743 34b3 E8000000 		call	_ZN8UnitTest10CheckEqualIccEEvRNS_11TestResultsERKT_RKT0_RKNS_11TestDetailsE
 6743      00
 6744              	.LEHE323:
 147:testConv.cpp  **** }
 6745              		.loc 3 147 1 is_stmt 1
 6746 34b8 E96D0600 		jmp	.L364
 6746      00
 6747              	.L414:
 6748 34bd F30F1EFA 		endbr64
 131:testConv.cpp  **** 	CHECK_EQUAL('1', getHexLowerNibble(0xF1));
 6749              		.loc 3 131 2
 6750 34c1 4889C7   		movq	%rax, %rdi
 6751 34c4 E8000000 		call	__cxa_begin_catch@PLT
 6751      00
 6752              	.LEHB324:
 6753 34c9 E8000000 		call	_ZN8UnitTest11CurrentTest7ResultsEv@PLT
 6753      00
 131:testConv.cpp  **** 	CHECK_EQUAL('1', getHexLowerNibble(0xF1));
 6754              		.loc 3 131 2 is_stmt 0 discriminator 3
 6755 34ce 488B18   		movq	(%rax), %rbx
 6756 34d1 E8000000 		call	_ZN8UnitTest11CurrentTest7DetailsEv@PLT
 6756      00
 131:testConv.cpp  **** 	CHECK_EQUAL('1', getHexLowerNibble(0xF1));
 6757              		.loc 3 131 2 discriminator 13
 6758 34d6 488B08   		movq	(%rax), %rcx
 6759 34d9 488D45C0 		leaq	-64(%rbp), %rax
 6760 34dd BA830000 		movl	$131, %edx
 6760      00
 6761 34e2 4889CE   		movq	%rcx, %rsi
 6762 34e5 4889C7   		movq	%rax, %rdi
 6763 34e8 E8000000 		call	_ZN8UnitTest11TestDetailsC1ERKS0_i@PLT
 6763      00
 131:testConv.cpp  **** 	CHECK_EQUAL('1', getHexLowerNibble(0xF1));
 6764              		.loc 3 131 2 discriminator 17
 6765 34ed 488D45C0 		leaq	-64(%rbp), %rax
 6766 34f1 488D1500 		leaq	.LC48(%rip), %rdx
 6766      000000
 6767 34f8 4889C6   		movq	%rax, %rsi
 6768 34fb 4889DF   		movq	%rbx, %rdi
 6769 34fe E8000000 		call	_ZN8UnitTest11TestResults13OnTestFailureERKNS_11TestDetailsEPKc@PLT
 6769      00
 6770              	.LEHE324:
 6771              	.LEHB325:
 131:testConv.cpp  **** 	CHECK_EQUAL('1', getHexLowerNibble(0xF1));
 6772              		.loc 3 131 2 discriminator 19
 6773 3503 E8000000 		call	__cxa_end_catch@PLT
 6773      00
 6774              	.LEHE325:
 6775 3508 E964FBFF 		jmp	.L366
 6775      FF
 6776              	.L415:
 6777 350d F30F1EFA 		endbr64
 131:testConv.cpp  **** 	CHECK_EQUAL('1', getHexLowerNibble(0xF1));
 6778              		.loc 3 131 2
 6779 3511 4889C3   		movq	%rax, %rbx
 6780 3514 E8000000 		call	__cxa_end_catch@PLT
 6780      00
 6781 3519 4889D8   		movq	%rbx, %rax
 6782 351c 4889C7   		movq	%rax, %rdi
 6783              	.LEHB326:
 6784 351f E8000000 		call	_Unwind_Resume@PLT
 6784      00
 6785              	.LEHE326:
 6786              	.L416:
 6787 3524 F30F1EFA 		endbr64
 132:testConv.cpp  **** 	CHECK_EQUAL('2', getHexLowerNibble(0xF2));
 6788              		.loc 3 132 2 is_stmt 1
 6789 3528 4889C7   		movq	%rax, %rdi
 6790 352b E8000000 		call	__cxa_begin_catch@PLT
 6790      00
 6791              	.LEHB327:
 6792 3530 E8000000 		call	_ZN8UnitTest11CurrentTest7ResultsEv@PLT
 6792      00
 132:testConv.cpp  **** 	CHECK_EQUAL('2', getHexLowerNibble(0xF2));
 6793              		.loc 3 132 2 is_stmt 0 discriminator 3
 6794 3535 488B18   		movq	(%rax), %rbx
 6795 3538 E8000000 		call	_ZN8UnitTest11CurrentTest7DetailsEv@PLT
 6795      00
 132:testConv.cpp  **** 	CHECK_EQUAL('2', getHexLowerNibble(0xF2));
 6796              		.loc 3 132 2 discriminator 13
 6797 353d 488B08   		movq	(%rax), %rcx
 6798 3540 488D45C0 		leaq	-64(%rbp), %rax
 6799 3544 BA840000 		movl	$132, %edx
 6799      00
 6800 3549 4889CE   		movq	%rcx, %rsi
 6801 354c 4889C7   		movq	%rax, %rdi
 6802 354f E8000000 		call	_ZN8UnitTest11TestDetailsC1ERKS0_i@PLT
 6802      00
 132:testConv.cpp  **** 	CHECK_EQUAL('2', getHexLowerNibble(0xF2));
 6803              		.loc 3 132 2 discriminator 17
 6804 3554 488D45C0 		leaq	-64(%rbp), %rax
 6805 3558 488D1500 		leaq	.LC49(%rip), %rdx
 6805      000000
 6806 355f 4889C6   		movq	%rax, %rsi
 6807 3562 4889DF   		movq	%rbx, %rdi
 6808 3565 E8000000 		call	_ZN8UnitTest11TestResults13OnTestFailureERKNS_11TestDetailsEPKc@PLT
 6808      00
 6809              	.LEHE327:
 6810              	.LEHB328:
 132:testConv.cpp  **** 	CHECK_EQUAL('2', getHexLowerNibble(0xF2));
 6811              		.loc 3 132 2 discriminator 19
 6812 356a E8000000 		call	__cxa_end_catch@PLT
 6812      00
 6813              	.LEHE328:
 6814 356f E946FBFF 		jmp	.L369
 6814      FF
 6815              	.L417:
 6816 3574 F30F1EFA 		endbr64
 132:testConv.cpp  **** 	CHECK_EQUAL('2', getHexLowerNibble(0xF2));
 6817              		.loc 3 132 2
 6818 3578 4889C3   		movq	%rax, %rbx
 6819 357b E8000000 		call	__cxa_end_catch@PLT
 6819      00
 6820 3580 4889D8   		movq	%rbx, %rax
 6821 3583 4889C7   		movq	%rax, %rdi
 6822              	.LEHB329:
 6823 3586 E8000000 		call	_Unwind_Resume@PLT
 6823      00
 6824              	.LEHE329:
 6825              	.L418:
 6826 358b F30F1EFA 		endbr64
 133:testConv.cpp  **** 	CHECK_EQUAL('3', getHexLowerNibble(0xF3));
 6827              		.loc 3 133 2 is_stmt 1
 6828 358f 4889C7   		movq	%rax, %rdi
 6829 3592 E8000000 		call	__cxa_begin_catch@PLT
 6829      00
 6830              	.LEHB330:
 6831 3597 E8000000 		call	_ZN8UnitTest11CurrentTest7ResultsEv@PLT
 6831      00
 133:testConv.cpp  **** 	CHECK_EQUAL('3', getHexLowerNibble(0xF3));
 6832              		.loc 3 133 2 is_stmt 0 discriminator 3
 6833 359c 488B18   		movq	(%rax), %rbx
 6834 359f E8000000 		call	_ZN8UnitTest11CurrentTest7DetailsEv@PLT
 6834      00
 133:testConv.cpp  **** 	CHECK_EQUAL('3', getHexLowerNibble(0xF3));
 6835              		.loc 3 133 2 discriminator 13
 6836 35a4 488B08   		movq	(%rax), %rcx
 6837 35a7 488D45C0 		leaq	-64(%rbp), %rax
 6838 35ab BA850000 		movl	$133, %edx
 6838      00
 6839 35b0 4889CE   		movq	%rcx, %rsi
 6840 35b3 4889C7   		movq	%rax, %rdi
 6841 35b6 E8000000 		call	_ZN8UnitTest11TestDetailsC1ERKS0_i@PLT
 6841      00
 133:testConv.cpp  **** 	CHECK_EQUAL('3', getHexLowerNibble(0xF3));
 6842              		.loc 3 133 2 discriminator 17
 6843 35bb 488D45C0 		leaq	-64(%rbp), %rax
 6844 35bf 488D1500 		leaq	.LC50(%rip), %rdx
 6844      000000
 6845 35c6 4889C6   		movq	%rax, %rsi
 6846 35c9 4889DF   		movq	%rbx, %rdi
 6847 35cc E8000000 		call	_ZN8UnitTest11TestResults13OnTestFailureERKNS_11TestDetailsEPKc@PLT
 6847      00
 6848              	.LEHE330:
 6849              	.LEHB331:
 133:testConv.cpp  **** 	CHECK_EQUAL('3', getHexLowerNibble(0xF3));
 6850              		.loc 3 133 2 discriminator 19
 6851 35d1 E8000000 		call	__cxa_end_catch@PLT
 6851      00
 6852              	.LEHE331:
 6853 35d6 E928FBFF 		jmp	.L372
 6853      FF
 6854              	.L419:
 6855 35db F30F1EFA 		endbr64
 133:testConv.cpp  **** 	CHECK_EQUAL('3', getHexLowerNibble(0xF3));
 6856              		.loc 3 133 2
 6857 35df 4889C3   		movq	%rax, %rbx
 6858 35e2 E8000000 		call	__cxa_end_catch@PLT
 6858      00
 6859 35e7 4889D8   		movq	%rbx, %rax
 6860 35ea 4889C7   		movq	%rax, %rdi
 6861              	.LEHB332:
 6862 35ed E8000000 		call	_Unwind_Resume@PLT
 6862      00
 6863              	.LEHE332:
 6864              	.L420:
 6865 35f2 F30F1EFA 		endbr64
 134:testConv.cpp  **** 	CHECK_EQUAL('4', getHexLowerNibble(0xF4));
 6866              		.loc 3 134 2 is_stmt 1
 6867 35f6 4889C7   		movq	%rax, %rdi
 6868 35f9 E8000000 		call	__cxa_begin_catch@PLT
 6868      00
 6869              	.LEHB333:
 6870 35fe E8000000 		call	_ZN8UnitTest11CurrentTest7ResultsEv@PLT
 6870      00
 134:testConv.cpp  **** 	CHECK_EQUAL('4', getHexLowerNibble(0xF4));
 6871              		.loc 3 134 2 is_stmt 0 discriminator 3
 6872 3603 488B18   		movq	(%rax), %rbx
 6873 3606 E8000000 		call	_ZN8UnitTest11CurrentTest7DetailsEv@PLT
 6873      00
 134:testConv.cpp  **** 	CHECK_EQUAL('4', getHexLowerNibble(0xF4));
 6874              		.loc 3 134 2 discriminator 13
 6875 360b 488B08   		movq	(%rax), %rcx
 6876 360e 488D45C0 		leaq	-64(%rbp), %rax
 6877 3612 BA860000 		movl	$134, %edx
 6877      00
 6878 3617 4889CE   		movq	%rcx, %rsi
 6879 361a 4889C7   		movq	%rax, %rdi
 6880 361d E8000000 		call	_ZN8UnitTest11TestDetailsC1ERKS0_i@PLT
 6880      00
 134:testConv.cpp  **** 	CHECK_EQUAL('4', getHexLowerNibble(0xF4));
 6881              		.loc 3 134 2 discriminator 17
 6882 3622 488D45C0 		leaq	-64(%rbp), %rax
 6883 3626 488D1500 		leaq	.LC51(%rip), %rdx
 6883      000000
 6884 362d 4889C6   		movq	%rax, %rsi
 6885 3630 4889DF   		movq	%rbx, %rdi
 6886 3633 E8000000 		call	_ZN8UnitTest11TestResults13OnTestFailureERKNS_11TestDetailsEPKc@PLT
 6886      00
 6887              	.LEHE333:
 6888              	.LEHB334:
 134:testConv.cpp  **** 	CHECK_EQUAL('4', getHexLowerNibble(0xF4));
 6889              		.loc 3 134 2 discriminator 19
 6890 3638 E8000000 		call	__cxa_end_catch@PLT
 6890      00
 6891              	.LEHE334:
 6892 363d E90AFBFF 		jmp	.L375
 6892      FF
 6893              	.L421:
 6894 3642 F30F1EFA 		endbr64
 134:testConv.cpp  **** 	CHECK_EQUAL('4', getHexLowerNibble(0xF4));
 6895              		.loc 3 134 2
 6896 3646 4889C3   		movq	%rax, %rbx
 6897 3649 E8000000 		call	__cxa_end_catch@PLT
 6897      00
 6898 364e 4889D8   		movq	%rbx, %rax
 6899 3651 4889C7   		movq	%rax, %rdi
 6900              	.LEHB335:
 6901 3654 E8000000 		call	_Unwind_Resume@PLT
 6901      00
 6902              	.LEHE335:
 6903              	.L422:
 6904 3659 F30F1EFA 		endbr64
 135:testConv.cpp  **** 	CHECK_EQUAL('5', getHexLowerNibble(0xF5));
 6905              		.loc 3 135 2 is_stmt 1
 6906 365d 4889C7   		movq	%rax, %rdi
 6907 3660 E8000000 		call	__cxa_begin_catch@PLT
 6907      00
 6908              	.LEHB336:
 6909 3665 E8000000 		call	_ZN8UnitTest11CurrentTest7ResultsEv@PLT
 6909      00
 135:testConv.cpp  **** 	CHECK_EQUAL('5', getHexLowerNibble(0xF5));
 6910              		.loc 3 135 2 is_stmt 0 discriminator 3
 6911 366a 488B18   		movq	(%rax), %rbx
 6912 366d E8000000 		call	_ZN8UnitTest11CurrentTest7DetailsEv@PLT
 6912      00
 135:testConv.cpp  **** 	CHECK_EQUAL('5', getHexLowerNibble(0xF5));
 6913              		.loc 3 135 2 discriminator 13
 6914 3672 488B08   		movq	(%rax), %rcx
 6915 3675 488D45C0 		leaq	-64(%rbp), %rax
 6916 3679 BA870000 		movl	$135, %edx
 6916      00
 6917 367e 4889CE   		movq	%rcx, %rsi
 6918 3681 4889C7   		movq	%rax, %rdi
 6919 3684 E8000000 		call	_ZN8UnitTest11TestDetailsC1ERKS0_i@PLT
 6919      00
 135:testConv.cpp  **** 	CHECK_EQUAL('5', getHexLowerNibble(0xF5));
 6920              		.loc 3 135 2 discriminator 17
 6921 3689 488D45C0 		leaq	-64(%rbp), %rax
 6922 368d 488D1500 		leaq	.LC52(%rip), %rdx
 6922      000000
 6923 3694 4889C6   		movq	%rax, %rsi
 6924 3697 4889DF   		movq	%rbx, %rdi
 6925 369a E8000000 		call	_ZN8UnitTest11TestResults13OnTestFailureERKNS_11TestDetailsEPKc@PLT
 6925      00
 6926              	.LEHE336:
 6927              	.LEHB337:
 135:testConv.cpp  **** 	CHECK_EQUAL('5', getHexLowerNibble(0xF5));
 6928              		.loc 3 135 2 discriminator 19
 6929 369f E8000000 		call	__cxa_end_catch@PLT
 6929      00
 6930              	.LEHE337:
 6931 36a4 E9ECFAFF 		jmp	.L378
 6931      FF
 6932              	.L423:
 6933 36a9 F30F1EFA 		endbr64
 135:testConv.cpp  **** 	CHECK_EQUAL('5', getHexLowerNibble(0xF5));
 6934              		.loc 3 135 2
 6935 36ad 4889C3   		movq	%rax, %rbx
 6936 36b0 E8000000 		call	__cxa_end_catch@PLT
 6936      00
 6937 36b5 4889D8   		movq	%rbx, %rax
 6938 36b8 4889C7   		movq	%rax, %rdi
 6939              	.LEHB338:
 6940 36bb E8000000 		call	_Unwind_Resume@PLT
 6940      00
 6941              	.LEHE338:
 6942              	.L424:
 6943 36c0 F30F1EFA 		endbr64
 136:testConv.cpp  **** 	CHECK_EQUAL('6', getHexLowerNibble(0xF6));
 6944              		.loc 3 136 2 is_stmt 1
 6945 36c4 4889C7   		movq	%rax, %rdi
 6946 36c7 E8000000 		call	__cxa_begin_catch@PLT
 6946      00
 6947              	.LEHB339:
 6948 36cc E8000000 		call	_ZN8UnitTest11CurrentTest7ResultsEv@PLT
 6948      00
 136:testConv.cpp  **** 	CHECK_EQUAL('6', getHexLowerNibble(0xF6));
 6949              		.loc 3 136 2 is_stmt 0 discriminator 3
 6950 36d1 488B18   		movq	(%rax), %rbx
 6951 36d4 E8000000 		call	_ZN8UnitTest11CurrentTest7DetailsEv@PLT
 6951      00
 136:testConv.cpp  **** 	CHECK_EQUAL('6', getHexLowerNibble(0xF6));
 6952              		.loc 3 136 2 discriminator 13
 6953 36d9 488B08   		movq	(%rax), %rcx
 6954 36dc 488D45C0 		leaq	-64(%rbp), %rax
 6955 36e0 BA880000 		movl	$136, %edx
 6955      00
 6956 36e5 4889CE   		movq	%rcx, %rsi
 6957 36e8 4889C7   		movq	%rax, %rdi
 6958 36eb E8000000 		call	_ZN8UnitTest11TestDetailsC1ERKS0_i@PLT
 6958      00
 136:testConv.cpp  **** 	CHECK_EQUAL('6', getHexLowerNibble(0xF6));
 6959              		.loc 3 136 2 discriminator 17
 6960 36f0 488D45C0 		leaq	-64(%rbp), %rax
 6961 36f4 488D1500 		leaq	.LC53(%rip), %rdx
 6961      000000
 6962 36fb 4889C6   		movq	%rax, %rsi
 6963 36fe 4889DF   		movq	%rbx, %rdi
 6964 3701 E8000000 		call	_ZN8UnitTest11TestResults13OnTestFailureERKNS_11TestDetailsEPKc@PLT
 6964      00
 6965              	.LEHE339:
 6966              	.LEHB340:
 136:testConv.cpp  **** 	CHECK_EQUAL('6', getHexLowerNibble(0xF6));
 6967              		.loc 3 136 2 discriminator 19
 6968 3706 E8000000 		call	__cxa_end_catch@PLT
 6968      00
 6969              	.LEHE340:
 6970 370b E9CEFAFF 		jmp	.L381
 6970      FF
 6971              	.L425:
 6972 3710 F30F1EFA 		endbr64
 136:testConv.cpp  **** 	CHECK_EQUAL('6', getHexLowerNibble(0xF6));
 6973              		.loc 3 136 2
 6974 3714 4889C3   		movq	%rax, %rbx
 6975 3717 E8000000 		call	__cxa_end_catch@PLT
 6975      00
 6976 371c 4889D8   		movq	%rbx, %rax
 6977 371f 4889C7   		movq	%rax, %rdi
 6978              	.LEHB341:
 6979 3722 E8000000 		call	_Unwind_Resume@PLT
 6979      00
 6980              	.LEHE341:
 6981              	.L426:
 6982 3727 F30F1EFA 		endbr64
 137:testConv.cpp  **** 	CHECK_EQUAL('7', getHexLowerNibble(0xF7));
 6983              		.loc 3 137 2 is_stmt 1
 6984 372b 4889C7   		movq	%rax, %rdi
 6985 372e E8000000 		call	__cxa_begin_catch@PLT
 6985      00
 6986              	.LEHB342:
 6987 3733 E8000000 		call	_ZN8UnitTest11CurrentTest7ResultsEv@PLT
 6987      00
 137:testConv.cpp  **** 	CHECK_EQUAL('7', getHexLowerNibble(0xF7));
 6988              		.loc 3 137 2 is_stmt 0 discriminator 3
 6989 3738 488B18   		movq	(%rax), %rbx
 6990 373b E8000000 		call	_ZN8UnitTest11CurrentTest7DetailsEv@PLT
 6990      00
 137:testConv.cpp  **** 	CHECK_EQUAL('7', getHexLowerNibble(0xF7));
 6991              		.loc 3 137 2 discriminator 13
 6992 3740 488B08   		movq	(%rax), %rcx
 6993 3743 488D45C0 		leaq	-64(%rbp), %rax
 6994 3747 BA890000 		movl	$137, %edx
 6994      00
 6995 374c 4889CE   		movq	%rcx, %rsi
 6996 374f 4889C7   		movq	%rax, %rdi
 6997 3752 E8000000 		call	_ZN8UnitTest11TestDetailsC1ERKS0_i@PLT
 6997      00
 137:testConv.cpp  **** 	CHECK_EQUAL('7', getHexLowerNibble(0xF7));
 6998              		.loc 3 137 2 discriminator 17
 6999 3757 488D45C0 		leaq	-64(%rbp), %rax
 7000 375b 488D1500 		leaq	.LC54(%rip), %rdx
 7000      000000
 7001 3762 4889C6   		movq	%rax, %rsi
 7002 3765 4889DF   		movq	%rbx, %rdi
 7003 3768 E8000000 		call	_ZN8UnitTest11TestResults13OnTestFailureERKNS_11TestDetailsEPKc@PLT
 7003      00
 7004              	.LEHE342:
 7005              	.LEHB343:
 137:testConv.cpp  **** 	CHECK_EQUAL('7', getHexLowerNibble(0xF7));
 7006              		.loc 3 137 2 discriminator 19
 7007 376d E8000000 		call	__cxa_end_catch@PLT
 7007      00
 7008              	.LEHE343:
 7009 3772 E9B0FAFF 		jmp	.L384
 7009      FF
 7010              	.L427:
 7011 3777 F30F1EFA 		endbr64
 137:testConv.cpp  **** 	CHECK_EQUAL('7', getHexLowerNibble(0xF7));
 7012              		.loc 3 137 2
 7013 377b 4889C3   		movq	%rax, %rbx
 7014 377e E8000000 		call	__cxa_end_catch@PLT
 7014      00
 7015 3783 4889D8   		movq	%rbx, %rax
 7016 3786 4889C7   		movq	%rax, %rdi
 7017              	.LEHB344:
 7018 3789 E8000000 		call	_Unwind_Resume@PLT
 7018      00
 7019              	.LEHE344:
 7020              	.L428:
 7021 378e F30F1EFA 		endbr64
 138:testConv.cpp  **** 	CHECK_EQUAL('8', getHexLowerNibble(0xF8));
 7022              		.loc 3 138 2 is_stmt 1
 7023 3792 4889C7   		movq	%rax, %rdi
 7024 3795 E8000000 		call	__cxa_begin_catch@PLT
 7024      00
 7025              	.LEHB345:
 7026 379a E8000000 		call	_ZN8UnitTest11CurrentTest7ResultsEv@PLT
 7026      00
 138:testConv.cpp  **** 	CHECK_EQUAL('8', getHexLowerNibble(0xF8));
 7027              		.loc 3 138 2 is_stmt 0 discriminator 3
 7028 379f 488B18   		movq	(%rax), %rbx
 7029 37a2 E8000000 		call	_ZN8UnitTest11CurrentTest7DetailsEv@PLT
 7029      00
 138:testConv.cpp  **** 	CHECK_EQUAL('8', getHexLowerNibble(0xF8));
 7030              		.loc 3 138 2 discriminator 13
 7031 37a7 488B08   		movq	(%rax), %rcx
 7032 37aa 488D45C0 		leaq	-64(%rbp), %rax
 7033 37ae BA8A0000 		movl	$138, %edx
 7033      00
 7034 37b3 4889CE   		movq	%rcx, %rsi
 7035 37b6 4889C7   		movq	%rax, %rdi
 7036 37b9 E8000000 		call	_ZN8UnitTest11TestDetailsC1ERKS0_i@PLT
 7036      00
 138:testConv.cpp  **** 	CHECK_EQUAL('8', getHexLowerNibble(0xF8));
 7037              		.loc 3 138 2 discriminator 17
 7038 37be 488D45C0 		leaq	-64(%rbp), %rax
 7039 37c2 488D1500 		leaq	.LC55(%rip), %rdx
 7039      000000
 7040 37c9 4889C6   		movq	%rax, %rsi
 7041 37cc 4889DF   		movq	%rbx, %rdi
 7042 37cf E8000000 		call	_ZN8UnitTest11TestResults13OnTestFailureERKNS_11TestDetailsEPKc@PLT
 7042      00
 7043              	.LEHE345:
 7044              	.LEHB346:
 138:testConv.cpp  **** 	CHECK_EQUAL('8', getHexLowerNibble(0xF8));
 7045              		.loc 3 138 2 discriminator 19
 7046 37d4 E8000000 		call	__cxa_end_catch@PLT
 7046      00
 7047              	.LEHE346:
 7048 37d9 E992FAFF 		jmp	.L387
 7048      FF
 7049              	.L429:
 7050 37de F30F1EFA 		endbr64
 138:testConv.cpp  **** 	CHECK_EQUAL('8', getHexLowerNibble(0xF8));
 7051              		.loc 3 138 2
 7052 37e2 4889C3   		movq	%rax, %rbx
 7053 37e5 E8000000 		call	__cxa_end_catch@PLT
 7053      00
 7054 37ea 4889D8   		movq	%rbx, %rax
 7055 37ed 4889C7   		movq	%rax, %rdi
 7056              	.LEHB347:
 7057 37f0 E8000000 		call	_Unwind_Resume@PLT
 7057      00
 7058              	.LEHE347:
 7059              	.L430:
 7060 37f5 F30F1EFA 		endbr64
 139:testConv.cpp  **** 	CHECK_EQUAL('9', getHexLowerNibble(0xF9));
 7061              		.loc 3 139 2 is_stmt 1
 7062 37f9 4889C7   		movq	%rax, %rdi
 7063 37fc E8000000 		call	__cxa_begin_catch@PLT
 7063      00
 7064              	.LEHB348:
 7065 3801 E8000000 		call	_ZN8UnitTest11CurrentTest7ResultsEv@PLT
 7065      00
 139:testConv.cpp  **** 	CHECK_EQUAL('9', getHexLowerNibble(0xF9));
 7066              		.loc 3 139 2 is_stmt 0 discriminator 3
 7067 3806 488B18   		movq	(%rax), %rbx
 7068 3809 E8000000 		call	_ZN8UnitTest11CurrentTest7DetailsEv@PLT
 7068      00
 139:testConv.cpp  **** 	CHECK_EQUAL('9', getHexLowerNibble(0xF9));
 7069              		.loc 3 139 2 discriminator 13
 7070 380e 488B08   		movq	(%rax), %rcx
 7071 3811 488D45C0 		leaq	-64(%rbp), %rax
 7072 3815 BA8B0000 		movl	$139, %edx
 7072      00
 7073 381a 4889CE   		movq	%rcx, %rsi
 7074 381d 4889C7   		movq	%rax, %rdi
 7075 3820 E8000000 		call	_ZN8UnitTest11TestDetailsC1ERKS0_i@PLT
 7075      00
 139:testConv.cpp  **** 	CHECK_EQUAL('9', getHexLowerNibble(0xF9));
 7076              		.loc 3 139 2 discriminator 17
 7077 3825 488D45C0 		leaq	-64(%rbp), %rax
 7078 3829 488D1500 		leaq	.LC56(%rip), %rdx
 7078      000000
 7079 3830 4889C6   		movq	%rax, %rsi
 7080 3833 4889DF   		movq	%rbx, %rdi
 7081 3836 E8000000 		call	_ZN8UnitTest11TestResults13OnTestFailureERKNS_11TestDetailsEPKc@PLT
 7081      00
 7082              	.LEHE348:
 7083              	.LEHB349:
 139:testConv.cpp  **** 	CHECK_EQUAL('9', getHexLowerNibble(0xF9));
 7084              		.loc 3 139 2 discriminator 19
 7085 383b E8000000 		call	__cxa_end_catch@PLT
 7085      00
 7086              	.LEHE349:
 7087 3840 E974FAFF 		jmp	.L390
 7087      FF
 7088              	.L431:
 7089 3845 F30F1EFA 		endbr64
 139:testConv.cpp  **** 	CHECK_EQUAL('9', getHexLowerNibble(0xF9));
 7090              		.loc 3 139 2
 7091 3849 4889C3   		movq	%rax, %rbx
 7092 384c E8000000 		call	__cxa_end_catch@PLT
 7092      00
 7093 3851 4889D8   		movq	%rbx, %rax
 7094 3854 4889C7   		movq	%rax, %rdi
 7095              	.LEHB350:
 7096 3857 E8000000 		call	_Unwind_Resume@PLT
 7096      00
 7097              	.LEHE350:
 7098              	.L432:
 7099 385c F30F1EFA 		endbr64
 140:testConv.cpp  **** 	CHECK_EQUAL('A', getHexLowerNibble(0xFA));
 7100              		.loc 3 140 2 is_stmt 1
 7101 3860 4889C7   		movq	%rax, %rdi
 7102 3863 E8000000 		call	__cxa_begin_catch@PLT
 7102      00
 7103              	.LEHB351:
 7104 3868 E8000000 		call	_ZN8UnitTest11CurrentTest7ResultsEv@PLT
 7104      00
 140:testConv.cpp  **** 	CHECK_EQUAL('A', getHexLowerNibble(0xFA));
 7105              		.loc 3 140 2 is_stmt 0 discriminator 3
 7106 386d 488B18   		movq	(%rax), %rbx
 7107 3870 E8000000 		call	_ZN8UnitTest11CurrentTest7DetailsEv@PLT
 7107      00
 140:testConv.cpp  **** 	CHECK_EQUAL('A', getHexLowerNibble(0xFA));
 7108              		.loc 3 140 2 discriminator 13
 7109 3875 488B08   		movq	(%rax), %rcx
 7110 3878 488D45C0 		leaq	-64(%rbp), %rax
 7111 387c BA8C0000 		movl	$140, %edx
 7111      00
 7112 3881 4889CE   		movq	%rcx, %rsi
 7113 3884 4889C7   		movq	%rax, %rdi
 7114 3887 E8000000 		call	_ZN8UnitTest11TestDetailsC1ERKS0_i@PLT
 7114      00
 140:testConv.cpp  **** 	CHECK_EQUAL('A', getHexLowerNibble(0xFA));
 7115              		.loc 3 140 2 discriminator 17
 7116 388c 488D45C0 		leaq	-64(%rbp), %rax
 7117 3890 488D1500 		leaq	.LC57(%rip), %rdx
 7117      000000
 7118 3897 4889C6   		movq	%rax, %rsi
 7119 389a 4889DF   		movq	%rbx, %rdi
 7120 389d E8000000 		call	_ZN8UnitTest11TestResults13OnTestFailureERKNS_11TestDetailsEPKc@PLT
 7120      00
 7121              	.LEHE351:
 7122              	.LEHB352:
 140:testConv.cpp  **** 	CHECK_EQUAL('A', getHexLowerNibble(0xFA));
 7123              		.loc 3 140 2 discriminator 19
 7124 38a2 E8000000 		call	__cxa_end_catch@PLT
 7124      00
 7125              	.LEHE352:
 7126 38a7 E956FAFF 		jmp	.L393
 7126      FF
 7127              	.L433:
 7128 38ac F30F1EFA 		endbr64
 140:testConv.cpp  **** 	CHECK_EQUAL('A', getHexLowerNibble(0xFA));
 7129              		.loc 3 140 2
 7130 38b0 4889C3   		movq	%rax, %rbx
 7131 38b3 E8000000 		call	__cxa_end_catch@PLT
 7131      00
 7132 38b8 4889D8   		movq	%rbx, %rax
 7133 38bb 4889C7   		movq	%rax, %rdi
 7134              	.LEHB353:
 7135 38be E8000000 		call	_Unwind_Resume@PLT
 7135      00
 7136              	.LEHE353:
 7137              	.L434:
 7138 38c3 F30F1EFA 		endbr64
 141:testConv.cpp  **** 	CHECK_EQUAL('B', getHexLowerNibble(0xFB));
 7139              		.loc 3 141 2 is_stmt 1
 7140 38c7 4889C7   		movq	%rax, %rdi
 7141 38ca E8000000 		call	__cxa_begin_catch@PLT
 7141      00
 7142              	.LEHB354:
 7143 38cf E8000000 		call	_ZN8UnitTest11CurrentTest7ResultsEv@PLT
 7143      00
 141:testConv.cpp  **** 	CHECK_EQUAL('B', getHexLowerNibble(0xFB));
 7144              		.loc 3 141 2 is_stmt 0 discriminator 3
 7145 38d4 488B18   		movq	(%rax), %rbx
 7146 38d7 E8000000 		call	_ZN8UnitTest11CurrentTest7DetailsEv@PLT
 7146      00
 141:testConv.cpp  **** 	CHECK_EQUAL('B', getHexLowerNibble(0xFB));
 7147              		.loc 3 141 2 discriminator 13
 7148 38dc 488B08   		movq	(%rax), %rcx
 7149 38df 488D45C0 		leaq	-64(%rbp), %rax
 7150 38e3 BA8D0000 		movl	$141, %edx
 7150      00
 7151 38e8 4889CE   		movq	%rcx, %rsi
 7152 38eb 4889C7   		movq	%rax, %rdi
 7153 38ee E8000000 		call	_ZN8UnitTest11TestDetailsC1ERKS0_i@PLT
 7153      00
 141:testConv.cpp  **** 	CHECK_EQUAL('B', getHexLowerNibble(0xFB));
 7154              		.loc 3 141 2 discriminator 17
 7155 38f3 488D45C0 		leaq	-64(%rbp), %rax
 7156 38f7 488D1500 		leaq	.LC58(%rip), %rdx
 7156      000000
 7157 38fe 4889C6   		movq	%rax, %rsi
 7158 3901 4889DF   		movq	%rbx, %rdi
 7159 3904 E8000000 		call	_ZN8UnitTest11TestResults13OnTestFailureERKNS_11TestDetailsEPKc@PLT
 7159      00
 7160              	.LEHE354:
 7161              	.LEHB355:
 141:testConv.cpp  **** 	CHECK_EQUAL('B', getHexLowerNibble(0xFB));
 7162              		.loc 3 141 2 discriminator 19
 7163 3909 E8000000 		call	__cxa_end_catch@PLT
 7163      00
 7164              	.LEHE355:
 7165 390e E938FAFF 		jmp	.L396
 7165      FF
 7166              	.L435:
 7167 3913 F30F1EFA 		endbr64
 141:testConv.cpp  **** 	CHECK_EQUAL('B', getHexLowerNibble(0xFB));
 7168              		.loc 3 141 2
 7169 3917 4889C3   		movq	%rax, %rbx
 7170 391a E8000000 		call	__cxa_end_catch@PLT
 7170      00
 7171 391f 4889D8   		movq	%rbx, %rax
 7172 3922 4889C7   		movq	%rax, %rdi
 7173              	.LEHB356:
 7174 3925 E8000000 		call	_Unwind_Resume@PLT
 7174      00
 7175              	.LEHE356:
 7176              	.L436:
 7177 392a F30F1EFA 		endbr64
 142:testConv.cpp  **** 	CHECK_EQUAL('C', getHexLowerNibble(0xFC));
 7178              		.loc 3 142 2 is_stmt 1
 7179 392e 4889C7   		movq	%rax, %rdi
 7180 3931 E8000000 		call	__cxa_begin_catch@PLT
 7180      00
 7181              	.LEHB357:
 7182 3936 E8000000 		call	_ZN8UnitTest11CurrentTest7ResultsEv@PLT
 7182      00
 142:testConv.cpp  **** 	CHECK_EQUAL('C', getHexLowerNibble(0xFC));
 7183              		.loc 3 142 2 is_stmt 0 discriminator 3
 7184 393b 488B18   		movq	(%rax), %rbx
 7185 393e E8000000 		call	_ZN8UnitTest11CurrentTest7DetailsEv@PLT
 7185      00
 142:testConv.cpp  **** 	CHECK_EQUAL('C', getHexLowerNibble(0xFC));
 7186              		.loc 3 142 2 discriminator 13
 7187 3943 488B08   		movq	(%rax), %rcx
 7188 3946 488D45C0 		leaq	-64(%rbp), %rax
 7189 394a BA8E0000 		movl	$142, %edx
 7189      00
 7190 394f 4889CE   		movq	%rcx, %rsi
 7191 3952 4889C7   		movq	%rax, %rdi
 7192 3955 E8000000 		call	_ZN8UnitTest11TestDetailsC1ERKS0_i@PLT
 7192      00
 142:testConv.cpp  **** 	CHECK_EQUAL('C', getHexLowerNibble(0xFC));
 7193              		.loc 3 142 2 discriminator 17
 7194 395a 488D45C0 		leaq	-64(%rbp), %rax
 7195 395e 488D1500 		leaq	.LC59(%rip), %rdx
 7195      000000
 7196 3965 4889C6   		movq	%rax, %rsi
 7197 3968 4889DF   		movq	%rbx, %rdi
 7198 396b E8000000 		call	_ZN8UnitTest11TestResults13OnTestFailureERKNS_11TestDetailsEPKc@PLT
 7198      00
 7199              	.LEHE357:
 7200              	.LEHB358:
 142:testConv.cpp  **** 	CHECK_EQUAL('C', getHexLowerNibble(0xFC));
 7201              		.loc 3 142 2 discriminator 19
 7202 3970 E8000000 		call	__cxa_end_catch@PLT
 7202      00
 7203              	.LEHE358:
 7204 3975 E91AFAFF 		jmp	.L399
 7204      FF
 7205              	.L437:
 7206 397a F30F1EFA 		endbr64
 142:testConv.cpp  **** 	CHECK_EQUAL('C', getHexLowerNibble(0xFC));
 7207              		.loc 3 142 2
 7208 397e 4889C3   		movq	%rax, %rbx
 7209 3981 E8000000 		call	__cxa_end_catch@PLT
 7209      00
 7210 3986 4889D8   		movq	%rbx, %rax
 7211 3989 4889C7   		movq	%rax, %rdi
 7212              	.LEHB359:
 7213 398c E8000000 		call	_Unwind_Resume@PLT
 7213      00
 7214              	.LEHE359:
 7215              	.L438:
 7216 3991 F30F1EFA 		endbr64
 143:testConv.cpp  **** 	CHECK_EQUAL('D', getHexLowerNibble(0xFD));
 7217              		.loc 3 143 2 is_stmt 1
 7218 3995 4889C7   		movq	%rax, %rdi
 7219 3998 E8000000 		call	__cxa_begin_catch@PLT
 7219      00
 7220              	.LEHB360:
 7221 399d E8000000 		call	_ZN8UnitTest11CurrentTest7ResultsEv@PLT
 7221      00
 143:testConv.cpp  **** 	CHECK_EQUAL('D', getHexLowerNibble(0xFD));
 7222              		.loc 3 143 2 is_stmt 0 discriminator 3
 7223 39a2 488B18   		movq	(%rax), %rbx
 7224 39a5 E8000000 		call	_ZN8UnitTest11CurrentTest7DetailsEv@PLT
 7224      00
 143:testConv.cpp  **** 	CHECK_EQUAL('D', getHexLowerNibble(0xFD));
 7225              		.loc 3 143 2 discriminator 13
 7226 39aa 488B08   		movq	(%rax), %rcx
 7227 39ad 488D45C0 		leaq	-64(%rbp), %rax
 7228 39b1 BA8F0000 		movl	$143, %edx
 7228      00
 7229 39b6 4889CE   		movq	%rcx, %rsi
 7230 39b9 4889C7   		movq	%rax, %rdi
 7231 39bc E8000000 		call	_ZN8UnitTest11TestDetailsC1ERKS0_i@PLT
 7231      00
 143:testConv.cpp  **** 	CHECK_EQUAL('D', getHexLowerNibble(0xFD));
 7232              		.loc 3 143 2 discriminator 17
 7233 39c1 488D45C0 		leaq	-64(%rbp), %rax
 7234 39c5 488D1500 		leaq	.LC60(%rip), %rdx
 7234      000000
 7235 39cc 4889C6   		movq	%rax, %rsi
 7236 39cf 4889DF   		movq	%rbx, %rdi
 7237 39d2 E8000000 		call	_ZN8UnitTest11TestResults13OnTestFailureERKNS_11TestDetailsEPKc@PLT
 7237      00
 7238              	.LEHE360:
 7239              	.LEHB361:
 143:testConv.cpp  **** 	CHECK_EQUAL('D', getHexLowerNibble(0xFD));
 7240              		.loc 3 143 2 discriminator 19
 7241 39d7 E8000000 		call	__cxa_end_catch@PLT
 7241      00
 7242              	.LEHE361:
 7243 39dc E9FCF9FF 		jmp	.L402
 7243      FF
 7244              	.L439:
 7245 39e1 F30F1EFA 		endbr64
 143:testConv.cpp  **** 	CHECK_EQUAL('D', getHexLowerNibble(0xFD));
 7246              		.loc 3 143 2
 7247 39e5 4889C3   		movq	%rax, %rbx
 7248 39e8 E8000000 		call	__cxa_end_catch@PLT
 7248      00
 7249 39ed 4889D8   		movq	%rbx, %rax
 7250 39f0 4889C7   		movq	%rax, %rdi
 7251              	.LEHB362:
 7252 39f3 E8000000 		call	_Unwind_Resume@PLT
 7252      00
 7253              	.LEHE362:
 7254              	.L440:
 7255 39f8 F30F1EFA 		endbr64
 144:testConv.cpp  **** 	CHECK_EQUAL('E', getHexLowerNibble(0xFE));
 7256              		.loc 3 144 2 is_stmt 1
 7257 39fc 4889C7   		movq	%rax, %rdi
 7258 39ff E8000000 		call	__cxa_begin_catch@PLT
 7258      00
 7259              	.LEHB363:
 7260 3a04 E8000000 		call	_ZN8UnitTest11CurrentTest7ResultsEv@PLT
 7260      00
 144:testConv.cpp  **** 	CHECK_EQUAL('E', getHexLowerNibble(0xFE));
 7261              		.loc 3 144 2 is_stmt 0 discriminator 3
 7262 3a09 488B18   		movq	(%rax), %rbx
 7263 3a0c E8000000 		call	_ZN8UnitTest11CurrentTest7DetailsEv@PLT
 7263      00
 144:testConv.cpp  **** 	CHECK_EQUAL('E', getHexLowerNibble(0xFE));
 7264              		.loc 3 144 2 discriminator 13
 7265 3a11 488B08   		movq	(%rax), %rcx
 7266 3a14 488D45C0 		leaq	-64(%rbp), %rax
 7267 3a18 BA900000 		movl	$144, %edx
 7267      00
 7268 3a1d 4889CE   		movq	%rcx, %rsi
 7269 3a20 4889C7   		movq	%rax, %rdi
 7270 3a23 E8000000 		call	_ZN8UnitTest11TestDetailsC1ERKS0_i@PLT
 7270      00
 144:testConv.cpp  **** 	CHECK_EQUAL('E', getHexLowerNibble(0xFE));
 7271              		.loc 3 144 2 discriminator 17
 7272 3a28 488D45C0 		leaq	-64(%rbp), %rax
 7273 3a2c 488D1500 		leaq	.LC61(%rip), %rdx
 7273      000000
 7274 3a33 4889C6   		movq	%rax, %rsi
 7275 3a36 4889DF   		movq	%rbx, %rdi
 7276 3a39 E8000000 		call	_ZN8UnitTest11TestResults13OnTestFailureERKNS_11TestDetailsEPKc@PLT
 7276      00
 7277              	.LEHE363:
 7278              	.LEHB364:
 144:testConv.cpp  **** 	CHECK_EQUAL('E', getHexLowerNibble(0xFE));
 7279              		.loc 3 144 2 discriminator 19
 7280 3a3e E8000000 		call	__cxa_end_catch@PLT
 7280      00
 7281              	.LEHE364:
 7282 3a43 E9DEF9FF 		jmp	.L405
 7282      FF
 7283              	.L441:
 7284 3a48 F30F1EFA 		endbr64
 144:testConv.cpp  **** 	CHECK_EQUAL('E', getHexLowerNibble(0xFE));
 7285              		.loc 3 144 2
 7286 3a4c 4889C3   		movq	%rax, %rbx
 7287 3a4f E8000000 		call	__cxa_end_catch@PLT
 7287      00
 7288 3a54 4889D8   		movq	%rbx, %rax
 7289 3a57 4889C7   		movq	%rax, %rdi
 7290              	.LEHB365:
 7291 3a5a E8000000 		call	_Unwind_Resume@PLT
 7291      00
 7292              	.LEHE365:
 7293              	.L442:
 7294 3a5f F30F1EFA 		endbr64
 145:testConv.cpp  **** 	CHECK_EQUAL('F', getHexLowerNibble(0xFF));
 7295              		.loc 3 145 2 is_stmt 1
 7296 3a63 4889C7   		movq	%rax, %rdi
 7297 3a66 E8000000 		call	__cxa_begin_catch@PLT
 7297      00
 7298              	.LEHB366:
 7299 3a6b E8000000 		call	_ZN8UnitTest11CurrentTest7ResultsEv@PLT
 7299      00
 145:testConv.cpp  **** 	CHECK_EQUAL('F', getHexLowerNibble(0xFF));
 7300              		.loc 3 145 2 is_stmt 0 discriminator 3
 7301 3a70 488B18   		movq	(%rax), %rbx
 7302 3a73 E8000000 		call	_ZN8UnitTest11CurrentTest7DetailsEv@PLT
 7302      00
 145:testConv.cpp  **** 	CHECK_EQUAL('F', getHexLowerNibble(0xFF));
 7303              		.loc 3 145 2 discriminator 13
 7304 3a78 488B08   		movq	(%rax), %rcx
 7305 3a7b 488D45C0 		leaq	-64(%rbp), %rax
 7306 3a7f BA910000 		movl	$145, %edx
 7306      00
 7307 3a84 4889CE   		movq	%rcx, %rsi
 7308 3a87 4889C7   		movq	%rax, %rdi
 7309 3a8a E8000000 		call	_ZN8UnitTest11TestDetailsC1ERKS0_i@PLT
 7309      00
 145:testConv.cpp  **** 	CHECK_EQUAL('F', getHexLowerNibble(0xFF));
 7310              		.loc 3 145 2 discriminator 17
 7311 3a8f 488D45C0 		leaq	-64(%rbp), %rax
 7312 3a93 488D1500 		leaq	.LC62(%rip), %rdx
 7312      000000
 7313 3a9a 4889C6   		movq	%rax, %rsi
 7314 3a9d 4889DF   		movq	%rbx, %rdi
 7315 3aa0 E8000000 		call	_ZN8UnitTest11TestResults13OnTestFailureERKNS_11TestDetailsEPKc@PLT
 7315      00
 7316              	.LEHE366:
 7317              	.LEHB367:
 145:testConv.cpp  **** 	CHECK_EQUAL('F', getHexLowerNibble(0xFF));
 7318              		.loc 3 145 2 discriminator 19
 7319 3aa5 E8000000 		call	__cxa_end_catch@PLT
 7319      00
 7320              	.LEHE367:
 7321 3aaa E9C0F9FF 		jmp	.L408
 7321      FF
 7322              	.L443:
 7323 3aaf F30F1EFA 		endbr64
 145:testConv.cpp  **** 	CHECK_EQUAL('F', getHexLowerNibble(0xFF));
 7324              		.loc 3 145 2
 7325 3ab3 4889C3   		movq	%rax, %rbx
 7326 3ab6 E8000000 		call	__cxa_end_catch@PLT
 7326      00
 7327 3abb 4889D8   		movq	%rbx, %rax
 7328 3abe 4889C7   		movq	%rax, %rdi
 7329              	.LEHB368:
 7330 3ac1 E8000000 		call	_Unwind_Resume@PLT
 7330      00
 7331              	.LEHE368:
 7332              	.L444:
 7333 3ac6 F30F1EFA 		endbr64
 146:testConv.cpp  **** }
 7334              		.loc 3 146 2 is_stmt 1
 7335 3aca 4889C7   		movq	%rax, %rdi
 7336 3acd E8000000 		call	__cxa_begin_catch@PLT
 7336      00
 7337              	.LEHB369:
 7338 3ad2 E8000000 		call	_ZN8UnitTest11CurrentTest7ResultsEv@PLT
 7338      00
 146:testConv.cpp  **** }
 7339              		.loc 3 146 2 is_stmt 0 discriminator 3
 7340 3ad7 488B18   		movq	(%rax), %rbx
 7341 3ada E8000000 		call	_ZN8UnitTest11CurrentTest7DetailsEv@PLT
 7341      00
 146:testConv.cpp  **** }
 7342              		.loc 3 146 2 discriminator 13
 7343 3adf 488B08   		movq	(%rax), %rcx
 7344 3ae2 488D45C0 		leaq	-64(%rbp), %rax
 7345 3ae6 BA920000 		movl	$146, %edx
 7345      00
 7346 3aeb 4889CE   		movq	%rcx, %rsi
 7347 3aee 4889C7   		movq	%rax, %rdi
 7348 3af1 E8000000 		call	_ZN8UnitTest11TestDetailsC1ERKS0_i@PLT
 7348      00
 146:testConv.cpp  **** }
 7349              		.loc 3 146 2 discriminator 17
 7350 3af6 488D45C0 		leaq	-64(%rbp), %rax
 7351 3afa 488D1500 		leaq	.LC63(%rip), %rdx
 7351      000000
 7352 3b01 4889C6   		movq	%rax, %rsi
 7353 3b04 4889DF   		movq	%rbx, %rdi
 7354 3b07 E8000000 		call	_ZN8UnitTest11TestResults13OnTestFailureERKNS_11TestDetailsEPKc@PLT
 7354      00
 7355              	.LEHE369:
 7356              	.LEHB370:
 146:testConv.cpp  **** }
 7357              		.loc 3 146 2 discriminator 19
 7358 3b0c E8000000 		call	__cxa_end_catch@PLT
 7358      00
 7359              	.LEHE370:
 7360              		.loc 3 147 1 is_stmt 1 discriminator 19
 7361 3b11 EB17     		jmp	.L364
 7362              	.L445:
 7363 3b13 F30F1EFA 		endbr64
 146:testConv.cpp  **** }
 7364              		.loc 3 146 2
 7365 3b17 4889C3   		movq	%rax, %rbx
 7366 3b1a E8000000 		call	__cxa_end_catch@PLT
 7366      00
 7367 3b1f 4889D8   		movq	%rbx, %rax
 7368 3b22 4889C7   		movq	%rax, %rdi
 7369              	.LEHB371:
 7370 3b25 E8000000 		call	_Unwind_Resume@PLT
 7370      00
 7371              	.LEHE371:
 7372              	.L364:
 7373              		.loc 3 147 1
 7374 3b2a 488B45E8 		movq	-24(%rbp), %rax
 7375 3b2e 64482B04 		subq	%fs:40, %rax
 7375      25280000 
 7375      00
 7376 3b37 7405     		je	.L413
 7377 3b39 E8000000 		call	__stack_chk_fail@PLT
 7377      00
 7378              	.L413:
 7379 3b3e 488B5DF8 		movq	-8(%rbp), %rbx
 7380 3b42 C9       		leave
 7381              		.cfi_def_cfa 7, 8
 7382 3b43 C3       		ret
 7383              		.cfi_endproc
 7384              	.LFE1160:
 7385              		.section	.gcc_except_table
 7386              		.align 4
 7387              	.LLSDA1160:
 7388 069c FF       		.byte	0xff
 7389 069d 9B       		.byte	0x9b
 7390 069e E802     		.uleb128 .LLSDATT1160-.LLSDATTD1160
 7391              	.LLSDATTD1160:
 7392 06a0 01       		.byte	0x1
 7393 06a1 DE02     		.uleb128 .LLSDACSE1160-.LLSDACSB1160
 7394              	.LLSDACSB1160:
 7395 06a3 20       		.uleb128 .LEHB308-.LFB1160
 7396 06a4 49       		.uleb128 .LEHE308-.LEHB308
 7397 06a5 B509     		.uleb128 .L414-.LFB1160
 7398 06a7 01       		.uleb128 0x1
 7399 06a8 69       		.uleb128 .LEHB309-.LFB1160
 7400 06a9 49       		.uleb128 .LEHE309-.LEHB309
 7401 06aa 9C0A     		.uleb128 .L416-.LFB1160
 7402 06ac 01       		.uleb128 0x1
 7403 06ad B201     		.uleb128 .LEHB310-.LFB1160
 7404 06af 49       		.uleb128 .LEHE310-.LEHB310
 7405 06b0 830B     		.uleb128 .L418-.LFB1160
 7406 06b2 01       		.uleb128 0x1
 7407 06b3 FB01     		.uleb128 .LEHB311-.LFB1160
 7408 06b5 49       		.uleb128 .LEHE311-.LEHB311
 7409 06b6 EA0B     		.uleb128 .L420-.LFB1160
 7410 06b8 01       		.uleb128 0x1
 7411 06b9 C402     		.uleb128 .LEHB312-.LFB1160
 7412 06bb 49       		.uleb128 .LEHE312-.LEHB312
 7413 06bc D10C     		.uleb128 .L422-.LFB1160
 7414 06be 01       		.uleb128 0x1
 7415 06bf 8D03     		.uleb128 .LEHB313-.LFB1160
 7416 06c1 49       		.uleb128 .LEHE313-.LEHB313
 7417 06c2 B80D     		.uleb128 .L424-.LFB1160
 7418 06c4 01       		.uleb128 0x1
 7419 06c5 D603     		.uleb128 .LEHB314-.LFB1160
 7420 06c7 49       		.uleb128 .LEHE314-.LEHB314
 7421 06c8 9F0E     		.uleb128 .L426-.LFB1160
 7422 06ca 01       		.uleb128 0x1
 7423 06cb 9F04     		.uleb128 .LEHB315-.LFB1160
 7424 06cd 49       		.uleb128 .LEHE315-.LEHB315
 7425 06ce 860F     		.uleb128 .L428-.LFB1160
 7426 06d0 01       		.uleb128 0x1
 7427 06d1 E804     		.uleb128 .LEHB316-.LFB1160
 7428 06d3 49       		.uleb128 .LEHE316-.LEHB316
 7429 06d4 ED0F     		.uleb128 .L430-.LFB1160
 7430 06d6 01       		.uleb128 0x1
 7431 06d7 B105     		.uleb128 .LEHB317-.LFB1160
 7432 06d9 49       		.uleb128 .LEHE317-.LEHB317
 7433 06da D410     		.uleb128 .L432-.LFB1160
 7434 06dc 01       		.uleb128 0x1
 7435 06dd FA05     		.uleb128 .LEHB318-.LFB1160
 7436 06df 49       		.uleb128 .LEHE318-.LEHB318
 7437 06e0 BB11     		.uleb128 .L434-.LFB1160
 7438 06e2 01       		.uleb128 0x1
 7439 06e3 C306     		.uleb128 .LEHB319-.LFB1160
 7440 06e5 49       		.uleb128 .LEHE319-.LEHB319
 7441 06e6 A212     		.uleb128 .L436-.LFB1160
 7442 06e8 01       		.uleb128 0x1
 7443 06e9 8C07     		.uleb128 .LEHB320-.LFB1160
 7444 06eb 49       		.uleb128 .LEHE320-.LEHB320
 7445 06ec 8913     		.uleb128 .L438-.LFB1160
 7446 06ee 01       		.uleb128 0x1
 7447 06ef D507     		.uleb128 .LEHB321-.LFB1160
 7448 06f1 49       		.uleb128 .LEHE321-.LEHB321
 7449 06f2 F013     		.uleb128 .L440-.LFB1160
 7450 06f4 01       		.uleb128 0x1
 7451 06f5 9E08     		.uleb128 .LEHB322-.LFB1160
 7452 06f7 49       		.uleb128 .LEHE322-.LEHB322
 7453 06f8 D714     		.uleb128 .L442-.LFB1160
 7454 06fa 01       		.uleb128 0x1
 7455 06fb E708     		.uleb128 .LEHB323-.LFB1160
 7456 06fd 49       		.uleb128 .LEHE323-.LEHB323
 7457 06fe BE15     		.uleb128 .L444-.LFB1160
 7458 0700 01       		.uleb128 0x1
 7459 0701 C109     		.uleb128 .LEHB324-.LFB1160
 7460 0703 3A       		.uleb128 .LEHE324-.LEHB324
 7461 0704 850A     		.uleb128 .L415-.LFB1160
 7462 0706 00       		.uleb128 0
 7463 0707 FB09     		.uleb128 .LEHB325-.LFB1160
 7464 0709 05       		.uleb128 .LEHE325-.LEHB325
 7465 070a 00       		.uleb128 0
 7466 070b 00       		.uleb128 0
 7467 070c 970A     		.uleb128 .LEHB326-.LFB1160
 7468 070e 05       		.uleb128 .LEHE326-.LEHB326
 7469 070f 00       		.uleb128 0
 7470 0710 00       		.uleb128 0
 7471 0711 A80A     		.uleb128 .LEHB327-.LFB1160
 7472 0713 3A       		.uleb128 .LEHE327-.LEHB327
 7473 0714 EC0A     		.uleb128 .L417-.LFB1160
 7474 0716 00       		.uleb128 0
 7475 0717 E20A     		.uleb128 .LEHB328-.LFB1160
 7476 0719 05       		.uleb128 .LEHE328-.LEHB328
 7477 071a 00       		.uleb128 0
 7478 071b 00       		.uleb128 0
 7479 071c FE0A     		.uleb128 .LEHB329-.LFB1160
 7480 071e 05       		.uleb128 .LEHE329-.LEHB329
 7481 071f 00       		.uleb128 0
 7482 0720 00       		.uleb128 0
 7483 0721 8F0B     		.uleb128 .LEHB330-.LFB1160
 7484 0723 3A       		.uleb128 .LEHE330-.LEHB330
 7485 0724 D30B     		.uleb128 .L419-.LFB1160
 7486 0726 00       		.uleb128 0
 7487 0727 C90B     		.uleb128 .LEHB331-.LFB1160
 7488 0729 05       		.uleb128 .LEHE331-.LEHB331
 7489 072a 00       		.uleb128 0
 7490 072b 00       		.uleb128 0
 7491 072c E50B     		.uleb128 .LEHB332-.LFB1160
 7492 072e 05       		.uleb128 .LEHE332-.LEHB332
 7493 072f 00       		.uleb128 0
 7494 0730 00       		.uleb128 0
 7495 0731 F60B     		.uleb128 .LEHB333-.LFB1160
 7496 0733 3A       		.uleb128 .LEHE333-.LEHB333
 7497 0734 BA0C     		.uleb128 .L421-.LFB1160
 7498 0736 00       		.uleb128 0
 7499 0737 B00C     		.uleb128 .LEHB334-.LFB1160
 7500 0739 05       		.uleb128 .LEHE334-.LEHB334
 7501 073a 00       		.uleb128 0
 7502 073b 00       		.uleb128 0
 7503 073c CC0C     		.uleb128 .LEHB335-.LFB1160
 7504 073e 05       		.uleb128 .LEHE335-.LEHB335
 7505 073f 00       		.uleb128 0
 7506 0740 00       		.uleb128 0
 7507 0741 DD0C     		.uleb128 .LEHB336-.LFB1160
 7508 0743 3A       		.uleb128 .LEHE336-.LEHB336
 7509 0744 A10D     		.uleb128 .L423-.LFB1160
 7510 0746 00       		.uleb128 0
 7511 0747 970D     		.uleb128 .LEHB337-.LFB1160
 7512 0749 05       		.uleb128 .LEHE337-.LEHB337
 7513 074a 00       		.uleb128 0
 7514 074b 00       		.uleb128 0
 7515 074c B30D     		.uleb128 .LEHB338-.LFB1160
 7516 074e 05       		.uleb128 .LEHE338-.LEHB338
 7517 074f 00       		.uleb128 0
 7518 0750 00       		.uleb128 0
 7519 0751 C40D     		.uleb128 .LEHB339-.LFB1160
 7520 0753 3A       		.uleb128 .LEHE339-.LEHB339
 7521 0754 880E     		.uleb128 .L425-.LFB1160
 7522 0756 00       		.uleb128 0
 7523 0757 FE0D     		.uleb128 .LEHB340-.LFB1160
 7524 0759 05       		.uleb128 .LEHE340-.LEHB340
 7525 075a 00       		.uleb128 0
 7526 075b 00       		.uleb128 0
 7527 075c 9A0E     		.uleb128 .LEHB341-.LFB1160
 7528 075e 05       		.uleb128 .LEHE341-.LEHB341
 7529 075f 00       		.uleb128 0
 7530 0760 00       		.uleb128 0
 7531 0761 AB0E     		.uleb128 .LEHB342-.LFB1160
 7532 0763 3A       		.uleb128 .LEHE342-.LEHB342
 7533 0764 EF0E     		.uleb128 .L427-.LFB1160
 7534 0766 00       		.uleb128 0
 7535 0767 E50E     		.uleb128 .LEHB343-.LFB1160
 7536 0769 05       		.uleb128 .LEHE343-.LEHB343
 7537 076a 00       		.uleb128 0
 7538 076b 00       		.uleb128 0
 7539 076c 810F     		.uleb128 .LEHB344-.LFB1160
 7540 076e 05       		.uleb128 .LEHE344-.LEHB344
 7541 076f 00       		.uleb128 0
 7542 0770 00       		.uleb128 0
 7543 0771 920F     		.uleb128 .LEHB345-.LFB1160
 7544 0773 3A       		.uleb128 .LEHE345-.LEHB345
 7545 0774 D60F     		.uleb128 .L429-.LFB1160
 7546 0776 00       		.uleb128 0
 7547 0777 CC0F     		.uleb128 .LEHB346-.LFB1160
 7548 0779 05       		.uleb128 .LEHE346-.LEHB346
 7549 077a 00       		.uleb128 0
 7550 077b 00       		.uleb128 0
 7551 077c E80F     		.uleb128 .LEHB347-.LFB1160
 7552 077e 05       		.uleb128 .LEHE347-.LEHB347
 7553 077f 00       		.uleb128 0
 7554 0780 00       		.uleb128 0
 7555 0781 F90F     		.uleb128 .LEHB348-.LFB1160
 7556 0783 3A       		.uleb128 .LEHE348-.LEHB348
 7557 0784 BD10     		.uleb128 .L431-.LFB1160
 7558 0786 00       		.uleb128 0
 7559 0787 B310     		.uleb128 .LEHB349-.LFB1160
 7560 0789 05       		.uleb128 .LEHE349-.LEHB349
 7561 078a 00       		.uleb128 0
 7562 078b 00       		.uleb128 0
 7563 078c CF10     		.uleb128 .LEHB350-.LFB1160
 7564 078e 05       		.uleb128 .LEHE350-.LEHB350
 7565 078f 00       		.uleb128 0
 7566 0790 00       		.uleb128 0
 7567 0791 E010     		.uleb128 .LEHB351-.LFB1160
 7568 0793 3A       		.uleb128 .LEHE351-.LEHB351
 7569 0794 A411     		.uleb128 .L433-.LFB1160
 7570 0796 00       		.uleb128 0
 7571 0797 9A11     		.uleb128 .LEHB352-.LFB1160
 7572 0799 05       		.uleb128 .LEHE352-.LEHB352
 7573 079a 00       		.uleb128 0
 7574 079b 00       		.uleb128 0
 7575 079c B611     		.uleb128 .LEHB353-.LFB1160
 7576 079e 05       		.uleb128 .LEHE353-.LEHB353
 7577 079f 00       		.uleb128 0
 7578 07a0 00       		.uleb128 0
 7579 07a1 C711     		.uleb128 .LEHB354-.LFB1160
 7580 07a3 3A       		.uleb128 .LEHE354-.LEHB354
 7581 07a4 8B12     		.uleb128 .L435-.LFB1160
 7582 07a6 00       		.uleb128 0
 7583 07a7 8112     		.uleb128 .LEHB355-.LFB1160
 7584 07a9 05       		.uleb128 .LEHE355-.LEHB355
 7585 07aa 00       		.uleb128 0
 7586 07ab 00       		.uleb128 0
 7587 07ac 9D12     		.uleb128 .LEHB356-.LFB1160
 7588 07ae 05       		.uleb128 .LEHE356-.LEHB356
 7589 07af 00       		.uleb128 0
 7590 07b0 00       		.uleb128 0
 7591 07b1 AE12     		.uleb128 .LEHB357-.LFB1160
 7592 07b3 3A       		.uleb128 .LEHE357-.LEHB357
 7593 07b4 F212     		.uleb128 .L437-.LFB1160
 7594 07b6 00       		.uleb128 0
 7595 07b7 E812     		.uleb128 .LEHB358-.LFB1160
 7596 07b9 05       		.uleb128 .LEHE358-.LEHB358
 7597 07ba 00       		.uleb128 0
 7598 07bb 00       		.uleb128 0
 7599 07bc 8413     		.uleb128 .LEHB359-.LFB1160
 7600 07be 05       		.uleb128 .LEHE359-.LEHB359
 7601 07bf 00       		.uleb128 0
 7602 07c0 00       		.uleb128 0
 7603 07c1 9513     		.uleb128 .LEHB360-.LFB1160
 7604 07c3 3A       		.uleb128 .LEHE360-.LEHB360
 7605 07c4 D913     		.uleb128 .L439-.LFB1160
 7606 07c6 00       		.uleb128 0
 7607 07c7 CF13     		.uleb128 .LEHB361-.LFB1160
 7608 07c9 05       		.uleb128 .LEHE361-.LEHB361
 7609 07ca 00       		.uleb128 0
 7610 07cb 00       		.uleb128 0
 7611 07cc EB13     		.uleb128 .LEHB362-.LFB1160
 7612 07ce 05       		.uleb128 .LEHE362-.LEHB362
 7613 07cf 00       		.uleb128 0
 7614 07d0 00       		.uleb128 0
 7615 07d1 FC13     		.uleb128 .LEHB363-.LFB1160
 7616 07d3 3A       		.uleb128 .LEHE363-.LEHB363
 7617 07d4 C014     		.uleb128 .L441-.LFB1160
 7618 07d6 00       		.uleb128 0
 7619 07d7 B614     		.uleb128 .LEHB364-.LFB1160
 7620 07d9 05       		.uleb128 .LEHE364-.LEHB364
 7621 07da 00       		.uleb128 0
 7622 07db 00       		.uleb128 0
 7623 07dc D214     		.uleb128 .LEHB365-.LFB1160
 7624 07de 05       		.uleb128 .LEHE365-.LEHB365
 7625 07df 00       		.uleb128 0
 7626 07e0 00       		.uleb128 0
 7627 07e1 E314     		.uleb128 .LEHB366-.LFB1160
 7628 07e3 3A       		.uleb128 .LEHE366-.LEHB366
 7629 07e4 A715     		.uleb128 .L443-.LFB1160
 7630 07e6 00       		.uleb128 0
 7631 07e7 9D15     		.uleb128 .LEHB367-.LFB1160
 7632 07e9 05       		.uleb128 .LEHE367-.LEHB367
 7633 07ea 00       		.uleb128 0
 7634 07eb 00       		.uleb128 0
 7635 07ec B915     		.uleb128 .LEHB368-.LFB1160
 7636 07ee 05       		.uleb128 .LEHE368-.LEHB368
 7637 07ef 00       		.uleb128 0
 7638 07f0 00       		.uleb128 0
 7639 07f1 CA15     		.uleb128 .LEHB369-.LFB1160
 7640 07f3 3A       		.uleb128 .LEHE369-.LEHB369
 7641 07f4 8B16     		.uleb128 .L445-.LFB1160
 7642 07f6 00       		.uleb128 0
 7643 07f7 8416     		.uleb128 .LEHB370-.LFB1160
 7644 07f9 05       		.uleb128 .LEHE370-.LEHB370
 7645 07fa 00       		.uleb128 0
 7646 07fb 00       		.uleb128 0
 7647 07fc 9D16     		.uleb128 .LEHB371-.LFB1160
 7648 07fe 05       		.uleb128 .LEHE371-.LEHB371
 7649 07ff 00       		.uleb128 0
 7650 0800 00       		.uleb128 0
 7651              	.LLSDACSE1160:
 7652 0801 01       		.byte	0x1
 7653 0802 00       		.byte	0
 7654 0803 00       		.align 4
 7655 0804 00000000 		.long	0
 7656              	
 7657              	.LLSDATT1160:
 7658              		.text
 7660              		.section	.text._ZN8UnitTest15MemoryOutStreamD1Ev,"axG",@progbits,_ZN8UnitTest15MemoryOutStreamD1Ev
 7661              		.align 2
 7662              		.weak	_ZN8UnitTest15MemoryOutStreamD1Ev
 7664              	_ZN8UnitTest15MemoryOutStreamD1Ev:
 7665              	.LFB1191:
  13:/home/pong/FPGALink/makestuff/libs/libutpp/MemoryOutStream.h **** {
 7666              		.loc 2 13 7
 7667              		.cfi_startproc
 7668              		.cfi_personality 0x9b,DW.ref.__gxx_personality_v0
 7669              		.cfi_lsda 0x1b,.LLSDA1191
 7670 0000 F30F1EFA 		endbr64
 7671 0004 55       		pushq	%rbp
 7672              		.cfi_def_cfa_offset 16
 7673              		.cfi_offset 6, -16
 7674 0005 4889E5   		movq	%rsp, %rbp
 7675              		.cfi_def_cfa_register 6
 7676 0008 53       		pushq	%rbx
 7677 0009 4883EC18 		subq	$24, %rsp
 7678              		.cfi_offset 3, -24
 7679 000d 48897DE8 		movq	%rdi, -24(%rbp)
 7680              	.LBB8:
  13:/home/pong/FPGALink/makestuff/libs/libutpp/MemoryOutStream.h **** {
 7681              		.loc 2 13 7
 7682 0011 488D1500 		leaq	24+_ZTVN8UnitTest15MemoryOutStreamE(%rip), %rdx
 7682      000000
 7683 0018 488B45E8 		movq	-24(%rbp), %rax
 7684 001c 488910   		movq	%rdx, (%rax)
 7685 001f 488B45E8 		movq	-24(%rbp), %rax
 7686 0023 48059000 		addq	$144, %rax
 7686      0000
 7687 0029 488D1500 		leaq	64+_ZTVN8UnitTest15MemoryOutStreamE(%rip), %rdx
 7687      000000
 7688 0030 488910   		movq	%rdx, (%rax)
 7689 0033 488B45E8 		movq	-24(%rbp), %rax
 7690 0037 4883C070 		addq	$112, %rax
 7691 003b 4889C7   		movq	%rax, %rdi
 7692              	.LEHB372:
 7693 003e E8000000 		call	_ZNSt7__cxx1112basic_stringIcSt11char_traitsIcESaIcEED1Ev@PLT
 7693      00
 7694              	.LEHE372:
  13:/home/pong/FPGALink/makestuff/libs/libutpp/MemoryOutStream.h **** {
 7695              		.loc 2 13 7 is_stmt 0 discriminator 2
 7696 0043 488B45E8 		movq	-24(%rbp), %rax
 7697 0047 488D1500 		leaq	8+_ZTTN8UnitTest15MemoryOutStreamE(%rip), %rdx
 7697      000000
 7698 004e 4889D6   		movq	%rdx, %rsi
 7699 0051 4889C7   		movq	%rax, %rdi
 7700              	.LEHB373:
 7701 0054 E8000000 		call	_ZNSt7__cxx1119basic_ostringstreamIcSt11char_traitsIcESaIcEED2Ev@PLT
 7701      00
 7702              	.LEHE373:
  13:/home/pong/FPGALink/makestuff/libs/libutpp/MemoryOutStream.h **** {
 7703              		.loc 2 13 7 discriminator 4
 7704 0059 488B45E8 		movq	-24(%rbp), %rax
 7705 005d 48059000 		addq	$144, %rax
 7705      0000
 7706 0063 4889C7   		movq	%rax, %rdi
 7707              	.LEHB374:
 7708 0066 E8000000 		call	_ZNSt9basic_iosIcSt11char_traitsIcEED2Ev@PLT
 7708      00
 7709              	.LEHE374:
 7710              	.LBE8:
 7711 006b EB43     		jmp	.L451
 7712              	.L449:
 7713 006d F30F1EFA 		endbr64
 7714              	.LBB9:
  13:/home/pong/FPGALink/makestuff/libs/libutpp/MemoryOutStream.h **** {
 7715              		.loc 2 13 7
 7716 0071 4889C3   		movq	%rax, %rbx
 7717 0074 488B45E8 		movq	-24(%rbp), %rax
 7718 0078 488D1500 		leaq	8+_ZTTN8UnitTest15MemoryOutStreamE(%rip), %rdx
 7718      000000
 7719 007f 4889D6   		movq	%rdx, %rsi
 7720 0082 4889C7   		movq	%rax, %rdi
 7721 0085 E8000000 		call	_ZNSt7__cxx1119basic_ostringstreamIcSt11char_traitsIcESaIcEED2Ev@PLT
 7721      00
 7722 008a EB07     		jmp	.L448
 7723              	.L450:
 7724 008c F30F1EFA 		endbr64
 7725 0090 4889C3   		movq	%rax, %rbx
 7726              	.L448:
  13:/home/pong/FPGALink/makestuff/libs/libutpp/MemoryOutStream.h **** {
 7727              		.loc 2 13 7 discriminator 3
 7728 0093 488B45E8 		movq	-24(%rbp), %rax
 7729 0097 48059000 		addq	$144, %rax
 7729      0000
 7730 009d 4889C7   		movq	%rax, %rdi
 7731 00a0 E8000000 		call	_ZNSt9basic_iosIcSt11char_traitsIcEED2Ev@PLT
 7731      00
 7732 00a5 4889D8   		movq	%rbx, %rax
 7733 00a8 4889C7   		movq	%rax, %rdi
 7734              	.LEHB375:
 7735 00ab E8000000 		call	_Unwind_Resume@PLT
 7735      00
 7736              	.LEHE375:
 7737              	.L451:
 7738              	.LBE9:
  13:/home/pong/FPGALink/makestuff/libs/libutpp/MemoryOutStream.h **** {
 7739              		.loc 2 13 7
 7740 00b0 488B5DF8 		movq	-8(%rbp), %rbx
 7741 00b4 C9       		leave
 7742              		.cfi_def_cfa 7, 8
 7743 00b5 C3       		ret
 7744              		.cfi_endproc
 7745              	.LFE1191:
 7746              		.section	.gcc_except_table
 7747              	.LLSDA1191:
 7748 0808 FF       		.byte	0xff
 7749 0809 FF       		.byte	0xff
 7750 080a 01       		.byte	0x1
 7751 080b 12       		.uleb128 .LLSDACSE1191-.LLSDACSB1191
 7752              	.LLSDACSB1191:
 7753 080c 3E       		.uleb128 .LEHB372-.LFB1191
 7754 080d 05       		.uleb128 .LEHE372-.LEHB372
 7755 080e 6D       		.uleb128 .L449-.LFB1191
 7756 080f 00       		.uleb128 0
 7757 0810 54       		.uleb128 .LEHB373-.LFB1191
 7758 0811 05       		.uleb128 .LEHE373-.LEHB373
 7759 0812 8C01     		.uleb128 .L450-.LFB1191
 7760 0814 00       		.uleb128 0
 7761 0815 66       		.uleb128 .LEHB374-.LFB1191
 7762 0816 05       		.uleb128 .LEHE374-.LEHB374
 7763 0817 00       		.uleb128 0
 7764 0818 00       		.uleb128 0
 7765 0819 AB01     		.uleb128 .LEHB375-.LFB1191
 7766 081b 05       		.uleb128 .LEHE375-.LEHB375
 7767 081c 00       		.uleb128 0
 7768 081d 00       		.uleb128 0
 7769              	.LLSDACSE1191:
 7770              		.section	.text._ZN8UnitTest15MemoryOutStreamD1Ev,"axG",@progbits,_ZN8UnitTest15MemoryOutStreamD1Ev
 7772              		.set	.LTHUNK0,_ZN8UnitTest15MemoryOutStreamD1Ev
 7773              		.weak	_ZTv0_n24_N8UnitTest15MemoryOutStreamD1Ev
 7775              	_ZTv0_n24_N8UnitTest15MemoryOutStreamD1Ev:
 7776              	.LFB1268:
  13:/home/pong/FPGALink/makestuff/libs/libutpp/MemoryOutStream.h **** {
 7777              		.loc 2 13 7 is_stmt 1
 7778              		.cfi_startproc
 7779 00b6 F30F1EFA 		endbr64
 7780 00ba 4C8B17   		movq	(%rdi), %r10
 7781 00bd 49037AE8 		addq	-24(%r10), %rdi
 7782 00c1 E93AFFFF 		jmp	.LTHUNK0
 7782      FF
 7783              		.cfi_endproc
 7784              	.LFE1268:
 7786              		.section	.text._ZN8UnitTest15MemoryOutStreamD0Ev,"axG",@progbits,_ZN8UnitTest15MemoryOutStreamD0Ev
 7787              		.align 2
 7788              		.weak	_ZN8UnitTest15MemoryOutStreamD0Ev
 7790              	_ZN8UnitTest15MemoryOutStreamD0Ev:
 7791              	.LFB1192:
  13:/home/pong/FPGALink/makestuff/libs/libutpp/MemoryOutStream.h **** {
 7792              		.loc 2 13 7
 7793              		.cfi_startproc
 7794              		.cfi_personality 0x9b,DW.ref.__gxx_personality_v0
 7795              		.cfi_lsda 0x1b,.LLSDA1192
 7796 0000 F30F1EFA 		endbr64
 7797 0004 55       		pushq	%rbp
 7798              		.cfi_def_cfa_offset 16
 7799              		.cfi_offset 6, -16
 7800 0005 4889E5   		movq	%rsp, %rbp
 7801              		.cfi_def_cfa_register 6
 7802 0008 53       		pushq	%rbx
 7803 0009 4883EC18 		subq	$24, %rsp
 7804              		.cfi_offset 3, -24
 7805 000d 48897DE8 		movq	%rdi, -24(%rbp)
  13:/home/pong/FPGALink/makestuff/libs/libutpp/MemoryOutStream.h **** {
 7806              		.loc 2 13 7
 7807 0011 488B45E8 		movq	-24(%rbp), %rax
 7808 0015 4889C7   		movq	%rax, %rdi
 7809              	.LEHB376:
 7810 0018 E8000000 		call	_ZN8UnitTest15MemoryOutStreamD1Ev
 7810      00
 7811              	.LEHE376:
  13:/home/pong/FPGALink/makestuff/libs/libutpp/MemoryOutStream.h **** {
 7812              		.loc 2 13 7 is_stmt 0 discriminator 2
 7813 001d 488B45E8 		movq	-24(%rbp), %rax
 7814 0021 4889C7   		movq	%rax, %rdi
 7815 0024 E8000000 		call	_ZdlPv@PLT
 7815      00
 7816 0029 EB1E     		jmp	.L455
 7817              	.L454:
 7818 002b F30F1EFA 		endbr64
  13:/home/pong/FPGALink/makestuff/libs/libutpp/MemoryOutStream.h **** {
 7819              		.loc 2 13 7
 7820 002f 4889C3   		movq	%rax, %rbx
 7821 0032 488B45E8 		movq	-24(%rbp), %rax
 7822 0036 4889C7   		movq	%rax, %rdi
 7823 0039 E8000000 		call	_ZdlPv@PLT
 7823      00
 7824 003e 4889D8   		movq	%rbx, %rax
 7825 0041 4889C7   		movq	%rax, %rdi
 7826              	.LEHB377:
 7827 0044 E8000000 		call	_Unwind_Resume@PLT
 7827      00
 7828              	.LEHE377:
 7829              	.L455:
 7830 0049 488B5DF8 		movq	-8(%rbp), %rbx
 7831 004d C9       		leave
 7832              		.cfi_def_cfa 7, 8
 7833 004e C3       		ret
 7834              		.cfi_endproc
 7835              	.LFE1192:
 7836              		.section	.gcc_except_table
 7837              	.LLSDA1192:
 7838 081e FF       		.byte	0xff
 7839 081f FF       		.byte	0xff
 7840 0820 01       		.byte	0x1
 7841 0821 08       		.uleb128 .LLSDACSE1192-.LLSDACSB1192
 7842              	.LLSDACSB1192:
 7843 0822 18       		.uleb128 .LEHB376-.LFB1192
 7844 0823 05       		.uleb128 .LEHE376-.LEHB376
 7845 0824 2B       		.uleb128 .L454-.LFB1192
 7846 0825 00       		.uleb128 0
 7847 0826 44       		.uleb128 .LEHB377-.LFB1192
 7848 0827 05       		.uleb128 .LEHE377-.LEHB377
 7849 0828 00       		.uleb128 0
 7850 0829 00       		.uleb128 0
 7851              	.LLSDACSE1192:
 7852              		.section	.text._ZN8UnitTest15MemoryOutStreamD0Ev,"axG",@progbits,_ZN8UnitTest15MemoryOutStreamD0Ev
 7854              		.set	.LTHUNK1,_ZN8UnitTest15MemoryOutStreamD0Ev
 7855              		.weak	_ZTv0_n24_N8UnitTest15MemoryOutStreamD0Ev
 7857              	_ZTv0_n24_N8UnitTest15MemoryOutStreamD0Ev:
 7858              	.LFB1269:
  13:/home/pong/FPGALink/makestuff/libs/libutpp/MemoryOutStream.h **** {
 7859              		.loc 2 13 7 is_stmt 1
 7860              		.cfi_startproc
 7861 004f F30F1EFA 		endbr64
 7862 0053 4C8B17   		movq	(%rdi), %r10
 7863 0056 49037AE8 		addq	-24(%r10), %rdi
 7864 005a EBA4     		jmp	.LTHUNK1
 7865              		.cfi_endproc
 7866              	.LFE1269:
 7868              		.section	.rodata
 7869              	.LC64:
 7870 0d81 45787065 		.string	"Expected "
 7870      63746564 
 7870      2000
 7871              	.LC65:
 7872 0d8b 20627574 		.string	" but was "
 7872      20776173 
 7872      2000
 7873              		.section	.text._ZN8UnitTest10CheckEqualIbbEEvRNS_11TestResultsERKT_RKT0_RKNS_11TestDetailsE,"axG",
 7874              		.weak	_ZN8UnitTest10CheckEqualIbbEEvRNS_11TestResultsERKT_RKT0_RKNS_11TestDetailsE
 7876              	_ZN8UnitTest10CheckEqualIbbEEvRNS_11TestResultsERKT_RKT0_RKNS_11TestDetailsE:
 7877              	.LFB1188:
 7878              		.file 4 "/home/pong/FPGALink/makestuff/libs/libutpp/Checks.h"
   1:/home/pong/FPGALink/makestuff/libs/libutpp/Checks.h **** #ifndef UNITTEST_CHECKS_H
   2:/home/pong/FPGALink/makestuff/libs/libutpp/Checks.h **** #define UNITTEST_CHECKS_H
   3:/home/pong/FPGALink/makestuff/libs/libutpp/Checks.h **** 
   4:/home/pong/FPGALink/makestuff/libs/libutpp/Checks.h **** #include "Config.h"
   5:/home/pong/FPGALink/makestuff/libs/libutpp/Checks.h **** #include "TestResults.h"
   6:/home/pong/FPGALink/makestuff/libs/libutpp/Checks.h **** #include "MemoryOutStream.h"
   7:/home/pong/FPGALink/makestuff/libs/libutpp/Checks.h **** 
   8:/home/pong/FPGALink/makestuff/libs/libutpp/Checks.h **** namespace UnitTest {
   9:/home/pong/FPGALink/makestuff/libs/libutpp/Checks.h **** 
  10:/home/pong/FPGALink/makestuff/libs/libutpp/Checks.h **** 
  11:/home/pong/FPGALink/makestuff/libs/libutpp/Checks.h **** template< typename Value >
  12:/home/pong/FPGALink/makestuff/libs/libutpp/Checks.h **** bool Check(Value const value)
  13:/home/pong/FPGALink/makestuff/libs/libutpp/Checks.h **** {
  14:/home/pong/FPGALink/makestuff/libs/libutpp/Checks.h ****     return !!value; // doing double negative to avoid silly VS warnings
  15:/home/pong/FPGALink/makestuff/libs/libutpp/Checks.h **** }
  16:/home/pong/FPGALink/makestuff/libs/libutpp/Checks.h **** 
  17:/home/pong/FPGALink/makestuff/libs/libutpp/Checks.h **** 
  18:/home/pong/FPGALink/makestuff/libs/libutpp/Checks.h **** template< typename Expected, typename Actual >
  19:/home/pong/FPGALink/makestuff/libs/libutpp/Checks.h **** void CheckEqual(TestResults& results, Expected const& expected, Actual const& actual, TestDetails c
 7879              		.loc 4 19 6
 7880              		.cfi_startproc
 7881              		.cfi_personality 0x9b,DW.ref.__gxx_personality_v0
 7882              		.cfi_lsda 0x1b,.LLSDA1188
 7883 0000 F30F1EFA 		endbr64
 7884 0004 55       		pushq	%rbp
 7885              		.cfi_def_cfa_offset 16
 7886              		.cfi_offset 6, -16
 7887 0005 4889E5   		movq	%rsp, %rbp
 7888              		.cfi_def_cfa_register 6
 7889 0008 53       		pushq	%rbx
 7890 0009 4881ECC8 		subq	$456, %rsp
 7890      010000
 7891              		.cfi_offset 3, -24
 7892 0010 4889BD48 		movq	%rdi, -440(%rbp)
 7892      FEFFFF
 7893 0017 4889B540 		movq	%rsi, -448(%rbp)
 7893      FEFFFF
 7894 001e 48899538 		movq	%rdx, -456(%rbp)
 7894      FEFFFF
 7895 0025 48898D30 		movq	%rcx, -464(%rbp)
 7895      FEFFFF
 7896              		.loc 4 19 6
 7897 002c 64488B04 		movq	%fs:40, %rax
 7897      25280000 
 7897      00
 7898 0035 488945E8 		movq	%rax, -24(%rbp)
 7899 0039 31C0     		xorl	%eax, %eax
 7900              	.LBB10:
  20:/home/pong/FPGALink/makestuff/libs/libutpp/Checks.h **** {
  21:/home/pong/FPGALink/makestuff/libs/libutpp/Checks.h ****     if (!(expected == actual))
 7901              		.loc 4 21 20
 7902 003b 488B8540 		movq	-448(%rbp), %rax
 7902      FEFFFF
 7903 0042 0FB610   		movzbl	(%rax), %edx
 7904 0045 488B8538 		movq	-456(%rbp), %rax
 7904      FEFFFF
 7905 004c 0FB600   		movzbl	(%rax), %eax
 7906              		.loc 4 21 5
 7907 004f 38C2     		cmpb	%al, %dl
 7908 0051 0F84CE00 		je	.L461
 7908      0000
 7909              	.LBB11:
  22:/home/pong/FPGALink/makestuff/libs/libutpp/Checks.h ****     {
  23:/home/pong/FPGALink/makestuff/libs/libutpp/Checks.h ****         UnitTest::MemoryOutStream stream;
 7910              		.loc 4 23 35
 7911 0057 488D8550 		leaq	-432(%rbp), %rax
 7911      FEFFFF
 7912 005e 4889C7   		movq	%rax, %rdi
 7913              	.LEHB378:
 7914 0061 E8000000 		call	_ZN8UnitTest15MemoryOutStreamC1Ev
 7914      00
 7915              	.LEHE378:
  24:/home/pong/FPGALink/makestuff/libs/libutpp/Checks.h ****         stream << "Expected " << expected << " but was " << actual;
 7916              		.loc 4 24 16
 7917 0066 488D8550 		leaq	-432(%rbp), %rax
 7917      FEFFFF
 7918 006d 488D1500 		leaq	.LC64(%rip), %rdx
 7918      000000
 7919 0074 4889D6   		movq	%rdx, %rsi
 7920 0077 4889C7   		movq	%rax, %rdi
 7921              	.LEHB379:
 7922 007a E8000000 		call	_ZStlsISt11char_traitsIcEERSt13basic_ostreamIcT_ES5_PKc@PLT
 7922      00
 7923 007f 4889C2   		movq	%rax, %rdx
 7924              		.loc 4 24 31
 7925 0082 488B8540 		movq	-448(%rbp), %rax
 7925      FEFFFF
 7926 0089 0FB600   		movzbl	(%rax), %eax
 7927 008c 0FB6C0   		movzbl	%al, %eax
 7928 008f 89C6     		movl	%eax, %esi
 7929 0091 4889D7   		movq	%rdx, %rdi
 7930 0094 E8000000 		call	_ZNSolsEb@PLT
 7930      00
 7931              		.loc 4 24 31 is_stmt 0 discriminator 1
 7932 0099 4889C2   		movq	%rax, %rdx
 7933              		.loc 4 24 43 is_stmt 1 discriminator 1
 7934 009c 488D0500 		leaq	.LC65(%rip), %rax
 7934      000000
 7935 00a3 4889C6   		movq	%rax, %rsi
 7936 00a6 4889D7   		movq	%rdx, %rdi
 7937 00a9 E8000000 		call	_ZStlsISt11char_traitsIcEERSt13basic_ostreamIcT_ES5_PKc@PLT
 7937      00
 7938              		.loc 4 24 43 is_stmt 0 discriminator 2
 7939 00ae 4889C2   		movq	%rax, %rdx
 7940              		.loc 4 24 58 is_stmt 1 discriminator 2
 7941 00b1 488B8538 		movq	-456(%rbp), %rax
 7941      FEFFFF
 7942 00b8 0FB600   		movzbl	(%rax), %eax
 7943 00bb 0FB6C0   		movzbl	%al, %eax
 7944 00be 89C6     		movl	%eax, %esi
 7945 00c0 4889D7   		movq	%rdx, %rdi
 7946 00c3 E8000000 		call	_ZNSolsEb@PLT
 7946      00
  25:/home/pong/FPGALink/makestuff/libs/libutpp/Checks.h **** 
  26:/home/pong/FPGALink/makestuff/libs/libutpp/Checks.h ****         results.OnTestFailure(details, stream.GetText());
 7947              		.loc 4 26 30
 7948 00c8 488D8550 		leaq	-432(%rbp), %rax
 7948      FEFFFF
 7949 00cf 4889C7   		movq	%rax, %rdi
 7950 00d2 E8000000 		call	_ZNK8UnitTest15MemoryOutStream7GetTextEv@PLT
 7950      00
 7951 00d7 4889C2   		movq	%rax, %rdx
 7952 00da 488B8D30 		movq	-464(%rbp), %rcx
 7952      FEFFFF
 7953 00e1 488B8548 		movq	-440(%rbp), %rax
 7953      FEFFFF
 7954 00e8 4889CE   		movq	%rcx, %rsi
 7955 00eb 4889C7   		movq	%rax, %rdi
 7956 00ee E8000000 		call	_ZN8UnitTest11TestResults13OnTestFailureERKNS_11TestDetailsEPKc@PLT
 7956      00
 7957              	.LEHE379:
  27:/home/pong/FPGALink/makestuff/libs/libutpp/Checks.h ****     }
 7958              		.loc 4 27 5
 7959 00f3 488D8550 		leaq	-432(%rbp), %rax
 7959      FEFFFF
 7960 00fa 4889C7   		movq	%rax, %rdi
 7961              	.LEHB380:
 7962 00fd E8000000 		call	_ZN8UnitTest15MemoryOutStreamD1Ev
 7962      00
 7963              	.LEHE380:
 7964              	.LBE11:
 7965              	.LBE10:
  28:/home/pong/FPGALink/makestuff/libs/libutpp/Checks.h **** }
 7966              		.loc 4 28 1
 7967 0102 EB21     		jmp	.L461
 7968              	.L460:
 7969 0104 F30F1EFA 		endbr64
 7970              	.LBB13:
 7971              	.LBB12:
  27:/home/pong/FPGALink/makestuff/libs/libutpp/Checks.h ****     }
 7972              		.loc 4 27 5
 7973 0108 4889C3   		movq	%rax, %rbx
 7974 010b 488D8550 		leaq	-432(%rbp), %rax
 7974      FEFFFF
 7975 0112 4889C7   		movq	%rax, %rdi
 7976 0115 E8000000 		call	_ZN8UnitTest15MemoryOutStreamD1Ev
 7976      00
 7977 011a 4889D8   		movq	%rbx, %rax
 7978 011d 4889C7   		movq	%rax, %rdi
 7979              	.LEHB381:
 7980 0120 E8000000 		call	_Unwind_Resume@PLT
 7980      00
 7981              	.LEHE381:
 7982              	.L461:
 7983              	.LBE12:
 7984              	.LBE13:
 7985              		.loc 4 28 1
 7986 0125 90       		nop
 7987 0126 488B45E8 		movq	-24(%rbp), %rax
 7988 012a 64482B04 		subq	%fs:40, %rax
 7988      25280000 
 7988      00
 7989 0133 7405     		je	.L459
 7990 0135 E8000000 		call	__stack_chk_fail@PLT
 7990      00
 7991              	.L459:
 7992 013a 488B5DF8 		movq	-8(%rbp), %rbx
 7993 013e C9       		leave
 7994              		.cfi_def_cfa 7, 8
 7995 013f C3       		ret
 7996              		.cfi_endproc
 7997              	.LFE1188:
 7998              		.section	.gcc_except_table
 7999              	.LLSDA1188:
 8000 082a FF       		.byte	0xff
 8001 082b FF       		.byte	0xff
 8002 082c 01       		.byte	0x1
 8003 082d 13       		.uleb128 .LLSDACSE1188-.LLSDACSB1188
 8004              	.LLSDACSB1188:
 8005 082e 61       		.uleb128 .LEHB378-.LFB1188
 8006 082f 05       		.uleb128 .LEHE378-.LEHB378
 8007 0830 00       		.uleb128 0
 8008 0831 00       		.uleb128 0
 8009 0832 7A       		.uleb128 .LEHB379-.LFB1188
 8010 0833 79       		.uleb128 .LEHE379-.LEHB379
 8011 0834 8402     		.uleb128 .L460-.LFB1188
 8012 0836 00       		.uleb128 0
 8013 0837 FD01     		.uleb128 .LEHB380-.LFB1188
 8014 0839 05       		.uleb128 .LEHE380-.LEHB380
 8015 083a 00       		.uleb128 0
 8016 083b 00       		.uleb128 0
 8017 083c A002     		.uleb128 .LEHB381-.LFB1188
 8018 083e 05       		.uleb128 .LEHE381-.LEHB381
 8019 083f 00       		.uleb128 0
 8020 0840 00       		.uleb128 0
 8021              	.LLSDACSE1188:
 8022              		.section	.text._ZN8UnitTest10CheckEqualIbbEEvRNS_11TestResultsERKT_RKT0_RKNS_11TestDetailsE,"axG",
 8024              		.section	.text._ZN8UnitTest10CheckEqualIihEEvRNS_11TestResultsERKT_RKT0_RKNS_11TestDetailsE,"axG",
 8025              		.weak	_ZN8UnitTest10CheckEqualIihEEvRNS_11TestResultsERKT_RKT0_RKNS_11TestDetailsE
 8027              	_ZN8UnitTest10CheckEqualIihEEvRNS_11TestResultsERKT_RKT0_RKNS_11TestDetailsE:
 8028              	.LFB1193:
  19:/home/pong/FPGALink/makestuff/libs/libutpp/Checks.h **** {
 8029              		.loc 4 19 6
 8030              		.cfi_startproc
 8031              		.cfi_personality 0x9b,DW.ref.__gxx_personality_v0
 8032              		.cfi_lsda 0x1b,.LLSDA1193
 8033 0000 F30F1EFA 		endbr64
 8034 0004 55       		pushq	%rbp
 8035              		.cfi_def_cfa_offset 16
 8036              		.cfi_offset 6, -16
 8037 0005 4889E5   		movq	%rsp, %rbp
 8038              		.cfi_def_cfa_register 6
 8039 0008 53       		pushq	%rbx
 8040 0009 4881ECC8 		subq	$456, %rsp
 8040      010000
 8041              		.cfi_offset 3, -24
 8042 0010 4889BD48 		movq	%rdi, -440(%rbp)
 8042      FEFFFF
 8043 0017 4889B540 		movq	%rsi, -448(%rbp)
 8043      FEFFFF
 8044 001e 48899538 		movq	%rdx, -456(%rbp)
 8044      FEFFFF
 8045 0025 48898D30 		movq	%rcx, -464(%rbp)
 8045      FEFFFF
  19:/home/pong/FPGALink/makestuff/libs/libutpp/Checks.h **** {
 8046              		.loc 4 19 6
 8047 002c 64488B04 		movq	%fs:40, %rax
 8047      25280000 
 8047      00
 8048 0035 488945E8 		movq	%rax, -24(%rbp)
 8049 0039 31C0     		xorl	%eax, %eax
 8050              	.LBB14:
  21:/home/pong/FPGALink/makestuff/libs/libutpp/Checks.h ****     {
 8051              		.loc 4 21 20
 8052 003b 488B8540 		movq	-448(%rbp), %rax
 8052      FEFFFF
 8053 0042 8B10     		movl	(%rax), %edx
 8054 0044 488B8538 		movq	-456(%rbp), %rax
 8054      FEFFFF
 8055 004b 0FB600   		movzbl	(%rax), %eax
 8056 004e 0FB6C0   		movzbl	%al, %eax
  21:/home/pong/FPGALink/makestuff/libs/libutpp/Checks.h ****     {
 8057              		.loc 4 21 5
 8058 0051 39C2     		cmpl	%eax, %edx
 8059 0053 0F84CA00 		je	.L467
 8059      0000
 8060              	.LBB15:
  23:/home/pong/FPGALink/makestuff/libs/libutpp/Checks.h ****         stream << "Expected " << expected << " but was " << actual;
 8061              		.loc 4 23 35
 8062 0059 488D8550 		leaq	-432(%rbp), %rax
 8062      FEFFFF
 8063 0060 4889C7   		movq	%rax, %rdi
 8064              	.LEHB382:
 8065 0063 E8000000 		call	_ZN8UnitTest15MemoryOutStreamC1Ev
 8065      00
 8066              	.LEHE382:
  24:/home/pong/FPGALink/makestuff/libs/libutpp/Checks.h **** 
 8067              		.loc 4 24 16
 8068 0068 488D8550 		leaq	-432(%rbp), %rax
 8068      FEFFFF
 8069 006f 488D1500 		leaq	.LC64(%rip), %rdx
 8069      000000
 8070 0076 4889D6   		movq	%rdx, %rsi
 8071 0079 4889C7   		movq	%rax, %rdi
 8072              	.LEHB383:
 8073 007c E8000000 		call	_ZStlsISt11char_traitsIcEERSt13basic_ostreamIcT_ES5_PKc@PLT
 8073      00
 8074 0081 4889C2   		movq	%rax, %rdx
  24:/home/pong/FPGALink/makestuff/libs/libutpp/Checks.h **** 
 8075              		.loc 4 24 58
 8076 0084 488B8540 		movq	-448(%rbp), %rax
 8076      FEFFFF
 8077 008b 8B00     		movl	(%rax), %eax
 8078 008d 89C6     		movl	%eax, %esi
 8079 008f 4889D7   		movq	%rdx, %rdi
 8080 0092 E8000000 		call	_ZNSolsEi@PLT
 8080      00
  24:/home/pong/FPGALink/makestuff/libs/libutpp/Checks.h **** 
 8081              		.loc 4 24 58 is_stmt 0 discriminator 1
 8082 0097 4889C2   		movq	%rax, %rdx
 8083 009a 488D0500 		leaq	.LC65(%rip), %rax
 8083      000000
 8084 00a1 4889C6   		movq	%rax, %rsi
 8085 00a4 4889D7   		movq	%rdx, %rdi
 8086 00a7 E8000000 		call	_ZStlsISt11char_traitsIcEERSt13basic_ostreamIcT_ES5_PKc@PLT
 8086      00
  24:/home/pong/FPGALink/makestuff/libs/libutpp/Checks.h **** 
 8087              		.loc 4 24 58 discriminator 2
 8088 00ac 4889C2   		movq	%rax, %rdx
 8089 00af 488B8538 		movq	-456(%rbp), %rax
 8089      FEFFFF
 8090 00b6 0FB600   		movzbl	(%rax), %eax
 8091 00b9 0FB6C0   		movzbl	%al, %eax
 8092 00bc 89C6     		movl	%eax, %esi
 8093 00be 4889D7   		movq	%rdx, %rdi
 8094 00c1 E8000000 		call	_ZStlsISt11char_traitsIcEERSt13basic_ostreamIcT_ES5_h@PLT
 8094      00
  26:/home/pong/FPGALink/makestuff/libs/libutpp/Checks.h ****     }
 8095              		.loc 4 26 30 is_stmt 1
 8096 00c6 488D8550 		leaq	-432(%rbp), %rax
 8096      FEFFFF
 8097 00cd 4889C7   		movq	%rax, %rdi
 8098 00d0 E8000000 		call	_ZNK8UnitTest15MemoryOutStream7GetTextEv@PLT
 8098      00
 8099 00d5 4889C2   		movq	%rax, %rdx
 8100 00d8 488B8D30 		movq	-464(%rbp), %rcx
 8100      FEFFFF
 8101 00df 488B8548 		movq	-440(%rbp), %rax
 8101      FEFFFF
 8102 00e6 4889CE   		movq	%rcx, %rsi
 8103 00e9 4889C7   		movq	%rax, %rdi
 8104 00ec E8000000 		call	_ZN8UnitTest11TestResults13OnTestFailureERKNS_11TestDetailsEPKc@PLT
 8104      00
 8105              	.LEHE383:
  27:/home/pong/FPGALink/makestuff/libs/libutpp/Checks.h **** }
 8106              		.loc 4 27 5
 8107 00f1 488D8550 		leaq	-432(%rbp), %rax
 8107      FEFFFF
 8108 00f8 4889C7   		movq	%rax, %rdi
 8109              	.LEHB384:
 8110 00fb E8000000 		call	_ZN8UnitTest15MemoryOutStreamD1Ev
 8110      00
 8111              	.LEHE384:
 8112              	.LBE15:
 8113              	.LBE14:
 8114              		.loc 4 28 1
 8115 0100 EB21     		jmp	.L467
 8116              	.L466:
 8117 0102 F30F1EFA 		endbr64
 8118              	.LBB17:
 8119              	.LBB16:
  27:/home/pong/FPGALink/makestuff/libs/libutpp/Checks.h **** }
 8120              		.loc 4 27 5
 8121 0106 4889C3   		movq	%rax, %rbx
 8122 0109 488D8550 		leaq	-432(%rbp), %rax
 8122      FEFFFF
 8123 0110 4889C7   		movq	%rax, %rdi
 8124 0113 E8000000 		call	_ZN8UnitTest15MemoryOutStreamD1Ev
 8124      00
 8125 0118 4889D8   		movq	%rbx, %rax
 8126 011b 4889C7   		movq	%rax, %rdi
 8127              	.LEHB385:
 8128 011e E8000000 		call	_Unwind_Resume@PLT
 8128      00
 8129              	.LEHE385:
 8130              	.L467:
 8131              	.LBE16:
 8132              	.LBE17:
 8133              		.loc 4 28 1
 8134 0123 90       		nop
 8135 0124 488B45E8 		movq	-24(%rbp), %rax
 8136 0128 64482B04 		subq	%fs:40, %rax
 8136      25280000 
 8136      00
 8137 0131 7405     		je	.L465
 8138 0133 E8000000 		call	__stack_chk_fail@PLT
 8138      00
 8139              	.L465:
 8140 0138 488B5DF8 		movq	-8(%rbp), %rbx
 8141 013c C9       		leave
 8142              		.cfi_def_cfa 7, 8
 8143 013d C3       		ret
 8144              		.cfi_endproc
 8145              	.LFE1193:
 8146              		.section	.gcc_except_table
 8147              	.LLSDA1193:
 8148 0841 FF       		.byte	0xff
 8149 0842 FF       		.byte	0xff
 8150 0843 01       		.byte	0x1
 8151 0844 13       		.uleb128 .LLSDACSE1193-.LLSDACSB1193
 8152              	.LLSDACSB1193:
 8153 0845 63       		.uleb128 .LEHB382-.LFB1193
 8154 0846 05       		.uleb128 .LEHE382-.LEHB382
 8155 0847 00       		.uleb128 0
 8156 0848 00       		.uleb128 0
 8157 0849 7C       		.uleb128 .LEHB383-.LFB1193
 8158 084a 75       		.uleb128 .LEHE383-.LEHB383
 8159 084b 8202     		.uleb128 .L466-.LFB1193
 8160 084d 00       		.uleb128 0
 8161 084e FB01     		.uleb128 .LEHB384-.LFB1193
 8162 0850 05       		.uleb128 .LEHE384-.LEHB384
 8163 0851 00       		.uleb128 0
 8164 0852 00       		.uleb128 0
 8165 0853 9E02     		.uleb128 .LEHB385-.LFB1193
 8166 0855 05       		.uleb128 .LEHE385-.LEHB385
 8167 0856 00       		.uleb128 0
 8168 0857 00       		.uleb128 0
 8169              	.LLSDACSE1193:
 8170              		.section	.text._ZN8UnitTest10CheckEqualIihEEvRNS_11TestResultsERKT_RKT0_RKNS_11TestDetailsE,"axG",
 8172              		.section	.text._ZN8UnitTest10CheckEqualIccEEvRNS_11TestResultsERKT_RKT0_RKNS_11TestDetailsE,"axG",
 8173              		.weak	_ZN8UnitTest10CheckEqualIccEEvRNS_11TestResultsERKT_RKT0_RKNS_11TestDetailsE
 8175              	_ZN8UnitTest10CheckEqualIccEEvRNS_11TestResultsERKT_RKT0_RKNS_11TestDetailsE:
 8176              	.LFB1194:
  19:/home/pong/FPGALink/makestuff/libs/libutpp/Checks.h **** {
 8177              		.loc 4 19 6
 8178              		.cfi_startproc
 8179              		.cfi_personality 0x9b,DW.ref.__gxx_personality_v0
 8180              		.cfi_lsda 0x1b,.LLSDA1194
 8181 0000 F30F1EFA 		endbr64
 8182 0004 55       		pushq	%rbp
 8183              		.cfi_def_cfa_offset 16
 8184              		.cfi_offset 6, -16
 8185 0005 4889E5   		movq	%rsp, %rbp
 8186              		.cfi_def_cfa_register 6
 8187 0008 53       		pushq	%rbx
 8188 0009 4881ECC8 		subq	$456, %rsp
 8188      010000
 8189              		.cfi_offset 3, -24
 8190 0010 4889BD48 		movq	%rdi, -440(%rbp)
 8190      FEFFFF
 8191 0017 4889B540 		movq	%rsi, -448(%rbp)
 8191      FEFFFF
 8192 001e 48899538 		movq	%rdx, -456(%rbp)
 8192      FEFFFF
 8193 0025 48898D30 		movq	%rcx, -464(%rbp)
 8193      FEFFFF
  19:/home/pong/FPGALink/makestuff/libs/libutpp/Checks.h **** {
 8194              		.loc 4 19 6
 8195 002c 64488B04 		movq	%fs:40, %rax
 8195      25280000 
 8195      00
 8196 0035 488945E8 		movq	%rax, -24(%rbp)
 8197 0039 31C0     		xorl	%eax, %eax
 8198              	.LBB18:
  21:/home/pong/FPGALink/makestuff/libs/libutpp/Checks.h ****     {
 8199              		.loc 4 21 20
 8200 003b 488B8540 		movq	-448(%rbp), %rax
 8200      FEFFFF
 8201 0042 0FB610   		movzbl	(%rax), %edx
 8202 0045 488B8538 		movq	-456(%rbp), %rax
 8202      FEFFFF
 8203 004c 0FB600   		movzbl	(%rax), %eax
  21:/home/pong/FPGALink/makestuff/libs/libutpp/Checks.h ****     {
 8204              		.loc 4 21 5
 8205 004f 38C2     		cmpb	%al, %dl
 8206 0051 0F84CE00 		je	.L473
 8206      0000
 8207              	.LBB19:
  23:/home/pong/FPGALink/makestuff/libs/libutpp/Checks.h ****         stream << "Expected " << expected << " but was " << actual;
 8208              		.loc 4 23 35
 8209 0057 488D8550 		leaq	-432(%rbp), %rax
 8209      FEFFFF
 8210 005e 4889C7   		movq	%rax, %rdi
 8211              	.LEHB386:
 8212 0061 E8000000 		call	_ZN8UnitTest15MemoryOutStreamC1Ev
 8212      00
 8213              	.LEHE386:
  24:/home/pong/FPGALink/makestuff/libs/libutpp/Checks.h **** 
 8214              		.loc 4 24 58
 8215 0066 488D8550 		leaq	-432(%rbp), %rax
 8215      FEFFFF
 8216 006d 488D1500 		leaq	.LC64(%rip), %rdx
 8216      000000
 8217 0074 4889D6   		movq	%rdx, %rsi
 8218 0077 4889C7   		movq	%rax, %rdi
 8219              	.LEHB387:
 8220 007a E8000000 		call	_ZStlsISt11char_traitsIcEERSt13basic_ostreamIcT_ES5_PKc@PLT
 8220      00
 8221 007f 4889C2   		movq	%rax, %rdx
 8222 0082 488B8540 		movq	-448(%rbp), %rax
 8222      FEFFFF
 8223 0089 0FB600   		movzbl	(%rax), %eax
 8224 008c 0FBEC0   		movsbl	%al, %eax
 8225 008f 89C6     		movl	%eax, %esi
 8226 0091 4889D7   		movq	%rdx, %rdi
 8227 0094 E8000000 		call	_ZStlsISt11char_traitsIcEERSt13basic_ostreamIcT_ES5_c@PLT
 8227      00
  24:/home/pong/FPGALink/makestuff/libs/libutpp/Checks.h **** 
 8228              		.loc 4 24 58 is_stmt 0 discriminator 1
 8229 0099 4889C2   		movq	%rax, %rdx
 8230 009c 488D0500 		leaq	.LC65(%rip), %rax
 8230      000000
 8231 00a3 4889C6   		movq	%rax, %rsi
 8232 00a6 4889D7   		movq	%rdx, %rdi
 8233 00a9 E8000000 		call	_ZStlsISt11char_traitsIcEERSt13basic_ostreamIcT_ES5_PKc@PLT
 8233      00
  24:/home/pong/FPGALink/makestuff/libs/libutpp/Checks.h **** 
 8234              		.loc 4 24 58 discriminator 2
 8235 00ae 4889C2   		movq	%rax, %rdx
 8236 00b1 488B8538 		movq	-456(%rbp), %rax
 8236      FEFFFF
 8237 00b8 0FB600   		movzbl	(%rax), %eax
 8238 00bb 0FBEC0   		movsbl	%al, %eax
 8239 00be 89C6     		movl	%eax, %esi
 8240 00c0 4889D7   		movq	%rdx, %rdi
 8241 00c3 E8000000 		call	_ZStlsISt11char_traitsIcEERSt13basic_ostreamIcT_ES5_c@PLT
 8241      00
  26:/home/pong/FPGALink/makestuff/libs/libutpp/Checks.h ****     }
 8242              		.loc 4 26 30 is_stmt 1
 8243 00c8 488D8550 		leaq	-432(%rbp), %rax
 8243      FEFFFF
 8244 00cf 4889C7   		movq	%rax, %rdi
 8245 00d2 E8000000 		call	_ZNK8UnitTest15MemoryOutStream7GetTextEv@PLT
 8245      00
 8246 00d7 4889C2   		movq	%rax, %rdx
 8247 00da 488B8D30 		movq	-464(%rbp), %rcx
 8247      FEFFFF
 8248 00e1 488B8548 		movq	-440(%rbp), %rax
 8248      FEFFFF
 8249 00e8 4889CE   		movq	%rcx, %rsi
 8250 00eb 4889C7   		movq	%rax, %rdi
 8251 00ee E8000000 		call	_ZN8UnitTest11TestResults13OnTestFailureERKNS_11TestDetailsEPKc@PLT
 8251      00
 8252              	.LEHE387:
  27:/home/pong/FPGALink/makestuff/libs/libutpp/Checks.h **** }
 8253              		.loc 4 27 5
 8254 00f3 488D8550 		leaq	-432(%rbp), %rax
 8254      FEFFFF
 8255 00fa 4889C7   		movq	%rax, %rdi
 8256              	.LEHB388:
 8257 00fd E8000000 		call	_ZN8UnitTest15MemoryOutStreamD1Ev
 8257      00
 8258              	.LEHE388:
 8259              	.LBE19:
 8260              	.LBE18:
 8261              		.loc 4 28 1
 8262 0102 EB21     		jmp	.L473
 8263              	.L472:
 8264 0104 F30F1EFA 		endbr64
 8265              	.LBB21:
 8266              	.LBB20:
  27:/home/pong/FPGALink/makestuff/libs/libutpp/Checks.h **** }
 8267              		.loc 4 27 5
 8268 0108 4889C3   		movq	%rax, %rbx
 8269 010b 488D8550 		leaq	-432(%rbp), %rax
 8269      FEFFFF
 8270 0112 4889C7   		movq	%rax, %rdi
 8271 0115 E8000000 		call	_ZN8UnitTest15MemoryOutStreamD1Ev
 8271      00
 8272 011a 4889D8   		movq	%rbx, %rax
 8273 011d 4889C7   		movq	%rax, %rdi
 8274              	.LEHB389:
 8275 0120 E8000000 		call	_Unwind_Resume@PLT
 8275      00
 8276              	.LEHE389:
 8277              	.L473:
 8278              	.LBE20:
 8279              	.LBE21:
 8280              		.loc 4 28 1
 8281 0125 90       		nop
 8282 0126 488B45E8 		movq	-24(%rbp), %rax
 8283 012a 64482B04 		subq	%fs:40, %rax
 8283      25280000 
 8283      00
 8284 0133 7405     		je	.L471
 8285 0135 E8000000 		call	__stack_chk_fail@PLT
 8285      00
 8286              	.L471:
 8287 013a 488B5DF8 		movq	-8(%rbp), %rbx
 8288 013e C9       		leave
 8289              		.cfi_def_cfa 7, 8
 8290 013f C3       		ret
 8291              		.cfi_endproc
 8292              	.LFE1194:
 8293              		.section	.gcc_except_table
 8294              	.LLSDA1194:
 8295 0858 FF       		.byte	0xff
 8296 0859 FF       		.byte	0xff
 8297 085a 01       		.byte	0x1
 8298 085b 13       		.uleb128 .LLSDACSE1194-.LLSDACSB1194
 8299              	.LLSDACSB1194:
 8300 085c 61       		.uleb128 .LEHB386-.LFB1194
 8301 085d 05       		.uleb128 .LEHE386-.LEHB386
 8302 085e 00       		.uleb128 0
 8303 085f 00       		.uleb128 0
 8304 0860 7A       		.uleb128 .LEHB387-.LFB1194
 8305 0861 79       		.uleb128 .LEHE387-.LEHB387
 8306 0862 8402     		.uleb128 .L472-.LFB1194
 8307 0864 00       		.uleb128 0
 8308 0865 FD01     		.uleb128 .LEHB388-.LFB1194
 8309 0867 05       		.uleb128 .LEHE388-.LEHB388
 8310 0868 00       		.uleb128 0
 8311 0869 00       		.uleb128 0
 8312 086a A002     		.uleb128 .LEHB389-.LFB1194
 8313 086c 05       		.uleb128 .LEHE389-.LEHB389
 8314 086d 00       		.uleb128 0
 8315 086e 00       		.uleb128 0
 8316              	.LLSDACSE1194:
 8317              		.section	.text._ZN8UnitTest10CheckEqualIccEEvRNS_11TestResultsERKT_RKT0_RKNS_11TestDetailsE,"axG",
 8319              		.weak	_ZTV30TestConv_testGetHexLowerNibble
 8320              		.section	.data.rel.ro.local._ZTV30TestConv_testGetHexLowerNibble,"awG",@progbits,_ZTV30TestConv_te
 8321              		.align 8
 8324              	_ZTV30TestConv_testGetHexLowerNibble:
 8325 0000 00000000 		.quad	0
 8325      00000000 
 8326 0008 00000000 		.quad	_ZTI30TestConv_testGetHexLowerNibble
 8326      00000000 
 8327 0010 00000000 		.quad	_ZN30TestConv_testGetHexLowerNibbleD1Ev
 8327      00000000 
 8328 0018 00000000 		.quad	_ZN30TestConv_testGetHexLowerNibbleD0Ev
 8328      00000000 
 8329 0020 00000000 		.quad	_ZNK30TestConv_testGetHexLowerNibble7RunImplEv
 8329      00000000 
 8330              		.section	.text._ZN30TestConv_testGetHexLowerNibbleD2Ev,"axG",@progbits,_ZN30TestConv_testGetHexLow
 8331              		.align 2
 8332              		.weak	_ZN30TestConv_testGetHexLowerNibbleD2Ev
 8334              	_ZN30TestConv_testGetHexLowerNibbleD2Ev:
 8335              	.LFB1251:
 130:testConv.cpp  **** 	CHECK_EQUAL('0', getHexLowerNibble(0xF0));
 8336              		.loc 3 130 1
 8337              		.cfi_startproc
 8338 0000 F30F1EFA 		endbr64
 8339 0004 55       		pushq	%rbp
 8340              		.cfi_def_cfa_offset 16
 8341              		.cfi_offset 6, -16
 8342 0005 4889E5   		movq	%rsp, %rbp
 8343              		.cfi_def_cfa_register 6
 8344 0008 4883EC10 		subq	$16, %rsp
 8345 000c 48897DF8 		movq	%rdi, -8(%rbp)
 8346              	.LBB22:
 130:testConv.cpp  **** 	CHECK_EQUAL('0', getHexLowerNibble(0xF0));
 8347              		.loc 3 130 1
 8348 0010 488D1500 		leaq	16+_ZTV30TestConv_testGetHexLowerNibble(%rip), %rdx
 8348      000000
 8349 0017 488B45F8 		movq	-8(%rbp), %rax
 8350 001b 488910   		movq	%rdx, (%rax)
 8351 001e 488B45F8 		movq	-8(%rbp), %rax
 8352 0022 4889C7   		movq	%rax, %rdi
 8353 0025 E8000000 		call	_ZN8UnitTest4TestD2Ev@PLT
 8353      00
 8354              	.LBE22:
 8355 002a 90       		nop
 8356 002b C9       		leave
 8357              		.cfi_def_cfa 7, 8
 8358 002c C3       		ret
 8359              		.cfi_endproc
 8360              	.LFE1251:
 8362              		.weak	_ZN30TestConv_testGetHexLowerNibbleD1Ev
 8363              		.set	_ZN30TestConv_testGetHexLowerNibbleD1Ev,_ZN30TestConv_testGetHexLowerNibbleD2Ev
 8364              		.section	.text._ZN30TestConv_testGetHexLowerNibbleD0Ev,"axG",@progbits,_ZN30TestConv_testGetHexLow
 8365              		.align 2
 8366              		.weak	_ZN30TestConv_testGetHexLowerNibbleD0Ev
 8368              	_ZN30TestConv_testGetHexLowerNibbleD0Ev:
 8369              	.LFB1253:
 130:testConv.cpp  **** 	CHECK_EQUAL('0', getHexLowerNibble(0xF0));
 8370              		.loc 3 130 1
 8371              		.cfi_startproc
 8372              		.cfi_personality 0x9b,DW.ref.__gxx_personality_v0
 8373              		.cfi_lsda 0x1b,.LLSDA1253
 8374 0000 F30F1EFA 		endbr64
 8375 0004 55       		pushq	%rbp
 8376              		.cfi_def_cfa_offset 16
 8377              		.cfi_offset 6, -16
 8378 0005 4889E5   		movq	%rsp, %rbp
 8379              		.cfi_def_cfa_register 6
 8380 0008 53       		pushq	%rbx
 8381 0009 4883EC18 		subq	$24, %rsp
 8382              		.cfi_offset 3, -24
 8383 000d 48897DE8 		movq	%rdi, -24(%rbp)
 130:testConv.cpp  **** 	CHECK_EQUAL('0', getHexLowerNibble(0xF0));
 8384              		.loc 3 130 1
 8385 0011 488B45E8 		movq	-24(%rbp), %rax
 8386 0015 4889C7   		movq	%rax, %rdi
 8387              	.LEHB390:
 8388 0018 E8000000 		call	_ZN30TestConv_testGetHexLowerNibbleD1Ev
 8388      00
 8389              	.LEHE390:
 130:testConv.cpp  **** 	CHECK_EQUAL('0', getHexLowerNibble(0xF0));
 8390              		.loc 3 130 1 is_stmt 0 discriminator 2
 8391 001d 488B45E8 		movq	-24(%rbp), %rax
 8392 0021 4889C7   		movq	%rax, %rdi
 8393 0024 E8000000 		call	_ZdlPv@PLT
 8393      00
 8394 0029 EB1E     		jmp	.L478
 8395              	.L477:
 8396 002b F30F1EFA 		endbr64
 130:testConv.cpp  **** 	CHECK_EQUAL('0', getHexLowerNibble(0xF0));
 8397              		.loc 3 130 1
 8398 002f 4889C3   		movq	%rax, %rbx
 8399 0032 488B45E8 		movq	-24(%rbp), %rax
 8400 0036 4889C7   		movq	%rax, %rdi
 8401 0039 E8000000 		call	_ZdlPv@PLT
 8401      00
 8402 003e 4889D8   		movq	%rbx, %rax
 8403 0041 4889C7   		movq	%rax, %rdi
 8404              	.LEHB391:
 8405 0044 E8000000 		call	_Unwind_Resume@PLT
 8405      00
 8406              	.LEHE391:
 8407              	.L478:
 8408 0049 488B5DF8 		movq	-8(%rbp), %rbx
 8409 004d C9       		leave
 8410              		.cfi_def_cfa 7, 8
 8411 004e C3       		ret
 8412              		.cfi_endproc
 8413              	.LFE1253:
 8414              		.section	.gcc_except_table
 8415              	.LLSDA1253:
 8416 086f FF       		.byte	0xff
 8417 0870 FF       		.byte	0xff
 8418 0871 01       		.byte	0x1
 8419 0872 08       		.uleb128 .LLSDACSE1253-.LLSDACSB1253
 8420              	.LLSDACSB1253:
 8421 0873 18       		.uleb128 .LEHB390-.LFB1253
 8422 0874 05       		.uleb128 .LEHE390-.LEHB390
 8423 0875 2B       		.uleb128 .L477-.LFB1253
 8424 0876 00       		.uleb128 0
 8425 0877 44       		.uleb128 .LEHB391-.LFB1253
 8426 0878 05       		.uleb128 .LEHE391-.LEHB391
 8427 0879 00       		.uleb128 0
 8428 087a 00       		.uleb128 0
 8429              	.LLSDACSE1253:
 8430              		.section	.text._ZN30TestConv_testGetHexLowerNibbleD0Ev,"axG",@progbits,_ZN30TestConv_testGetHexLow
 8432              		.weak	_ZTV30TestConv_testGetHexUpperNibble
 8433              		.section	.data.rel.ro.local._ZTV30TestConv_testGetHexUpperNibble,"awG",@progbits,_ZTV30TestConv_te
 8434              		.align 8
 8437              	_ZTV30TestConv_testGetHexUpperNibble:
 8438 0000 00000000 		.quad	0
 8438      00000000 
 8439 0008 00000000 		.quad	_ZTI30TestConv_testGetHexUpperNibble
 8439      00000000 
 8440 0010 00000000 		.quad	_ZN30TestConv_testGetHexUpperNibbleD1Ev
 8440      00000000 
 8441 0018 00000000 		.quad	_ZN30TestConv_testGetHexUpperNibbleD0Ev
 8441      00000000 
 8442 0020 00000000 		.quad	_ZNK30TestConv_testGetHexUpperNibble7RunImplEv
 8442      00000000 
 8443              		.section	.text._ZN30TestConv_testGetHexUpperNibbleD2Ev,"axG",@progbits,_ZN30TestConv_testGetHexUpp
 8444              		.align 2
 8445              		.weak	_ZN30TestConv_testGetHexUpperNibbleD2Ev
 8447              	_ZN30TestConv_testGetHexUpperNibbleD2Ev:
 8448              	.LFB1255:
 111:testConv.cpp  **** 	CHECK_EQUAL('0', getHexUpperNibble(0x0F));
 8449              		.loc 3 111 1 is_stmt 1
 8450              		.cfi_startproc
 8451 0000 F30F1EFA 		endbr64
 8452 0004 55       		pushq	%rbp
 8453              		.cfi_def_cfa_offset 16
 8454              		.cfi_offset 6, -16
 8455 0005 4889E5   		movq	%rsp, %rbp
 8456              		.cfi_def_cfa_register 6
 8457 0008 4883EC10 		subq	$16, %rsp
 8458 000c 48897DF8 		movq	%rdi, -8(%rbp)
 8459              	.LBB23:
 111:testConv.cpp  **** 	CHECK_EQUAL('0', getHexUpperNibble(0x0F));
 8460              		.loc 3 111 1
 8461 0010 488D1500 		leaq	16+_ZTV30TestConv_testGetHexUpperNibble(%rip), %rdx
 8461      000000
 8462 0017 488B45F8 		movq	-8(%rbp), %rax
 8463 001b 488910   		movq	%rdx, (%rax)
 8464 001e 488B45F8 		movq	-8(%rbp), %rax
 8465 0022 4889C7   		movq	%rax, %rdi
 8466 0025 E8000000 		call	_ZN8UnitTest4TestD2Ev@PLT
 8466      00
 8467              	.LBE23:
 8468 002a 90       		nop
 8469 002b C9       		leave
 8470              		.cfi_def_cfa 7, 8
 8471 002c C3       		ret
 8472              		.cfi_endproc
 8473              	.LFE1255:
 8475              		.weak	_ZN30TestConv_testGetHexUpperNibbleD1Ev
 8476              		.set	_ZN30TestConv_testGetHexUpperNibbleD1Ev,_ZN30TestConv_testGetHexUpperNibbleD2Ev
 8477              		.section	.text._ZN30TestConv_testGetHexUpperNibbleD0Ev,"axG",@progbits,_ZN30TestConv_testGetHexUpp
 8478              		.align 2
 8479              		.weak	_ZN30TestConv_testGetHexUpperNibbleD0Ev
 8481              	_ZN30TestConv_testGetHexUpperNibbleD0Ev:
 8482              	.LFB1257:
 111:testConv.cpp  **** 	CHECK_EQUAL('0', getHexUpperNibble(0x0F));
 8483              		.loc 3 111 1
 8484              		.cfi_startproc
 8485              		.cfi_personality 0x9b,DW.ref.__gxx_personality_v0
 8486              		.cfi_lsda 0x1b,.LLSDA1257
 8487 0000 F30F1EFA 		endbr64
 8488 0004 55       		pushq	%rbp
 8489              		.cfi_def_cfa_offset 16
 8490              		.cfi_offset 6, -16
 8491 0005 4889E5   		movq	%rsp, %rbp
 8492              		.cfi_def_cfa_register 6
 8493 0008 53       		pushq	%rbx
 8494 0009 4883EC18 		subq	$24, %rsp
 8495              		.cfi_offset 3, -24
 8496 000d 48897DE8 		movq	%rdi, -24(%rbp)
 111:testConv.cpp  **** 	CHECK_EQUAL('0', getHexUpperNibble(0x0F));
 8497              		.loc 3 111 1
 8498 0011 488B45E8 		movq	-24(%rbp), %rax
 8499 0015 4889C7   		movq	%rax, %rdi
 8500              	.LEHB392:
 8501 0018 E8000000 		call	_ZN30TestConv_testGetHexUpperNibbleD1Ev
 8501      00
 8502              	.LEHE392:
 111:testConv.cpp  **** 	CHECK_EQUAL('0', getHexUpperNibble(0x0F));
 8503              		.loc 3 111 1 is_stmt 0 discriminator 2
 8504 001d 488B45E8 		movq	-24(%rbp), %rax
 8505 0021 4889C7   		movq	%rax, %rdi
 8506 0024 E8000000 		call	_ZdlPv@PLT
 8506      00
 8507 0029 EB1E     		jmp	.L483
 8508              	.L482:
 8509 002b F30F1EFA 		endbr64
 111:testConv.cpp  **** 	CHECK_EQUAL('0', getHexUpperNibble(0x0F));
 8510              		.loc 3 111 1
 8511 002f 4889C3   		movq	%rax, %rbx
 8512 0032 488B45E8 		movq	-24(%rbp), %rax
 8513 0036 4889C7   		movq	%rax, %rdi
 8514 0039 E8000000 		call	_ZdlPv@PLT
 8514      00
 8515 003e 4889D8   		movq	%rbx, %rax
 8516 0041 4889C7   		movq	%rax, %rdi
 8517              	.LEHB393:
 8518 0044 E8000000 		call	_Unwind_Resume@PLT
 8518      00
 8519              	.LEHE393:
 8520              	.L483:
 8521 0049 488B5DF8 		movq	-8(%rbp), %rbx
 8522 004d C9       		leave
 8523              		.cfi_def_cfa 7, 8
 8524 004e C3       		ret
 8525              		.cfi_endproc
 8526              	.LFE1257:
 8527              		.section	.gcc_except_table
 8528              	.LLSDA1257:
 8529 087b FF       		.byte	0xff
 8530 087c FF       		.byte	0xff
 8531 087d 01       		.byte	0x1
 8532 087e 08       		.uleb128 .LLSDACSE1257-.LLSDACSB1257
 8533              	.LLSDACSB1257:
 8534 087f 18       		.uleb128 .LEHB392-.LFB1257
 8535 0880 05       		.uleb128 .LEHE392-.LEHB392
 8536 0881 2B       		.uleb128 .L482-.LFB1257
 8537 0882 00       		.uleb128 0
 8538 0883 44       		.uleb128 .LEHB393-.LFB1257
 8539 0884 05       		.uleb128 .LEHE393-.LEHB393
 8540 0885 00       		.uleb128 0
 8541 0886 00       		.uleb128 0
 8542              	.LLSDACSE1257:
 8543              		.section	.text._ZN30TestConv_testGetHexUpperNibbleD0Ev,"axG",@progbits,_ZN30TestConv_testGetHexUpp
 8545              		.weak	_ZTV23TestConv_testGetHexByte
 8546              		.section	.data.rel.ro.local._ZTV23TestConv_testGetHexByte,"awG",@progbits,_ZTV23TestConv_testGetHe
 8547              		.align 8
 8550              	_ZTV23TestConv_testGetHexByte:
 8551 0000 00000000 		.quad	0
 8551      00000000 
 8552 0008 00000000 		.quad	_ZTI23TestConv_testGetHexByte
 8552      00000000 
 8553 0010 00000000 		.quad	_ZN23TestConv_testGetHexByteD1Ev
 8553      00000000 
 8554 0018 00000000 		.quad	_ZN23TestConv_testGetHexByteD0Ev
 8554      00000000 
 8555 0020 00000000 		.quad	_ZNK23TestConv_testGetHexByte7RunImplEv
 8555      00000000 
 8556              		.section	.text._ZN23TestConv_testGetHexByteD2Ev,"axG",@progbits,_ZN23TestConv_testGetHexByteD5Ev,c
 8557              		.align 2
 8558              		.weak	_ZN23TestConv_testGetHexByteD2Ev
 8560              	_ZN23TestConv_testGetHexByteD2Ev:
 8561              	.LFB1259:
  93:testConv.cpp  **** 	uint8 byte;
 8562              		.loc 3 93 1 is_stmt 1
 8563              		.cfi_startproc
 8564 0000 F30F1EFA 		endbr64
 8565 0004 55       		pushq	%rbp
 8566              		.cfi_def_cfa_offset 16
 8567              		.cfi_offset 6, -16
 8568 0005 4889E5   		movq	%rsp, %rbp
 8569              		.cfi_def_cfa_register 6
 8570 0008 4883EC10 		subq	$16, %rsp
 8571 000c 48897DF8 		movq	%rdi, -8(%rbp)
 8572              	.LBB24:
  93:testConv.cpp  **** 	uint8 byte;
 8573              		.loc 3 93 1
 8574 0010 488D1500 		leaq	16+_ZTV23TestConv_testGetHexByte(%rip), %rdx
 8574      000000
 8575 0017 488B45F8 		movq	-8(%rbp), %rax
 8576 001b 488910   		movq	%rdx, (%rax)
 8577 001e 488B45F8 		movq	-8(%rbp), %rax
 8578 0022 4889C7   		movq	%rax, %rdi
 8579 0025 E8000000 		call	_ZN8UnitTest4TestD2Ev@PLT
 8579      00
 8580              	.LBE24:
 8581 002a 90       		nop
 8582 002b C9       		leave
 8583              		.cfi_def_cfa 7, 8
 8584 002c C3       		ret
 8585              		.cfi_endproc
 8586              	.LFE1259:
 8588              		.weak	_ZN23TestConv_testGetHexByteD1Ev
 8589              		.set	_ZN23TestConv_testGetHexByteD1Ev,_ZN23TestConv_testGetHexByteD2Ev
 8590              		.section	.text._ZN23TestConv_testGetHexByteD0Ev,"axG",@progbits,_ZN23TestConv_testGetHexByteD5Ev,c
 8591              		.align 2
 8592              		.weak	_ZN23TestConv_testGetHexByteD0Ev
 8594              	_ZN23TestConv_testGetHexByteD0Ev:
 8595              	.LFB1261:
  93:testConv.cpp  **** 	uint8 byte;
 8596              		.loc 3 93 1
 8597              		.cfi_startproc
 8598              		.cfi_personality 0x9b,DW.ref.__gxx_personality_v0
 8599              		.cfi_lsda 0x1b,.LLSDA1261
 8600 0000 F30F1EFA 		endbr64
 8601 0004 55       		pushq	%rbp
 8602              		.cfi_def_cfa_offset 16
 8603              		.cfi_offset 6, -16
 8604 0005 4889E5   		movq	%rsp, %rbp
 8605              		.cfi_def_cfa_register 6
 8606 0008 53       		pushq	%rbx
 8607 0009 4883EC18 		subq	$24, %rsp
 8608              		.cfi_offset 3, -24
 8609 000d 48897DE8 		movq	%rdi, -24(%rbp)
  93:testConv.cpp  **** 	uint8 byte;
 8610              		.loc 3 93 1
 8611 0011 488B45E8 		movq	-24(%rbp), %rax
 8612 0015 4889C7   		movq	%rax, %rdi
 8613              	.LEHB394:
 8614 0018 E8000000 		call	_ZN23TestConv_testGetHexByteD1Ev
 8614      00
 8615              	.LEHE394:
  93:testConv.cpp  **** 	uint8 byte;
 8616              		.loc 3 93 1 is_stmt 0 discriminator 2
 8617 001d 488B45E8 		movq	-24(%rbp), %rax
 8618 0021 4889C7   		movq	%rax, %rdi
 8619 0024 E8000000 		call	_ZdlPv@PLT
 8619      00
 8620 0029 EB1E     		jmp	.L488
 8621              	.L487:
 8622 002b F30F1EFA 		endbr64
  93:testConv.cpp  **** 	uint8 byte;
 8623              		.loc 3 93 1
 8624 002f 4889C3   		movq	%rax, %rbx
 8625 0032 488B45E8 		movq	-24(%rbp), %rax
 8626 0036 4889C7   		movq	%rax, %rdi
 8627 0039 E8000000 		call	_ZdlPv@PLT
 8627      00
 8628 003e 4889D8   		movq	%rbx, %rax
 8629 0041 4889C7   		movq	%rax, %rdi
 8630              	.LEHB395:
 8631 0044 E8000000 		call	_Unwind_Resume@PLT
 8631      00
 8632              	.LEHE395:
 8633              	.L488:
 8634 0049 488B5DF8 		movq	-8(%rbp), %rbx
 8635 004d C9       		leave
 8636              		.cfi_def_cfa 7, 8
 8637 004e C3       		ret
 8638              		.cfi_endproc
 8639              	.LFE1261:
 8640              		.section	.gcc_except_table
 8641              	.LLSDA1261:
 8642 0887 FF       		.byte	0xff
 8643 0888 FF       		.byte	0xff
 8644 0889 01       		.byte	0x1
 8645 088a 08       		.uleb128 .LLSDACSE1261-.LLSDACSB1261
 8646              	.LLSDACSB1261:
 8647 088b 18       		.uleb128 .LEHB394-.LFB1261
 8648 088c 05       		.uleb128 .LEHE394-.LEHB394
 8649 088d 2B       		.uleb128 .L487-.LFB1261
 8650 088e 00       		.uleb128 0
 8651 088f 44       		.uleb128 .LEHB395-.LFB1261
 8652 0890 05       		.uleb128 .LEHE395-.LEHB395
 8653 0891 00       		.uleb128 0
 8654 0892 00       		.uleb128 0
 8655              	.LLSDACSE1261:
 8656              		.section	.text._ZN23TestConv_testGetHexByteD0Ev,"axG",@progbits,_ZN23TestConv_testGetHexByteD5Ev,c
 8658              		.weak	_ZTV25TestConv_testGetHexNibble
 8659              		.section	.data.rel.ro.local._ZTV25TestConv_testGetHexNibble,"awG",@progbits,_ZTV25TestConv_testGet
 8660              		.align 8
 8663              	_ZTV25TestConv_testGetHexNibble:
 8664 0000 00000000 		.quad	0
 8664      00000000 
 8665 0008 00000000 		.quad	_ZTI25TestConv_testGetHexNibble
 8665      00000000 
 8666 0010 00000000 		.quad	_ZN25TestConv_testGetHexNibbleD1Ev
 8666      00000000 
 8667 0018 00000000 		.quad	_ZN25TestConv_testGetHexNibbleD0Ev
 8667      00000000 
 8668 0020 00000000 		.quad	_ZNK25TestConv_testGetHexNibble7RunImplEv
 8668      00000000 
 8669              		.section	.text._ZN25TestConv_testGetHexNibbleD2Ev,"axG",@progbits,_ZN25TestConv_testGetHexNibbleD5
 8670              		.align 2
 8671              		.weak	_ZN25TestConv_testGetHexNibbleD2Ev
 8673              	_ZN25TestConv_testGetHexNibbleD2Ev:
 8674              	.LFB1263:
  20:testConv.cpp  **** 	uint8 nibble;
 8675              		.loc 3 20 1 is_stmt 1
 8676              		.cfi_startproc
 8677 0000 F30F1EFA 		endbr64
 8678 0004 55       		pushq	%rbp
 8679              		.cfi_def_cfa_offset 16
 8680              		.cfi_offset 6, -16
 8681 0005 4889E5   		movq	%rsp, %rbp
 8682              		.cfi_def_cfa_register 6
 8683 0008 4883EC10 		subq	$16, %rsp
 8684 000c 48897DF8 		movq	%rdi, -8(%rbp)
 8685              	.LBB25:
  20:testConv.cpp  **** 	uint8 nibble;
 8686              		.loc 3 20 1
 8687 0010 488D1500 		leaq	16+_ZTV25TestConv_testGetHexNibble(%rip), %rdx
 8687      000000
 8688 0017 488B45F8 		movq	-8(%rbp), %rax
 8689 001b 488910   		movq	%rdx, (%rax)
 8690 001e 488B45F8 		movq	-8(%rbp), %rax
 8691 0022 4889C7   		movq	%rax, %rdi
 8692 0025 E8000000 		call	_ZN8UnitTest4TestD2Ev@PLT
 8692      00
 8693              	.LBE25:
 8694 002a 90       		nop
 8695 002b C9       		leave
 8696              		.cfi_def_cfa 7, 8
 8697 002c C3       		ret
 8698              		.cfi_endproc
 8699              	.LFE1263:
 8701              		.weak	_ZN25TestConv_testGetHexNibbleD1Ev
 8702              		.set	_ZN25TestConv_testGetHexNibbleD1Ev,_ZN25TestConv_testGetHexNibbleD2Ev
 8703              		.section	.text._ZN25TestConv_testGetHexNibbleD0Ev,"axG",@progbits,_ZN25TestConv_testGetHexNibbleD5
 8704              		.align 2
 8705              		.weak	_ZN25TestConv_testGetHexNibbleD0Ev
 8707              	_ZN25TestConv_testGetHexNibbleD0Ev:
 8708              	.LFB1265:
  20:testConv.cpp  **** 	uint8 nibble;
 8709              		.loc 3 20 1
 8710              		.cfi_startproc
 8711              		.cfi_personality 0x9b,DW.ref.__gxx_personality_v0
 8712              		.cfi_lsda 0x1b,.LLSDA1265
 8713 0000 F30F1EFA 		endbr64
 8714 0004 55       		pushq	%rbp
 8715              		.cfi_def_cfa_offset 16
 8716              		.cfi_offset 6, -16
 8717 0005 4889E5   		movq	%rsp, %rbp
 8718              		.cfi_def_cfa_register 6
 8719 0008 53       		pushq	%rbx
 8720 0009 4883EC18 		subq	$24, %rsp
 8721              		.cfi_offset 3, -24
 8722 000d 48897DE8 		movq	%rdi, -24(%rbp)
  20:testConv.cpp  **** 	uint8 nibble;
 8723              		.loc 3 20 1
 8724 0011 488B45E8 		movq	-24(%rbp), %rax
 8725 0015 4889C7   		movq	%rax, %rdi
 8726              	.LEHB396:
 8727 0018 E8000000 		call	_ZN25TestConv_testGetHexNibbleD1Ev
 8727      00
 8728              	.LEHE396:
  20:testConv.cpp  **** 	uint8 nibble;
 8729              		.loc 3 20 1 is_stmt 0 discriminator 2
 8730 001d 488B45E8 		movq	-24(%rbp), %rax
 8731 0021 4889C7   		movq	%rax, %rdi
 8732 0024 E8000000 		call	_ZdlPv@PLT
 8732      00
 8733 0029 EB1E     		jmp	.L493
 8734              	.L492:
 8735 002b F30F1EFA 		endbr64
  20:testConv.cpp  **** 	uint8 nibble;
 8736              		.loc 3 20 1
 8737 002f 4889C3   		movq	%rax, %rbx
 8738 0032 488B45E8 		movq	-24(%rbp), %rax
 8739 0036 4889C7   		movq	%rax, %rdi
 8740 0039 E8000000 		call	_ZdlPv@PLT
 8740      00
 8741 003e 4889D8   		movq	%rbx, %rax
 8742 0041 4889C7   		movq	%rax, %rdi
 8743              	.LEHB397:
 8744 0044 E8000000 		call	_Unwind_Resume@PLT
 8744      00
 8745              	.LEHE397:
 8746              	.L493:
 8747 0049 488B5DF8 		movq	-8(%rbp), %rbx
 8748 004d C9       		leave
 8749              		.cfi_def_cfa 7, 8
 8750 004e C3       		ret
 8751              		.cfi_endproc
 8752              	.LFE1265:
 8753              		.section	.gcc_except_table
 8754              	.LLSDA1265:
 8755 0893 FF       		.byte	0xff
 8756 0894 FF       		.byte	0xff
 8757 0895 01       		.byte	0x1
 8758 0896 08       		.uleb128 .LLSDACSE1265-.LLSDACSB1265
 8759              	.LLSDACSB1265:
 8760 0897 18       		.uleb128 .LEHB396-.LFB1265
 8761 0898 05       		.uleb128 .LEHE396-.LEHB396
 8762 0899 2B       		.uleb128 .L492-.LFB1265
 8763 089a 00       		.uleb128 0
 8764 089b 44       		.uleb128 .LEHB397-.LFB1265
 8765 089c 05       		.uleb128 .LEHE397-.LEHB397
 8766 089d 00       		.uleb128 0
 8767 089e 00       		.uleb128 0
 8768              	.LLSDACSE1265:
 8769              		.section	.text._ZN25TestConv_testGetHexNibbleD0Ev,"axG",@progbits,_ZN25TestConv_testGetHexNibbleD5
 8771              		.weak	_ZTVN8UnitTest15MemoryOutStreamE
 8772              		.section	.data.rel.ro.local._ZTVN8UnitTest15MemoryOutStreamE,"awG",@progbits,_ZTVN8UnitTest15Memor
 8773              		.align 8
 8776              	_ZTVN8UnitTest15MemoryOutStreamE:
 8777 0000 90000000 		.quad	144
 8777      00000000 
 8778 0008 00000000 		.quad	0
 8778      00000000 
 8779 0010 00000000 		.quad	_ZTIN8UnitTest15MemoryOutStreamE
 8779      00000000 
 8780 0018 00000000 		.quad	_ZN8UnitTest15MemoryOutStreamD1Ev
 8780      00000000 
 8781 0020 00000000 		.quad	_ZN8UnitTest15MemoryOutStreamD0Ev
 8781      00000000 
 8782 0028 70FFFFFF 		.quad	-144
 8782      FFFFFFFF 
 8783 0030 70FFFFFF 		.quad	-144
 8783      FFFFFFFF 
 8784 0038 00000000 		.quad	_ZTIN8UnitTest15MemoryOutStreamE
 8784      00000000 
 8785 0040 00000000 		.quad	_ZTv0_n24_N8UnitTest15MemoryOutStreamD1Ev
 8785      00000000 
 8786 0048 00000000 		.quad	_ZTv0_n24_N8UnitTest15MemoryOutStreamD0Ev
 8786      00000000 
 8787              		.weak	_ZTTN8UnitTest15MemoryOutStreamE
 8788              		.section	.data.rel.ro.local._ZTTN8UnitTest15MemoryOutStreamE,"awG",@progbits,_ZTVN8UnitTest15Memor
 8789              		.align 8
 8792              	_ZTTN8UnitTest15MemoryOutStreamE:
 8793 0000 00000000 		.quad	_ZTVN8UnitTest15MemoryOutStreamE+24
 8793      00000000 
 8794 0008 00000000 		.quad	_ZTCN8UnitTest15MemoryOutStreamE0_NSt7__cxx1119basic_ostringstreamIcSt11char_traitsIcESaIcEE
 8794      00000000 
 8795 0010 00000000 		.quad	_ZTCN8UnitTest15MemoryOutStreamE0_So+24
 8795      00000000 
 8796 0018 00000000 		.quad	_ZTCN8UnitTest15MemoryOutStreamE0_So+64
 8796      00000000 
 8797 0020 00000000 		.quad	_ZTCN8UnitTest15MemoryOutStreamE0_NSt7__cxx1119basic_ostringstreamIcSt11char_traitsIcESaIcEE
 8797      00000000 
 8798 0028 00000000 		.quad	_ZTVN8UnitTest15MemoryOutStreamE+64
 8798      00000000 
 8799              		.hidden	_ZTCN8UnitTest15MemoryOutStreamE0_NSt7__cxx1119basic_ostringstreamIcSt11char_traitsIcESaIc
 8800              		.weak	_ZTCN8UnitTest15MemoryOutStreamE0_NSt7__cxx1119basic_ostringstreamIcSt11char_traitsIcESaIcEE
 8801              		.section	.data.rel.ro._ZTCN8UnitTest15MemoryOutStreamE0_NSt7__cxx1119basic_ostringstreamIcSt11char
 8802              		.align 8
 8805              	_ZTCN8UnitTest15MemoryOutStreamE0_NSt7__cxx1119basic_ostringstreamIcSt11char_traitsIcESaIcEEE:
 8806 0000 90000000 		.quad	144
 8806      00000000 
 8807 0008 00000000 		.quad	0
 8807      00000000 
 8808 0010 00000000 		.quad	_ZTINSt7__cxx1119basic_ostringstreamIcSt11char_traitsIcESaIcEEE
 8808      00000000 
 8809 0018 00000000 		.quad	0
 8809      00000000 
 8810 0020 00000000 		.quad	0
 8810      00000000 
 8811 0028 70FFFFFF 		.quad	-144
 8811      FFFFFFFF 
 8812 0030 70FFFFFF 		.quad	-144
 8812      FFFFFFFF 
 8813 0038 00000000 		.quad	_ZTINSt7__cxx1119basic_ostringstreamIcSt11char_traitsIcESaIcEEE
 8813      00000000 
 8814 0040 00000000 		.quad	0
 8814      00000000 
 8815 0048 00000000 		.quad	0
 8815      00000000 
 8816              		.hidden	_ZTCN8UnitTest15MemoryOutStreamE0_So
 8817              		.weak	_ZTCN8UnitTest15MemoryOutStreamE0_So
 8818              		.section	.data.rel.ro._ZTCN8UnitTest15MemoryOutStreamE0_So,"awG",@progbits,_ZTVN8UnitTest15MemoryO
 8819              		.align 8
 8822              	_ZTCN8UnitTest15MemoryOutStreamE0_So:
 8823 0000 90000000 		.quad	144
 8823      00000000 
 8824 0008 00000000 		.quad	0
 8824      00000000 
 8825 0010 00000000 		.quad	_ZTISo
 8825      00000000 
 8826 0018 00000000 		.quad	0
 8826      00000000 
 8827 0020 00000000 		.quad	0
 8827      00000000 
 8828 0028 70FFFFFF 		.quad	-144
 8828      FFFFFFFF 
 8829 0030 70FFFFFF 		.quad	-144
 8829      FFFFFFFF 
 8830 0038 00000000 		.quad	_ZTISo
 8830      00000000 
 8831 0040 00000000 		.quad	0
 8831      00000000 
 8832 0048 00000000 		.quad	0
 8832      00000000 
 8833              		.weak	_ZTI30TestConv_testGetHexLowerNibble
 8834              		.section	.data.rel.ro._ZTI30TestConv_testGetHexLowerNibble,"awG",@progbits,_ZTI30TestConv_testGetH
 8835              		.align 8
 8838              	_ZTI30TestConv_testGetHexLowerNibble:
 8839 0000 00000000 		.quad	_ZTVN10__cxxabiv120__si_class_type_infoE+16
 8839      00000000 
 8840 0008 00000000 		.quad	_ZTS30TestConv_testGetHexLowerNibble
 8840      00000000 
 8841 0010 00000000 		.quad	_ZTIN8UnitTest4TestE
 8841      00000000 
 8842              		.weak	_ZTS30TestConv_testGetHexLowerNibble
 8843              		.section	.rodata._ZTS30TestConv_testGetHexLowerNibble,"aG",@progbits,_ZTS30TestConv_testGetHexLowe
 8844              		.align 32
 8847              	_ZTS30TestConv_testGetHexLowerNibble:
 8848 0000 33305465 		.string	"30TestConv_testGetHexLowerNibble"
 8848      7374436F 
 8848      6E765F74 
 8848      65737447 
 8848      65744865 
 8849              		.weak	_ZTI30TestConv_testGetHexUpperNibble
 8850              		.section	.data.rel.ro._ZTI30TestConv_testGetHexUpperNibble,"awG",@progbits,_ZTI30TestConv_testGetH
 8851              		.align 8
 8854              	_ZTI30TestConv_testGetHexUpperNibble:
 8855 0000 00000000 		.quad	_ZTVN10__cxxabiv120__si_class_type_infoE+16
 8855      00000000 
 8856 0008 00000000 		.quad	_ZTS30TestConv_testGetHexUpperNibble
 8856      00000000 
 8857 0010 00000000 		.quad	_ZTIN8UnitTest4TestE
 8857      00000000 
 8858              		.weak	_ZTS30TestConv_testGetHexUpperNibble
 8859              		.section	.rodata._ZTS30TestConv_testGetHexUpperNibble,"aG",@progbits,_ZTS30TestConv_testGetHexUppe
 8860              		.align 32
 8863              	_ZTS30TestConv_testGetHexUpperNibble:
 8864 0000 33305465 		.string	"30TestConv_testGetHexUpperNibble"
 8864      7374436F 
 8864      6E765F74 
 8864      65737447 
 8864      65744865 
 8865              		.weak	_ZTI23TestConv_testGetHexByte
 8866              		.section	.data.rel.ro._ZTI23TestConv_testGetHexByte,"awG",@progbits,_ZTI23TestConv_testGetHexByte,
 8867              		.align 8
 8870              	_ZTI23TestConv_testGetHexByte:
 8871 0000 00000000 		.quad	_ZTVN10__cxxabiv120__si_class_type_infoE+16
 8871      00000000 
 8872 0008 00000000 		.quad	_ZTS23TestConv_testGetHexByte
 8872      00000000 
 8873 0010 00000000 		.quad	_ZTIN8UnitTest4TestE
 8873      00000000 
 8874              		.weak	_ZTS23TestConv_testGetHexByte
 8875              		.section	.rodata._ZTS23TestConv_testGetHexByte,"aG",@progbits,_ZTS23TestConv_testGetHexByte,comdat
 8876              		.align 16
 8879              	_ZTS23TestConv_testGetHexByte:
 8880 0000 32335465 		.string	"23TestConv_testGetHexByte"
 8880      7374436F 
 8880      6E765F74 
 8880      65737447 
 8880      65744865 
 8881              		.weak	_ZTI25TestConv_testGetHexNibble
 8882              		.section	.data.rel.ro._ZTI25TestConv_testGetHexNibble,"awG",@progbits,_ZTI25TestConv_testGetHexNib
 8883              		.align 8
 8886              	_ZTI25TestConv_testGetHexNibble:
 8887 0000 00000000 		.quad	_ZTVN10__cxxabiv120__si_class_type_infoE+16
 8887      00000000 
 8888 0008 00000000 		.quad	_ZTS25TestConv_testGetHexNibble
 8888      00000000 
 8889 0010 00000000 		.quad	_ZTIN8UnitTest4TestE
 8889      00000000 
 8890              		.weak	_ZTS25TestConv_testGetHexNibble
 8891              		.section	.rodata._ZTS25TestConv_testGetHexNibble,"aG",@progbits,_ZTS25TestConv_testGetHexNibble,co
 8892              		.align 16
 8895              	_ZTS25TestConv_testGetHexNibble:
 8896 0000 32355465 		.string	"25TestConv_testGetHexNibble"
 8896      7374436F 
 8896      6E765F74 
 8896      65737447 
 8896      65744865 
 8897              		.weak	_ZTIN8UnitTest15MemoryOutStreamE
 8898              		.section	.data.rel.ro._ZTIN8UnitTest15MemoryOutStreamE,"awG",@progbits,_ZTIN8UnitTest15MemoryOutSt
 8899              		.align 8
 8902              	_ZTIN8UnitTest15MemoryOutStreamE:
 8903 0000 00000000 		.quad	_ZTVN10__cxxabiv120__si_class_type_infoE+16
 8903      00000000 
 8904 0008 00000000 		.quad	_ZTSN8UnitTest15MemoryOutStreamE
 8904      00000000 
 8905 0010 00000000 		.quad	_ZTINSt7__cxx1119basic_ostringstreamIcSt11char_traitsIcESaIcEEE
 8905      00000000 
 8906              		.weak	_ZTSN8UnitTest15MemoryOutStreamE
 8907              		.section	.rodata._ZTSN8UnitTest15MemoryOutStreamE,"aG",@progbits,_ZTSN8UnitTest15MemoryOutStreamE,
 8908              		.align 16
 8911              	_ZTSN8UnitTest15MemoryOutStreamE:
 8912 0000 4E38556E 		.string	"N8UnitTest15MemoryOutStreamE"
 8912      69745465 
 8912      73743135 
 8912      4D656D6F 
 8912      72794F75 
 8913              		.text
 8915              	_Z41__static_initialization_and_destruction_0ii:
 8916              	.LFB1266:
 8917              		.loc 3 147 1 is_stmt 1
 8918              		.cfi_startproc
 8919 3b44 F30F1EFA 		endbr64
 8920 3b48 55       		pushq	%rbp
 8921              		.cfi_def_cfa_offset 16
 8922              		.cfi_offset 6, -16
 8923 3b49 4889E5   		movq	%rsp, %rbp
 8924              		.cfi_def_cfa_register 6
 8925 3b4c 4883EC10 		subq	$16, %rsp
 8926 3b50 897DFC   		movl	%edi, -4(%rbp)
 8927 3b53 8975F8   		movl	%esi, -8(%rbp)
 8928              		.loc 3 147 1
 8929 3b56 837DFC01 		cmpl	$1, -4(%rbp)
 8930 3b5a 0F856501 		jne	.L496
 8930      0000
 8931              		.loc 3 147 1 is_stmt 0 discriminator 1
 8932 3b60 817DF8FF 		cmpl	$65535, -8(%rbp)
 8932      FF0000
 8933 3b67 0F855801 		jne	.L496
 8933      0000
  20:testConv.cpp  **** 	uint8 nibble;
 8934              		.loc 3 20 1 is_stmt 1
 8935 3b6d 488D0500 		leaq	testConv_testGetHexNibbleInstance(%rip), %rax
 8935      000000
 8936 3b74 4889C7   		movq	%rax, %rdi
 8937 3b77 E8000000 		call	_ZN25TestConv_testGetHexNibbleC1Ev
 8937      00
 8938 3b7c 488D0500 		leaq	__dso_handle(%rip), %rax
 8938      000000
 8939 3b83 4889C2   		movq	%rax, %rdx
 8940 3b86 488D0500 		leaq	testConv_testGetHexNibbleInstance(%rip), %rax
 8940      000000
 8941 3b8d 4889C6   		movq	%rax, %rsi
 8942 3b90 488D0500 		leaq	_ZN25TestConv_testGetHexNibbleD1Ev(%rip), %rax
 8942      000000
 8943 3b97 4889C7   		movq	%rax, %rdi
 8944 3b9a E8000000 		call	__cxa_atexit@PLT
 8944      00
 8945 3b9f E8000000 		call	_ZN8UnitTest4Test11GetTestListEv@PLT
 8945      00
 8946 3ba4 4889C1   		movq	%rax, %rcx
 8947 3ba7 488D0500 		leaq	testConv_testGetHexNibbleInstance(%rip), %rax
 8947      000000
 8948 3bae 4889C2   		movq	%rax, %rdx
 8949 3bb1 4889CE   		movq	%rcx, %rsi
 8950 3bb4 488D0500 		leaq	adderConv_testGetHexNibble(%rip), %rax
 8950      000000
 8951 3bbb 4889C7   		movq	%rax, %rdi
 8952 3bbe E8000000 		call	_ZN8UnitTest9ListAdderC1ERNS_8TestListEPNS_4TestE@PLT
 8952      00
  93:testConv.cpp  **** 	uint8 byte;
 8953              		.loc 3 93 1
 8954 3bc3 488D0500 		leaq	testConv_testGetHexByteInstance(%rip), %rax
 8954      000000
 8955 3bca 4889C7   		movq	%rax, %rdi
 8956 3bcd E8000000 		call	_ZN23TestConv_testGetHexByteC1Ev
 8956      00
 8957 3bd2 488D0500 		leaq	__dso_handle(%rip), %rax
 8957      000000
 8958 3bd9 4889C2   		movq	%rax, %rdx
 8959 3bdc 488D0500 		leaq	testConv_testGetHexByteInstance(%rip), %rax
 8959      000000
 8960 3be3 4889C6   		movq	%rax, %rsi
 8961 3be6 488D0500 		leaq	_ZN23TestConv_testGetHexByteD1Ev(%rip), %rax
 8961      000000
 8962 3bed 4889C7   		movq	%rax, %rdi
 8963 3bf0 E8000000 		call	__cxa_atexit@PLT
 8963      00
 8964 3bf5 E8000000 		call	_ZN8UnitTest4Test11GetTestListEv@PLT
 8964      00
 8965 3bfa 4889C1   		movq	%rax, %rcx
 8966 3bfd 488D0500 		leaq	testConv_testGetHexByteInstance(%rip), %rax
 8966      000000
 8967 3c04 4889C2   		movq	%rax, %rdx
 8968 3c07 4889CE   		movq	%rcx, %rsi
 8969 3c0a 488D0500 		leaq	adderConv_testGetHexByte(%rip), %rax
 8969      000000
 8970 3c11 4889C7   		movq	%rax, %rdi
 8971 3c14 E8000000 		call	_ZN8UnitTest9ListAdderC1ERNS_8TestListEPNS_4TestE@PLT
 8971      00
 111:testConv.cpp  **** 	CHECK_EQUAL('0', getHexUpperNibble(0x0F));
 8972              		.loc 3 111 1
 8973 3c19 488D0500 		leaq	testConv_testGetHexUpperNibbleInstance(%rip), %rax
 8973      000000
 8974 3c20 4889C7   		movq	%rax, %rdi
 8975 3c23 E8000000 		call	_ZN30TestConv_testGetHexUpperNibbleC1Ev
 8975      00
 8976 3c28 488D0500 		leaq	__dso_handle(%rip), %rax
 8976      000000
 8977 3c2f 4889C2   		movq	%rax, %rdx
 8978 3c32 488D0500 		leaq	testConv_testGetHexUpperNibbleInstance(%rip), %rax
 8978      000000
 8979 3c39 4889C6   		movq	%rax, %rsi
 8980 3c3c 488D0500 		leaq	_ZN30TestConv_testGetHexUpperNibbleD1Ev(%rip), %rax
 8980      000000
 8981 3c43 4889C7   		movq	%rax, %rdi
 8982 3c46 E8000000 		call	__cxa_atexit@PLT
 8982      00
 8983 3c4b E8000000 		call	_ZN8UnitTest4Test11GetTestListEv@PLT
 8983      00
 8984 3c50 4889C1   		movq	%rax, %rcx
 8985 3c53 488D0500 		leaq	testConv_testGetHexUpperNibbleInstance(%rip), %rax
 8985      000000
 8986 3c5a 4889C2   		movq	%rax, %rdx
 8987 3c5d 4889CE   		movq	%rcx, %rsi
 8988 3c60 488D0500 		leaq	adderConv_testGetHexUpperNibble(%rip), %rax
 8988      000000
 8989 3c67 4889C7   		movq	%rax, %rdi
 8990 3c6a E8000000 		call	_ZN8UnitTest9ListAdderC1ERNS_8TestListEPNS_4TestE@PLT
 8990      00
 130:testConv.cpp  **** 	CHECK_EQUAL('0', getHexLowerNibble(0xF0));
 8991              		.loc 3 130 1
 8992 3c6f 488D0500 		leaq	testConv_testGetHexLowerNibbleInstance(%rip), %rax
 8992      000000
 8993 3c76 4889C7   		movq	%rax, %rdi
 8994 3c79 E8000000 		call	_ZN30TestConv_testGetHexLowerNibbleC1Ev
 8994      00
 8995 3c7e 488D0500 		leaq	__dso_handle(%rip), %rax
 8995      000000
 8996 3c85 4889C2   		movq	%rax, %rdx
 8997 3c88 488D0500 		leaq	testConv_testGetHexLowerNibbleInstance(%rip), %rax
 8997      000000
 8998 3c8f 4889C6   		movq	%rax, %rsi
 8999 3c92 488D0500 		leaq	_ZN30TestConv_testGetHexLowerNibbleD1Ev(%rip), %rax
 8999      000000
 9000 3c99 4889C7   		movq	%rax, %rdi
 9001 3c9c E8000000 		call	__cxa_atexit@PLT
 9001      00
 9002 3ca1 E8000000 		call	_ZN8UnitTest4Test11GetTestListEv@PLT
 9002      00
 9003 3ca6 4889C1   		movq	%rax, %rcx
 9004 3ca9 488D0500 		leaq	testConv_testGetHexLowerNibbleInstance(%rip), %rax
 9004      000000
 9005 3cb0 4889C2   		movq	%rax, %rdx
 9006 3cb3 4889CE   		movq	%rcx, %rsi
 9007 3cb6 488D0500 		leaq	adderConv_testGetHexLowerNibble(%rip), %rax
 9007      000000
 9008 3cbd 4889C7   		movq	%rax, %rdi
 9009 3cc0 E8000000 		call	_ZN8UnitTest9ListAdderC1ERNS_8TestListEPNS_4TestE@PLT
 9009      00
 9010              	.L496:
 9011              		.loc 3 147 1
 9012 3cc5 90       		nop
 9013 3cc6 C9       		leave
 9014              		.cfi_def_cfa 7, 8
 9015 3cc7 C3       		ret
 9016              		.cfi_endproc
 9017              	.LFE1266:
 9020              	_GLOBAL__sub_I_testConv_testGetHexNibbleInstance:
 9021              	.LFB1267:
 9022              		.loc 3 147 1
 9023              		.cfi_startproc
 9024 3cc8 F30F1EFA 		endbr64
 9025 3ccc 55       		pushq	%rbp
 9026              		.cfi_def_cfa_offset 16
 9027              		.cfi_offset 6, -16
 9028 3ccd 4889E5   		movq	%rsp, %rbp
 9029              		.cfi_def_cfa_register 6
 9030              		.loc 3 147 1
 9031 3cd0 BEFFFF00 		movl	$65535, %esi
 9031      00
 9032 3cd5 BF010000 		movl	$1, %edi
 9032      00
 9033 3cda E865FEFF 		call	_Z41__static_initialization_and_destruction_0ii
 9033      FF
 9034 3cdf 5D       		popq	%rbp
 9035              		.cfi_def_cfa 7, 8
 9036 3ce0 C3       		ret
 9037              		.cfi_endproc
 9038              	.LFE1267:
 9040              		.section	.init_array,"aw"
 9041              		.align 8
 9042 0000 00000000 		.quad	_GLOBAL__sub_I_testConv_testGetHexNibbleInstance
 9042      00000000 
 9043              		.text
 9044              	.Letext0:
 9045              		.file 5 "/home/pong/FPGALink/makestuff/libs/libutpp/TestDetails.h"
 9046              		.file 6 "/home/pong/FPGALink/makestuff/libs/libutpp/TestList.h"
 9047              		.file 7 "/home/pong/FPGALink/makestuff/libs/libutpp/Test.h"
 9048              		.file 8 "/home/pong/FPGALink/makestuff/libs/libutpp/TestResults.h"
 9049              		.file 9 "/home/pong/FPGALink/makestuff/libs/libutpp/CurrentTest.h"
 9050              		.file 10 "<built-in>"
 9051              		.file 11 "/usr/lib/gcc/x86_64-linux-gnu/11/include/stddef.h"
 9052              		.file 12 "/usr/include/x86_64-linux-gnu/bits/types/wint_t.h"
 9053              		.file 13 "/usr/include/x86_64-linux-gnu/bits/types/__mbstate_t.h"
 9054              		.file 14 "/usr/include/x86_64-linux-gnu/bits/types/mbstate_t.h"
 9055              		.file 15 "/usr/include/x86_64-linux-gnu/bits/types/__FILE.h"
 9056              		.file 16 "/usr/include/c++/11/cwchar"
 9057              		.file 17 "/usr/include/c++/11/bits/char_traits.h"
 9058              		.file 18 "/usr/include/x86_64-linux-gnu/c++/11/bits/c++config.h"
 9059              		.file 19 "/usr/include/c++/11/clocale"
 9060              		.file 20 "/usr/include/c++/11/bits/allocator.h"
 9061              		.file 21 "/usr/include/c++/11/bits/basic_string.h"
 9062              		.file 22 "/usr/include/c++/11/bits/basic_string.tcc"
 9063              		.file 23 "/usr/include/c++/11/sstream"
 9064              		.file 24 "/usr/include/c++/11/bits/stringfwd.h"
 9065              		.file 25 "/usr/include/c++/11/cwctype"
 9066              		.file 26 "/usr/include/c++/11/bits/ostream.tcc"
 9067              		.file 27 "/usr/include/c++/11/ostream"
 9068              		.file 28 "/usr/include/c++/11/bits/basic_ios.h"
 9069              		.file 29 "/usr/include/wchar.h"
 9070              		.file 30 "/usr/include/x86_64-linux-gnu/bits/types/struct_tm.h"
 9071              		.file 31 "/usr/include/c++/11/debug/debug.h"
 9072              		.file 32 "/usr/include/c++/11/bits/predefined_ops.h"
 9073              		.file 33 "/usr/include/c++/11/ext/new_allocator.h"
 9074              		.file 34 "/usr/include/c++/11/ext/alloc_traits.h"
 9075              		.file 35 "/usr/include/locale.h"
 9076              		.file 36 "/usr/include/x86_64-linux-gnu/bits/types.h"
 9077              		.file 37 "/usr/include/x86_64-linux-gnu/bits/wctype-wchar.h"
 9078              		.file 38 "/usr/include/wctype.h"
 9079              		.file 39 "/home/pong/FPGALink/makestuff/common/makestuff.h"
 9080              		.file 40 "../conv.h"
 9081              		.file 41 "/usr/include/c++/11/new"
 19639              		.align 8
 19642              	DW.ref.__gxx_personality_v0:
 19643 0000 00000000 		.quad	__gxx_personality_v0
 19643      00000000 
 19644              		.hidden	__dso_handle
 19645              		.ident	"GCC: (Ubuntu 11.3.0-1ubuntu1~22.04) 11.3.0"
 19646              		.section	.note.GNU-stack,"",@progbits
 19647              		.section	.note.gnu.property,"a"
 19648              		.align 8
 19649 0000 04000000 		.long	1f - 0f
 19650 0004 10000000 		.long	4f - 1f
 19651 0008 05000000 		.long	5
 19652              	0:
 19653 000c 474E5500 		.string	"GNU"
 19654              	1:
 19655              		.align 8
 19656 0010 020000C0 		.long	0xc0000002
 19657 0014 04000000 		.long	3f - 2f
 19658              	2:
 19659 0018 03000000 		.long	0x3
 19660              	3:
 19661 001c 00000000 		.align 8
 19662              	4:
DEFINED SYMBOLS
                            *ABS*:0000000000000000 testConv.cpp
     /tmp/cc8Wiwqk.s:11     .text._ZN13UnitTestSuite12GetSuiteNameEv:0000000000000000 _ZN13UnitTestSuite12GetSuiteNameEv
     /tmp/cc8Wiwqk.s:35     .text._ZN8UnitTest15MemoryOutStreamC1Ev:0000000000000000 _ZN8UnitTest15MemoryOutStreamC1Ev
     /tmp/cc8Wiwqk.s:19642  .data.rel.local.DW.ref.__gxx_personality_v0:0000000000000000 DW.ref.__gxx_personality_v0
     /tmp/cc8Wiwqk.s:8792   .data.rel.ro.local._ZTTN8UnitTest15MemoryOutStreamE:0000000000000000 _ZTTN8UnitTest15MemoryOutStreamE
     /tmp/cc8Wiwqk.s:8776   .data.rel.ro.local._ZTVN8UnitTest15MemoryOutStreamE:0000000000000000 _ZTVN8UnitTest15MemoryOutStreamE
     /tmp/cc8Wiwqk.s:153    .text._ZN25TestConv_testGetHexNibbleC2Ev:0000000000000000 _ZN25TestConv_testGetHexNibbleC2Ev
     /tmp/cc8Wiwqk.s:8663   .data.rel.ro.local._ZTV25TestConv_testGetHexNibble:0000000000000000 _ZTV25TestConv_testGetHexNibble
     /tmp/cc8Wiwqk.s:153    .text._ZN25TestConv_testGetHexNibbleC2Ev:0000000000000000 _ZN25TestConv_testGetHexNibbleC1Ev
     /tmp/cc8Wiwqk.s:199    .bss:0000000000000000 testConv_testGetHexNibbleInstance
     /tmp/cc8Wiwqk.s:204    .bss:0000000000000038 adderConv_testGetHexNibble
     /tmp/cc8Wiwqk.s:265    .text:0000000000000000 _ZNK25TestConv_testGetHexNibble7RunImplEv
     /tmp/cc8Wiwqk.s:7876   .text._ZN8UnitTest10CheckEqualIbbEEvRNS_11TestResultsERKT_RKT0_RKNS_11TestDetailsE:0000000000000000 _ZN8UnitTest10CheckEqualIbbEEvRNS_11TestResultsERKT_RKT0_RKNS_11TestDetailsE
     /tmp/cc8Wiwqk.s:8027   .text._ZN8UnitTest10CheckEqualIihEEvRNS_11TestResultsERKT_RKT0_RKNS_11TestDetailsE:0000000000000000 _ZN8UnitTest10CheckEqualIihEEvRNS_11TestResultsERKT_RKT0_RKNS_11TestDetailsE
     /tmp/cc8Wiwqk.s:4000   .text._ZN23TestConv_testGetHexByteC2Ev:0000000000000000 _ZN23TestConv_testGetHexByteC2Ev
     /tmp/cc8Wiwqk.s:8550   .data.rel.ro.local._ZTV23TestConv_testGetHexByte:0000000000000000 _ZTV23TestConv_testGetHexByte
     /tmp/cc8Wiwqk.s:4000   .text._ZN23TestConv_testGetHexByteC2Ev:0000000000000000 _ZN23TestConv_testGetHexByteC1Ev
     /tmp/cc8Wiwqk.s:4045   .bss:0000000000000040 testConv_testGetHexByteInstance
     /tmp/cc8Wiwqk.s:4050   .bss:0000000000000078 adderConv_testGetHexByte
     /tmp/cc8Wiwqk.s:4076   .text:0000000000001ef2 _ZNK23TestConv_testGetHexByte7RunImplEv
     /tmp/cc8Wiwqk.s:4807   .text._ZN30TestConv_testGetHexUpperNibbleC2Ev:0000000000000000 _ZN30TestConv_testGetHexUpperNibbleC2Ev
     /tmp/cc8Wiwqk.s:8437   .data.rel.ro.local._ZTV30TestConv_testGetHexUpperNibble:0000000000000000 _ZTV30TestConv_testGetHexUpperNibble
     /tmp/cc8Wiwqk.s:4807   .text._ZN30TestConv_testGetHexUpperNibbleC2Ev:0000000000000000 _ZN30TestConv_testGetHexUpperNibbleC1Ev
     /tmp/cc8Wiwqk.s:4852   .bss:0000000000000080 testConv_testGetHexUpperNibbleInstance
     /tmp/cc8Wiwqk.s:4857   .bss:00000000000000b8 adderConv_testGetHexUpperNibble
     /tmp/cc8Wiwqk.s:4912   .text:00000000000024cc _ZNK30TestConv_testGetHexUpperNibble7RunImplEv
     /tmp/cc8Wiwqk.s:8175   .text._ZN8UnitTest10CheckEqualIccEEvRNS_11TestResultsERKT_RKT0_RKNS_11TestDetailsE:0000000000000000 _ZN8UnitTest10CheckEqualIccEEvRNS_11TestResultsERKT_RKT0_RKNS_11TestDetailsE
     /tmp/cc8Wiwqk.s:6237   .text._ZN30TestConv_testGetHexLowerNibbleC2Ev:0000000000000000 _ZN30TestConv_testGetHexLowerNibbleC2Ev
     /tmp/cc8Wiwqk.s:8324   .data.rel.ro.local._ZTV30TestConv_testGetHexLowerNibble:0000000000000000 _ZTV30TestConv_testGetHexLowerNibble
     /tmp/cc8Wiwqk.s:6237   .text._ZN30TestConv_testGetHexLowerNibbleC2Ev:0000000000000000 _ZN30TestConv_testGetHexLowerNibbleC1Ev
     /tmp/cc8Wiwqk.s:6282   .bss:00000000000000c0 testConv_testGetHexLowerNibbleInstance
     /tmp/cc8Wiwqk.s:6287   .bss:00000000000000f8 adderConv_testGetHexLowerNibble
     /tmp/cc8Wiwqk.s:6342   .text:0000000000003008 _ZNK30TestConv_testGetHexLowerNibble7RunImplEv
     /tmp/cc8Wiwqk.s:7664   .text._ZN8UnitTest15MemoryOutStreamD1Ev:0000000000000000 _ZN8UnitTest15MemoryOutStreamD1Ev
     /tmp/cc8Wiwqk.s:7775   .text._ZN8UnitTest15MemoryOutStreamD1Ev:00000000000000b6 _ZTv0_n24_N8UnitTest15MemoryOutStreamD1Ev
     /tmp/cc8Wiwqk.s:7790   .text._ZN8UnitTest15MemoryOutStreamD0Ev:0000000000000000 _ZN8UnitTest15MemoryOutStreamD0Ev
     /tmp/cc8Wiwqk.s:7857   .text._ZN8UnitTest15MemoryOutStreamD0Ev:000000000000004f _ZTv0_n24_N8UnitTest15MemoryOutStreamD0Ev
     /tmp/cc8Wiwqk.s:8838   .data.rel.ro._ZTI30TestConv_testGetHexLowerNibble:0000000000000000 _ZTI30TestConv_testGetHexLowerNibble
     /tmp/cc8Wiwqk.s:8334   .text._ZN30TestConv_testGetHexLowerNibbleD2Ev:0000000000000000 _ZN30TestConv_testGetHexLowerNibbleD1Ev
     /tmp/cc8Wiwqk.s:8368   .text._ZN30TestConv_testGetHexLowerNibbleD0Ev:0000000000000000 _ZN30TestConv_testGetHexLowerNibbleD0Ev
     /tmp/cc8Wiwqk.s:8334   .text._ZN30TestConv_testGetHexLowerNibbleD2Ev:0000000000000000 _ZN30TestConv_testGetHexLowerNibbleD2Ev
     /tmp/cc8Wiwqk.s:8854   .data.rel.ro._ZTI30TestConv_testGetHexUpperNibble:0000000000000000 _ZTI30TestConv_testGetHexUpperNibble
     /tmp/cc8Wiwqk.s:8447   .text._ZN30TestConv_testGetHexUpperNibbleD2Ev:0000000000000000 _ZN30TestConv_testGetHexUpperNibbleD1Ev
     /tmp/cc8Wiwqk.s:8481   .text._ZN30TestConv_testGetHexUpperNibbleD0Ev:0000000000000000 _ZN30TestConv_testGetHexUpperNibbleD0Ev
     /tmp/cc8Wiwqk.s:8447   .text._ZN30TestConv_testGetHexUpperNibbleD2Ev:0000000000000000 _ZN30TestConv_testGetHexUpperNibbleD2Ev
     /tmp/cc8Wiwqk.s:8870   .data.rel.ro._ZTI23TestConv_testGetHexByte:0000000000000000 _ZTI23TestConv_testGetHexByte
     /tmp/cc8Wiwqk.s:8560   .text._ZN23TestConv_testGetHexByteD2Ev:0000000000000000 _ZN23TestConv_testGetHexByteD1Ev
     /tmp/cc8Wiwqk.s:8594   .text._ZN23TestConv_testGetHexByteD0Ev:0000000000000000 _ZN23TestConv_testGetHexByteD0Ev
     /tmp/cc8Wiwqk.s:8560   .text._ZN23TestConv_testGetHexByteD2Ev:0000000000000000 _ZN23TestConv_testGetHexByteD2Ev
     /tmp/cc8Wiwqk.s:8886   .data.rel.ro._ZTI25TestConv_testGetHexNibble:0000000000000000 _ZTI25TestConv_testGetHexNibble
     /tmp/cc8Wiwqk.s:8673   .text._ZN25TestConv_testGetHexNibbleD2Ev:0000000000000000 _ZN25TestConv_testGetHexNibbleD1Ev
     /tmp/cc8Wiwqk.s:8707   .text._ZN25TestConv_testGetHexNibbleD0Ev:0000000000000000 _ZN25TestConv_testGetHexNibbleD0Ev
     /tmp/cc8Wiwqk.s:8673   .text._ZN25TestConv_testGetHexNibbleD2Ev:0000000000000000 _ZN25TestConv_testGetHexNibbleD2Ev
     /tmp/cc8Wiwqk.s:8902   .data.rel.ro._ZTIN8UnitTest15MemoryOutStreamE:0000000000000000 _ZTIN8UnitTest15MemoryOutStreamE
     /tmp/cc8Wiwqk.s:8805   .data.rel.ro._ZTCN8UnitTest15MemoryOutStreamE0_NSt7__cxx1119basic_ostringstreamIcSt11char_traitsIcESaIcEEE:0000000000000000 _ZTCN8UnitTest15MemoryOutStreamE0_NSt7__cxx1119basic_ostringstreamIcSt11char_traitsIcESaIcEEE
     /tmp/cc8Wiwqk.s:8822   .data.rel.ro._ZTCN8UnitTest15MemoryOutStreamE0_So:0000000000000000 _ZTCN8UnitTest15MemoryOutStreamE0_So
     /tmp/cc8Wiwqk.s:8847   .rodata._ZTS30TestConv_testGetHexLowerNibble:0000000000000000 _ZTS30TestConv_testGetHexLowerNibble
     /tmp/cc8Wiwqk.s:8863   .rodata._ZTS30TestConv_testGetHexUpperNibble:0000000000000000 _ZTS30TestConv_testGetHexUpperNibble
     /tmp/cc8Wiwqk.s:8879   .rodata._ZTS23TestConv_testGetHexByte:0000000000000000 _ZTS23TestConv_testGetHexByte
     /tmp/cc8Wiwqk.s:8895   .rodata._ZTS25TestConv_testGetHexNibble:0000000000000000 _ZTS25TestConv_testGetHexNibble
     /tmp/cc8Wiwqk.s:8911   .rodata._ZTSN8UnitTest15MemoryOutStreamE:0000000000000000 _ZTSN8UnitTest15MemoryOutStreamE
     /tmp/cc8Wiwqk.s:8915   .text:0000000000003b44 _Z41__static_initialization_and_destruction_0ii
     /tmp/cc8Wiwqk.s:9020   .text:0000000000003cc8 _GLOBAL__sub_I_testConv_testGetHexNibbleInstance
                           .group:0000000000000000 _ZN25TestConv_testGetHexNibbleC5Ev
                           .group:0000000000000000 _ZN23TestConv_testGetHexByteC5Ev
                           .group:0000000000000000 _ZN30TestConv_testGetHexUpperNibbleC5Ev
                           .group:0000000000000000 _ZN30TestConv_testGetHexLowerNibbleC5Ev
                           .group:0000000000000000 _ZN30TestConv_testGetHexLowerNibbleD5Ev
                           .group:0000000000000000 _ZN30TestConv_testGetHexUpperNibbleD5Ev
                           .group:0000000000000000 _ZN23TestConv_testGetHexByteD5Ev
                           .group:0000000000000000 _ZN25TestConv_testGetHexNibbleD5Ev

UNDEFINED SYMBOLS
_ZNSt9basic_iosIcSt11char_traitsIcEEC2Ev
_ZNSt7__cxx1119basic_ostringstreamIcSt11char_traitsIcESaIcEEC2Ev
_ZNSt7__cxx1112basic_stringIcSt11char_traitsIcESaIcEEC1Ev
_ZNSt7__cxx1119basic_ostringstreamIcSt11char_traitsIcESaIcEED2Ev
_ZNSt9basic_iosIcSt11char_traitsIcEED2Ev
_Unwind_Resume
__gxx_personality_v0
_ZN8UnitTest4TestC2EPKcS2_S2_i
getHexNibble
_ZN8UnitTest11CurrentTest7DetailsEv
_ZN8UnitTest11TestDetailsC1ERKS0_i
_ZN8UnitTest11CurrentTest7ResultsEv
__cxa_begin_catch
_ZN8UnitTest11TestResults13OnTestFailureERKNS_11TestDetailsEPKc
__cxa_end_catch
__stack_chk_fail
getHexByte
getHexUpperNibble
getHexLowerNibble
_ZNSt7__cxx1112basic_stringIcSt11char_traitsIcESaIcEED1Ev
_ZdlPv
_ZStlsISt11char_traitsIcEERSt13basic_ostreamIcT_ES5_PKc
_ZNSolsEb
_ZNK8UnitTest15MemoryOutStream7GetTextEv
_ZNSolsEi
_ZStlsISt11char_traitsIcEERSt13basic_ostreamIcT_ES5_h
_ZStlsISt11char_traitsIcEERSt13basic_ostreamIcT_ES5_c
_ZN8UnitTest4TestD2Ev
_ZTINSt7__cxx1119basic_ostringstreamIcSt11char_traitsIcESaIcEEE
_ZTISo
_ZTVN10__cxxabiv120__si_class_type_infoE
_ZTIN8UnitTest4TestE
__dso_handle
__cxa_atexit
_ZN8UnitTest4Test11GetTestListEv
_ZN8UnitTest9ListAdderC1ERNS_8TestListEPNS_4TestE
