   1              		.file	"testHexIO.cpp"
   2              		.text
   3              	.Ltext0:
   4              		.file 0 "/home/pong/FPGALink/makestuff/libs/libbuffer/tests" "testHexIO.cpp"
   5              		.section	.text._ZStorSt13_Ios_OpenmodeS_,"axG",@progbits,_ZStorSt13_Ios_OpenmodeS_,comdat
   6              		.weak	_ZStorSt13_Ios_OpenmodeS_
   8              	_ZStorSt13_Ios_OpenmodeS_:
   9              	.LFB707:
  10              		.file 1 "/usr/include/c++/11/bits/ios_base.h"
   1:/usr/include/c++/11/bits/ios_base.h **** // Iostreams base classes -*- C++ -*-
   2:/usr/include/c++/11/bits/ios_base.h **** 
   3:/usr/include/c++/11/bits/ios_base.h **** // Copyright (C) 1997-2021 Free Software Foundation, Inc.
   4:/usr/include/c++/11/bits/ios_base.h **** //
   5:/usr/include/c++/11/bits/ios_base.h **** // This file is part of the GNU ISO C++ Library.  This library is free
   6:/usr/include/c++/11/bits/ios_base.h **** // software; you can redistribute it and/or modify it under the
   7:/usr/include/c++/11/bits/ios_base.h **** // terms of the GNU General Public License as published by the
   8:/usr/include/c++/11/bits/ios_base.h **** // Free Software Foundation; either version 3, or (at your option)
   9:/usr/include/c++/11/bits/ios_base.h **** // any later version.
  10:/usr/include/c++/11/bits/ios_base.h **** 
  11:/usr/include/c++/11/bits/ios_base.h **** // This library is distributed in the hope that it will be useful,
  12:/usr/include/c++/11/bits/ios_base.h **** // but WITHOUT ANY WARRANTY; without even the implied warranty of
  13:/usr/include/c++/11/bits/ios_base.h **** // MERCHANTABILITY or FITNESS FOR A PARTICULAR PURPOSE.  See the
  14:/usr/include/c++/11/bits/ios_base.h **** // GNU General Public License for more details.
  15:/usr/include/c++/11/bits/ios_base.h **** 
  16:/usr/include/c++/11/bits/ios_base.h **** // Under Section 7 of GPL version 3, you are granted additional
  17:/usr/include/c++/11/bits/ios_base.h **** // permissions described in the GCC Runtime Library Exception, version
  18:/usr/include/c++/11/bits/ios_base.h **** // 3.1, as published by the Free Software Foundation.
  19:/usr/include/c++/11/bits/ios_base.h **** 
  20:/usr/include/c++/11/bits/ios_base.h **** // You should have received a copy of the GNU General Public License and
  21:/usr/include/c++/11/bits/ios_base.h **** // a copy of the GCC Runtime Library Exception along with this program;
  22:/usr/include/c++/11/bits/ios_base.h **** // see the files COPYING3 and COPYING.RUNTIME respectively.  If not, see
  23:/usr/include/c++/11/bits/ios_base.h **** // <http://www.gnu.org/licenses/>.
  24:/usr/include/c++/11/bits/ios_base.h **** 
  25:/usr/include/c++/11/bits/ios_base.h **** /** @file bits/ios_base.h
  26:/usr/include/c++/11/bits/ios_base.h ****  *  This is an internal header file, included by other library headers.
  27:/usr/include/c++/11/bits/ios_base.h ****  *  Do not attempt to use it directly. @headername{ios}
  28:/usr/include/c++/11/bits/ios_base.h ****  */
  29:/usr/include/c++/11/bits/ios_base.h **** 
  30:/usr/include/c++/11/bits/ios_base.h **** //
  31:/usr/include/c++/11/bits/ios_base.h **** // ISO C++ 14882: 27.4  Iostreams base classes
  32:/usr/include/c++/11/bits/ios_base.h **** //
  33:/usr/include/c++/11/bits/ios_base.h **** 
  34:/usr/include/c++/11/bits/ios_base.h **** #ifndef _IOS_BASE_H
  35:/usr/include/c++/11/bits/ios_base.h **** #define _IOS_BASE_H 1
  36:/usr/include/c++/11/bits/ios_base.h **** 
  37:/usr/include/c++/11/bits/ios_base.h **** #pragma GCC system_header
  38:/usr/include/c++/11/bits/ios_base.h **** 
  39:/usr/include/c++/11/bits/ios_base.h **** #include <ext/atomicity.h>
  40:/usr/include/c++/11/bits/ios_base.h **** #include <bits/localefwd.h>
  41:/usr/include/c++/11/bits/ios_base.h **** #include <bits/locale_classes.h>
  42:/usr/include/c++/11/bits/ios_base.h **** 
  43:/usr/include/c++/11/bits/ios_base.h **** #if __cplusplus < 201103L
  44:/usr/include/c++/11/bits/ios_base.h **** # include <stdexcept>
  45:/usr/include/c++/11/bits/ios_base.h **** #else
  46:/usr/include/c++/11/bits/ios_base.h **** # include <system_error>
  47:/usr/include/c++/11/bits/ios_base.h **** #endif
  48:/usr/include/c++/11/bits/ios_base.h **** 
  49:/usr/include/c++/11/bits/ios_base.h **** namespace std _GLIBCXX_VISIBILITY(default)
  50:/usr/include/c++/11/bits/ios_base.h **** {
  51:/usr/include/c++/11/bits/ios_base.h **** _GLIBCXX_BEGIN_NAMESPACE_VERSION
  52:/usr/include/c++/11/bits/ios_base.h **** 
  53:/usr/include/c++/11/bits/ios_base.h ****   // The following definitions of bitmask types are enums, not ints,
  54:/usr/include/c++/11/bits/ios_base.h ****   // as permitted (but not required) in the standard, in order to provide
  55:/usr/include/c++/11/bits/ios_base.h ****   // better type safety in iostream calls.  A side effect is that in C++98
  56:/usr/include/c++/11/bits/ios_base.h ****   // expressions involving them are not compile-time constants.
  57:/usr/include/c++/11/bits/ios_base.h ****   enum _Ios_Fmtflags 
  58:/usr/include/c++/11/bits/ios_base.h ****     { 
  59:/usr/include/c++/11/bits/ios_base.h ****       _S_boolalpha 	= 1L << 0,
  60:/usr/include/c++/11/bits/ios_base.h ****       _S_dec 		= 1L << 1,
  61:/usr/include/c++/11/bits/ios_base.h ****       _S_fixed 		= 1L << 2,
  62:/usr/include/c++/11/bits/ios_base.h ****       _S_hex 		= 1L << 3,
  63:/usr/include/c++/11/bits/ios_base.h ****       _S_internal 	= 1L << 4,
  64:/usr/include/c++/11/bits/ios_base.h ****       _S_left 		= 1L << 5,
  65:/usr/include/c++/11/bits/ios_base.h ****       _S_oct 		= 1L << 6,
  66:/usr/include/c++/11/bits/ios_base.h ****       _S_right 		= 1L << 7,
  67:/usr/include/c++/11/bits/ios_base.h ****       _S_scientific 	= 1L << 8,
  68:/usr/include/c++/11/bits/ios_base.h ****       _S_showbase 	= 1L << 9,
  69:/usr/include/c++/11/bits/ios_base.h ****       _S_showpoint 	= 1L << 10,
  70:/usr/include/c++/11/bits/ios_base.h ****       _S_showpos 	= 1L << 11,
  71:/usr/include/c++/11/bits/ios_base.h ****       _S_skipws 	= 1L << 12,
  72:/usr/include/c++/11/bits/ios_base.h ****       _S_unitbuf 	= 1L << 13,
  73:/usr/include/c++/11/bits/ios_base.h ****       _S_uppercase 	= 1L << 14,
  74:/usr/include/c++/11/bits/ios_base.h ****       _S_adjustfield 	= _S_left | _S_right | _S_internal,
  75:/usr/include/c++/11/bits/ios_base.h ****       _S_basefield 	= _S_dec | _S_oct | _S_hex,
  76:/usr/include/c++/11/bits/ios_base.h ****       _S_floatfield 	= _S_scientific | _S_fixed,
  77:/usr/include/c++/11/bits/ios_base.h ****       _S_ios_fmtflags_end = 1L << 16,
  78:/usr/include/c++/11/bits/ios_base.h ****       _S_ios_fmtflags_max = __INT_MAX__,
  79:/usr/include/c++/11/bits/ios_base.h ****       _S_ios_fmtflags_min = ~__INT_MAX__
  80:/usr/include/c++/11/bits/ios_base.h ****     };
  81:/usr/include/c++/11/bits/ios_base.h **** 
  82:/usr/include/c++/11/bits/ios_base.h ****   inline _GLIBCXX_CONSTEXPR _Ios_Fmtflags
  83:/usr/include/c++/11/bits/ios_base.h ****   operator&(_Ios_Fmtflags __a, _Ios_Fmtflags __b)
  84:/usr/include/c++/11/bits/ios_base.h ****   { return _Ios_Fmtflags(static_cast<int>(__a) & static_cast<int>(__b)); }
  85:/usr/include/c++/11/bits/ios_base.h **** 
  86:/usr/include/c++/11/bits/ios_base.h ****   inline _GLIBCXX_CONSTEXPR _Ios_Fmtflags
  87:/usr/include/c++/11/bits/ios_base.h ****   operator|(_Ios_Fmtflags __a, _Ios_Fmtflags __b)
  88:/usr/include/c++/11/bits/ios_base.h ****   { return _Ios_Fmtflags(static_cast<int>(__a) | static_cast<int>(__b)); }
  89:/usr/include/c++/11/bits/ios_base.h **** 
  90:/usr/include/c++/11/bits/ios_base.h ****   inline _GLIBCXX_CONSTEXPR _Ios_Fmtflags
  91:/usr/include/c++/11/bits/ios_base.h ****   operator^(_Ios_Fmtflags __a, _Ios_Fmtflags __b)
  92:/usr/include/c++/11/bits/ios_base.h ****   { return _Ios_Fmtflags(static_cast<int>(__a) ^ static_cast<int>(__b)); }
  93:/usr/include/c++/11/bits/ios_base.h **** 
  94:/usr/include/c++/11/bits/ios_base.h ****   inline _GLIBCXX_CONSTEXPR _Ios_Fmtflags
  95:/usr/include/c++/11/bits/ios_base.h ****   operator~(_Ios_Fmtflags __a)
  96:/usr/include/c++/11/bits/ios_base.h ****   { return _Ios_Fmtflags(~static_cast<int>(__a)); }
  97:/usr/include/c++/11/bits/ios_base.h **** 
  98:/usr/include/c++/11/bits/ios_base.h ****   inline const _Ios_Fmtflags&
  99:/usr/include/c++/11/bits/ios_base.h ****   operator|=(_Ios_Fmtflags& __a, _Ios_Fmtflags __b)
 100:/usr/include/c++/11/bits/ios_base.h ****   { return __a = __a | __b; }
 101:/usr/include/c++/11/bits/ios_base.h **** 
 102:/usr/include/c++/11/bits/ios_base.h ****   inline const _Ios_Fmtflags&
 103:/usr/include/c++/11/bits/ios_base.h ****   operator&=(_Ios_Fmtflags& __a, _Ios_Fmtflags __b)
 104:/usr/include/c++/11/bits/ios_base.h ****   { return __a = __a & __b; }
 105:/usr/include/c++/11/bits/ios_base.h **** 
 106:/usr/include/c++/11/bits/ios_base.h ****   inline const _Ios_Fmtflags&
 107:/usr/include/c++/11/bits/ios_base.h ****   operator^=(_Ios_Fmtflags& __a, _Ios_Fmtflags __b)
 108:/usr/include/c++/11/bits/ios_base.h ****   { return __a = __a ^ __b; }
 109:/usr/include/c++/11/bits/ios_base.h **** 
 110:/usr/include/c++/11/bits/ios_base.h **** 
 111:/usr/include/c++/11/bits/ios_base.h ****   enum _Ios_Openmode 
 112:/usr/include/c++/11/bits/ios_base.h ****     { 
 113:/usr/include/c++/11/bits/ios_base.h ****       _S_app 		= 1L << 0,
 114:/usr/include/c++/11/bits/ios_base.h ****       _S_ate 		= 1L << 1,
 115:/usr/include/c++/11/bits/ios_base.h ****       _S_bin 		= 1L << 2,
 116:/usr/include/c++/11/bits/ios_base.h ****       _S_in 		= 1L << 3,
 117:/usr/include/c++/11/bits/ios_base.h ****       _S_out 		= 1L << 4,
 118:/usr/include/c++/11/bits/ios_base.h ****       _S_trunc 		= 1L << 5,
 119:/usr/include/c++/11/bits/ios_base.h ****       _S_ios_openmode_end = 1L << 16,
 120:/usr/include/c++/11/bits/ios_base.h ****       _S_ios_openmode_max = __INT_MAX__,
 121:/usr/include/c++/11/bits/ios_base.h ****       _S_ios_openmode_min = ~__INT_MAX__
 122:/usr/include/c++/11/bits/ios_base.h ****     };
 123:/usr/include/c++/11/bits/ios_base.h **** 
 124:/usr/include/c++/11/bits/ios_base.h ****   inline _GLIBCXX_CONSTEXPR _Ios_Openmode
 125:/usr/include/c++/11/bits/ios_base.h ****   operator&(_Ios_Openmode __a, _Ios_Openmode __b)
 126:/usr/include/c++/11/bits/ios_base.h ****   { return _Ios_Openmode(static_cast<int>(__a) & static_cast<int>(__b)); }
 127:/usr/include/c++/11/bits/ios_base.h **** 
 128:/usr/include/c++/11/bits/ios_base.h ****   inline _GLIBCXX_CONSTEXPR _Ios_Openmode
 129:/usr/include/c++/11/bits/ios_base.h ****   operator|(_Ios_Openmode __a, _Ios_Openmode __b)
 130:/usr/include/c++/11/bits/ios_base.h ****   { return _Ios_Openmode(static_cast<int>(__a) | static_cast<int>(__b)); }
  11              		.loc 1 130 3
  12              		.cfi_startproc
  13 0000 F30F1EFA 		endbr64
  14 0004 55       		pushq	%rbp
  15              		.cfi_def_cfa_offset 16
  16              		.cfi_offset 6, -16
  17 0005 4889E5   		movq	%rsp, %rbp
  18              		.cfi_def_cfa_register 6
  19 0008 897DFC   		movl	%edi, -4(%rbp)
  20 000b 8975F8   		movl	%esi, -8(%rbp)
  21              		.loc 1 130 71
  22 000e 8B45FC   		movl	-4(%rbp), %eax
  23 0011 0B45F8   		orl	-8(%rbp), %eax
  24              		.loc 1 130 74
  25 0014 5D       		popq	%rbp
  26              		.cfi_def_cfa 7, 8
  27 0015 C3       		ret
  28              		.cfi_endproc
  29              	.LFE707:
  31              		.section	.rodata
  32              	.LC0:
  33 0000 44656661 		.string	"DefaultSuite"
  33      756C7453 
  33      75697465 
  33      00
  34              		.section	.text._ZN13UnitTestSuite12GetSuiteNameEv,"axG",@progbits,_ZN13UnitTestSuite12GetSuiteName
  35              		.weak	_ZN13UnitTestSuite12GetSuiteNameEv
  37              	_ZN13UnitTestSuite12GetSuiteNameEv:
  38              	.LFB1152:
  39              		.file 2 "/home/pong/FPGALink/makestuff/libs/libutpp/TestSuite.h"
   1:/home/pong/FPGALink/makestuff/libs/libutpp/TestSuite.h **** #ifndef UNITTEST_TESTSUITE_H
   2:/home/pong/FPGALink/makestuff/libs/libutpp/TestSuite.h **** #define UNITTEST_TESTSUITE_H
   3:/home/pong/FPGALink/makestuff/libs/libutpp/TestSuite.h **** 
   4:/home/pong/FPGALink/makestuff/libs/libutpp/TestSuite.h **** namespace UnitTestSuite {
   5:/home/pong/FPGALink/makestuff/libs/libutpp/TestSuite.h **** 
   6:/home/pong/FPGALink/makestuff/libs/libutpp/TestSuite.h ****     inline char const* GetSuiteName ()
   7:/home/pong/FPGALink/makestuff/libs/libutpp/TestSuite.h ****     {
  40              		.loc 2 7 5
  41              		.cfi_startproc
  42 0000 F30F1EFA 		endbr64
  43 0004 55       		pushq	%rbp
  44              		.cfi_def_cfa_offset 16
  45              		.cfi_offset 6, -16
  46 0005 4889E5   		movq	%rsp, %rbp
  47              		.cfi_def_cfa_register 6
   8:/home/pong/FPGALink/makestuff/libs/libutpp/TestSuite.h ****         return "DefaultSuite";
  48              		.loc 2 8 16
  49 0008 488D0500 		leaq	.LC0(%rip), %rax
  49      000000
   9:/home/pong/FPGALink/makestuff/libs/libutpp/TestSuite.h ****     }
  50              		.loc 2 9 5
  51 000f 5D       		popq	%rbp
  52              		.cfi_def_cfa 7, 8
  53 0010 C3       		ret
  54              		.cfi_endproc
  55              	.LFE1152:
  57              		.section	.text._ZN8UnitTest15MemoryOutStreamC1Ev,"axG",@progbits,_ZN8UnitTest15MemoryOutStreamC1Ev
  58              		.align 2
  59              		.weak	_ZN8UnitTest15MemoryOutStreamC1Ev
  61              	_ZN8UnitTest15MemoryOutStreamC1Ev:
  62              	.LFB1193:
  63              		.file 3 "/home/pong/FPGALink/makestuff/libs/libutpp/MemoryOutStream.h"
   1:/home/pong/FPGALink/makestuff/libs/libutpp/MemoryOutStream.h **** #ifndef UNITTEST_MEMORYOUTSTREAM_H
   2:/home/pong/FPGALink/makestuff/libs/libutpp/MemoryOutStream.h **** #define UNITTEST_MEMORYOUTSTREAM_H
   3:/home/pong/FPGALink/makestuff/libs/libutpp/MemoryOutStream.h **** 
   4:/home/pong/FPGALink/makestuff/libs/libutpp/MemoryOutStream.h **** #include "Config.h"
   5:/home/pong/FPGALink/makestuff/libs/libutpp/MemoryOutStream.h **** 
   6:/home/pong/FPGALink/makestuff/libs/libutpp/MemoryOutStream.h **** #ifndef UNITTEST_USE_CUSTOM_STREAMS
   7:/home/pong/FPGALink/makestuff/libs/libutpp/MemoryOutStream.h **** 
   8:/home/pong/FPGALink/makestuff/libs/libutpp/MemoryOutStream.h **** #include <sstream>
   9:/home/pong/FPGALink/makestuff/libs/libutpp/MemoryOutStream.h **** 
  10:/home/pong/FPGALink/makestuff/libs/libutpp/MemoryOutStream.h **** namespace UnitTest
  11:/home/pong/FPGALink/makestuff/libs/libutpp/MemoryOutStream.h **** {
  12:/home/pong/FPGALink/makestuff/libs/libutpp/MemoryOutStream.h **** 
  13:/home/pong/FPGALink/makestuff/libs/libutpp/MemoryOutStream.h **** class MemoryOutStream : public std::ostringstream
  14:/home/pong/FPGALink/makestuff/libs/libutpp/MemoryOutStream.h **** {
  15:/home/pong/FPGALink/makestuff/libs/libutpp/MemoryOutStream.h **** public:
  16:/home/pong/FPGALink/makestuff/libs/libutpp/MemoryOutStream.h ****     MemoryOutStream() {}
  64              		.loc 3 16 5
  65              		.cfi_startproc
  66              		.cfi_personality 0x9b,DW.ref.__gxx_personality_v0
  67              		.cfi_lsda 0x1b,.LLSDA1193
  68 0000 F30F1EFA 		endbr64
  69 0004 55       		pushq	%rbp
  70              		.cfi_def_cfa_offset 16
  71              		.cfi_offset 6, -16
  72 0005 4889E5   		movq	%rsp, %rbp
  73              		.cfi_def_cfa_register 6
  74 0008 53       		pushq	%rbx
  75 0009 4883EC18 		subq	$24, %rsp
  76              		.cfi_offset 3, -24
  77 000d 48897DE8 		movq	%rdi, -24(%rbp)
  78              	.LBB2:
  79              		.loc 3 16 23
  80 0011 488B45E8 		movq	-24(%rbp), %rax
  81 0015 48059000 		addq	$144, %rax
  81      0000
  82 001b 4889C7   		movq	%rax, %rdi
  83              	.LEHB0:
  84 001e E8000000 		call	_ZNSt9basic_iosIcSt11char_traitsIcEEC2Ev@PLT
  84      00
  85              	.LEHE0:
  86 0023 488B45E8 		movq	-24(%rbp), %rax
  87 0027 488D1500 		leaq	8+_ZTTN8UnitTest15MemoryOutStreamE(%rip), %rdx
  87      000000
  88 002e 4889D6   		movq	%rdx, %rsi
  89 0031 4889C7   		movq	%rax, %rdi
  90              	.LEHB1:
  91 0034 E8000000 		call	_ZNSt7__cxx1119basic_ostringstreamIcSt11char_traitsIcESaIcEEC2Ev@PLT
  91      00
  92              	.LEHE1:
  93              		.loc 3 16 23 is_stmt 0 discriminator 2
  94 0039 488D1500 		leaq	24+_ZTVN8UnitTest15MemoryOutStreamE(%rip), %rdx
  94      000000
  95 0040 488B45E8 		movq	-24(%rbp), %rax
  96 0044 488910   		movq	%rdx, (%rax)
  97 0047 488B45E8 		movq	-24(%rbp), %rax
  98 004b 48059000 		addq	$144, %rax
  98      0000
  99 0051 488D1500 		leaq	64+_ZTVN8UnitTest15MemoryOutStreamE(%rip), %rdx
  99      000000
 100 0058 488910   		movq	%rdx, (%rax)
 101 005b 488B45E8 		movq	-24(%rbp), %rax
 102 005f 4883C070 		addq	$112, %rax
 103 0063 4889C7   		movq	%rax, %rdi
 104              	.LEHB2:
 105 0066 E8000000 		call	_ZNSt7__cxx1112basic_stringIcSt11char_traitsIcESaIcEEC1Ev@PLT
 105      00
 106              	.LEHE2:
 107              	.LBE2:
 108              		.loc 3 16 24 is_stmt 1
 109 006b EB43     		jmp	.L10
 110              	.L9:
 111 006d F30F1EFA 		endbr64
 112              	.LBB3:
 113 0071 4889C3   		movq	%rax, %rbx
 114 0074 488B45E8 		movq	-24(%rbp), %rax
 115 0078 488D1500 		leaq	8+_ZTTN8UnitTest15MemoryOutStreamE(%rip), %rdx
 115      000000
 116 007f 4889D6   		movq	%rdx, %rsi
 117 0082 4889C7   		movq	%rax, %rdi
 118 0085 E8000000 		call	_ZNSt7__cxx1119basic_ostringstreamIcSt11char_traitsIcESaIcEED2Ev@PLT
 118      00
 119 008a EB07     		jmp	.L7
 120              	.L8:
 121 008c F30F1EFA 		endbr64
 122 0090 4889C3   		movq	%rax, %rbx
 123              	.L7:
 124              		.loc 3 16 24 is_stmt 0 discriminator 1
 125 0093 488B45E8 		movq	-24(%rbp), %rax
 126 0097 48059000 		addq	$144, %rax
 126      0000
 127 009d 4889C7   		movq	%rax, %rdi
 128 00a0 E8000000 		call	_ZNSt9basic_iosIcSt11char_traitsIcEED2Ev@PLT
 128      00
 129 00a5 4889D8   		movq	%rbx, %rax
 130 00a8 4889C7   		movq	%rax, %rdi
 131              	.LEHB3:
 132 00ab E8000000 		call	_Unwind_Resume@PLT
 132      00
 133              	.LEHE3:
 134              	.L10:
 135              	.LBE3:
 136              		.loc 3 16 24
 137 00b0 488B5DF8 		movq	-8(%rbp), %rbx
 138 00b4 C9       		leave
 139              		.cfi_def_cfa 7, 8
 140 00b5 C3       		ret
 141              		.cfi_endproc
 142              	.LFE1193:
 143              		.globl	__gxx_personality_v0
 144              		.section	.gcc_except_table._ZN8UnitTest15MemoryOutStreamC1Ev,"aG",@progbits,_ZN8UnitTest15MemoryOu
 145              	.LLSDA1193:
 146 0000 FF       		.byte	0xff
 147 0001 FF       		.byte	0xff
 148 0002 01       		.byte	0x1
 149 0003 12       		.uleb128 .LLSDACSE1193-.LLSDACSB1193
 150              	.LLSDACSB1193:
 151 0004 1E       		.uleb128 .LEHB0-.LFB1193
 152 0005 05       		.uleb128 .LEHE0-.LEHB0
 153 0006 00       		.uleb128 0
 154 0007 00       		.uleb128 0
 155 0008 34       		.uleb128 .LEHB1-.LFB1193
 156 0009 05       		.uleb128 .LEHE1-.LEHB1
 157 000a 8C01     		.uleb128 .L8-.LFB1193
 158 000c 00       		.uleb128 0
 159 000d 66       		.uleb128 .LEHB2-.LFB1193
 160 000e 05       		.uleb128 .LEHE2-.LEHB2
 161 000f 6D       		.uleb128 .L9-.LFB1193
 162 0010 00       		.uleb128 0
 163 0011 AB01     		.uleb128 .LEHB3-.LFB1193
 164 0013 05       		.uleb128 .LEHE3-.LEHB3
 165 0014 00       		.uleb128 0
 166 0015 00       		.uleb128 0
 167              	.LLSDACSE1193:
 168              		.section	.text._ZN8UnitTest15MemoryOutStreamC1Ev,"axG",@progbits,_ZN8UnitTest15MemoryOutStreamC1Ev
 170              		.section	.rodata
 171              	.LC1:
 172 000d 74657374 		.string	"testHexIO.cpp"
 172      48657849 
 172      4F2E6370 
 172      7000
 173              	.LC2:
 174 001b 48657849 		.string	"HexIO_testValidDataLine"
 174      4F5F7465 
 174      73745661 
 174      6C696444 
 174      6174614C 
 175              		.section	.text._ZN27TestHexIO_testValidDataLineC2Ev,"axG",@progbits,_ZN27TestHexIO_testValidDataLi
 176              		.align 2
 177              		.weak	_ZN27TestHexIO_testValidDataLineC2Ev
 179              	_ZN27TestHexIO_testValidDataLineC2Ev:
 180              	.LFB1210:
 181              		.file 4 "testHexIO.cpp"
   1:testHexIO.cpp **** /*
   2:testHexIO.cpp ****  * Copyright (C) 2009-2012 Chris McClelland
   3:testHexIO.cpp ****  *
   4:testHexIO.cpp ****  * This program is free software: you can redistribute it and/or modify
   5:testHexIO.cpp ****  * it under the terms of the GNU Lesser General Public License as published by
   6:testHexIO.cpp ****  * the Free Software Foundation, either version 3 of the License, or
   7:testHexIO.cpp ****  * (at your option) any later version.
   8:testHexIO.cpp ****  *
   9:testHexIO.cpp ****  * This program is distributed in the hope that it will be useful,
  10:testHexIO.cpp ****  * but WITHOUT ANY WARRANTY; without even the implied warranty of
  11:testHexIO.cpp ****  * MERCHANTABILITY or FITNESS FOR A PARTICULAR PURPOSE.  See the
  12:testHexIO.cpp ****  * GNU Lesser General Public License for more details.
  13:testHexIO.cpp ****  *
  14:testHexIO.cpp ****  * You should have received a copy of the GNU Lesser General Public License
  15:testHexIO.cpp ****  * along with this program.  If not, see <http://www.gnu.org/licenses/>.
  16:testHexIO.cpp ****  */
  17:testHexIO.cpp **** #include <cstdarg>
  18:testHexIO.cpp **** #include <string>
  19:testHexIO.cpp **** #include <fstream>
  20:testHexIO.cpp **** #include <cstring>
  21:testHexIO.cpp **** #include <UnitTest++.h>
  22:testHexIO.cpp **** #include "../private.h"
  23:testHexIO.cpp **** #include "../libbuffer.h"
  24:testHexIO.cpp **** 
  25:testHexIO.cpp **** using namespace std;
  26:testHexIO.cpp **** 
  27:testHexIO.cpp **** TEST(HexIO_testValidDataLine) {
 182              		.loc 4 27 1 is_stmt 1
 183              		.cfi_startproc
 184 0000 F30F1EFA 		endbr64
 185 0004 55       		pushq	%rbp
 186              		.cfi_def_cfa_offset 16
 187              		.cfi_offset 6, -16
 188 0005 4889E5   		movq	%rsp, %rbp
 189              		.cfi_def_cfa_register 6
 190 0008 53       		pushq	%rbx
 191 0009 4883EC18 		subq	$24, %rsp
 192              		.cfi_offset 3, -24
 193 000d 48897DE8 		movq	%rdi, -24(%rbp)
 194              	.LBB4:
 195              		.loc 4 27 1
 196 0011 488B5DE8 		movq	-24(%rbp), %rbx
 197 0015 E8000000 		call	_ZN13UnitTestSuite12GetSuiteNameEv
 197      00
 198 001a 4889C2   		movq	%rax, %rdx
 199 001d 41B81B00 		movl	$27, %r8d
 199      0000
 200 0023 488D0500 		leaq	.LC1(%rip), %rax
 200      000000
 201 002a 4889C1   		movq	%rax, %rcx
 202 002d 488D0500 		leaq	.LC2(%rip), %rax
 202      000000
 203 0034 4889C6   		movq	%rax, %rsi
 204 0037 4889DF   		movq	%rbx, %rdi
 205 003a E8000000 		call	_ZN8UnitTest4TestC2EPKcS2_S2_i@PLT
 205      00
 206 003f 488D1500 		leaq	16+_ZTV27TestHexIO_testValidDataLine(%rip), %rdx
 206      000000
 207 0046 488B45E8 		movq	-24(%rbp), %rax
 208 004a 488910   		movq	%rdx, (%rax)
 209              	.LBE4:
 210 004d 90       		nop
 211 004e 488B5DF8 		movq	-8(%rbp), %rbx
 212 0052 C9       		leave
 213              		.cfi_def_cfa 7, 8
 214 0053 C3       		ret
 215              		.cfi_endproc
 216              	.LFE1210:
 218              		.weak	_ZN27TestHexIO_testValidDataLineC1Ev
 219              		.set	_ZN27TestHexIO_testValidDataLineC1Ev,_ZN27TestHexIO_testValidDataLineC2Ev
 220              		.globl	testHexIO_testValidDataLineInstance
 221              		.bss
 222              		.align 32
 225              	testHexIO_testValidDataLineInstance:
 226 0000 00000000 		.zero	56
 226      00000000 
 226      00000000 
 226      00000000 
 226      00000000 
 227              		.globl	adderHexIO_testValidDataLine
 230              	adderHexIO_testValidDataLine:
 231 0038 00       		.zero	1
 232              		.section	.rodata
 233              	.LC3:
 234 0033 3A303430 		.string	":040BE10075820022F7\n"
 234      42453130 
 234      30373538 
 234      32303032 
 234      3246370A 
 235              		.align 8
 236              	.LC4:
 237 0048 556E6861 		.string	"Unhandled exception in CHECK_EQUAL(BUF_SUCCESS, status)"
 237      6E646C65 
 237      64206578 
 237      63657074 
 237      696F6E20 
 238              		.align 8
 239              	.LC5:
 240 0080 556E6861 		.string	"Unhandled exception in CHECK_EQUAL(0x00, recordType)"
 240      6E646C65 
 240      64206578 
 240      63657074 
 240      696F6E20 
 241 00b5 000000   		.align 8
 242              	.LC6:
 243 00b8 556E6861 		.string	"Unhandled exception in CHECK_EQUAL(0x0BE1+4UL, data.length)"
 243      6E646C65 
 243      64206578 
 243      63657074 
 243      696F6E20 
 244 00f4 00000000 		.align 8
 245              	.LC7:
 246 00f8 556E6861 		.string	"Unhandled exception in CHECK_EQUAL(0x0BE1+4UL, mask.length)"
 246      6E646C65 
 246      64206578 
 246      63657074 
 246      696F6E20 
 247 0134 00000000 		.align 8
 248              	.LC8:
 249 0138 556E6861 		.string	"Unhandled exception in CHECK_EQUAL(4096UL, data.capacity)"
 249      6E646C65 
 249      64206578 
 249      63657074 
 249      696F6E20 
 250 0172 00000000 		.align 8
 250      0000
 251              	.LC9:
 252 0178 556E6861 		.string	"Unhandled exception in CHECK_EQUAL(4096UL, mask.capacity)"
 252      6E646C65 
 252      64206578 
 252      63657074 
 252      696F6E20 
 253 01b2 00000000 		.align 8
 253      0000
 254              	.LC10:
 255 01b8 556E6861 		.string	"Unhandled exception in CHECK_ARRAY_EQUAL(expected, data.data + 0x0BE1)"
 255      6E646C65 
 255      64206578 
 255      63657074 
 255      696F6E20 
 256              		.text
 257              		.align 2
 258              		.globl	_ZNK27TestHexIO_testValidDataLine7RunImplEv
 260              	_ZNK27TestHexIO_testValidDataLine7RunImplEv:
 261              	.LFB1212:
 262              		.loc 4 27 31
 263              		.cfi_startproc
 264              		.cfi_personality 0x9b,DW.ref.__gxx_personality_v0
 265              		.cfi_lsda 0x1b,.LLSDA1212
 266 0000 F30F1EFA 		endbr64
 267 0004 55       		pushq	%rbp
 268              		.cfi_def_cfa_offset 16
 269              		.cfi_offset 6, -16
 270 0005 4889E5   		movq	%rsp, %rbp
 271              		.cfi_def_cfa_register 6
 272 0008 53       		pushq	%rbx
 273 0009 4881ECA8 		subq	$168, %rsp
 273      000000
 274              		.cfi_offset 3, -24
 275 0010 4889BD58 		movq	%rdi, -168(%rbp)
 275      FFFFFF
 276              		.loc 4 27 31
 277 0017 64488B04 		movq	%fs:40, %rax
 277      25280000 
 277      00
 278 0020 488945E8 		movq	%rax, -24(%rbp)
 279 0024 31C0     		xorl	%eax, %eax
  28:testHexIO.cpp **** 	Buffer data, mask;
  29:testHexIO.cpp **** 	BufferStatus status;
  30:testHexIO.cpp **** 	const char *line = ":040BE10075820022F7\n";
 280              		.loc 4 30 14
 281 0026 488D0500 		leaq	.LC3(%rip), %rax
 281      000000
 282 002d 48898578 		movq	%rax, -136(%rbp)
 282      FFFFFF
  31:testHexIO.cpp **** 	uint8 recordType;
  32:testHexIO.cpp **** 	uint32 seg = 0x00000000;
 283              		.loc 4 32 9
 284 0034 C7856CFF 		movl	$0, -148(%rbp)
 284      FFFF0000 
 284      0000
  33:testHexIO.cpp **** 	const uint8 expected[] = {0x75, 0x82, 0x00, 0x22};
 285              		.loc 4 33 14
 286 003e C745E475 		movl	$570458741, -28(%rbp)
 286      820022
  34:testHexIO.cpp **** 	status = bufInitialise(&data, 1024, 0x00, NULL);
 287              		.loc 4 34 24
 288 0045 488D4580 		leaq	-128(%rbp), %rax
 289 0049 B9000000 		movl	$0, %ecx
 289      00
 290 004e BA000000 		movl	$0, %edx
 290      00
 291 0053 BE000400 		movl	$1024, %esi
 291      00
 292 0058 4889C7   		movq	%rax, %rdi
 293              	.LEHB4:
 294 005b E8000000 		call	bufInitialise@PLT
 294      00
 295              	.LEHE4:
 296              		.loc 4 34 9
 297 0060 898568FF 		movl	%eax, -152(%rbp)
 297      FFFF
 298              	.LEHB5:
  35:testHexIO.cpp **** 	CHECK_EQUAL(BUF_SUCCESS, status);
 299              		.loc 4 35 2
 300 0066 E8000000 		call	_ZN8UnitTest11CurrentTest7DetailsEv@PLT
 300      00
 301 006b 488B08   		movq	(%rax), %rcx
 302 006e 488D45C0 		leaq	-64(%rbp), %rax
 303 0072 BA230000 		movl	$35, %edx
 303      00
 304 0077 4889CE   		movq	%rcx, %rsi
 305 007a 4889C7   		movq	%rax, %rdi
 306 007d E8000000 		call	_ZN8UnitTest11TestDetailsC1ERKS0_i@PLT
 306      00
 307              		.loc 4 35 2 is_stmt 0 discriminator 4
 308 0082 C745A000 		movl	$0, -96(%rbp)
 308      000000
 309 0089 E8000000 		call	_ZN8UnitTest11CurrentTest7ResultsEv@PLT
 309      00
 310 008e 488B00   		movq	(%rax), %rax
 311 0091 488D4DC0 		leaq	-64(%rbp), %rcx
 312 0095 488D9568 		leaq	-152(%rbp), %rdx
 312      FFFFFF
 313 009c 488D75A0 		leaq	-96(%rbp), %rsi
 314 00a0 4889C7   		movq	%rax, %rdi
 315 00a3 E8000000 		call	_ZN8UnitTest10CheckEqualI12BufferStatusS1_EEvRNS_11TestResultsERKT_RKT0_RKNS_11TestDetailsE
 315      00
 316              	.LEHE5:
 317              	.L14:
  36:testHexIO.cpp **** 	status = bufInitialise(&mask, 1024, 0x00, NULL);
 318              		.loc 4 36 24 is_stmt 1
 319 00a8 488D45A0 		leaq	-96(%rbp), %rax
 320 00ac B9000000 		movl	$0, %ecx
 320      00
 321 00b1 BA000000 		movl	$0, %edx
 321      00
 322 00b6 BE000400 		movl	$1024, %esi
 322      00
 323 00bb 4889C7   		movq	%rax, %rdi
 324              	.LEHB6:
 325 00be E8000000 		call	bufInitialise@PLT
 325      00
 326              	.LEHE6:
 327              		.loc 4 36 9
 328 00c3 898568FF 		movl	%eax, -152(%rbp)
 328      FFFF
 329              	.LEHB7:
  37:testHexIO.cpp **** 	CHECK_EQUAL(BUF_SUCCESS, status);
 330              		.loc 4 37 2
 331 00c9 E8000000 		call	_ZN8UnitTest11CurrentTest7DetailsEv@PLT
 331      00
 332 00ce 488B08   		movq	(%rax), %rcx
 333 00d1 488D45C0 		leaq	-64(%rbp), %rax
 334 00d5 BA250000 		movl	$37, %edx
 334      00
 335 00da 4889CE   		movq	%rcx, %rsi
 336 00dd 4889C7   		movq	%rax, %rdi
 337 00e0 E8000000 		call	_ZN8UnitTest11TestDetailsC1ERKS0_i@PLT
 337      00
 338              		.loc 4 37 2 is_stmt 0 discriminator 4
 339 00e5 C78570FF 		movl	$0, -144(%rbp)
 339      FFFF0000 
 339      0000
 340 00ef E8000000 		call	_ZN8UnitTest11CurrentTest7ResultsEv@PLT
 340      00
 341 00f4 488B00   		movq	(%rax), %rax
 342 00f7 488D4DC0 		leaq	-64(%rbp), %rcx
 343 00fb 488D9568 		leaq	-152(%rbp), %rdx
 343      FFFFFF
 344 0102 488DB570 		leaq	-144(%rbp), %rsi
 344      FFFFFF
 345 0109 4889C7   		movq	%rax, %rdi
 346 010c E8000000 		call	_ZN8UnitTest10CheckEqualI12BufferStatusS1_EEvRNS_11TestResultsERKT_RKT0_RKNS_11TestDetailsE
 346      00
 347              	.LEHE7:
 348              	.L17:
  38:testHexIO.cpp **** 	status = bufProcessLine(line, 0, &data, &mask, &seg, &recordType, NULL);
 349              		.loc 4 38 25 is_stmt 1
 350 0111 488DBD67 		leaq	-153(%rbp), %rdi
 350      FFFFFF
 351 0118 488DB56C 		leaq	-148(%rbp), %rsi
 351      FFFFFF
 352 011f 488D4DA0 		leaq	-96(%rbp), %rcx
 353 0123 488D5580 		leaq	-128(%rbp), %rdx
 354 0127 488B8578 		movq	-136(%rbp), %rax
 354      FFFFFF
 355 012e 4883EC08 		subq	$8, %rsp
 356 0132 6A00     		pushq	$0
 357 0134 4989F9   		movq	%rdi, %r9
 358 0137 4989F0   		movq	%rsi, %r8
 359 013a BE000000 		movl	$0, %esi
 359      00
 360 013f 4889C7   		movq	%rax, %rdi
 361              	.LEHB8:
 362 0142 E8000000 		call	bufProcessLine@PLT
 362      00
 363              	.LEHE8:
 364 0147 4883C410 		addq	$16, %rsp
 365              		.loc 4 38 9
 366 014b 898568FF 		movl	%eax, -152(%rbp)
 366      FFFF
 367              	.LEHB9:
  39:testHexIO.cpp **** 	CHECK_EQUAL(BUF_SUCCESS, status);
 368              		.loc 4 39 2
 369 0151 E8000000 		call	_ZN8UnitTest11CurrentTest7DetailsEv@PLT
 369      00
 370 0156 488B08   		movq	(%rax), %rcx
 371 0159 488D45C0 		leaq	-64(%rbp), %rax
 372 015d BA270000 		movl	$39, %edx
 372      00
 373 0162 4889CE   		movq	%rcx, %rsi
 374 0165 4889C7   		movq	%rax, %rdi
 375 0168 E8000000 		call	_ZN8UnitTest11TestDetailsC1ERKS0_i@PLT
 375      00
 376              		.loc 4 39 2 is_stmt 0 discriminator 4
 377 016d C78570FF 		movl	$0, -144(%rbp)
 377      FFFF0000 
 377      0000
 378 0177 E8000000 		call	_ZN8UnitTest11CurrentTest7ResultsEv@PLT
 378      00
 379 017c 488B00   		movq	(%rax), %rax
 380 017f 488D4DC0 		leaq	-64(%rbp), %rcx
 381 0183 488D9568 		leaq	-152(%rbp), %rdx
 381      FFFFFF
 382 018a 488DB570 		leaq	-144(%rbp), %rsi
 382      FFFFFF
 383 0191 4889C7   		movq	%rax, %rdi
 384 0194 E8000000 		call	_ZN8UnitTest10CheckEqualI12BufferStatusS1_EEvRNS_11TestResultsERKT_RKT0_RKNS_11TestDetailsE
 384      00
 385              	.LEHE9:
 386              	.L20:
 387              	.LEHB10:
  40:testHexIO.cpp **** 	CHECK_EQUAL(0x00, recordType);
 388              		.loc 4 40 2 is_stmt 1
 389 0199 E8000000 		call	_ZN8UnitTest11CurrentTest7DetailsEv@PLT
 389      00
 390 019e 488B08   		movq	(%rax), %rcx
 391 01a1 488D45C0 		leaq	-64(%rbp), %rax
 392 01a5 BA280000 		movl	$40, %edx
 392      00
 393 01aa 4889CE   		movq	%rcx, %rsi
 394 01ad 4889C7   		movq	%rax, %rdi
 395 01b0 E8000000 		call	_ZN8UnitTest11TestDetailsC1ERKS0_i@PLT
 395      00
 396              		.loc 4 40 2 is_stmt 0 discriminator 4
 397 01b5 C78570FF 		movl	$0, -144(%rbp)
 397      FFFF0000 
 397      0000
 398 01bf E8000000 		call	_ZN8UnitTest11CurrentTest7ResultsEv@PLT
 398      00
 399 01c4 488B00   		movq	(%rax), %rax
 400 01c7 488D4DC0 		leaq	-64(%rbp), %rcx
 401 01cb 488D9567 		leaq	-153(%rbp), %rdx
 401      FFFFFF
 402 01d2 488DB570 		leaq	-144(%rbp), %rsi
 402      FFFFFF
 403 01d9 4889C7   		movq	%rax, %rdi
 404 01dc E8000000 		call	_ZN8UnitTest10CheckEqualIihEEvRNS_11TestResultsERKT_RKT0_RKNS_11TestDetailsE
 404      00
 405              	.LEHE10:
 406              	.L23:
 407              	.LEHB11:
  41:testHexIO.cpp **** 	CHECK_EQUAL(0x0BE1+4UL, data.length);
 408              		.loc 4 41 2 is_stmt 1
 409 01e1 E8000000 		call	_ZN8UnitTest11CurrentTest7DetailsEv@PLT
 409      00
 410 01e6 488B08   		movq	(%rax), %rcx
 411 01e9 488D45C0 		leaq	-64(%rbp), %rax
 412 01ed BA290000 		movl	$41, %edx
 412      00
 413 01f2 4889CE   		movq	%rcx, %rsi
 414 01f5 4889C7   		movq	%rax, %rdi
 415 01f8 E8000000 		call	_ZN8UnitTest11TestDetailsC1ERKS0_i@PLT
 415      00
 416              		.loc 4 41 2 is_stmt 0 discriminator 4
 417 01fd 48C78570 		movq	$3045, -144(%rbp)
 417      FFFFFFE5 
 417      0B0000
 418 0208 E8000000 		call	_ZN8UnitTest11CurrentTest7ResultsEv@PLT
 418      00
 419 020d 488B00   		movq	(%rax), %rax
 420 0210 488D55C0 		leaq	-64(%rbp), %rdx
 421 0214 488D4D80 		leaq	-128(%rbp), %rcx
 422 0218 488D7908 		leaq	8(%rcx), %rdi
 423 021c 488DB570 		leaq	-144(%rbp), %rsi
 423      FFFFFF
 424 0223 4889D1   		movq	%rdx, %rcx
 425 0226 4889FA   		movq	%rdi, %rdx
 426 0229 4889C7   		movq	%rax, %rdi
 427 022c E8000000 		call	_ZN8UnitTest10CheckEqualImmEEvRNS_11TestResultsERKT_RKT0_RKNS_11TestDetailsE
 427      00
 428              	.LEHE11:
 429              	.L26:
 430              	.LEHB12:
  42:testHexIO.cpp **** 	CHECK_EQUAL(0x0BE1+4UL, mask.length);
 431              		.loc 4 42 2 is_stmt 1
 432 0231 E8000000 		call	_ZN8UnitTest11CurrentTest7DetailsEv@PLT
 432      00
 433 0236 488B08   		movq	(%rax), %rcx
 434 0239 488D45C0 		leaq	-64(%rbp), %rax
 435 023d BA2A0000 		movl	$42, %edx
 435      00
 436 0242 4889CE   		movq	%rcx, %rsi
 437 0245 4889C7   		movq	%rax, %rdi
 438 0248 E8000000 		call	_ZN8UnitTest11TestDetailsC1ERKS0_i@PLT
 438      00
 439              		.loc 4 42 2 is_stmt 0 discriminator 4
 440 024d 48C78570 		movq	$3045, -144(%rbp)
 440      FFFFFFE5 
 440      0B0000
 441 0258 E8000000 		call	_ZN8UnitTest11CurrentTest7ResultsEv@PLT
 441      00
 442 025d 488B00   		movq	(%rax), %rax
 443 0260 488D55C0 		leaq	-64(%rbp), %rdx
 444 0264 488D4DA0 		leaq	-96(%rbp), %rcx
 445 0268 488D7908 		leaq	8(%rcx), %rdi
 446 026c 488DB570 		leaq	-144(%rbp), %rsi
 446      FFFFFF
 447 0273 4889D1   		movq	%rdx, %rcx
 448 0276 4889FA   		movq	%rdi, %rdx
 449 0279 4889C7   		movq	%rax, %rdi
 450 027c E8000000 		call	_ZN8UnitTest10CheckEqualImmEEvRNS_11TestResultsERKT_RKT0_RKNS_11TestDetailsE
 450      00
 451              	.LEHE12:
 452              	.L29:
 453              	.LEHB13:
  43:testHexIO.cpp **** 	CHECK_EQUAL(4096UL, data.capacity);
 454              		.loc 4 43 2 is_stmt 1
 455 0281 E8000000 		call	_ZN8UnitTest11CurrentTest7DetailsEv@PLT
 455      00
 456 0286 488B08   		movq	(%rax), %rcx
 457 0289 488D45C0 		leaq	-64(%rbp), %rax
 458 028d BA2B0000 		movl	$43, %edx
 458      00
 459 0292 4889CE   		movq	%rcx, %rsi
 460 0295 4889C7   		movq	%rax, %rdi
 461 0298 E8000000 		call	_ZN8UnitTest11TestDetailsC1ERKS0_i@PLT
 461      00
 462              		.loc 4 43 2 is_stmt 0 discriminator 4
 463 029d 48C78570 		movq	$4096, -144(%rbp)
 463      FFFFFF00 
 463      100000
 464 02a8 E8000000 		call	_ZN8UnitTest11CurrentTest7ResultsEv@PLT
 464      00
 465 02ad 488B00   		movq	(%rax), %rax
 466 02b0 488D55C0 		leaq	-64(%rbp), %rdx
 467 02b4 488D4D80 		leaq	-128(%rbp), %rcx
 468 02b8 488D7910 		leaq	16(%rcx), %rdi
 469 02bc 488DB570 		leaq	-144(%rbp), %rsi
 469      FFFFFF
 470 02c3 4889D1   		movq	%rdx, %rcx
 471 02c6 4889FA   		movq	%rdi, %rdx
 472 02c9 4889C7   		movq	%rax, %rdi
 473 02cc E8000000 		call	_ZN8UnitTest10CheckEqualImmEEvRNS_11TestResultsERKT_RKT0_RKNS_11TestDetailsE
 473      00
 474              	.LEHE13:
 475              	.L32:
 476              	.LEHB14:
  44:testHexIO.cpp **** 	CHECK_EQUAL(4096UL, mask.capacity);
 477              		.loc 4 44 2 is_stmt 1
 478 02d1 E8000000 		call	_ZN8UnitTest11CurrentTest7DetailsEv@PLT
 478      00
 479 02d6 488B08   		movq	(%rax), %rcx
 480 02d9 488D45C0 		leaq	-64(%rbp), %rax
 481 02dd BA2C0000 		movl	$44, %edx
 481      00
 482 02e2 4889CE   		movq	%rcx, %rsi
 483 02e5 4889C7   		movq	%rax, %rdi
 484 02e8 E8000000 		call	_ZN8UnitTest11TestDetailsC1ERKS0_i@PLT
 484      00
 485              		.loc 4 44 2 is_stmt 0 discriminator 4
 486 02ed 48C78570 		movq	$4096, -144(%rbp)
 486      FFFFFF00 
 486      100000
 487 02f8 E8000000 		call	_ZN8UnitTest11CurrentTest7ResultsEv@PLT
 487      00
 488 02fd 488B00   		movq	(%rax), %rax
 489 0300 488D55C0 		leaq	-64(%rbp), %rdx
 490 0304 488D4DA0 		leaq	-96(%rbp), %rcx
 491 0308 488D7910 		leaq	16(%rcx), %rdi
 492 030c 488DB570 		leaq	-144(%rbp), %rsi
 492      FFFFFF
 493 0313 4889D1   		movq	%rdx, %rcx
 494 0316 4889FA   		movq	%rdi, %rdx
 495 0319 4889C7   		movq	%rax, %rdi
 496 031c E8000000 		call	_ZN8UnitTest10CheckEqualImmEEvRNS_11TestResultsERKT_RKT0_RKNS_11TestDetailsE
 496      00
 497              	.LEHE14:
 498              	.L35:
 499              	.LEHB15:
  45:testHexIO.cpp **** 	CHECK_ARRAY_EQUAL(expected, data.data + 0x0BE1, 4);
 500              		.loc 4 45 2 is_stmt 1
 501 0321 E8000000 		call	_ZN8UnitTest11CurrentTest7DetailsEv@PLT
 501      00
 502 0326 488B08   		movq	(%rax), %rcx
 503 0329 488D45C0 		leaq	-64(%rbp), %rax
 504 032d BA2D0000 		movl	$45, %edx
 504      00
 505 0332 4889CE   		movq	%rcx, %rsi
 506 0335 4889C7   		movq	%rax, %rdi
 507 0338 E8000000 		call	_ZN8UnitTest11TestDetailsC1ERKS0_i@PLT
 507      00
 508              		.loc 4 45 2 is_stmt 0 discriminator 4
 509 033d 488B4580 		movq	-128(%rbp), %rax
 510 0341 4805E10B 		addq	$3041, %rax
 510      0000
 511 0347 48898570 		movq	%rax, -144(%rbp)
 511      FFFFFF
 512 034e E8000000 		call	_ZN8UnitTest11CurrentTest7ResultsEv@PLT
 512      00
 513 0353 488B00   		movq	(%rax), %rax
 514 0356 488D4DC0 		leaq	-64(%rbp), %rcx
 515 035a 488D9570 		leaq	-144(%rbp), %rdx
 515      FFFFFF
 516 0361 488D75E4 		leaq	-28(%rbp), %rsi
 517 0365 4989C8   		movq	%rcx, %r8
 518 0368 B9040000 		movl	$4, %ecx
 518      00
 519 036d 4889C7   		movq	%rax, %rdi
 520 0370 E8000000 		call	_ZN8UnitTest15CheckArrayEqualIA4_hPhEEvRNS_11TestResultsERKT_RKT0_iRKNS_11TestDetailsE
 520      00
 521              	.LEHE15:
 522              	.L38:
  46:testHexIO.cpp **** 	bufDestroy(&mask);
 523              		.loc 4 46 12 is_stmt 1
 524 0375 488D45A0 		leaq	-96(%rbp), %rax
 525 0379 4889C7   		movq	%rax, %rdi
 526              	.LEHB16:
 527 037c E8000000 		call	bufDestroy@PLT
 527      00
  47:testHexIO.cpp **** 	bufDestroy(&data);
 528              		.loc 4 47 12
 529 0381 488D4580 		leaq	-128(%rbp), %rax
 530 0385 4889C7   		movq	%rax, %rdi
 531 0388 E8000000 		call	bufDestroy@PLT
 531      00
 532              	.LEHE16:
  48:testHexIO.cpp **** }
 533              		.loc 4 48 1
 534 038d 90       		nop
 535 038e 488B45E8 		movq	-24(%rbp), %rax
 536 0392 64482B04 		subq	%fs:40, %rax
 536      25280000 
 536      00
 537 039b 0F84A903 		je	.L40
 537      0000
 538 03a1 E99F0300 		jmp	.L59
 538      00
 539              	.L41:
 540 03a6 F30F1EFA 		endbr64
  35:testHexIO.cpp **** 	status = bufInitialise(&mask, 1024, 0x00, NULL);
 541              		.loc 4 35 2
 542 03aa 4889C7   		movq	%rax, %rdi
 543 03ad E8000000 		call	__cxa_begin_catch@PLT
 543      00
 544              	.LEHB17:
 545 03b2 E8000000 		call	_ZN8UnitTest11CurrentTest7ResultsEv@PLT
 545      00
  35:testHexIO.cpp **** 	status = bufInitialise(&mask, 1024, 0x00, NULL);
 546              		.loc 4 35 2 is_stmt 0 discriminator 3
 547 03b7 488B18   		movq	(%rax), %rbx
 548 03ba E8000000 		call	_ZN8UnitTest11CurrentTest7DetailsEv@PLT
 548      00
  35:testHexIO.cpp **** 	status = bufInitialise(&mask, 1024, 0x00, NULL);
 549              		.loc 4 35 2 discriminator 11
 550 03bf 488B08   		movq	(%rax), %rcx
 551 03c2 488D45C0 		leaq	-64(%rbp), %rax
 552 03c6 BA230000 		movl	$35, %edx
 552      00
 553 03cb 4889CE   		movq	%rcx, %rsi
 554 03ce 4889C7   		movq	%rax, %rdi
 555 03d1 E8000000 		call	_ZN8UnitTest11TestDetailsC1ERKS0_i@PLT
 555      00
  35:testHexIO.cpp **** 	status = bufInitialise(&mask, 1024, 0x00, NULL);
 556              		.loc 4 35 2 discriminator 15
 557 03d6 488D45C0 		leaq	-64(%rbp), %rax
 558 03da 488D1500 		leaq	.LC4(%rip), %rdx
 558      000000
 559 03e1 4889C6   		movq	%rax, %rsi
 560 03e4 4889DF   		movq	%rbx, %rdi
 561 03e7 E8000000 		call	_ZN8UnitTest11TestResults13OnTestFailureERKNS_11TestDetailsEPKc@PLT
 561      00
 562              	.LEHE17:
 563              	.LEHB18:
  35:testHexIO.cpp **** 	status = bufInitialise(&mask, 1024, 0x00, NULL);
 564              		.loc 4 35 2 discriminator 17
 565 03ec E8000000 		call	__cxa_end_catch@PLT
 565      00
 566              	.LEHE18:
 567 03f1 E9B2FCFF 		jmp	.L14
 567      FF
 568              	.L42:
 569 03f6 F30F1EFA 		endbr64
  35:testHexIO.cpp **** 	status = bufInitialise(&mask, 1024, 0x00, NULL);
 570              		.loc 4 35 2
 571 03fa 4889C3   		movq	%rax, %rbx
 572 03fd E8000000 		call	__cxa_end_catch@PLT
 572      00
 573 0402 4889D8   		movq	%rbx, %rax
 574 0405 4889C7   		movq	%rax, %rdi
 575              	.LEHB19:
 576 0408 E8000000 		call	_Unwind_Resume@PLT
 576      00
 577              	.LEHE19:
 578              	.L43:
 579 040d F30F1EFA 		endbr64
  37:testHexIO.cpp **** 	status = bufProcessLine(line, 0, &data, &mask, &seg, &recordType, NULL);
 580              		.loc 4 37 2 is_stmt 1
 581 0411 4889C7   		movq	%rax, %rdi
 582 0414 E8000000 		call	__cxa_begin_catch@PLT
 582      00
 583              	.LEHB20:
 584 0419 E8000000 		call	_ZN8UnitTest11CurrentTest7ResultsEv@PLT
 584      00
  37:testHexIO.cpp **** 	status = bufProcessLine(line, 0, &data, &mask, &seg, &recordType, NULL);
 585              		.loc 4 37 2 is_stmt 0 discriminator 3
 586 041e 488B18   		movq	(%rax), %rbx
 587 0421 E8000000 		call	_ZN8UnitTest11CurrentTest7DetailsEv@PLT
 587      00
  37:testHexIO.cpp **** 	status = bufProcessLine(line, 0, &data, &mask, &seg, &recordType, NULL);
 588              		.loc 4 37 2 discriminator 11
 589 0426 488B08   		movq	(%rax), %rcx
 590 0429 488D45C0 		leaq	-64(%rbp), %rax
 591 042d BA250000 		movl	$37, %edx
 591      00
 592 0432 4889CE   		movq	%rcx, %rsi
 593 0435 4889C7   		movq	%rax, %rdi
 594 0438 E8000000 		call	_ZN8UnitTest11TestDetailsC1ERKS0_i@PLT
 594      00
  37:testHexIO.cpp **** 	status = bufProcessLine(line, 0, &data, &mask, &seg, &recordType, NULL);
 595              		.loc 4 37 2 discriminator 15
 596 043d 488D45C0 		leaq	-64(%rbp), %rax
 597 0441 488D1500 		leaq	.LC4(%rip), %rdx
 597      000000
 598 0448 4889C6   		movq	%rax, %rsi
 599 044b 4889DF   		movq	%rbx, %rdi
 600 044e E8000000 		call	_ZN8UnitTest11TestResults13OnTestFailureERKNS_11TestDetailsEPKc@PLT
 600      00
 601              	.LEHE20:
 602              	.LEHB21:
  37:testHexIO.cpp **** 	status = bufProcessLine(line, 0, &data, &mask, &seg, &recordType, NULL);
 603              		.loc 4 37 2 discriminator 17
 604 0453 E8000000 		call	__cxa_end_catch@PLT
 604      00
 605              	.LEHE21:
 606 0458 E9B4FCFF 		jmp	.L17
 606      FF
 607              	.L44:
 608 045d F30F1EFA 		endbr64
  37:testHexIO.cpp **** 	status = bufProcessLine(line, 0, &data, &mask, &seg, &recordType, NULL);
 609              		.loc 4 37 2
 610 0461 4889C3   		movq	%rax, %rbx
 611 0464 E8000000 		call	__cxa_end_catch@PLT
 611      00
 612 0469 4889D8   		movq	%rbx, %rax
 613 046c 4889C7   		movq	%rax, %rdi
 614              	.LEHB22:
 615 046f E8000000 		call	_Unwind_Resume@PLT
 615      00
 616              	.LEHE22:
 617              	.L45:
 618 0474 F30F1EFA 		endbr64
  39:testHexIO.cpp **** 	CHECK_EQUAL(0x00, recordType);
 619              		.loc 4 39 2 is_stmt 1
 620 0478 4889C7   		movq	%rax, %rdi
 621 047b E8000000 		call	__cxa_begin_catch@PLT
 621      00
 622              	.LEHB23:
 623 0480 E8000000 		call	_ZN8UnitTest11CurrentTest7ResultsEv@PLT
 623      00
  39:testHexIO.cpp **** 	CHECK_EQUAL(0x00, recordType);
 624              		.loc 4 39 2 is_stmt 0 discriminator 3
 625 0485 488B18   		movq	(%rax), %rbx
 626 0488 E8000000 		call	_ZN8UnitTest11CurrentTest7DetailsEv@PLT
 626      00
  39:testHexIO.cpp **** 	CHECK_EQUAL(0x00, recordType);
 627              		.loc 4 39 2 discriminator 11
 628 048d 488B08   		movq	(%rax), %rcx
 629 0490 488D45C0 		leaq	-64(%rbp), %rax
 630 0494 BA270000 		movl	$39, %edx
 630      00
 631 0499 4889CE   		movq	%rcx, %rsi
 632 049c 4889C7   		movq	%rax, %rdi
 633 049f E8000000 		call	_ZN8UnitTest11TestDetailsC1ERKS0_i@PLT
 633      00
  39:testHexIO.cpp **** 	CHECK_EQUAL(0x00, recordType);
 634              		.loc 4 39 2 discriminator 15
 635 04a4 488D45C0 		leaq	-64(%rbp), %rax
 636 04a8 488D1500 		leaq	.LC4(%rip), %rdx
 636      000000
 637 04af 4889C6   		movq	%rax, %rsi
 638 04b2 4889DF   		movq	%rbx, %rdi
 639 04b5 E8000000 		call	_ZN8UnitTest11TestResults13OnTestFailureERKNS_11TestDetailsEPKc@PLT
 639      00
 640              	.LEHE23:
 641              	.LEHB24:
  39:testHexIO.cpp **** 	CHECK_EQUAL(0x00, recordType);
 642              		.loc 4 39 2 discriminator 17
 643 04ba E8000000 		call	__cxa_end_catch@PLT
 643      00
 644              	.LEHE24:
 645 04bf E9D5FCFF 		jmp	.L20
 645      FF
 646              	.L46:
 647 04c4 F30F1EFA 		endbr64
  39:testHexIO.cpp **** 	CHECK_EQUAL(0x00, recordType);
 648              		.loc 4 39 2
 649 04c8 4889C3   		movq	%rax, %rbx
 650 04cb E8000000 		call	__cxa_end_catch@PLT
 650      00
 651 04d0 4889D8   		movq	%rbx, %rax
 652 04d3 4889C7   		movq	%rax, %rdi
 653              	.LEHB25:
 654 04d6 E8000000 		call	_Unwind_Resume@PLT
 654      00
 655              	.LEHE25:
 656              	.L47:
 657 04db F30F1EFA 		endbr64
  40:testHexIO.cpp **** 	CHECK_EQUAL(0x0BE1+4UL, data.length);
 658              		.loc 4 40 2 is_stmt 1
 659 04df 4889C7   		movq	%rax, %rdi
 660 04e2 E8000000 		call	__cxa_begin_catch@PLT
 660      00
 661              	.LEHB26:
 662 04e7 E8000000 		call	_ZN8UnitTest11CurrentTest7ResultsEv@PLT
 662      00
  40:testHexIO.cpp **** 	CHECK_EQUAL(0x0BE1+4UL, data.length);
 663              		.loc 4 40 2 is_stmt 0 discriminator 3
 664 04ec 488B18   		movq	(%rax), %rbx
 665 04ef E8000000 		call	_ZN8UnitTest11CurrentTest7DetailsEv@PLT
 665      00
  40:testHexIO.cpp **** 	CHECK_EQUAL(0x0BE1+4UL, data.length);
 666              		.loc 4 40 2 discriminator 11
 667 04f4 488B08   		movq	(%rax), %rcx
 668 04f7 488D45C0 		leaq	-64(%rbp), %rax
 669 04fb BA280000 		movl	$40, %edx
 669      00
 670 0500 4889CE   		movq	%rcx, %rsi
 671 0503 4889C7   		movq	%rax, %rdi
 672 0506 E8000000 		call	_ZN8UnitTest11TestDetailsC1ERKS0_i@PLT
 672      00
  40:testHexIO.cpp **** 	CHECK_EQUAL(0x0BE1+4UL, data.length);
 673              		.loc 4 40 2 discriminator 15
 674 050b 488D45C0 		leaq	-64(%rbp), %rax
 675 050f 488D1500 		leaq	.LC5(%rip), %rdx
 675      000000
 676 0516 4889C6   		movq	%rax, %rsi
 677 0519 4889DF   		movq	%rbx, %rdi
 678 051c E8000000 		call	_ZN8UnitTest11TestResults13OnTestFailureERKNS_11TestDetailsEPKc@PLT
 678      00
 679              	.LEHE26:
 680              	.LEHB27:
  40:testHexIO.cpp **** 	CHECK_EQUAL(0x0BE1+4UL, data.length);
 681              		.loc 4 40 2 discriminator 17
 682 0521 E8000000 		call	__cxa_end_catch@PLT
 682      00
 683              	.LEHE27:
 684 0526 E9B6FCFF 		jmp	.L23
 684      FF
 685              	.L48:
 686 052b F30F1EFA 		endbr64
  40:testHexIO.cpp **** 	CHECK_EQUAL(0x0BE1+4UL, data.length);
 687              		.loc 4 40 2
 688 052f 4889C3   		movq	%rax, %rbx
 689 0532 E8000000 		call	__cxa_end_catch@PLT
 689      00
 690 0537 4889D8   		movq	%rbx, %rax
 691 053a 4889C7   		movq	%rax, %rdi
 692              	.LEHB28:
 693 053d E8000000 		call	_Unwind_Resume@PLT
 693      00
 694              	.LEHE28:
 695              	.L49:
 696 0542 F30F1EFA 		endbr64
  41:testHexIO.cpp **** 	CHECK_EQUAL(0x0BE1+4UL, mask.length);
 697              		.loc 4 41 2 is_stmt 1
 698 0546 4889C7   		movq	%rax, %rdi
 699 0549 E8000000 		call	__cxa_begin_catch@PLT
 699      00
 700              	.LEHB29:
 701 054e E8000000 		call	_ZN8UnitTest11CurrentTest7ResultsEv@PLT
 701      00
  41:testHexIO.cpp **** 	CHECK_EQUAL(0x0BE1+4UL, mask.length);
 702              		.loc 4 41 2 is_stmt 0 discriminator 3
 703 0553 488B18   		movq	(%rax), %rbx
 704 0556 E8000000 		call	_ZN8UnitTest11CurrentTest7DetailsEv@PLT
 704      00
  41:testHexIO.cpp **** 	CHECK_EQUAL(0x0BE1+4UL, mask.length);
 705              		.loc 4 41 2 discriminator 11
 706 055b 488B08   		movq	(%rax), %rcx
 707 055e 488D45C0 		leaq	-64(%rbp), %rax
 708 0562 BA290000 		movl	$41, %edx
 708      00
 709 0567 4889CE   		movq	%rcx, %rsi
 710 056a 4889C7   		movq	%rax, %rdi
 711 056d E8000000 		call	_ZN8UnitTest11TestDetailsC1ERKS0_i@PLT
 711      00
  41:testHexIO.cpp **** 	CHECK_EQUAL(0x0BE1+4UL, mask.length);
 712              		.loc 4 41 2 discriminator 15
 713 0572 488D45C0 		leaq	-64(%rbp), %rax
 714 0576 488D1500 		leaq	.LC6(%rip), %rdx
 714      000000
 715 057d 4889C6   		movq	%rax, %rsi
 716 0580 4889DF   		movq	%rbx, %rdi
 717 0583 E8000000 		call	_ZN8UnitTest11TestResults13OnTestFailureERKNS_11TestDetailsEPKc@PLT
 717      00
 718              	.LEHE29:
 719              	.LEHB30:
  41:testHexIO.cpp **** 	CHECK_EQUAL(0x0BE1+4UL, mask.length);
 720              		.loc 4 41 2 discriminator 17
 721 0588 E8000000 		call	__cxa_end_catch@PLT
 721      00
 722              	.LEHE30:
 723 058d E99FFCFF 		jmp	.L26
 723      FF
 724              	.L50:
 725 0592 F30F1EFA 		endbr64
  41:testHexIO.cpp **** 	CHECK_EQUAL(0x0BE1+4UL, mask.length);
 726              		.loc 4 41 2
 727 0596 4889C3   		movq	%rax, %rbx
 728 0599 E8000000 		call	__cxa_end_catch@PLT
 728      00
 729 059e 4889D8   		movq	%rbx, %rax
 730 05a1 4889C7   		movq	%rax, %rdi
 731              	.LEHB31:
 732 05a4 E8000000 		call	_Unwind_Resume@PLT
 732      00
 733              	.LEHE31:
 734              	.L51:
 735 05a9 F30F1EFA 		endbr64
  42:testHexIO.cpp **** 	CHECK_EQUAL(4096UL, data.capacity);
 736              		.loc 4 42 2 is_stmt 1
 737 05ad 4889C7   		movq	%rax, %rdi
 738 05b0 E8000000 		call	__cxa_begin_catch@PLT
 738      00
 739              	.LEHB32:
 740 05b5 E8000000 		call	_ZN8UnitTest11CurrentTest7ResultsEv@PLT
 740      00
  42:testHexIO.cpp **** 	CHECK_EQUAL(4096UL, data.capacity);
 741              		.loc 4 42 2 is_stmt 0 discriminator 3
 742 05ba 488B18   		movq	(%rax), %rbx
 743 05bd E8000000 		call	_ZN8UnitTest11CurrentTest7DetailsEv@PLT
 743      00
  42:testHexIO.cpp **** 	CHECK_EQUAL(4096UL, data.capacity);
 744              		.loc 4 42 2 discriminator 11
 745 05c2 488B08   		movq	(%rax), %rcx
 746 05c5 488D45C0 		leaq	-64(%rbp), %rax
 747 05c9 BA2A0000 		movl	$42, %edx
 747      00
 748 05ce 4889CE   		movq	%rcx, %rsi
 749 05d1 4889C7   		movq	%rax, %rdi
 750 05d4 E8000000 		call	_ZN8UnitTest11TestDetailsC1ERKS0_i@PLT
 750      00
  42:testHexIO.cpp **** 	CHECK_EQUAL(4096UL, data.capacity);
 751              		.loc 4 42 2 discriminator 15
 752 05d9 488D45C0 		leaq	-64(%rbp), %rax
 753 05dd 488D1500 		leaq	.LC7(%rip), %rdx
 753      000000
 754 05e4 4889C6   		movq	%rax, %rsi
 755 05e7 4889DF   		movq	%rbx, %rdi
 756 05ea E8000000 		call	_ZN8UnitTest11TestResults13OnTestFailureERKNS_11TestDetailsEPKc@PLT
 756      00
 757              	.LEHE32:
 758              	.LEHB33:
  42:testHexIO.cpp **** 	CHECK_EQUAL(4096UL, data.capacity);
 759              		.loc 4 42 2 discriminator 17
 760 05ef E8000000 		call	__cxa_end_catch@PLT
 760      00
 761              	.LEHE33:
 762 05f4 E988FCFF 		jmp	.L29
 762      FF
 763              	.L52:
 764 05f9 F30F1EFA 		endbr64
  42:testHexIO.cpp **** 	CHECK_EQUAL(4096UL, data.capacity);
 765              		.loc 4 42 2
 766 05fd 4889C3   		movq	%rax, %rbx
 767 0600 E8000000 		call	__cxa_end_catch@PLT
 767      00
 768 0605 4889D8   		movq	%rbx, %rax
 769 0608 4889C7   		movq	%rax, %rdi
 770              	.LEHB34:
 771 060b E8000000 		call	_Unwind_Resume@PLT
 771      00
 772              	.LEHE34:
 773              	.L53:
 774 0610 F30F1EFA 		endbr64
  43:testHexIO.cpp **** 	CHECK_EQUAL(4096UL, mask.capacity);
 775              		.loc 4 43 2 is_stmt 1
 776 0614 4889C7   		movq	%rax, %rdi
 777 0617 E8000000 		call	__cxa_begin_catch@PLT
 777      00
 778              	.LEHB35:
 779 061c E8000000 		call	_ZN8UnitTest11CurrentTest7ResultsEv@PLT
 779      00
  43:testHexIO.cpp **** 	CHECK_EQUAL(4096UL, mask.capacity);
 780              		.loc 4 43 2 is_stmt 0 discriminator 3
 781 0621 488B18   		movq	(%rax), %rbx
 782 0624 E8000000 		call	_ZN8UnitTest11CurrentTest7DetailsEv@PLT
 782      00
  43:testHexIO.cpp **** 	CHECK_EQUAL(4096UL, mask.capacity);
 783              		.loc 4 43 2 discriminator 11
 784 0629 488B08   		movq	(%rax), %rcx
 785 062c 488D45C0 		leaq	-64(%rbp), %rax
 786 0630 BA2B0000 		movl	$43, %edx
 786      00
 787 0635 4889CE   		movq	%rcx, %rsi
 788 0638 4889C7   		movq	%rax, %rdi
 789 063b E8000000 		call	_ZN8UnitTest11TestDetailsC1ERKS0_i@PLT
 789      00
  43:testHexIO.cpp **** 	CHECK_EQUAL(4096UL, mask.capacity);
 790              		.loc 4 43 2 discriminator 15
 791 0640 488D45C0 		leaq	-64(%rbp), %rax
 792 0644 488D1500 		leaq	.LC8(%rip), %rdx
 792      000000
 793 064b 4889C6   		movq	%rax, %rsi
 794 064e 4889DF   		movq	%rbx, %rdi
 795 0651 E8000000 		call	_ZN8UnitTest11TestResults13OnTestFailureERKNS_11TestDetailsEPKc@PLT
 795      00
 796              	.LEHE35:
 797              	.LEHB36:
  43:testHexIO.cpp **** 	CHECK_EQUAL(4096UL, mask.capacity);
 798              		.loc 4 43 2 discriminator 17
 799 0656 E8000000 		call	__cxa_end_catch@PLT
 799      00
 800              	.LEHE36:
 801 065b E971FCFF 		jmp	.L32
 801      FF
 802              	.L54:
 803 0660 F30F1EFA 		endbr64
  43:testHexIO.cpp **** 	CHECK_EQUAL(4096UL, mask.capacity);
 804              		.loc 4 43 2
 805 0664 4889C3   		movq	%rax, %rbx
 806 0667 E8000000 		call	__cxa_end_catch@PLT
 806      00
 807 066c 4889D8   		movq	%rbx, %rax
 808 066f 4889C7   		movq	%rax, %rdi
 809              	.LEHB37:
 810 0672 E8000000 		call	_Unwind_Resume@PLT
 810      00
 811              	.LEHE37:
 812              	.L55:
 813 0677 F30F1EFA 		endbr64
  44:testHexIO.cpp **** 	CHECK_ARRAY_EQUAL(expected, data.data + 0x0BE1, 4);
 814              		.loc 4 44 2 is_stmt 1
 815 067b 4889C7   		movq	%rax, %rdi
 816 067e E8000000 		call	__cxa_begin_catch@PLT
 816      00
 817              	.LEHB38:
 818 0683 E8000000 		call	_ZN8UnitTest11CurrentTest7ResultsEv@PLT
 818      00
  44:testHexIO.cpp **** 	CHECK_ARRAY_EQUAL(expected, data.data + 0x0BE1, 4);
 819              		.loc 4 44 2 is_stmt 0 discriminator 3
 820 0688 488B18   		movq	(%rax), %rbx
 821 068b E8000000 		call	_ZN8UnitTest11CurrentTest7DetailsEv@PLT
 821      00
  44:testHexIO.cpp **** 	CHECK_ARRAY_EQUAL(expected, data.data + 0x0BE1, 4);
 822              		.loc 4 44 2 discriminator 11
 823 0690 488B08   		movq	(%rax), %rcx
 824 0693 488D45C0 		leaq	-64(%rbp), %rax
 825 0697 BA2C0000 		movl	$44, %edx
 825      00
 826 069c 4889CE   		movq	%rcx, %rsi
 827 069f 4889C7   		movq	%rax, %rdi
 828 06a2 E8000000 		call	_ZN8UnitTest11TestDetailsC1ERKS0_i@PLT
 828      00
  44:testHexIO.cpp **** 	CHECK_ARRAY_EQUAL(expected, data.data + 0x0BE1, 4);
 829              		.loc 4 44 2 discriminator 15
 830 06a7 488D45C0 		leaq	-64(%rbp), %rax
 831 06ab 488D1500 		leaq	.LC9(%rip), %rdx
 831      000000
 832 06b2 4889C6   		movq	%rax, %rsi
 833 06b5 4889DF   		movq	%rbx, %rdi
 834 06b8 E8000000 		call	_ZN8UnitTest11TestResults13OnTestFailureERKNS_11TestDetailsEPKc@PLT
 834      00
 835              	.LEHE38:
 836              	.LEHB39:
  44:testHexIO.cpp **** 	CHECK_ARRAY_EQUAL(expected, data.data + 0x0BE1, 4);
 837              		.loc 4 44 2 discriminator 17
 838 06bd E8000000 		call	__cxa_end_catch@PLT
 838      00
 839              	.LEHE39:
 840 06c2 E95AFCFF 		jmp	.L35
 840      FF
 841              	.L56:
 842 06c7 F30F1EFA 		endbr64
  44:testHexIO.cpp **** 	CHECK_ARRAY_EQUAL(expected, data.data + 0x0BE1, 4);
 843              		.loc 4 44 2
 844 06cb 4889C3   		movq	%rax, %rbx
 845 06ce E8000000 		call	__cxa_end_catch@PLT
 845      00
 846 06d3 4889D8   		movq	%rbx, %rax
 847 06d6 4889C7   		movq	%rax, %rdi
 848              	.LEHB40:
 849 06d9 E8000000 		call	_Unwind_Resume@PLT
 849      00
 850              	.LEHE40:
 851              	.L57:
 852 06de F30F1EFA 		endbr64
  45:testHexIO.cpp **** 	bufDestroy(&mask);
 853              		.loc 4 45 2 is_stmt 1
 854 06e2 4889C7   		movq	%rax, %rdi
 855 06e5 E8000000 		call	__cxa_begin_catch@PLT
 855      00
 856              	.LEHB41:
 857 06ea E8000000 		call	_ZN8UnitTest11CurrentTest7ResultsEv@PLT
 857      00
  45:testHexIO.cpp **** 	bufDestroy(&mask);
 858              		.loc 4 45 2 is_stmt 0 discriminator 3
 859 06ef 488B18   		movq	(%rax), %rbx
 860 06f2 E8000000 		call	_ZN8UnitTest11CurrentTest7DetailsEv@PLT
 860      00
  45:testHexIO.cpp **** 	bufDestroy(&mask);
 861              		.loc 4 45 2 discriminator 11
 862 06f7 488B08   		movq	(%rax), %rcx
 863 06fa 488D45C0 		leaq	-64(%rbp), %rax
 864 06fe BA2D0000 		movl	$45, %edx
 864      00
 865 0703 4889CE   		movq	%rcx, %rsi
 866 0706 4889C7   		movq	%rax, %rdi
 867 0709 E8000000 		call	_ZN8UnitTest11TestDetailsC1ERKS0_i@PLT
 867      00
  45:testHexIO.cpp **** 	bufDestroy(&mask);
 868              		.loc 4 45 2 discriminator 15
 869 070e 488D45C0 		leaq	-64(%rbp), %rax
 870 0712 488D1500 		leaq	.LC10(%rip), %rdx
 870      000000
 871 0719 4889C6   		movq	%rax, %rsi
 872 071c 4889DF   		movq	%rbx, %rdi
 873 071f E8000000 		call	_ZN8UnitTest11TestResults13OnTestFailureERKNS_11TestDetailsEPKc@PLT
 873      00
 874              	.LEHE41:
 875              	.LEHB42:
  45:testHexIO.cpp **** 	bufDestroy(&mask);
 876              		.loc 4 45 2 discriminator 17
 877 0724 E8000000 		call	__cxa_end_catch@PLT
 877      00
 878              	.LEHE42:
 879 0729 E947FCFF 		jmp	.L38
 879      FF
 880              	.L58:
 881 072e F30F1EFA 		endbr64
  45:testHexIO.cpp **** 	bufDestroy(&mask);
 882              		.loc 4 45 2
 883 0732 4889C3   		movq	%rax, %rbx
 884 0735 E8000000 		call	__cxa_end_catch@PLT
 884      00
 885 073a 4889D8   		movq	%rbx, %rax
 886 073d 4889C7   		movq	%rax, %rdi
 887              	.LEHB43:
 888 0740 E8000000 		call	_Unwind_Resume@PLT
 888      00
 889              	.LEHE43:
 890              	.L59:
 891              		.loc 4 48 1 is_stmt 1
 892 0745 E8000000 		call	__stack_chk_fail@PLT
 892      00
 893              	.L40:
 894 074a 488B5DF8 		movq	-8(%rbp), %rbx
 895 074e C9       		leave
 896              		.cfi_def_cfa 7, 8
 897 074f C3       		ret
 898              		.cfi_endproc
 899              	.LFE1212:
 900              		.section	.gcc_except_table,"a",@progbits
 901              		.align 4
 902              	.LLSDA1212:
 903 0000 FF       		.byte	0xff
 904 0001 9B       		.byte	0x9b
 905 0002 E401     		.uleb128 .LLSDATT1212-.LLSDATTD1212
 906              	.LLSDATTD1212:
 907 0004 01       		.byte	0x1
 908 0005 D801     		.uleb128 .LLSDACSE1212-.LLSDACSB1212
 909              	.LLSDACSB1212:
 910 0007 5B       		.uleb128 .LEHB4-.LFB1212
 911 0008 05       		.uleb128 .LEHE4-.LEHB4
 912 0009 00       		.uleb128 0
 913 000a 00       		.uleb128 0
 914 000b 66       		.uleb128 .LEHB5-.LFB1212
 915 000c 42       		.uleb128 .LEHE5-.LEHB5
 916 000d A607     		.uleb128 .L41-.LFB1212
 917 000f 01       		.uleb128 0x1
 918 0010 BE01     		.uleb128 .LEHB6-.LFB1212
 919 0012 05       		.uleb128 .LEHE6-.LEHB6
 920 0013 00       		.uleb128 0
 921 0014 00       		.uleb128 0
 922 0015 C901     		.uleb128 .LEHB7-.LFB1212
 923 0017 48       		.uleb128 .LEHE7-.LEHB7
 924 0018 8D08     		.uleb128 .L43-.LFB1212
 925 001a 01       		.uleb128 0x1
 926 001b C202     		.uleb128 .LEHB8-.LFB1212
 927 001d 05       		.uleb128 .LEHE8-.LEHB8
 928 001e 00       		.uleb128 0
 929 001f 00       		.uleb128 0
 930 0020 D102     		.uleb128 .LEHB9-.LFB1212
 931 0022 48       		.uleb128 .LEHE9-.LEHB9
 932 0023 F408     		.uleb128 .L45-.LFB1212
 933 0025 01       		.uleb128 0x1
 934 0026 9903     		.uleb128 .LEHB10-.LFB1212
 935 0028 48       		.uleb128 .LEHE10-.LEHB10
 936 0029 DB09     		.uleb128 .L47-.LFB1212
 937 002b 01       		.uleb128 0x1
 938 002c E103     		.uleb128 .LEHB11-.LFB1212
 939 002e 50       		.uleb128 .LEHE11-.LEHB11
 940 002f C20A     		.uleb128 .L49-.LFB1212
 941 0031 01       		.uleb128 0x1
 942 0032 B104     		.uleb128 .LEHB12-.LFB1212
 943 0034 50       		.uleb128 .LEHE12-.LEHB12
 944 0035 A90B     		.uleb128 .L51-.LFB1212
 945 0037 01       		.uleb128 0x1
 946 0038 8105     		.uleb128 .LEHB13-.LFB1212
 947 003a 50       		.uleb128 .LEHE13-.LEHB13
 948 003b 900C     		.uleb128 .L53-.LFB1212
 949 003d 01       		.uleb128 0x1
 950 003e D105     		.uleb128 .LEHB14-.LFB1212
 951 0040 50       		.uleb128 .LEHE14-.LEHB14
 952 0041 F70C     		.uleb128 .L55-.LFB1212
 953 0043 01       		.uleb128 0x1
 954 0044 A106     		.uleb128 .LEHB15-.LFB1212
 955 0046 54       		.uleb128 .LEHE15-.LEHB15
 956 0047 DE0D     		.uleb128 .L57-.LFB1212
 957 0049 01       		.uleb128 0x1
 958 004a FC06     		.uleb128 .LEHB16-.LFB1212
 959 004c 11       		.uleb128 .LEHE16-.LEHB16
 960 004d 00       		.uleb128 0
 961 004e 00       		.uleb128 0
 962 004f B207     		.uleb128 .LEHB17-.LFB1212
 963 0051 3A       		.uleb128 .LEHE17-.LEHB17
 964 0052 F607     		.uleb128 .L42-.LFB1212
 965 0054 00       		.uleb128 0
 966 0055 EC07     		.uleb128 .LEHB18-.LFB1212
 967 0057 05       		.uleb128 .LEHE18-.LEHB18
 968 0058 00       		.uleb128 0
 969 0059 00       		.uleb128 0
 970 005a 8808     		.uleb128 .LEHB19-.LFB1212
 971 005c 05       		.uleb128 .LEHE19-.LEHB19
 972 005d 00       		.uleb128 0
 973 005e 00       		.uleb128 0
 974 005f 9908     		.uleb128 .LEHB20-.LFB1212
 975 0061 3A       		.uleb128 .LEHE20-.LEHB20
 976 0062 DD08     		.uleb128 .L44-.LFB1212
 977 0064 00       		.uleb128 0
 978 0065 D308     		.uleb128 .LEHB21-.LFB1212
 979 0067 05       		.uleb128 .LEHE21-.LEHB21
 980 0068 00       		.uleb128 0
 981 0069 00       		.uleb128 0
 982 006a EF08     		.uleb128 .LEHB22-.LFB1212
 983 006c 05       		.uleb128 .LEHE22-.LEHB22
 984 006d 00       		.uleb128 0
 985 006e 00       		.uleb128 0
 986 006f 8009     		.uleb128 .LEHB23-.LFB1212
 987 0071 3A       		.uleb128 .LEHE23-.LEHB23
 988 0072 C409     		.uleb128 .L46-.LFB1212
 989 0074 00       		.uleb128 0
 990 0075 BA09     		.uleb128 .LEHB24-.LFB1212
 991 0077 05       		.uleb128 .LEHE24-.LEHB24
 992 0078 00       		.uleb128 0
 993 0079 00       		.uleb128 0
 994 007a D609     		.uleb128 .LEHB25-.LFB1212
 995 007c 05       		.uleb128 .LEHE25-.LEHB25
 996 007d 00       		.uleb128 0
 997 007e 00       		.uleb128 0
 998 007f E709     		.uleb128 .LEHB26-.LFB1212
 999 0081 3A       		.uleb128 .LEHE26-.LEHB26
 1000 0082 AB0A     		.uleb128 .L48-.LFB1212
 1001 0084 00       		.uleb128 0
 1002 0085 A10A     		.uleb128 .LEHB27-.LFB1212
 1003 0087 05       		.uleb128 .LEHE27-.LEHB27
 1004 0088 00       		.uleb128 0
 1005 0089 00       		.uleb128 0
 1006 008a BD0A     		.uleb128 .LEHB28-.LFB1212
 1007 008c 05       		.uleb128 .LEHE28-.LEHB28
 1008 008d 00       		.uleb128 0
 1009 008e 00       		.uleb128 0
 1010 008f CE0A     		.uleb128 .LEHB29-.LFB1212
 1011 0091 3A       		.uleb128 .LEHE29-.LEHB29
 1012 0092 920B     		.uleb128 .L50-.LFB1212
 1013 0094 00       		.uleb128 0
 1014 0095 880B     		.uleb128 .LEHB30-.LFB1212
 1015 0097 05       		.uleb128 .LEHE30-.LEHB30
 1016 0098 00       		.uleb128 0
 1017 0099 00       		.uleb128 0
 1018 009a A40B     		.uleb128 .LEHB31-.LFB1212
 1019 009c 05       		.uleb128 .LEHE31-.LEHB31
 1020 009d 00       		.uleb128 0
 1021 009e 00       		.uleb128 0
 1022 009f B50B     		.uleb128 .LEHB32-.LFB1212
 1023 00a1 3A       		.uleb128 .LEHE32-.LEHB32
 1024 00a2 F90B     		.uleb128 .L52-.LFB1212
 1025 00a4 00       		.uleb128 0
 1026 00a5 EF0B     		.uleb128 .LEHB33-.LFB1212
 1027 00a7 05       		.uleb128 .LEHE33-.LEHB33
 1028 00a8 00       		.uleb128 0
 1029 00a9 00       		.uleb128 0
 1030 00aa 8B0C     		.uleb128 .LEHB34-.LFB1212
 1031 00ac 05       		.uleb128 .LEHE34-.LEHB34
 1032 00ad 00       		.uleb128 0
 1033 00ae 00       		.uleb128 0
 1034 00af 9C0C     		.uleb128 .LEHB35-.LFB1212
 1035 00b1 3A       		.uleb128 .LEHE35-.LEHB35
 1036 00b2 E00C     		.uleb128 .L54-.LFB1212
 1037 00b4 00       		.uleb128 0
 1038 00b5 D60C     		.uleb128 .LEHB36-.LFB1212
 1039 00b7 05       		.uleb128 .LEHE36-.LEHB36
 1040 00b8 00       		.uleb128 0
 1041 00b9 00       		.uleb128 0
 1042 00ba F20C     		.uleb128 .LEHB37-.LFB1212
 1043 00bc 05       		.uleb128 .LEHE37-.LEHB37
 1044 00bd 00       		.uleb128 0
 1045 00be 00       		.uleb128 0
 1046 00bf 830D     		.uleb128 .LEHB38-.LFB1212
 1047 00c1 3A       		.uleb128 .LEHE38-.LEHB38
 1048 00c2 C70D     		.uleb128 .L56-.LFB1212
 1049 00c4 00       		.uleb128 0
 1050 00c5 BD0D     		.uleb128 .LEHB39-.LFB1212
 1051 00c7 05       		.uleb128 .LEHE39-.LEHB39
 1052 00c8 00       		.uleb128 0
 1053 00c9 00       		.uleb128 0
 1054 00ca D90D     		.uleb128 .LEHB40-.LFB1212
 1055 00cc 05       		.uleb128 .LEHE40-.LEHB40
 1056 00cd 00       		.uleb128 0
 1057 00ce 00       		.uleb128 0
 1058 00cf EA0D     		.uleb128 .LEHB41-.LFB1212
 1059 00d1 3A       		.uleb128 .LEHE41-.LEHB41
 1060 00d2 AE0E     		.uleb128 .L58-.LFB1212
 1061 00d4 00       		.uleb128 0
 1062 00d5 A40E     		.uleb128 .LEHB42-.LFB1212
 1063 00d7 05       		.uleb128 .LEHE42-.LEHB42
 1064 00d8 00       		.uleb128 0
 1065 00d9 00       		.uleb128 0
 1066 00da C00E     		.uleb128 .LEHB43-.LFB1212
 1067 00dc 05       		.uleb128 .LEHE43-.LEHB43
 1068 00dd 00       		.uleb128 0
 1069 00de 00       		.uleb128 0
 1070              	.LLSDACSE1212:
 1071 00df 01       		.byte	0x1
 1072 00e0 00       		.byte	0
 1073 00e1 000000   		.align 4
 1074 00e4 00000000 		.long	0
 1075              	
 1076              	.LLSDATT1212:
 1077              		.text
 1079              		.section	.rodata
 1080              	.LC11:
 1081 01ff 48657849 		.string	"HexIO_testValidEOF"
 1081      4F5F7465 
 1081      73745661 
 1081      6C696445 
 1081      4F4600
 1082              		.section	.text._ZN22TestHexIO_testValidEOFC2Ev,"axG",@progbits,_ZN22TestHexIO_testValidEOFC5Ev,com
 1083              		.align 2
 1084              		.weak	_ZN22TestHexIO_testValidEOFC2Ev
 1086              	_ZN22TestHexIO_testValidEOFC2Ev:
 1087              	.LFB1214:
  49:testHexIO.cpp **** 
  50:testHexIO.cpp **** TEST(HexIO_testValidEOF) {
 1088              		.loc 4 50 1
 1089              		.cfi_startproc
 1090 0000 F30F1EFA 		endbr64
 1091 0004 55       		pushq	%rbp
 1092              		.cfi_def_cfa_offset 16
 1093              		.cfi_offset 6, -16
 1094 0005 4889E5   		movq	%rsp, %rbp
 1095              		.cfi_def_cfa_register 6
 1096 0008 53       		pushq	%rbx
 1097 0009 4883EC18 		subq	$24, %rsp
 1098              		.cfi_offset 3, -24
 1099 000d 48897DE8 		movq	%rdi, -24(%rbp)
 1100              	.LBB5:
 1101              		.loc 4 50 1
 1102 0011 488B5DE8 		movq	-24(%rbp), %rbx
 1103 0015 E8000000 		call	_ZN13UnitTestSuite12GetSuiteNameEv
 1103      00
 1104 001a 4889C2   		movq	%rax, %rdx
 1105 001d 41B83200 		movl	$50, %r8d
 1105      0000
 1106 0023 488D0500 		leaq	.LC1(%rip), %rax
 1106      000000
 1107 002a 4889C1   		movq	%rax, %rcx
 1108 002d 488D0500 		leaq	.LC11(%rip), %rax
 1108      000000
 1109 0034 4889C6   		movq	%rax, %rsi
 1110 0037 4889DF   		movq	%rbx, %rdi
 1111 003a E8000000 		call	_ZN8UnitTest4TestC2EPKcS2_S2_i@PLT
 1111      00
 1112 003f 488D1500 		leaq	16+_ZTV22TestHexIO_testValidEOF(%rip), %rdx
 1112      000000
 1113 0046 488B45E8 		movq	-24(%rbp), %rax
 1114 004a 488910   		movq	%rdx, (%rax)
 1115              	.LBE5:
 1116 004d 90       		nop
 1117 004e 488B5DF8 		movq	-8(%rbp), %rbx
 1118 0052 C9       		leave
 1119              		.cfi_def_cfa 7, 8
 1120 0053 C3       		ret
 1121              		.cfi_endproc
 1122              	.LFE1214:
 1124              		.weak	_ZN22TestHexIO_testValidEOFC1Ev
 1125              		.set	_ZN22TestHexIO_testValidEOFC1Ev,_ZN22TestHexIO_testValidEOFC2Ev
 1126              		.globl	testHexIO_testValidEOFInstance
 1127              		.bss
 1128 0039 00000000 		.align 32
 1128      000000
 1131              	testHexIO_testValidEOFInstance:
 1132 0040 00000000 		.zero	56
 1132      00000000 
 1132      00000000 
 1132      00000000 
 1132      00000000 
 1133              		.globl	adderHexIO_testValidEOF
 1136              	adderHexIO_testValidEOF:
 1137 0078 00       		.zero	1
 1138              		.section	.rodata
 1139              	.LC12:
 1140 0212 3A303030 		.string	":00000001FF\n"
 1140      30303030 
 1140      3146460A 
 1140      00
 1141 021f 00       		.align 8
 1142              	.LC13:
 1143 0220 556E6861 		.string	"Unhandled exception in CHECK_EQUAL(0x01, recordType)"
 1143      6E646C65 
 1143      64206578 
 1143      63657074 
 1143      696F6E20 
 1144 0255 000000   		.align 8
 1145              	.LC14:
 1146 0258 556E6861 		.string	"Unhandled exception in CHECK_EQUAL(0UL, data.length)"
 1146      6E646C65 
 1146      64206578 
 1146      63657074 
 1146      696F6E20 
 1147 028d 000000   		.align 8
 1148              	.LC15:
 1149 0290 556E6861 		.string	"Unhandled exception in CHECK_EQUAL(0UL, mask.length)"
 1149      6E646C65 
 1149      64206578 
 1149      63657074 
 1149      696F6E20 
 1150              		.text
 1151              		.align 2
 1152              		.globl	_ZNK22TestHexIO_testValidEOF7RunImplEv
 1154              	_ZNK22TestHexIO_testValidEOF7RunImplEv:
 1155              	.LFB1216:
 1156              		.loc 4 50 26
 1157              		.cfi_startproc
 1158              		.cfi_personality 0x9b,DW.ref.__gxx_personality_v0
 1159              		.cfi_lsda 0x1b,.LLSDA1216
 1160 0750 F30F1EFA 		endbr64
 1161 0754 55       		pushq	%rbp
 1162              		.cfi_def_cfa_offset 16
 1163              		.cfi_offset 6, -16
 1164 0755 4889E5   		movq	%rsp, %rbp
 1165              		.cfi_def_cfa_register 6
 1166 0758 53       		pushq	%rbx
 1167 0759 4881ECA8 		subq	$168, %rsp
 1167      000000
 1168              		.cfi_offset 3, -24
 1169 0760 4889BD58 		movq	%rdi, -168(%rbp)
 1169      FFFFFF
 1170              		.loc 4 50 26
 1171 0767 64488B04 		movq	%fs:40, %rax
 1171      25280000 
 1171      00
 1172 0770 488945E8 		movq	%rax, -24(%rbp)
 1173 0774 31C0     		xorl	%eax, %eax
  51:testHexIO.cpp **** 	Buffer data, mask;
  52:testHexIO.cpp **** 	BufferStatus status;
  53:testHexIO.cpp **** 	const char *line = ":00000001FF\n";
 1174              		.loc 4 53 14
 1175 0776 488D0500 		leaq	.LC12(%rip), %rax
 1175      000000
 1176 077d 48898578 		movq	%rax, -136(%rbp)
 1176      FFFFFF
  54:testHexIO.cpp **** 	uint8 recordType;
  55:testHexIO.cpp **** 	uint32 seg = 0x00000000;
 1177              		.loc 4 55 9
 1178 0784 C7856CFF 		movl	$0, -148(%rbp)
 1178      FFFF0000 
 1178      0000
  56:testHexIO.cpp **** 	status = bufInitialise(&data, 1024, 0x00, NULL);
 1179              		.loc 4 56 24
 1180 078e 488D4580 		leaq	-128(%rbp), %rax
 1181 0792 B9000000 		movl	$0, %ecx
 1181      00
 1182 0797 BA000000 		movl	$0, %edx
 1182      00
 1183 079c BE000400 		movl	$1024, %esi
 1183      00
 1184 07a1 4889C7   		movq	%rax, %rdi
 1185              	.LEHB44:
 1186 07a4 E8000000 		call	bufInitialise@PLT
 1186      00
 1187              	.LEHE44:
 1188              		.loc 4 56 9
 1189 07a9 898568FF 		movl	%eax, -152(%rbp)
 1189      FFFF
 1190              	.LEHB45:
  57:testHexIO.cpp **** 	CHECK_EQUAL(BUF_SUCCESS, status);
 1191              		.loc 4 57 2
 1192 07af E8000000 		call	_ZN8UnitTest11CurrentTest7DetailsEv@PLT
 1192      00
 1193 07b4 488B08   		movq	(%rax), %rcx
 1194 07b7 488D45C0 		leaq	-64(%rbp), %rax
 1195 07bb BA390000 		movl	$57, %edx
 1195      00
 1196 07c0 4889CE   		movq	%rcx, %rsi
 1197 07c3 4889C7   		movq	%rax, %rdi
 1198 07c6 E8000000 		call	_ZN8UnitTest11TestDetailsC1ERKS0_i@PLT
 1198      00
 1199              		.loc 4 57 2 is_stmt 0 discriminator 4
 1200 07cb C745A000 		movl	$0, -96(%rbp)
 1200      000000
 1201 07d2 E8000000 		call	_ZN8UnitTest11CurrentTest7ResultsEv@PLT
 1201      00
 1202 07d7 488B00   		movq	(%rax), %rax
 1203 07da 488D4DC0 		leaq	-64(%rbp), %rcx
 1204 07de 488D9568 		leaq	-152(%rbp), %rdx
 1204      FFFFFF
 1205 07e5 488D75A0 		leaq	-96(%rbp), %rsi
 1206 07e9 4889C7   		movq	%rax, %rdi
 1207 07ec E8000000 		call	_ZN8UnitTest10CheckEqualI12BufferStatusS1_EEvRNS_11TestResultsERKT_RKT0_RKNS_11TestDetailsE
 1207      00
 1208              	.LEHE45:
 1209              	.L63:
  58:testHexIO.cpp **** 	status = bufInitialise(&mask, 1024, 0x00, NULL);
 1210              		.loc 4 58 24 is_stmt 1
 1211 07f1 488D45A0 		leaq	-96(%rbp), %rax
 1212 07f5 B9000000 		movl	$0, %ecx
 1212      00
 1213 07fa BA000000 		movl	$0, %edx
 1213      00
 1214 07ff BE000400 		movl	$1024, %esi
 1214      00
 1215 0804 4889C7   		movq	%rax, %rdi
 1216              	.LEHB46:
 1217 0807 E8000000 		call	bufInitialise@PLT
 1217      00
 1218              	.LEHE46:
 1219              		.loc 4 58 9
 1220 080c 898568FF 		movl	%eax, -152(%rbp)
 1220      FFFF
 1221              	.LEHB47:
  59:testHexIO.cpp **** 	CHECK_EQUAL(BUF_SUCCESS, status);
 1222              		.loc 4 59 2
 1223 0812 E8000000 		call	_ZN8UnitTest11CurrentTest7DetailsEv@PLT
 1223      00
 1224 0817 488B08   		movq	(%rax), %rcx
 1225 081a 488D45C0 		leaq	-64(%rbp), %rax
 1226 081e BA3B0000 		movl	$59, %edx
 1226      00
 1227 0823 4889CE   		movq	%rcx, %rsi
 1228 0826 4889C7   		movq	%rax, %rdi
 1229 0829 E8000000 		call	_ZN8UnitTest11TestDetailsC1ERKS0_i@PLT
 1229      00
 1230              		.loc 4 59 2 is_stmt 0 discriminator 4
 1231 082e C78570FF 		movl	$0, -144(%rbp)
 1231      FFFF0000 
 1231      0000
 1232 0838 E8000000 		call	_ZN8UnitTest11CurrentTest7ResultsEv@PLT
 1232      00
 1233 083d 488B00   		movq	(%rax), %rax
 1234 0840 488D4DC0 		leaq	-64(%rbp), %rcx
 1235 0844 488D9568 		leaq	-152(%rbp), %rdx
 1235      FFFFFF
 1236 084b 488DB570 		leaq	-144(%rbp), %rsi
 1236      FFFFFF
 1237 0852 4889C7   		movq	%rax, %rdi
 1238 0855 E8000000 		call	_ZN8UnitTest10CheckEqualI12BufferStatusS1_EEvRNS_11TestResultsERKT_RKT0_RKNS_11TestDetailsE
 1238      00
 1239              	.LEHE47:
 1240              	.L66:
  60:testHexIO.cpp **** 	status = bufProcessLine(line, 0, &data, &mask, &seg, &recordType, NULL);
 1241              		.loc 4 60 25 is_stmt 1
 1242 085a 488DBD67 		leaq	-153(%rbp), %rdi
 1242      FFFFFF
 1243 0861 488DB56C 		leaq	-148(%rbp), %rsi
 1243      FFFFFF
 1244 0868 488D4DA0 		leaq	-96(%rbp), %rcx
 1245 086c 488D5580 		leaq	-128(%rbp), %rdx
 1246 0870 488B8578 		movq	-136(%rbp), %rax
 1246      FFFFFF
 1247 0877 4883EC08 		subq	$8, %rsp
 1248 087b 6A00     		pushq	$0
 1249 087d 4989F9   		movq	%rdi, %r9
 1250 0880 4989F0   		movq	%rsi, %r8
 1251 0883 BE000000 		movl	$0, %esi
 1251      00
 1252 0888 4889C7   		movq	%rax, %rdi
 1253              	.LEHB48:
 1254 088b E8000000 		call	bufProcessLine@PLT
 1254      00
 1255              	.LEHE48:
 1256 0890 4883C410 		addq	$16, %rsp
 1257              		.loc 4 60 9
 1258 0894 898568FF 		movl	%eax, -152(%rbp)
 1258      FFFF
 1259              	.LEHB49:
  61:testHexIO.cpp **** 	CHECK_EQUAL(BUF_SUCCESS, status);
 1260              		.loc 4 61 2
 1261 089a E8000000 		call	_ZN8UnitTest11CurrentTest7DetailsEv@PLT
 1261      00
 1262 089f 488B08   		movq	(%rax), %rcx
 1263 08a2 488D45C0 		leaq	-64(%rbp), %rax
 1264 08a6 BA3D0000 		movl	$61, %edx
 1264      00
 1265 08ab 4889CE   		movq	%rcx, %rsi
 1266 08ae 4889C7   		movq	%rax, %rdi
 1267 08b1 E8000000 		call	_ZN8UnitTest11TestDetailsC1ERKS0_i@PLT
 1267      00
 1268              		.loc 4 61 2 is_stmt 0 discriminator 4
 1269 08b6 C78570FF 		movl	$0, -144(%rbp)
 1269      FFFF0000 
 1269      0000
 1270 08c0 E8000000 		call	_ZN8UnitTest11CurrentTest7ResultsEv@PLT
 1270      00
 1271 08c5 488B00   		movq	(%rax), %rax
 1272 08c8 488D4DC0 		leaq	-64(%rbp), %rcx
 1273 08cc 488D9568 		leaq	-152(%rbp), %rdx
 1273      FFFFFF
 1274 08d3 488DB570 		leaq	-144(%rbp), %rsi
 1274      FFFFFF
 1275 08da 4889C7   		movq	%rax, %rdi
 1276 08dd E8000000 		call	_ZN8UnitTest10CheckEqualI12BufferStatusS1_EEvRNS_11TestResultsERKT_RKT0_RKNS_11TestDetailsE
 1276      00
 1277              	.LEHE49:
 1278              	.L69:
 1279              	.LEHB50:
  62:testHexIO.cpp **** 	CHECK_EQUAL(0x01, recordType);
 1280              		.loc 4 62 2 is_stmt 1
 1281 08e2 E8000000 		call	_ZN8UnitTest11CurrentTest7DetailsEv@PLT
 1281      00
 1282 08e7 488B08   		movq	(%rax), %rcx
 1283 08ea 488D45C0 		leaq	-64(%rbp), %rax
 1284 08ee BA3E0000 		movl	$62, %edx
 1284      00
 1285 08f3 4889CE   		movq	%rcx, %rsi
 1286 08f6 4889C7   		movq	%rax, %rdi
 1287 08f9 E8000000 		call	_ZN8UnitTest11TestDetailsC1ERKS0_i@PLT
 1287      00
 1288              		.loc 4 62 2 is_stmt 0 discriminator 4
 1289 08fe C78570FF 		movl	$1, -144(%rbp)
 1289      FFFF0100 
 1289      0000
 1290 0908 E8000000 		call	_ZN8UnitTest11CurrentTest7ResultsEv@PLT
 1290      00
 1291 090d 488B00   		movq	(%rax), %rax
 1292 0910 488D4DC0 		leaq	-64(%rbp), %rcx
 1293 0914 488D9567 		leaq	-153(%rbp), %rdx
 1293      FFFFFF
 1294 091b 488DB570 		leaq	-144(%rbp), %rsi
 1294      FFFFFF
 1295 0922 4889C7   		movq	%rax, %rdi
 1296 0925 E8000000 		call	_ZN8UnitTest10CheckEqualIihEEvRNS_11TestResultsERKT_RKT0_RKNS_11TestDetailsE
 1296      00
 1297              	.LEHE50:
 1298              	.L72:
 1299              	.LEHB51:
  63:testHexIO.cpp **** 	CHECK_EQUAL(0UL, data.length);
 1300              		.loc 4 63 2 is_stmt 1
 1301 092a E8000000 		call	_ZN8UnitTest11CurrentTest7DetailsEv@PLT
 1301      00
 1302 092f 488B08   		movq	(%rax), %rcx
 1303 0932 488D45C0 		leaq	-64(%rbp), %rax
 1304 0936 BA3F0000 		movl	$63, %edx
 1304      00
 1305 093b 4889CE   		movq	%rcx, %rsi
 1306 093e 4889C7   		movq	%rax, %rdi
 1307 0941 E8000000 		call	_ZN8UnitTest11TestDetailsC1ERKS0_i@PLT
 1307      00
 1308              		.loc 4 63 2 is_stmt 0 discriminator 4
 1309 0946 48C78570 		movq	$0, -144(%rbp)
 1309      FFFFFF00 
 1309      000000
 1310 0951 E8000000 		call	_ZN8UnitTest11CurrentTest7ResultsEv@PLT
 1310      00
 1311 0956 488B00   		movq	(%rax), %rax
 1312 0959 488D55C0 		leaq	-64(%rbp), %rdx
 1313 095d 488D4D80 		leaq	-128(%rbp), %rcx
 1314 0961 488D7908 		leaq	8(%rcx), %rdi
 1315 0965 488DB570 		leaq	-144(%rbp), %rsi
 1315      FFFFFF
 1316 096c 4889D1   		movq	%rdx, %rcx
 1317 096f 4889FA   		movq	%rdi, %rdx
 1318 0972 4889C7   		movq	%rax, %rdi
 1319 0975 E8000000 		call	_ZN8UnitTest10CheckEqualImmEEvRNS_11TestResultsERKT_RKT0_RKNS_11TestDetailsE
 1319      00
 1320              	.LEHE51:
 1321              	.L75:
 1322              	.LEHB52:
  64:testHexIO.cpp **** 	CHECK_EQUAL(0UL, mask.length);
 1323              		.loc 4 64 2 is_stmt 1
 1324 097a E8000000 		call	_ZN8UnitTest11CurrentTest7DetailsEv@PLT
 1324      00
 1325 097f 488B08   		movq	(%rax), %rcx
 1326 0982 488D45C0 		leaq	-64(%rbp), %rax
 1327 0986 BA400000 		movl	$64, %edx
 1327      00
 1328 098b 4889CE   		movq	%rcx, %rsi
 1329 098e 4889C7   		movq	%rax, %rdi
 1330 0991 E8000000 		call	_ZN8UnitTest11TestDetailsC1ERKS0_i@PLT
 1330      00
 1331              		.loc 4 64 2 is_stmt 0 discriminator 4
 1332 0996 48C78570 		movq	$0, -144(%rbp)
 1332      FFFFFF00 
 1332      000000
 1333 09a1 E8000000 		call	_ZN8UnitTest11CurrentTest7ResultsEv@PLT
 1333      00
 1334 09a6 488B00   		movq	(%rax), %rax
 1335 09a9 488D55C0 		leaq	-64(%rbp), %rdx
 1336 09ad 488D4DA0 		leaq	-96(%rbp), %rcx
 1337 09b1 488D7908 		leaq	8(%rcx), %rdi
 1338 09b5 488DB570 		leaq	-144(%rbp), %rsi
 1338      FFFFFF
 1339 09bc 4889D1   		movq	%rdx, %rcx
 1340 09bf 4889FA   		movq	%rdi, %rdx
 1341 09c2 4889C7   		movq	%rax, %rdi
 1342 09c5 E8000000 		call	_ZN8UnitTest10CheckEqualImmEEvRNS_11TestResultsERKT_RKT0_RKNS_11TestDetailsE
 1342      00
 1343              	.LEHE52:
 1344              	.L78:
  65:testHexIO.cpp **** 	bufDestroy(&mask);
 1345              		.loc 4 65 12 is_stmt 1
 1346 09ca 488D45A0 		leaq	-96(%rbp), %rax
 1347 09ce 4889C7   		movq	%rax, %rdi
 1348              	.LEHB53:
 1349 09d1 E8000000 		call	bufDestroy@PLT
 1349      00
  66:testHexIO.cpp **** 	bufDestroy(&data);
 1350              		.loc 4 66 12
 1351 09d6 488D4580 		leaq	-128(%rbp), %rax
 1352 09da 4889C7   		movq	%rax, %rdi
 1353 09dd E8000000 		call	bufDestroy@PLT
 1353      00
 1354              	.LEHE53:
  67:testHexIO.cpp **** }
 1355              		.loc 4 67 1
 1356 09e2 90       		nop
 1357 09e3 488B45E8 		movq	-24(%rbp), %rax
 1358 09e7 64482B04 		subq	%fs:40, %rax
 1358      25280000 
 1358      00
 1359 09f0 0F847402 		je	.L80
 1359      0000
 1360 09f6 E96A0200 		jmp	.L93
 1360      00
 1361              	.L81:
 1362 09fb F30F1EFA 		endbr64
  57:testHexIO.cpp **** 	status = bufInitialise(&mask, 1024, 0x00, NULL);
 1363              		.loc 4 57 2
 1364 09ff 4889C7   		movq	%rax, %rdi
 1365 0a02 E8000000 		call	__cxa_begin_catch@PLT
 1365      00
 1366              	.LEHB54:
 1367 0a07 E8000000 		call	_ZN8UnitTest11CurrentTest7ResultsEv@PLT
 1367      00
  57:testHexIO.cpp **** 	status = bufInitialise(&mask, 1024, 0x00, NULL);
 1368              		.loc 4 57 2 is_stmt 0 discriminator 3
 1369 0a0c 488B18   		movq	(%rax), %rbx
 1370 0a0f E8000000 		call	_ZN8UnitTest11CurrentTest7DetailsEv@PLT
 1370      00
  57:testHexIO.cpp **** 	status = bufInitialise(&mask, 1024, 0x00, NULL);
 1371              		.loc 4 57 2 discriminator 11
 1372 0a14 488B08   		movq	(%rax), %rcx
 1373 0a17 488D45C0 		leaq	-64(%rbp), %rax
 1374 0a1b BA390000 		movl	$57, %edx
 1374      00
 1375 0a20 4889CE   		movq	%rcx, %rsi
 1376 0a23 4889C7   		movq	%rax, %rdi
 1377 0a26 E8000000 		call	_ZN8UnitTest11TestDetailsC1ERKS0_i@PLT
 1377      00
  57:testHexIO.cpp **** 	status = bufInitialise(&mask, 1024, 0x00, NULL);
 1378              		.loc 4 57 2 discriminator 15
 1379 0a2b 488D45C0 		leaq	-64(%rbp), %rax
 1380 0a2f 488D1500 		leaq	.LC4(%rip), %rdx
 1380      000000
 1381 0a36 4889C6   		movq	%rax, %rsi
 1382 0a39 4889DF   		movq	%rbx, %rdi
 1383 0a3c E8000000 		call	_ZN8UnitTest11TestResults13OnTestFailureERKNS_11TestDetailsEPKc@PLT
 1383      00
 1384              	.LEHE54:
 1385              	.LEHB55:
  57:testHexIO.cpp **** 	status = bufInitialise(&mask, 1024, 0x00, NULL);
 1386              		.loc 4 57 2 discriminator 17
 1387 0a41 E8000000 		call	__cxa_end_catch@PLT
 1387      00
 1388              	.LEHE55:
 1389 0a46 E9A6FDFF 		jmp	.L63
 1389      FF
 1390              	.L82:
 1391 0a4b F30F1EFA 		endbr64
  57:testHexIO.cpp **** 	status = bufInitialise(&mask, 1024, 0x00, NULL);
 1392              		.loc 4 57 2
 1393 0a4f 4889C3   		movq	%rax, %rbx
 1394 0a52 E8000000 		call	__cxa_end_catch@PLT
 1394      00
 1395 0a57 4889D8   		movq	%rbx, %rax
 1396 0a5a 4889C7   		movq	%rax, %rdi
 1397              	.LEHB56:
 1398 0a5d E8000000 		call	_Unwind_Resume@PLT
 1398      00
 1399              	.LEHE56:
 1400              	.L83:
 1401 0a62 F30F1EFA 		endbr64
  59:testHexIO.cpp **** 	status = bufProcessLine(line, 0, &data, &mask, &seg, &recordType, NULL);
 1402              		.loc 4 59 2 is_stmt 1
 1403 0a66 4889C7   		movq	%rax, %rdi
 1404 0a69 E8000000 		call	__cxa_begin_catch@PLT
 1404      00
 1405              	.LEHB57:
 1406 0a6e E8000000 		call	_ZN8UnitTest11CurrentTest7ResultsEv@PLT
 1406      00
  59:testHexIO.cpp **** 	status = bufProcessLine(line, 0, &data, &mask, &seg, &recordType, NULL);
 1407              		.loc 4 59 2 is_stmt 0 discriminator 3
 1408 0a73 488B18   		movq	(%rax), %rbx
 1409 0a76 E8000000 		call	_ZN8UnitTest11CurrentTest7DetailsEv@PLT
 1409      00
  59:testHexIO.cpp **** 	status = bufProcessLine(line, 0, &data, &mask, &seg, &recordType, NULL);
 1410              		.loc 4 59 2 discriminator 11
 1411 0a7b 488B08   		movq	(%rax), %rcx
 1412 0a7e 488D45C0 		leaq	-64(%rbp), %rax
 1413 0a82 BA3B0000 		movl	$59, %edx
 1413      00
 1414 0a87 4889CE   		movq	%rcx, %rsi
 1415 0a8a 4889C7   		movq	%rax, %rdi
 1416 0a8d E8000000 		call	_ZN8UnitTest11TestDetailsC1ERKS0_i@PLT
 1416      00
  59:testHexIO.cpp **** 	status = bufProcessLine(line, 0, &data, &mask, &seg, &recordType, NULL);
 1417              		.loc 4 59 2 discriminator 15
 1418 0a92 488D45C0 		leaq	-64(%rbp), %rax
 1419 0a96 488D1500 		leaq	.LC4(%rip), %rdx
 1419      000000
 1420 0a9d 4889C6   		movq	%rax, %rsi
 1421 0aa0 4889DF   		movq	%rbx, %rdi
 1422 0aa3 E8000000 		call	_ZN8UnitTest11TestResults13OnTestFailureERKNS_11TestDetailsEPKc@PLT
 1422      00
 1423              	.LEHE57:
 1424              	.LEHB58:
  59:testHexIO.cpp **** 	status = bufProcessLine(line, 0, &data, &mask, &seg, &recordType, NULL);
 1425              		.loc 4 59 2 discriminator 17
 1426 0aa8 E8000000 		call	__cxa_end_catch@PLT
 1426      00
 1427              	.LEHE58:
 1428 0aad E9A8FDFF 		jmp	.L66
 1428      FF
 1429              	.L84:
 1430 0ab2 F30F1EFA 		endbr64
  59:testHexIO.cpp **** 	status = bufProcessLine(line, 0, &data, &mask, &seg, &recordType, NULL);
 1431              		.loc 4 59 2
 1432 0ab6 4889C3   		movq	%rax, %rbx
 1433 0ab9 E8000000 		call	__cxa_end_catch@PLT
 1433      00
 1434 0abe 4889D8   		movq	%rbx, %rax
 1435 0ac1 4889C7   		movq	%rax, %rdi
 1436              	.LEHB59:
 1437 0ac4 E8000000 		call	_Unwind_Resume@PLT
 1437      00
 1438              	.LEHE59:
 1439              	.L85:
 1440 0ac9 F30F1EFA 		endbr64
  61:testHexIO.cpp **** 	CHECK_EQUAL(0x01, recordType);
 1441              		.loc 4 61 2 is_stmt 1
 1442 0acd 4889C7   		movq	%rax, %rdi
 1443 0ad0 E8000000 		call	__cxa_begin_catch@PLT
 1443      00
 1444              	.LEHB60:
 1445 0ad5 E8000000 		call	_ZN8UnitTest11CurrentTest7ResultsEv@PLT
 1445      00
  61:testHexIO.cpp **** 	CHECK_EQUAL(0x01, recordType);
 1446              		.loc 4 61 2 is_stmt 0 discriminator 3
 1447 0ada 488B18   		movq	(%rax), %rbx
 1448 0add E8000000 		call	_ZN8UnitTest11CurrentTest7DetailsEv@PLT
 1448      00
  61:testHexIO.cpp **** 	CHECK_EQUAL(0x01, recordType);
 1449              		.loc 4 61 2 discriminator 11
 1450 0ae2 488B08   		movq	(%rax), %rcx
 1451 0ae5 488D45C0 		leaq	-64(%rbp), %rax
 1452 0ae9 BA3D0000 		movl	$61, %edx
 1452      00
 1453 0aee 4889CE   		movq	%rcx, %rsi
 1454 0af1 4889C7   		movq	%rax, %rdi
 1455 0af4 E8000000 		call	_ZN8UnitTest11TestDetailsC1ERKS0_i@PLT
 1455      00
  61:testHexIO.cpp **** 	CHECK_EQUAL(0x01, recordType);
 1456              		.loc 4 61 2 discriminator 15
 1457 0af9 488D45C0 		leaq	-64(%rbp), %rax
 1458 0afd 488D1500 		leaq	.LC4(%rip), %rdx
 1458      000000
 1459 0b04 4889C6   		movq	%rax, %rsi
 1460 0b07 4889DF   		movq	%rbx, %rdi
 1461 0b0a E8000000 		call	_ZN8UnitTest11TestResults13OnTestFailureERKNS_11TestDetailsEPKc@PLT
 1461      00
 1462              	.LEHE60:
 1463              	.LEHB61:
  61:testHexIO.cpp **** 	CHECK_EQUAL(0x01, recordType);
 1464              		.loc 4 61 2 discriminator 17
 1465 0b0f E8000000 		call	__cxa_end_catch@PLT
 1465      00
 1466              	.LEHE61:
 1467 0b14 E9C9FDFF 		jmp	.L69
 1467      FF
 1468              	.L86:
 1469 0b19 F30F1EFA 		endbr64
  61:testHexIO.cpp **** 	CHECK_EQUAL(0x01, recordType);
 1470              		.loc 4 61 2
 1471 0b1d 4889C3   		movq	%rax, %rbx
 1472 0b20 E8000000 		call	__cxa_end_catch@PLT
 1472      00
 1473 0b25 4889D8   		movq	%rbx, %rax
 1474 0b28 4889C7   		movq	%rax, %rdi
 1475              	.LEHB62:
 1476 0b2b E8000000 		call	_Unwind_Resume@PLT
 1476      00
 1477              	.LEHE62:
 1478              	.L87:
 1479 0b30 F30F1EFA 		endbr64
  62:testHexIO.cpp **** 	CHECK_EQUAL(0UL, data.length);
 1480              		.loc 4 62 2 is_stmt 1
 1481 0b34 4889C7   		movq	%rax, %rdi
 1482 0b37 E8000000 		call	__cxa_begin_catch@PLT
 1482      00
 1483              	.LEHB63:
 1484 0b3c E8000000 		call	_ZN8UnitTest11CurrentTest7ResultsEv@PLT
 1484      00
  62:testHexIO.cpp **** 	CHECK_EQUAL(0UL, data.length);
 1485              		.loc 4 62 2 is_stmt 0 discriminator 3
 1486 0b41 488B18   		movq	(%rax), %rbx
 1487 0b44 E8000000 		call	_ZN8UnitTest11CurrentTest7DetailsEv@PLT
 1487      00
  62:testHexIO.cpp **** 	CHECK_EQUAL(0UL, data.length);
 1488              		.loc 4 62 2 discriminator 11
 1489 0b49 488B08   		movq	(%rax), %rcx
 1490 0b4c 488D45C0 		leaq	-64(%rbp), %rax
 1491 0b50 BA3E0000 		movl	$62, %edx
 1491      00
 1492 0b55 4889CE   		movq	%rcx, %rsi
 1493 0b58 4889C7   		movq	%rax, %rdi
 1494 0b5b E8000000 		call	_ZN8UnitTest11TestDetailsC1ERKS0_i@PLT
 1494      00
  62:testHexIO.cpp **** 	CHECK_EQUAL(0UL, data.length);
 1495              		.loc 4 62 2 discriminator 15
 1496 0b60 488D45C0 		leaq	-64(%rbp), %rax
 1497 0b64 488D1500 		leaq	.LC13(%rip), %rdx
 1497      000000
 1498 0b6b 4889C6   		movq	%rax, %rsi
 1499 0b6e 4889DF   		movq	%rbx, %rdi
 1500 0b71 E8000000 		call	_ZN8UnitTest11TestResults13OnTestFailureERKNS_11TestDetailsEPKc@PLT
 1500      00
 1501              	.LEHE63:
 1502              	.LEHB64:
  62:testHexIO.cpp **** 	CHECK_EQUAL(0UL, data.length);
 1503              		.loc 4 62 2 discriminator 17
 1504 0b76 E8000000 		call	__cxa_end_catch@PLT
 1504      00
 1505              	.LEHE64:
 1506 0b7b E9AAFDFF 		jmp	.L72
 1506      FF
 1507              	.L88:
 1508 0b80 F30F1EFA 		endbr64
  62:testHexIO.cpp **** 	CHECK_EQUAL(0UL, data.length);
 1509              		.loc 4 62 2
 1510 0b84 4889C3   		movq	%rax, %rbx
 1511 0b87 E8000000 		call	__cxa_end_catch@PLT
 1511      00
 1512 0b8c 4889D8   		movq	%rbx, %rax
 1513 0b8f 4889C7   		movq	%rax, %rdi
 1514              	.LEHB65:
 1515 0b92 E8000000 		call	_Unwind_Resume@PLT
 1515      00
 1516              	.LEHE65:
 1517              	.L89:
 1518 0b97 F30F1EFA 		endbr64
  63:testHexIO.cpp **** 	CHECK_EQUAL(0UL, mask.length);
 1519              		.loc 4 63 2 is_stmt 1
 1520 0b9b 4889C7   		movq	%rax, %rdi
 1521 0b9e E8000000 		call	__cxa_begin_catch@PLT
 1521      00
 1522              	.LEHB66:
 1523 0ba3 E8000000 		call	_ZN8UnitTest11CurrentTest7ResultsEv@PLT
 1523      00
  63:testHexIO.cpp **** 	CHECK_EQUAL(0UL, mask.length);
 1524              		.loc 4 63 2 is_stmt 0 discriminator 3
 1525 0ba8 488B18   		movq	(%rax), %rbx
 1526 0bab E8000000 		call	_ZN8UnitTest11CurrentTest7DetailsEv@PLT
 1526      00
  63:testHexIO.cpp **** 	CHECK_EQUAL(0UL, mask.length);
 1527              		.loc 4 63 2 discriminator 11
 1528 0bb0 488B08   		movq	(%rax), %rcx
 1529 0bb3 488D45C0 		leaq	-64(%rbp), %rax
 1530 0bb7 BA3F0000 		movl	$63, %edx
 1530      00
 1531 0bbc 4889CE   		movq	%rcx, %rsi
 1532 0bbf 4889C7   		movq	%rax, %rdi
 1533 0bc2 E8000000 		call	_ZN8UnitTest11TestDetailsC1ERKS0_i@PLT
 1533      00
  63:testHexIO.cpp **** 	CHECK_EQUAL(0UL, mask.length);
 1534              		.loc 4 63 2 discriminator 15
 1535 0bc7 488D45C0 		leaq	-64(%rbp), %rax
 1536 0bcb 488D1500 		leaq	.LC14(%rip), %rdx
 1536      000000
 1537 0bd2 4889C6   		movq	%rax, %rsi
 1538 0bd5 4889DF   		movq	%rbx, %rdi
 1539 0bd8 E8000000 		call	_ZN8UnitTest11TestResults13OnTestFailureERKNS_11TestDetailsEPKc@PLT
 1539      00
 1540              	.LEHE66:
 1541              	.LEHB67:
  63:testHexIO.cpp **** 	CHECK_EQUAL(0UL, mask.length);
 1542              		.loc 4 63 2 discriminator 17
 1543 0bdd E8000000 		call	__cxa_end_catch@PLT
 1543      00
 1544              	.LEHE67:
 1545 0be2 E993FDFF 		jmp	.L75
 1545      FF
 1546              	.L90:
 1547 0be7 F30F1EFA 		endbr64
  63:testHexIO.cpp **** 	CHECK_EQUAL(0UL, mask.length);
 1548              		.loc 4 63 2
 1549 0beb 4889C3   		movq	%rax, %rbx
 1550 0bee E8000000 		call	__cxa_end_catch@PLT
 1550      00
 1551 0bf3 4889D8   		movq	%rbx, %rax
 1552 0bf6 4889C7   		movq	%rax, %rdi
 1553              	.LEHB68:
 1554 0bf9 E8000000 		call	_Unwind_Resume@PLT
 1554      00
 1555              	.LEHE68:
 1556              	.L91:
 1557 0bfe F30F1EFA 		endbr64
  64:testHexIO.cpp **** 	bufDestroy(&mask);
 1558              		.loc 4 64 2 is_stmt 1
 1559 0c02 4889C7   		movq	%rax, %rdi
 1560 0c05 E8000000 		call	__cxa_begin_catch@PLT
 1560      00
 1561              	.LEHB69:
 1562 0c0a E8000000 		call	_ZN8UnitTest11CurrentTest7ResultsEv@PLT
 1562      00
  64:testHexIO.cpp **** 	bufDestroy(&mask);
 1563              		.loc 4 64 2 is_stmt 0 discriminator 3
 1564 0c0f 488B18   		movq	(%rax), %rbx
 1565 0c12 E8000000 		call	_ZN8UnitTest11CurrentTest7DetailsEv@PLT
 1565      00
  64:testHexIO.cpp **** 	bufDestroy(&mask);
 1566              		.loc 4 64 2 discriminator 11
 1567 0c17 488B08   		movq	(%rax), %rcx
 1568 0c1a 488D45C0 		leaq	-64(%rbp), %rax
 1569 0c1e BA400000 		movl	$64, %edx
 1569      00
 1570 0c23 4889CE   		movq	%rcx, %rsi
 1571 0c26 4889C7   		movq	%rax, %rdi
 1572 0c29 E8000000 		call	_ZN8UnitTest11TestDetailsC1ERKS0_i@PLT
 1572      00
  64:testHexIO.cpp **** 	bufDestroy(&mask);
 1573              		.loc 4 64 2 discriminator 15
 1574 0c2e 488D45C0 		leaq	-64(%rbp), %rax
 1575 0c32 488D1500 		leaq	.LC15(%rip), %rdx
 1575      000000
 1576 0c39 4889C6   		movq	%rax, %rsi
 1577 0c3c 4889DF   		movq	%rbx, %rdi
 1578 0c3f E8000000 		call	_ZN8UnitTest11TestResults13OnTestFailureERKNS_11TestDetailsEPKc@PLT
 1578      00
 1579              	.LEHE69:
 1580              	.LEHB70:
  64:testHexIO.cpp **** 	bufDestroy(&mask);
 1581              		.loc 4 64 2 discriminator 17
 1582 0c44 E8000000 		call	__cxa_end_catch@PLT
 1582      00
 1583              	.LEHE70:
 1584 0c49 E97CFDFF 		jmp	.L78
 1584      FF
 1585              	.L92:
 1586 0c4e F30F1EFA 		endbr64
  64:testHexIO.cpp **** 	bufDestroy(&mask);
 1587              		.loc 4 64 2
 1588 0c52 4889C3   		movq	%rax, %rbx
 1589 0c55 E8000000 		call	__cxa_end_catch@PLT
 1589      00
 1590 0c5a 4889D8   		movq	%rbx, %rax
 1591 0c5d 4889C7   		movq	%rax, %rdi
 1592              	.LEHB71:
 1593 0c60 E8000000 		call	_Unwind_Resume@PLT
 1593      00
 1594              	.LEHE71:
 1595              	.L93:
 1596              		.loc 4 67 1 is_stmt 1
 1597 0c65 E8000000 		call	__stack_chk_fail@PLT
 1597      00
 1598              	.L80:
 1599 0c6a 488B5DF8 		movq	-8(%rbp), %rbx
 1600 0c6e C9       		leave
 1601              		.cfi_def_cfa 7, 8
 1602 0c6f C3       		ret
 1603              		.cfi_endproc
 1604              	.LFE1216:
 1605              		.section	.gcc_except_table
 1606              		.align 4
 1607              	.LLSDA1216:
 1608 00e8 FF       		.byte	0xff
 1609 00e9 9B       		.byte	0x9b
 1610 00ea A001     		.uleb128 .LLSDATT1216-.LLSDATTD1216
 1611              	.LLSDATTD1216:
 1612 00ec 01       		.byte	0x1
 1613 00ed 9601     		.uleb128 .LLSDACSE1216-.LLSDACSB1216
 1614              	.LLSDACSB1216:
 1615 00ef 54       		.uleb128 .LEHB44-.LFB1216
 1616 00f0 05       		.uleb128 .LEHE44-.LEHB44
 1617 00f1 00       		.uleb128 0
 1618 00f2 00       		.uleb128 0
 1619 00f3 5F       		.uleb128 .LEHB45-.LFB1216
 1620 00f4 42       		.uleb128 .LEHE45-.LEHB45
 1621 00f5 AB05     		.uleb128 .L81-.LFB1216
 1622 00f7 01       		.uleb128 0x1
 1623 00f8 B701     		.uleb128 .LEHB46-.LFB1216
 1624 00fa 05       		.uleb128 .LEHE46-.LEHB46
 1625 00fb 00       		.uleb128 0
 1626 00fc 00       		.uleb128 0
 1627 00fd C201     		.uleb128 .LEHB47-.LFB1216
 1628 00ff 48       		.uleb128 .LEHE47-.LEHB47
 1629 0100 9206     		.uleb128 .L83-.LFB1216
 1630 0102 01       		.uleb128 0x1
 1631 0103 BB02     		.uleb128 .LEHB48-.LFB1216
 1632 0105 05       		.uleb128 .LEHE48-.LEHB48
 1633 0106 00       		.uleb128 0
 1634 0107 00       		.uleb128 0
 1635 0108 CA02     		.uleb128 .LEHB49-.LFB1216
 1636 010a 48       		.uleb128 .LEHE49-.LEHB49
 1637 010b F906     		.uleb128 .L85-.LFB1216
 1638 010d 01       		.uleb128 0x1
 1639 010e 9203     		.uleb128 .LEHB50-.LFB1216
 1640 0110 48       		.uleb128 .LEHE50-.LEHB50
 1641 0111 E007     		.uleb128 .L87-.LFB1216
 1642 0113 01       		.uleb128 0x1
 1643 0114 DA03     		.uleb128 .LEHB51-.LFB1216
 1644 0116 50       		.uleb128 .LEHE51-.LEHB51
 1645 0117 C708     		.uleb128 .L89-.LFB1216
 1646 0119 01       		.uleb128 0x1
 1647 011a AA04     		.uleb128 .LEHB52-.LFB1216
 1648 011c 50       		.uleb128 .LEHE52-.LEHB52
 1649 011d AE09     		.uleb128 .L91-.LFB1216
 1650 011f 01       		.uleb128 0x1
 1651 0120 8105     		.uleb128 .LEHB53-.LFB1216
 1652 0122 11       		.uleb128 .LEHE53-.LEHB53
 1653 0123 00       		.uleb128 0
 1654 0124 00       		.uleb128 0
 1655 0125 B705     		.uleb128 .LEHB54-.LFB1216
 1656 0127 3A       		.uleb128 .LEHE54-.LEHB54
 1657 0128 FB05     		.uleb128 .L82-.LFB1216
 1658 012a 00       		.uleb128 0
 1659 012b F105     		.uleb128 .LEHB55-.LFB1216
 1660 012d 05       		.uleb128 .LEHE55-.LEHB55
 1661 012e 00       		.uleb128 0
 1662 012f 00       		.uleb128 0
 1663 0130 8D06     		.uleb128 .LEHB56-.LFB1216
 1664 0132 05       		.uleb128 .LEHE56-.LEHB56
 1665 0133 00       		.uleb128 0
 1666 0134 00       		.uleb128 0
 1667 0135 9E06     		.uleb128 .LEHB57-.LFB1216
 1668 0137 3A       		.uleb128 .LEHE57-.LEHB57
 1669 0138 E206     		.uleb128 .L84-.LFB1216
 1670 013a 00       		.uleb128 0
 1671 013b D806     		.uleb128 .LEHB58-.LFB1216
 1672 013d 05       		.uleb128 .LEHE58-.LEHB58
 1673 013e 00       		.uleb128 0
 1674 013f 00       		.uleb128 0
 1675 0140 F406     		.uleb128 .LEHB59-.LFB1216
 1676 0142 05       		.uleb128 .LEHE59-.LEHB59
 1677 0143 00       		.uleb128 0
 1678 0144 00       		.uleb128 0
 1679 0145 8507     		.uleb128 .LEHB60-.LFB1216
 1680 0147 3A       		.uleb128 .LEHE60-.LEHB60
 1681 0148 C907     		.uleb128 .L86-.LFB1216
 1682 014a 00       		.uleb128 0
 1683 014b BF07     		.uleb128 .LEHB61-.LFB1216
 1684 014d 05       		.uleb128 .LEHE61-.LEHB61
 1685 014e 00       		.uleb128 0
 1686 014f 00       		.uleb128 0
 1687 0150 DB07     		.uleb128 .LEHB62-.LFB1216
 1688 0152 05       		.uleb128 .LEHE62-.LEHB62
 1689 0153 00       		.uleb128 0
 1690 0154 00       		.uleb128 0
 1691 0155 EC07     		.uleb128 .LEHB63-.LFB1216
 1692 0157 3A       		.uleb128 .LEHE63-.LEHB63
 1693 0158 B008     		.uleb128 .L88-.LFB1216
 1694 015a 00       		.uleb128 0
 1695 015b A608     		.uleb128 .LEHB64-.LFB1216
 1696 015d 05       		.uleb128 .LEHE64-.LEHB64
 1697 015e 00       		.uleb128 0
 1698 015f 00       		.uleb128 0
 1699 0160 C208     		.uleb128 .LEHB65-.LFB1216
 1700 0162 05       		.uleb128 .LEHE65-.LEHB65
 1701 0163 00       		.uleb128 0
 1702 0164 00       		.uleb128 0
 1703 0165 D308     		.uleb128 .LEHB66-.LFB1216
 1704 0167 3A       		.uleb128 .LEHE66-.LEHB66
 1705 0168 9709     		.uleb128 .L90-.LFB1216
 1706 016a 00       		.uleb128 0
 1707 016b 8D09     		.uleb128 .LEHB67-.LFB1216
 1708 016d 05       		.uleb128 .LEHE67-.LEHB67
 1709 016e 00       		.uleb128 0
 1710 016f 00       		.uleb128 0
 1711 0170 A909     		.uleb128 .LEHB68-.LFB1216
 1712 0172 05       		.uleb128 .LEHE68-.LEHB68
 1713 0173 00       		.uleb128 0
 1714 0174 00       		.uleb128 0
 1715 0175 BA09     		.uleb128 .LEHB69-.LFB1216
 1716 0177 3A       		.uleb128 .LEHE69-.LEHB69
 1717 0178 FE09     		.uleb128 .L92-.LFB1216
 1718 017a 00       		.uleb128 0
 1719 017b F409     		.uleb128 .LEHB70-.LFB1216
 1720 017d 05       		.uleb128 .LEHE70-.LEHB70
 1721 017e 00       		.uleb128 0
 1722 017f 00       		.uleb128 0
 1723 0180 900A     		.uleb128 .LEHB71-.LFB1216
 1724 0182 05       		.uleb128 .LEHE71-.LEHB71
 1725 0183 00       		.uleb128 0
 1726 0184 00       		.uleb128 0
 1727              	.LLSDACSE1216:
 1728 0185 01       		.byte	0x1
 1729 0186 00       		.byte	0
 1730 0187 00       		.align 4
 1731 0188 00000000 		.long	0
 1732              	
 1733              	.LLSDATT1216:
 1734              		.text
 1736              		.section	.rodata
 1737              	.LC16:
 1738 02c5 48657849 		.string	"HexIO_testJunkStartCode"
 1738      4F5F7465 
 1738      73744A75 
 1738      6E6B5374 
 1738      61727443 
 1739              		.section	.text._ZN27TestHexIO_testJunkStartCodeC2Ev,"axG",@progbits,_ZN27TestHexIO_testJunkStartCo
 1740              		.align 2
 1741              		.weak	_ZN27TestHexIO_testJunkStartCodeC2Ev
 1743              	_ZN27TestHexIO_testJunkStartCodeC2Ev:
 1744              	.LFB1218:
  68:testHexIO.cpp **** 
  69:testHexIO.cpp **** TEST(HexIO_testJunkStartCode) {
 1745              		.loc 4 69 1
 1746              		.cfi_startproc
 1747 0000 F30F1EFA 		endbr64
 1748 0004 55       		pushq	%rbp
 1749              		.cfi_def_cfa_offset 16
 1750              		.cfi_offset 6, -16
 1751 0005 4889E5   		movq	%rsp, %rbp
 1752              		.cfi_def_cfa_register 6
 1753 0008 53       		pushq	%rbx
 1754 0009 4883EC18 		subq	$24, %rsp
 1755              		.cfi_offset 3, -24
 1756 000d 48897DE8 		movq	%rdi, -24(%rbp)
 1757              	.LBB6:
 1758              		.loc 4 69 1
 1759 0011 488B5DE8 		movq	-24(%rbp), %rbx
 1760 0015 E8000000 		call	_ZN13UnitTestSuite12GetSuiteNameEv
 1760      00
 1761 001a 4889C2   		movq	%rax, %rdx
 1762 001d 41B84500 		movl	$69, %r8d
 1762      0000
 1763 0023 488D0500 		leaq	.LC1(%rip), %rax
 1763      000000
 1764 002a 4889C1   		movq	%rax, %rcx
 1765 002d 488D0500 		leaq	.LC16(%rip), %rax
 1765      000000
 1766 0034 4889C6   		movq	%rax, %rsi
 1767 0037 4889DF   		movq	%rbx, %rdi
 1768 003a E8000000 		call	_ZN8UnitTest4TestC2EPKcS2_S2_i@PLT
 1768      00
 1769 003f 488D1500 		leaq	16+_ZTV27TestHexIO_testJunkStartCode(%rip), %rdx
 1769      000000
 1770 0046 488B45E8 		movq	-24(%rbp), %rax
 1771 004a 488910   		movq	%rdx, (%rax)
 1772              	.LBE6:
 1773 004d 90       		nop
 1774 004e 488B5DF8 		movq	-8(%rbp), %rbx
 1775 0052 C9       		leave
 1776              		.cfi_def_cfa 7, 8
 1777 0053 C3       		ret
 1778              		.cfi_endproc
 1779              	.LFE1218:
 1781              		.weak	_ZN27TestHexIO_testJunkStartCodeC1Ev
 1782              		.set	_ZN27TestHexIO_testJunkStartCodeC1Ev,_ZN27TestHexIO_testJunkStartCodeC2Ev
 1783              		.globl	testHexIO_testJunkStartCodeInstance
 1784              		.bss
 1785 0079 00000000 		.align 32
 1785      000000
 1788              	testHexIO_testJunkStartCodeInstance:
 1789 0080 00000000 		.zero	56
 1789      00000000 
 1789      00000000 
 1789      00000000 
 1789      00000000 
 1790              		.globl	adderHexIO_testJunkStartCode
 1793              	adderHexIO_testJunkStartCode:
 1794 00b8 00       		.zero	1
 1795              		.section	.rodata
 1796              	.LC17:
 1797 02dd 2E303430 		.string	".040BE10075820022F7\n"
 1797      42453130 
 1797      30373538 
 1797      32303032 
 1797      3246370A 
 1798 02f2 00000000 		.align 8
 1798      0000
 1799              	.LC18:
 1800 02f8 556E6861 		.string	"Unhandled exception in CHECK_EQUAL(HEX_JUNK_START_CODE, status)"
 1800      6E646C65 
 1800      64206578 
 1800      63657074 
 1800      696F6E20 
 1801              		.text
 1802              		.align 2
 1803              		.globl	_ZNK27TestHexIO_testJunkStartCode7RunImplEv
 1805              	_ZNK27TestHexIO_testJunkStartCode7RunImplEv:
 1806              	.LFB1220:
 1807              		.loc 4 69 31
 1808              		.cfi_startproc
 1809              		.cfi_personality 0x9b,DW.ref.__gxx_personality_v0
 1810              		.cfi_lsda 0x1b,.LLSDA1220
 1811 0c70 F30F1EFA 		endbr64
 1812 0c74 55       		pushq	%rbp
 1813              		.cfi_def_cfa_offset 16
 1814              		.cfi_offset 6, -16
 1815 0c75 4889E5   		movq	%rsp, %rbp
 1816              		.cfi_def_cfa_register 6
 1817 0c78 53       		pushq	%rbx
 1818 0c79 4881EC88 		subq	$136, %rsp
 1818      000000
 1819              		.cfi_offset 3, -24
 1820 0c80 4889BD78 		movq	%rdi, -136(%rbp)
 1820      FFFFFF
 1821              		.loc 4 69 31
 1822 0c87 64488B04 		movq	%fs:40, %rax
 1822      25280000 
 1822      00
 1823 0c90 488945E8 		movq	%rax, -24(%rbp)
 1824 0c94 31C0     		xorl	%eax, %eax
  70:testHexIO.cpp **** 	Buffer data;
  71:testHexIO.cpp **** 	BufferStatus status;
  72:testHexIO.cpp **** 	const char *line = ".040BE10075820022F7\n";
 1825              		.loc 4 72 14
 1826 0c96 488D0500 		leaq	.LC17(%rip), %rax
 1826      000000
 1827 0c9d 48894598 		movq	%rax, -104(%rbp)
  73:testHexIO.cpp **** 	uint8 recordType;
  74:testHexIO.cpp **** 	uint32 seg = 0x00000000;
 1828              		.loc 4 74 9
 1829 0ca1 C7459000 		movl	$0, -112(%rbp)
 1829      000000
  75:testHexIO.cpp **** 	status = bufInitialise(&data, 1024, 0x00, NULL);
 1830              		.loc 4 75 24
 1831 0ca8 488D45A0 		leaq	-96(%rbp), %rax
 1832 0cac B9000000 		movl	$0, %ecx
 1832      00
 1833 0cb1 BA000000 		movl	$0, %edx
 1833      00
 1834 0cb6 BE000400 		movl	$1024, %esi
 1834      00
 1835 0cbb 4889C7   		movq	%rax, %rdi
 1836              	.LEHB72:
 1837 0cbe E8000000 		call	bufInitialise@PLT
 1837      00
 1838              	.LEHE72:
 1839              		.loc 4 75 9
 1840 0cc3 89458C   		movl	%eax, -116(%rbp)
 1841              	.LEHB73:
  76:testHexIO.cpp **** 	CHECK_EQUAL(BUF_SUCCESS, status);
 1842              		.loc 4 76 2
 1843 0cc6 E8000000 		call	_ZN8UnitTest11CurrentTest7DetailsEv@PLT
 1843      00
 1844 0ccb 488B08   		movq	(%rax), %rcx
 1845 0cce 488D45C0 		leaq	-64(%rbp), %rax
 1846 0cd2 BA4C0000 		movl	$76, %edx
 1846      00
 1847 0cd7 4889CE   		movq	%rcx, %rsi
 1848 0cda 4889C7   		movq	%rax, %rdi
 1849 0cdd E8000000 		call	_ZN8UnitTest11TestDetailsC1ERKS0_i@PLT
 1849      00
 1850              		.loc 4 76 2 is_stmt 0 discriminator 4
 1851 0ce2 C7459400 		movl	$0, -108(%rbp)
 1851      000000
 1852 0ce9 E8000000 		call	_ZN8UnitTest11CurrentTest7ResultsEv@PLT
 1852      00
 1853 0cee 488B00   		movq	(%rax), %rax
 1854 0cf1 488D4DC0 		leaq	-64(%rbp), %rcx
 1855 0cf5 488D558C 		leaq	-116(%rbp), %rdx
 1856 0cf9 488D7594 		leaq	-108(%rbp), %rsi
 1857 0cfd 4889C7   		movq	%rax, %rdi
 1858 0d00 E8000000 		call	_ZN8UnitTest10CheckEqualI12BufferStatusS1_EEvRNS_11TestResultsERKT_RKT0_RKNS_11TestDetailsE
 1858      00
 1859              	.LEHE73:
 1860              	.L97:
  77:testHexIO.cpp **** 	status = bufProcessLine(line, 0, &data, NULL, &seg, &recordType, NULL);
 1861              		.loc 4 77 25 is_stmt 1
 1862 0d05 488D758B 		leaq	-117(%rbp), %rsi
 1863 0d09 488D4D90 		leaq	-112(%rbp), %rcx
 1864 0d0d 488D55A0 		leaq	-96(%rbp), %rdx
 1865 0d11 488B4598 		movq	-104(%rbp), %rax
 1866 0d15 4883EC08 		subq	$8, %rsp
 1867 0d19 6A00     		pushq	$0
 1868 0d1b 4989F1   		movq	%rsi, %r9
 1869 0d1e 4989C8   		movq	%rcx, %r8
 1870 0d21 B9000000 		movl	$0, %ecx
 1870      00
 1871 0d26 BE000000 		movl	$0, %esi
 1871      00
 1872 0d2b 4889C7   		movq	%rax, %rdi
 1873              	.LEHB74:
 1874 0d2e E8000000 		call	bufProcessLine@PLT
 1874      00
 1875              	.LEHE74:
 1876 0d33 4883C410 		addq	$16, %rsp
 1877              		.loc 4 77 9
 1878 0d37 89458C   		movl	%eax, -116(%rbp)
 1879              	.LEHB75:
  78:testHexIO.cpp **** 	CHECK_EQUAL(HEX_JUNK_START_CODE, status);
 1880              		.loc 4 78 2
 1881 0d3a E8000000 		call	_ZN8UnitTest11CurrentTest7DetailsEv@PLT
 1881      00
 1882 0d3f 488B08   		movq	(%rax), %rcx
 1883 0d42 488D45C0 		leaq	-64(%rbp), %rax
 1884 0d46 BA4E0000 		movl	$78, %edx
 1884      00
 1885 0d4b 4889CE   		movq	%rcx, %rsi
 1886 0d4e 4889C7   		movq	%rax, %rdi
 1887 0d51 E8000000 		call	_ZN8UnitTest11TestDetailsC1ERKS0_i@PLT
 1887      00
 1888              		.loc 4 78 2 is_stmt 0 discriminator 4
 1889 0d56 C7459408 		movl	$8, -108(%rbp)
 1889      000000
 1890 0d5d E8000000 		call	_ZN8UnitTest11CurrentTest7ResultsEv@PLT
 1890      00
 1891 0d62 488B00   		movq	(%rax), %rax
 1892 0d65 488D4DC0 		leaq	-64(%rbp), %rcx
 1893 0d69 488D558C 		leaq	-116(%rbp), %rdx
 1894 0d6d 488D7594 		leaq	-108(%rbp), %rsi
 1895 0d71 4889C7   		movq	%rax, %rdi
 1896 0d74 E8000000 		call	_ZN8UnitTest10CheckEqualI12BufferStatusS1_EEvRNS_11TestResultsERKT_RKT0_RKNS_11TestDetailsE
 1896      00
 1897              	.LEHE75:
 1898              	.L100:
  79:testHexIO.cpp **** 	bufDestroy(&data);
 1899              		.loc 4 79 12 is_stmt 1
 1900 0d79 488D45A0 		leaq	-96(%rbp), %rax
 1901 0d7d 4889C7   		movq	%rax, %rdi
 1902              	.LEHB76:
 1903 0d80 E8000000 		call	bufDestroy@PLT
 1903      00
 1904              	.LEHE76:
  80:testHexIO.cpp **** }
 1905              		.loc 4 80 1
 1906 0d85 90       		nop
 1907 0d86 488B45E8 		movq	-24(%rbp), %rax
 1908 0d8a 64482B04 		subq	%fs:40, %rax
 1908      25280000 
 1908      00
 1909 0d93 0F84D800 		je	.L102
 1909      0000
 1910 0d99 E9CE0000 		jmp	.L107
 1910      00
 1911              	.L103:
 1912 0d9e F30F1EFA 		endbr64
  76:testHexIO.cpp **** 	status = bufProcessLine(line, 0, &data, NULL, &seg, &recordType, NULL);
 1913              		.loc 4 76 2
 1914 0da2 4889C7   		movq	%rax, %rdi
 1915 0da5 E8000000 		call	__cxa_begin_catch@PLT
 1915      00
 1916              	.LEHB77:
 1917 0daa E8000000 		call	_ZN8UnitTest11CurrentTest7ResultsEv@PLT
 1917      00
  76:testHexIO.cpp **** 	status = bufProcessLine(line, 0, &data, NULL, &seg, &recordType, NULL);
 1918              		.loc 4 76 2 is_stmt 0 discriminator 3
 1919 0daf 488B18   		movq	(%rax), %rbx
 1920 0db2 E8000000 		call	_ZN8UnitTest11CurrentTest7DetailsEv@PLT
 1920      00
  76:testHexIO.cpp **** 	status = bufProcessLine(line, 0, &data, NULL, &seg, &recordType, NULL);
 1921              		.loc 4 76 2 discriminator 11
 1922 0db7 488B08   		movq	(%rax), %rcx
 1923 0dba 488D45C0 		leaq	-64(%rbp), %rax
 1924 0dbe BA4C0000 		movl	$76, %edx
 1924      00
 1925 0dc3 4889CE   		movq	%rcx, %rsi
 1926 0dc6 4889C7   		movq	%rax, %rdi
 1927 0dc9 E8000000 		call	_ZN8UnitTest11TestDetailsC1ERKS0_i@PLT
 1927      00
  76:testHexIO.cpp **** 	status = bufProcessLine(line, 0, &data, NULL, &seg, &recordType, NULL);
 1928              		.loc 4 76 2 discriminator 15
 1929 0dce 488D45C0 		leaq	-64(%rbp), %rax
 1930 0dd2 488D1500 		leaq	.LC4(%rip), %rdx
 1930      000000
 1931 0dd9 4889C6   		movq	%rax, %rsi
 1932 0ddc 4889DF   		movq	%rbx, %rdi
 1933 0ddf E8000000 		call	_ZN8UnitTest11TestResults13OnTestFailureERKNS_11TestDetailsEPKc@PLT
 1933      00
 1934              	.LEHE77:
 1935              	.LEHB78:
  76:testHexIO.cpp **** 	status = bufProcessLine(line, 0, &data, NULL, &seg, &recordType, NULL);
 1936              		.loc 4 76 2 discriminator 17
 1937 0de4 E8000000 		call	__cxa_end_catch@PLT
 1937      00
 1938              	.LEHE78:
 1939 0de9 E917FFFF 		jmp	.L97
 1939      FF
 1940              	.L104:
 1941 0dee F30F1EFA 		endbr64
  76:testHexIO.cpp **** 	status = bufProcessLine(line, 0, &data, NULL, &seg, &recordType, NULL);
 1942              		.loc 4 76 2
 1943 0df2 4889C3   		movq	%rax, %rbx
 1944 0df5 E8000000 		call	__cxa_end_catch@PLT
 1944      00
 1945 0dfa 4889D8   		movq	%rbx, %rax
 1946 0dfd 4889C7   		movq	%rax, %rdi
 1947              	.LEHB79:
 1948 0e00 E8000000 		call	_Unwind_Resume@PLT
 1948      00
 1949              	.LEHE79:
 1950              	.L105:
 1951 0e05 F30F1EFA 		endbr64
  78:testHexIO.cpp **** 	bufDestroy(&data);
 1952              		.loc 4 78 2 is_stmt 1
 1953 0e09 4889C7   		movq	%rax, %rdi
 1954 0e0c E8000000 		call	__cxa_begin_catch@PLT
 1954      00
 1955              	.LEHB80:
 1956 0e11 E8000000 		call	_ZN8UnitTest11CurrentTest7ResultsEv@PLT
 1956      00
  78:testHexIO.cpp **** 	bufDestroy(&data);
 1957              		.loc 4 78 2 is_stmt 0 discriminator 3
 1958 0e16 488B18   		movq	(%rax), %rbx
 1959 0e19 E8000000 		call	_ZN8UnitTest11CurrentTest7DetailsEv@PLT
 1959      00
  78:testHexIO.cpp **** 	bufDestroy(&data);
 1960              		.loc 4 78 2 discriminator 11
 1961 0e1e 488B08   		movq	(%rax), %rcx
 1962 0e21 488D45C0 		leaq	-64(%rbp), %rax
 1963 0e25 BA4E0000 		movl	$78, %edx
 1963      00
 1964 0e2a 4889CE   		movq	%rcx, %rsi
 1965 0e2d 4889C7   		movq	%rax, %rdi
 1966 0e30 E8000000 		call	_ZN8UnitTest11TestDetailsC1ERKS0_i@PLT
 1966      00
  78:testHexIO.cpp **** 	bufDestroy(&data);
 1967              		.loc 4 78 2 discriminator 15
 1968 0e35 488D45C0 		leaq	-64(%rbp), %rax
 1969 0e39 488D1500 		leaq	.LC18(%rip), %rdx
 1969      000000
 1970 0e40 4889C6   		movq	%rax, %rsi
 1971 0e43 4889DF   		movq	%rbx, %rdi
 1972 0e46 E8000000 		call	_ZN8UnitTest11TestResults13OnTestFailureERKNS_11TestDetailsEPKc@PLT
 1972      00
 1973              	.LEHE80:
 1974              	.LEHB81:
  78:testHexIO.cpp **** 	bufDestroy(&data);
 1975              		.loc 4 78 2 discriminator 17
 1976 0e4b E8000000 		call	__cxa_end_catch@PLT
 1976      00
 1977              	.LEHE81:
 1978 0e50 E924FFFF 		jmp	.L100
 1978      FF
 1979              	.L106:
 1980 0e55 F30F1EFA 		endbr64
  78:testHexIO.cpp **** 	bufDestroy(&data);
 1981              		.loc 4 78 2
 1982 0e59 4889C3   		movq	%rax, %rbx
 1983 0e5c E8000000 		call	__cxa_end_catch@PLT
 1983      00
 1984 0e61 4889D8   		movq	%rbx, %rax
 1985 0e64 4889C7   		movq	%rax, %rdi
 1986              	.LEHB82:
 1987 0e67 E8000000 		call	_Unwind_Resume@PLT
 1987      00
 1988              	.LEHE82:
 1989              	.L107:
 1990              		.loc 4 80 1 is_stmt 1
 1991 0e6c E8000000 		call	__stack_chk_fail@PLT
 1991      00
 1992              	.L102:
 1993 0e71 488B5DF8 		movq	-8(%rbp), %rbx
 1994 0e75 C9       		leave
 1995              		.cfi_def_cfa 7, 8
 1996 0e76 C3       		ret
 1997              		.cfi_endproc
 1998              	.LFE1220:
 1999              		.section	.gcc_except_table
 2000              		.align 4
 2001              	.LLSDA1220:
 2002 018c FF       		.byte	0xff
 2003 018d 9B       		.byte	0x9b
 2004 018e 41       		.uleb128 .LLSDATT1220-.LLSDATTD1220
 2005              	.LLSDATTD1220:
 2006 018f 01       		.byte	0x1
 2007 0190 39       		.uleb128 .LLSDACSE1220-.LLSDACSB1220
 2008              	.LLSDACSB1220:
 2009 0191 4E       		.uleb128 .LEHB72-.LFB1220
 2010 0192 05       		.uleb128 .LEHE72-.LEHB72
 2011 0193 00       		.uleb128 0
 2012 0194 00       		.uleb128 0
 2013 0195 56       		.uleb128 .LEHB73-.LFB1220
 2014 0196 3F       		.uleb128 .LEHE73-.LEHB73
 2015 0197 AE02     		.uleb128 .L103-.LFB1220
 2016 0199 01       		.uleb128 0x1
 2017 019a BE01     		.uleb128 .LEHB74-.LFB1220
 2018 019c 05       		.uleb128 .LEHE74-.LEHB74
 2019 019d 00       		.uleb128 0
 2020 019e 00       		.uleb128 0
 2021 019f CA01     		.uleb128 .LEHB75-.LFB1220
 2022 01a1 3F       		.uleb128 .LEHE75-.LEHB75
 2023 01a2 9503     		.uleb128 .L105-.LFB1220
 2024 01a4 01       		.uleb128 0x1
 2025 01a5 9002     		.uleb128 .LEHB76-.LFB1220
 2026 01a7 05       		.uleb128 .LEHE76-.LEHB76
 2027 01a8 00       		.uleb128 0
 2028 01a9 00       		.uleb128 0
 2029 01aa BA02     		.uleb128 .LEHB77-.LFB1220
 2030 01ac 3A       		.uleb128 .LEHE77-.LEHB77
 2031 01ad FE02     		.uleb128 .L104-.LFB1220
 2032 01af 00       		.uleb128 0
 2033 01b0 F402     		.uleb128 .LEHB78-.LFB1220
 2034 01b2 05       		.uleb128 .LEHE78-.LEHB78
 2035 01b3 00       		.uleb128 0
 2036 01b4 00       		.uleb128 0
 2037 01b5 9003     		.uleb128 .LEHB79-.LFB1220
 2038 01b7 05       		.uleb128 .LEHE79-.LEHB79
 2039 01b8 00       		.uleb128 0
 2040 01b9 00       		.uleb128 0
 2041 01ba A103     		.uleb128 .LEHB80-.LFB1220
 2042 01bc 3A       		.uleb128 .LEHE80-.LEHB80
 2043 01bd E503     		.uleb128 .L106-.LFB1220
 2044 01bf 00       		.uleb128 0
 2045 01c0 DB03     		.uleb128 .LEHB81-.LFB1220
 2046 01c2 05       		.uleb128 .LEHE81-.LEHB81
 2047 01c3 00       		.uleb128 0
 2048 01c4 00       		.uleb128 0
 2049 01c5 F703     		.uleb128 .LEHB82-.LFB1220
 2050 01c7 05       		.uleb128 .LEHE82-.LEHB82
 2051 01c8 00       		.uleb128 0
 2052 01c9 00       		.uleb128 0
 2053              	.LLSDACSE1220:
 2054 01ca 01       		.byte	0x1
 2055 01cb 00       		.byte	0
 2056              		.align 4
 2057 01cc 00000000 		.long	0
 2058              	
 2059              	.LLSDATT1220:
 2060              		.text
 2062              		.section	.rodata
 2063              	.LC19:
 2064 0338 48657849 		.string	"HexIO_testJunkByteCount"
 2064      4F5F7465 
 2064      73744A75 
 2064      6E6B4279 
 2064      7465436F 
 2065              		.section	.text._ZN27TestHexIO_testJunkByteCountC2Ev,"axG",@progbits,_ZN27TestHexIO_testJunkByteCou
 2066              		.align 2
 2067              		.weak	_ZN27TestHexIO_testJunkByteCountC2Ev
 2069              	_ZN27TestHexIO_testJunkByteCountC2Ev:
 2070              	.LFB1222:
  81:testHexIO.cpp **** 
  82:testHexIO.cpp **** TEST(HexIO_testJunkByteCount) {
 2071              		.loc 4 82 1
 2072              		.cfi_startproc
 2073 0000 F30F1EFA 		endbr64
 2074 0004 55       		pushq	%rbp
 2075              		.cfi_def_cfa_offset 16
 2076              		.cfi_offset 6, -16
 2077 0005 4889E5   		movq	%rsp, %rbp
 2078              		.cfi_def_cfa_register 6
 2079 0008 53       		pushq	%rbx
 2080 0009 4883EC18 		subq	$24, %rsp
 2081              		.cfi_offset 3, -24
 2082 000d 48897DE8 		movq	%rdi, -24(%rbp)
 2083              	.LBB7:
 2084              		.loc 4 82 1
 2085 0011 488B5DE8 		movq	-24(%rbp), %rbx
 2086 0015 E8000000 		call	_ZN13UnitTestSuite12GetSuiteNameEv
 2086      00
 2087 001a 4889C2   		movq	%rax, %rdx
 2088 001d 41B85200 		movl	$82, %r8d
 2088      0000
 2089 0023 488D0500 		leaq	.LC1(%rip), %rax
 2089      000000
 2090 002a 4889C1   		movq	%rax, %rcx
 2091 002d 488D0500 		leaq	.LC19(%rip), %rax
 2091      000000
 2092 0034 4889C6   		movq	%rax, %rsi
 2093 0037 4889DF   		movq	%rbx, %rdi
 2094 003a E8000000 		call	_ZN8UnitTest4TestC2EPKcS2_S2_i@PLT
 2094      00
 2095 003f 488D1500 		leaq	16+_ZTV27TestHexIO_testJunkByteCount(%rip), %rdx
 2095      000000
 2096 0046 488B45E8 		movq	-24(%rbp), %rax
 2097 004a 488910   		movq	%rdx, (%rax)
 2098              	.LBE7:
 2099 004d 90       		nop
 2100 004e 488B5DF8 		movq	-8(%rbp), %rbx
 2101 0052 C9       		leave
 2102              		.cfi_def_cfa 7, 8
 2103 0053 C3       		ret
 2104              		.cfi_endproc
 2105              	.LFE1222:
 2107              		.weak	_ZN27TestHexIO_testJunkByteCountC1Ev
 2108              		.set	_ZN27TestHexIO_testJunkByteCountC1Ev,_ZN27TestHexIO_testJunkByteCountC2Ev
 2109              		.globl	testHexIO_testJunkByteCountInstance
 2110              		.bss
 2111 00b9 00000000 		.align 32
 2111      000000
 2114              	testHexIO_testJunkByteCountInstance:
 2115 00c0 00000000 		.zero	56
 2115      00000000 
 2115      00000000 
 2115      00000000 
 2115      00000000 
 2116              		.globl	adderHexIO_testJunkByteCount
 2119              	adderHexIO_testJunkByteCount:
 2120 00f8 00       		.zero	1
 2121              		.section	.rodata
 2122              	.LC20:
 2123 0350 3A2E2E30 		.string	":..0BE10075820022F7\n"
 2123      42453130 
 2123      30373538 
 2123      32303032 
 2123      3246370A 
 2124 0365 000000   		.align 8
 2125              	.LC21:
 2126 0368 556E6861 		.string	"Unhandled exception in CHECK_EQUAL(HEX_JUNK_BYTE_COUNT, status)"
 2126      6E646C65 
 2126      64206578 
 2126      63657074 
 2126      696F6E20 
 2127              		.text
 2128 0e77 90       		.align 2
 2129              		.globl	_ZNK27TestHexIO_testJunkByteCount7RunImplEv
 2131              	_ZNK27TestHexIO_testJunkByteCount7RunImplEv:
 2132              	.LFB1224:
 2133              		.loc 4 82 31
 2134              		.cfi_startproc
 2135              		.cfi_personality 0x9b,DW.ref.__gxx_personality_v0
 2136              		.cfi_lsda 0x1b,.LLSDA1224
 2137 0e78 F30F1EFA 		endbr64
 2138 0e7c 55       		pushq	%rbp
 2139              		.cfi_def_cfa_offset 16
 2140              		.cfi_offset 6, -16
 2141 0e7d 4889E5   		movq	%rsp, %rbp
 2142              		.cfi_def_cfa_register 6
 2143 0e80 53       		pushq	%rbx
 2144 0e81 4881EC88 		subq	$136, %rsp
 2144      000000
 2145              		.cfi_offset 3, -24
 2146 0e88 4889BD78 		movq	%rdi, -136(%rbp)
 2146      FFFFFF
 2147              		.loc 4 82 31
 2148 0e8f 64488B04 		movq	%fs:40, %rax
 2148      25280000 
 2148      00
 2149 0e98 488945E8 		movq	%rax, -24(%rbp)
 2150 0e9c 31C0     		xorl	%eax, %eax
  83:testHexIO.cpp **** 	Buffer data;
  84:testHexIO.cpp **** 	BufferStatus status;
  85:testHexIO.cpp **** 	const char *line = ":..0BE10075820022F7\n";
 2151              		.loc 4 85 14
 2152 0e9e 488D0500 		leaq	.LC20(%rip), %rax
 2152      000000
 2153 0ea5 48894598 		movq	%rax, -104(%rbp)
  86:testHexIO.cpp **** 	uint8 recordType;
  87:testHexIO.cpp **** 	uint32 seg = 0x00000000;
 2154              		.loc 4 87 9
 2155 0ea9 C7459000 		movl	$0, -112(%rbp)
 2155      000000
  88:testHexIO.cpp **** 	status = bufInitialise(&data, 1024, 0x00, NULL);
 2156              		.loc 4 88 24
 2157 0eb0 488D45A0 		leaq	-96(%rbp), %rax
 2158 0eb4 B9000000 		movl	$0, %ecx
 2158      00
 2159 0eb9 BA000000 		movl	$0, %edx
 2159      00
 2160 0ebe BE000400 		movl	$1024, %esi
 2160      00
 2161 0ec3 4889C7   		movq	%rax, %rdi
 2162              	.LEHB83:
 2163 0ec6 E8000000 		call	bufInitialise@PLT
 2163      00
 2164              	.LEHE83:
 2165              		.loc 4 88 9
 2166 0ecb 89458C   		movl	%eax, -116(%rbp)
 2167              	.LEHB84:
  89:testHexIO.cpp **** 	CHECK_EQUAL(BUF_SUCCESS, status);
 2168              		.loc 4 89 2
 2169 0ece E8000000 		call	_ZN8UnitTest11CurrentTest7DetailsEv@PLT
 2169      00
 2170 0ed3 488B08   		movq	(%rax), %rcx
 2171 0ed6 488D45C0 		leaq	-64(%rbp), %rax
 2172 0eda BA590000 		movl	$89, %edx
 2172      00
 2173 0edf 4889CE   		movq	%rcx, %rsi
 2174 0ee2 4889C7   		movq	%rax, %rdi
 2175 0ee5 E8000000 		call	_ZN8UnitTest11TestDetailsC1ERKS0_i@PLT
 2175      00
 2176              		.loc 4 89 2 is_stmt 0 discriminator 4
 2177 0eea C7459400 		movl	$0, -108(%rbp)
 2177      000000
 2178 0ef1 E8000000 		call	_ZN8UnitTest11CurrentTest7ResultsEv@PLT
 2178      00
 2179 0ef6 488B00   		movq	(%rax), %rax
 2180 0ef9 488D4DC0 		leaq	-64(%rbp), %rcx
 2181 0efd 488D558C 		leaq	-116(%rbp), %rdx
 2182 0f01 488D7594 		leaq	-108(%rbp), %rsi
 2183 0f05 4889C7   		movq	%rax, %rdi
 2184 0f08 E8000000 		call	_ZN8UnitTest10CheckEqualI12BufferStatusS1_EEvRNS_11TestResultsERKT_RKT0_RKNS_11TestDetailsE
 2184      00
 2185              	.LEHE84:
 2186              	.L111:
  90:testHexIO.cpp **** 	status = bufProcessLine(line, 0, &data, NULL, &seg, &recordType, NULL);
 2187              		.loc 4 90 25 is_stmt 1
 2188 0f0d 488D758B 		leaq	-117(%rbp), %rsi
 2189 0f11 488D4D90 		leaq	-112(%rbp), %rcx
 2190 0f15 488D55A0 		leaq	-96(%rbp), %rdx
 2191 0f19 488B4598 		movq	-104(%rbp), %rax
 2192 0f1d 4883EC08 		subq	$8, %rsp
 2193 0f21 6A00     		pushq	$0
 2194 0f23 4989F1   		movq	%rsi, %r9
 2195 0f26 4989C8   		movq	%rcx, %r8
 2196 0f29 B9000000 		movl	$0, %ecx
 2196      00
 2197 0f2e BE000000 		movl	$0, %esi
 2197      00
 2198 0f33 4889C7   		movq	%rax, %rdi
 2199              	.LEHB85:
 2200 0f36 E8000000 		call	bufProcessLine@PLT
 2200      00
 2201              	.LEHE85:
 2202 0f3b 4883C410 		addq	$16, %rsp
 2203              		.loc 4 90 9
 2204 0f3f 89458C   		movl	%eax, -116(%rbp)
 2205              	.LEHB86:
  91:testHexIO.cpp **** 	CHECK_EQUAL(HEX_JUNK_BYTE_COUNT, status);
 2206              		.loc 4 91 2
 2207 0f42 E8000000 		call	_ZN8UnitTest11CurrentTest7DetailsEv@PLT
 2207      00
 2208 0f47 488B08   		movq	(%rax), %rcx
 2209 0f4a 488D45C0 		leaq	-64(%rbp), %rax
 2210 0f4e BA5B0000 		movl	$91, %edx
 2210      00
 2211 0f53 4889CE   		movq	%rcx, %rsi
 2212 0f56 4889C7   		movq	%rax, %rdi
 2213 0f59 E8000000 		call	_ZN8UnitTest11TestDetailsC1ERKS0_i@PLT
 2213      00
 2214              		.loc 4 91 2 is_stmt 0 discriminator 4
 2215 0f5e C7459409 		movl	$9, -108(%rbp)
 2215      000000
 2216 0f65 E8000000 		call	_ZN8UnitTest11CurrentTest7ResultsEv@PLT
 2216      00
 2217 0f6a 488B00   		movq	(%rax), %rax
 2218 0f6d 488D4DC0 		leaq	-64(%rbp), %rcx
 2219 0f71 488D558C 		leaq	-116(%rbp), %rdx
 2220 0f75 488D7594 		leaq	-108(%rbp), %rsi
 2221 0f79 4889C7   		movq	%rax, %rdi
 2222 0f7c E8000000 		call	_ZN8UnitTest10CheckEqualI12BufferStatusS1_EEvRNS_11TestResultsERKT_RKT0_RKNS_11TestDetailsE
 2222      00
 2223              	.LEHE86:
 2224              	.L114:
  92:testHexIO.cpp **** 	bufDestroy(&data);
 2225              		.loc 4 92 12 is_stmt 1
 2226 0f81 488D45A0 		leaq	-96(%rbp), %rax
 2227 0f85 4889C7   		movq	%rax, %rdi
 2228              	.LEHB87:
 2229 0f88 E8000000 		call	bufDestroy@PLT
 2229      00
 2230              	.LEHE87:
  93:testHexIO.cpp **** }
 2231              		.loc 4 93 1
 2232 0f8d 90       		nop
 2233 0f8e 488B45E8 		movq	-24(%rbp), %rax
 2234 0f92 64482B04 		subq	%fs:40, %rax
 2234      25280000 
 2234      00
 2235 0f9b 0F84D800 		je	.L116
 2235      0000
 2236 0fa1 E9CE0000 		jmp	.L121
 2236      00
 2237              	.L117:
 2238 0fa6 F30F1EFA 		endbr64
  89:testHexIO.cpp **** 	status = bufProcessLine(line, 0, &data, NULL, &seg, &recordType, NULL);
 2239              		.loc 4 89 2
 2240 0faa 4889C7   		movq	%rax, %rdi
 2241 0fad E8000000 		call	__cxa_begin_catch@PLT
 2241      00
 2242              	.LEHB88:
 2243 0fb2 E8000000 		call	_ZN8UnitTest11CurrentTest7ResultsEv@PLT
 2243      00
  89:testHexIO.cpp **** 	status = bufProcessLine(line, 0, &data, NULL, &seg, &recordType, NULL);
 2244              		.loc 4 89 2 is_stmt 0 discriminator 3
 2245 0fb7 488B18   		movq	(%rax), %rbx
 2246 0fba E8000000 		call	_ZN8UnitTest11CurrentTest7DetailsEv@PLT
 2246      00
  89:testHexIO.cpp **** 	status = bufProcessLine(line, 0, &data, NULL, &seg, &recordType, NULL);
 2247              		.loc 4 89 2 discriminator 11
 2248 0fbf 488B08   		movq	(%rax), %rcx
 2249 0fc2 488D45C0 		leaq	-64(%rbp), %rax
 2250 0fc6 BA590000 		movl	$89, %edx
 2250      00
 2251 0fcb 4889CE   		movq	%rcx, %rsi
 2252 0fce 4889C7   		movq	%rax, %rdi
 2253 0fd1 E8000000 		call	_ZN8UnitTest11TestDetailsC1ERKS0_i@PLT
 2253      00
  89:testHexIO.cpp **** 	status = bufProcessLine(line, 0, &data, NULL, &seg, &recordType, NULL);
 2254              		.loc 4 89 2 discriminator 15
 2255 0fd6 488D45C0 		leaq	-64(%rbp), %rax
 2256 0fda 488D1500 		leaq	.LC4(%rip), %rdx
 2256      000000
 2257 0fe1 4889C6   		movq	%rax, %rsi
 2258 0fe4 4889DF   		movq	%rbx, %rdi
 2259 0fe7 E8000000 		call	_ZN8UnitTest11TestResults13OnTestFailureERKNS_11TestDetailsEPKc@PLT
 2259      00
 2260              	.LEHE88:
 2261              	.LEHB89:
  89:testHexIO.cpp **** 	status = bufProcessLine(line, 0, &data, NULL, &seg, &recordType, NULL);
 2262              		.loc 4 89 2 discriminator 17
 2263 0fec E8000000 		call	__cxa_end_catch@PLT
 2263      00
 2264              	.LEHE89:
 2265 0ff1 E917FFFF 		jmp	.L111
 2265      FF
 2266              	.L118:
 2267 0ff6 F30F1EFA 		endbr64
  89:testHexIO.cpp **** 	status = bufProcessLine(line, 0, &data, NULL, &seg, &recordType, NULL);
 2268              		.loc 4 89 2
 2269 0ffa 4889C3   		movq	%rax, %rbx
 2270 0ffd E8000000 		call	__cxa_end_catch@PLT
 2270      00
 2271 1002 4889D8   		movq	%rbx, %rax
 2272 1005 4889C7   		movq	%rax, %rdi
 2273              	.LEHB90:
 2274 1008 E8000000 		call	_Unwind_Resume@PLT
 2274      00
 2275              	.LEHE90:
 2276              	.L119:
 2277 100d F30F1EFA 		endbr64
  91:testHexIO.cpp **** 	bufDestroy(&data);
 2278              		.loc 4 91 2 is_stmt 1
 2279 1011 4889C7   		movq	%rax, %rdi
 2280 1014 E8000000 		call	__cxa_begin_catch@PLT
 2280      00
 2281              	.LEHB91:
 2282 1019 E8000000 		call	_ZN8UnitTest11CurrentTest7ResultsEv@PLT
 2282      00
  91:testHexIO.cpp **** 	bufDestroy(&data);
 2283              		.loc 4 91 2 is_stmt 0 discriminator 3
 2284 101e 488B18   		movq	(%rax), %rbx
 2285 1021 E8000000 		call	_ZN8UnitTest11CurrentTest7DetailsEv@PLT
 2285      00
  91:testHexIO.cpp **** 	bufDestroy(&data);
 2286              		.loc 4 91 2 discriminator 11
 2287 1026 488B08   		movq	(%rax), %rcx
 2288 1029 488D45C0 		leaq	-64(%rbp), %rax
 2289 102d BA5B0000 		movl	$91, %edx
 2289      00
 2290 1032 4889CE   		movq	%rcx, %rsi
 2291 1035 4889C7   		movq	%rax, %rdi
 2292 1038 E8000000 		call	_ZN8UnitTest11TestDetailsC1ERKS0_i@PLT
 2292      00
  91:testHexIO.cpp **** 	bufDestroy(&data);
 2293              		.loc 4 91 2 discriminator 15
 2294 103d 488D45C0 		leaq	-64(%rbp), %rax
 2295 1041 488D1500 		leaq	.LC21(%rip), %rdx
 2295      000000
 2296 1048 4889C6   		movq	%rax, %rsi
 2297 104b 4889DF   		movq	%rbx, %rdi
 2298 104e E8000000 		call	_ZN8UnitTest11TestResults13OnTestFailureERKNS_11TestDetailsEPKc@PLT
 2298      00
 2299              	.LEHE91:
 2300              	.LEHB92:
  91:testHexIO.cpp **** 	bufDestroy(&data);
 2301              		.loc 4 91 2 discriminator 17
 2302 1053 E8000000 		call	__cxa_end_catch@PLT
 2302      00
 2303              	.LEHE92:
 2304 1058 E924FFFF 		jmp	.L114
 2304      FF
 2305              	.L120:
 2306 105d F30F1EFA 		endbr64
  91:testHexIO.cpp **** 	bufDestroy(&data);
 2307              		.loc 4 91 2
 2308 1061 4889C3   		movq	%rax, %rbx
 2309 1064 E8000000 		call	__cxa_end_catch@PLT
 2309      00
 2310 1069 4889D8   		movq	%rbx, %rax
 2311 106c 4889C7   		movq	%rax, %rdi
 2312              	.LEHB93:
 2313 106f E8000000 		call	_Unwind_Resume@PLT
 2313      00
 2314              	.LEHE93:
 2315              	.L121:
 2316              		.loc 4 93 1 is_stmt 1
 2317 1074 E8000000 		call	__stack_chk_fail@PLT
 2317      00
 2318              	.L116:
 2319 1079 488B5DF8 		movq	-8(%rbp), %rbx
 2320 107d C9       		leave
 2321              		.cfi_def_cfa 7, 8
 2322 107e C3       		ret
 2323              		.cfi_endproc
 2324              	.LFE1224:
 2325              		.section	.gcc_except_table
 2326              		.align 4
 2327              	.LLSDA1224:
 2328 01d0 FF       		.byte	0xff
 2329 01d1 9B       		.byte	0x9b
 2330 01d2 41       		.uleb128 .LLSDATT1224-.LLSDATTD1224
 2331              	.LLSDATTD1224:
 2332 01d3 01       		.byte	0x1
 2333 01d4 39       		.uleb128 .LLSDACSE1224-.LLSDACSB1224
 2334              	.LLSDACSB1224:
 2335 01d5 4E       		.uleb128 .LEHB83-.LFB1224
 2336 01d6 05       		.uleb128 .LEHE83-.LEHB83
 2337 01d7 00       		.uleb128 0
 2338 01d8 00       		.uleb128 0
 2339 01d9 56       		.uleb128 .LEHB84-.LFB1224
 2340 01da 3F       		.uleb128 .LEHE84-.LEHB84
 2341 01db AE02     		.uleb128 .L117-.LFB1224
 2342 01dd 01       		.uleb128 0x1
 2343 01de BE01     		.uleb128 .LEHB85-.LFB1224
 2344 01e0 05       		.uleb128 .LEHE85-.LEHB85
 2345 01e1 00       		.uleb128 0
 2346 01e2 00       		.uleb128 0
 2347 01e3 CA01     		.uleb128 .LEHB86-.LFB1224
 2348 01e5 3F       		.uleb128 .LEHE86-.LEHB86
 2349 01e6 9503     		.uleb128 .L119-.LFB1224
 2350 01e8 01       		.uleb128 0x1
 2351 01e9 9002     		.uleb128 .LEHB87-.LFB1224
 2352 01eb 05       		.uleb128 .LEHE87-.LEHB87
 2353 01ec 00       		.uleb128 0
 2354 01ed 00       		.uleb128 0
 2355 01ee BA02     		.uleb128 .LEHB88-.LFB1224
 2356 01f0 3A       		.uleb128 .LEHE88-.LEHB88
 2357 01f1 FE02     		.uleb128 .L118-.LFB1224
 2358 01f3 00       		.uleb128 0
 2359 01f4 F402     		.uleb128 .LEHB89-.LFB1224
 2360 01f6 05       		.uleb128 .LEHE89-.LEHB89
 2361 01f7 00       		.uleb128 0
 2362 01f8 00       		.uleb128 0
 2363 01f9 9003     		.uleb128 .LEHB90-.LFB1224
 2364 01fb 05       		.uleb128 .LEHE90-.LEHB90
 2365 01fc 00       		.uleb128 0
 2366 01fd 00       		.uleb128 0
 2367 01fe A103     		.uleb128 .LEHB91-.LFB1224
 2368 0200 3A       		.uleb128 .LEHE91-.LEHB91
 2369 0201 E503     		.uleb128 .L120-.LFB1224
 2370 0203 00       		.uleb128 0
 2371 0204 DB03     		.uleb128 .LEHB92-.LFB1224
 2372 0206 05       		.uleb128 .LEHE92-.LEHB92
 2373 0207 00       		.uleb128 0
 2374 0208 00       		.uleb128 0
 2375 0209 F703     		.uleb128 .LEHB93-.LFB1224
 2376 020b 05       		.uleb128 .LEHE93-.LEHB93
 2377 020c 00       		.uleb128 0
 2378 020d 00       		.uleb128 0
 2379              	.LLSDACSE1224:
 2380 020e 01       		.byte	0x1
 2381 020f 00       		.byte	0
 2382              		.align 4
 2383 0210 00000000 		.long	0
 2384              	
 2385              	.LLSDATT1224:
 2386              		.text
 2388              		.section	.rodata
 2389              	.LC22:
 2390 03a8 48657849 		.string	"HexIO_testJunkAddrMsb"
 2390      4F5F7465 
 2390      73744A75 
 2390      6E6B4164 
 2390      64724D73 
 2391              		.section	.text._ZN25TestHexIO_testJunkAddrMsbC2Ev,"axG",@progbits,_ZN25TestHexIO_testJunkAddrMsbC5
 2392              		.align 2
 2393              		.weak	_ZN25TestHexIO_testJunkAddrMsbC2Ev
 2395              	_ZN25TestHexIO_testJunkAddrMsbC2Ev:
 2396              	.LFB1226:
  94:testHexIO.cpp **** 
  95:testHexIO.cpp **** TEST(HexIO_testJunkAddrMsb) {
 2397              		.loc 4 95 1
 2398              		.cfi_startproc
 2399 0000 F30F1EFA 		endbr64
 2400 0004 55       		pushq	%rbp
 2401              		.cfi_def_cfa_offset 16
 2402              		.cfi_offset 6, -16
 2403 0005 4889E5   		movq	%rsp, %rbp
 2404              		.cfi_def_cfa_register 6
 2405 0008 53       		pushq	%rbx
 2406 0009 4883EC18 		subq	$24, %rsp
 2407              		.cfi_offset 3, -24
 2408 000d 48897DE8 		movq	%rdi, -24(%rbp)
 2409              	.LBB8:
 2410              		.loc 4 95 1
 2411 0011 488B5DE8 		movq	-24(%rbp), %rbx
 2412 0015 E8000000 		call	_ZN13UnitTestSuite12GetSuiteNameEv
 2412      00
 2413 001a 4889C2   		movq	%rax, %rdx
 2414 001d 41B85F00 		movl	$95, %r8d
 2414      0000
 2415 0023 488D0500 		leaq	.LC1(%rip), %rax
 2415      000000
 2416 002a 4889C1   		movq	%rax, %rcx
 2417 002d 488D0500 		leaq	.LC22(%rip), %rax
 2417      000000
 2418 0034 4889C6   		movq	%rax, %rsi
 2419 0037 4889DF   		movq	%rbx, %rdi
 2420 003a E8000000 		call	_ZN8UnitTest4TestC2EPKcS2_S2_i@PLT
 2420      00
 2421 003f 488D1500 		leaq	16+_ZTV25TestHexIO_testJunkAddrMsb(%rip), %rdx
 2421      000000
 2422 0046 488B45E8 		movq	-24(%rbp), %rax
 2423 004a 488910   		movq	%rdx, (%rax)
 2424              	.LBE8:
 2425 004d 90       		nop
 2426 004e 488B5DF8 		movq	-8(%rbp), %rbx
 2427 0052 C9       		leave
 2428              		.cfi_def_cfa 7, 8
 2429 0053 C3       		ret
 2430              		.cfi_endproc
 2431              	.LFE1226:
 2433              		.weak	_ZN25TestHexIO_testJunkAddrMsbC1Ev
 2434              		.set	_ZN25TestHexIO_testJunkAddrMsbC1Ev,_ZN25TestHexIO_testJunkAddrMsbC2Ev
 2435              		.globl	testHexIO_testJunkAddrMsbInstance
 2436              		.bss
 2437 00f9 00000000 		.align 32
 2437      000000
 2440              	testHexIO_testJunkAddrMsbInstance:
 2441 0100 00000000 		.zero	56
 2441      00000000 
 2441      00000000 
 2441      00000000 
 2441      00000000 
 2442              		.globl	adderHexIO_testJunkAddrMsb
 2445              	adderHexIO_testJunkAddrMsb:
 2446 0138 00       		.zero	1
 2447              		.section	.rodata
 2448              	.LC23:
 2449 03be 3A30342E 		.string	":04..E10075820022F7\n"
 2449      2E453130 
 2449      30373538 
 2449      32303032 
 2449      3246370A 
 2450 03d3 00000000 		.align 8
 2450      00
 2451              	.LC24:
 2452 03d8 556E6861 		.string	"Unhandled exception in CHECK_EQUAL(HEX_JUNK_ADDR_MSB, status)"
 2452      6E646C65 
 2452      64206578 
 2452      63657074 
 2452      696F6E20 
 2453              		.text
 2454 107f 90       		.align 2
 2455              		.globl	_ZNK25TestHexIO_testJunkAddrMsb7RunImplEv
 2457              	_ZNK25TestHexIO_testJunkAddrMsb7RunImplEv:
 2458              	.LFB1228:
 2459              		.loc 4 95 29
 2460              		.cfi_startproc
 2461              		.cfi_personality 0x9b,DW.ref.__gxx_personality_v0
 2462              		.cfi_lsda 0x1b,.LLSDA1228
 2463 1080 F30F1EFA 		endbr64
 2464 1084 55       		pushq	%rbp
 2465              		.cfi_def_cfa_offset 16
 2466              		.cfi_offset 6, -16
 2467 1085 4889E5   		movq	%rsp, %rbp
 2468              		.cfi_def_cfa_register 6
 2469 1088 53       		pushq	%rbx
 2470 1089 4881EC88 		subq	$136, %rsp
 2470      000000
 2471              		.cfi_offset 3, -24
 2472 1090 4889BD78 		movq	%rdi, -136(%rbp)
 2472      FFFFFF
 2473              		.loc 4 95 29
 2474 1097 64488B04 		movq	%fs:40, %rax
 2474      25280000 
 2474      00
 2475 10a0 488945E8 		movq	%rax, -24(%rbp)
 2476 10a4 31C0     		xorl	%eax, %eax
  96:testHexIO.cpp **** 	Buffer data;
  97:testHexIO.cpp **** 	BufferStatus status;
  98:testHexIO.cpp **** 	const char *line = ":04..E10075820022F7\n";
 2477              		.loc 4 98 14
 2478 10a6 488D0500 		leaq	.LC23(%rip), %rax
 2478      000000
 2479 10ad 48894598 		movq	%rax, -104(%rbp)
  99:testHexIO.cpp **** 	uint8 recordType;
 100:testHexIO.cpp **** 	uint32 seg = 0x00000000;
 2480              		.loc 4 100 9
 2481 10b1 C7459000 		movl	$0, -112(%rbp)
 2481      000000
 101:testHexIO.cpp **** 	status = bufInitialise(&data, 1024, 0x00, NULL);
 2482              		.loc 4 101 24
 2483 10b8 488D45A0 		leaq	-96(%rbp), %rax
 2484 10bc B9000000 		movl	$0, %ecx
 2484      00
 2485 10c1 BA000000 		movl	$0, %edx
 2485      00
 2486 10c6 BE000400 		movl	$1024, %esi
 2486      00
 2487 10cb 4889C7   		movq	%rax, %rdi
 2488              	.LEHB94:
 2489 10ce E8000000 		call	bufInitialise@PLT
 2489      00
 2490              	.LEHE94:
 2491              		.loc 4 101 9
 2492 10d3 89458C   		movl	%eax, -116(%rbp)
 2493              	.LEHB95:
 102:testHexIO.cpp **** 	CHECK_EQUAL(BUF_SUCCESS, status);
 2494              		.loc 4 102 2
 2495 10d6 E8000000 		call	_ZN8UnitTest11CurrentTest7DetailsEv@PLT
 2495      00
 2496 10db 488B08   		movq	(%rax), %rcx
 2497 10de 488D45C0 		leaq	-64(%rbp), %rax
 2498 10e2 BA660000 		movl	$102, %edx
 2498      00
 2499 10e7 4889CE   		movq	%rcx, %rsi
 2500 10ea 4889C7   		movq	%rax, %rdi
 2501 10ed E8000000 		call	_ZN8UnitTest11TestDetailsC1ERKS0_i@PLT
 2501      00
 2502              		.loc 4 102 2 is_stmt 0 discriminator 4
 2503 10f2 C7459400 		movl	$0, -108(%rbp)
 2503      000000
 2504 10f9 E8000000 		call	_ZN8UnitTest11CurrentTest7ResultsEv@PLT
 2504      00
 2505 10fe 488B00   		movq	(%rax), %rax
 2506 1101 488D4DC0 		leaq	-64(%rbp), %rcx
 2507 1105 488D558C 		leaq	-116(%rbp), %rdx
 2508 1109 488D7594 		leaq	-108(%rbp), %rsi
 2509 110d 4889C7   		movq	%rax, %rdi
 2510 1110 E8000000 		call	_ZN8UnitTest10CheckEqualI12BufferStatusS1_EEvRNS_11TestResultsERKT_RKT0_RKNS_11TestDetailsE
 2510      00
 2511              	.LEHE95:
 2512              	.L125:
 103:testHexIO.cpp **** 	status = bufProcessLine(line, 0, &data, NULL, &seg, &recordType, NULL);
 2513              		.loc 4 103 25 is_stmt 1
 2514 1115 488D758B 		leaq	-117(%rbp), %rsi
 2515 1119 488D4D90 		leaq	-112(%rbp), %rcx
 2516 111d 488D55A0 		leaq	-96(%rbp), %rdx
 2517 1121 488B4598 		movq	-104(%rbp), %rax
 2518 1125 4883EC08 		subq	$8, %rsp
 2519 1129 6A00     		pushq	$0
 2520 112b 4989F1   		movq	%rsi, %r9
 2521 112e 4989C8   		movq	%rcx, %r8
 2522 1131 B9000000 		movl	$0, %ecx
 2522      00
 2523 1136 BE000000 		movl	$0, %esi
 2523      00
 2524 113b 4889C7   		movq	%rax, %rdi
 2525              	.LEHB96:
 2526 113e E8000000 		call	bufProcessLine@PLT
 2526      00
 2527              	.LEHE96:
 2528 1143 4883C410 		addq	$16, %rsp
 2529              		.loc 4 103 9
 2530 1147 89458C   		movl	%eax, -116(%rbp)
 2531              	.LEHB97:
 104:testHexIO.cpp **** 	CHECK_EQUAL(HEX_JUNK_ADDR_MSB, status);
 2532              		.loc 4 104 2
 2533 114a E8000000 		call	_ZN8UnitTest11CurrentTest7DetailsEv@PLT
 2533      00
 2534 114f 488B08   		movq	(%rax), %rcx
 2535 1152 488D45C0 		leaq	-64(%rbp), %rax
 2536 1156 BA680000 		movl	$104, %edx
 2536      00
 2537 115b 4889CE   		movq	%rcx, %rsi
 2538 115e 4889C7   		movq	%rax, %rdi
 2539 1161 E8000000 		call	_ZN8UnitTest11TestDetailsC1ERKS0_i@PLT
 2539      00
 2540              		.loc 4 104 2 is_stmt 0 discriminator 4
 2541 1166 C745940A 		movl	$10, -108(%rbp)
 2541      000000
 2542 116d E8000000 		call	_ZN8UnitTest11CurrentTest7ResultsEv@PLT
 2542      00
 2543 1172 488B00   		movq	(%rax), %rax
 2544 1175 488D4DC0 		leaq	-64(%rbp), %rcx
 2545 1179 488D558C 		leaq	-116(%rbp), %rdx
 2546 117d 488D7594 		leaq	-108(%rbp), %rsi
 2547 1181 4889C7   		movq	%rax, %rdi
 2548 1184 E8000000 		call	_ZN8UnitTest10CheckEqualI12BufferStatusS1_EEvRNS_11TestResultsERKT_RKT0_RKNS_11TestDetailsE
 2548      00
 2549              	.LEHE97:
 2550              	.L128:
 105:testHexIO.cpp **** 	bufDestroy(&data);
 2551              		.loc 4 105 12 is_stmt 1
 2552 1189 488D45A0 		leaq	-96(%rbp), %rax
 2553 118d 4889C7   		movq	%rax, %rdi
 2554              	.LEHB98:
 2555 1190 E8000000 		call	bufDestroy@PLT
 2555      00
 2556              	.LEHE98:
 106:testHexIO.cpp **** }
 2557              		.loc 4 106 1
 2558 1195 90       		nop
 2559 1196 488B45E8 		movq	-24(%rbp), %rax
 2560 119a 64482B04 		subq	%fs:40, %rax
 2560      25280000 
 2560      00
 2561 11a3 0F84D800 		je	.L130
 2561      0000
 2562 11a9 E9CE0000 		jmp	.L135
 2562      00
 2563              	.L131:
 2564 11ae F30F1EFA 		endbr64
 102:testHexIO.cpp **** 	status = bufProcessLine(line, 0, &data, NULL, &seg, &recordType, NULL);
 2565              		.loc 4 102 2
 2566 11b2 4889C7   		movq	%rax, %rdi
 2567 11b5 E8000000 		call	__cxa_begin_catch@PLT
 2567      00
 2568              	.LEHB99:
 2569 11ba E8000000 		call	_ZN8UnitTest11CurrentTest7ResultsEv@PLT
 2569      00
 102:testHexIO.cpp **** 	status = bufProcessLine(line, 0, &data, NULL, &seg, &recordType, NULL);
 2570              		.loc 4 102 2 is_stmt 0 discriminator 3
 2571 11bf 488B18   		movq	(%rax), %rbx
 2572 11c2 E8000000 		call	_ZN8UnitTest11CurrentTest7DetailsEv@PLT
 2572      00
 102:testHexIO.cpp **** 	status = bufProcessLine(line, 0, &data, NULL, &seg, &recordType, NULL);
 2573              		.loc 4 102 2 discriminator 11
 2574 11c7 488B08   		movq	(%rax), %rcx
 2575 11ca 488D45C0 		leaq	-64(%rbp), %rax
 2576 11ce BA660000 		movl	$102, %edx
 2576      00
 2577 11d3 4889CE   		movq	%rcx, %rsi
 2578 11d6 4889C7   		movq	%rax, %rdi
 2579 11d9 E8000000 		call	_ZN8UnitTest11TestDetailsC1ERKS0_i@PLT
 2579      00
 102:testHexIO.cpp **** 	status = bufProcessLine(line, 0, &data, NULL, &seg, &recordType, NULL);
 2580              		.loc 4 102 2 discriminator 15
 2581 11de 488D45C0 		leaq	-64(%rbp), %rax
 2582 11e2 488D1500 		leaq	.LC4(%rip), %rdx
 2582      000000
 2583 11e9 4889C6   		movq	%rax, %rsi
 2584 11ec 4889DF   		movq	%rbx, %rdi
 2585 11ef E8000000 		call	_ZN8UnitTest11TestResults13OnTestFailureERKNS_11TestDetailsEPKc@PLT
 2585      00
 2586              	.LEHE99:
 2587              	.LEHB100:
 102:testHexIO.cpp **** 	status = bufProcessLine(line, 0, &data, NULL, &seg, &recordType, NULL);
 2588              		.loc 4 102 2 discriminator 17
 2589 11f4 E8000000 		call	__cxa_end_catch@PLT
 2589      00
 2590              	.LEHE100:
 2591 11f9 E917FFFF 		jmp	.L125
 2591      FF
 2592              	.L132:
 2593 11fe F30F1EFA 		endbr64
 102:testHexIO.cpp **** 	status = bufProcessLine(line, 0, &data, NULL, &seg, &recordType, NULL);
 2594              		.loc 4 102 2
 2595 1202 4889C3   		movq	%rax, %rbx
 2596 1205 E8000000 		call	__cxa_end_catch@PLT
 2596      00
 2597 120a 4889D8   		movq	%rbx, %rax
 2598 120d 4889C7   		movq	%rax, %rdi
 2599              	.LEHB101:
 2600 1210 E8000000 		call	_Unwind_Resume@PLT
 2600      00
 2601              	.LEHE101:
 2602              	.L133:
 2603 1215 F30F1EFA 		endbr64
 104:testHexIO.cpp **** 	bufDestroy(&data);
 2604              		.loc 4 104 2 is_stmt 1
 2605 1219 4889C7   		movq	%rax, %rdi
 2606 121c E8000000 		call	__cxa_begin_catch@PLT
 2606      00
 2607              	.LEHB102:
 2608 1221 E8000000 		call	_ZN8UnitTest11CurrentTest7ResultsEv@PLT
 2608      00
 104:testHexIO.cpp **** 	bufDestroy(&data);
 2609              		.loc 4 104 2 is_stmt 0 discriminator 3
 2610 1226 488B18   		movq	(%rax), %rbx
 2611 1229 E8000000 		call	_ZN8UnitTest11CurrentTest7DetailsEv@PLT
 2611      00
 104:testHexIO.cpp **** 	bufDestroy(&data);
 2612              		.loc 4 104 2 discriminator 11
 2613 122e 488B08   		movq	(%rax), %rcx
 2614 1231 488D45C0 		leaq	-64(%rbp), %rax
 2615 1235 BA680000 		movl	$104, %edx
 2615      00
 2616 123a 4889CE   		movq	%rcx, %rsi
 2617 123d 4889C7   		movq	%rax, %rdi
 2618 1240 E8000000 		call	_ZN8UnitTest11TestDetailsC1ERKS0_i@PLT
 2618      00
 104:testHexIO.cpp **** 	bufDestroy(&data);
 2619              		.loc 4 104 2 discriminator 15
 2620 1245 488D45C0 		leaq	-64(%rbp), %rax
 2621 1249 488D1500 		leaq	.LC24(%rip), %rdx
 2621      000000
 2622 1250 4889C6   		movq	%rax, %rsi
 2623 1253 4889DF   		movq	%rbx, %rdi
 2624 1256 E8000000 		call	_ZN8UnitTest11TestResults13OnTestFailureERKNS_11TestDetailsEPKc@PLT
 2624      00
 2625              	.LEHE102:
 2626              	.LEHB103:
 104:testHexIO.cpp **** 	bufDestroy(&data);
 2627              		.loc 4 104 2 discriminator 17
 2628 125b E8000000 		call	__cxa_end_catch@PLT
 2628      00
 2629              	.LEHE103:
 2630 1260 E924FFFF 		jmp	.L128
 2630      FF
 2631              	.L134:
 2632 1265 F30F1EFA 		endbr64
 104:testHexIO.cpp **** 	bufDestroy(&data);
 2633              		.loc 4 104 2
 2634 1269 4889C3   		movq	%rax, %rbx
 2635 126c E8000000 		call	__cxa_end_catch@PLT
 2635      00
 2636 1271 4889D8   		movq	%rbx, %rax
 2637 1274 4889C7   		movq	%rax, %rdi
 2638              	.LEHB104:
 2639 1277 E8000000 		call	_Unwind_Resume@PLT
 2639      00
 2640              	.LEHE104:
 2641              	.L135:
 2642              		.loc 4 106 1 is_stmt 1
 2643 127c E8000000 		call	__stack_chk_fail@PLT
 2643      00
 2644              	.L130:
 2645 1281 488B5DF8 		movq	-8(%rbp), %rbx
 2646 1285 C9       		leave
 2647              		.cfi_def_cfa 7, 8
 2648 1286 C3       		ret
 2649              		.cfi_endproc
 2650              	.LFE1228:
 2651              		.section	.gcc_except_table
 2652              		.align 4
 2653              	.LLSDA1228:
 2654 0214 FF       		.byte	0xff
 2655 0215 9B       		.byte	0x9b
 2656 0216 41       		.uleb128 .LLSDATT1228-.LLSDATTD1228
 2657              	.LLSDATTD1228:
 2658 0217 01       		.byte	0x1
 2659 0218 39       		.uleb128 .LLSDACSE1228-.LLSDACSB1228
 2660              	.LLSDACSB1228:
 2661 0219 4E       		.uleb128 .LEHB94-.LFB1228
 2662 021a 05       		.uleb128 .LEHE94-.LEHB94
 2663 021b 00       		.uleb128 0
 2664 021c 00       		.uleb128 0
 2665 021d 56       		.uleb128 .LEHB95-.LFB1228
 2666 021e 3F       		.uleb128 .LEHE95-.LEHB95
 2667 021f AE02     		.uleb128 .L131-.LFB1228
 2668 0221 01       		.uleb128 0x1
 2669 0222 BE01     		.uleb128 .LEHB96-.LFB1228
 2670 0224 05       		.uleb128 .LEHE96-.LEHB96
 2671 0225 00       		.uleb128 0
 2672 0226 00       		.uleb128 0
 2673 0227 CA01     		.uleb128 .LEHB97-.LFB1228
 2674 0229 3F       		.uleb128 .LEHE97-.LEHB97
 2675 022a 9503     		.uleb128 .L133-.LFB1228
 2676 022c 01       		.uleb128 0x1
 2677 022d 9002     		.uleb128 .LEHB98-.LFB1228
 2678 022f 05       		.uleb128 .LEHE98-.LEHB98
 2679 0230 00       		.uleb128 0
 2680 0231 00       		.uleb128 0
 2681 0232 BA02     		.uleb128 .LEHB99-.LFB1228
 2682 0234 3A       		.uleb128 .LEHE99-.LEHB99
 2683 0235 FE02     		.uleb128 .L132-.LFB1228
 2684 0237 00       		.uleb128 0
 2685 0238 F402     		.uleb128 .LEHB100-.LFB1228
 2686 023a 05       		.uleb128 .LEHE100-.LEHB100
 2687 023b 00       		.uleb128 0
 2688 023c 00       		.uleb128 0
 2689 023d 9003     		.uleb128 .LEHB101-.LFB1228
 2690 023f 05       		.uleb128 .LEHE101-.LEHB101
 2691 0240 00       		.uleb128 0
 2692 0241 00       		.uleb128 0
 2693 0242 A103     		.uleb128 .LEHB102-.LFB1228
 2694 0244 3A       		.uleb128 .LEHE102-.LEHB102
 2695 0245 E503     		.uleb128 .L134-.LFB1228
 2696 0247 00       		.uleb128 0
 2697 0248 DB03     		.uleb128 .LEHB103-.LFB1228
 2698 024a 05       		.uleb128 .LEHE103-.LEHB103
 2699 024b 00       		.uleb128 0
 2700 024c 00       		.uleb128 0
 2701 024d F703     		.uleb128 .LEHB104-.LFB1228
 2702 024f 05       		.uleb128 .LEHE104-.LEHB104
 2703 0250 00       		.uleb128 0
 2704 0251 00       		.uleb128 0
 2705              	.LLSDACSE1228:
 2706 0252 01       		.byte	0x1
 2707 0253 00       		.byte	0
 2708              		.align 4
 2709 0254 00000000 		.long	0
 2710              	
 2711              	.LLSDATT1228:
 2712              		.text
 2714              		.section	.rodata
 2715              	.LC25:
 2716 0416 48657849 		.string	"HexIO_testJunkAddrLsb"
 2716      4F5F7465 
 2716      73744A75 
 2716      6E6B4164 
 2716      64724C73 
 2717              		.section	.text._ZN25TestHexIO_testJunkAddrLsbC2Ev,"axG",@progbits,_ZN25TestHexIO_testJunkAddrLsbC5
 2718              		.align 2
 2719              		.weak	_ZN25TestHexIO_testJunkAddrLsbC2Ev
 2721              	_ZN25TestHexIO_testJunkAddrLsbC2Ev:
 2722              	.LFB1230:
 107:testHexIO.cpp **** 
 108:testHexIO.cpp **** TEST(HexIO_testJunkAddrLsb) {
 2723              		.loc 4 108 1
 2724              		.cfi_startproc
 2725 0000 F30F1EFA 		endbr64
 2726 0004 55       		pushq	%rbp
 2727              		.cfi_def_cfa_offset 16
 2728              		.cfi_offset 6, -16
 2729 0005 4889E5   		movq	%rsp, %rbp
 2730              		.cfi_def_cfa_register 6
 2731 0008 53       		pushq	%rbx
 2732 0009 4883EC18 		subq	$24, %rsp
 2733              		.cfi_offset 3, -24
 2734 000d 48897DE8 		movq	%rdi, -24(%rbp)
 2735              	.LBB9:
 2736              		.loc 4 108 1
 2737 0011 488B5DE8 		movq	-24(%rbp), %rbx
 2738 0015 E8000000 		call	_ZN13UnitTestSuite12GetSuiteNameEv
 2738      00
 2739 001a 4889C2   		movq	%rax, %rdx
 2740 001d 41B86C00 		movl	$108, %r8d
 2740      0000
 2741 0023 488D0500 		leaq	.LC1(%rip), %rax
 2741      000000
 2742 002a 4889C1   		movq	%rax, %rcx
 2743 002d 488D0500 		leaq	.LC25(%rip), %rax
 2743      000000
 2744 0034 4889C6   		movq	%rax, %rsi
 2745 0037 4889DF   		movq	%rbx, %rdi
 2746 003a E8000000 		call	_ZN8UnitTest4TestC2EPKcS2_S2_i@PLT
 2746      00
 2747 003f 488D1500 		leaq	16+_ZTV25TestHexIO_testJunkAddrLsb(%rip), %rdx
 2747      000000
 2748 0046 488B45E8 		movq	-24(%rbp), %rax
 2749 004a 488910   		movq	%rdx, (%rax)
 2750              	.LBE9:
 2751 004d 90       		nop
 2752 004e 488B5DF8 		movq	-8(%rbp), %rbx
 2753 0052 C9       		leave
 2754              		.cfi_def_cfa 7, 8
 2755 0053 C3       		ret
 2756              		.cfi_endproc
 2757              	.LFE1230:
 2759              		.weak	_ZN25TestHexIO_testJunkAddrLsbC1Ev
 2760              		.set	_ZN25TestHexIO_testJunkAddrLsbC1Ev,_ZN25TestHexIO_testJunkAddrLsbC2Ev
 2761              		.globl	testHexIO_testJunkAddrLsbInstance
 2762              		.bss
 2763 0139 00000000 		.align 32
 2763      000000
 2766              	testHexIO_testJunkAddrLsbInstance:
 2767 0140 00000000 		.zero	56
 2767      00000000 
 2767      00000000 
 2767      00000000 
 2767      00000000 
 2768              		.globl	adderHexIO_testJunkAddrLsb
 2771              	adderHexIO_testJunkAddrLsb:
 2772 0178 00       		.zero	1
 2773              		.section	.rodata
 2774              	.LC26:
 2775 042c 3A303430 		.string	":040B..0075820022F7\n"
 2775      422E2E30 
 2775      30373538 
 2775      32303032 
 2775      3246370A 
 2776 0441 00000000 		.align 8
 2776      000000
 2777              	.LC27:
 2778 0448 556E6861 		.string	"Unhandled exception in CHECK_EQUAL(HEX_JUNK_ADDR_LSB, status)"
 2778      6E646C65 
 2778      64206578 
 2778      63657074 
 2778      696F6E20 
 2779              		.text
 2780 1287 90       		.align 2
 2781              		.globl	_ZNK25TestHexIO_testJunkAddrLsb7RunImplEv
 2783              	_ZNK25TestHexIO_testJunkAddrLsb7RunImplEv:
 2784              	.LFB1232:
 2785              		.loc 4 108 29
 2786              		.cfi_startproc
 2787              		.cfi_personality 0x9b,DW.ref.__gxx_personality_v0
 2788              		.cfi_lsda 0x1b,.LLSDA1232
 2789 1288 F30F1EFA 		endbr64
 2790 128c 55       		pushq	%rbp
 2791              		.cfi_def_cfa_offset 16
 2792              		.cfi_offset 6, -16
 2793 128d 4889E5   		movq	%rsp, %rbp
 2794              		.cfi_def_cfa_register 6
 2795 1290 53       		pushq	%rbx
 2796 1291 4881EC88 		subq	$136, %rsp
 2796      000000
 2797              		.cfi_offset 3, -24
 2798 1298 4889BD78 		movq	%rdi, -136(%rbp)
 2798      FFFFFF
 2799              		.loc 4 108 29
 2800 129f 64488B04 		movq	%fs:40, %rax
 2800      25280000 
 2800      00
 2801 12a8 488945E8 		movq	%rax, -24(%rbp)
 2802 12ac 31C0     		xorl	%eax, %eax
 109:testHexIO.cpp **** 	Buffer data;
 110:testHexIO.cpp **** 	BufferStatus status;
 111:testHexIO.cpp **** 	const char *line = ":040B..0075820022F7\n";
 2803              		.loc 4 111 14
 2804 12ae 488D0500 		leaq	.LC26(%rip), %rax
 2804      000000
 2805 12b5 48894598 		movq	%rax, -104(%rbp)
 112:testHexIO.cpp **** 	uint8 recordType;
 113:testHexIO.cpp **** 	uint32 seg = 0x00000000;
 2806              		.loc 4 113 9
 2807 12b9 C7459000 		movl	$0, -112(%rbp)
 2807      000000
 114:testHexIO.cpp **** 	status = bufInitialise(&data, 1024, 0x00, NULL);
 2808              		.loc 4 114 24
 2809 12c0 488D45A0 		leaq	-96(%rbp), %rax
 2810 12c4 B9000000 		movl	$0, %ecx
 2810      00
 2811 12c9 BA000000 		movl	$0, %edx
 2811      00
 2812 12ce BE000400 		movl	$1024, %esi
 2812      00
 2813 12d3 4889C7   		movq	%rax, %rdi
 2814              	.LEHB105:
 2815 12d6 E8000000 		call	bufInitialise@PLT
 2815      00
 2816              	.LEHE105:
 2817              		.loc 4 114 9
 2818 12db 89458C   		movl	%eax, -116(%rbp)
 2819              	.LEHB106:
 115:testHexIO.cpp **** 	CHECK_EQUAL(BUF_SUCCESS, status);
 2820              		.loc 4 115 2
 2821 12de E8000000 		call	_ZN8UnitTest11CurrentTest7DetailsEv@PLT
 2821      00
 2822 12e3 488B08   		movq	(%rax), %rcx
 2823 12e6 488D45C0 		leaq	-64(%rbp), %rax
 2824 12ea BA730000 		movl	$115, %edx
 2824      00
 2825 12ef 4889CE   		movq	%rcx, %rsi
 2826 12f2 4889C7   		movq	%rax, %rdi
 2827 12f5 E8000000 		call	_ZN8UnitTest11TestDetailsC1ERKS0_i@PLT
 2827      00
 2828              		.loc 4 115 2 is_stmt 0 discriminator 4
 2829 12fa C7459400 		movl	$0, -108(%rbp)
 2829      000000
 2830 1301 E8000000 		call	_ZN8UnitTest11CurrentTest7ResultsEv@PLT
 2830      00
 2831 1306 488B00   		movq	(%rax), %rax
 2832 1309 488D4DC0 		leaq	-64(%rbp), %rcx
 2833 130d 488D558C 		leaq	-116(%rbp), %rdx
 2834 1311 488D7594 		leaq	-108(%rbp), %rsi
 2835 1315 4889C7   		movq	%rax, %rdi
 2836 1318 E8000000 		call	_ZN8UnitTest10CheckEqualI12BufferStatusS1_EEvRNS_11TestResultsERKT_RKT0_RKNS_11TestDetailsE
 2836      00
 2837              	.LEHE106:
 2838              	.L139:
 116:testHexIO.cpp **** 	status = bufProcessLine(line, 0, &data, NULL, &seg, &recordType, NULL);
 2839              		.loc 4 116 25 is_stmt 1
 2840 131d 488D758B 		leaq	-117(%rbp), %rsi
 2841 1321 488D4D90 		leaq	-112(%rbp), %rcx
 2842 1325 488D55A0 		leaq	-96(%rbp), %rdx
 2843 1329 488B4598 		movq	-104(%rbp), %rax
 2844 132d 4883EC08 		subq	$8, %rsp
 2845 1331 6A00     		pushq	$0
 2846 1333 4989F1   		movq	%rsi, %r9
 2847 1336 4989C8   		movq	%rcx, %r8
 2848 1339 B9000000 		movl	$0, %ecx
 2848      00
 2849 133e BE000000 		movl	$0, %esi
 2849      00
 2850 1343 4889C7   		movq	%rax, %rdi
 2851              	.LEHB107:
 2852 1346 E8000000 		call	bufProcessLine@PLT
 2852      00
 2853              	.LEHE107:
 2854 134b 4883C410 		addq	$16, %rsp
 2855              		.loc 4 116 9
 2856 134f 89458C   		movl	%eax, -116(%rbp)
 2857              	.LEHB108:
 117:testHexIO.cpp **** 	CHECK_EQUAL(HEX_JUNK_ADDR_LSB, status);
 2858              		.loc 4 117 2
 2859 1352 E8000000 		call	_ZN8UnitTest11CurrentTest7DetailsEv@PLT
 2859      00
 2860 1357 488B08   		movq	(%rax), %rcx
 2861 135a 488D45C0 		leaq	-64(%rbp), %rax
 2862 135e BA750000 		movl	$117, %edx
 2862      00
 2863 1363 4889CE   		movq	%rcx, %rsi
 2864 1366 4889C7   		movq	%rax, %rdi
 2865 1369 E8000000 		call	_ZN8UnitTest11TestDetailsC1ERKS0_i@PLT
 2865      00
 2866              		.loc 4 117 2 is_stmt 0 discriminator 4
 2867 136e C745940B 		movl	$11, -108(%rbp)
 2867      000000
 2868 1375 E8000000 		call	_ZN8UnitTest11CurrentTest7ResultsEv@PLT
 2868      00
 2869 137a 488B00   		movq	(%rax), %rax
 2870 137d 488D4DC0 		leaq	-64(%rbp), %rcx
 2871 1381 488D558C 		leaq	-116(%rbp), %rdx
 2872 1385 488D7594 		leaq	-108(%rbp), %rsi
 2873 1389 4889C7   		movq	%rax, %rdi
 2874 138c E8000000 		call	_ZN8UnitTest10CheckEqualI12BufferStatusS1_EEvRNS_11TestResultsERKT_RKT0_RKNS_11TestDetailsE
 2874      00
 2875              	.LEHE108:
 2876              	.L142:
 118:testHexIO.cpp **** 	bufDestroy(&data);
 2877              		.loc 4 118 12 is_stmt 1
 2878 1391 488D45A0 		leaq	-96(%rbp), %rax
 2879 1395 4889C7   		movq	%rax, %rdi
 2880              	.LEHB109:
 2881 1398 E8000000 		call	bufDestroy@PLT
 2881      00
 2882              	.LEHE109:
 119:testHexIO.cpp **** }
 2883              		.loc 4 119 1
 2884 139d 90       		nop
 2885 139e 488B45E8 		movq	-24(%rbp), %rax
 2886 13a2 64482B04 		subq	%fs:40, %rax
 2886      25280000 
 2886      00
 2887 13ab 0F84D800 		je	.L144
 2887      0000
 2888 13b1 E9CE0000 		jmp	.L149
 2888      00
 2889              	.L145:
 2890 13b6 F30F1EFA 		endbr64
 115:testHexIO.cpp **** 	status = bufProcessLine(line, 0, &data, NULL, &seg, &recordType, NULL);
 2891              		.loc 4 115 2
 2892 13ba 4889C7   		movq	%rax, %rdi
 2893 13bd E8000000 		call	__cxa_begin_catch@PLT
 2893      00
 2894              	.LEHB110:
 2895 13c2 E8000000 		call	_ZN8UnitTest11CurrentTest7ResultsEv@PLT
 2895      00
 115:testHexIO.cpp **** 	status = bufProcessLine(line, 0, &data, NULL, &seg, &recordType, NULL);
 2896              		.loc 4 115 2 is_stmt 0 discriminator 3
 2897 13c7 488B18   		movq	(%rax), %rbx
 2898 13ca E8000000 		call	_ZN8UnitTest11CurrentTest7DetailsEv@PLT
 2898      00
 115:testHexIO.cpp **** 	status = bufProcessLine(line, 0, &data, NULL, &seg, &recordType, NULL);
 2899              		.loc 4 115 2 discriminator 11
 2900 13cf 488B08   		movq	(%rax), %rcx
 2901 13d2 488D45C0 		leaq	-64(%rbp), %rax
 2902 13d6 BA730000 		movl	$115, %edx
 2902      00
 2903 13db 4889CE   		movq	%rcx, %rsi
 2904 13de 4889C7   		movq	%rax, %rdi
 2905 13e1 E8000000 		call	_ZN8UnitTest11TestDetailsC1ERKS0_i@PLT
 2905      00
 115:testHexIO.cpp **** 	status = bufProcessLine(line, 0, &data, NULL, &seg, &recordType, NULL);
 2906              		.loc 4 115 2 discriminator 15
 2907 13e6 488D45C0 		leaq	-64(%rbp), %rax
 2908 13ea 488D1500 		leaq	.LC4(%rip), %rdx
 2908      000000
 2909 13f1 4889C6   		movq	%rax, %rsi
 2910 13f4 4889DF   		movq	%rbx, %rdi
 2911 13f7 E8000000 		call	_ZN8UnitTest11TestResults13OnTestFailureERKNS_11TestDetailsEPKc@PLT
 2911      00
 2912              	.LEHE110:
 2913              	.LEHB111:
 115:testHexIO.cpp **** 	status = bufProcessLine(line, 0, &data, NULL, &seg, &recordType, NULL);
 2914              		.loc 4 115 2 discriminator 17
 2915 13fc E8000000 		call	__cxa_end_catch@PLT
 2915      00
 2916              	.LEHE111:
 2917 1401 E917FFFF 		jmp	.L139
 2917      FF
 2918              	.L146:
 2919 1406 F30F1EFA 		endbr64
 115:testHexIO.cpp **** 	status = bufProcessLine(line, 0, &data, NULL, &seg, &recordType, NULL);
 2920              		.loc 4 115 2
 2921 140a 4889C3   		movq	%rax, %rbx
 2922 140d E8000000 		call	__cxa_end_catch@PLT
 2922      00
 2923 1412 4889D8   		movq	%rbx, %rax
 2924 1415 4889C7   		movq	%rax, %rdi
 2925              	.LEHB112:
 2926 1418 E8000000 		call	_Unwind_Resume@PLT
 2926      00
 2927              	.LEHE112:
 2928              	.L147:
 2929 141d F30F1EFA 		endbr64
 117:testHexIO.cpp **** 	bufDestroy(&data);
 2930              		.loc 4 117 2 is_stmt 1
 2931 1421 4889C7   		movq	%rax, %rdi
 2932 1424 E8000000 		call	__cxa_begin_catch@PLT
 2932      00
 2933              	.LEHB113:
 2934 1429 E8000000 		call	_ZN8UnitTest11CurrentTest7ResultsEv@PLT
 2934      00
 117:testHexIO.cpp **** 	bufDestroy(&data);
 2935              		.loc 4 117 2 is_stmt 0 discriminator 3
 2936 142e 488B18   		movq	(%rax), %rbx
 2937 1431 E8000000 		call	_ZN8UnitTest11CurrentTest7DetailsEv@PLT
 2937      00
 117:testHexIO.cpp **** 	bufDestroy(&data);
 2938              		.loc 4 117 2 discriminator 11
 2939 1436 488B08   		movq	(%rax), %rcx
 2940 1439 488D45C0 		leaq	-64(%rbp), %rax
 2941 143d BA750000 		movl	$117, %edx
 2941      00
 2942 1442 4889CE   		movq	%rcx, %rsi
 2943 1445 4889C7   		movq	%rax, %rdi
 2944 1448 E8000000 		call	_ZN8UnitTest11TestDetailsC1ERKS0_i@PLT
 2944      00
 117:testHexIO.cpp **** 	bufDestroy(&data);
 2945              		.loc 4 117 2 discriminator 15
 2946 144d 488D45C0 		leaq	-64(%rbp), %rax
 2947 1451 488D1500 		leaq	.LC27(%rip), %rdx
 2947      000000
 2948 1458 4889C6   		movq	%rax, %rsi
 2949 145b 4889DF   		movq	%rbx, %rdi
 2950 145e E8000000 		call	_ZN8UnitTest11TestResults13OnTestFailureERKNS_11TestDetailsEPKc@PLT
 2950      00
 2951              	.LEHE113:
 2952              	.LEHB114:
 117:testHexIO.cpp **** 	bufDestroy(&data);
 2953              		.loc 4 117 2 discriminator 17
 2954 1463 E8000000 		call	__cxa_end_catch@PLT
 2954      00
 2955              	.LEHE114:
 2956 1468 E924FFFF 		jmp	.L142
 2956      FF
 2957              	.L148:
 2958 146d F30F1EFA 		endbr64
 117:testHexIO.cpp **** 	bufDestroy(&data);
 2959              		.loc 4 117 2
 2960 1471 4889C3   		movq	%rax, %rbx
 2961 1474 E8000000 		call	__cxa_end_catch@PLT
 2961      00
 2962 1479 4889D8   		movq	%rbx, %rax
 2963 147c 4889C7   		movq	%rax, %rdi
 2964              	.LEHB115:
 2965 147f E8000000 		call	_Unwind_Resume@PLT
 2965      00
 2966              	.LEHE115:
 2967              	.L149:
 2968              		.loc 4 119 1 is_stmt 1
 2969 1484 E8000000 		call	__stack_chk_fail@PLT
 2969      00
 2970              	.L144:
 2971 1489 488B5DF8 		movq	-8(%rbp), %rbx
 2972 148d C9       		leave
 2973              		.cfi_def_cfa 7, 8
 2974 148e C3       		ret
 2975              		.cfi_endproc
 2976              	.LFE1232:
 2977              		.section	.gcc_except_table
 2978              		.align 4
 2979              	.LLSDA1232:
 2980 0258 FF       		.byte	0xff
 2981 0259 9B       		.byte	0x9b
 2982 025a 41       		.uleb128 .LLSDATT1232-.LLSDATTD1232
 2983              	.LLSDATTD1232:
 2984 025b 01       		.byte	0x1
 2985 025c 39       		.uleb128 .LLSDACSE1232-.LLSDACSB1232
 2986              	.LLSDACSB1232:
 2987 025d 4E       		.uleb128 .LEHB105-.LFB1232
 2988 025e 05       		.uleb128 .LEHE105-.LEHB105
 2989 025f 00       		.uleb128 0
 2990 0260 00       		.uleb128 0
 2991 0261 56       		.uleb128 .LEHB106-.LFB1232
 2992 0262 3F       		.uleb128 .LEHE106-.LEHB106
 2993 0263 AE02     		.uleb128 .L145-.LFB1232
 2994 0265 01       		.uleb128 0x1
 2995 0266 BE01     		.uleb128 .LEHB107-.LFB1232
 2996 0268 05       		.uleb128 .LEHE107-.LEHB107
 2997 0269 00       		.uleb128 0
 2998 026a 00       		.uleb128 0
 2999 026b CA01     		.uleb128 .LEHB108-.LFB1232
 3000 026d 3F       		.uleb128 .LEHE108-.LEHB108
 3001 026e 9503     		.uleb128 .L147-.LFB1232
 3002 0270 01       		.uleb128 0x1
 3003 0271 9002     		.uleb128 .LEHB109-.LFB1232
 3004 0273 05       		.uleb128 .LEHE109-.LEHB109
 3005 0274 00       		.uleb128 0
 3006 0275 00       		.uleb128 0
 3007 0276 BA02     		.uleb128 .LEHB110-.LFB1232
 3008 0278 3A       		.uleb128 .LEHE110-.LEHB110
 3009 0279 FE02     		.uleb128 .L146-.LFB1232
 3010 027b 00       		.uleb128 0
 3011 027c F402     		.uleb128 .LEHB111-.LFB1232
 3012 027e 05       		.uleb128 .LEHE111-.LEHB111
 3013 027f 00       		.uleb128 0
 3014 0280 00       		.uleb128 0
 3015 0281 9003     		.uleb128 .LEHB112-.LFB1232
 3016 0283 05       		.uleb128 .LEHE112-.LEHB112
 3017 0284 00       		.uleb128 0
 3018 0285 00       		.uleb128 0
 3019 0286 A103     		.uleb128 .LEHB113-.LFB1232
 3020 0288 3A       		.uleb128 .LEHE113-.LEHB113
 3021 0289 E503     		.uleb128 .L148-.LFB1232
 3022 028b 00       		.uleb128 0
 3023 028c DB03     		.uleb128 .LEHB114-.LFB1232
 3024 028e 05       		.uleb128 .LEHE114-.LEHB114
 3025 028f 00       		.uleb128 0
 3026 0290 00       		.uleb128 0
 3027 0291 F703     		.uleb128 .LEHB115-.LFB1232
 3028 0293 05       		.uleb128 .LEHE115-.LEHB115
 3029 0294 00       		.uleb128 0
 3030 0295 00       		.uleb128 0
 3031              	.LLSDACSE1232:
 3032 0296 01       		.byte	0x1
 3033 0297 00       		.byte	0
 3034              		.align 4
 3035 0298 00000000 		.long	0
 3036              	
 3037              	.LLSDATT1232:
 3038              		.text
 3040              		.section	.rodata
 3041              	.LC28:
 3042 0486 48657849 		.string	"HexIO_testJunkRecType"
 3042      4F5F7465 
 3042      73744A75 
 3042      6E6B5265 
 3042      63547970 
 3043              		.section	.text._ZN25TestHexIO_testJunkRecTypeC2Ev,"axG",@progbits,_ZN25TestHexIO_testJunkRecTypeC5
 3044              		.align 2
 3045              		.weak	_ZN25TestHexIO_testJunkRecTypeC2Ev
 3047              	_ZN25TestHexIO_testJunkRecTypeC2Ev:
 3048              	.LFB1234:
 120:testHexIO.cpp **** 
 121:testHexIO.cpp **** TEST(HexIO_testJunkRecType) {
 3049              		.loc 4 121 1
 3050              		.cfi_startproc
 3051 0000 F30F1EFA 		endbr64
 3052 0004 55       		pushq	%rbp
 3053              		.cfi_def_cfa_offset 16
 3054              		.cfi_offset 6, -16
 3055 0005 4889E5   		movq	%rsp, %rbp
 3056              		.cfi_def_cfa_register 6
 3057 0008 53       		pushq	%rbx
 3058 0009 4883EC18 		subq	$24, %rsp
 3059              		.cfi_offset 3, -24
 3060 000d 48897DE8 		movq	%rdi, -24(%rbp)
 3061              	.LBB10:
 3062              		.loc 4 121 1
 3063 0011 488B5DE8 		movq	-24(%rbp), %rbx
 3064 0015 E8000000 		call	_ZN13UnitTestSuite12GetSuiteNameEv
 3064      00
 3065 001a 4889C2   		movq	%rax, %rdx
 3066 001d 41B87900 		movl	$121, %r8d
 3066      0000
 3067 0023 488D0500 		leaq	.LC1(%rip), %rax
 3067      000000
 3068 002a 4889C1   		movq	%rax, %rcx
 3069 002d 488D0500 		leaq	.LC28(%rip), %rax
 3069      000000
 3070 0034 4889C6   		movq	%rax, %rsi
 3071 0037 4889DF   		movq	%rbx, %rdi
 3072 003a E8000000 		call	_ZN8UnitTest4TestC2EPKcS2_S2_i@PLT
 3072      00
 3073 003f 488D1500 		leaq	16+_ZTV25TestHexIO_testJunkRecType(%rip), %rdx
 3073      000000
 3074 0046 488B45E8 		movq	-24(%rbp), %rax
 3075 004a 488910   		movq	%rdx, (%rax)
 3076              	.LBE10:
 3077 004d 90       		nop
 3078 004e 488B5DF8 		movq	-8(%rbp), %rbx
 3079 0052 C9       		leave
 3080              		.cfi_def_cfa 7, 8
 3081 0053 C3       		ret
 3082              		.cfi_endproc
 3083              	.LFE1234:
 3085              		.weak	_ZN25TestHexIO_testJunkRecTypeC1Ev
 3086              		.set	_ZN25TestHexIO_testJunkRecTypeC1Ev,_ZN25TestHexIO_testJunkRecTypeC2Ev
 3087              		.globl	testHexIO_testJunkRecTypeInstance
 3088              		.bss
 3089 0179 00000000 		.align 32
 3089      000000
 3092              	testHexIO_testJunkRecTypeInstance:
 3093 0180 00000000 		.zero	56
 3093      00000000 
 3093      00000000 
 3093      00000000 
 3093      00000000 
 3094              		.globl	adderHexIO_testJunkRecType
 3097              	adderHexIO_testJunkRecType:
 3098 01b8 00       		.zero	1
 3099              		.section	.rodata
 3100              	.LC29:
 3101 049c 3A303430 		.string	":040BE1..75820022F7\n"
 3101      4245312E 
 3101      2E373538 
 3101      32303032 
 3101      3246370A 
 3102 04b1 00000000 		.align 8
 3102      000000
 3103              	.LC30:
 3104 04b8 556E6861 		.string	"Unhandled exception in CHECK_EQUAL(HEX_JUNK_REC_TYPE, status)"
 3104      6E646C65 
 3104      64206578 
 3104      63657074 
 3104      696F6E20 
 3105              		.text
 3106 148f 90       		.align 2
 3107              		.globl	_ZNK25TestHexIO_testJunkRecType7RunImplEv
 3109              	_ZNK25TestHexIO_testJunkRecType7RunImplEv:
 3110              	.LFB1236:
 3111              		.loc 4 121 29
 3112              		.cfi_startproc
 3113              		.cfi_personality 0x9b,DW.ref.__gxx_personality_v0
 3114              		.cfi_lsda 0x1b,.LLSDA1236
 3115 1490 F30F1EFA 		endbr64
 3116 1494 55       		pushq	%rbp
 3117              		.cfi_def_cfa_offset 16
 3118              		.cfi_offset 6, -16
 3119 1495 4889E5   		movq	%rsp, %rbp
 3120              		.cfi_def_cfa_register 6
 3121 1498 53       		pushq	%rbx
 3122 1499 4881EC88 		subq	$136, %rsp
 3122      000000
 3123              		.cfi_offset 3, -24
 3124 14a0 4889BD78 		movq	%rdi, -136(%rbp)
 3124      FFFFFF
 3125              		.loc 4 121 29
 3126 14a7 64488B04 		movq	%fs:40, %rax
 3126      25280000 
 3126      00
 3127 14b0 488945E8 		movq	%rax, -24(%rbp)
 3128 14b4 31C0     		xorl	%eax, %eax
 122:testHexIO.cpp **** 	Buffer data;
 123:testHexIO.cpp **** 	BufferStatus status;
 124:testHexIO.cpp **** 	const char *line = ":040BE1..75820022F7\n";
 3129              		.loc 4 124 14
 3130 14b6 488D0500 		leaq	.LC29(%rip), %rax
 3130      000000
 3131 14bd 48894598 		movq	%rax, -104(%rbp)
 125:testHexIO.cpp **** 	uint8 recordType;
 126:testHexIO.cpp **** 	uint32 seg = 0x00000000;
 3132              		.loc 4 126 9
 3133 14c1 C7459000 		movl	$0, -112(%rbp)
 3133      000000
 127:testHexIO.cpp **** 	status = bufInitialise(&data, 1024, 0x00, NULL);
 3134              		.loc 4 127 24
 3135 14c8 488D45A0 		leaq	-96(%rbp), %rax
 3136 14cc B9000000 		movl	$0, %ecx
 3136      00
 3137 14d1 BA000000 		movl	$0, %edx
 3137      00
 3138 14d6 BE000400 		movl	$1024, %esi
 3138      00
 3139 14db 4889C7   		movq	%rax, %rdi
 3140              	.LEHB116:
 3141 14de E8000000 		call	bufInitialise@PLT
 3141      00
 3142              	.LEHE116:
 3143              		.loc 4 127 9
 3144 14e3 89458C   		movl	%eax, -116(%rbp)
 3145              	.LEHB117:
 128:testHexIO.cpp **** 	CHECK_EQUAL(BUF_SUCCESS, status);
 3146              		.loc 4 128 2
 3147 14e6 E8000000 		call	_ZN8UnitTest11CurrentTest7DetailsEv@PLT
 3147      00
 3148 14eb 488B08   		movq	(%rax), %rcx
 3149 14ee 488D45C0 		leaq	-64(%rbp), %rax
 3150 14f2 BA800000 		movl	$128, %edx
 3150      00
 3151 14f7 4889CE   		movq	%rcx, %rsi
 3152 14fa 4889C7   		movq	%rax, %rdi
 3153 14fd E8000000 		call	_ZN8UnitTest11TestDetailsC1ERKS0_i@PLT
 3153      00
 3154              		.loc 4 128 2 is_stmt 0 discriminator 4
 3155 1502 C7459400 		movl	$0, -108(%rbp)
 3155      000000
 3156 1509 E8000000 		call	_ZN8UnitTest11CurrentTest7ResultsEv@PLT
 3156      00
 3157 150e 488B00   		movq	(%rax), %rax
 3158 1511 488D4DC0 		leaq	-64(%rbp), %rcx
 3159 1515 488D558C 		leaq	-116(%rbp), %rdx
 3160 1519 488D7594 		leaq	-108(%rbp), %rsi
 3161 151d 4889C7   		movq	%rax, %rdi
 3162 1520 E8000000 		call	_ZN8UnitTest10CheckEqualI12BufferStatusS1_EEvRNS_11TestResultsERKT_RKT0_RKNS_11TestDetailsE
 3162      00
 3163              	.LEHE117:
 3164              	.L153:
 129:testHexIO.cpp **** 	status = bufProcessLine(line, 0, &data, NULL, &seg, &recordType, NULL);
 3165              		.loc 4 129 25 is_stmt 1
 3166 1525 488D758B 		leaq	-117(%rbp), %rsi
 3167 1529 488D4D90 		leaq	-112(%rbp), %rcx
 3168 152d 488D55A0 		leaq	-96(%rbp), %rdx
 3169 1531 488B4598 		movq	-104(%rbp), %rax
 3170 1535 4883EC08 		subq	$8, %rsp
 3171 1539 6A00     		pushq	$0
 3172 153b 4989F1   		movq	%rsi, %r9
 3173 153e 4989C8   		movq	%rcx, %r8
 3174 1541 B9000000 		movl	$0, %ecx
 3174      00
 3175 1546 BE000000 		movl	$0, %esi
 3175      00
 3176 154b 4889C7   		movq	%rax, %rdi
 3177              	.LEHB118:
 3178 154e E8000000 		call	bufProcessLine@PLT
 3178      00
 3179              	.LEHE118:
 3180 1553 4883C410 		addq	$16, %rsp
 3181              		.loc 4 129 9
 3182 1557 89458C   		movl	%eax, -116(%rbp)
 3183              	.LEHB119:
 130:testHexIO.cpp **** 	CHECK_EQUAL(HEX_JUNK_REC_TYPE, status);
 3184              		.loc 4 130 2
 3185 155a E8000000 		call	_ZN8UnitTest11CurrentTest7DetailsEv@PLT
 3185      00
 3186 155f 488B08   		movq	(%rax), %rcx
 3187 1562 488D45C0 		leaq	-64(%rbp), %rax
 3188 1566 BA820000 		movl	$130, %edx
 3188      00
 3189 156b 4889CE   		movq	%rcx, %rsi
 3190 156e 4889C7   		movq	%rax, %rdi
 3191 1571 E8000000 		call	_ZN8UnitTest11TestDetailsC1ERKS0_i@PLT
 3191      00
 3192              		.loc 4 130 2 is_stmt 0 discriminator 4
 3193 1576 C745940C 		movl	$12, -108(%rbp)
 3193      000000
 3194 157d E8000000 		call	_ZN8UnitTest11CurrentTest7ResultsEv@PLT
 3194      00
 3195 1582 488B00   		movq	(%rax), %rax
 3196 1585 488D4DC0 		leaq	-64(%rbp), %rcx
 3197 1589 488D558C 		leaq	-116(%rbp), %rdx
 3198 158d 488D7594 		leaq	-108(%rbp), %rsi
 3199 1591 4889C7   		movq	%rax, %rdi
 3200 1594 E8000000 		call	_ZN8UnitTest10CheckEqualI12BufferStatusS1_EEvRNS_11TestResultsERKT_RKT0_RKNS_11TestDetailsE
 3200      00
 3201              	.LEHE119:
 3202              	.L156:
 131:testHexIO.cpp **** 	bufDestroy(&data);
 3203              		.loc 4 131 12 is_stmt 1
 3204 1599 488D45A0 		leaq	-96(%rbp), %rax
 3205 159d 4889C7   		movq	%rax, %rdi
 3206              	.LEHB120:
 3207 15a0 E8000000 		call	bufDestroy@PLT
 3207      00
 3208              	.LEHE120:
 132:testHexIO.cpp **** }
 3209              		.loc 4 132 1
 3210 15a5 90       		nop
 3211 15a6 488B45E8 		movq	-24(%rbp), %rax
 3212 15aa 64482B04 		subq	%fs:40, %rax
 3212      25280000 
 3212      00
 3213 15b3 0F84D800 		je	.L158
 3213      0000
 3214 15b9 E9CE0000 		jmp	.L163
 3214      00
 3215              	.L159:
 3216 15be F30F1EFA 		endbr64
 128:testHexIO.cpp **** 	status = bufProcessLine(line, 0, &data, NULL, &seg, &recordType, NULL);
 3217              		.loc 4 128 2
 3218 15c2 4889C7   		movq	%rax, %rdi
 3219 15c5 E8000000 		call	__cxa_begin_catch@PLT
 3219      00
 3220              	.LEHB121:
 3221 15ca E8000000 		call	_ZN8UnitTest11CurrentTest7ResultsEv@PLT
 3221      00
 128:testHexIO.cpp **** 	status = bufProcessLine(line, 0, &data, NULL, &seg, &recordType, NULL);
 3222              		.loc 4 128 2 is_stmt 0 discriminator 3
 3223 15cf 488B18   		movq	(%rax), %rbx
 3224 15d2 E8000000 		call	_ZN8UnitTest11CurrentTest7DetailsEv@PLT
 3224      00
 128:testHexIO.cpp **** 	status = bufProcessLine(line, 0, &data, NULL, &seg, &recordType, NULL);
 3225              		.loc 4 128 2 discriminator 11
 3226 15d7 488B08   		movq	(%rax), %rcx
 3227 15da 488D45C0 		leaq	-64(%rbp), %rax
 3228 15de BA800000 		movl	$128, %edx
 3228      00
 3229 15e3 4889CE   		movq	%rcx, %rsi
 3230 15e6 4889C7   		movq	%rax, %rdi
 3231 15e9 E8000000 		call	_ZN8UnitTest11TestDetailsC1ERKS0_i@PLT
 3231      00
 128:testHexIO.cpp **** 	status = bufProcessLine(line, 0, &data, NULL, &seg, &recordType, NULL);
 3232              		.loc 4 128 2 discriminator 15
 3233 15ee 488D45C0 		leaq	-64(%rbp), %rax
 3234 15f2 488D1500 		leaq	.LC4(%rip), %rdx
 3234      000000
 3235 15f9 4889C6   		movq	%rax, %rsi
 3236 15fc 4889DF   		movq	%rbx, %rdi
 3237 15ff E8000000 		call	_ZN8UnitTest11TestResults13OnTestFailureERKNS_11TestDetailsEPKc@PLT
 3237      00
 3238              	.LEHE121:
 3239              	.LEHB122:
 128:testHexIO.cpp **** 	status = bufProcessLine(line, 0, &data, NULL, &seg, &recordType, NULL);
 3240              		.loc 4 128 2 discriminator 17
 3241 1604 E8000000 		call	__cxa_end_catch@PLT
 3241      00
 3242              	.LEHE122:
 3243 1609 E917FFFF 		jmp	.L153
 3243      FF
 3244              	.L160:
 3245 160e F30F1EFA 		endbr64
 128:testHexIO.cpp **** 	status = bufProcessLine(line, 0, &data, NULL, &seg, &recordType, NULL);
 3246              		.loc 4 128 2
 3247 1612 4889C3   		movq	%rax, %rbx
 3248 1615 E8000000 		call	__cxa_end_catch@PLT
 3248      00
 3249 161a 4889D8   		movq	%rbx, %rax
 3250 161d 4889C7   		movq	%rax, %rdi
 3251              	.LEHB123:
 3252 1620 E8000000 		call	_Unwind_Resume@PLT
 3252      00
 3253              	.LEHE123:
 3254              	.L161:
 3255 1625 F30F1EFA 		endbr64
 130:testHexIO.cpp **** 	bufDestroy(&data);
 3256              		.loc 4 130 2 is_stmt 1
 3257 1629 4889C7   		movq	%rax, %rdi
 3258 162c E8000000 		call	__cxa_begin_catch@PLT
 3258      00
 3259              	.LEHB124:
 3260 1631 E8000000 		call	_ZN8UnitTest11CurrentTest7ResultsEv@PLT
 3260      00
 130:testHexIO.cpp **** 	bufDestroy(&data);
 3261              		.loc 4 130 2 is_stmt 0 discriminator 3
 3262 1636 488B18   		movq	(%rax), %rbx
 3263 1639 E8000000 		call	_ZN8UnitTest11CurrentTest7DetailsEv@PLT
 3263      00
 130:testHexIO.cpp **** 	bufDestroy(&data);
 3264              		.loc 4 130 2 discriminator 11
 3265 163e 488B08   		movq	(%rax), %rcx
 3266 1641 488D45C0 		leaq	-64(%rbp), %rax
 3267 1645 BA820000 		movl	$130, %edx
 3267      00
 3268 164a 4889CE   		movq	%rcx, %rsi
 3269 164d 4889C7   		movq	%rax, %rdi
 3270 1650 E8000000 		call	_ZN8UnitTest11TestDetailsC1ERKS0_i@PLT
 3270      00
 130:testHexIO.cpp **** 	bufDestroy(&data);
 3271              		.loc 4 130 2 discriminator 15
 3272 1655 488D45C0 		leaq	-64(%rbp), %rax
 3273 1659 488D1500 		leaq	.LC30(%rip), %rdx
 3273      000000
 3274 1660 4889C6   		movq	%rax, %rsi
 3275 1663 4889DF   		movq	%rbx, %rdi
 3276 1666 E8000000 		call	_ZN8UnitTest11TestResults13OnTestFailureERKNS_11TestDetailsEPKc@PLT
 3276      00
 3277              	.LEHE124:
 3278              	.LEHB125:
 130:testHexIO.cpp **** 	bufDestroy(&data);
 3279              		.loc 4 130 2 discriminator 17
 3280 166b E8000000 		call	__cxa_end_catch@PLT
 3280      00
 3281              	.LEHE125:
 3282 1670 E924FFFF 		jmp	.L156
 3282      FF
 3283              	.L162:
 3284 1675 F30F1EFA 		endbr64
 130:testHexIO.cpp **** 	bufDestroy(&data);
 3285              		.loc 4 130 2
 3286 1679 4889C3   		movq	%rax, %rbx
 3287 167c E8000000 		call	__cxa_end_catch@PLT
 3287      00
 3288 1681 4889D8   		movq	%rbx, %rax
 3289 1684 4889C7   		movq	%rax, %rdi
 3290              	.LEHB126:
 3291 1687 E8000000 		call	_Unwind_Resume@PLT
 3291      00
 3292              	.LEHE126:
 3293              	.L163:
 3294              		.loc 4 132 1 is_stmt 1
 3295 168c E8000000 		call	__stack_chk_fail@PLT
 3295      00
 3296              	.L158:
 3297 1691 488B5DF8 		movq	-8(%rbp), %rbx
 3298 1695 C9       		leave
 3299              		.cfi_def_cfa 7, 8
 3300 1696 C3       		ret
 3301              		.cfi_endproc
 3302              	.LFE1236:
 3303              		.section	.gcc_except_table
 3304              		.align 4
 3305              	.LLSDA1236:
 3306 029c FF       		.byte	0xff
 3307 029d 9B       		.byte	0x9b
 3308 029e 41       		.uleb128 .LLSDATT1236-.LLSDATTD1236
 3309              	.LLSDATTD1236:
 3310 029f 01       		.byte	0x1
 3311 02a0 39       		.uleb128 .LLSDACSE1236-.LLSDACSB1236
 3312              	.LLSDACSB1236:
 3313 02a1 4E       		.uleb128 .LEHB116-.LFB1236
 3314 02a2 05       		.uleb128 .LEHE116-.LEHB116
 3315 02a3 00       		.uleb128 0
 3316 02a4 00       		.uleb128 0
 3317 02a5 56       		.uleb128 .LEHB117-.LFB1236
 3318 02a6 3F       		.uleb128 .LEHE117-.LEHB117
 3319 02a7 AE02     		.uleb128 .L159-.LFB1236
 3320 02a9 01       		.uleb128 0x1
 3321 02aa BE01     		.uleb128 .LEHB118-.LFB1236
 3322 02ac 05       		.uleb128 .LEHE118-.LEHB118
 3323 02ad 00       		.uleb128 0
 3324 02ae 00       		.uleb128 0
 3325 02af CA01     		.uleb128 .LEHB119-.LFB1236
 3326 02b1 3F       		.uleb128 .LEHE119-.LEHB119
 3327 02b2 9503     		.uleb128 .L161-.LFB1236
 3328 02b4 01       		.uleb128 0x1
 3329 02b5 9002     		.uleb128 .LEHB120-.LFB1236
 3330 02b7 05       		.uleb128 .LEHE120-.LEHB120
 3331 02b8 00       		.uleb128 0
 3332 02b9 00       		.uleb128 0
 3333 02ba BA02     		.uleb128 .LEHB121-.LFB1236
 3334 02bc 3A       		.uleb128 .LEHE121-.LEHB121
 3335 02bd FE02     		.uleb128 .L160-.LFB1236
 3336 02bf 00       		.uleb128 0
 3337 02c0 F402     		.uleb128 .LEHB122-.LFB1236
 3338 02c2 05       		.uleb128 .LEHE122-.LEHB122
 3339 02c3 00       		.uleb128 0
 3340 02c4 00       		.uleb128 0
 3341 02c5 9003     		.uleb128 .LEHB123-.LFB1236
 3342 02c7 05       		.uleb128 .LEHE123-.LEHB123
 3343 02c8 00       		.uleb128 0
 3344 02c9 00       		.uleb128 0
 3345 02ca A103     		.uleb128 .LEHB124-.LFB1236
 3346 02cc 3A       		.uleb128 .LEHE124-.LEHB124
 3347 02cd E503     		.uleb128 .L162-.LFB1236
 3348 02cf 00       		.uleb128 0
 3349 02d0 DB03     		.uleb128 .LEHB125-.LFB1236
 3350 02d2 05       		.uleb128 .LEHE125-.LEHB125
 3351 02d3 00       		.uleb128 0
 3352 02d4 00       		.uleb128 0
 3353 02d5 F703     		.uleb128 .LEHB126-.LFB1236
 3354 02d7 05       		.uleb128 .LEHE126-.LEHB126
 3355 02d8 00       		.uleb128 0
 3356 02d9 00       		.uleb128 0
 3357              	.LLSDACSE1236:
 3358 02da 01       		.byte	0x1
 3359 02db 00       		.byte	0
 3360              		.align 4
 3361 02dc 00000000 		.long	0
 3362              	
 3363              	.LLSDATT1236:
 3364              		.text
 3366              		.section	.rodata
 3367              	.LC31:
 3368 04f6 48657849 		.string	"HexIO_testJunkDataByte"
 3368      4F5F7465 
 3368      73744A75 
 3368      6E6B4461 
 3368      74614279 
 3369              		.section	.text._ZN26TestHexIO_testJunkDataByteC2Ev,"axG",@progbits,_ZN26TestHexIO_testJunkDataByte
 3370              		.align 2
 3371              		.weak	_ZN26TestHexIO_testJunkDataByteC2Ev
 3373              	_ZN26TestHexIO_testJunkDataByteC2Ev:
 3374              	.LFB1238:
 133:testHexIO.cpp **** 
 134:testHexIO.cpp **** TEST(HexIO_testJunkDataByte) {
 3375              		.loc 4 134 1
 3376              		.cfi_startproc
 3377 0000 F30F1EFA 		endbr64
 3378 0004 55       		pushq	%rbp
 3379              		.cfi_def_cfa_offset 16
 3380              		.cfi_offset 6, -16
 3381 0005 4889E5   		movq	%rsp, %rbp
 3382              		.cfi_def_cfa_register 6
 3383 0008 53       		pushq	%rbx
 3384 0009 4883EC18 		subq	$24, %rsp
 3385              		.cfi_offset 3, -24
 3386 000d 48897DE8 		movq	%rdi, -24(%rbp)
 3387              	.LBB11:
 3388              		.loc 4 134 1
 3389 0011 488B5DE8 		movq	-24(%rbp), %rbx
 3390 0015 E8000000 		call	_ZN13UnitTestSuite12GetSuiteNameEv
 3390      00
 3391 001a 4889C2   		movq	%rax, %rdx
 3392 001d 41B88600 		movl	$134, %r8d
 3392      0000
 3393 0023 488D0500 		leaq	.LC1(%rip), %rax
 3393      000000
 3394 002a 4889C1   		movq	%rax, %rcx
 3395 002d 488D0500 		leaq	.LC31(%rip), %rax
 3395      000000
 3396 0034 4889C6   		movq	%rax, %rsi
 3397 0037 4889DF   		movq	%rbx, %rdi
 3398 003a E8000000 		call	_ZN8UnitTest4TestC2EPKcS2_S2_i@PLT
 3398      00
 3399 003f 488D1500 		leaq	16+_ZTV26TestHexIO_testJunkDataByte(%rip), %rdx
 3399      000000
 3400 0046 488B45E8 		movq	-24(%rbp), %rax
 3401 004a 488910   		movq	%rdx, (%rax)
 3402              	.LBE11:
 3403 004d 90       		nop
 3404 004e 488B5DF8 		movq	-8(%rbp), %rbx
 3405 0052 C9       		leave
 3406              		.cfi_def_cfa 7, 8
 3407 0053 C3       		ret
 3408              		.cfi_endproc
 3409              	.LFE1238:
 3411              		.weak	_ZN26TestHexIO_testJunkDataByteC1Ev
 3412              		.set	_ZN26TestHexIO_testJunkDataByteC1Ev,_ZN26TestHexIO_testJunkDataByteC2Ev
 3413              		.globl	testHexIO_testJunkDataByteInstance
 3414              		.bss
 3415 01b9 00000000 		.align 32
 3415      000000
 3418              	testHexIO_testJunkDataByteInstance:
 3419 01c0 00000000 		.zero	56
 3419      00000000 
 3419      00000000 
 3419      00000000 
 3419      00000000 
 3420              		.globl	adderHexIO_testJunkDataByte
 3423              	adderHexIO_testJunkDataByte:
 3424 01f8 00       		.zero	1
 3425              		.section	.rodata
 3426              	.LC32:
 3427 050d 3A303430 		.string	":040BE100..820022F7\n"
 3427      42453130 
 3427      302E2E38 
 3427      32303032 
 3427      3246370A 
 3428 0522 00000000 		.align 8
 3428      0000
 3429              	.LC33:
 3430 0528 556E6861 		.string	"Unhandled exception in CHECK_EQUAL(HEX_JUNK_DATA_BYTE, status)"
 3430      6E646C65 
 3430      64206578 
 3430      63657074 
 3430      696F6E20 
 3431              		.text
 3432 1697 90       		.align 2
 3433              		.globl	_ZNK26TestHexIO_testJunkDataByte7RunImplEv
 3435              	_ZNK26TestHexIO_testJunkDataByte7RunImplEv:
 3436              	.LFB1240:
 3437              		.loc 4 134 30
 3438              		.cfi_startproc
 3439              		.cfi_personality 0x9b,DW.ref.__gxx_personality_v0
 3440              		.cfi_lsda 0x1b,.LLSDA1240
 3441 1698 F30F1EFA 		endbr64
 3442 169c 55       		pushq	%rbp
 3443              		.cfi_def_cfa_offset 16
 3444              		.cfi_offset 6, -16
 3445 169d 4889E5   		movq	%rsp, %rbp
 3446              		.cfi_def_cfa_register 6
 3447 16a0 53       		pushq	%rbx
 3448 16a1 4881EC88 		subq	$136, %rsp
 3448      000000
 3449              		.cfi_offset 3, -24
 3450 16a8 4889BD78 		movq	%rdi, -136(%rbp)
 3450      FFFFFF
 3451              		.loc 4 134 30
 3452 16af 64488B04 		movq	%fs:40, %rax
 3452      25280000 
 3452      00
 3453 16b8 488945E8 		movq	%rax, -24(%rbp)
 3454 16bc 31C0     		xorl	%eax, %eax
 135:testHexIO.cpp **** 	Buffer data;
 136:testHexIO.cpp **** 	BufferStatus status;
 137:testHexIO.cpp **** 	const char *line = ":040BE100..820022F7\n";
 3455              		.loc 4 137 14
 3456 16be 488D0500 		leaq	.LC32(%rip), %rax
 3456      000000
 3457 16c5 48894598 		movq	%rax, -104(%rbp)
 138:testHexIO.cpp **** 	uint8 recordType;
 139:testHexIO.cpp **** 	uint32 seg = 0x00000000;
 3458              		.loc 4 139 9
 3459 16c9 C7459000 		movl	$0, -112(%rbp)
 3459      000000
 140:testHexIO.cpp **** 	status = bufInitialise(&data, 1024, 0x00, NULL);
 3460              		.loc 4 140 24
 3461 16d0 488D45A0 		leaq	-96(%rbp), %rax
 3462 16d4 B9000000 		movl	$0, %ecx
 3462      00
 3463 16d9 BA000000 		movl	$0, %edx
 3463      00
 3464 16de BE000400 		movl	$1024, %esi
 3464      00
 3465 16e3 4889C7   		movq	%rax, %rdi
 3466              	.LEHB127:
 3467 16e6 E8000000 		call	bufInitialise@PLT
 3467      00
 3468              	.LEHE127:
 3469              		.loc 4 140 9
 3470 16eb 89458C   		movl	%eax, -116(%rbp)
 3471              	.LEHB128:
 141:testHexIO.cpp **** 	CHECK_EQUAL(BUF_SUCCESS, status);
 3472              		.loc 4 141 2
 3473 16ee E8000000 		call	_ZN8UnitTest11CurrentTest7DetailsEv@PLT
 3473      00
 3474 16f3 488B08   		movq	(%rax), %rcx
 3475 16f6 488D45C0 		leaq	-64(%rbp), %rax
 3476 16fa BA8D0000 		movl	$141, %edx
 3476      00
 3477 16ff 4889CE   		movq	%rcx, %rsi
 3478 1702 4889C7   		movq	%rax, %rdi
 3479 1705 E8000000 		call	_ZN8UnitTest11TestDetailsC1ERKS0_i@PLT
 3479      00
 3480              		.loc 4 141 2 is_stmt 0 discriminator 4
 3481 170a C7459400 		movl	$0, -108(%rbp)
 3481      000000
 3482 1711 E8000000 		call	_ZN8UnitTest11CurrentTest7ResultsEv@PLT
 3482      00
 3483 1716 488B00   		movq	(%rax), %rax
 3484 1719 488D4DC0 		leaq	-64(%rbp), %rcx
 3485 171d 488D558C 		leaq	-116(%rbp), %rdx
 3486 1721 488D7594 		leaq	-108(%rbp), %rsi
 3487 1725 4889C7   		movq	%rax, %rdi
 3488 1728 E8000000 		call	_ZN8UnitTest10CheckEqualI12BufferStatusS1_EEvRNS_11TestResultsERKT_RKT0_RKNS_11TestDetailsE
 3488      00
 3489              	.LEHE128:
 3490              	.L167:
 142:testHexIO.cpp **** 	status = bufProcessLine(line, 0, &data, NULL, &seg, &recordType, NULL);
 3491              		.loc 4 142 25 is_stmt 1
 3492 172d 488D758B 		leaq	-117(%rbp), %rsi
 3493 1731 488D4D90 		leaq	-112(%rbp), %rcx
 3494 1735 488D55A0 		leaq	-96(%rbp), %rdx
 3495 1739 488B4598 		movq	-104(%rbp), %rax
 3496 173d 4883EC08 		subq	$8, %rsp
 3497 1741 6A00     		pushq	$0
 3498 1743 4989F1   		movq	%rsi, %r9
 3499 1746 4989C8   		movq	%rcx, %r8
 3500 1749 B9000000 		movl	$0, %ecx
 3500      00
 3501 174e BE000000 		movl	$0, %esi
 3501      00
 3502 1753 4889C7   		movq	%rax, %rdi
 3503              	.LEHB129:
 3504 1756 E8000000 		call	bufProcessLine@PLT
 3504      00
 3505              	.LEHE129:
 3506 175b 4883C410 		addq	$16, %rsp
 3507              		.loc 4 142 9
 3508 175f 89458C   		movl	%eax, -116(%rbp)
 3509              	.LEHB130:
 143:testHexIO.cpp **** 	CHECK_EQUAL(HEX_JUNK_DATA_BYTE, status);
 3510              		.loc 4 143 2
 3511 1762 E8000000 		call	_ZN8UnitTest11CurrentTest7DetailsEv@PLT
 3511      00
 3512 1767 488B08   		movq	(%rax), %rcx
 3513 176a 488D45C0 		leaq	-64(%rbp), %rax
 3514 176e BA8F0000 		movl	$143, %edx
 3514      00
 3515 1773 4889CE   		movq	%rcx, %rsi
 3516 1776 4889C7   		movq	%rax, %rdi
 3517 1779 E8000000 		call	_ZN8UnitTest11TestDetailsC1ERKS0_i@PLT
 3517      00
 3518              		.loc 4 143 2 is_stmt 0 discriminator 4
 3519 177e C745940E 		movl	$14, -108(%rbp)
 3519      000000
 3520 1785 E8000000 		call	_ZN8UnitTest11CurrentTest7ResultsEv@PLT
 3520      00
 3521 178a 488B00   		movq	(%rax), %rax
 3522 178d 488D4DC0 		leaq	-64(%rbp), %rcx
 3523 1791 488D558C 		leaq	-116(%rbp), %rdx
 3524 1795 488D7594 		leaq	-108(%rbp), %rsi
 3525 1799 4889C7   		movq	%rax, %rdi
 3526 179c E8000000 		call	_ZN8UnitTest10CheckEqualI12BufferStatusS1_EEvRNS_11TestResultsERKT_RKT0_RKNS_11TestDetailsE
 3526      00
 3527              	.LEHE130:
 3528              	.L170:
 144:testHexIO.cpp **** 	bufDestroy(&data);
 3529              		.loc 4 144 12 is_stmt 1
 3530 17a1 488D45A0 		leaq	-96(%rbp), %rax
 3531 17a5 4889C7   		movq	%rax, %rdi
 3532              	.LEHB131:
 3533 17a8 E8000000 		call	bufDestroy@PLT
 3533      00
 3534              	.LEHE131:
 145:testHexIO.cpp **** }
 3535              		.loc 4 145 1
 3536 17ad 90       		nop
 3537 17ae 488B45E8 		movq	-24(%rbp), %rax
 3538 17b2 64482B04 		subq	%fs:40, %rax
 3538      25280000 
 3538      00
 3539 17bb 0F84D800 		je	.L172
 3539      0000
 3540 17c1 E9CE0000 		jmp	.L177
 3540      00
 3541              	.L173:
 3542 17c6 F30F1EFA 		endbr64
 141:testHexIO.cpp **** 	status = bufProcessLine(line, 0, &data, NULL, &seg, &recordType, NULL);
 3543              		.loc 4 141 2
 3544 17ca 4889C7   		movq	%rax, %rdi
 3545 17cd E8000000 		call	__cxa_begin_catch@PLT
 3545      00
 3546              	.LEHB132:
 3547 17d2 E8000000 		call	_ZN8UnitTest11CurrentTest7ResultsEv@PLT
 3547      00
 141:testHexIO.cpp **** 	status = bufProcessLine(line, 0, &data, NULL, &seg, &recordType, NULL);
 3548              		.loc 4 141 2 is_stmt 0 discriminator 3
 3549 17d7 488B18   		movq	(%rax), %rbx
 3550 17da E8000000 		call	_ZN8UnitTest11CurrentTest7DetailsEv@PLT
 3550      00
 141:testHexIO.cpp **** 	status = bufProcessLine(line, 0, &data, NULL, &seg, &recordType, NULL);
 3551              		.loc 4 141 2 discriminator 11
 3552 17df 488B08   		movq	(%rax), %rcx
 3553 17e2 488D45C0 		leaq	-64(%rbp), %rax
 3554 17e6 BA8D0000 		movl	$141, %edx
 3554      00
 3555 17eb 4889CE   		movq	%rcx, %rsi
 3556 17ee 4889C7   		movq	%rax, %rdi
 3557 17f1 E8000000 		call	_ZN8UnitTest11TestDetailsC1ERKS0_i@PLT
 3557      00
 141:testHexIO.cpp **** 	status = bufProcessLine(line, 0, &data, NULL, &seg, &recordType, NULL);
 3558              		.loc 4 141 2 discriminator 15
 3559 17f6 488D45C0 		leaq	-64(%rbp), %rax
 3560 17fa 488D1500 		leaq	.LC4(%rip), %rdx
 3560      000000
 3561 1801 4889C6   		movq	%rax, %rsi
 3562 1804 4889DF   		movq	%rbx, %rdi
 3563 1807 E8000000 		call	_ZN8UnitTest11TestResults13OnTestFailureERKNS_11TestDetailsEPKc@PLT
 3563      00
 3564              	.LEHE132:
 3565              	.LEHB133:
 141:testHexIO.cpp **** 	status = bufProcessLine(line, 0, &data, NULL, &seg, &recordType, NULL);
 3566              		.loc 4 141 2 discriminator 17
 3567 180c E8000000 		call	__cxa_end_catch@PLT
 3567      00
 3568              	.LEHE133:
 3569 1811 E917FFFF 		jmp	.L167
 3569      FF
 3570              	.L174:
 3571 1816 F30F1EFA 		endbr64
 141:testHexIO.cpp **** 	status = bufProcessLine(line, 0, &data, NULL, &seg, &recordType, NULL);
 3572              		.loc 4 141 2
 3573 181a 4889C3   		movq	%rax, %rbx
 3574 181d E8000000 		call	__cxa_end_catch@PLT
 3574      00
 3575 1822 4889D8   		movq	%rbx, %rax
 3576 1825 4889C7   		movq	%rax, %rdi
 3577              	.LEHB134:
 3578 1828 E8000000 		call	_Unwind_Resume@PLT
 3578      00
 3579              	.LEHE134:
 3580              	.L175:
 3581 182d F30F1EFA 		endbr64
 143:testHexIO.cpp **** 	bufDestroy(&data);
 3582              		.loc 4 143 2 is_stmt 1
 3583 1831 4889C7   		movq	%rax, %rdi
 3584 1834 E8000000 		call	__cxa_begin_catch@PLT
 3584      00
 3585              	.LEHB135:
 3586 1839 E8000000 		call	_ZN8UnitTest11CurrentTest7ResultsEv@PLT
 3586      00
 143:testHexIO.cpp **** 	bufDestroy(&data);
 3587              		.loc 4 143 2 is_stmt 0 discriminator 3
 3588 183e 488B18   		movq	(%rax), %rbx
 3589 1841 E8000000 		call	_ZN8UnitTest11CurrentTest7DetailsEv@PLT
 3589      00
 143:testHexIO.cpp **** 	bufDestroy(&data);
 3590              		.loc 4 143 2 discriminator 11
 3591 1846 488B08   		movq	(%rax), %rcx
 3592 1849 488D45C0 		leaq	-64(%rbp), %rax
 3593 184d BA8F0000 		movl	$143, %edx
 3593      00
 3594 1852 4889CE   		movq	%rcx, %rsi
 3595 1855 4889C7   		movq	%rax, %rdi
 3596 1858 E8000000 		call	_ZN8UnitTest11TestDetailsC1ERKS0_i@PLT
 3596      00
 143:testHexIO.cpp **** 	bufDestroy(&data);
 3597              		.loc 4 143 2 discriminator 15
 3598 185d 488D45C0 		leaq	-64(%rbp), %rax
 3599 1861 488D1500 		leaq	.LC33(%rip), %rdx
 3599      000000
 3600 1868 4889C6   		movq	%rax, %rsi
 3601 186b 4889DF   		movq	%rbx, %rdi
 3602 186e E8000000 		call	_ZN8UnitTest11TestResults13OnTestFailureERKNS_11TestDetailsEPKc@PLT
 3602      00
 3603              	.LEHE135:
 3604              	.LEHB136:
 143:testHexIO.cpp **** 	bufDestroy(&data);
 3605              		.loc 4 143 2 discriminator 17
 3606 1873 E8000000 		call	__cxa_end_catch@PLT
 3606      00
 3607              	.LEHE136:
 3608 1878 E924FFFF 		jmp	.L170
 3608      FF
 3609              	.L176:
 3610 187d F30F1EFA 		endbr64
 143:testHexIO.cpp **** 	bufDestroy(&data);
 3611              		.loc 4 143 2
 3612 1881 4889C3   		movq	%rax, %rbx
 3613 1884 E8000000 		call	__cxa_end_catch@PLT
 3613      00
 3614 1889 4889D8   		movq	%rbx, %rax
 3615 188c 4889C7   		movq	%rax, %rdi
 3616              	.LEHB137:
 3617 188f E8000000 		call	_Unwind_Resume@PLT
 3617      00
 3618              	.LEHE137:
 3619              	.L177:
 3620              		.loc 4 145 1 is_stmt 1
 3621 1894 E8000000 		call	__stack_chk_fail@PLT
 3621      00
 3622              	.L172:
 3623 1899 488B5DF8 		movq	-8(%rbp), %rbx
 3624 189d C9       		leave
 3625              		.cfi_def_cfa 7, 8
 3626 189e C3       		ret
 3627              		.cfi_endproc
 3628              	.LFE1240:
 3629              		.section	.gcc_except_table
 3630              		.align 4
 3631              	.LLSDA1240:
 3632 02e0 FF       		.byte	0xff
 3633 02e1 9B       		.byte	0x9b
 3634 02e2 41       		.uleb128 .LLSDATT1240-.LLSDATTD1240
 3635              	.LLSDATTD1240:
 3636 02e3 01       		.byte	0x1
 3637 02e4 39       		.uleb128 .LLSDACSE1240-.LLSDACSB1240
 3638              	.LLSDACSB1240:
 3639 02e5 4E       		.uleb128 .LEHB127-.LFB1240
 3640 02e6 05       		.uleb128 .LEHE127-.LEHB127
 3641 02e7 00       		.uleb128 0
 3642 02e8 00       		.uleb128 0
 3643 02e9 56       		.uleb128 .LEHB128-.LFB1240
 3644 02ea 3F       		.uleb128 .LEHE128-.LEHB128
 3645 02eb AE02     		.uleb128 .L173-.LFB1240
 3646 02ed 01       		.uleb128 0x1
 3647 02ee BE01     		.uleb128 .LEHB129-.LFB1240
 3648 02f0 05       		.uleb128 .LEHE129-.LEHB129
 3649 02f1 00       		.uleb128 0
 3650 02f2 00       		.uleb128 0
 3651 02f3 CA01     		.uleb128 .LEHB130-.LFB1240
 3652 02f5 3F       		.uleb128 .LEHE130-.LEHB130
 3653 02f6 9503     		.uleb128 .L175-.LFB1240
 3654 02f8 01       		.uleb128 0x1
 3655 02f9 9002     		.uleb128 .LEHB131-.LFB1240
 3656 02fb 05       		.uleb128 .LEHE131-.LEHB131
 3657 02fc 00       		.uleb128 0
 3658 02fd 00       		.uleb128 0
 3659 02fe BA02     		.uleb128 .LEHB132-.LFB1240
 3660 0300 3A       		.uleb128 .LEHE132-.LEHB132
 3661 0301 FE02     		.uleb128 .L174-.LFB1240
 3662 0303 00       		.uleb128 0
 3663 0304 F402     		.uleb128 .LEHB133-.LFB1240
 3664 0306 05       		.uleb128 .LEHE133-.LEHB133
 3665 0307 00       		.uleb128 0
 3666 0308 00       		.uleb128 0
 3667 0309 9003     		.uleb128 .LEHB134-.LFB1240
 3668 030b 05       		.uleb128 .LEHE134-.LEHB134
 3669 030c 00       		.uleb128 0
 3670 030d 00       		.uleb128 0
 3671 030e A103     		.uleb128 .LEHB135-.LFB1240
 3672 0310 3A       		.uleb128 .LEHE135-.LEHB135
 3673 0311 E503     		.uleb128 .L176-.LFB1240
 3674 0313 00       		.uleb128 0
 3675 0314 DB03     		.uleb128 .LEHB136-.LFB1240
 3676 0316 05       		.uleb128 .LEHE136-.LEHB136
 3677 0317 00       		.uleb128 0
 3678 0318 00       		.uleb128 0
 3679 0319 F703     		.uleb128 .LEHB137-.LFB1240
 3680 031b 05       		.uleb128 .LEHE137-.LEHB137
 3681 031c 00       		.uleb128 0
 3682 031d 00       		.uleb128 0
 3683              	.LLSDACSE1240:
 3684 031e 01       		.byte	0x1
 3685 031f 00       		.byte	0
 3686              		.align 4
 3687 0320 00000000 		.long	0
 3688              	
 3689              	.LLSDATT1240:
 3690              		.text
 3692              		.section	.rodata
 3693              	.LC34:
 3694 0567 48657849 		.string	"HexIO_testJunkChecksum"
 3694      4F5F7465 
 3694      73744A75 
 3694      6E6B4368 
 3694      65636B73 
 3695              		.section	.text._ZN26TestHexIO_testJunkChecksumC2Ev,"axG",@progbits,_ZN26TestHexIO_testJunkChecksum
 3696              		.align 2
 3697              		.weak	_ZN26TestHexIO_testJunkChecksumC2Ev
 3699              	_ZN26TestHexIO_testJunkChecksumC2Ev:
 3700              	.LFB1242:
 146:testHexIO.cpp **** 
 147:testHexIO.cpp **** TEST(HexIO_testJunkChecksum) {
 3701              		.loc 4 147 1
 3702              		.cfi_startproc
 3703 0000 F30F1EFA 		endbr64
 3704 0004 55       		pushq	%rbp
 3705              		.cfi_def_cfa_offset 16
 3706              		.cfi_offset 6, -16
 3707 0005 4889E5   		movq	%rsp, %rbp
 3708              		.cfi_def_cfa_register 6
 3709 0008 53       		pushq	%rbx
 3710 0009 4883EC18 		subq	$24, %rsp
 3711              		.cfi_offset 3, -24
 3712 000d 48897DE8 		movq	%rdi, -24(%rbp)
 3713              	.LBB12:
 3714              		.loc 4 147 1
 3715 0011 488B5DE8 		movq	-24(%rbp), %rbx
 3716 0015 E8000000 		call	_ZN13UnitTestSuite12GetSuiteNameEv
 3716      00
 3717 001a 4889C2   		movq	%rax, %rdx
 3718 001d 41B89300 		movl	$147, %r8d
 3718      0000
 3719 0023 488D0500 		leaq	.LC1(%rip), %rax
 3719      000000
 3720 002a 4889C1   		movq	%rax, %rcx
 3721 002d 488D0500 		leaq	.LC34(%rip), %rax
 3721      000000
 3722 0034 4889C6   		movq	%rax, %rsi
 3723 0037 4889DF   		movq	%rbx, %rdi
 3724 003a E8000000 		call	_ZN8UnitTest4TestC2EPKcS2_S2_i@PLT
 3724      00
 3725 003f 488D1500 		leaq	16+_ZTV26TestHexIO_testJunkChecksum(%rip), %rdx
 3725      000000
 3726 0046 488B45E8 		movq	-24(%rbp), %rax
 3727 004a 488910   		movq	%rdx, (%rax)
 3728              	.LBE12:
 3729 004d 90       		nop
 3730 004e 488B5DF8 		movq	-8(%rbp), %rbx
 3731 0052 C9       		leave
 3732              		.cfi_def_cfa 7, 8
 3733 0053 C3       		ret
 3734              		.cfi_endproc
 3735              	.LFE1242:
 3737              		.weak	_ZN26TestHexIO_testJunkChecksumC1Ev
 3738              		.set	_ZN26TestHexIO_testJunkChecksumC1Ev,_ZN26TestHexIO_testJunkChecksumC2Ev
 3739              		.globl	testHexIO_testJunkChecksumInstance
 3740              		.bss
 3741 01f9 00000000 		.align 32
 3741      000000
 3744              	testHexIO_testJunkChecksumInstance:
 3745 0200 00000000 		.zero	56
 3745      00000000 
 3745      00000000 
 3745      00000000 
 3745      00000000 
 3746              		.globl	adderHexIO_testJunkChecksum
 3749              	adderHexIO_testJunkChecksum:
 3750 0238 00       		.zero	1
 3751              		.section	.rodata
 3752              	.LC35:
 3753 057e 3A303430 		.string	":040BE10075820022..\n"
 3753      42453130 
 3753      30373538 
 3753      32303032 
 3753      322E2E0A 
 3754 0593 00000000 		.align 8
 3754      00
 3755              	.LC36:
 3756 0598 556E6861 		.string	"Unhandled exception in CHECK_EQUAL(HEX_JUNK_CHECKSUM, status)"
 3756      6E646C65 
 3756      64206578 
 3756      63657074 
 3756      696F6E20 
 3757              		.text
 3758 189f 90       		.align 2
 3759              		.globl	_ZNK26TestHexIO_testJunkChecksum7RunImplEv
 3761              	_ZNK26TestHexIO_testJunkChecksum7RunImplEv:
 3762              	.LFB1244:
 3763              		.loc 4 147 30
 3764              		.cfi_startproc
 3765              		.cfi_personality 0x9b,DW.ref.__gxx_personality_v0
 3766              		.cfi_lsda 0x1b,.LLSDA1244
 3767 18a0 F30F1EFA 		endbr64
 3768 18a4 55       		pushq	%rbp
 3769              		.cfi_def_cfa_offset 16
 3770              		.cfi_offset 6, -16
 3771 18a5 4889E5   		movq	%rsp, %rbp
 3772              		.cfi_def_cfa_register 6
 3773 18a8 53       		pushq	%rbx
 3774 18a9 4881EC88 		subq	$136, %rsp
 3774      000000
 3775              		.cfi_offset 3, -24
 3776 18b0 4889BD78 		movq	%rdi, -136(%rbp)
 3776      FFFFFF
 3777              		.loc 4 147 30
 3778 18b7 64488B04 		movq	%fs:40, %rax
 3778      25280000 
 3778      00
 3779 18c0 488945E8 		movq	%rax, -24(%rbp)
 3780 18c4 31C0     		xorl	%eax, %eax
 148:testHexIO.cpp **** 	Buffer data;
 149:testHexIO.cpp **** 	BufferStatus status;
 150:testHexIO.cpp **** 	const char *line = ":040BE10075820022..\n";
 3781              		.loc 4 150 14
 3782 18c6 488D0500 		leaq	.LC35(%rip), %rax
 3782      000000
 3783 18cd 48894598 		movq	%rax, -104(%rbp)
 151:testHexIO.cpp **** 	uint8 recordType;
 152:testHexIO.cpp **** 	uint32 seg = 0x00000000;
 3784              		.loc 4 152 9
 3785 18d1 C7459000 		movl	$0, -112(%rbp)
 3785      000000
 153:testHexIO.cpp **** 	status = bufInitialise(&data, 1024, 0x00, NULL);
 3786              		.loc 4 153 24
 3787 18d8 488D45A0 		leaq	-96(%rbp), %rax
 3788 18dc B9000000 		movl	$0, %ecx
 3788      00
 3789 18e1 BA000000 		movl	$0, %edx
 3789      00
 3790 18e6 BE000400 		movl	$1024, %esi
 3790      00
 3791 18eb 4889C7   		movq	%rax, %rdi
 3792              	.LEHB138:
 3793 18ee E8000000 		call	bufInitialise@PLT
 3793      00
 3794              	.LEHE138:
 3795              		.loc 4 153 9
 3796 18f3 89458C   		movl	%eax, -116(%rbp)
 3797              	.LEHB139:
 154:testHexIO.cpp **** 	CHECK_EQUAL(BUF_SUCCESS, status);
 3798              		.loc 4 154 2
 3799 18f6 E8000000 		call	_ZN8UnitTest11CurrentTest7DetailsEv@PLT
 3799      00
 3800 18fb 488B08   		movq	(%rax), %rcx
 3801 18fe 488D45C0 		leaq	-64(%rbp), %rax
 3802 1902 BA9A0000 		movl	$154, %edx
 3802      00
 3803 1907 4889CE   		movq	%rcx, %rsi
 3804 190a 4889C7   		movq	%rax, %rdi
 3805 190d E8000000 		call	_ZN8UnitTest11TestDetailsC1ERKS0_i@PLT
 3805      00
 3806              		.loc 4 154 2 is_stmt 0 discriminator 4
 3807 1912 C7459400 		movl	$0, -108(%rbp)
 3807      000000
 3808 1919 E8000000 		call	_ZN8UnitTest11CurrentTest7ResultsEv@PLT
 3808      00
 3809 191e 488B00   		movq	(%rax), %rax
 3810 1921 488D4DC0 		leaq	-64(%rbp), %rcx
 3811 1925 488D558C 		leaq	-116(%rbp), %rdx
 3812 1929 488D7594 		leaq	-108(%rbp), %rsi
 3813 192d 4889C7   		movq	%rax, %rdi
 3814 1930 E8000000 		call	_ZN8UnitTest10CheckEqualI12BufferStatusS1_EEvRNS_11TestResultsERKT_RKT0_RKNS_11TestDetailsE
 3814      00
 3815              	.LEHE139:
 3816              	.L181:
 155:testHexIO.cpp **** 	status = bufProcessLine(line, 0, &data, NULL, &seg, &recordType, NULL);
 3817              		.loc 4 155 25 is_stmt 1
 3818 1935 488D758B 		leaq	-117(%rbp), %rsi
 3819 1939 488D4D90 		leaq	-112(%rbp), %rcx
 3820 193d 488D55A0 		leaq	-96(%rbp), %rdx
 3821 1941 488B4598 		movq	-104(%rbp), %rax
 3822 1945 4883EC08 		subq	$8, %rsp
 3823 1949 6A00     		pushq	$0
 3824 194b 4989F1   		movq	%rsi, %r9
 3825 194e 4989C8   		movq	%rcx, %r8
 3826 1951 B9000000 		movl	$0, %ecx
 3826      00
 3827 1956 BE000000 		movl	$0, %esi
 3827      00
 3828 195b 4889C7   		movq	%rax, %rdi
 3829              	.LEHB140:
 3830 195e E8000000 		call	bufProcessLine@PLT
 3830      00
 3831              	.LEHE140:
 3832 1963 4883C410 		addq	$16, %rsp
 3833              		.loc 4 155 9
 3834 1967 89458C   		movl	%eax, -116(%rbp)
 3835              	.LEHB141:
 156:testHexIO.cpp **** 	CHECK_EQUAL(HEX_JUNK_CHECKSUM, status);
 3836              		.loc 4 156 2
 3837 196a E8000000 		call	_ZN8UnitTest11CurrentTest7DetailsEv@PLT
 3837      00
 3838 196f 488B08   		movq	(%rax), %rcx
 3839 1972 488D45C0 		leaq	-64(%rbp), %rax
 3840 1976 BA9C0000 		movl	$156, %edx
 3840      00
 3841 197b 4889CE   		movq	%rcx, %rsi
 3842 197e 4889C7   		movq	%rax, %rdi
 3843 1981 E8000000 		call	_ZN8UnitTest11TestDetailsC1ERKS0_i@PLT
 3843      00
 3844              		.loc 4 156 2 is_stmt 0 discriminator 4
 3845 1986 C745940F 		movl	$15, -108(%rbp)
 3845      000000
 3846 198d E8000000 		call	_ZN8UnitTest11CurrentTest7ResultsEv@PLT
 3846      00
 3847 1992 488B00   		movq	(%rax), %rax
 3848 1995 488D4DC0 		leaq	-64(%rbp), %rcx
 3849 1999 488D558C 		leaq	-116(%rbp), %rdx
 3850 199d 488D7594 		leaq	-108(%rbp), %rsi
 3851 19a1 4889C7   		movq	%rax, %rdi
 3852 19a4 E8000000 		call	_ZN8UnitTest10CheckEqualI12BufferStatusS1_EEvRNS_11TestResultsERKT_RKT0_RKNS_11TestDetailsE
 3852      00
 3853              	.LEHE141:
 3854              	.L184:
 157:testHexIO.cpp **** 	bufDestroy(&data);
 3855              		.loc 4 157 12 is_stmt 1
 3856 19a9 488D45A0 		leaq	-96(%rbp), %rax
 3857 19ad 4889C7   		movq	%rax, %rdi
 3858              	.LEHB142:
 3859 19b0 E8000000 		call	bufDestroy@PLT
 3859      00
 3860              	.LEHE142:
 158:testHexIO.cpp **** }
 3861              		.loc 4 158 1
 3862 19b5 90       		nop
 3863 19b6 488B45E8 		movq	-24(%rbp), %rax
 3864 19ba 64482B04 		subq	%fs:40, %rax
 3864      25280000 
 3864      00
 3865 19c3 0F84D800 		je	.L186
 3865      0000
 3866 19c9 E9CE0000 		jmp	.L191
 3866      00
 3867              	.L187:
 3868 19ce F30F1EFA 		endbr64
 154:testHexIO.cpp **** 	status = bufProcessLine(line, 0, &data, NULL, &seg, &recordType, NULL);
 3869              		.loc 4 154 2
 3870 19d2 4889C7   		movq	%rax, %rdi
 3871 19d5 E8000000 		call	__cxa_begin_catch@PLT
 3871      00
 3872              	.LEHB143:
 3873 19da E8000000 		call	_ZN8UnitTest11CurrentTest7ResultsEv@PLT
 3873      00
 154:testHexIO.cpp **** 	status = bufProcessLine(line, 0, &data, NULL, &seg, &recordType, NULL);
 3874              		.loc 4 154 2 is_stmt 0 discriminator 3
 3875 19df 488B18   		movq	(%rax), %rbx
 3876 19e2 E8000000 		call	_ZN8UnitTest11CurrentTest7DetailsEv@PLT
 3876      00
 154:testHexIO.cpp **** 	status = bufProcessLine(line, 0, &data, NULL, &seg, &recordType, NULL);
 3877              		.loc 4 154 2 discriminator 11
 3878 19e7 488B08   		movq	(%rax), %rcx
 3879 19ea 488D45C0 		leaq	-64(%rbp), %rax
 3880 19ee BA9A0000 		movl	$154, %edx
 3880      00
 3881 19f3 4889CE   		movq	%rcx, %rsi
 3882 19f6 4889C7   		movq	%rax, %rdi
 3883 19f9 E8000000 		call	_ZN8UnitTest11TestDetailsC1ERKS0_i@PLT
 3883      00
 154:testHexIO.cpp **** 	status = bufProcessLine(line, 0, &data, NULL, &seg, &recordType, NULL);
 3884              		.loc 4 154 2 discriminator 15
 3885 19fe 488D45C0 		leaq	-64(%rbp), %rax
 3886 1a02 488D1500 		leaq	.LC4(%rip), %rdx
 3886      000000
 3887 1a09 4889C6   		movq	%rax, %rsi
 3888 1a0c 4889DF   		movq	%rbx, %rdi
 3889 1a0f E8000000 		call	_ZN8UnitTest11TestResults13OnTestFailureERKNS_11TestDetailsEPKc@PLT
 3889      00
 3890              	.LEHE143:
 3891              	.LEHB144:
 154:testHexIO.cpp **** 	status = bufProcessLine(line, 0, &data, NULL, &seg, &recordType, NULL);
 3892              		.loc 4 154 2 discriminator 17
 3893 1a14 E8000000 		call	__cxa_end_catch@PLT
 3893      00
 3894              	.LEHE144:
 3895 1a19 E917FFFF 		jmp	.L181
 3895      FF
 3896              	.L188:
 3897 1a1e F30F1EFA 		endbr64
 154:testHexIO.cpp **** 	status = bufProcessLine(line, 0, &data, NULL, &seg, &recordType, NULL);
 3898              		.loc 4 154 2
 3899 1a22 4889C3   		movq	%rax, %rbx
 3900 1a25 E8000000 		call	__cxa_end_catch@PLT
 3900      00
 3901 1a2a 4889D8   		movq	%rbx, %rax
 3902 1a2d 4889C7   		movq	%rax, %rdi
 3903              	.LEHB145:
 3904 1a30 E8000000 		call	_Unwind_Resume@PLT
 3904      00
 3905              	.LEHE145:
 3906              	.L189:
 3907 1a35 F30F1EFA 		endbr64
 156:testHexIO.cpp **** 	bufDestroy(&data);
 3908              		.loc 4 156 2 is_stmt 1
 3909 1a39 4889C7   		movq	%rax, %rdi
 3910 1a3c E8000000 		call	__cxa_begin_catch@PLT
 3910      00
 3911              	.LEHB146:
 3912 1a41 E8000000 		call	_ZN8UnitTest11CurrentTest7ResultsEv@PLT
 3912      00
 156:testHexIO.cpp **** 	bufDestroy(&data);
 3913              		.loc 4 156 2 is_stmt 0 discriminator 3
 3914 1a46 488B18   		movq	(%rax), %rbx
 3915 1a49 E8000000 		call	_ZN8UnitTest11CurrentTest7DetailsEv@PLT
 3915      00
 156:testHexIO.cpp **** 	bufDestroy(&data);
 3916              		.loc 4 156 2 discriminator 11
 3917 1a4e 488B08   		movq	(%rax), %rcx
 3918 1a51 488D45C0 		leaq	-64(%rbp), %rax
 3919 1a55 BA9C0000 		movl	$156, %edx
 3919      00
 3920 1a5a 4889CE   		movq	%rcx, %rsi
 3921 1a5d 4889C7   		movq	%rax, %rdi
 3922 1a60 E8000000 		call	_ZN8UnitTest11TestDetailsC1ERKS0_i@PLT
 3922      00
 156:testHexIO.cpp **** 	bufDestroy(&data);
 3923              		.loc 4 156 2 discriminator 15
 3924 1a65 488D45C0 		leaq	-64(%rbp), %rax
 3925 1a69 488D1500 		leaq	.LC36(%rip), %rdx
 3925      000000
 3926 1a70 4889C6   		movq	%rax, %rsi
 3927 1a73 4889DF   		movq	%rbx, %rdi
 3928 1a76 E8000000 		call	_ZN8UnitTest11TestResults13OnTestFailureERKNS_11TestDetailsEPKc@PLT
 3928      00
 3929              	.LEHE146:
 3930              	.LEHB147:
 156:testHexIO.cpp **** 	bufDestroy(&data);
 3931              		.loc 4 156 2 discriminator 17
 3932 1a7b E8000000 		call	__cxa_end_catch@PLT
 3932      00
 3933              	.LEHE147:
 3934 1a80 E924FFFF 		jmp	.L184
 3934      FF
 3935              	.L190:
 3936 1a85 F30F1EFA 		endbr64
 156:testHexIO.cpp **** 	bufDestroy(&data);
 3937              		.loc 4 156 2
 3938 1a89 4889C3   		movq	%rax, %rbx
 3939 1a8c E8000000 		call	__cxa_end_catch@PLT
 3939      00
 3940 1a91 4889D8   		movq	%rbx, %rax
 3941 1a94 4889C7   		movq	%rax, %rdi
 3942              	.LEHB148:
 3943 1a97 E8000000 		call	_Unwind_Resume@PLT
 3943      00
 3944              	.LEHE148:
 3945              	.L191:
 3946              		.loc 4 158 1 is_stmt 1
 3947 1a9c E8000000 		call	__stack_chk_fail@PLT
 3947      00
 3948              	.L186:
 3949 1aa1 488B5DF8 		movq	-8(%rbp), %rbx
 3950 1aa5 C9       		leave
 3951              		.cfi_def_cfa 7, 8
 3952 1aa6 C3       		ret
 3953              		.cfi_endproc
 3954              	.LFE1244:
 3955              		.section	.gcc_except_table
 3956              		.align 4
 3957              	.LLSDA1244:
 3958 0324 FF       		.byte	0xff
 3959 0325 9B       		.byte	0x9b
 3960 0326 41       		.uleb128 .LLSDATT1244-.LLSDATTD1244
 3961              	.LLSDATTD1244:
 3962 0327 01       		.byte	0x1
 3963 0328 39       		.uleb128 .LLSDACSE1244-.LLSDACSB1244
 3964              	.LLSDACSB1244:
 3965 0329 4E       		.uleb128 .LEHB138-.LFB1244
 3966 032a 05       		.uleb128 .LEHE138-.LEHB138
 3967 032b 00       		.uleb128 0
 3968 032c 00       		.uleb128 0
 3969 032d 56       		.uleb128 .LEHB139-.LFB1244
 3970 032e 3F       		.uleb128 .LEHE139-.LEHB139
 3971 032f AE02     		.uleb128 .L187-.LFB1244
 3972 0331 01       		.uleb128 0x1
 3973 0332 BE01     		.uleb128 .LEHB140-.LFB1244
 3974 0334 05       		.uleb128 .LEHE140-.LEHB140
 3975 0335 00       		.uleb128 0
 3976 0336 00       		.uleb128 0
 3977 0337 CA01     		.uleb128 .LEHB141-.LFB1244
 3978 0339 3F       		.uleb128 .LEHE141-.LEHB141
 3979 033a 9503     		.uleb128 .L189-.LFB1244
 3980 033c 01       		.uleb128 0x1
 3981 033d 9002     		.uleb128 .LEHB142-.LFB1244
 3982 033f 05       		.uleb128 .LEHE142-.LEHB142
 3983 0340 00       		.uleb128 0
 3984 0341 00       		.uleb128 0
 3985 0342 BA02     		.uleb128 .LEHB143-.LFB1244
 3986 0344 3A       		.uleb128 .LEHE143-.LEHB143
 3987 0345 FE02     		.uleb128 .L188-.LFB1244
 3988 0347 00       		.uleb128 0
 3989 0348 F402     		.uleb128 .LEHB144-.LFB1244
 3990 034a 05       		.uleb128 .LEHE144-.LEHB144
 3991 034b 00       		.uleb128 0
 3992 034c 00       		.uleb128 0
 3993 034d 9003     		.uleb128 .LEHB145-.LFB1244
 3994 034f 05       		.uleb128 .LEHE145-.LEHB145
 3995 0350 00       		.uleb128 0
 3996 0351 00       		.uleb128 0
 3997 0352 A103     		.uleb128 .LEHB146-.LFB1244
 3998 0354 3A       		.uleb128 .LEHE146-.LEHB146
 3999 0355 E503     		.uleb128 .L190-.LFB1244
 4000 0357 00       		.uleb128 0
 4001 0358 DB03     		.uleb128 .LEHB147-.LFB1244
 4002 035a 05       		.uleb128 .LEHE147-.LEHB147
 4003 035b 00       		.uleb128 0
 4004 035c 00       		.uleb128 0
 4005 035d F703     		.uleb128 .LEHB148-.LFB1244
 4006 035f 05       		.uleb128 .LEHE148-.LEHB148
 4007 0360 00       		.uleb128 0
 4008 0361 00       		.uleb128 0
 4009              	.LLSDACSE1244:
 4010 0362 01       		.byte	0x1
 4011 0363 00       		.byte	0
 4012              		.align 4
 4013 0364 00000000 		.long	0
 4014              	
 4015              	.LLSDATT1244:
 4016              		.text
 4018              		.section	.rodata
 4019              	.LC37:
 4020 05d6 48657849 		.string	"HexIO_testBadChecksum"
 4020      4F5F7465 
 4020      73744261 
 4020      64436865 
 4020      636B7375 
 4021              		.section	.text._ZN25TestHexIO_testBadChecksumC2Ev,"axG",@progbits,_ZN25TestHexIO_testBadChecksumC5
 4022              		.align 2
 4023              		.weak	_ZN25TestHexIO_testBadChecksumC2Ev
 4025              	_ZN25TestHexIO_testBadChecksumC2Ev:
 4026              	.LFB1246:
 159:testHexIO.cpp **** 
 160:testHexIO.cpp **** TEST(HexIO_testBadChecksum) {
 4027              		.loc 4 160 1
 4028              		.cfi_startproc
 4029 0000 F30F1EFA 		endbr64
 4030 0004 55       		pushq	%rbp
 4031              		.cfi_def_cfa_offset 16
 4032              		.cfi_offset 6, -16
 4033 0005 4889E5   		movq	%rsp, %rbp
 4034              		.cfi_def_cfa_register 6
 4035 0008 53       		pushq	%rbx
 4036 0009 4883EC18 		subq	$24, %rsp
 4037              		.cfi_offset 3, -24
 4038 000d 48897DE8 		movq	%rdi, -24(%rbp)
 4039              	.LBB13:
 4040              		.loc 4 160 1
 4041 0011 488B5DE8 		movq	-24(%rbp), %rbx
 4042 0015 E8000000 		call	_ZN13UnitTestSuite12GetSuiteNameEv
 4042      00
 4043 001a 4889C2   		movq	%rax, %rdx
 4044 001d 41B8A000 		movl	$160, %r8d
 4044      0000
 4045 0023 488D0500 		leaq	.LC1(%rip), %rax
 4045      000000
 4046 002a 4889C1   		movq	%rax, %rcx
 4047 002d 488D0500 		leaq	.LC37(%rip), %rax
 4047      000000
 4048 0034 4889C6   		movq	%rax, %rsi
 4049 0037 4889DF   		movq	%rbx, %rdi
 4050 003a E8000000 		call	_ZN8UnitTest4TestC2EPKcS2_S2_i@PLT
 4050      00
 4051 003f 488D1500 		leaq	16+_ZTV25TestHexIO_testBadChecksum(%rip), %rdx
 4051      000000
 4052 0046 488B45E8 		movq	-24(%rbp), %rax
 4053 004a 488910   		movq	%rdx, (%rax)
 4054              	.LBE13:
 4055 004d 90       		nop
 4056 004e 488B5DF8 		movq	-8(%rbp), %rbx
 4057 0052 C9       		leave
 4058              		.cfi_def_cfa 7, 8
 4059 0053 C3       		ret
 4060              		.cfi_endproc
 4061              	.LFE1246:
 4063              		.weak	_ZN25TestHexIO_testBadChecksumC1Ev
 4064              		.set	_ZN25TestHexIO_testBadChecksumC1Ev,_ZN25TestHexIO_testBadChecksumC2Ev
 4065              		.globl	testHexIO_testBadChecksumInstance
 4066              		.bss
 4067 0239 00000000 		.align 32
 4067      000000
 4070              	testHexIO_testBadChecksumInstance:
 4071 0240 00000000 		.zero	56
 4071      00000000 
 4071      00000000 
 4071      00000000 
 4071      00000000 
 4072              		.globl	adderHexIO_testBadChecksum
 4075              	adderHexIO_testBadChecksum:
 4076 0278 00       		.zero	1
 4077              		.section	.rodata
 4078              	.LC38:
 4079 05ec 3A303430 		.string	":040BE10075820022F8\n"
 4079      42453130 
 4079      30373538 
 4079      32303032 
 4079      3246380A 
 4080 0601 00000000 		.align 8
 4080      000000
 4081              	.LC39:
 4082 0608 556E6861 		.string	"Unhandled exception in CHECK_EQUAL(HEX_BAD_CHECKSUM, status)"
 4082      6E646C65 
 4082      64206578 
 4082      63657074 
 4082      696F6E20 
 4083              		.text
 4084 1aa7 90       		.align 2
 4085              		.globl	_ZNK25TestHexIO_testBadChecksum7RunImplEv
 4087              	_ZNK25TestHexIO_testBadChecksum7RunImplEv:
 4088              	.LFB1248:
 4089              		.loc 4 160 29
 4090              		.cfi_startproc
 4091              		.cfi_personality 0x9b,DW.ref.__gxx_personality_v0
 4092              		.cfi_lsda 0x1b,.LLSDA1248
 4093 1aa8 F30F1EFA 		endbr64
 4094 1aac 55       		pushq	%rbp
 4095              		.cfi_def_cfa_offset 16
 4096              		.cfi_offset 6, -16
 4097 1aad 4889E5   		movq	%rsp, %rbp
 4098              		.cfi_def_cfa_register 6
 4099 1ab0 53       		pushq	%rbx
 4100 1ab1 4881EC88 		subq	$136, %rsp
 4100      000000
 4101              		.cfi_offset 3, -24
 4102 1ab8 4889BD78 		movq	%rdi, -136(%rbp)
 4102      FFFFFF
 4103              		.loc 4 160 29
 4104 1abf 64488B04 		movq	%fs:40, %rax
 4104      25280000 
 4104      00
 4105 1ac8 488945E8 		movq	%rax, -24(%rbp)
 4106 1acc 31C0     		xorl	%eax, %eax
 161:testHexIO.cpp **** 	Buffer data;
 162:testHexIO.cpp **** 	BufferStatus status;
 163:testHexIO.cpp **** 	const char *line = ":040BE10075820022F8\n";
 4107              		.loc 4 163 14
 4108 1ace 488D0500 		leaq	.LC38(%rip), %rax
 4108      000000
 4109 1ad5 48894598 		movq	%rax, -104(%rbp)
 164:testHexIO.cpp **** 	uint8 recordType;
 165:testHexIO.cpp **** 	uint32 seg = 0x00000000;
 4110              		.loc 4 165 9
 4111 1ad9 C7459000 		movl	$0, -112(%rbp)
 4111      000000
 166:testHexIO.cpp **** 	status = bufInitialise(&data, 1024, 0x00, NULL);
 4112              		.loc 4 166 24
 4113 1ae0 488D45A0 		leaq	-96(%rbp), %rax
 4114 1ae4 B9000000 		movl	$0, %ecx
 4114      00
 4115 1ae9 BA000000 		movl	$0, %edx
 4115      00
 4116 1aee BE000400 		movl	$1024, %esi
 4116      00
 4117 1af3 4889C7   		movq	%rax, %rdi
 4118              	.LEHB149:
 4119 1af6 E8000000 		call	bufInitialise@PLT
 4119      00
 4120              	.LEHE149:
 4121              		.loc 4 166 9
 4122 1afb 89458C   		movl	%eax, -116(%rbp)
 4123              	.LEHB150:
 167:testHexIO.cpp **** 	CHECK_EQUAL(BUF_SUCCESS, status);
 4124              		.loc 4 167 2
 4125 1afe E8000000 		call	_ZN8UnitTest11CurrentTest7DetailsEv@PLT
 4125      00
 4126 1b03 488B08   		movq	(%rax), %rcx
 4127 1b06 488D45C0 		leaq	-64(%rbp), %rax
 4128 1b0a BAA70000 		movl	$167, %edx
 4128      00
 4129 1b0f 4889CE   		movq	%rcx, %rsi
 4130 1b12 4889C7   		movq	%rax, %rdi
 4131 1b15 E8000000 		call	_ZN8UnitTest11TestDetailsC1ERKS0_i@PLT
 4131      00
 4132              		.loc 4 167 2 is_stmt 0 discriminator 4
 4133 1b1a C7459400 		movl	$0, -108(%rbp)
 4133      000000
 4134 1b21 E8000000 		call	_ZN8UnitTest11CurrentTest7ResultsEv@PLT
 4134      00
 4135 1b26 488B00   		movq	(%rax), %rax
 4136 1b29 488D4DC0 		leaq	-64(%rbp), %rcx
 4137 1b2d 488D558C 		leaq	-116(%rbp), %rdx
 4138 1b31 488D7594 		leaq	-108(%rbp), %rsi
 4139 1b35 4889C7   		movq	%rax, %rdi
 4140 1b38 E8000000 		call	_ZN8UnitTest10CheckEqualI12BufferStatusS1_EEvRNS_11TestResultsERKT_RKT0_RKNS_11TestDetailsE
 4140      00
 4141              	.LEHE150:
 4142              	.L195:
 168:testHexIO.cpp **** 	status = bufProcessLine(line, 0, &data, NULL, &seg, &recordType, NULL);
 4143              		.loc 4 168 25 is_stmt 1
 4144 1b3d 488D758B 		leaq	-117(%rbp), %rsi
 4145 1b41 488D4D90 		leaq	-112(%rbp), %rcx
 4146 1b45 488D55A0 		leaq	-96(%rbp), %rdx
 4147 1b49 488B4598 		movq	-104(%rbp), %rax
 4148 1b4d 4883EC08 		subq	$8, %rsp
 4149 1b51 6A00     		pushq	$0
 4150 1b53 4989F1   		movq	%rsi, %r9
 4151 1b56 4989C8   		movq	%rcx, %r8
 4152 1b59 B9000000 		movl	$0, %ecx
 4152      00
 4153 1b5e BE000000 		movl	$0, %esi
 4153      00
 4154 1b63 4889C7   		movq	%rax, %rdi
 4155              	.LEHB151:
 4156 1b66 E8000000 		call	bufProcessLine@PLT
 4156      00
 4157              	.LEHE151:
 4158 1b6b 4883C410 		addq	$16, %rsp
 4159              		.loc 4 168 9
 4160 1b6f 89458C   		movl	%eax, -116(%rbp)
 4161              	.LEHB152:
 169:testHexIO.cpp **** 	CHECK_EQUAL(HEX_BAD_CHECKSUM, status);
 4162              		.loc 4 169 2
 4163 1b72 E8000000 		call	_ZN8UnitTest11CurrentTest7DetailsEv@PLT
 4163      00
 4164 1b77 488B08   		movq	(%rax), %rcx
 4165 1b7a 488D45C0 		leaq	-64(%rbp), %rax
 4166 1b7e BAA90000 		movl	$169, %edx
 4166      00
 4167 1b83 4889CE   		movq	%rcx, %rsi
 4168 1b86 4889C7   		movq	%rax, %rdi
 4169 1b89 E8000000 		call	_ZN8UnitTest11TestDetailsC1ERKS0_i@PLT
 4169      00
 4170              		.loc 4 169 2 is_stmt 0 discriminator 4
 4171 1b8e C7459410 		movl	$16, -108(%rbp)
 4171      000000
 4172 1b95 E8000000 		call	_ZN8UnitTest11CurrentTest7ResultsEv@PLT
 4172      00
 4173 1b9a 488B00   		movq	(%rax), %rax
 4174 1b9d 488D4DC0 		leaq	-64(%rbp), %rcx
 4175 1ba1 488D558C 		leaq	-116(%rbp), %rdx
 4176 1ba5 488D7594 		leaq	-108(%rbp), %rsi
 4177 1ba9 4889C7   		movq	%rax, %rdi
 4178 1bac E8000000 		call	_ZN8UnitTest10CheckEqualI12BufferStatusS1_EEvRNS_11TestResultsERKT_RKT0_RKNS_11TestDetailsE
 4178      00
 4179              	.LEHE152:
 4180              	.L198:
 170:testHexIO.cpp **** 	bufDestroy(&data);
 4181              		.loc 4 170 12 is_stmt 1
 4182 1bb1 488D45A0 		leaq	-96(%rbp), %rax
 4183 1bb5 4889C7   		movq	%rax, %rdi
 4184              	.LEHB153:
 4185 1bb8 E8000000 		call	bufDestroy@PLT
 4185      00
 4186              	.LEHE153:
 171:testHexIO.cpp **** }
 4187              		.loc 4 171 1
 4188 1bbd 90       		nop
 4189 1bbe 488B45E8 		movq	-24(%rbp), %rax
 4190 1bc2 64482B04 		subq	%fs:40, %rax
 4190      25280000 
 4190      00
 4191 1bcb 0F84D800 		je	.L200
 4191      0000
 4192 1bd1 E9CE0000 		jmp	.L205
 4192      00
 4193              	.L201:
 4194 1bd6 F30F1EFA 		endbr64
 167:testHexIO.cpp **** 	status = bufProcessLine(line, 0, &data, NULL, &seg, &recordType, NULL);
 4195              		.loc 4 167 2
 4196 1bda 4889C7   		movq	%rax, %rdi
 4197 1bdd E8000000 		call	__cxa_begin_catch@PLT
 4197      00
 4198              	.LEHB154:
 4199 1be2 E8000000 		call	_ZN8UnitTest11CurrentTest7ResultsEv@PLT
 4199      00
 167:testHexIO.cpp **** 	status = bufProcessLine(line, 0, &data, NULL, &seg, &recordType, NULL);
 4200              		.loc 4 167 2 is_stmt 0 discriminator 3
 4201 1be7 488B18   		movq	(%rax), %rbx
 4202 1bea E8000000 		call	_ZN8UnitTest11CurrentTest7DetailsEv@PLT
 4202      00
 167:testHexIO.cpp **** 	status = bufProcessLine(line, 0, &data, NULL, &seg, &recordType, NULL);
 4203              		.loc 4 167 2 discriminator 11
 4204 1bef 488B08   		movq	(%rax), %rcx
 4205 1bf2 488D45C0 		leaq	-64(%rbp), %rax
 4206 1bf6 BAA70000 		movl	$167, %edx
 4206      00
 4207 1bfb 4889CE   		movq	%rcx, %rsi
 4208 1bfe 4889C7   		movq	%rax, %rdi
 4209 1c01 E8000000 		call	_ZN8UnitTest11TestDetailsC1ERKS0_i@PLT
 4209      00
 167:testHexIO.cpp **** 	status = bufProcessLine(line, 0, &data, NULL, &seg, &recordType, NULL);
 4210              		.loc 4 167 2 discriminator 15
 4211 1c06 488D45C0 		leaq	-64(%rbp), %rax
 4212 1c0a 488D1500 		leaq	.LC4(%rip), %rdx
 4212      000000
 4213 1c11 4889C6   		movq	%rax, %rsi
 4214 1c14 4889DF   		movq	%rbx, %rdi
 4215 1c17 E8000000 		call	_ZN8UnitTest11TestResults13OnTestFailureERKNS_11TestDetailsEPKc@PLT
 4215      00
 4216              	.LEHE154:
 4217              	.LEHB155:
 167:testHexIO.cpp **** 	status = bufProcessLine(line, 0, &data, NULL, &seg, &recordType, NULL);
 4218              		.loc 4 167 2 discriminator 17
 4219 1c1c E8000000 		call	__cxa_end_catch@PLT
 4219      00
 4220              	.LEHE155:
 4221 1c21 E917FFFF 		jmp	.L195
 4221      FF
 4222              	.L202:
 4223 1c26 F30F1EFA 		endbr64
 167:testHexIO.cpp **** 	status = bufProcessLine(line, 0, &data, NULL, &seg, &recordType, NULL);
 4224              		.loc 4 167 2
 4225 1c2a 4889C3   		movq	%rax, %rbx
 4226 1c2d E8000000 		call	__cxa_end_catch@PLT
 4226      00
 4227 1c32 4889D8   		movq	%rbx, %rax
 4228 1c35 4889C7   		movq	%rax, %rdi
 4229              	.LEHB156:
 4230 1c38 E8000000 		call	_Unwind_Resume@PLT
 4230      00
 4231              	.LEHE156:
 4232              	.L203:
 4233 1c3d F30F1EFA 		endbr64
 169:testHexIO.cpp **** 	bufDestroy(&data);
 4234              		.loc 4 169 2 is_stmt 1
 4235 1c41 4889C7   		movq	%rax, %rdi
 4236 1c44 E8000000 		call	__cxa_begin_catch@PLT
 4236      00
 4237              	.LEHB157:
 4238 1c49 E8000000 		call	_ZN8UnitTest11CurrentTest7ResultsEv@PLT
 4238      00
 169:testHexIO.cpp **** 	bufDestroy(&data);
 4239              		.loc 4 169 2 is_stmt 0 discriminator 3
 4240 1c4e 488B18   		movq	(%rax), %rbx
 4241 1c51 E8000000 		call	_ZN8UnitTest11CurrentTest7DetailsEv@PLT
 4241      00
 169:testHexIO.cpp **** 	bufDestroy(&data);
 4242              		.loc 4 169 2 discriminator 11
 4243 1c56 488B08   		movq	(%rax), %rcx
 4244 1c59 488D45C0 		leaq	-64(%rbp), %rax
 4245 1c5d BAA90000 		movl	$169, %edx
 4245      00
 4246 1c62 4889CE   		movq	%rcx, %rsi
 4247 1c65 4889C7   		movq	%rax, %rdi
 4248 1c68 E8000000 		call	_ZN8UnitTest11TestDetailsC1ERKS0_i@PLT
 4248      00
 169:testHexIO.cpp **** 	bufDestroy(&data);
 4249              		.loc 4 169 2 discriminator 15
 4250 1c6d 488D45C0 		leaq	-64(%rbp), %rax
 4251 1c71 488D1500 		leaq	.LC39(%rip), %rdx
 4251      000000
 4252 1c78 4889C6   		movq	%rax, %rsi
 4253 1c7b 4889DF   		movq	%rbx, %rdi
 4254 1c7e E8000000 		call	_ZN8UnitTest11TestResults13OnTestFailureERKNS_11TestDetailsEPKc@PLT
 4254      00
 4255              	.LEHE157:
 4256              	.LEHB158:
 169:testHexIO.cpp **** 	bufDestroy(&data);
 4257              		.loc 4 169 2 discriminator 17
 4258 1c83 E8000000 		call	__cxa_end_catch@PLT
 4258      00
 4259              	.LEHE158:
 4260 1c88 E924FFFF 		jmp	.L198
 4260      FF
 4261              	.L204:
 4262 1c8d F30F1EFA 		endbr64
 169:testHexIO.cpp **** 	bufDestroy(&data);
 4263              		.loc 4 169 2
 4264 1c91 4889C3   		movq	%rax, %rbx
 4265 1c94 E8000000 		call	__cxa_end_catch@PLT
 4265      00
 4266 1c99 4889D8   		movq	%rbx, %rax
 4267 1c9c 4889C7   		movq	%rax, %rdi
 4268              	.LEHB159:
 4269 1c9f E8000000 		call	_Unwind_Resume@PLT
 4269      00
 4270              	.LEHE159:
 4271              	.L205:
 4272              		.loc 4 171 1 is_stmt 1
 4273 1ca4 E8000000 		call	__stack_chk_fail@PLT
 4273      00
 4274              	.L200:
 4275 1ca9 488B5DF8 		movq	-8(%rbp), %rbx
 4276 1cad C9       		leave
 4277              		.cfi_def_cfa 7, 8
 4278 1cae C3       		ret
 4279              		.cfi_endproc
 4280              	.LFE1248:
 4281              		.section	.gcc_except_table
 4282              		.align 4
 4283              	.LLSDA1248:
 4284 0368 FF       		.byte	0xff
 4285 0369 9B       		.byte	0x9b
 4286 036a 41       		.uleb128 .LLSDATT1248-.LLSDATTD1248
 4287              	.LLSDATTD1248:
 4288 036b 01       		.byte	0x1
 4289 036c 39       		.uleb128 .LLSDACSE1248-.LLSDACSB1248
 4290              	.LLSDACSB1248:
 4291 036d 4E       		.uleb128 .LEHB149-.LFB1248
 4292 036e 05       		.uleb128 .LEHE149-.LEHB149
 4293 036f 00       		.uleb128 0
 4294 0370 00       		.uleb128 0
 4295 0371 56       		.uleb128 .LEHB150-.LFB1248
 4296 0372 3F       		.uleb128 .LEHE150-.LEHB150
 4297 0373 AE02     		.uleb128 .L201-.LFB1248
 4298 0375 01       		.uleb128 0x1
 4299 0376 BE01     		.uleb128 .LEHB151-.LFB1248
 4300 0378 05       		.uleb128 .LEHE151-.LEHB151
 4301 0379 00       		.uleb128 0
 4302 037a 00       		.uleb128 0
 4303 037b CA01     		.uleb128 .LEHB152-.LFB1248
 4304 037d 3F       		.uleb128 .LEHE152-.LEHB152
 4305 037e 9503     		.uleb128 .L203-.LFB1248
 4306 0380 01       		.uleb128 0x1
 4307 0381 9002     		.uleb128 .LEHB153-.LFB1248
 4308 0383 05       		.uleb128 .LEHE153-.LEHB153
 4309 0384 00       		.uleb128 0
 4310 0385 00       		.uleb128 0
 4311 0386 BA02     		.uleb128 .LEHB154-.LFB1248
 4312 0388 3A       		.uleb128 .LEHE154-.LEHB154
 4313 0389 FE02     		.uleb128 .L202-.LFB1248
 4314 038b 00       		.uleb128 0
 4315 038c F402     		.uleb128 .LEHB155-.LFB1248
 4316 038e 05       		.uleb128 .LEHE155-.LEHB155
 4317 038f 00       		.uleb128 0
 4318 0390 00       		.uleb128 0
 4319 0391 9003     		.uleb128 .LEHB156-.LFB1248
 4320 0393 05       		.uleb128 .LEHE156-.LEHB156
 4321 0394 00       		.uleb128 0
 4322 0395 00       		.uleb128 0
 4323 0396 A103     		.uleb128 .LEHB157-.LFB1248
 4324 0398 3A       		.uleb128 .LEHE157-.LEHB157
 4325 0399 E503     		.uleb128 .L204-.LFB1248
 4326 039b 00       		.uleb128 0
 4327 039c DB03     		.uleb128 .LEHB158-.LFB1248
 4328 039e 05       		.uleb128 .LEHE158-.LEHB158
 4329 039f 00       		.uleb128 0
 4330 03a0 00       		.uleb128 0
 4331 03a1 F703     		.uleb128 .LEHB159-.LFB1248
 4332 03a3 05       		.uleb128 .LEHE159-.LEHB159
 4333 03a4 00       		.uleb128 0
 4334 03a5 00       		.uleb128 0
 4335              	.LLSDACSE1248:
 4336 03a6 01       		.byte	0x1
 4337 03a7 00       		.byte	0
 4338              		.align 4
 4339 03a8 00000000 		.long	0
 4340              	
 4341              	.LLSDATT1248:
 4342              		.text
 4344              		.section	.rodata
 4345              	.LC40:
 4346 0645 48657849 		.string	"HexIO_testCorruptLine"
 4346      4F5F7465 
 4346      7374436F 
 4346      72727570 
 4346      744C696E 
 4347              		.section	.text._ZN25TestHexIO_testCorruptLineC2Ev,"axG",@progbits,_ZN25TestHexIO_testCorruptLineC5
 4348              		.align 2
 4349              		.weak	_ZN25TestHexIO_testCorruptLineC2Ev
 4351              	_ZN25TestHexIO_testCorruptLineC2Ev:
 4352              	.LFB1250:
 172:testHexIO.cpp **** 
 173:testHexIO.cpp **** TEST(HexIO_testCorruptLine) {
 4353              		.loc 4 173 1
 4354              		.cfi_startproc
 4355 0000 F30F1EFA 		endbr64
 4356 0004 55       		pushq	%rbp
 4357              		.cfi_def_cfa_offset 16
 4358              		.cfi_offset 6, -16
 4359 0005 4889E5   		movq	%rsp, %rbp
 4360              		.cfi_def_cfa_register 6
 4361 0008 53       		pushq	%rbx
 4362 0009 4883EC18 		subq	$24, %rsp
 4363              		.cfi_offset 3, -24
 4364 000d 48897DE8 		movq	%rdi, -24(%rbp)
 4365              	.LBB14:
 4366              		.loc 4 173 1
 4367 0011 488B5DE8 		movq	-24(%rbp), %rbx
 4368 0015 E8000000 		call	_ZN13UnitTestSuite12GetSuiteNameEv
 4368      00
 4369 001a 4889C2   		movq	%rax, %rdx
 4370 001d 41B8AD00 		movl	$173, %r8d
 4370      0000
 4371 0023 488D0500 		leaq	.LC1(%rip), %rax
 4371      000000
 4372 002a 4889C1   		movq	%rax, %rcx
 4373 002d 488D0500 		leaq	.LC40(%rip), %rax
 4373      000000
 4374 0034 4889C6   		movq	%rax, %rsi
 4375 0037 4889DF   		movq	%rbx, %rdi
 4376 003a E8000000 		call	_ZN8UnitTest4TestC2EPKcS2_S2_i@PLT
 4376      00
 4377 003f 488D1500 		leaq	16+_ZTV25TestHexIO_testCorruptLine(%rip), %rdx
 4377      000000
 4378 0046 488B45E8 		movq	-24(%rbp), %rax
 4379 004a 488910   		movq	%rdx, (%rax)
 4380              	.LBE14:
 4381 004d 90       		nop
 4382 004e 488B5DF8 		movq	-8(%rbp), %rbx
 4383 0052 C9       		leave
 4384              		.cfi_def_cfa 7, 8
 4385 0053 C3       		ret
 4386              		.cfi_endproc
 4387              	.LFE1250:
 4389              		.weak	_ZN25TestHexIO_testCorruptLineC1Ev
 4390              		.set	_ZN25TestHexIO_testCorruptLineC1Ev,_ZN25TestHexIO_testCorruptLineC2Ev
 4391              		.globl	testHexIO_testCorruptLineInstance
 4392              		.bss
 4393 0279 00000000 		.align 32
 4393      000000
 4396              	testHexIO_testCorruptLineInstance:
 4397 0280 00000000 		.zero	56
 4397      00000000 
 4397      00000000 
 4397      00000000 
 4397      00000000 
 4398              		.globl	adderHexIO_testCorruptLine
 4401              	adderHexIO_testCorruptLine:
 4402 02b8 00       		.zero	1
 4403              		.section	.rodata
 4404              	.LC41:
 4405 065b 3A303430 		.string	":040BE10075820022F7 \n"
 4405      42453130 
 4405      30373538 
 4405      32303032 
 4405      32463720 
 4406 0671 00000000 		.align 8
 4406      000000
 4407              	.LC42:
 4408 0678 556E6861 		.string	"Unhandled exception in CHECK_EQUAL(HEX_CORRUPT_LINE, status)"
 4408      6E646C65 
 4408      64206578 
 4408      63657074 
 4408      696F6E20 
 4409              		.text
 4410 1caf 90       		.align 2
 4411              		.globl	_ZNK25TestHexIO_testCorruptLine7RunImplEv
 4413              	_ZNK25TestHexIO_testCorruptLine7RunImplEv:
 4414              	.LFB1252:
 4415              		.loc 4 173 29
 4416              		.cfi_startproc
 4417              		.cfi_personality 0x9b,DW.ref.__gxx_personality_v0
 4418              		.cfi_lsda 0x1b,.LLSDA1252
 4419 1cb0 F30F1EFA 		endbr64
 4420 1cb4 55       		pushq	%rbp
 4421              		.cfi_def_cfa_offset 16
 4422              		.cfi_offset 6, -16
 4423 1cb5 4889E5   		movq	%rsp, %rbp
 4424              		.cfi_def_cfa_register 6
 4425 1cb8 53       		pushq	%rbx
 4426 1cb9 4881EC88 		subq	$136, %rsp
 4426      000000
 4427              		.cfi_offset 3, -24
 4428 1cc0 4889BD78 		movq	%rdi, -136(%rbp)
 4428      FFFFFF
 4429              		.loc 4 173 29
 4430 1cc7 64488B04 		movq	%fs:40, %rax
 4430      25280000 
 4430      00
 4431 1cd0 488945E8 		movq	%rax, -24(%rbp)
 4432 1cd4 31C0     		xorl	%eax, %eax
 174:testHexIO.cpp **** 	Buffer data;
 175:testHexIO.cpp **** 	BufferStatus status;
 176:testHexIO.cpp **** 	const char *line = ":040BE10075820022F7 \n";
 4433              		.loc 4 176 14
 4434 1cd6 488D0500 		leaq	.LC41(%rip), %rax
 4434      000000
 4435 1cdd 48894598 		movq	%rax, -104(%rbp)
 177:testHexIO.cpp **** 	uint8 recordType;
 178:testHexIO.cpp **** 	uint32 seg = 0x00000000;
 4436              		.loc 4 178 9
 4437 1ce1 C7459000 		movl	$0, -112(%rbp)
 4437      000000
 179:testHexIO.cpp **** 	status = bufInitialise(&data, 1024, 0x00, NULL);
 4438              		.loc 4 179 24
 4439 1ce8 488D45A0 		leaq	-96(%rbp), %rax
 4440 1cec B9000000 		movl	$0, %ecx
 4440      00
 4441 1cf1 BA000000 		movl	$0, %edx
 4441      00
 4442 1cf6 BE000400 		movl	$1024, %esi
 4442      00
 4443 1cfb 4889C7   		movq	%rax, %rdi
 4444              	.LEHB160:
 4445 1cfe E8000000 		call	bufInitialise@PLT
 4445      00
 4446              	.LEHE160:
 4447              		.loc 4 179 9
 4448 1d03 89458C   		movl	%eax, -116(%rbp)
 4449              	.LEHB161:
 180:testHexIO.cpp **** 	CHECK_EQUAL(BUF_SUCCESS, status);
 4450              		.loc 4 180 2
 4451 1d06 E8000000 		call	_ZN8UnitTest11CurrentTest7DetailsEv@PLT
 4451      00
 4452 1d0b 488B08   		movq	(%rax), %rcx
 4453 1d0e 488D45C0 		leaq	-64(%rbp), %rax
 4454 1d12 BAB40000 		movl	$180, %edx
 4454      00
 4455 1d17 4889CE   		movq	%rcx, %rsi
 4456 1d1a 4889C7   		movq	%rax, %rdi
 4457 1d1d E8000000 		call	_ZN8UnitTest11TestDetailsC1ERKS0_i@PLT
 4457      00
 4458              		.loc 4 180 2 is_stmt 0 discriminator 4
 4459 1d22 C7459400 		movl	$0, -108(%rbp)
 4459      000000
 4460 1d29 E8000000 		call	_ZN8UnitTest11CurrentTest7ResultsEv@PLT
 4460      00
 4461 1d2e 488B00   		movq	(%rax), %rax
 4462 1d31 488D4DC0 		leaq	-64(%rbp), %rcx
 4463 1d35 488D558C 		leaq	-116(%rbp), %rdx
 4464 1d39 488D7594 		leaq	-108(%rbp), %rsi
 4465 1d3d 4889C7   		movq	%rax, %rdi
 4466 1d40 E8000000 		call	_ZN8UnitTest10CheckEqualI12BufferStatusS1_EEvRNS_11TestResultsERKT_RKT0_RKNS_11TestDetailsE
 4466      00
 4467              	.LEHE161:
 4468              	.L209:
 181:testHexIO.cpp **** 	status = bufProcessLine(line, 0, &data, NULL, &seg, &recordType, NULL);
 4469              		.loc 4 181 25 is_stmt 1
 4470 1d45 488D758B 		leaq	-117(%rbp), %rsi
 4471 1d49 488D4D90 		leaq	-112(%rbp), %rcx
 4472 1d4d 488D55A0 		leaq	-96(%rbp), %rdx
 4473 1d51 488B4598 		movq	-104(%rbp), %rax
 4474 1d55 4883EC08 		subq	$8, %rsp
 4475 1d59 6A00     		pushq	$0
 4476 1d5b 4989F1   		movq	%rsi, %r9
 4477 1d5e 4989C8   		movq	%rcx, %r8
 4478 1d61 B9000000 		movl	$0, %ecx
 4478      00
 4479 1d66 BE000000 		movl	$0, %esi
 4479      00
 4480 1d6b 4889C7   		movq	%rax, %rdi
 4481              	.LEHB162:
 4482 1d6e E8000000 		call	bufProcessLine@PLT
 4482      00
 4483              	.LEHE162:
 4484 1d73 4883C410 		addq	$16, %rsp
 4485              		.loc 4 181 9
 4486 1d77 89458C   		movl	%eax, -116(%rbp)
 4487              	.LEHB163:
 182:testHexIO.cpp **** 	CHECK_EQUAL(HEX_CORRUPT_LINE, status);
 4488              		.loc 4 182 2
 4489 1d7a E8000000 		call	_ZN8UnitTest11CurrentTest7DetailsEv@PLT
 4489      00
 4490 1d7f 488B08   		movq	(%rax), %rcx
 4491 1d82 488D45C0 		leaq	-64(%rbp), %rax
 4492 1d86 BAB60000 		movl	$182, %edx
 4492      00
 4493 1d8b 4889CE   		movq	%rcx, %rsi
 4494 1d8e 4889C7   		movq	%rax, %rdi
 4495 1d91 E8000000 		call	_ZN8UnitTest11TestDetailsC1ERKS0_i@PLT
 4495      00
 4496              		.loc 4 182 2 is_stmt 0 discriminator 4
 4497 1d96 C7459411 		movl	$17, -108(%rbp)
 4497      000000
 4498 1d9d E8000000 		call	_ZN8UnitTest11CurrentTest7ResultsEv@PLT
 4498      00
 4499 1da2 488B00   		movq	(%rax), %rax
 4500 1da5 488D4DC0 		leaq	-64(%rbp), %rcx
 4501 1da9 488D558C 		leaq	-116(%rbp), %rdx
 4502 1dad 488D7594 		leaq	-108(%rbp), %rsi
 4503 1db1 4889C7   		movq	%rax, %rdi
 4504 1db4 E8000000 		call	_ZN8UnitTest10CheckEqualI12BufferStatusS1_EEvRNS_11TestResultsERKT_RKT0_RKNS_11TestDetailsE
 4504      00
 4505              	.LEHE163:
 4506              	.L212:
 183:testHexIO.cpp **** 	bufDestroy(&data);
 4507              		.loc 4 183 12 is_stmt 1
 4508 1db9 488D45A0 		leaq	-96(%rbp), %rax
 4509 1dbd 4889C7   		movq	%rax, %rdi
 4510              	.LEHB164:
 4511 1dc0 E8000000 		call	bufDestroy@PLT
 4511      00
 4512              	.LEHE164:
 184:testHexIO.cpp **** }
 4513              		.loc 4 184 1
 4514 1dc5 90       		nop
 4515 1dc6 488B45E8 		movq	-24(%rbp), %rax
 4516 1dca 64482B04 		subq	%fs:40, %rax
 4516      25280000 
 4516      00
 4517 1dd3 0F84D800 		je	.L214
 4517      0000
 4518 1dd9 E9CE0000 		jmp	.L219
 4518      00
 4519              	.L215:
 4520 1dde F30F1EFA 		endbr64
 180:testHexIO.cpp **** 	status = bufProcessLine(line, 0, &data, NULL, &seg, &recordType, NULL);
 4521              		.loc 4 180 2
 4522 1de2 4889C7   		movq	%rax, %rdi
 4523 1de5 E8000000 		call	__cxa_begin_catch@PLT
 4523      00
 4524              	.LEHB165:
 4525 1dea E8000000 		call	_ZN8UnitTest11CurrentTest7ResultsEv@PLT
 4525      00
 180:testHexIO.cpp **** 	status = bufProcessLine(line, 0, &data, NULL, &seg, &recordType, NULL);
 4526              		.loc 4 180 2 is_stmt 0 discriminator 3
 4527 1def 488B18   		movq	(%rax), %rbx
 4528 1df2 E8000000 		call	_ZN8UnitTest11CurrentTest7DetailsEv@PLT
 4528      00
 180:testHexIO.cpp **** 	status = bufProcessLine(line, 0, &data, NULL, &seg, &recordType, NULL);
 4529              		.loc 4 180 2 discriminator 11
 4530 1df7 488B08   		movq	(%rax), %rcx
 4531 1dfa 488D45C0 		leaq	-64(%rbp), %rax
 4532 1dfe BAB40000 		movl	$180, %edx
 4532      00
 4533 1e03 4889CE   		movq	%rcx, %rsi
 4534 1e06 4889C7   		movq	%rax, %rdi
 4535 1e09 E8000000 		call	_ZN8UnitTest11TestDetailsC1ERKS0_i@PLT
 4535      00
 180:testHexIO.cpp **** 	status = bufProcessLine(line, 0, &data, NULL, &seg, &recordType, NULL);
 4536              		.loc 4 180 2 discriminator 15
 4537 1e0e 488D45C0 		leaq	-64(%rbp), %rax
 4538 1e12 488D1500 		leaq	.LC4(%rip), %rdx
 4538      000000
 4539 1e19 4889C6   		movq	%rax, %rsi
 4540 1e1c 4889DF   		movq	%rbx, %rdi
 4541 1e1f E8000000 		call	_ZN8UnitTest11TestResults13OnTestFailureERKNS_11TestDetailsEPKc@PLT
 4541      00
 4542              	.LEHE165:
 4543              	.LEHB166:
 180:testHexIO.cpp **** 	status = bufProcessLine(line, 0, &data, NULL, &seg, &recordType, NULL);
 4544              		.loc 4 180 2 discriminator 17
 4545 1e24 E8000000 		call	__cxa_end_catch@PLT
 4545      00
 4546              	.LEHE166:
 4547 1e29 E917FFFF 		jmp	.L209
 4547      FF
 4548              	.L216:
 4549 1e2e F30F1EFA 		endbr64
 180:testHexIO.cpp **** 	status = bufProcessLine(line, 0, &data, NULL, &seg, &recordType, NULL);
 4550              		.loc 4 180 2
 4551 1e32 4889C3   		movq	%rax, %rbx
 4552 1e35 E8000000 		call	__cxa_end_catch@PLT
 4552      00
 4553 1e3a 4889D8   		movq	%rbx, %rax
 4554 1e3d 4889C7   		movq	%rax, %rdi
 4555              	.LEHB167:
 4556 1e40 E8000000 		call	_Unwind_Resume@PLT
 4556      00
 4557              	.LEHE167:
 4558              	.L217:
 4559 1e45 F30F1EFA 		endbr64
 182:testHexIO.cpp **** 	bufDestroy(&data);
 4560              		.loc 4 182 2 is_stmt 1
 4561 1e49 4889C7   		movq	%rax, %rdi
 4562 1e4c E8000000 		call	__cxa_begin_catch@PLT
 4562      00
 4563              	.LEHB168:
 4564 1e51 E8000000 		call	_ZN8UnitTest11CurrentTest7ResultsEv@PLT
 4564      00
 182:testHexIO.cpp **** 	bufDestroy(&data);
 4565              		.loc 4 182 2 is_stmt 0 discriminator 3
 4566 1e56 488B18   		movq	(%rax), %rbx
 4567 1e59 E8000000 		call	_ZN8UnitTest11CurrentTest7DetailsEv@PLT
 4567      00
 182:testHexIO.cpp **** 	bufDestroy(&data);
 4568              		.loc 4 182 2 discriminator 11
 4569 1e5e 488B08   		movq	(%rax), %rcx
 4570 1e61 488D45C0 		leaq	-64(%rbp), %rax
 4571 1e65 BAB60000 		movl	$182, %edx
 4571      00
 4572 1e6a 4889CE   		movq	%rcx, %rsi
 4573 1e6d 4889C7   		movq	%rax, %rdi
 4574 1e70 E8000000 		call	_ZN8UnitTest11TestDetailsC1ERKS0_i@PLT
 4574      00
 182:testHexIO.cpp **** 	bufDestroy(&data);
 4575              		.loc 4 182 2 discriminator 15
 4576 1e75 488D45C0 		leaq	-64(%rbp), %rax
 4577 1e79 488D1500 		leaq	.LC42(%rip), %rdx
 4577      000000
 4578 1e80 4889C6   		movq	%rax, %rsi
 4579 1e83 4889DF   		movq	%rbx, %rdi
 4580 1e86 E8000000 		call	_ZN8UnitTest11TestResults13OnTestFailureERKNS_11TestDetailsEPKc@PLT
 4580      00
 4581              	.LEHE168:
 4582              	.LEHB169:
 182:testHexIO.cpp **** 	bufDestroy(&data);
 4583              		.loc 4 182 2 discriminator 17
 4584 1e8b E8000000 		call	__cxa_end_catch@PLT
 4584      00
 4585              	.LEHE169:
 4586 1e90 E924FFFF 		jmp	.L212
 4586      FF
 4587              	.L218:
 4588 1e95 F30F1EFA 		endbr64
 182:testHexIO.cpp **** 	bufDestroy(&data);
 4589              		.loc 4 182 2
 4590 1e99 4889C3   		movq	%rax, %rbx
 4591 1e9c E8000000 		call	__cxa_end_catch@PLT
 4591      00
 4592 1ea1 4889D8   		movq	%rbx, %rax
 4593 1ea4 4889C7   		movq	%rax, %rdi
 4594              	.LEHB170:
 4595 1ea7 E8000000 		call	_Unwind_Resume@PLT
 4595      00
 4596              	.LEHE170:
 4597              	.L219:
 4598              		.loc 4 184 1 is_stmt 1
 4599 1eac E8000000 		call	__stack_chk_fail@PLT
 4599      00
 4600              	.L214:
 4601 1eb1 488B5DF8 		movq	-8(%rbp), %rbx
 4602 1eb5 C9       		leave
 4603              		.cfi_def_cfa 7, 8
 4604 1eb6 C3       		ret
 4605              		.cfi_endproc
 4606              	.LFE1252:
 4607              		.section	.gcc_except_table
 4608              		.align 4
 4609              	.LLSDA1252:
 4610 03ac FF       		.byte	0xff
 4611 03ad 9B       		.byte	0x9b
 4612 03ae 41       		.uleb128 .LLSDATT1252-.LLSDATTD1252
 4613              	.LLSDATTD1252:
 4614 03af 01       		.byte	0x1
 4615 03b0 39       		.uleb128 .LLSDACSE1252-.LLSDACSB1252
 4616              	.LLSDACSB1252:
 4617 03b1 4E       		.uleb128 .LEHB160-.LFB1252
 4618 03b2 05       		.uleb128 .LEHE160-.LEHB160
 4619 03b3 00       		.uleb128 0
 4620 03b4 00       		.uleb128 0
 4621 03b5 56       		.uleb128 .LEHB161-.LFB1252
 4622 03b6 3F       		.uleb128 .LEHE161-.LEHB161
 4623 03b7 AE02     		.uleb128 .L215-.LFB1252
 4624 03b9 01       		.uleb128 0x1
 4625 03ba BE01     		.uleb128 .LEHB162-.LFB1252
 4626 03bc 05       		.uleb128 .LEHE162-.LEHB162
 4627 03bd 00       		.uleb128 0
 4628 03be 00       		.uleb128 0
 4629 03bf CA01     		.uleb128 .LEHB163-.LFB1252
 4630 03c1 3F       		.uleb128 .LEHE163-.LEHB163
 4631 03c2 9503     		.uleb128 .L217-.LFB1252
 4632 03c4 01       		.uleb128 0x1
 4633 03c5 9002     		.uleb128 .LEHB164-.LFB1252
 4634 03c7 05       		.uleb128 .LEHE164-.LEHB164
 4635 03c8 00       		.uleb128 0
 4636 03c9 00       		.uleb128 0
 4637 03ca BA02     		.uleb128 .LEHB165-.LFB1252
 4638 03cc 3A       		.uleb128 .LEHE165-.LEHB165
 4639 03cd FE02     		.uleb128 .L216-.LFB1252
 4640 03cf 00       		.uleb128 0
 4641 03d0 F402     		.uleb128 .LEHB166-.LFB1252
 4642 03d2 05       		.uleb128 .LEHE166-.LEHB166
 4643 03d3 00       		.uleb128 0
 4644 03d4 00       		.uleb128 0
 4645 03d5 9003     		.uleb128 .LEHB167-.LFB1252
 4646 03d7 05       		.uleb128 .LEHE167-.LEHB167
 4647 03d8 00       		.uleb128 0
 4648 03d9 00       		.uleb128 0
 4649 03da A103     		.uleb128 .LEHB168-.LFB1252
 4650 03dc 3A       		.uleb128 .LEHE168-.LEHB168
 4651 03dd E503     		.uleb128 .L218-.LFB1252
 4652 03df 00       		.uleb128 0
 4653 03e0 DB03     		.uleb128 .LEHB169-.LFB1252
 4654 03e2 05       		.uleb128 .LEHE169-.LEHB169
 4655 03e3 00       		.uleb128 0
 4656 03e4 00       		.uleb128 0
 4657 03e5 F703     		.uleb128 .LEHB170-.LFB1252
 4658 03e7 05       		.uleb128 .LEHE170-.LEHB170
 4659 03e8 00       		.uleb128 0
 4660 03e9 00       		.uleb128 0
 4661              	.LLSDACSE1252:
 4662 03ea 01       		.byte	0x1
 4663 03eb 00       		.byte	0
 4664              		.align 4
 4665 03ec 00000000 		.long	0
 4666              	
 4667              	.LLSDATT1252:
 4668              		.text
 4670              		.section	.rodata
 4671              	.LC43:
 4672 06b5 746D7046 		.string	"tmpFile.hex"
 4672      696C652E 
 4672      68657800 
 4673              	.LC44:
 4674 06c1 66696C65 		.string	"file.is_open()"
 4674      2E69735F 
 4674      6F70656E 
 4674      282900
 4675              		.align 8
 4676              	.LC45:
 4677 06d0 556E6861 		.string	"Unhandled exception in CHECK(file.is_open())"
 4677      6E646C65 
 4677      64206578 
 4677      63657074 
 4677      696F6E20 
 4678 06fd 000000   		.align 8
 4679              	.LC46:
 4680 0700 556E6861 		.string	"Unhandled exception in CHECK_EQUAL(expected.size(), (unsigned int)length)"
 4680      6E646C65 
 4680      64206578 
 4680      63657074 
 4680      696F6E20 
 4681 074a 00000000 		.align 8
 4681      0000
 4682              	.LC47:
 4683 0750 556E6861 		.string	"Unhandled exception in CHECK_ARRAY_EQUAL(expected.c_str(), (const char *)fileData)"
 4683      6E646C65 
 4683      64206578 
 4683      63657074 
 4683      696F6E20 
 4684 07a3 00000000 		.align 8
 4684      00
 4685              	.LC48:
 4686 07a8 556E6861 		.string	"Unhandled exception in CHECK_EQUAL(data.length, readbackData.length)"
 4686      6E646C65 
 4686      64206578 
 4686      63657074 
 4686      696F6E20 
 4687 07ed 000000   		.align 8
 4688              	.LC49:
 4689 07f0 556E6861 		.string	"Unhandled exception in CHECK_ARRAY_EQUAL(data.data, readbackData.data)"
 4689      6E646C65 
 4689      64206578 
 4689      63657074 
 4689      696F6E20 
 4690 0837 00       		.align 8
 4691              	.LC50:
 4692 0838 556E6861 		.string	"Unhandled exception in CHECK_EQUAL(mask.length, readbackMask.length)"
 4692      6E646C65 
 4692      64206578 
 4692      63657074 
 4692      696F6E20 
 4693 087d 000000   		.align 8
 4694              	.LC51:
 4695 0880 556E6861 		.string	"Unhandled exception in CHECK_ARRAY_EQUAL(mask.data, readbackMask.data)"
 4695      6E646C65 
 4695      64206578 
 4695      63657074 
 4695      696F6E20 
 4696              		.text
 4697              		.globl	_Z13testRoundTripPKcz
 4699              	_Z13testRoundTripPKcz:
 4700              	.LFB1253:
 185:testHexIO.cpp **** 
 186:testHexIO.cpp **** void testRoundTrip(const char *firstLine, ...) {
 4701              		.loc 4 186 48
 4702              		.cfi_startproc
 4703              		.cfi_personality 0x9b,DW.ref.__gxx_personality_v0
 4704              		.cfi_lsda 0x1b,.LLSDA1253
 4705 1eb7 F30F1EFA 		endbr64
 4706 1ebb 55       		pushq	%rbp
 4707              		.cfi_def_cfa_offset 16
 4708              		.cfi_offset 6, -16
 4709 1ebc 4889E5   		movq	%rsp, %rbp
 4710              		.cfi_def_cfa_register 6
 4711 1ebf 53       		pushq	%rbx
 4712 1ec0 4881ECF8 		subq	$1016, %rsp
 4712      030000
 4713              		.cfi_offset 3, -24
 4714 1ec7 4889BD08 		movq	%rdi, -1016(%rbp)
 4714      FCFFFF
 4715 1ece 4889B548 		movq	%rsi, -184(%rbp)
 4715      FFFFFF
 4716 1ed5 48899550 		movq	%rdx, -176(%rbp)
 4716      FFFFFF
 4717 1edc 48898D58 		movq	%rcx, -168(%rbp)
 4717      FFFFFF
 4718 1ee3 4C898560 		movq	%r8, -160(%rbp)
 4718      FFFFFF
 4719 1eea 4C898D68 		movq	%r9, -152(%rbp)
 4719      FFFFFF
 4720 1ef1 84C0     		testb	%al, %al
 4721 1ef3 7423     		je	.L221
 4722 1ef5 0F298570 		movaps	%xmm0, -144(%rbp)
 4722      FFFFFF
 4723 1efc 0F294D80 		movaps	%xmm1, -128(%rbp)
 4724 1f00 0F295590 		movaps	%xmm2, -112(%rbp)
 4725 1f04 0F295DA0 		movaps	%xmm3, -96(%rbp)
 4726 1f08 0F2965B0 		movaps	%xmm4, -80(%rbp)
 4727 1f0c 0F296DC0 		movaps	%xmm5, -64(%rbp)
 4728 1f10 0F2975D0 		movaps	%xmm6, -48(%rbp)
 4729 1f14 0F297DE0 		movaps	%xmm7, -32(%rbp)
 4730              	.L221:
 4731              		.loc 4 186 48
 4732 1f18 64488B04 		movq	%fs:40, %rax
 4732      25280000 
 4732      00
 4733 1f21 48898538 		movq	%rax, -200(%rbp)
 4733      FFFFFF
 4734 1f28 31C0     		xorl	%eax, %eax
 187:testHexIO.cpp **** 	const char *const FILENAME = "tmpFile.hex";
 4735              		.loc 4 187 20
 4736 1f2a 488D0500 		leaq	.LC43(%rip), %rax
 4736      000000
 4737 1f31 48898528 		movq	%rax, -984(%rbp)
 4737      FCFFFF
 188:testHexIO.cpp **** 	Buffer data, mask, readbackData, readbackMask;
 189:testHexIO.cpp **** 	BufferStatus status;
 190:testHexIO.cpp **** 	va_list vl;
 191:testHexIO.cpp **** 	const char *line;
 192:testHexIO.cpp **** 	string expected;
 4738              		.loc 4 192 9
 4739 1f38 488D8510 		leaq	-752(%rbp), %rax
 4739      FDFFFF
 4740 1f3f 4889C7   		movq	%rax, %rdi
 4741              	.LEHB171:
 4742 1f42 E8000000 		call	_ZNSt7__cxx1112basic_stringIcSt11char_traitsIcESaIcEEC1Ev@PLT
 4742      00
 4743              	.LEHE171:
 193:testHexIO.cpp **** 	uint8 recordType;
 194:testHexIO.cpp **** 	uint32 seg = 0x00000000;
 4744              		.loc 4 194 9
 4745 1f47 C78518FC 		movl	$0, -1000(%rbp)
 4745      FFFF0000 
 4745      0000
 195:testHexIO.cpp **** 	status = bufInitialise(&data, 1024, 0x00, NULL);
 4746              		.loc 4 195 24
 4747 1f51 488D8540 		leaq	-960(%rbp), %rax
 4747      FCFFFF
 4748 1f58 B9000000 		movl	$0, %ecx
 4748      00
 4749 1f5d BA000000 		movl	$0, %edx
 4749      00
 4750 1f62 BE000400 		movl	$1024, %esi
 4750      00
 4751 1f67 4889C7   		movq	%rax, %rdi
 4752              	.LEHB172:
 4753 1f6a E8000000 		call	bufInitialise@PLT
 4753      00
 4754              	.LEHE172:
 4755              		.loc 4 195 9
 4756 1f6f 898514FC 		movl	%eax, -1004(%rbp)
 4756      FFFF
 4757              	.LEHB173:
 196:testHexIO.cpp **** 	CHECK_EQUAL(BUF_SUCCESS, status);
 4758              		.loc 4 196 2
 4759 1f75 E8000000 		call	_ZN8UnitTest11CurrentTest7DetailsEv@PLT
 4759      00
 4760              		.loc 4 196 2 is_stmt 0 discriminator 1
 4761 1f7a 488B08   		movq	(%rax), %rcx
 4762 1f7d 488D85C0 		leaq	-832(%rbp), %rax
 4762      FCFFFF
 4763 1f84 BAC40000 		movl	$196, %edx
 4763      00
 4764 1f89 4889CE   		movq	%rcx, %rsi
 4765 1f8c 4889C7   		movq	%rax, %rdi
 4766 1f8f E8000000 		call	_ZN8UnitTest11TestDetailsC1ERKS0_i@PLT
 4766      00
 4767              		.loc 4 196 2 discriminator 4
 4768 1f94 C785A0FC 		movl	$0, -864(%rbp)
 4768      FFFF0000 
 4768      0000
 4769 1f9e E8000000 		call	_ZN8UnitTest11CurrentTest7ResultsEv@PLT
 4769      00
 4770 1fa3 488B00   		movq	(%rax), %rax
 4771 1fa6 488D8DC0 		leaq	-832(%rbp), %rcx
 4771      FCFFFF
 4772 1fad 488D9514 		leaq	-1004(%rbp), %rdx
 4772      FCFFFF
 4773 1fb4 488DB5A0 		leaq	-864(%rbp), %rsi
 4773      FCFFFF
 4774 1fbb 4889C7   		movq	%rax, %rdi
 4775 1fbe E8000000 		call	_ZN8UnitTest10CheckEqualI12BufferStatusS1_EEvRNS_11TestResultsERKT_RKT0_RKNS_11TestDetailsE
 4775      00
 4776              	.LEHE173:
 4777              	.L227:
 197:testHexIO.cpp **** 	status = bufInitialise(&mask, 1024, 0x00, NULL);
 4778              		.loc 4 197 24 is_stmt 1
 4779 1fc3 488D8560 		leaq	-928(%rbp), %rax
 4779      FCFFFF
 4780 1fca B9000000 		movl	$0, %ecx
 4780      00
 4781 1fcf BA000000 		movl	$0, %edx
 4781      00
 4782 1fd4 BE000400 		movl	$1024, %esi
 4782      00
 4783 1fd9 4889C7   		movq	%rax, %rdi
 4784              	.LEHB174:
 4785 1fdc E8000000 		call	bufInitialise@PLT
 4785      00
 4786              	.LEHE174:
 4787              		.loc 4 197 9
 4788 1fe1 898514FC 		movl	%eax, -1004(%rbp)
 4788      FFFF
 4789              	.LEHB175:
 198:testHexIO.cpp **** 	CHECK_EQUAL(BUF_SUCCESS, status);
 4790              		.loc 4 198 2
 4791 1fe7 E8000000 		call	_ZN8UnitTest11CurrentTest7DetailsEv@PLT
 4791      00
 4792              		.loc 4 198 2 is_stmt 0 discriminator 1
 4793 1fec 488B08   		movq	(%rax), %rcx
 4794 1fef 488D85C0 		leaq	-832(%rbp), %rax
 4794      FCFFFF
 4795 1ff6 BAC60000 		movl	$198, %edx
 4795      00
 4796 1ffb 4889CE   		movq	%rcx, %rsi
 4797 1ffe 4889C7   		movq	%rax, %rdi
 4798 2001 E8000000 		call	_ZN8UnitTest11TestDetailsC1ERKS0_i@PLT
 4798      00
 4799              		.loc 4 198 2 discriminator 4
 4800 2006 C785A0FC 		movl	$0, -864(%rbp)
 4800      FFFF0000 
 4800      0000
 4801 2010 E8000000 		call	_ZN8UnitTest11CurrentTest7ResultsEv@PLT
 4801      00
 4802 2015 488B00   		movq	(%rax), %rax
 4803 2018 488D8DC0 		leaq	-832(%rbp), %rcx
 4803      FCFFFF
 4804 201f 488D9514 		leaq	-1004(%rbp), %rdx
 4804      FCFFFF
 4805 2026 488DB5A0 		leaq	-864(%rbp), %rsi
 4805      FCFFFF
 4806 202d 4889C7   		movq	%rax, %rdi
 4807 2030 E8000000 		call	_ZN8UnitTest10CheckEqualI12BufferStatusS1_EEvRNS_11TestResultsERKT_RKT0_RKNS_11TestDetailsE
 4807      00
 4808              	.LEHE175:
 4809              	.L231:
 199:testHexIO.cpp **** 	va_start(vl, firstLine);
 4810              		.loc 4 199 2 is_stmt 1
 4811 2035 C785F8FC 		movl	$8, -776(%rbp)
 4811      FFFF0800 
 4811      0000
 4812 203f C785FCFC 		movl	$48, -772(%rbp)
 4812      FFFF3000 
 4812      0000
 4813 2049 488D4510 		leaq	16(%rbp), %rax
 4814 204d 48898500 		movq	%rax, -768(%rbp)
 4814      FDFFFF
 4815 2054 488D8540 		leaq	-192(%rbp), %rax
 4815      FFFFFF
 4816 205b 48898508 		movq	%rax, -760(%rbp)
 4816      FDFFFF
 200:testHexIO.cpp **** 	line = firstLine;
 4817              		.loc 4 200 7
 4818 2062 488B8508 		movq	-1016(%rbp), %rax
 4818      FCFFFF
 4819 2069 48898520 		movq	%rax, -992(%rbp)
 4819      FCFFFF
 4820              	.L224:
 201:testHexIO.cpp **** 	do {
 202:testHexIO.cpp **** 		status = bufProcessLine(line, 0, &data, &mask, &seg, &recordType, NULL);
 4821              		.loc 4 202 26
 4822 2070 488DBD13 		leaq	-1005(%rbp), %rdi
 4822      FCFFFF
 4823 2077 488DB518 		leaq	-1000(%rbp), %rsi
 4823      FCFFFF
 4824 207e 488D8D60 		leaq	-928(%rbp), %rcx
 4824      FCFFFF
 4825 2085 488D9540 		leaq	-960(%rbp), %rdx
 4825      FCFFFF
 4826 208c 488B8520 		movq	-992(%rbp), %rax
 4826      FCFFFF
 4827 2093 4883EC08 		subq	$8, %rsp
 4828 2097 6A00     		pushq	$0
 4829 2099 4989F9   		movq	%rdi, %r9
 4830 209c 4989F0   		movq	%rsi, %r8
 4831 209f BE000000 		movl	$0, %esi
 4831      00
 4832 20a4 4889C7   		movq	%rax, %rdi
 4833              	.LEHB176:
 4834              		.cfi_escape 0x2e,0x10
 4835 20a7 E8000000 		call	bufProcessLine@PLT
 4835      00
 4836              	.LEHE176:
 4837 20ac 4883C410 		addq	$16, %rsp
 4838              		.loc 4 202 10
 4839 20b0 898514FC 		movl	%eax, -1004(%rbp)
 4839      FFFF
 4840              	.LEHB177:
 4841              		.cfi_escape 0x2e,0
 203:testHexIO.cpp **** 		CHECK_EQUAL(BUF_SUCCESS, status);
 4842              		.loc 4 203 3
 4843 20b6 E8000000 		call	_ZN8UnitTest11CurrentTest7DetailsEv@PLT
 4843      00
 4844              		.loc 4 203 3 is_stmt 0 discriminator 1
 4845 20bb 488B08   		movq	(%rax), %rcx
 4846 20be 488D85C0 		leaq	-832(%rbp), %rax
 4846      FCFFFF
 4847 20c5 BACB0000 		movl	$203, %edx
 4847      00
 4848 20ca 4889CE   		movq	%rcx, %rsi
 4849 20cd 4889C7   		movq	%rax, %rdi
 4850 20d0 E8000000 		call	_ZN8UnitTest11TestDetailsC1ERKS0_i@PLT
 4850      00
 4851              		.loc 4 203 3 discriminator 4
 4852 20d5 C785A0FC 		movl	$0, -864(%rbp)
 4852      FFFF0000 
 4852      0000
 4853 20df E8000000 		call	_ZN8UnitTest11CurrentTest7ResultsEv@PLT
 4853      00
 4854 20e4 488B00   		movq	(%rax), %rax
 4855 20e7 488D8DC0 		leaq	-832(%rbp), %rcx
 4855      FCFFFF
 4856 20ee 488D9514 		leaq	-1004(%rbp), %rdx
 4856      FCFFFF
 4857 20f5 488DB5A0 		leaq	-864(%rbp), %rsi
 4857      FCFFFF
 4858 20fc 4889C7   		movq	%rax, %rdi
 4859 20ff E8000000 		call	_ZN8UnitTest10CheckEqualI12BufferStatusS1_EEvRNS_11TestResultsERKT_RKT0_RKNS_11TestDetailsE
 4859      00
 4860              	.LEHE177:
 4861              	.L234:
 204:testHexIO.cpp **** 		expected += line;
 4862              		.loc 4 204 15 is_stmt 1
 4863 2104 488B9520 		movq	-992(%rbp), %rdx
 4863      FCFFFF
 4864 210b 488D8510 		leaq	-752(%rbp), %rax
 4864      FDFFFF
 4865 2112 4889D6   		movq	%rdx, %rsi
 4866 2115 4889C7   		movq	%rax, %rdi
 4867              	.LEHB178:
 4868 2118 E8000000 		call	_ZNSt7__cxx1112basic_stringIcSt11char_traitsIcESaIcEEpLEPKc@PLT
 4868      00
 205:testHexIO.cpp **** 		expected += '\n';
 4869              		.loc 4 205 15
 4870 211d 488D8510 		leaq	-752(%rbp), %rax
 4870      FDFFFF
 4871 2124 BE0A0000 		movl	$10, %esi
 4871      00
 4872 2129 4889C7   		movq	%rax, %rdi
 4873 212c E8000000 		call	_ZNSt7__cxx1112basic_stringIcSt11char_traitsIcESaIcEEpLEc@PLT
 4873      00
 206:testHexIO.cpp **** 		line = va_arg(vl, const char *);
 4874              		.loc 4 206 8
 4875 2131 8B85F8FC 		movl	-776(%rbp), %eax
 4875      FFFF
 4876 2137 83F82F   		cmpl	$47, %eax
 4877 213a 7723     		ja	.L222
 4878 213c 488B8508 		movq	-760(%rbp), %rax
 4878      FDFFFF
 4879 2143 8B95F8FC 		movl	-776(%rbp), %edx
 4879      FFFF
 4880 2149 89D2     		movl	%edx, %edx
 4881 214b 4801D0   		addq	%rdx, %rax
 4882 214e 8B95F8FC 		movl	-776(%rbp), %edx
 4882      FFFF
 4883 2154 83C208   		addl	$8, %edx
 4884 2157 8995F8FC 		movl	%edx, -776(%rbp)
 4884      FFFF
 4885 215d EB12     		jmp	.L223
 4886              	.L222:
 4887 215f 488B8500 		movq	-768(%rbp), %rax
 4887      FDFFFF
 4888 2166 488D5008 		leaq	8(%rax), %rdx
 4889 216a 48899500 		movq	%rdx, -768(%rbp)
 4889      FDFFFF
 4890              	.L223:
 4891 2171 488B00   		movq	(%rax), %rax
 4892 2174 48898520 		movq	%rax, -992(%rbp)
 4892      FCFFFF
 207:testHexIO.cpp **** 	} while ( line );
 4893              		.loc 4 207 12
 4894 217b 4883BD20 		cmpq	$0, -992(%rbp)
 4894      FCFFFF00 
 4895 2183 0F85E7FE 		jne	.L224
 4895      FFFF
 208:testHexIO.cpp **** 	expected += ":00000001FF\n";
 4896              		.loc 4 208 14
 4897 2189 488D8510 		leaq	-752(%rbp), %rax
 4897      FDFFFF
 4898 2190 488D1500 		leaq	.LC12(%rip), %rdx
 4898      000000
 4899 2197 4889D6   		movq	%rdx, %rsi
 4900 219a 4889C7   		movq	%rax, %rdi
 4901 219d E8000000 		call	_ZNSt7__cxx1112basic_stringIcSt11char_traitsIcESaIcEEpLEPKc@PLT
 4901      00
 209:testHexIO.cpp **** 	va_end(vl);
 210:testHexIO.cpp **** 	status = bufWriteToIntelHexFile(&data, &mask, FILENAME, 16, false, NULL);
 4902              		.loc 4 210 33
 4903 21a2 488DB560 		leaq	-928(%rbp), %rsi
 4903      FCFFFF
 4904 21a9 488D8540 		leaq	-960(%rbp), %rax
 4904      FCFFFF
 4905 21b0 41B90000 		movl	$0, %r9d
 4905      0000
 4906 21b6 41B80000 		movl	$0, %r8d
 4906      0000
 4907 21bc B9100000 		movl	$16, %ecx
 4907      00
 4908 21c1 488D1500 		leaq	.LC43(%rip), %rdx
 4908      000000
 4909 21c8 4889C7   		movq	%rax, %rdi
 4910 21cb E8000000 		call	bufWriteToIntelHexFile@PLT
 4910      00
 4911              	.LEHE178:
 4912              		.loc 4 210 9
 4913 21d0 898514FC 		movl	%eax, -1004(%rbp)
 4913      FFFF
 4914              	.LEHB179:
 211:testHexIO.cpp **** 	CHECK_EQUAL(BUF_SUCCESS, status);
 4915              		.loc 4 211 2
 4916 21d6 E8000000 		call	_ZN8UnitTest11CurrentTest7DetailsEv@PLT
 4916      00
 4917              		.loc 4 211 2 is_stmt 0 discriminator 1
 4918 21db 488B08   		movq	(%rax), %rcx
 4919 21de 488D85C0 		leaq	-832(%rbp), %rax
 4919      FCFFFF
 4920 21e5 BAD30000 		movl	$211, %edx
 4920      00
 4921 21ea 4889CE   		movq	%rcx, %rsi
 4922 21ed 4889C7   		movq	%rax, %rdi
 4923 21f0 E8000000 		call	_ZN8UnitTest11TestDetailsC1ERKS0_i@PLT
 4923      00
 4924              		.loc 4 211 2 discriminator 4
 4925 21f5 C785A0FC 		movl	$0, -864(%rbp)
 4925      FFFF0000 
 4925      0000
 4926 21ff E8000000 		call	_ZN8UnitTest11CurrentTest7ResultsEv@PLT
 4926      00
 4927 2204 488B00   		movq	(%rax), %rax
 4928 2207 488D8DC0 		leaq	-832(%rbp), %rcx
 4928      FCFFFF
 4929 220e 488D9514 		leaq	-1004(%rbp), %rdx
 4929      FCFFFF
 4930 2215 488DB5A0 		leaq	-864(%rbp), %rsi
 4930      FCFFFF
 4931 221c 4889C7   		movq	%rax, %rdi
 4932 221f E8000000 		call	_ZN8UnitTest10CheckEqualI12BufferStatusS1_EEvRNS_11TestResultsERKT_RKT0_RKNS_11TestDetailsE
 4932      00
 4933              	.LEHE179:
 4934              	.L237:
 212:testHexIO.cpp **** 
 213:testHexIO.cpp **** 	ifstream file;
 4935              		.loc 4 213 11 is_stmt 1
 4936 2224 488D8530 		leaq	-720(%rbp), %rax
 4936      FDFFFF
 4937 222b 4889C7   		movq	%rax, %rdi
 4938              	.LEHB180:
 4939 222e E8000000 		call	_ZNSt14basic_ifstreamIcSt11char_traitsIcEEC1Ev@PLT
 4939      00
 4940              	.LEHE180:
 214:testHexIO.cpp **** 	streamoff length;
 215:testHexIO.cpp **** 	file.open(FILENAME, ios::in|ios::ate);
 4941              		.loc 4 215 11
 4942 2233 BE020000 		movl	$2, %esi
 4942      00
 4943 2238 BF080000 		movl	$8, %edi
 4943      00
 4944 223d E8000000 		call	_ZStorSt13_Ios_OpenmodeS_
 4944      00
 4945 2242 89C2     		movl	%eax, %edx
 4946 2244 488D8530 		leaq	-720(%rbp), %rax
 4946      FDFFFF
 4947 224b 488D0D00 		leaq	.LC43(%rip), %rcx
 4947      000000
 4948 2252 4889CE   		movq	%rcx, %rsi
 4949 2255 4889C7   		movq	%rax, %rdi
 4950              	.LEHB181:
 4951 2258 E8000000 		call	_ZNSt14basic_ifstreamIcSt11char_traitsIcEE4openEPKcSt13_Ios_Openmode@PLT
 4951      00
 4952              	.LEHE181:
 216:testHexIO.cpp **** 	CHECK(file.is_open());
 4953              		.loc 4 216 2
 4954 225d 488D8530 		leaq	-720(%rbp), %rax
 4954      FDFFFF
 4955 2264 4889C7   		movq	%rax, %rdi
 4956              	.LEHB182:
 4957 2267 E8000000 		call	_ZNSt14basic_ifstreamIcSt11char_traitsIcEE7is_openEv@PLT
 4957      00
 4958 226c 0FB6C0   		movzbl	%al, %eax
 4959 226f 89C7     		movl	%eax, %edi
 4960 2271 E8000000 		call	_ZN8UnitTest5CheckIbEEbT_
 4960      00
 4961 2276 83F001   		xorl	$1, %eax
 4962 2279 84C0     		testb	%al, %al
 4963 227b 7440     		je	.L225
 4964              		.loc 4 216 2 is_stmt 0 discriminator 3
 4965 227d E8000000 		call	_ZN8UnitTest11CurrentTest7ResultsEv@PLT
 4965      00
 4966 2282 488B18   		movq	(%rax), %rbx
 4967 2285 E8000000 		call	_ZN8UnitTest11CurrentTest7DetailsEv@PLT
 4967      00
 4968              		.loc 4 216 2 discriminator 5
 4969 228a 488B08   		movq	(%rax), %rcx
 4970 228d 488D85C0 		leaq	-832(%rbp), %rax
 4970      FCFFFF
 4971 2294 BAD80000 		movl	$216, %edx
 4971      00
 4972 2299 4889CE   		movq	%rcx, %rsi
 4973 229c 4889C7   		movq	%rax, %rdi
 4974 229f E8000000 		call	_ZN8UnitTest11TestDetailsC1ERKS0_i@PLT
 4974      00
 4975              		.loc 4 216 2 discriminator 9
 4976 22a4 488D85C0 		leaq	-832(%rbp), %rax
 4976      FCFFFF
 4977 22ab 488D1500 		leaq	.LC44(%rip), %rdx
 4977      000000
 4978 22b2 4889C6   		movq	%rax, %rsi
 4979 22b5 4889DF   		movq	%rbx, %rdi
 4980 22b8 E8000000 		call	_ZN8UnitTest11TestResults13OnTestFailureERKNS_11TestDetailsEPKc@PLT
 4980      00
 4981              	.LEHE182:
 4982              	.L225:
 217:testHexIO.cpp **** 	length = file.tellg();
 4983              		.loc 4 217 21 is_stmt 1
 4984 22bd 488D8530 		leaq	-720(%rbp), %rax
 4984      FDFFFF
 4985 22c4 4889C7   		movq	%rax, %rdi
 4986              	.LEHB183:
 4987 22c7 E8000000 		call	_ZNSi5tellgEv@PLT
 4987      00
 4988              	.LEHE183:
 4989 22cc 488985E0 		movq	%rax, -800(%rbp)
 4989      FCFFFF
 4990 22d3 488995E8 		movq	%rdx, -792(%rbp)
 4990      FCFFFF
 4991              		.loc 4 217 22
 4992 22da 488D85E0 		leaq	-800(%rbp), %rax
 4992      FCFFFF
 4993 22e1 4889C7   		movq	%rax, %rdi
 4994 22e4 E8000000 		call	_ZNKSt4fposI11__mbstate_tEcvlEv
 4994      00
 4995 22e9 48898530 		movq	%rax, -976(%rbp)
 4995      FCFFFF
 4996              	.LEHB184:
 218:testHexIO.cpp **** 	CHECK_EQUAL(expected.size(), (unsigned int)length);
 4997              		.loc 4 218 2
 4998 22f0 E8000000 		call	_ZN8UnitTest11CurrentTest7DetailsEv@PLT
 4998      00
 4999              		.loc 4 218 2 is_stmt 0 discriminator 1
 5000 22f5 488B08   		movq	(%rax), %rcx
 5001 22f8 488D85C0 		leaq	-832(%rbp), %rax
 5001      FCFFFF
 5002 22ff BADA0000 		movl	$218, %edx
 5002      00
 5003 2304 4889CE   		movq	%rcx, %rsi
 5004 2307 4889C7   		movq	%rax, %rdi
 5005 230a E8000000 		call	_ZN8UnitTest11TestDetailsC1ERKS0_i@PLT
 5005      00
 5006              		.loc 4 218 2 discriminator 4
 5007 230f 488B8530 		movq	-976(%rbp), %rax
 5007      FCFFFF
 5008 2316 898580FC 		movl	%eax, -896(%rbp)
 5008      FFFF
 5009 231c 488D8510 		leaq	-752(%rbp), %rax
 5009      FDFFFF
 5010 2323 4889C7   		movq	%rax, %rdi
 5011 2326 E8000000 		call	_ZNKSt7__cxx1112basic_stringIcSt11char_traitsIcESaIcEE4sizeEv@PLT
 5011      00
 5012 232b 488985A0 		movq	%rax, -864(%rbp)
 5012      FCFFFF
 5013 2332 E8000000 		call	_ZN8UnitTest11CurrentTest7ResultsEv@PLT
 5013      00
 5014              		.loc 4 218 2 discriminator 6
 5015 2337 488B00   		movq	(%rax), %rax
 5016 233a 488D8DC0 		leaq	-832(%rbp), %rcx
 5016      FCFFFF
 5017 2341 488D9580 		leaq	-896(%rbp), %rdx
 5017      FCFFFF
 5018 2348 488DB5A0 		leaq	-864(%rbp), %rsi
 5018      FCFFFF
 5019 234f 4889C7   		movq	%rax, %rdi
 5020 2352 E8000000 		call	_ZN8UnitTest10CheckEqualImjEEvRNS_11TestResultsERKT_RKT0_RKNS_11TestDetailsE
 5020      00
 5021              	.LEHE184:
 5022              	.L243:
 219:testHexIO.cpp **** 	char *fileData = new char[(unsigned int)length];
 5023              		.loc 4 219 28 is_stmt 1
 5024 2357 488B8530 		movq	-976(%rbp), %rax
 5024      FCFFFF
 5025 235e 89C0     		movl	%eax, %eax
 5026              		.loc 4 219 48
 5027 2360 4889C7   		movq	%rax, %rdi
 5028              	.LEHB185:
 5029 2363 E8000000 		call	_Znam@PLT
 5029      00
 5030 2368 48898538 		movq	%rax, -968(%rbp)
 5030      FCFFFF
 220:testHexIO.cpp **** 	file.seekg(0, ios::beg);
 5031              		.loc 4 220 12
 5032 236f 488D8530 		leaq	-720(%rbp), %rax
 5032      FDFFFF
 5033 2376 BA000000 		movl	$0, %edx
 5033      00
 5034 237b BE000000 		movl	$0, %esi
 5034      00
 5035 2380 4889C7   		movq	%rax, %rdi
 5036 2383 E8000000 		call	_ZNSi5seekgElSt12_Ios_Seekdir@PLT
 5036      00
 221:testHexIO.cpp **** 	file.read(fileData, (streamsize)length);
 5037              		.loc 4 221 11
 5038 2388 488B9530 		movq	-976(%rbp), %rdx
 5038      FCFFFF
 5039 238f 488B8D38 		movq	-968(%rbp), %rcx
 5039      FCFFFF
 5040 2396 488D8530 		leaq	-720(%rbp), %rax
 5040      FDFFFF
 5041 239d 4889CE   		movq	%rcx, %rsi
 5042 23a0 4889C7   		movq	%rax, %rdi
 5043 23a3 E8000000 		call	_ZNSi4readEPcl@PLT
 5043      00
 222:testHexIO.cpp **** 	file.close();
 5044              		.loc 4 222 12
 5045 23a8 488D8530 		leaq	-720(%rbp), %rax
 5045      FDFFFF
 5046 23af 4889C7   		movq	%rax, %rdi
 5047 23b2 E8000000 		call	_ZNSt14basic_ifstreamIcSt11char_traitsIcEE5closeEv@PLT
 5047      00
 5048              	.LEHE185:
 5049              	.LEHB186:
 223:testHexIO.cpp **** 	CHECK_ARRAY_EQUAL(expected.c_str(), (const char *)fileData, (int)length);
 5050              		.loc 4 223 2
 5051 23b7 E8000000 		call	_ZN8UnitTest11CurrentTest7DetailsEv@PLT
 5051      00
 5052 23bc 488B08   		movq	(%rax), %rcx
 5053 23bf 488D85C0 		leaq	-832(%rbp), %rax
 5053      FCFFFF
 5054 23c6 BADF0000 		movl	$223, %edx
 5054      00
 5055 23cb 4889CE   		movq	%rcx, %rsi
 5056 23ce 4889C7   		movq	%rax, %rdi
 5057 23d1 E8000000 		call	_ZN8UnitTest11TestDetailsC1ERKS0_i@PLT
 5057      00
 5058              		.loc 4 223 2 is_stmt 0 discriminator 4
 5059 23d6 488B8530 		movq	-976(%rbp), %rax
 5059      FCFFFF
 5060 23dd 89C3     		movl	%eax, %ebx
 5061 23df 488B8538 		movq	-968(%rbp), %rax
 5061      FCFFFF
 5062 23e6 488985A0 		movq	%rax, -864(%rbp)
 5062      FCFFFF
 5063 23ed 488D8510 		leaq	-752(%rbp), %rax
 5063      FDFFFF
 5064 23f4 4889C7   		movq	%rax, %rdi
 5065 23f7 E8000000 		call	_ZNKSt7__cxx1112basic_stringIcSt11char_traitsIcESaIcEE5c_strEv@PLT
 5065      00
 5066 23fc 48898580 		movq	%rax, -896(%rbp)
 5066      FCFFFF
 5067 2403 E8000000 		call	_ZN8UnitTest11CurrentTest7ResultsEv@PLT
 5067      00
 5068              		.loc 4 223 2 discriminator 6
 5069 2408 488B00   		movq	(%rax), %rax
 5070 240b 488D8DC0 		leaq	-832(%rbp), %rcx
 5070      FCFFFF
 5071 2412 488D95A0 		leaq	-864(%rbp), %rdx
 5071      FCFFFF
 5072 2419 488DB580 		leaq	-896(%rbp), %rsi
 5072      FCFFFF
 5073 2420 4989C8   		movq	%rcx, %r8
 5074 2423 89D9     		movl	%ebx, %ecx
 5075 2425 4889C7   		movq	%rax, %rdi
 5076 2428 E8000000 		call	_ZN8UnitTest15CheckArrayEqualIPKcS2_EEvRNS_11TestResultsERKT_RKT0_iRKNS_11TestDetailsE
 5076      00
 5077              	.LEHE186:
 5078              	.L246:
 224:testHexIO.cpp **** 
 225:testHexIO.cpp **** 	status = bufInitialise(&readbackData, 1024, 0x00, NULL);
 5079              		.loc 4 225 24 is_stmt 1
 5080 242d 488D8580 		leaq	-896(%rbp), %rax
 5080      FCFFFF
 5081 2434 B9000000 		movl	$0, %ecx
 5081      00
 5082 2439 BA000000 		movl	$0, %edx
 5082      00
 5083 243e BE000400 		movl	$1024, %esi
 5083      00
 5084 2443 4889C7   		movq	%rax, %rdi
 5085              	.LEHB187:
 5086 2446 E8000000 		call	bufInitialise@PLT
 5086      00
 5087              	.LEHE187:
 5088              		.loc 4 225 9
 5089 244b 898514FC 		movl	%eax, -1004(%rbp)
 5089      FFFF
 5090              	.LEHB188:
 226:testHexIO.cpp **** 	CHECK_EQUAL(BUF_SUCCESS, status);
 5091              		.loc 4 226 2
 5092 2451 E8000000 		call	_ZN8UnitTest11CurrentTest7DetailsEv@PLT
 5092      00
 5093              		.loc 4 226 2 is_stmt 0 discriminator 1
 5094 2456 488B08   		movq	(%rax), %rcx
 5095 2459 488D85C0 		leaq	-832(%rbp), %rax
 5095      FCFFFF
 5096 2460 BAE20000 		movl	$226, %edx
 5096      00
 5097 2465 4889CE   		movq	%rcx, %rsi
 5098 2468 4889C7   		movq	%rax, %rdi
 5099 246b E8000000 		call	_ZN8UnitTest11TestDetailsC1ERKS0_i@PLT
 5099      00
 5100              		.loc 4 226 2 discriminator 4
 5101 2470 C785A0FC 		movl	$0, -864(%rbp)
 5101      FFFF0000 
 5101      0000
 5102 247a E8000000 		call	_ZN8UnitTest11CurrentTest7ResultsEv@PLT
 5102      00
 5103 247f 488B00   		movq	(%rax), %rax
 5104 2482 488D8DC0 		leaq	-832(%rbp), %rcx
 5104      FCFFFF
 5105 2489 488D9514 		leaq	-1004(%rbp), %rdx
 5105      FCFFFF
 5106 2490 488DB5A0 		leaq	-864(%rbp), %rsi
 5106      FCFFFF
 5107 2497 4889C7   		movq	%rax, %rdi
 5108 249a E8000000 		call	_ZN8UnitTest10CheckEqualI12BufferStatusS1_EEvRNS_11TestResultsERKT_RKT0_RKNS_11TestDetailsE
 5108      00
 5109              	.LEHE188:
 5110              	.L249:
 227:testHexIO.cpp **** 	status = bufInitialise(&readbackMask, 1024, 0x00, NULL);
 5111              		.loc 4 227 24 is_stmt 1
 5112 249f 488D85A0 		leaq	-864(%rbp), %rax
 5112      FCFFFF
 5113 24a6 B9000000 		movl	$0, %ecx
 5113      00
 5114 24ab BA000000 		movl	$0, %edx
 5114      00
 5115 24b0 BE000400 		movl	$1024, %esi
 5115      00
 5116 24b5 4889C7   		movq	%rax, %rdi
 5117              	.LEHB189:
 5118 24b8 E8000000 		call	bufInitialise@PLT
 5118      00
 5119              	.LEHE189:
 5120              		.loc 4 227 9
 5121 24bd 898514FC 		movl	%eax, -1004(%rbp)
 5121      FFFF
 5122              	.LEHB190:
 228:testHexIO.cpp **** 	CHECK_EQUAL(BUF_SUCCESS, status);
 5123              		.loc 4 228 2
 5124 24c3 E8000000 		call	_ZN8UnitTest11CurrentTest7DetailsEv@PLT
 5124      00
 5125              		.loc 4 228 2 is_stmt 0 discriminator 1
 5126 24c8 488B08   		movq	(%rax), %rcx
 5127 24cb 488D85C0 		leaq	-832(%rbp), %rax
 5127      FCFFFF
 5128 24d2 BAE40000 		movl	$228, %edx
 5128      00
 5129 24d7 4889CE   		movq	%rcx, %rsi
 5130 24da 4889C7   		movq	%rax, %rdi
 5131 24dd E8000000 		call	_ZN8UnitTest11TestDetailsC1ERKS0_i@PLT
 5131      00
 5132              		.loc 4 228 2 discriminator 4
 5133 24e2 C7851CFC 		movl	$0, -996(%rbp)
 5133      FFFF0000 
 5133      0000
 5134 24ec E8000000 		call	_ZN8UnitTest11CurrentTest7ResultsEv@PLT
 5134      00
 5135 24f1 488B00   		movq	(%rax), %rax
 5136 24f4 488D8DC0 		leaq	-832(%rbp), %rcx
 5136      FCFFFF
 5137 24fb 488D9514 		leaq	-1004(%rbp), %rdx
 5137      FCFFFF
 5138 2502 488DB51C 		leaq	-996(%rbp), %rsi
 5138      FCFFFF
 5139 2509 4889C7   		movq	%rax, %rdi
 5140 250c E8000000 		call	_ZN8UnitTest10CheckEqualI12BufferStatusS1_EEvRNS_11TestResultsERKT_RKT0_RKNS_11TestDetailsE
 5140      00
 5141              	.LEHE190:
 5142              	.L252:
 229:testHexIO.cpp **** 	status = bufReadFromIntelHexFile(&readbackData, &readbackMask, FILENAME, NULL);
 5143              		.loc 4 229 34 is_stmt 1
 5144 2511 488DB5A0 		leaq	-864(%rbp), %rsi
 5144      FCFFFF
 5145 2518 488D8580 		leaq	-896(%rbp), %rax
 5145      FCFFFF
 5146 251f B9000000 		movl	$0, %ecx
 5146      00
 5147 2524 488D1500 		leaq	.LC43(%rip), %rdx
 5147      000000
 5148 252b 4889C7   		movq	%rax, %rdi
 5149              	.LEHB191:
 5150 252e E8000000 		call	bufReadFromIntelHexFile@PLT
 5150      00
 5151              	.LEHE191:
 5152              		.loc 4 229 9
 5153 2533 898514FC 		movl	%eax, -1004(%rbp)
 5153      FFFF
 5154              	.LEHB192:
 230:testHexIO.cpp **** 	CHECK_EQUAL(BUF_SUCCESS, status);
 5155              		.loc 4 230 2
 5156 2539 E8000000 		call	_ZN8UnitTest11CurrentTest7DetailsEv@PLT
 5156      00
 5157              		.loc 4 230 2 is_stmt 0 discriminator 1
 5158 253e 488B08   		movq	(%rax), %rcx
 5159 2541 488D85C0 		leaq	-832(%rbp), %rax
 5159      FCFFFF
 5160 2548 BAE60000 		movl	$230, %edx
 5160      00
 5161 254d 4889CE   		movq	%rcx, %rsi
 5162 2550 4889C7   		movq	%rax, %rdi
 5163 2553 E8000000 		call	_ZN8UnitTest11TestDetailsC1ERKS0_i@PLT
 5163      00
 5164              		.loc 4 230 2 discriminator 4
 5165 2558 C7851CFC 		movl	$0, -996(%rbp)
 5165      FFFF0000 
 5165      0000
 5166 2562 E8000000 		call	_ZN8UnitTest11CurrentTest7ResultsEv@PLT
 5166      00
 5167 2567 488B00   		movq	(%rax), %rax
 5168 256a 488D8DC0 		leaq	-832(%rbp), %rcx
 5168      FCFFFF
 5169 2571 488D9514 		leaq	-1004(%rbp), %rdx
 5169      FCFFFF
 5170 2578 488DB51C 		leaq	-996(%rbp), %rsi
 5170      FCFFFF
 5171 257f 4889C7   		movq	%rax, %rdi
 5172 2582 E8000000 		call	_ZN8UnitTest10CheckEqualI12BufferStatusS1_EEvRNS_11TestResultsERKT_RKT0_RKNS_11TestDetailsE
 5172      00
 5173              	.LEHE192:
 5174              	.L255:
 5175              	.LEHB193:
 231:testHexIO.cpp **** 	CHECK_EQUAL(data.length, readbackData.length);
 5176              		.loc 4 231 2 is_stmt 1
 5177 2587 E8000000 		call	_ZN8UnitTest11CurrentTest7DetailsEv@PLT
 5177      00
 5178 258c 488B08   		movq	(%rax), %rcx
 5179 258f 488D85C0 		leaq	-832(%rbp), %rax
 5179      FCFFFF
 5180 2596 BAE70000 		movl	$231, %edx
 5180      00
 5181 259b 4889CE   		movq	%rcx, %rsi
 5182 259e 4889C7   		movq	%rax, %rdi
 5183 25a1 E8000000 		call	_ZN8UnitTest11TestDetailsC1ERKS0_i@PLT
 5183      00
 5184              		.loc 4 231 2 is_stmt 0 discriminator 4
 5185 25a6 E8000000 		call	_ZN8UnitTest11CurrentTest7ResultsEv@PLT
 5185      00
 5186 25ab 488B00   		movq	(%rax), %rax
 5187 25ae 488D95C0 		leaq	-832(%rbp), %rdx
 5187      FCFFFF
 5188 25b5 488D8D80 		leaq	-896(%rbp), %rcx
 5188      FCFFFF
 5189 25bc 488D7908 		leaq	8(%rcx), %rdi
 5190 25c0 488D8D40 		leaq	-960(%rbp), %rcx
 5190      FCFFFF
 5191 25c7 488D7108 		leaq	8(%rcx), %rsi
 5192 25cb 4889D1   		movq	%rdx, %rcx
 5193 25ce 4889FA   		movq	%rdi, %rdx
 5194 25d1 4889C7   		movq	%rax, %rdi
 5195 25d4 E8000000 		call	_ZN8UnitTest10CheckEqualImmEEvRNS_11TestResultsERKT_RKT0_RKNS_11TestDetailsE
 5195      00
 5196              	.LEHE193:
 5197              	.L258:
 5198              	.LEHB194:
 232:testHexIO.cpp **** 	CHECK_ARRAY_EQUAL(data.data, readbackData.data, (int)data.length);
 5199              		.loc 4 232 2 is_stmt 1
 5200 25d9 E8000000 		call	_ZN8UnitTest11CurrentTest7DetailsEv@PLT
 5200      00
 5201 25de 488B08   		movq	(%rax), %rcx
 5202 25e1 488D85C0 		leaq	-832(%rbp), %rax
 5202      FCFFFF
 5203 25e8 BAE80000 		movl	$232, %edx
 5203      00
 5204 25ed 4889CE   		movq	%rcx, %rsi
 5205 25f0 4889C7   		movq	%rax, %rdi
 5206 25f3 E8000000 		call	_ZN8UnitTest11TestDetailsC1ERKS0_i@PLT
 5206      00
 5207              		.loc 4 232 2 is_stmt 0 discriminator 4
 5208 25f8 488B8548 		movq	-952(%rbp), %rax
 5208      FCFFFF
 5209 25ff 89C3     		movl	%eax, %ebx
 5210 2601 E8000000 		call	_ZN8UnitTest11CurrentTest7ResultsEv@PLT
 5210      00
 5211 2606 488B00   		movq	(%rax), %rax
 5212 2609 488D8DC0 		leaq	-832(%rbp), %rcx
 5212      FCFFFF
 5213 2610 488D9580 		leaq	-896(%rbp), %rdx
 5213      FCFFFF
 5214 2617 488DB540 		leaq	-960(%rbp), %rsi
 5214      FCFFFF
 5215 261e 4989C8   		movq	%rcx, %r8
 5216 2621 89D9     		movl	%ebx, %ecx
 5217 2623 4889C7   		movq	%rax, %rdi
 5218 2626 E8000000 		call	_ZN8UnitTest15CheckArrayEqualIPhS1_EEvRNS_11TestResultsERKT_RKT0_iRKNS_11TestDetailsE
 5218      00
 5219              	.LEHE194:
 5220              	.L261:
 5221              	.LEHB195:
 233:testHexIO.cpp **** 	CHECK_EQUAL(mask.length, readbackMask.length);
 5222              		.loc 4 233 2 is_stmt 1
 5223 262b E8000000 		call	_ZN8UnitTest11CurrentTest7DetailsEv@PLT
 5223      00
 5224 2630 488B08   		movq	(%rax), %rcx
 5225 2633 488D85C0 		leaq	-832(%rbp), %rax
 5225      FCFFFF
 5226 263a BAE90000 		movl	$233, %edx
 5226      00
 5227 263f 4889CE   		movq	%rcx, %rsi
 5228 2642 4889C7   		movq	%rax, %rdi
 5229 2645 E8000000 		call	_ZN8UnitTest11TestDetailsC1ERKS0_i@PLT
 5229      00
 5230              		.loc 4 233 2 is_stmt 0 discriminator 4
 5231 264a E8000000 		call	_ZN8UnitTest11CurrentTest7ResultsEv@PLT
 5231      00
 5232 264f 488B00   		movq	(%rax), %rax
 5233 2652 488D95C0 		leaq	-832(%rbp), %rdx
 5233      FCFFFF
 5234 2659 488D8DA0 		leaq	-864(%rbp), %rcx
 5234      FCFFFF
 5235 2660 488D7908 		leaq	8(%rcx), %rdi
 5236 2664 488D8D60 		leaq	-928(%rbp), %rcx
 5236      FCFFFF
 5237 266b 488D7108 		leaq	8(%rcx), %rsi
 5238 266f 4889D1   		movq	%rdx, %rcx
 5239 2672 4889FA   		movq	%rdi, %rdx
 5240 2675 4889C7   		movq	%rax, %rdi
 5241 2678 E8000000 		call	_ZN8UnitTest10CheckEqualImmEEvRNS_11TestResultsERKT_RKT0_RKNS_11TestDetailsE
 5241      00
 5242              	.LEHE195:
 5243              	.L264:
 5244              	.LEHB196:
 234:testHexIO.cpp **** 	CHECK_ARRAY_EQUAL(mask.data, readbackMask.data, (int)mask.length);
 5245              		.loc 4 234 2 is_stmt 1
 5246 267d E8000000 		call	_ZN8UnitTest11CurrentTest7DetailsEv@PLT
 5246      00
 5247 2682 488B08   		movq	(%rax), %rcx
 5248 2685 488D85C0 		leaq	-832(%rbp), %rax
 5248      FCFFFF
 5249 268c BAEA0000 		movl	$234, %edx
 5249      00
 5250 2691 4889CE   		movq	%rcx, %rsi
 5251 2694 4889C7   		movq	%rax, %rdi
 5252 2697 E8000000 		call	_ZN8UnitTest11TestDetailsC1ERKS0_i@PLT
 5252      00
 5253              		.loc 4 234 2 is_stmt 0 discriminator 4
 5254 269c 488B8568 		movq	-920(%rbp), %rax
 5254      FCFFFF
 5255 26a3 89C3     		movl	%eax, %ebx
 5256 26a5 E8000000 		call	_ZN8UnitTest11CurrentTest7ResultsEv@PLT
 5256      00
 5257 26aa 488B00   		movq	(%rax), %rax
 5258 26ad 488D8DC0 		leaq	-832(%rbp), %rcx
 5258      FCFFFF
 5259 26b4 488D95A0 		leaq	-864(%rbp), %rdx
 5259      FCFFFF
 5260 26bb 488DB560 		leaq	-928(%rbp), %rsi
 5260      FCFFFF
 5261 26c2 4989C8   		movq	%rcx, %r8
 5262 26c5 89D9     		movl	%ebx, %ecx
 5263 26c7 4889C7   		movq	%rax, %rdi
 5264 26ca E8000000 		call	_ZN8UnitTest15CheckArrayEqualIPhS1_EEvRNS_11TestResultsERKT_RKT0_iRKNS_11TestDetailsE
 5264      00
 5265              	.LEHE196:
 5266              	.L267:
 235:testHexIO.cpp **** 	
 236:testHexIO.cpp **** 	bufDestroy(&readbackMask);
 5267              		.loc 4 236 12 is_stmt 1
 5268 26cf 488D85A0 		leaq	-864(%rbp), %rax
 5268      FCFFFF
 5269 26d6 4889C7   		movq	%rax, %rdi
 5270              	.LEHB197:
 5271 26d9 E8000000 		call	bufDestroy@PLT
 5271      00
 237:testHexIO.cpp **** 	bufDestroy(&readbackData);
 5272              		.loc 4 237 12
 5273 26de 488D8580 		leaq	-896(%rbp), %rax
 5273      FCFFFF
 5274 26e5 4889C7   		movq	%rax, %rdi
 5275 26e8 E8000000 		call	bufDestroy@PLT
 5275      00
 238:testHexIO.cpp **** 	bufDestroy(&mask);
 5276              		.loc 4 238 12
 5277 26ed 488D8560 		leaq	-928(%rbp), %rax
 5277      FCFFFF
 5278 26f4 4889C7   		movq	%rax, %rdi
 5279 26f7 E8000000 		call	bufDestroy@PLT
 5279      00
 239:testHexIO.cpp **** 	bufDestroy(&data);
 5280              		.loc 4 239 12
 5281 26fc 488D8540 		leaq	-960(%rbp), %rax
 5281      FCFFFF
 5282 2703 4889C7   		movq	%rax, %rdi
 5283 2706 E8000000 		call	bufDestroy@PLT
 5283      00
 5284              	.LEHE197:
 240:testHexIO.cpp **** }
 5285              		.loc 4 240 1
 5286 270b 488D8530 		leaq	-720(%rbp), %rax
 5286      FDFFFF
 5287 2712 4889C7   		movq	%rax, %rdi
 5288              	.LEHB198:
 5289 2715 E8000000 		call	_ZNSt14basic_ifstreamIcSt11char_traitsIcEED1Ev@PLT
 5289      00
 5290              	.LEHE198:
 5291              		.loc 4 240 1 is_stmt 0 discriminator 2
 5292 271a 488D8510 		leaq	-752(%rbp), %rax
 5292      FDFFFF
 5293 2721 4889C7   		movq	%rax, %rdi
 5294              	.LEHB199:
 5295 2724 E8000000 		call	_ZNSt7__cxx1112basic_stringIcSt11char_traitsIcESaIcEED1Ev@PLT
 5295      00
 5296              	.LEHE199:
 5297 2729 488B8538 		movq	-200(%rbp), %rax
 5297      FFFFFF
 5298 2730 64482B04 		subq	%fs:40, %rax
 5298      25280000 
 5298      00
 5299 2739 0F84DF05 		je	.L269
 5299      0000
 5300 273f E9D50500 		jmp	.L300
 5300      00
 5301              	.L271:
 5302 2744 F30F1EFA 		endbr64
 196:testHexIO.cpp **** 	status = bufInitialise(&mask, 1024, 0x00, NULL);
 5303              		.loc 4 196 2 is_stmt 1
 5304 2748 4889C7   		movq	%rax, %rdi
 5305 274b E8000000 		call	__cxa_begin_catch@PLT
 5305      00
 5306              	.LEHB200:
 5307 2750 E8000000 		call	_ZN8UnitTest11CurrentTest7ResultsEv@PLT
 5307      00
 196:testHexIO.cpp **** 	status = bufInitialise(&mask, 1024, 0x00, NULL);
 5308              		.loc 4 196 2 is_stmt 0 discriminator 3
 5309 2755 488B18   		movq	(%rax), %rbx
 5310 2758 E8000000 		call	_ZN8UnitTest11CurrentTest7DetailsEv@PLT
 5310      00
 196:testHexIO.cpp **** 	status = bufInitialise(&mask, 1024, 0x00, NULL);
 5311              		.loc 4 196 2 discriminator 11
 5312 275d 488B08   		movq	(%rax), %rcx
 5313 2760 488D85C0 		leaq	-832(%rbp), %rax
 5313      FCFFFF
 5314 2767 BAC40000 		movl	$196, %edx
 5314      00
 5315 276c 4889CE   		movq	%rcx, %rsi
 5316 276f 4889C7   		movq	%rax, %rdi
 5317 2772 E8000000 		call	_ZN8UnitTest11TestDetailsC1ERKS0_i@PLT
 5317      00
 196:testHexIO.cpp **** 	status = bufInitialise(&mask, 1024, 0x00, NULL);
 5318              		.loc 4 196 2 discriminator 15
 5319 2777 488D85C0 		leaq	-832(%rbp), %rax
 5319      FCFFFF
 5320 277e 488D1500 		leaq	.LC4(%rip), %rdx
 5320      000000
 5321 2785 4889C6   		movq	%rax, %rsi
 5322 2788 4889DF   		movq	%rbx, %rdi
 5323 278b E8000000 		call	_ZN8UnitTest11TestResults13OnTestFailureERKNS_11TestDetailsEPKc@PLT
 5323      00
 5324              	.LEHE200:
 5325              	.LEHB201:
 196:testHexIO.cpp **** 	status = bufInitialise(&mask, 1024, 0x00, NULL);
 5326              		.loc 4 196 2 discriminator 17
 5327 2790 E8000000 		call	__cxa_end_catch@PLT
 5327      00
 5328              	.LEHE201:
 196:testHexIO.cpp **** 	status = bufInitialise(&mask, 1024, 0x00, NULL);
 5329              		.loc 4 196 2
 5330 2795 E929F8FF 		jmp	.L227
 5330      FF
 5331              	.L272:
 5332 279a F30F1EFA 		endbr64
 5333 279e 4889C3   		movq	%rax, %rbx
 5334 27a1 E8000000 		call	__cxa_end_catch@PLT
 5334      00
 5335 27a6 E9540500 		jmp	.L229
 5335      00
 5336              	.L273:
 5337 27ab F30F1EFA 		endbr64
 198:testHexIO.cpp **** 	va_start(vl, firstLine);
 5338              		.loc 4 198 2 is_stmt 1
 5339 27af 4889C7   		movq	%rax, %rdi
 5340 27b2 E8000000 		call	__cxa_begin_catch@PLT
 5340      00
 5341              	.LEHB202:
 5342 27b7 E8000000 		call	_ZN8UnitTest11CurrentTest7ResultsEv@PLT
 5342      00
 198:testHexIO.cpp **** 	va_start(vl, firstLine);
 5343              		.loc 4 198 2 is_stmt 0 discriminator 3
 5344 27bc 488B18   		movq	(%rax), %rbx
 5345 27bf E8000000 		call	_ZN8UnitTest11CurrentTest7DetailsEv@PLT
 5345      00
 198:testHexIO.cpp **** 	va_start(vl, firstLine);
 5346              		.loc 4 198 2 discriminator 11
 5347 27c4 488B08   		movq	(%rax), %rcx
 5348 27c7 488D85C0 		leaq	-832(%rbp), %rax
 5348      FCFFFF
 5349 27ce BAC60000 		movl	$198, %edx
 5349      00
 5350 27d3 4889CE   		movq	%rcx, %rsi
 5351 27d6 4889C7   		movq	%rax, %rdi
 5352 27d9 E8000000 		call	_ZN8UnitTest11TestDetailsC1ERKS0_i@PLT
 5352      00
 198:testHexIO.cpp **** 	va_start(vl, firstLine);
 5353              		.loc 4 198 2 discriminator 15
 5354 27de 488D85C0 		leaq	-832(%rbp), %rax
 5354      FCFFFF
 5355 27e5 488D1500 		leaq	.LC4(%rip), %rdx
 5355      000000
 5356 27ec 4889C6   		movq	%rax, %rsi
 5357 27ef 4889DF   		movq	%rbx, %rdi
 5358 27f2 E8000000 		call	_ZN8UnitTest11TestResults13OnTestFailureERKNS_11TestDetailsEPKc@PLT
 5358      00
 5359              	.LEHE202:
 5360              	.LEHB203:
 198:testHexIO.cpp **** 	va_start(vl, firstLine);
 5361              		.loc 4 198 2 discriminator 17
 5362 27f7 E8000000 		call	__cxa_end_catch@PLT
 5362      00
 5363              	.LEHE203:
 198:testHexIO.cpp **** 	va_start(vl, firstLine);
 5364              		.loc 4 198 2
 5365 27fc E934F8FF 		jmp	.L231
 5365      FF
 5366              	.L274:
 5367 2801 F30F1EFA 		endbr64
 5368 2805 4889C3   		movq	%rax, %rbx
 5369 2808 E8000000 		call	__cxa_end_catch@PLT
 5369      00
 5370 280d E9ED0400 		jmp	.L229
 5370      00
 5371              	.L275:
 5372 2812 F30F1EFA 		endbr64
 203:testHexIO.cpp **** 		expected += line;
 5373              		.loc 4 203 3 is_stmt 1
 5374 2816 4889C7   		movq	%rax, %rdi
 5375 2819 E8000000 		call	__cxa_begin_catch@PLT
 5375      00
 5376              	.LEHB204:
 5377 281e E8000000 		call	_ZN8UnitTest11CurrentTest7ResultsEv@PLT
 5377      00
 203:testHexIO.cpp **** 		expected += line;
 5378              		.loc 4 203 3 is_stmt 0 discriminator 3
 5379 2823 488B18   		movq	(%rax), %rbx
 5380 2826 E8000000 		call	_ZN8UnitTest11CurrentTest7DetailsEv@PLT
 5380      00
 203:testHexIO.cpp **** 		expected += line;
 5381              		.loc 4 203 3 discriminator 11
 5382 282b 488B08   		movq	(%rax), %rcx
 5383 282e 488D85C0 		leaq	-832(%rbp), %rax
 5383      FCFFFF
 5384 2835 BACB0000 		movl	$203, %edx
 5384      00
 5385 283a 4889CE   		movq	%rcx, %rsi
 5386 283d 4889C7   		movq	%rax, %rdi
 5387 2840 E8000000 		call	_ZN8UnitTest11TestDetailsC1ERKS0_i@PLT
 5387      00
 203:testHexIO.cpp **** 		expected += line;
 5388              		.loc 4 203 3 discriminator 15
 5389 2845 488D85C0 		leaq	-832(%rbp), %rax
 5389      FCFFFF
 5390 284c 488D1500 		leaq	.LC4(%rip), %rdx
 5390      000000
 5391 2853 4889C6   		movq	%rax, %rsi
 5392 2856 4889DF   		movq	%rbx, %rdi
 5393 2859 E8000000 		call	_ZN8UnitTest11TestResults13OnTestFailureERKNS_11TestDetailsEPKc@PLT
 5393      00
 5394              	.LEHE204:
 5395              	.LEHB205:
 203:testHexIO.cpp **** 		expected += line;
 5396              		.loc 4 203 3 discriminator 17
 5397 285e E8000000 		call	__cxa_end_catch@PLT
 5397      00
 5398              	.LEHE205:
 203:testHexIO.cpp **** 		expected += line;
 5399              		.loc 4 203 3
 5400 2863 E99CF8FF 		jmp	.L234
 5400      FF
 5401              	.L276:
 5402 2868 F30F1EFA 		endbr64
 5403 286c 4889C3   		movq	%rax, %rbx
 5404 286f E8000000 		call	__cxa_end_catch@PLT
 5404      00
 5405 2874 E9860400 		jmp	.L229
 5405      00
 5406              	.L277:
 5407 2879 F30F1EFA 		endbr64
 211:testHexIO.cpp **** 
 5408              		.loc 4 211 2 is_stmt 1
 5409 287d 4889C7   		movq	%rax, %rdi
 5410 2880 E8000000 		call	__cxa_begin_catch@PLT
 5410      00
 5411              	.LEHB206:
 5412 2885 E8000000 		call	_ZN8UnitTest11CurrentTest7ResultsEv@PLT
 5412      00
 211:testHexIO.cpp **** 
 5413              		.loc 4 211 2 is_stmt 0 discriminator 3
 5414 288a 488B18   		movq	(%rax), %rbx
 5415 288d E8000000 		call	_ZN8UnitTest11CurrentTest7DetailsEv@PLT
 5415      00
 211:testHexIO.cpp **** 
 5416              		.loc 4 211 2 discriminator 11
 5417 2892 488B08   		movq	(%rax), %rcx
 5418 2895 488D85C0 		leaq	-832(%rbp), %rax
 5418      FCFFFF
 5419 289c BAD30000 		movl	$211, %edx
 5419      00
 5420 28a1 4889CE   		movq	%rcx, %rsi
 5421 28a4 4889C7   		movq	%rax, %rdi
 5422 28a7 E8000000 		call	_ZN8UnitTest11TestDetailsC1ERKS0_i@PLT
 5422      00
 211:testHexIO.cpp **** 
 5423              		.loc 4 211 2 discriminator 15
 5424 28ac 488D85C0 		leaq	-832(%rbp), %rax
 5424      FCFFFF
 5425 28b3 488D1500 		leaq	.LC4(%rip), %rdx
 5425      000000
 5426 28ba 4889C6   		movq	%rax, %rsi
 5427 28bd 4889DF   		movq	%rbx, %rdi
 5428 28c0 E8000000 		call	_ZN8UnitTest11TestResults13OnTestFailureERKNS_11TestDetailsEPKc@PLT
 5428      00
 5429              	.LEHE206:
 5430              	.LEHB207:
 211:testHexIO.cpp **** 
 5431              		.loc 4 211 2 discriminator 17
 5432 28c5 E8000000 		call	__cxa_end_catch@PLT
 5432      00
 5433              	.LEHE207:
 211:testHexIO.cpp **** 
 5434              		.loc 4 211 2
 5435 28ca E955F9FF 		jmp	.L237
 5435      FF
 5436              	.L278:
 5437 28cf F30F1EFA 		endbr64
 5438 28d3 4889C3   		movq	%rax, %rbx
 5439 28d6 E8000000 		call	__cxa_end_catch@PLT
 5439      00
 5440 28db E91F0400 		jmp	.L229
 5440      00
 5441              	.L280:
 5442 28e0 F30F1EFA 		endbr64
 216:testHexIO.cpp **** 	length = file.tellg();
 5443              		.loc 4 216 2 is_stmt 1
 5444 28e4 4889C7   		movq	%rax, %rdi
 5445 28e7 E8000000 		call	__cxa_begin_catch@PLT
 5445      00
 5446              	.LEHB208:
 5447 28ec E8000000 		call	_ZN8UnitTest11CurrentTest7ResultsEv@PLT
 5447      00
 216:testHexIO.cpp **** 	length = file.tellg();
 5448              		.loc 4 216 2 is_stmt 0 discriminator 8
 5449 28f1 488B18   		movq	(%rax), %rbx
 5450 28f4 E8000000 		call	_ZN8UnitTest11CurrentTest7DetailsEv@PLT
 5450      00
 216:testHexIO.cpp **** 	length = file.tellg();
 5451              		.loc 4 216 2 discriminator 14
 5452 28f9 488B08   		movq	(%rax), %rcx
 5453 28fc 488D85C0 		leaq	-832(%rbp), %rax
 5453      FCFFFF
 5454 2903 BAD80000 		movl	$216, %edx
 5454      00
 5455 2908 4889CE   		movq	%rcx, %rsi
 5456 290b 4889C7   		movq	%rax, %rdi
 5457 290e E8000000 		call	_ZN8UnitTest11TestDetailsC1ERKS0_i@PLT
 5457      00
 216:testHexIO.cpp **** 	length = file.tellg();
 5458              		.loc 4 216 2 discriminator 18
 5459 2913 488D85C0 		leaq	-832(%rbp), %rax
 5459      FCFFFF
 5460 291a 488D1500 		leaq	.LC45(%rip), %rdx
 5460      000000
 5461 2921 4889C6   		movq	%rax, %rsi
 5462 2924 4889DF   		movq	%rbx, %rdi
 5463 2927 E8000000 		call	_ZN8UnitTest11TestResults13OnTestFailureERKNS_11TestDetailsEPKc@PLT
 5463      00
 5464              	.LEHE208:
 5465              	.LEHB209:
 216:testHexIO.cpp **** 	length = file.tellg();
 5466              		.loc 4 216 2 discriminator 20
 5467 292c E8000000 		call	__cxa_end_catch@PLT
 5467      00
 5468              	.LEHE209:
 216:testHexIO.cpp **** 	length = file.tellg();
 5469              		.loc 4 216 2
 5470 2931 E987F9FF 		jmp	.L225
 5470      FF
 5471              	.L281:
 5472 2936 F30F1EFA 		endbr64
 5473 293a 4889C3   		movq	%rax, %rbx
 5474 293d E8000000 		call	__cxa_end_catch@PLT
 5474      00
 5475 2942 E9A00300 		jmp	.L241
 5475      00
 5476              	.L282:
 5477 2947 F30F1EFA 		endbr64
 218:testHexIO.cpp **** 	char *fileData = new char[(unsigned int)length];
 5478              		.loc 4 218 2 is_stmt 1
 5479 294b 4889C7   		movq	%rax, %rdi
 5480 294e E8000000 		call	__cxa_begin_catch@PLT
 5480      00
 5481              	.LEHB210:
 5482 2953 E8000000 		call	_ZN8UnitTest11CurrentTest7ResultsEv@PLT
 5482      00
 218:testHexIO.cpp **** 	char *fileData = new char[(unsigned int)length];
 5483              		.loc 4 218 2 is_stmt 0 discriminator 3
 5484 2958 488B18   		movq	(%rax), %rbx
 5485 295b E8000000 		call	_ZN8UnitTest11CurrentTest7DetailsEv@PLT
 5485      00
 218:testHexIO.cpp **** 	char *fileData = new char[(unsigned int)length];
 5486              		.loc 4 218 2 discriminator 13
 5487 2960 488B08   		movq	(%rax), %rcx
 5488 2963 488D85C0 		leaq	-832(%rbp), %rax
 5488      FCFFFF
 5489 296a BADA0000 		movl	$218, %edx
 5489      00
 5490 296f 4889CE   		movq	%rcx, %rsi
 5491 2972 4889C7   		movq	%rax, %rdi
 5492 2975 E8000000 		call	_ZN8UnitTest11TestDetailsC1ERKS0_i@PLT
 5492      00
 218:testHexIO.cpp **** 	char *fileData = new char[(unsigned int)length];
 5493              		.loc 4 218 2 discriminator 17
 5494 297a 488D85C0 		leaq	-832(%rbp), %rax
 5494      FCFFFF
 5495 2981 488D1500 		leaq	.LC46(%rip), %rdx
 5495      000000
 5496 2988 4889C6   		movq	%rax, %rsi
 5497 298b 4889DF   		movq	%rbx, %rdi
 5498 298e E8000000 		call	_ZN8UnitTest11TestResults13OnTestFailureERKNS_11TestDetailsEPKc@PLT
 5498      00
 5499              	.LEHE210:
 5500              	.LEHB211:
 218:testHexIO.cpp **** 	char *fileData = new char[(unsigned int)length];
 5501              		.loc 4 218 2 discriminator 19
 5502 2993 E8000000 		call	__cxa_end_catch@PLT
 5502      00
 5503              	.LEHE211:
 218:testHexIO.cpp **** 	char *fileData = new char[(unsigned int)length];
 5504              		.loc 4 218 2
 5505 2998 E9BAF9FF 		jmp	.L243
 5505      FF
 5506              	.L283:
 5507 299d F30F1EFA 		endbr64
 5508 29a1 4889C3   		movq	%rax, %rbx
 5509 29a4 E8000000 		call	__cxa_end_catch@PLT
 5509      00
 5510 29a9 E9390300 		jmp	.L241
 5510      00
 5511              	.L284:
 5512 29ae F30F1EFA 		endbr64
 223:testHexIO.cpp **** 
 5513              		.loc 4 223 2 is_stmt 1
 5514 29b2 4889C7   		movq	%rax, %rdi
 5515 29b5 E8000000 		call	__cxa_begin_catch@PLT
 5515      00
 5516              	.LEHB212:
 5517 29ba E8000000 		call	_ZN8UnitTest11CurrentTest7ResultsEv@PLT
 5517      00
 223:testHexIO.cpp **** 
 5518              		.loc 4 223 2 is_stmt 0 discriminator 3
 5519 29bf 488B18   		movq	(%rax), %rbx
 5520 29c2 E8000000 		call	_ZN8UnitTest11CurrentTest7DetailsEv@PLT
 5520      00
 223:testHexIO.cpp **** 
 5521              		.loc 4 223 2 discriminator 13
 5522 29c7 488B08   		movq	(%rax), %rcx
 5523 29ca 488D85C0 		leaq	-832(%rbp), %rax
 5523      FCFFFF
 5524 29d1 BADF0000 		movl	$223, %edx
 5524      00
 5525 29d6 4889CE   		movq	%rcx, %rsi
 5526 29d9 4889C7   		movq	%rax, %rdi
 5527 29dc E8000000 		call	_ZN8UnitTest11TestDetailsC1ERKS0_i@PLT
 5527      00
 223:testHexIO.cpp **** 
 5528              		.loc 4 223 2 discriminator 17
 5529 29e1 488D85C0 		leaq	-832(%rbp), %rax
 5529      FCFFFF
 5530 29e8 488D1500 		leaq	.LC47(%rip), %rdx
 5530      000000
 5531 29ef 4889C6   		movq	%rax, %rsi
 5532 29f2 4889DF   		movq	%rbx, %rdi
 5533 29f5 E8000000 		call	_ZN8UnitTest11TestResults13OnTestFailureERKNS_11TestDetailsEPKc@PLT
 5533      00
 5534              	.LEHE212:
 5535              	.LEHB213:
 223:testHexIO.cpp **** 
 5536              		.loc 4 223 2 discriminator 19
 5537 29fa E8000000 		call	__cxa_end_catch@PLT
 5537      00
 5538              	.LEHE213:
 223:testHexIO.cpp **** 
 5539              		.loc 4 223 2
 5540 29ff E929FAFF 		jmp	.L246
 5540      FF
 5541              	.L285:
 5542 2a04 F30F1EFA 		endbr64
 5543 2a08 4889C3   		movq	%rax, %rbx
 5544 2a0b E8000000 		call	__cxa_end_catch@PLT
 5544      00
 5545 2a10 E9D20200 		jmp	.L241
 5545      00
 5546              	.L286:
 5547 2a15 F30F1EFA 		endbr64
 226:testHexIO.cpp **** 	status = bufInitialise(&readbackMask, 1024, 0x00, NULL);
 5548              		.loc 4 226 2 is_stmt 1
 5549 2a19 4889C7   		movq	%rax, %rdi
 5550 2a1c E8000000 		call	__cxa_begin_catch@PLT
 5550      00
 5551              	.LEHB214:
 5552 2a21 E8000000 		call	_ZN8UnitTest11CurrentTest7ResultsEv@PLT
 5552      00
 226:testHexIO.cpp **** 	status = bufInitialise(&readbackMask, 1024, 0x00, NULL);
 5553              		.loc 4 226 2 is_stmt 0 discriminator 3
 5554 2a26 488B18   		movq	(%rax), %rbx
 5555 2a29 E8000000 		call	_ZN8UnitTest11CurrentTest7DetailsEv@PLT
 5555      00
 226:testHexIO.cpp **** 	status = bufInitialise(&readbackMask, 1024, 0x00, NULL);
 5556              		.loc 4 226 2 discriminator 11
 5557 2a2e 488B08   		movq	(%rax), %rcx
 5558 2a31 488D85C0 		leaq	-832(%rbp), %rax
 5558      FCFFFF
 5559 2a38 BAE20000 		movl	$226, %edx
 5559      00
 5560 2a3d 4889CE   		movq	%rcx, %rsi
 5561 2a40 4889C7   		movq	%rax, %rdi
 5562 2a43 E8000000 		call	_ZN8UnitTest11TestDetailsC1ERKS0_i@PLT
 5562      00
 226:testHexIO.cpp **** 	status = bufInitialise(&readbackMask, 1024, 0x00, NULL);
 5563              		.loc 4 226 2 discriminator 15
 5564 2a48 488D85C0 		leaq	-832(%rbp), %rax
 5564      FCFFFF
 5565 2a4f 488D1500 		leaq	.LC4(%rip), %rdx
 5565      000000
 5566 2a56 4889C6   		movq	%rax, %rsi
 5567 2a59 4889DF   		movq	%rbx, %rdi
 5568 2a5c E8000000 		call	_ZN8UnitTest11TestResults13OnTestFailureERKNS_11TestDetailsEPKc@PLT
 5568      00
 5569              	.LEHE214:
 5570              	.LEHB215:
 226:testHexIO.cpp **** 	status = bufInitialise(&readbackMask, 1024, 0x00, NULL);
 5571              		.loc 4 226 2 discriminator 17
 5572 2a61 E8000000 		call	__cxa_end_catch@PLT
 5572      00
 5573              	.LEHE215:
 226:testHexIO.cpp **** 	status = bufInitialise(&readbackMask, 1024, 0x00, NULL);
 5574              		.loc 4 226 2
 5575 2a66 E934FAFF 		jmp	.L249
 5575      FF
 5576              	.L287:
 5577 2a6b F30F1EFA 		endbr64
 5578 2a6f 4889C3   		movq	%rax, %rbx
 5579 2a72 E8000000 		call	__cxa_end_catch@PLT
 5579      00
 5580 2a77 E96B0200 		jmp	.L241
 5580      00
 5581              	.L288:
 5582 2a7c F30F1EFA 		endbr64
 228:testHexIO.cpp **** 	status = bufReadFromIntelHexFile(&readbackData, &readbackMask, FILENAME, NULL);
 5583              		.loc 4 228 2 is_stmt 1
 5584 2a80 4889C7   		movq	%rax, %rdi
 5585 2a83 E8000000 		call	__cxa_begin_catch@PLT
 5585      00
 5586              	.LEHB216:
 5587 2a88 E8000000 		call	_ZN8UnitTest11CurrentTest7ResultsEv@PLT
 5587      00
 228:testHexIO.cpp **** 	status = bufReadFromIntelHexFile(&readbackData, &readbackMask, FILENAME, NULL);
 5588              		.loc 4 228 2 is_stmt 0 discriminator 3
 5589 2a8d 488B18   		movq	(%rax), %rbx
 5590 2a90 E8000000 		call	_ZN8UnitTest11CurrentTest7DetailsEv@PLT
 5590      00
 228:testHexIO.cpp **** 	status = bufReadFromIntelHexFile(&readbackData, &readbackMask, FILENAME, NULL);
 5591              		.loc 4 228 2 discriminator 11
 5592 2a95 488B08   		movq	(%rax), %rcx
 5593 2a98 488D85C0 		leaq	-832(%rbp), %rax
 5593      FCFFFF
 5594 2a9f BAE40000 		movl	$228, %edx
 5594      00
 5595 2aa4 4889CE   		movq	%rcx, %rsi
 5596 2aa7 4889C7   		movq	%rax, %rdi
 5597 2aaa E8000000 		call	_ZN8UnitTest11TestDetailsC1ERKS0_i@PLT
 5597      00
 228:testHexIO.cpp **** 	status = bufReadFromIntelHexFile(&readbackData, &readbackMask, FILENAME, NULL);
 5598              		.loc 4 228 2 discriminator 15
 5599 2aaf 488D85C0 		leaq	-832(%rbp), %rax
 5599      FCFFFF
 5600 2ab6 488D1500 		leaq	.LC4(%rip), %rdx
 5600      000000
 5601 2abd 4889C6   		movq	%rax, %rsi
 5602 2ac0 4889DF   		movq	%rbx, %rdi
 5603 2ac3 E8000000 		call	_ZN8UnitTest11TestResults13OnTestFailureERKNS_11TestDetailsEPKc@PLT
 5603      00
 5604              	.LEHE216:
 5605              	.LEHB217:
 228:testHexIO.cpp **** 	status = bufReadFromIntelHexFile(&readbackData, &readbackMask, FILENAME, NULL);
 5606              		.loc 4 228 2 discriminator 17
 5607 2ac8 E8000000 		call	__cxa_end_catch@PLT
 5607      00
 5608              	.LEHE217:
 228:testHexIO.cpp **** 	status = bufReadFromIntelHexFile(&readbackData, &readbackMask, FILENAME, NULL);
 5609              		.loc 4 228 2
 5610 2acd E93FFAFF 		jmp	.L252
 5610      FF
 5611              	.L289:
 5612 2ad2 F30F1EFA 		endbr64
 5613 2ad6 4889C3   		movq	%rax, %rbx
 5614 2ad9 E8000000 		call	__cxa_end_catch@PLT
 5614      00
 5615 2ade E9040200 		jmp	.L241
 5615      00
 5616              	.L290:
 5617 2ae3 F30F1EFA 		endbr64
 230:testHexIO.cpp **** 	CHECK_EQUAL(data.length, readbackData.length);
 5618              		.loc 4 230 2 is_stmt 1
 5619 2ae7 4889C7   		movq	%rax, %rdi
 5620 2aea E8000000 		call	__cxa_begin_catch@PLT
 5620      00
 5621              	.LEHB218:
 5622 2aef E8000000 		call	_ZN8UnitTest11CurrentTest7ResultsEv@PLT
 5622      00
 230:testHexIO.cpp **** 	CHECK_EQUAL(data.length, readbackData.length);
 5623              		.loc 4 230 2 is_stmt 0 discriminator 3
 5624 2af4 488B18   		movq	(%rax), %rbx
 5625 2af7 E8000000 		call	_ZN8UnitTest11CurrentTest7DetailsEv@PLT
 5625      00
 230:testHexIO.cpp **** 	CHECK_EQUAL(data.length, readbackData.length);
 5626              		.loc 4 230 2 discriminator 11
 5627 2afc 488B08   		movq	(%rax), %rcx
 5628 2aff 488D85C0 		leaq	-832(%rbp), %rax
 5628      FCFFFF
 5629 2b06 BAE60000 		movl	$230, %edx
 5629      00
 5630 2b0b 4889CE   		movq	%rcx, %rsi
 5631 2b0e 4889C7   		movq	%rax, %rdi
 5632 2b11 E8000000 		call	_ZN8UnitTest11TestDetailsC1ERKS0_i@PLT
 5632      00
 230:testHexIO.cpp **** 	CHECK_EQUAL(data.length, readbackData.length);
 5633              		.loc 4 230 2 discriminator 15
 5634 2b16 488D85C0 		leaq	-832(%rbp), %rax
 5634      FCFFFF
 5635 2b1d 488D1500 		leaq	.LC4(%rip), %rdx
 5635      000000
 5636 2b24 4889C6   		movq	%rax, %rsi
 5637 2b27 4889DF   		movq	%rbx, %rdi
 5638 2b2a E8000000 		call	_ZN8UnitTest11TestResults13OnTestFailureERKNS_11TestDetailsEPKc@PLT
 5638      00
 5639              	.LEHE218:
 5640              	.LEHB219:
 230:testHexIO.cpp **** 	CHECK_EQUAL(data.length, readbackData.length);
 5641              		.loc 4 230 2 discriminator 17
 5642 2b2f E8000000 		call	__cxa_end_catch@PLT
 5642      00
 5643              	.LEHE219:
 230:testHexIO.cpp **** 	CHECK_EQUAL(data.length, readbackData.length);
 5644              		.loc 4 230 2
 5645 2b34 E94EFAFF 		jmp	.L255
 5645      FF
 5646              	.L291:
 5647 2b39 F30F1EFA 		endbr64
 5648 2b3d 4889C3   		movq	%rax, %rbx
 5649 2b40 E8000000 		call	__cxa_end_catch@PLT
 5649      00
 5650 2b45 E99D0100 		jmp	.L241
 5650      00
 5651              	.L292:
 5652 2b4a F30F1EFA 		endbr64
 231:testHexIO.cpp **** 	CHECK_ARRAY_EQUAL(data.data, readbackData.data, (int)data.length);
 5653              		.loc 4 231 2 is_stmt 1
 5654 2b4e 4889C7   		movq	%rax, %rdi
 5655 2b51 E8000000 		call	__cxa_begin_catch@PLT
 5655      00
 5656              	.LEHB220:
 5657 2b56 E8000000 		call	_ZN8UnitTest11CurrentTest7ResultsEv@PLT
 5657      00
 231:testHexIO.cpp **** 	CHECK_ARRAY_EQUAL(data.data, readbackData.data, (int)data.length);
 5658              		.loc 4 231 2 is_stmt 0 discriminator 3
 5659 2b5b 488B18   		movq	(%rax), %rbx
 5660 2b5e E8000000 		call	_ZN8UnitTest11CurrentTest7DetailsEv@PLT
 5660      00
 231:testHexIO.cpp **** 	CHECK_ARRAY_EQUAL(data.data, readbackData.data, (int)data.length);
 5661              		.loc 4 231 2 discriminator 11
 5662 2b63 488B08   		movq	(%rax), %rcx
 5663 2b66 488D85C0 		leaq	-832(%rbp), %rax
 5663      FCFFFF
 5664 2b6d BAE70000 		movl	$231, %edx
 5664      00
 5665 2b72 4889CE   		movq	%rcx, %rsi
 5666 2b75 4889C7   		movq	%rax, %rdi
 5667 2b78 E8000000 		call	_ZN8UnitTest11TestDetailsC1ERKS0_i@PLT
 5667      00
 231:testHexIO.cpp **** 	CHECK_ARRAY_EQUAL(data.data, readbackData.data, (int)data.length);
 5668              		.loc 4 231 2 discriminator 15
 5669 2b7d 488D85C0 		leaq	-832(%rbp), %rax
 5669      FCFFFF
 5670 2b84 488D1500 		leaq	.LC48(%rip), %rdx
 5670      000000
 5671 2b8b 4889C6   		movq	%rax, %rsi
 5672 2b8e 4889DF   		movq	%rbx, %rdi
 5673 2b91 E8000000 		call	_ZN8UnitTest11TestResults13OnTestFailureERKNS_11TestDetailsEPKc@PLT
 5673      00
 5674              	.LEHE220:
 5675              	.LEHB221:
 231:testHexIO.cpp **** 	CHECK_ARRAY_EQUAL(data.data, readbackData.data, (int)data.length);
 5676              		.loc 4 231 2 discriminator 17
 5677 2b96 E8000000 		call	__cxa_end_catch@PLT
 5677      00
 5678              	.LEHE221:
 231:testHexIO.cpp **** 	CHECK_ARRAY_EQUAL(data.data, readbackData.data, (int)data.length);
 5679              		.loc 4 231 2
 5680 2b9b E939FAFF 		jmp	.L258
 5680      FF
 5681              	.L293:
 5682 2ba0 F30F1EFA 		endbr64
 5683 2ba4 4889C3   		movq	%rax, %rbx
 5684 2ba7 E8000000 		call	__cxa_end_catch@PLT
 5684      00
 5685 2bac E9360100 		jmp	.L241
 5685      00
 5686              	.L294:
 5687 2bb1 F30F1EFA 		endbr64
 232:testHexIO.cpp **** 	CHECK_EQUAL(mask.length, readbackMask.length);
 5688              		.loc 4 232 2 is_stmt 1
 5689 2bb5 4889C7   		movq	%rax, %rdi
 5690 2bb8 E8000000 		call	__cxa_begin_catch@PLT
 5690      00
 5691              	.LEHB222:
 5692 2bbd E8000000 		call	_ZN8UnitTest11CurrentTest7ResultsEv@PLT
 5692      00
 232:testHexIO.cpp **** 	CHECK_EQUAL(mask.length, readbackMask.length);
 5693              		.loc 4 232 2 is_stmt 0 discriminator 3
 5694 2bc2 488B18   		movq	(%rax), %rbx
 5695 2bc5 E8000000 		call	_ZN8UnitTest11CurrentTest7DetailsEv@PLT
 5695      00
 232:testHexIO.cpp **** 	CHECK_EQUAL(mask.length, readbackMask.length);
 5696              		.loc 4 232 2 discriminator 11
 5697 2bca 488B08   		movq	(%rax), %rcx
 5698 2bcd 488D85C0 		leaq	-832(%rbp), %rax
 5698      FCFFFF
 5699 2bd4 BAE80000 		movl	$232, %edx
 5699      00
 5700 2bd9 4889CE   		movq	%rcx, %rsi
 5701 2bdc 4889C7   		movq	%rax, %rdi
 5702 2bdf E8000000 		call	_ZN8UnitTest11TestDetailsC1ERKS0_i@PLT
 5702      00
 232:testHexIO.cpp **** 	CHECK_EQUAL(mask.length, readbackMask.length);
 5703              		.loc 4 232 2 discriminator 15
 5704 2be4 488D85C0 		leaq	-832(%rbp), %rax
 5704      FCFFFF
 5705 2beb 488D1500 		leaq	.LC49(%rip), %rdx
 5705      000000
 5706 2bf2 4889C6   		movq	%rax, %rsi
 5707 2bf5 4889DF   		movq	%rbx, %rdi
 5708 2bf8 E8000000 		call	_ZN8UnitTest11TestResults13OnTestFailureERKNS_11TestDetailsEPKc@PLT
 5708      00
 5709              	.LEHE222:
 5710              	.LEHB223:
 232:testHexIO.cpp **** 	CHECK_EQUAL(mask.length, readbackMask.length);
 5711              		.loc 4 232 2 discriminator 17
 5712 2bfd E8000000 		call	__cxa_end_catch@PLT
 5712      00
 5713              	.LEHE223:
 232:testHexIO.cpp **** 	CHECK_EQUAL(mask.length, readbackMask.length);
 5714              		.loc 4 232 2
 5715 2c02 E924FAFF 		jmp	.L261
 5715      FF
 5716              	.L295:
 5717 2c07 F30F1EFA 		endbr64
 5718 2c0b 4889C3   		movq	%rax, %rbx
 5719 2c0e E8000000 		call	__cxa_end_catch@PLT
 5719      00
 5720 2c13 E9CF0000 		jmp	.L241
 5720      00
 5721              	.L296:
 5722 2c18 F30F1EFA 		endbr64
 233:testHexIO.cpp **** 	CHECK_ARRAY_EQUAL(mask.data, readbackMask.data, (int)mask.length);
 5723              		.loc 4 233 2 is_stmt 1
 5724 2c1c 4889C7   		movq	%rax, %rdi
 5725 2c1f E8000000 		call	__cxa_begin_catch@PLT
 5725      00
 5726              	.LEHB224:
 5727 2c24 E8000000 		call	_ZN8UnitTest11CurrentTest7ResultsEv@PLT
 5727      00
 233:testHexIO.cpp **** 	CHECK_ARRAY_EQUAL(mask.data, readbackMask.data, (int)mask.length);
 5728              		.loc 4 233 2 is_stmt 0 discriminator 3
 5729 2c29 488B18   		movq	(%rax), %rbx
 5730 2c2c E8000000 		call	_ZN8UnitTest11CurrentTest7DetailsEv@PLT
 5730      00
 233:testHexIO.cpp **** 	CHECK_ARRAY_EQUAL(mask.data, readbackMask.data, (int)mask.length);
 5731              		.loc 4 233 2 discriminator 11
 5732 2c31 488B08   		movq	(%rax), %rcx
 5733 2c34 488D85C0 		leaq	-832(%rbp), %rax
 5733      FCFFFF
 5734 2c3b BAE90000 		movl	$233, %edx
 5734      00
 5735 2c40 4889CE   		movq	%rcx, %rsi
 5736 2c43 4889C7   		movq	%rax, %rdi
 5737 2c46 E8000000 		call	_ZN8UnitTest11TestDetailsC1ERKS0_i@PLT
 5737      00
 233:testHexIO.cpp **** 	CHECK_ARRAY_EQUAL(mask.data, readbackMask.data, (int)mask.length);
 5738              		.loc 4 233 2 discriminator 15
 5739 2c4b 488D85C0 		leaq	-832(%rbp), %rax
 5739      FCFFFF
 5740 2c52 488D1500 		leaq	.LC50(%rip), %rdx
 5740      000000
 5741 2c59 4889C6   		movq	%rax, %rsi
 5742 2c5c 4889DF   		movq	%rbx, %rdi
 5743 2c5f E8000000 		call	_ZN8UnitTest11TestResults13OnTestFailureERKNS_11TestDetailsEPKc@PLT
 5743      00
 5744              	.LEHE224:
 5745              	.LEHB225:
 233:testHexIO.cpp **** 	CHECK_ARRAY_EQUAL(mask.data, readbackMask.data, (int)mask.length);
 5746              		.loc 4 233 2 discriminator 17
 5747 2c64 E8000000 		call	__cxa_end_catch@PLT
 5747      00
 5748              	.LEHE225:
 233:testHexIO.cpp **** 	CHECK_ARRAY_EQUAL(mask.data, readbackMask.data, (int)mask.length);
 5749              		.loc 4 233 2
 5750 2c69 E90FFAFF 		jmp	.L264
 5750      FF
 5751              	.L297:
 5752 2c6e F30F1EFA 		endbr64
 5753 2c72 4889C3   		movq	%rax, %rbx
 5754 2c75 E8000000 		call	__cxa_end_catch@PLT
 5754      00
 5755 2c7a EB6B     		jmp	.L241
 5756              	.L298:
 5757 2c7c F30F1EFA 		endbr64
 234:testHexIO.cpp **** 	
 5758              		.loc 4 234 2 is_stmt 1
 5759 2c80 4889C7   		movq	%rax, %rdi
 5760 2c83 E8000000 		call	__cxa_begin_catch@PLT
 5760      00
 5761              	.LEHB226:
 5762 2c88 E8000000 		call	_ZN8UnitTest11CurrentTest7ResultsEv@PLT
 5762      00
 234:testHexIO.cpp **** 	
 5763              		.loc 4 234 2 is_stmt 0 discriminator 3
 5764 2c8d 488B18   		movq	(%rax), %rbx
 5765 2c90 E8000000 		call	_ZN8UnitTest11CurrentTest7DetailsEv@PLT
 5765      00
 234:testHexIO.cpp **** 	
 5766              		.loc 4 234 2 discriminator 11
 5767 2c95 488B08   		movq	(%rax), %rcx
 5768 2c98 488D85C0 		leaq	-832(%rbp), %rax
 5768      FCFFFF
 5769 2c9f BAEA0000 		movl	$234, %edx
 5769      00
 5770 2ca4 4889CE   		movq	%rcx, %rsi
 5771 2ca7 4889C7   		movq	%rax, %rdi
 5772 2caa E8000000 		call	_ZN8UnitTest11TestDetailsC1ERKS0_i@PLT
 5772      00
 234:testHexIO.cpp **** 	
 5773              		.loc 4 234 2 discriminator 15
 5774 2caf 488D85C0 		leaq	-832(%rbp), %rax
 5774      FCFFFF
 5775 2cb6 488D1500 		leaq	.LC51(%rip), %rdx
 5775      000000
 5776 2cbd 4889C6   		movq	%rax, %rsi
 5777 2cc0 4889DF   		movq	%rbx, %rdi
 5778 2cc3 E8000000 		call	_ZN8UnitTest11TestResults13OnTestFailureERKNS_11TestDetailsEPKc@PLT
 5778      00
 5779              	.LEHE226:
 5780              	.LEHB227:
 234:testHexIO.cpp **** 	
 5781              		.loc 4 234 2 discriminator 17
 5782 2cc8 E8000000 		call	__cxa_end_catch@PLT
 5782      00
 5783              	.LEHE227:
 234:testHexIO.cpp **** 	
 5784              		.loc 4 234 2
 5785 2ccd E9FDF9FF 		jmp	.L267
 5785      FF
 5786              	.L299:
 5787 2cd2 F30F1EFA 		endbr64
 5788 2cd6 4889C3   		movq	%rax, %rbx
 5789 2cd9 E8000000 		call	__cxa_end_catch@PLT
 5789      00
 5790 2cde EB07     		jmp	.L241
 5791              	.L279:
 5792 2ce0 F30F1EFA 		endbr64
 5793              		.loc 4 240 1 is_stmt 1
 5794 2ce4 4889C3   		movq	%rax, %rbx
 5795              	.L241:
 5796 2ce7 488D8530 		leaq	-720(%rbp), %rax
 5796      FDFFFF
 5797 2cee 4889C7   		movq	%rax, %rdi
 5798 2cf1 E8000000 		call	_ZNSt14basic_ifstreamIcSt11char_traitsIcEED1Ev@PLT
 5798      00
 5799 2cf6 EB07     		jmp	.L229
 5800              	.L270:
 5801 2cf8 F30F1EFA 		endbr64
 5802 2cfc 4889C3   		movq	%rax, %rbx
 5803              	.L229:
 5804              		.loc 4 240 1 is_stmt 0 discriminator 1
 5805 2cff 488D8510 		leaq	-752(%rbp), %rax
 5805      FDFFFF
 5806 2d06 4889C7   		movq	%rax, %rdi
 5807 2d09 E8000000 		call	_ZNSt7__cxx1112basic_stringIcSt11char_traitsIcESaIcEED1Ev@PLT
 5807      00
 5808 2d0e 4889D8   		movq	%rbx, %rax
 5809 2d11 4889C7   		movq	%rax, %rdi
 5810              	.LEHB228:
 5811 2d14 E8000000 		call	_Unwind_Resume@PLT
 5811      00
 5812              	.LEHE228:
 5813              	.L300:
 5814              		.loc 4 240 1
 5815 2d19 E8000000 		call	__stack_chk_fail@PLT
 5815      00
 5816              	.L269:
 5817 2d1e 488B5DF8 		movq	-8(%rbp), %rbx
 5818 2d22 C9       		leave
 5819              		.cfi_def_cfa 7, 8
 5820 2d23 C3       		ret
 5821              		.cfi_endproc
 5822              	.LFE1253:
 5823              		.section	.gcc_except_table
 5824              		.align 4
 5825              	.LLSDA1253:
 5826 03f0 FF       		.byte	0xff
 5827 03f1 9B       		.byte	0x9b
 5828 03f2 E402     		.uleb128 .LLSDATT1253-.LLSDATTD1253
 5829              	.LLSDATTD1253:
 5830 03f4 01       		.byte	0x1
 5831 03f5 DA02     		.uleb128 .LLSDACSE1253-.LLSDACSB1253
 5832              	.LLSDACSB1253:
 5833 03f7 8B01     		.uleb128 .LEHB171-.LFB1253
 5834 03f9 05       		.uleb128 .LEHE171-.LEHB171
 5835 03fa 00       		.uleb128 0
 5836 03fb 00       		.uleb128 0
 5837 03fc B301     		.uleb128 .LEHB172-.LFB1253
 5838 03fe 05       		.uleb128 .LEHE172-.LEHB172
 5839 03ff C11C     		.uleb128 .L270-.LFB1253
 5840 0401 00       		.uleb128 0
 5841 0402 BE01     		.uleb128 .LEHB173-.LFB1253
 5842 0404 4E       		.uleb128 .LEHE173-.LEHB173
 5843 0405 8D11     		.uleb128 .L271-.LFB1253
 5844 0407 01       		.uleb128 0x1
 5845 0408 A502     		.uleb128 .LEHB174-.LFB1253
 5846 040a 05       		.uleb128 .LEHE174-.LEHB174
 5847 040b C11C     		.uleb128 .L270-.LFB1253
 5848 040d 00       		.uleb128 0
 5849 040e B002     		.uleb128 .LEHB175-.LFB1253
 5850 0410 4E       		.uleb128 .LEHE175-.LEHB175
 5851 0411 F411     		.uleb128 .L273-.LFB1253
 5852 0413 01       		.uleb128 0x1
 5853 0414 F003     		.uleb128 .LEHB176-.LFB1253
 5854 0416 05       		.uleb128 .LEHE176-.LEHB176
 5855 0417 C11C     		.uleb128 .L270-.LFB1253
 5856 0419 00       		.uleb128 0
 5857 041a FF03     		.uleb128 .LEHB177-.LFB1253
 5858 041c 4E       		.uleb128 .LEHE177-.LEHB177
 5859 041d DB12     		.uleb128 .L275-.LFB1253
 5860 041f 01       		.uleb128 0x1
 5861 0420 E104     		.uleb128 .LEHB178-.LFB1253
 5862 0422 B801     		.uleb128 .LEHE178-.LEHB178
 5863 0424 C11C     		.uleb128 .L270-.LFB1253
 5864 0426 00       		.uleb128 0
 5865 0427 9F06     		.uleb128 .LEHB179-.LFB1253
 5866 0429 4E       		.uleb128 .LEHE179-.LEHB179
 5867 042a C213     		.uleb128 .L277-.LFB1253
 5868 042c 01       		.uleb128 0x1
 5869 042d F706     		.uleb128 .LEHB180-.LFB1253
 5870 042f 05       		.uleb128 .LEHE180-.LEHB180
 5871 0430 C11C     		.uleb128 .L270-.LFB1253
 5872 0432 00       		.uleb128 0
 5873 0433 A107     		.uleb128 .LEHB181-.LFB1253
 5874 0435 05       		.uleb128 .LEHE181-.LEHB181
 5875 0436 A91C     		.uleb128 .L279-.LFB1253
 5876 0438 00       		.uleb128 0
 5877 0439 B007     		.uleb128 .LEHB182-.LFB1253
 5878 043b 56       		.uleb128 .LEHE182-.LEHB182
 5879 043c A914     		.uleb128 .L280-.LFB1253
 5880 043e 01       		.uleb128 0x1
 5881 043f 9008     		.uleb128 .LEHB183-.LFB1253
 5882 0441 05       		.uleb128 .LEHE183-.LEHB183
 5883 0442 A91C     		.uleb128 .L279-.LFB1253
 5884 0444 00       		.uleb128 0
 5885 0445 B908     		.uleb128 .LEHB184-.LFB1253
 5886 0447 67       		.uleb128 .LEHE184-.LEHB184
 5887 0448 9015     		.uleb128 .L282-.LFB1253
 5888 044a 01       		.uleb128 0x1
 5889 044b AC09     		.uleb128 .LEHB185-.LFB1253
 5890 044d 54       		.uleb128 .LEHE185-.LEHB185
 5891 044e A91C     		.uleb128 .L279-.LFB1253
 5892 0450 00       		.uleb128 0
 5893 0451 800A     		.uleb128 .LEHB186-.LFB1253
 5894 0453 76       		.uleb128 .LEHE186-.LEHB186
 5895 0454 F715     		.uleb128 .L284-.LFB1253
 5896 0456 01       		.uleb128 0x1
 5897 0457 8F0B     		.uleb128 .LEHB187-.LFB1253
 5898 0459 05       		.uleb128 .LEHE187-.LEHB187
 5899 045a A91C     		.uleb128 .L279-.LFB1253
 5900 045c 00       		.uleb128 0
 5901 045d 9A0B     		.uleb128 .LEHB188-.LFB1253
 5902 045f 4E       		.uleb128 .LEHE188-.LEHB188
 5903 0460 DE16     		.uleb128 .L286-.LFB1253
 5904 0462 01       		.uleb128 0x1
 5905 0463 810C     		.uleb128 .LEHB189-.LFB1253
 5906 0465 05       		.uleb128 .LEHE189-.LEHB189
 5907 0466 A91C     		.uleb128 .L279-.LFB1253
 5908 0468 00       		.uleb128 0
 5909 0469 8C0C     		.uleb128 .LEHB190-.LFB1253
 5910 046b 4E       		.uleb128 .LEHE190-.LEHB190
 5911 046c C517     		.uleb128 .L288-.LFB1253
 5912 046e 01       		.uleb128 0x1
 5913 046f F70C     		.uleb128 .LEHB191-.LFB1253
 5914 0471 05       		.uleb128 .LEHE191-.LEHB191
 5915 0472 A91C     		.uleb128 .L279-.LFB1253
 5916 0474 00       		.uleb128 0
 5917 0475 820D     		.uleb128 .LEHB192-.LFB1253
 5918 0477 4E       		.uleb128 .LEHE192-.LEHB192
 5919 0478 AC18     		.uleb128 .L290-.LFB1253
 5920 047a 01       		.uleb128 0x1
 5921 047b D00D     		.uleb128 .LEHB193-.LFB1253
 5922 047d 52       		.uleb128 .LEHE193-.LEHB193
 5923 047e 9319     		.uleb128 .L292-.LFB1253
 5924 0480 01       		.uleb128 0x1
 5925 0481 A20E     		.uleb128 .LEHB194-.LFB1253
 5926 0483 52       		.uleb128 .LEHE194-.LEHB194
 5927 0484 FA19     		.uleb128 .L294-.LFB1253
 5928 0486 01       		.uleb128 0x1
 5929 0487 F40E     		.uleb128 .LEHB195-.LFB1253
 5930 0489 52       		.uleb128 .LEHE195-.LEHB195
 5931 048a E11A     		.uleb128 .L296-.LFB1253
 5932 048c 01       		.uleb128 0x1
 5933 048d C60F     		.uleb128 .LEHB196-.LFB1253
 5934 048f 52       		.uleb128 .LEHE196-.LEHB196
 5935 0490 C51B     		.uleb128 .L298-.LFB1253
 5936 0492 01       		.uleb128 0x1
 5937 0493 A210     		.uleb128 .LEHB197-.LFB1253
 5938 0495 32       		.uleb128 .LEHE197-.LEHB197
 5939 0496 A91C     		.uleb128 .L279-.LFB1253
 5940 0498 00       		.uleb128 0
 5941 0499 DE10     		.uleb128 .LEHB198-.LFB1253
 5942 049b 05       		.uleb128 .LEHE198-.LEHB198
 5943 049c C11C     		.uleb128 .L270-.LFB1253
 5944 049e 00       		.uleb128 0
 5945 049f ED10     		.uleb128 .LEHB199-.LFB1253
 5946 04a1 05       		.uleb128 .LEHE199-.LEHB199
 5947 04a2 00       		.uleb128 0
 5948 04a3 00       		.uleb128 0
 5949 04a4 9911     		.uleb128 .LEHB200-.LFB1253
 5950 04a6 40       		.uleb128 .LEHE200-.LEHB200
 5951 04a7 E311     		.uleb128 .L272-.LFB1253
 5952 04a9 00       		.uleb128 0
 5953 04aa D911     		.uleb128 .LEHB201-.LFB1253
 5954 04ac 05       		.uleb128 .LEHE201-.LEHB201
 5955 04ad C11C     		.uleb128 .L270-.LFB1253
 5956 04af 00       		.uleb128 0
 5957 04b0 8012     		.uleb128 .LEHB202-.LFB1253
 5958 04b2 40       		.uleb128 .LEHE202-.LEHB202
 5959 04b3 CA12     		.uleb128 .L274-.LFB1253
 5960 04b5 00       		.uleb128 0
 5961 04b6 C012     		.uleb128 .LEHB203-.LFB1253
 5962 04b8 05       		.uleb128 .LEHE203-.LEHB203
 5963 04b9 C11C     		.uleb128 .L270-.LFB1253
 5964 04bb 00       		.uleb128 0
 5965 04bc E712     		.uleb128 .LEHB204-.LFB1253
 5966 04be 40       		.uleb128 .LEHE204-.LEHB204
 5967 04bf B113     		.uleb128 .L276-.LFB1253
 5968 04c1 00       		.uleb128 0
 5969 04c2 A713     		.uleb128 .LEHB205-.LFB1253
 5970 04c4 05       		.uleb128 .LEHE205-.LEHB205
 5971 04c5 C11C     		.uleb128 .L270-.LFB1253
 5972 04c7 00       		.uleb128 0
 5973 04c8 CE13     		.uleb128 .LEHB206-.LFB1253
 5974 04ca 40       		.uleb128 .LEHE206-.LEHB206
 5975 04cb 9814     		.uleb128 .L278-.LFB1253
 5976 04cd 00       		.uleb128 0
 5977 04ce 8E14     		.uleb128 .LEHB207-.LFB1253
 5978 04d0 05       		.uleb128 .LEHE207-.LEHB207
 5979 04d1 C11C     		.uleb128 .L270-.LFB1253
 5980 04d3 00       		.uleb128 0
 5981 04d4 B514     		.uleb128 .LEHB208-.LFB1253
 5982 04d6 40       		.uleb128 .LEHE208-.LEHB208
 5983 04d7 FF14     		.uleb128 .L281-.LFB1253
 5984 04d9 00       		.uleb128 0
 5985 04da F514     		.uleb128 .LEHB209-.LFB1253
 5986 04dc 05       		.uleb128 .LEHE209-.LEHB209
 5987 04dd A91C     		.uleb128 .L279-.LFB1253
 5988 04df 00       		.uleb128 0
 5989 04e0 9C15     		.uleb128 .LEHB210-.LFB1253
 5990 04e2 40       		.uleb128 .LEHE210-.LEHB210
 5991 04e3 E615     		.uleb128 .L283-.LFB1253
 5992 04e5 00       		.uleb128 0
 5993 04e6 DC15     		.uleb128 .LEHB211-.LFB1253
 5994 04e8 05       		.uleb128 .LEHE211-.LEHB211
 5995 04e9 A91C     		.uleb128 .L279-.LFB1253
 5996 04eb 00       		.uleb128 0
 5997 04ec 8316     		.uleb128 .LEHB212-.LFB1253
 5998 04ee 40       		.uleb128 .LEHE212-.LEHB212
 5999 04ef CD16     		.uleb128 .L285-.LFB1253
 6000 04f1 00       		.uleb128 0
 6001 04f2 C316     		.uleb128 .LEHB213-.LFB1253
 6002 04f4 05       		.uleb128 .LEHE213-.LEHB213
 6003 04f5 A91C     		.uleb128 .L279-.LFB1253
 6004 04f7 00       		.uleb128 0
 6005 04f8 EA16     		.uleb128 .LEHB214-.LFB1253
 6006 04fa 40       		.uleb128 .LEHE214-.LEHB214
 6007 04fb B417     		.uleb128 .L287-.LFB1253
 6008 04fd 00       		.uleb128 0
 6009 04fe AA17     		.uleb128 .LEHB215-.LFB1253
 6010 0500 05       		.uleb128 .LEHE215-.LEHB215
 6011 0501 A91C     		.uleb128 .L279-.LFB1253
 6012 0503 00       		.uleb128 0
 6013 0504 D117     		.uleb128 .LEHB216-.LFB1253
 6014 0506 40       		.uleb128 .LEHE216-.LEHB216
 6015 0507 9B18     		.uleb128 .L289-.LFB1253
 6016 0509 00       		.uleb128 0
 6017 050a 9118     		.uleb128 .LEHB217-.LFB1253
 6018 050c 05       		.uleb128 .LEHE217-.LEHB217
 6019 050d A91C     		.uleb128 .L279-.LFB1253
 6020 050f 00       		.uleb128 0
 6021 0510 B818     		.uleb128 .LEHB218-.LFB1253
 6022 0512 40       		.uleb128 .LEHE218-.LEHB218
 6023 0513 8219     		.uleb128 .L291-.LFB1253
 6024 0515 00       		.uleb128 0
 6025 0516 F818     		.uleb128 .LEHB219-.LFB1253
 6026 0518 05       		.uleb128 .LEHE219-.LEHB219
 6027 0519 A91C     		.uleb128 .L279-.LFB1253
 6028 051b 00       		.uleb128 0
 6029 051c 9F19     		.uleb128 .LEHB220-.LFB1253
 6030 051e 40       		.uleb128 .LEHE220-.LEHB220
 6031 051f E919     		.uleb128 .L293-.LFB1253
 6032 0521 00       		.uleb128 0
 6033 0522 DF19     		.uleb128 .LEHB221-.LFB1253
 6034 0524 05       		.uleb128 .LEHE221-.LEHB221
 6035 0525 A91C     		.uleb128 .L279-.LFB1253
 6036 0527 00       		.uleb128 0
 6037 0528 861A     		.uleb128 .LEHB222-.LFB1253
 6038 052a 40       		.uleb128 .LEHE222-.LEHB222
 6039 052b D01A     		.uleb128 .L295-.LFB1253
 6040 052d 00       		.uleb128 0
 6041 052e C61A     		.uleb128 .LEHB223-.LFB1253
 6042 0530 05       		.uleb128 .LEHE223-.LEHB223
 6043 0531 A91C     		.uleb128 .L279-.LFB1253
 6044 0533 00       		.uleb128 0
 6045 0534 ED1A     		.uleb128 .LEHB224-.LFB1253
 6046 0536 40       		.uleb128 .LEHE224-.LEHB224
 6047 0537 B71B     		.uleb128 .L297-.LFB1253
 6048 0539 00       		.uleb128 0
 6049 053a AD1B     		.uleb128 .LEHB225-.LFB1253
 6050 053c 05       		.uleb128 .LEHE225-.LEHB225
 6051 053d A91C     		.uleb128 .L279-.LFB1253
 6052 053f 00       		.uleb128 0
 6053 0540 D11B     		.uleb128 .LEHB226-.LFB1253
 6054 0542 40       		.uleb128 .LEHE226-.LEHB226
 6055 0543 9B1C     		.uleb128 .L299-.LFB1253
 6056 0545 00       		.uleb128 0
 6057 0546 911C     		.uleb128 .LEHB227-.LFB1253
 6058 0548 05       		.uleb128 .LEHE227-.LEHB227
 6059 0549 A91C     		.uleb128 .L279-.LFB1253
 6060 054b 00       		.uleb128 0
 6061 054c DD1C     		.uleb128 .LEHB228-.LFB1253
 6062 054e 05       		.uleb128 .LEHE228-.LEHB228
 6063 054f 00       		.uleb128 0
 6064 0550 00       		.uleb128 0
 6065              	.LLSDACSE1253:
 6066 0551 01       		.byte	0x1
 6067 0552 00       		.byte	0
 6068 0553 00       		.align 4
 6069 0554 00000000 		.long	0
 6070              	
 6071              	.LLSDATT1253:
 6072              		.text
 6074              		.section	.rodata
 6075              	.LC52:
 6076 08c7 48657849 		.string	"HexIO_testRoundTrip"
 6076      4F5F7465 
 6076      7374526F 
 6076      756E6454 
 6076      72697000 
 6077              		.section	.text._ZN23TestHexIO_testRoundTripC2Ev,"axG",@progbits,_ZN23TestHexIO_testRoundTripC5Ev,c
 6078              		.align 2
 6079              		.weak	_ZN23TestHexIO_testRoundTripC2Ev
 6081              	_ZN23TestHexIO_testRoundTripC2Ev:
 6082              	.LFB1255:
 241:testHexIO.cpp **** 
 242:testHexIO.cpp **** TEST(HexIO_testRoundTrip) {
 6083              		.loc 4 242 1 is_stmt 1
 6084              		.cfi_startproc
 6085 0000 F30F1EFA 		endbr64
 6086 0004 55       		pushq	%rbp
 6087              		.cfi_def_cfa_offset 16
 6088              		.cfi_offset 6, -16
 6089 0005 4889E5   		movq	%rsp, %rbp
 6090              		.cfi_def_cfa_register 6
 6091 0008 53       		pushq	%rbx
 6092 0009 4883EC18 		subq	$24, %rsp
 6093              		.cfi_offset 3, -24
 6094 000d 48897DE8 		movq	%rdi, -24(%rbp)
 6095              	.LBB15:
 6096              		.loc 4 242 1
 6097 0011 488B5DE8 		movq	-24(%rbp), %rbx
 6098 0015 E8000000 		call	_ZN13UnitTestSuite12GetSuiteNameEv
 6098      00
 6099 001a 4889C2   		movq	%rax, %rdx
 6100 001d 41B8F200 		movl	$242, %r8d
 6100      0000
 6101 0023 488D0500 		leaq	.LC1(%rip), %rax
 6101      000000
 6102 002a 4889C1   		movq	%rax, %rcx
 6103 002d 488D0500 		leaq	.LC52(%rip), %rax
 6103      000000
 6104 0034 4889C6   		movq	%rax, %rsi
 6105 0037 4889DF   		movq	%rbx, %rdi
 6106 003a E8000000 		call	_ZN8UnitTest4TestC2EPKcS2_S2_i@PLT
 6106      00
 6107 003f 488D1500 		leaq	16+_ZTV23TestHexIO_testRoundTrip(%rip), %rdx
 6107      000000
 6108 0046 488B45E8 		movq	-24(%rbp), %rax
 6109 004a 488910   		movq	%rdx, (%rax)
 6110              	.LBE15:
 6111 004d 90       		nop
 6112 004e 488B5DF8 		movq	-8(%rbp), %rbx
 6113 0052 C9       		leave
 6114              		.cfi_def_cfa 7, 8
 6115 0053 C3       		ret
 6116              		.cfi_endproc
 6117              	.LFE1255:
 6119              		.weak	_ZN23TestHexIO_testRoundTripC1Ev
 6120              		.set	_ZN23TestHexIO_testRoundTripC1Ev,_ZN23TestHexIO_testRoundTripC2Ev
 6121              		.globl	testHexIO_testRoundTripInstance
 6122              		.bss
 6123 02b9 00000000 		.align 32
 6123      000000
 6126              	testHexIO_testRoundTripInstance:
 6127 02c0 00000000 		.zero	56
 6127      00000000 
 6127      00000000 
 6127      00000000 
 6127      00000000 
 6128              		.globl	adderHexIO_testRoundTrip
 6131              	adderHexIO_testRoundTrip:
 6132 02f8 00       		.zero	1
 6133              		.section	.rodata
 6134              	.LC53:
 6135 08db 3A303631 		.string	":061270000895F894FFCF81"
 6135      32373030 
 6135      30303839 
 6135      35463839 
 6135      34464643 
 6136 08f3 00000000 		.align 8
 6136      00
 6137              	.LC54:
 6138 08f8 3A313031 		.string	":10126000E80083FF01C03DDC17701093E9001F9177"
 6138      32363030 
 6138      30453830 
 6138      30383346 
 6138      46303143 
 6139 0924 00000000 		.align 8
 6140              	.LC55:
 6141 0928 3A313031 		.string	":101250000801882361F01091E9001092E900809163"
 6141      32353030 
 6141      30303830 
 6141      31383832 
 6141      33363146 
 6142 0954 00000000 		.align 8
 6143              	.LC56:
 6144 0958 3A313031 		.string	":10121000E10082FF0AC08091E20082FF06C0809157"
 6144      32313030 
 6144      30453130 
 6144      30383246 
 6144      46304143 
 6145 0984 00000000 		.align 8
 6146              	.LC57:
 6147 0988 3A313031 		.string	":10120000E200A5DD80E060E042E18EDD71DF8091EB"
 6147      32303030 
 6147      30453230 
 6147      30413544 
 6147      44383045 
 6148 09b4 00000000 		.align 8
 6149              	.LC58:
 6150 09b8 3A313031 		.string	":1011F000E2008E7F8093E2008091E2008061809324"
 6150      31463030 
 6150      30453230 
 6150      30384537 
 6150      46383039 
 6151              	.LC59:
 6152 09e4 3A303631 		.string	":061220000895F894FFCFD1"
 6152      32323030 
 6152      30303839 
 6152      35463839 
 6152      34464643 
 6153              	.LC60:
 6154 09fc 3A303130 		.string	":0100CF00CF61"
 6154      30434630 
 6154      30434636 
 6154      3100
 6155 0a0a 00000000 		.align 8
 6155      0000
 6156              	.LC61:
 6157 0a10 3A304530 		.string	":0E00C00085BF889585B78F7D85BFF8CFF894F2"
 6157      30433030 
 6157      30383542 
 6157      46383839 
 6157      35383542 
 6158              		.align 8
 6159              	.LC62:
 6160 0a38 3A313030 		.string	":1000B0009BBD8ABD89B7806489BF789485B780620B"
 6160      30423030 
 6160      30394242 
 6160      44384142 
 6160      44383942 
 6161 0a64 00000000 		.align 8
 6162              	.LC63:
 6163 0a68 3A313030 		.string	":1000A00018958FEF8ABB1FBC8DE08EBD89E09DE364"
 6163      30413030 
 6163      30313839 
 6163      35384645 
 6163      46384142 
 6164 0a94 00000000 		.align 8
 6165              	.LC64:
 6166 0a98 3A313030 		.string	":1000B0009BBD8ABD89B7FFFFFFFFFF9485B78062B4"
 6166      30423030 
 6166      30394242 
 6166      44384142 
 6166      44383942 
 6167 0ac4 00000000 		.align 8
 6168              	.LC65:
 6169 0ac8 3A313030 		.string	":10001000BEBAFECA6E3B8209D926430DADDEADDE07"
 6169      30313030 
 6169      30424542 
 6169      41464543 
 6169      41364533 
 6170 0af4 00000000 		.align 8
 6171              	.LC66:
 6172 0af8 3A313030 		.string	":10000000BEBAFECA6E3B8209D926430DADDEADDE17"
 6172      30303030 
 6172      30424542 
 6172      41464543 
 6172      41364533 
 6173              	.LC67:
 6174 0b24 3A303230 		.string	":020000021000EC"
 6174      30303030 
 6174      32313030 
 6174      30454300 
 6175 0b34 00000000 		.align 8
 6176              	.LC68:
 6177 0b38 3A313046 		.string	":10FFF000BEBAFECA6E3B8209D926430DADDEADDE28"
 6177      46463030 
 6177      30424542 
 6177      41464543 
 6177      41364533 
 6178 0b64 00000000 		.align 8
 6179              	.LC69:
 6180 0b68 3A313046 		.string	":10FFE000BEBAFECA6E3B8209D926430DADDEADDE38"
 6180      46453030 
 6180      30424542 
 6180      41464543 
 6180      41364533 
 6181              		.text
 6182              		.align 2
 6183              		.globl	_ZNK23TestHexIO_testRoundTrip7RunImplEv
 6185              	_ZNK23TestHexIO_testRoundTrip7RunImplEv:
 6186              	.LFB1257:
 6187              		.loc 4 242 27
 6188              		.cfi_startproc
 6189 2d24 F30F1EFA 		endbr64
 6190 2d28 55       		pushq	%rbp
 6191              		.cfi_def_cfa_offset 16
 6192              		.cfi_offset 6, -16
 6193 2d29 4889E5   		movq	%rsp, %rbp
 6194              		.cfi_def_cfa_register 6
 6195 2d2c 4883EC10 		subq	$16, %rsp
 6196 2d30 48897DF8 		movq	%rdi, -8(%rbp)
 243:testHexIO.cpp **** 	testRoundTrip(
 6197              		.loc 4 243 15
 6198 2d34 4883EC08 		subq	$8, %rsp
 6199 2d38 6A00     		pushq	$0
 6200 2d3a 4C8D0D00 		leaq	.LC53(%rip), %r9
 6200      000000
 6201 2d41 4C8D0500 		leaq	.LC54(%rip), %r8
 6201      000000
 6202 2d48 488D0500 		leaq	.LC55(%rip), %rax
 6202      000000
 6203 2d4f 4889C1   		movq	%rax, %rcx
 6204 2d52 488D0500 		leaq	.LC56(%rip), %rax
 6204      000000
 6205 2d59 4889C2   		movq	%rax, %rdx
 6206 2d5c 488D0500 		leaq	.LC57(%rip), %rax
 6206      000000
 6207 2d63 4889C6   		movq	%rax, %rsi
 6208 2d66 488D0500 		leaq	.LC58(%rip), %rax
 6208      000000
 6209 2d6d 4889C7   		movq	%rax, %rdi
 6210 2d70 B8000000 		movl	$0, %eax
 6210      00
 6211 2d75 E8000000 		call	_Z13testRoundTripPKcz
 6211      00
 6212 2d7a 4883C410 		addq	$16, %rsp
 244:testHexIO.cpp **** 		":1011F000E2008E7F8093E2008091E2008061809324",
 245:testHexIO.cpp **** 		":10120000E200A5DD80E060E042E18EDD71DF8091EB",
 246:testHexIO.cpp **** 		":10121000E10082FF0AC08091E20082FF06C0809157",
 247:testHexIO.cpp **** 		":101250000801882361F01091E9001092E900809163",
 248:testHexIO.cpp **** 		":10126000E80083FF01C03DDC17701093E9001F9177",
 249:testHexIO.cpp **** 		":061270000895F894FFCF81",
 250:testHexIO.cpp **** 		NULL);
 251:testHexIO.cpp **** 	testRoundTrip(
 6213              		.loc 4 251 15
 6214 2d7e 6A00     		pushq	$0
 6215 2d80 488D0500 		leaq	.LC53(%rip), %rax
 6215      000000
 6216 2d87 50       		pushq	%rax
 6217 2d88 4C8D0D00 		leaq	.LC54(%rip), %r9
 6217      000000
 6218 2d8f 4C8D0500 		leaq	.LC55(%rip), %r8
 6218      000000
 6219 2d96 488D0500 		leaq	.LC59(%rip), %rax
 6219      000000
 6220 2d9d 4889C1   		movq	%rax, %rcx
 6221 2da0 488D0500 		leaq	.LC56(%rip), %rax
 6221      000000
 6222 2da7 4889C2   		movq	%rax, %rdx
 6223 2daa 488D0500 		leaq	.LC57(%rip), %rax
 6223      000000
 6224 2db1 4889C6   		movq	%rax, %rsi
 6225 2db4 488D0500 		leaq	.LC58(%rip), %rax
 6225      000000
 6226 2dbb 4889C7   		movq	%rax, %rdi
 6227 2dbe B8000000 		movl	$0, %eax
 6227      00
 6228 2dc3 E8000000 		call	_Z13testRoundTripPKcz
 6228      00
 6229 2dc8 4883C410 		addq	$16, %rsp
 252:testHexIO.cpp **** 		":1011F000E2008E7F8093E2008091E2008061809324",
 253:testHexIO.cpp **** 		":10120000E200A5DD80E060E042E18EDD71DF8091EB",
 254:testHexIO.cpp **** 		":10121000E10082FF0AC08091E20082FF06C0809157",
 255:testHexIO.cpp **** 		":061220000895F894FFCFD1",
 256:testHexIO.cpp **** 		":101250000801882361F01091E9001092E900809163",
 257:testHexIO.cpp **** 		":10126000E80083FF01C03DDC17701093E9001F9177",
 258:testHexIO.cpp **** 		":061270000895F894FFCF81",
 259:testHexIO.cpp **** 		NULL);
 260:testHexIO.cpp **** 	testRoundTrip(
 6230              		.loc 4 260 15
 6231 2dcc 41B80000 		movl	$0, %r8d
 6231      0000
 6232 2dd2 488D0500 		leaq	.LC60(%rip), %rax
 6232      000000
 6233 2dd9 4889C1   		movq	%rax, %rcx
 6234 2ddc 488D0500 		leaq	.LC61(%rip), %rax
 6234      000000
 6235 2de3 4889C2   		movq	%rax, %rdx
 6236 2de6 488D0500 		leaq	.LC62(%rip), %rax
 6236      000000
 6237 2ded 4889C6   		movq	%rax, %rsi
 6238 2df0 488D0500 		leaq	.LC63(%rip), %rax
 6238      000000
 6239 2df7 4889C7   		movq	%rax, %rdi
 6240 2dfa B8000000 		movl	$0, %eax
 6240      00
 6241 2dff E8000000 		call	_Z13testRoundTripPKcz
 6241      00
 261:testHexIO.cpp **** 		":1000A00018958FEF8ABB1FBC8DE08EBD89E09DE364",
 262:testHexIO.cpp **** 		":1000B0009BBD8ABD89B7806489BF789485B780620B",
 263:testHexIO.cpp **** 		":0E00C00085BF889585B78F7D85BFF8CFF894F2",
 264:testHexIO.cpp **** 		":0100CF00CF61",
 265:testHexIO.cpp **** 		NULL);
 266:testHexIO.cpp **** 	testRoundTrip(
 6242              		.loc 4 266 15
 6243 2e04 BE000000 		movl	$0, %esi
 6243      00
 6244 2e09 488D0500 		leaq	.LC64(%rip), %rax
 6244      000000
 6245 2e10 4889C7   		movq	%rax, %rdi
 6246 2e13 B8000000 		movl	$0, %eax
 6246      00
 6247 2e18 E8000000 		call	_Z13testRoundTripPKcz
 6247      00
 267:testHexIO.cpp **** 		":1000B0009BBD8ABD89B7FFFFFFFFFF9485B78062B4",
 268:testHexIO.cpp **** 		NULL);
 269:testHexIO.cpp **** 	testRoundTrip(
 6248              		.loc 4 269 15
 6249 2e1d 41B90000 		movl	$0, %r9d
 6249      0000
 6250 2e23 4C8D0500 		leaq	.LC65(%rip), %r8
 6250      000000
 6251 2e2a 488D0500 		leaq	.LC66(%rip), %rax
 6251      000000
 6252 2e31 4889C1   		movq	%rax, %rcx
 6253 2e34 488D0500 		leaq	.LC67(%rip), %rax
 6253      000000
 6254 2e3b 4889C2   		movq	%rax, %rdx
 6255 2e3e 488D0500 		leaq	.LC68(%rip), %rax
 6255      000000
 6256 2e45 4889C6   		movq	%rax, %rsi
 6257 2e48 488D0500 		leaq	.LC69(%rip), %rax
 6257      000000
 6258 2e4f 4889C7   		movq	%rax, %rdi
 6259 2e52 B8000000 		movl	$0, %eax
 6259      00
 6260 2e57 E8000000 		call	_Z13testRoundTripPKcz
 6260      00
 270:testHexIO.cpp **** 		":10FFE000BEBAFECA6E3B8209D926430DADDEADDE38",
 271:testHexIO.cpp **** 		":10FFF000BEBAFECA6E3B8209D926430DADDEADDE28",
 272:testHexIO.cpp **** 		":020000021000EC",
 273:testHexIO.cpp **** 		":10000000BEBAFECA6E3B8209D926430DADDEADDE17",
 274:testHexIO.cpp **** 		":10001000BEBAFECA6E3B8209D926430DADDEADDE07",
 275:testHexIO.cpp **** 		NULL);
 276:testHexIO.cpp **** 	}
 6261              		.loc 4 276 2
 6262 2e5c 90       		nop
 6263 2e5d C9       		leave
 6264              		.cfi_def_cfa 7, 8
 6265 2e5e C3       		ret
 6266              		.cfi_endproc
 6267              	.LFE1257:
 6269              		.section	.rodata
 6270 0b94 00000000 		.align 8
 6271              	.LC70:
 6272 0b98 556E6861 		.string	"Unhandled exception in CHECK_EQUAL(data.length, mask.length)"
 6272      6E646C65 
 6272      64206578 
 6272      63657074 
 6272      696F6E20 
 6273 0bd5 000000   		.align 8
 6274              	.LC71:
 6275 0bd8 556E6861 		.string	"Unhandled exception in CHECK_ARRAY_EQUAL(expectedWriteMap, mask.data)"
 6275      6E646C65 
 6275      64206578 
 6275      63657074 
 6275      696F6E20 
 6276              		.text
 6277              		.globl	_Z18testDeriveWriteMapPKcS0_
 6279              	_Z18testDeriveWriteMapPKcS0_:
 6280              	.LFB1258:
 277:testHexIO.cpp **** 
 278:testHexIO.cpp **** 
 279:testHexIO.cpp **** void testDeriveWriteMap(const char *inputData, const char *expectedWriteMap) {
 6281              		.loc 4 279 78
 6282              		.cfi_startproc
 6283              		.cfi_personality 0x9b,DW.ref.__gxx_personality_v0
 6284              		.cfi_lsda 0x1b,.LLSDA1258
 6285 2e5f F30F1EFA 		endbr64
 6286 2e63 55       		pushq	%rbp
 6287              		.cfi_def_cfa_offset 16
 6288              		.cfi_offset 6, -16
 6289 2e64 4889E5   		movq	%rsp, %rbp
 6290              		.cfi_def_cfa_register 6
 6291 2e67 53       		pushq	%rbx
 6292 2e68 4881EC98 		subq	$152, %rsp
 6292      000000
 6293              		.cfi_offset 3, -24
 6294 2e6f 4889BD68 		movq	%rdi, -152(%rbp)
 6294      FFFFFF
 6295 2e76 4889B560 		movq	%rsi, -160(%rbp)
 6295      FFFFFF
 6296              		.loc 4 279 78
 6297 2e7d 64488B04 		movq	%fs:40, %rax
 6297      25280000 
 6297      00
 6298 2e86 488945E8 		movq	%rax, -24(%rbp)
 6299 2e8a 31C0     		xorl	%eax, %eax
 280:testHexIO.cpp **** 	Buffer data, mask;
 281:testHexIO.cpp **** 	BufferStatus status;
 282:testHexIO.cpp **** 	status = bufInitialise(&data, 1024, '.', NULL);
 6300              		.loc 4 282 24
 6301 2e8c 488D4580 		leaq	-128(%rbp), %rax
 6302 2e90 B9000000 		movl	$0, %ecx
 6302      00
 6303 2e95 BA2E0000 		movl	$46, %edx
 6303      00
 6304 2e9a BE000400 		movl	$1024, %esi
 6304      00
 6305 2e9f 4889C7   		movq	%rax, %rdi
 6306              	.LEHB229:
 6307 2ea2 E8000000 		call	bufInitialise@PLT
 6307      00
 6308              	.LEHE229:
 6309              		.loc 4 282 9
 6310 2ea7 898570FF 		movl	%eax, -144(%rbp)
 6310      FFFF
 6311              	.LEHB230:
 283:testHexIO.cpp **** 	CHECK_EQUAL(BUF_SUCCESS, status);
 6312              		.loc 4 283 2
 6313 2ead E8000000 		call	_ZN8UnitTest11CurrentTest7DetailsEv@PLT
 6313      00
 6314 2eb2 488B08   		movq	(%rax), %rcx
 6315 2eb5 488D45C0 		leaq	-64(%rbp), %rax
 6316 2eb9 BA1B0100 		movl	$283, %edx
 6316      00
 6317 2ebe 4889CE   		movq	%rcx, %rsi
 6318 2ec1 4889C7   		movq	%rax, %rdi
 6319 2ec4 E8000000 		call	_ZN8UnitTest11TestDetailsC1ERKS0_i@PLT
 6319      00
 6320              		.loc 4 283 2 is_stmt 0 discriminator 4
 6321 2ec9 C745A000 		movl	$0, -96(%rbp)
 6321      000000
 6322 2ed0 E8000000 		call	_ZN8UnitTest11CurrentTest7ResultsEv@PLT
 6322      00
 6323 2ed5 488B00   		movq	(%rax), %rax
 6324 2ed8 488D4DC0 		leaq	-64(%rbp), %rcx
 6325 2edc 488D9570 		leaq	-144(%rbp), %rdx
 6325      FFFFFF
 6326 2ee3 488D75A0 		leaq	-96(%rbp), %rsi
 6327 2ee7 4889C7   		movq	%rax, %rdi
 6328 2eea E8000000 		call	_ZN8UnitTest10CheckEqualI12BufferStatusS1_EEvRNS_11TestResultsERKT_RKT0_RKNS_11TestDetailsE
 6328      00
 6329              	.LEHE230:
 6330              	.L309:
 284:testHexIO.cpp **** 	status = bufInitialise(&mask, 1024, 0x00, NULL);
 6331              		.loc 4 284 24 is_stmt 1
 6332 2eef 488D45A0 		leaq	-96(%rbp), %rax
 6333 2ef3 B9000000 		movl	$0, %ecx
 6333      00
 6334 2ef8 BA000000 		movl	$0, %edx
 6334      00
 6335 2efd BE000400 		movl	$1024, %esi
 6335      00
 6336 2f02 4889C7   		movq	%rax, %rdi
 6337              	.LEHB231:
 6338 2f05 E8000000 		call	bufInitialise@PLT
 6338      00
 6339              	.LEHE231:
 6340              		.loc 4 284 9
 6341 2f0a 898570FF 		movl	%eax, -144(%rbp)
 6341      FFFF
 6342              	.LEHB232:
 285:testHexIO.cpp **** 	CHECK_EQUAL(BUF_SUCCESS, status);
 6343              		.loc 4 285 2
 6344 2f10 E8000000 		call	_ZN8UnitTest11CurrentTest7DetailsEv@PLT
 6344      00
 6345 2f15 488B08   		movq	(%rax), %rcx
 6346 2f18 488D45C0 		leaq	-64(%rbp), %rax
 6347 2f1c BA1D0100 		movl	$285, %edx
 6347      00
 6348 2f21 4889CE   		movq	%rcx, %rsi
 6349 2f24 4889C7   		movq	%rax, %rdi
 6350 2f27 E8000000 		call	_ZN8UnitTest11TestDetailsC1ERKS0_i@PLT
 6350      00
 6351              		.loc 4 285 2 is_stmt 0 discriminator 4
 6352 2f2c C78574FF 		movl	$0, -140(%rbp)
 6352      FFFF0000 
 6352      0000
 6353 2f36 E8000000 		call	_ZN8UnitTest11CurrentTest7ResultsEv@PLT
 6353      00
 6354 2f3b 488B00   		movq	(%rax), %rax
 6355 2f3e 488D4DC0 		leaq	-64(%rbp), %rcx
 6356 2f42 488D9570 		leaq	-144(%rbp), %rdx
 6356      FFFFFF
 6357 2f49 488DB574 		leaq	-140(%rbp), %rsi
 6357      FFFFFF
 6358 2f50 4889C7   		movq	%rax, %rdi
 6359 2f53 E8000000 		call	_ZN8UnitTest10CheckEqualI12BufferStatusS1_EEvRNS_11TestResultsERKT_RKT0_RKNS_11TestDetailsE
 6359      00
 6360              	.LEHE232:
 6361              	.L312:
 286:testHexIO.cpp **** 	status = bufWriteBlock(&data, 0x00000000, (const uint8 *)inputData, strlen(inputData), NULL);
 6362              		.loc 4 286 24 is_stmt 1
 6363 2f58 488B8568 		movq	-152(%rbp), %rax
 6363      FFFFFF
 6364 2f5f 4889C7   		movq	%rax, %rdi
 6365 2f62 E8000000 		call	strlen@PLT
 6365      00
 6366 2f67 4889C1   		movq	%rax, %rcx
 6367 2f6a 488B9568 		movq	-152(%rbp), %rdx
 6367      FFFFFF
 6368 2f71 488D4580 		leaq	-128(%rbp), %rax
 6369 2f75 41B80000 		movl	$0, %r8d
 6369      0000
 6370 2f7b BE000000 		movl	$0, %esi
 6370      00
 6371 2f80 4889C7   		movq	%rax, %rdi
 6372              	.LEHB233:
 6373 2f83 E8000000 		call	bufWriteBlock@PLT
 6373      00
 6374              	.LEHE233:
 6375              		.loc 4 286 9
 6376 2f88 898570FF 		movl	%eax, -144(%rbp)
 6376      FFFF
 6377              	.LEHB234:
 287:testHexIO.cpp **** 	CHECK_EQUAL(BUF_SUCCESS, status);
 6378              		.loc 4 287 2
 6379 2f8e E8000000 		call	_ZN8UnitTest11CurrentTest7DetailsEv@PLT
 6379      00
 6380 2f93 488B08   		movq	(%rax), %rcx
 6381 2f96 488D45C0 		leaq	-64(%rbp), %rax
 6382 2f9a BA1F0100 		movl	$287, %edx
 6382      00
 6383 2f9f 4889CE   		movq	%rcx, %rsi
 6384 2fa2 4889C7   		movq	%rax, %rdi
 6385 2fa5 E8000000 		call	_ZN8UnitTest11TestDetailsC1ERKS0_i@PLT
 6385      00
 6386              		.loc 4 287 2 is_stmt 0 discriminator 4
 6387 2faa C78574FF 		movl	$0, -140(%rbp)
 6387      FFFF0000 
 6387      0000
 6388 2fb4 E8000000 		call	_ZN8UnitTest11CurrentTest7ResultsEv@PLT
 6388      00
 6389 2fb9 488B00   		movq	(%rax), %rax
 6390 2fbc 488D4DC0 		leaq	-64(%rbp), %rcx
 6391 2fc0 488D9570 		leaq	-144(%rbp), %rdx
 6391      FFFFFF
 6392 2fc7 488DB574 		leaq	-140(%rbp), %rsi
 6392      FFFFFF
 6393 2fce 4889C7   		movq	%rax, %rdi
 6394 2fd1 E8000000 		call	_ZN8UnitTest10CheckEqualI12BufferStatusS1_EEvRNS_11TestResultsERKT_RKT0_RKNS_11TestDetailsE
 6394      00
 6395              	.LEHE234:
 6396              	.L315:
 288:testHexIO.cpp **** 	status = bufDeriveMask(&data, &mask, NULL);
 6397              		.loc 4 288 24 is_stmt 1
 6398 2fd6 488D4DA0 		leaq	-96(%rbp), %rcx
 6399 2fda 488D4580 		leaq	-128(%rbp), %rax
 6400 2fde BA000000 		movl	$0, %edx
 6400      00
 6401 2fe3 4889CE   		movq	%rcx, %rsi
 6402 2fe6 4889C7   		movq	%rax, %rdi
 6403              	.LEHB235:
 6404 2fe9 E8000000 		call	bufDeriveMask@PLT
 6404      00
 6405              	.LEHE235:
 6406              		.loc 4 288 9
 6407 2fee 898570FF 		movl	%eax, -144(%rbp)
 6407      FFFF
 6408              	.LEHB236:
 289:testHexIO.cpp **** 	CHECK_EQUAL(BUF_SUCCESS, status);
 6409              		.loc 4 289 2
 6410 2ff4 E8000000 		call	_ZN8UnitTest11CurrentTest7DetailsEv@PLT
 6410      00
 6411 2ff9 488B08   		movq	(%rax), %rcx
 6412 2ffc 488D45C0 		leaq	-64(%rbp), %rax
 6413 3000 BA210100 		movl	$289, %edx
 6413      00
 6414 3005 4889CE   		movq	%rcx, %rsi
 6415 3008 4889C7   		movq	%rax, %rdi
 6416 300b E8000000 		call	_ZN8UnitTest11TestDetailsC1ERKS0_i@PLT
 6416      00
 6417              		.loc 4 289 2 is_stmt 0 discriminator 4
 6418 3010 C78574FF 		movl	$0, -140(%rbp)
 6418      FFFF0000 
 6418      0000
 6419 301a E8000000 		call	_ZN8UnitTest11CurrentTest7ResultsEv@PLT
 6419      00
 6420 301f 488B00   		movq	(%rax), %rax
 6421 3022 488D4DC0 		leaq	-64(%rbp), %rcx
 6422 3026 488D9570 		leaq	-144(%rbp), %rdx
 6422      FFFFFF
 6423 302d 488DB574 		leaq	-140(%rbp), %rsi
 6423      FFFFFF
 6424 3034 4889C7   		movq	%rax, %rdi
 6425 3037 E8000000 		call	_ZN8UnitTest10CheckEqualI12BufferStatusS1_EEvRNS_11TestResultsERKT_RKT0_RKNS_11TestDetailsE
 6425      00
 6426              	.LEHE236:
 6427              	.L318:
 6428              	.LEHB237:
 290:testHexIO.cpp **** 	CHECK_EQUAL(data.length, mask.length);
 6429              		.loc 4 290 2 is_stmt 1
 6430 303c E8000000 		call	_ZN8UnitTest11CurrentTest7DetailsEv@PLT
 6430      00
 6431 3041 488B08   		movq	(%rax), %rcx
 6432 3044 488D45C0 		leaq	-64(%rbp), %rax
 6433 3048 BA220100 		movl	$290, %edx
 6433      00
 6434 304d 4889CE   		movq	%rcx, %rsi
 6435 3050 4889C7   		movq	%rax, %rdi
 6436 3053 E8000000 		call	_ZN8UnitTest11TestDetailsC1ERKS0_i@PLT
 6436      00
 6437              		.loc 4 290 2 is_stmt 0 discriminator 4
 6438 3058 E8000000 		call	_ZN8UnitTest11CurrentTest7ResultsEv@PLT
 6438      00
 6439 305d 488B00   		movq	(%rax), %rax
 6440 3060 488D55C0 		leaq	-64(%rbp), %rdx
 6441 3064 488D4DA0 		leaq	-96(%rbp), %rcx
 6442 3068 488D7908 		leaq	8(%rcx), %rdi
 6443 306c 488D4D80 		leaq	-128(%rbp), %rcx
 6444 3070 488D7108 		leaq	8(%rcx), %rsi
 6445 3074 4889D1   		movq	%rdx, %rcx
 6446 3077 4889FA   		movq	%rdi, %rdx
 6447 307a 4889C7   		movq	%rax, %rdi
 6448 307d E8000000 		call	_ZN8UnitTest10CheckEqualImmEEvRNS_11TestResultsERKT_RKT0_RKNS_11TestDetailsE
 6448      00
 6449              	.LEHE237:
 6450              	.L321:
 6451              	.LBB16:
 291:testHexIO.cpp **** 	for ( size_t i = 0; i < mask.length; i++ ) {
 6452              		.loc 4 291 15 is_stmt 1
 6453 3082 48C78578 		movq	$0, -136(%rbp)
 6453      FFFFFF00 
 6453      000000
 6454              		.loc 4 291 2
 6455 308d EB41     		jmp	.L304
 6456              	.L307:
 292:testHexIO.cpp **** 		if ( mask.data[i] ) {
 6457              		.loc 4 292 13
 6458 308f 488B55A0 		movq	-96(%rbp), %rdx
 6459              		.loc 4 292 19
 6460 3093 488B8578 		movq	-136(%rbp), %rax
 6460      FFFFFF
 6461 309a 4801D0   		addq	%rdx, %rax
 6462 309d 0FB600   		movzbl	(%rax), %eax
 6463              		.loc 4 292 3
 6464 30a0 84C0     		testb	%al, %al
 6465 30a2 7413     		je	.L305
 293:testHexIO.cpp **** 			mask.data[i] = '*';
 6466              		.loc 4 293 9
 6467 30a4 488B55A0 		movq	-96(%rbp), %rdx
 6468              		.loc 4 293 15
 6469 30a8 488B8578 		movq	-136(%rbp), %rax
 6469      FFFFFF
 6470 30af 4801D0   		addq	%rdx, %rax
 6471              		.loc 4 293 17
 6472 30b2 C6002A   		movb	$42, (%rax)
 6473 30b5 EB11     		jmp	.L306
 6474              	.L305:
 294:testHexIO.cpp **** 		} else {
 295:testHexIO.cpp **** 			mask.data[i] = '.';
 6475              		.loc 4 295 9
 6476 30b7 488B55A0 		movq	-96(%rbp), %rdx
 6477              		.loc 4 295 15
 6478 30bb 488B8578 		movq	-136(%rbp), %rax
 6478      FFFFFF
 6479 30c2 4801D0   		addq	%rdx, %rax
 6480              		.loc 4 295 17
 6481 30c5 C6002E   		movb	$46, (%rax)
 6482              	.L306:
 291:testHexIO.cpp **** 		if ( mask.data[i] ) {
 6483              		.loc 4 291 2 discriminator 2
 6484 30c8 48838578 		addq	$1, -136(%rbp)
 6484      FFFFFF01 
 6485              	.L304:
 291:testHexIO.cpp **** 		if ( mask.data[i] ) {
 6486              		.loc 4 291 31 discriminator 1
 6487 30d0 488B45A8 		movq	-88(%rbp), %rax
 291:testHexIO.cpp **** 		if ( mask.data[i] ) {
 6488              		.loc 4 291 24 discriminator 1
 6489 30d4 48398578 		cmpq	%rax, -136(%rbp)
 6489      FFFFFF
 6490 30db 72B2     		jb	.L307
 6491              	.LEHB238:
 6492              	.LBE16:
 296:testHexIO.cpp **** 		}
 297:testHexIO.cpp **** 	}
 298:testHexIO.cpp **** 	CHECK_ARRAY_EQUAL(expectedWriteMap, mask.data, (int)mask.length);
 6493              		.loc 4 298 2
 6494 30dd E8000000 		call	_ZN8UnitTest11CurrentTest7DetailsEv@PLT
 6494      00
 6495 30e2 488B08   		movq	(%rax), %rcx
 6496 30e5 488D45C0 		leaq	-64(%rbp), %rax
 6497 30e9 BA2A0100 		movl	$298, %edx
 6497      00
 6498 30ee 4889CE   		movq	%rcx, %rsi
 6499 30f1 4889C7   		movq	%rax, %rdi
 6500 30f4 E8000000 		call	_ZN8UnitTest11TestDetailsC1ERKS0_i@PLT
 6500      00
 6501              		.loc 4 298 2 is_stmt 0 discriminator 4
 6502 30f9 488B45A8 		movq	-88(%rbp), %rax
 6503 30fd 89C3     		movl	%eax, %ebx
 6504 30ff E8000000 		call	_ZN8UnitTest11CurrentTest7ResultsEv@PLT
 6504      00
 6505 3104 488B00   		movq	(%rax), %rax
 6506 3107 488D4DC0 		leaq	-64(%rbp), %rcx
 6507 310b 488D55A0 		leaq	-96(%rbp), %rdx
 6508 310f 488DB560 		leaq	-160(%rbp), %rsi
 6508      FFFFFF
 6509 3116 4989C8   		movq	%rcx, %r8
 6510 3119 89D9     		movl	%ebx, %ecx
 6511 311b 4889C7   		movq	%rax, %rdi
 6512 311e E8000000 		call	_ZN8UnitTest15CheckArrayEqualIPKcPhEEvRNS_11TestResultsERKT_RKT0_iRKNS_11TestDetailsE
 6512      00
 6513              	.LEHE238:
 6514              	.L324:
 299:testHexIO.cpp **** 	bufDestroy(&data);
 6515              		.loc 4 299 12 is_stmt 1
 6516 3123 488D4580 		leaq	-128(%rbp), %rax
 6517 3127 4889C7   		movq	%rax, %rdi
 6518              	.LEHB239:
 6519 312a E8000000 		call	bufDestroy@PLT
 6519      00
 300:testHexIO.cpp **** 	bufDestroy(&mask);
 6520              		.loc 4 300 12
 6521 312f 488D45A0 		leaq	-96(%rbp), %rax
 6522 3133 4889C7   		movq	%rax, %rdi
 6523 3136 E8000000 		call	bufDestroy@PLT
 6523      00
 6524              	.LEHE239:
 301:testHexIO.cpp **** }
 6525              		.loc 4 301 1
 6526 313b 90       		nop
 6527 313c 488B45E8 		movq	-24(%rbp), %rax
 6528 3140 64482B04 		subq	%fs:40, %rax
 6528      25280000 
 6528      00
 6529 3149 0F847402 		je	.L326
 6529      0000
 6530 314f E96A0200 		jmp	.L339
 6530      00
 6531              	.L327:
 6532 3154 F30F1EFA 		endbr64
 283:testHexIO.cpp **** 	status = bufInitialise(&mask, 1024, 0x00, NULL);
 6533              		.loc 4 283 2
 6534 3158 4889C7   		movq	%rax, %rdi
 6535 315b E8000000 		call	__cxa_begin_catch@PLT
 6535      00
 6536              	.LEHB240:
 6537 3160 E8000000 		call	_ZN8UnitTest11CurrentTest7ResultsEv@PLT
 6537      00
 283:testHexIO.cpp **** 	status = bufInitialise(&mask, 1024, 0x00, NULL);
 6538              		.loc 4 283 2 is_stmt 0 discriminator 3
 6539 3165 488B18   		movq	(%rax), %rbx
 6540 3168 E8000000 		call	_ZN8UnitTest11CurrentTest7DetailsEv@PLT
 6540      00
 283:testHexIO.cpp **** 	status = bufInitialise(&mask, 1024, 0x00, NULL);
 6541              		.loc 4 283 2 discriminator 11
 6542 316d 488B08   		movq	(%rax), %rcx
 6543 3170 488D45C0 		leaq	-64(%rbp), %rax
 6544 3174 BA1B0100 		movl	$283, %edx
 6544      00
 6545 3179 4889CE   		movq	%rcx, %rsi
 6546 317c 4889C7   		movq	%rax, %rdi
 6547 317f E8000000 		call	_ZN8UnitTest11TestDetailsC1ERKS0_i@PLT
 6547      00
 283:testHexIO.cpp **** 	status = bufInitialise(&mask, 1024, 0x00, NULL);
 6548              		.loc 4 283 2 discriminator 15
 6549 3184 488D45C0 		leaq	-64(%rbp), %rax
 6550 3188 488D1500 		leaq	.LC4(%rip), %rdx
 6550      000000
 6551 318f 4889C6   		movq	%rax, %rsi
 6552 3192 4889DF   		movq	%rbx, %rdi
 6553 3195 E8000000 		call	_ZN8UnitTest11TestResults13OnTestFailureERKNS_11TestDetailsEPKc@PLT
 6553      00
 6554              	.LEHE240:
 6555              	.LEHB241:
 283:testHexIO.cpp **** 	status = bufInitialise(&mask, 1024, 0x00, NULL);
 6556              		.loc 4 283 2 discriminator 17
 6557 319a E8000000 		call	__cxa_end_catch@PLT
 6557      00
 6558              	.LEHE241:
 6559 319f E94BFDFF 		jmp	.L309
 6559      FF
 6560              	.L328:
 6561 31a4 F30F1EFA 		endbr64
 283:testHexIO.cpp **** 	status = bufInitialise(&mask, 1024, 0x00, NULL);
 6562              		.loc 4 283 2
 6563 31a8 4889C3   		movq	%rax, %rbx
 6564 31ab E8000000 		call	__cxa_end_catch@PLT
 6564      00
 6565 31b0 4889D8   		movq	%rbx, %rax
 6566 31b3 4889C7   		movq	%rax, %rdi
 6567              	.LEHB242:
 6568 31b6 E8000000 		call	_Unwind_Resume@PLT
 6568      00
 6569              	.LEHE242:
 6570              	.L329:
 6571 31bb F30F1EFA 		endbr64
 285:testHexIO.cpp **** 	status = bufWriteBlock(&data, 0x00000000, (const uint8 *)inputData, strlen(inputData), NULL);
 6572              		.loc 4 285 2 is_stmt 1
 6573 31bf 4889C7   		movq	%rax, %rdi
 6574 31c2 E8000000 		call	__cxa_begin_catch@PLT
 6574      00
 6575              	.LEHB243:
 6576 31c7 E8000000 		call	_ZN8UnitTest11CurrentTest7ResultsEv@PLT
 6576      00
 285:testHexIO.cpp **** 	status = bufWriteBlock(&data, 0x00000000, (const uint8 *)inputData, strlen(inputData), NULL);
 6577              		.loc 4 285 2 is_stmt 0 discriminator 3
 6578 31cc 488B18   		movq	(%rax), %rbx
 6579 31cf E8000000 		call	_ZN8UnitTest11CurrentTest7DetailsEv@PLT
 6579      00
 285:testHexIO.cpp **** 	status = bufWriteBlock(&data, 0x00000000, (const uint8 *)inputData, strlen(inputData), NULL);
 6580              		.loc 4 285 2 discriminator 11
 6581 31d4 488B08   		movq	(%rax), %rcx
 6582 31d7 488D45C0 		leaq	-64(%rbp), %rax
 6583 31db BA1D0100 		movl	$285, %edx
 6583      00
 6584 31e0 4889CE   		movq	%rcx, %rsi
 6585 31e3 4889C7   		movq	%rax, %rdi
 6586 31e6 E8000000 		call	_ZN8UnitTest11TestDetailsC1ERKS0_i@PLT
 6586      00
 285:testHexIO.cpp **** 	status = bufWriteBlock(&data, 0x00000000, (const uint8 *)inputData, strlen(inputData), NULL);
 6587              		.loc 4 285 2 discriminator 15
 6588 31eb 488D45C0 		leaq	-64(%rbp), %rax
 6589 31ef 488D1500 		leaq	.LC4(%rip), %rdx
 6589      000000
 6590 31f6 4889C6   		movq	%rax, %rsi
 6591 31f9 4889DF   		movq	%rbx, %rdi
 6592 31fc E8000000 		call	_ZN8UnitTest11TestResults13OnTestFailureERKNS_11TestDetailsEPKc@PLT
 6592      00
 6593              	.LEHE243:
 6594              	.LEHB244:
 285:testHexIO.cpp **** 	status = bufWriteBlock(&data, 0x00000000, (const uint8 *)inputData, strlen(inputData), NULL);
 6595              		.loc 4 285 2 discriminator 17
 6596 3201 E8000000 		call	__cxa_end_catch@PLT
 6596      00
 6597              	.LEHE244:
 6598 3206 E94DFDFF 		jmp	.L312
 6598      FF
 6599              	.L330:
 6600 320b F30F1EFA 		endbr64
 285:testHexIO.cpp **** 	status = bufWriteBlock(&data, 0x00000000, (const uint8 *)inputData, strlen(inputData), NULL);
 6601              		.loc 4 285 2
 6602 320f 4889C3   		movq	%rax, %rbx
 6603 3212 E8000000 		call	__cxa_end_catch@PLT
 6603      00
 6604 3217 4889D8   		movq	%rbx, %rax
 6605 321a 4889C7   		movq	%rax, %rdi
 6606              	.LEHB245:
 6607 321d E8000000 		call	_Unwind_Resume@PLT
 6607      00
 6608              	.LEHE245:
 6609              	.L331:
 6610 3222 F30F1EFA 		endbr64
 287:testHexIO.cpp **** 	status = bufDeriveMask(&data, &mask, NULL);
 6611              		.loc 4 287 2 is_stmt 1
 6612 3226 4889C7   		movq	%rax, %rdi
 6613 3229 E8000000 		call	__cxa_begin_catch@PLT
 6613      00
 6614              	.LEHB246:
 6615 322e E8000000 		call	_ZN8UnitTest11CurrentTest7ResultsEv@PLT
 6615      00
 287:testHexIO.cpp **** 	status = bufDeriveMask(&data, &mask, NULL);
 6616              		.loc 4 287 2 is_stmt 0 discriminator 3
 6617 3233 488B18   		movq	(%rax), %rbx
 6618 3236 E8000000 		call	_ZN8UnitTest11CurrentTest7DetailsEv@PLT
 6618      00
 287:testHexIO.cpp **** 	status = bufDeriveMask(&data, &mask, NULL);
 6619              		.loc 4 287 2 discriminator 11
 6620 323b 488B08   		movq	(%rax), %rcx
 6621 323e 488D45C0 		leaq	-64(%rbp), %rax
 6622 3242 BA1F0100 		movl	$287, %edx
 6622      00
 6623 3247 4889CE   		movq	%rcx, %rsi
 6624 324a 4889C7   		movq	%rax, %rdi
 6625 324d E8000000 		call	_ZN8UnitTest11TestDetailsC1ERKS0_i@PLT
 6625      00
 287:testHexIO.cpp **** 	status = bufDeriveMask(&data, &mask, NULL);
 6626              		.loc 4 287 2 discriminator 15
 6627 3252 488D45C0 		leaq	-64(%rbp), %rax
 6628 3256 488D1500 		leaq	.LC4(%rip), %rdx
 6628      000000
 6629 325d 4889C6   		movq	%rax, %rsi
 6630 3260 4889DF   		movq	%rbx, %rdi
 6631 3263 E8000000 		call	_ZN8UnitTest11TestResults13OnTestFailureERKNS_11TestDetailsEPKc@PLT
 6631      00
 6632              	.LEHE246:
 6633              	.LEHB247:
 287:testHexIO.cpp **** 	status = bufDeriveMask(&data, &mask, NULL);
 6634              		.loc 4 287 2 discriminator 17
 6635 3268 E8000000 		call	__cxa_end_catch@PLT
 6635      00
 6636              	.LEHE247:
 6637 326d E964FDFF 		jmp	.L315
 6637      FF
 6638              	.L332:
 6639 3272 F30F1EFA 		endbr64
 287:testHexIO.cpp **** 	status = bufDeriveMask(&data, &mask, NULL);
 6640              		.loc 4 287 2
 6641 3276 4889C3   		movq	%rax, %rbx
 6642 3279 E8000000 		call	__cxa_end_catch@PLT
 6642      00
 6643 327e 4889D8   		movq	%rbx, %rax
 6644 3281 4889C7   		movq	%rax, %rdi
 6645              	.LEHB248:
 6646 3284 E8000000 		call	_Unwind_Resume@PLT
 6646      00
 6647              	.LEHE248:
 6648              	.L333:
 6649 3289 F30F1EFA 		endbr64
 289:testHexIO.cpp **** 	CHECK_EQUAL(data.length, mask.length);
 6650              		.loc 4 289 2 is_stmt 1
 6651 328d 4889C7   		movq	%rax, %rdi
 6652 3290 E8000000 		call	__cxa_begin_catch@PLT
 6652      00
 6653              	.LEHB249:
 6654 3295 E8000000 		call	_ZN8UnitTest11CurrentTest7ResultsEv@PLT
 6654      00
 289:testHexIO.cpp **** 	CHECK_EQUAL(data.length, mask.length);
 6655              		.loc 4 289 2 is_stmt 0 discriminator 3
 6656 329a 488B18   		movq	(%rax), %rbx
 6657 329d E8000000 		call	_ZN8UnitTest11CurrentTest7DetailsEv@PLT
 6657      00
 289:testHexIO.cpp **** 	CHECK_EQUAL(data.length, mask.length);
 6658              		.loc 4 289 2 discriminator 11
 6659 32a2 488B08   		movq	(%rax), %rcx
 6660 32a5 488D45C0 		leaq	-64(%rbp), %rax
 6661 32a9 BA210100 		movl	$289, %edx
 6661      00
 6662 32ae 4889CE   		movq	%rcx, %rsi
 6663 32b1 4889C7   		movq	%rax, %rdi
 6664 32b4 E8000000 		call	_ZN8UnitTest11TestDetailsC1ERKS0_i@PLT
 6664      00
 289:testHexIO.cpp **** 	CHECK_EQUAL(data.length, mask.length);
 6665              		.loc 4 289 2 discriminator 15
 6666 32b9 488D45C0 		leaq	-64(%rbp), %rax
 6667 32bd 488D1500 		leaq	.LC4(%rip), %rdx
 6667      000000
 6668 32c4 4889C6   		movq	%rax, %rsi
 6669 32c7 4889DF   		movq	%rbx, %rdi
 6670 32ca E8000000 		call	_ZN8UnitTest11TestResults13OnTestFailureERKNS_11TestDetailsEPKc@PLT
 6670      00
 6671              	.LEHE249:
 6672              	.LEHB250:
 289:testHexIO.cpp **** 	CHECK_EQUAL(data.length, mask.length);
 6673              		.loc 4 289 2 discriminator 17
 6674 32cf E8000000 		call	__cxa_end_catch@PLT
 6674      00
 6675              	.LEHE250:
 6676 32d4 E963FDFF 		jmp	.L318
 6676      FF
 6677              	.L334:
 6678 32d9 F30F1EFA 		endbr64
 289:testHexIO.cpp **** 	CHECK_EQUAL(data.length, mask.length);
 6679              		.loc 4 289 2
 6680 32dd 4889C3   		movq	%rax, %rbx
 6681 32e0 E8000000 		call	__cxa_end_catch@PLT
 6681      00
 6682 32e5 4889D8   		movq	%rbx, %rax
 6683 32e8 4889C7   		movq	%rax, %rdi
 6684              	.LEHB251:
 6685 32eb E8000000 		call	_Unwind_Resume@PLT
 6685      00
 6686              	.LEHE251:
 6687              	.L335:
 6688 32f0 F30F1EFA 		endbr64
 290:testHexIO.cpp **** 	for ( size_t i = 0; i < mask.length; i++ ) {
 6689              		.loc 4 290 2 is_stmt 1
 6690 32f4 4889C7   		movq	%rax, %rdi
 6691 32f7 E8000000 		call	__cxa_begin_catch@PLT
 6691      00
 6692              	.LEHB252:
 6693 32fc E8000000 		call	_ZN8UnitTest11CurrentTest7ResultsEv@PLT
 6693      00
 290:testHexIO.cpp **** 	for ( size_t i = 0; i < mask.length; i++ ) {
 6694              		.loc 4 290 2 is_stmt 0 discriminator 3
 6695 3301 488B18   		movq	(%rax), %rbx
 6696 3304 E8000000 		call	_ZN8UnitTest11CurrentTest7DetailsEv@PLT
 6696      00
 290:testHexIO.cpp **** 	for ( size_t i = 0; i < mask.length; i++ ) {
 6697              		.loc 4 290 2 discriminator 11
 6698 3309 488B08   		movq	(%rax), %rcx
 6699 330c 488D45C0 		leaq	-64(%rbp), %rax
 6700 3310 BA220100 		movl	$290, %edx
 6700      00
 6701 3315 4889CE   		movq	%rcx, %rsi
 6702 3318 4889C7   		movq	%rax, %rdi
 6703 331b E8000000 		call	_ZN8UnitTest11TestDetailsC1ERKS0_i@PLT
 6703      00
 290:testHexIO.cpp **** 	for ( size_t i = 0; i < mask.length; i++ ) {
 6704              		.loc 4 290 2 discriminator 15
 6705 3320 488D45C0 		leaq	-64(%rbp), %rax
 6706 3324 488D1500 		leaq	.LC70(%rip), %rdx
 6706      000000
 6707 332b 4889C6   		movq	%rax, %rsi
 6708 332e 4889DF   		movq	%rbx, %rdi
 6709 3331 E8000000 		call	_ZN8UnitTest11TestResults13OnTestFailureERKNS_11TestDetailsEPKc@PLT
 6709      00
 6710              	.LEHE252:
 6711              	.LEHB253:
 290:testHexIO.cpp **** 	for ( size_t i = 0; i < mask.length; i++ ) {
 6712              		.loc 4 290 2 discriminator 17
 6713 3336 E8000000 		call	__cxa_end_catch@PLT
 6713      00
 6714              	.LEHE253:
 6715 333b E942FDFF 		jmp	.L321
 6715      FF
 6716              	.L336:
 6717 3340 F30F1EFA 		endbr64
 290:testHexIO.cpp **** 	for ( size_t i = 0; i < mask.length; i++ ) {
 6718              		.loc 4 290 2
 6719 3344 4889C3   		movq	%rax, %rbx
 6720 3347 E8000000 		call	__cxa_end_catch@PLT
 6720      00
 6721 334c 4889D8   		movq	%rbx, %rax
 6722 334f 4889C7   		movq	%rax, %rdi
 6723              	.LEHB254:
 6724 3352 E8000000 		call	_Unwind_Resume@PLT
 6724      00
 6725              	.LEHE254:
 6726              	.L337:
 6727 3357 F30F1EFA 		endbr64
 298:testHexIO.cpp **** 	bufDestroy(&data);
 6728              		.loc 4 298 2 is_stmt 1
 6729 335b 4889C7   		movq	%rax, %rdi
 6730 335e E8000000 		call	__cxa_begin_catch@PLT
 6730      00
 6731              	.LEHB255:
 6732 3363 E8000000 		call	_ZN8UnitTest11CurrentTest7ResultsEv@PLT
 6732      00
 298:testHexIO.cpp **** 	bufDestroy(&data);
 6733              		.loc 4 298 2 is_stmt 0 discriminator 3
 6734 3368 488B18   		movq	(%rax), %rbx
 6735 336b E8000000 		call	_ZN8UnitTest11CurrentTest7DetailsEv@PLT
 6735      00
 298:testHexIO.cpp **** 	bufDestroy(&data);
 6736              		.loc 4 298 2 discriminator 11
 6737 3370 488B08   		movq	(%rax), %rcx
 6738 3373 488D45C0 		leaq	-64(%rbp), %rax
 6739 3377 BA2A0100 		movl	$298, %edx
 6739      00
 6740 337c 4889CE   		movq	%rcx, %rsi
 6741 337f 4889C7   		movq	%rax, %rdi
 6742 3382 E8000000 		call	_ZN8UnitTest11TestDetailsC1ERKS0_i@PLT
 6742      00
 298:testHexIO.cpp **** 	bufDestroy(&data);
 6743              		.loc 4 298 2 discriminator 15
 6744 3387 488D45C0 		leaq	-64(%rbp), %rax
 6745 338b 488D1500 		leaq	.LC71(%rip), %rdx
 6745      000000
 6746 3392 4889C6   		movq	%rax, %rsi
 6747 3395 4889DF   		movq	%rbx, %rdi
 6748 3398 E8000000 		call	_ZN8UnitTest11TestResults13OnTestFailureERKNS_11TestDetailsEPKc@PLT
 6748      00
 6749              	.LEHE255:
 6750              	.LEHB256:
 298:testHexIO.cpp **** 	bufDestroy(&data);
 6751              		.loc 4 298 2 discriminator 17
 6752 339d E8000000 		call	__cxa_end_catch@PLT
 6752      00
 6753              	.LEHE256:
 6754 33a2 E97CFDFF 		jmp	.L324
 6754      FF
 6755              	.L338:
 6756 33a7 F30F1EFA 		endbr64
 298:testHexIO.cpp **** 	bufDestroy(&data);
 6757              		.loc 4 298 2
 6758 33ab 4889C3   		movq	%rax, %rbx
 6759 33ae E8000000 		call	__cxa_end_catch@PLT
 6759      00
 6760 33b3 4889D8   		movq	%rbx, %rax
 6761 33b6 4889C7   		movq	%rax, %rdi
 6762              	.LEHB257:
 6763 33b9 E8000000 		call	_Unwind_Resume@PLT
 6763      00
 6764              	.LEHE257:
 6765              	.L339:
 6766              		.loc 4 301 1 is_stmt 1
 6767 33be E8000000 		call	__stack_chk_fail@PLT
 6767      00
 6768              	.L326:
 6769 33c3 488B5DF8 		movq	-8(%rbp), %rbx
 6770 33c7 C9       		leave
 6771              		.cfi_def_cfa 7, 8
 6772 33c8 C3       		ret
 6773              		.cfi_endproc
 6774              	.LFE1258:
 6775              		.section	.gcc_except_table
 6776              		.align 4
 6777              	.LLSDA1258:
 6778 0558 FF       		.byte	0xff
 6779 0559 9B       		.byte	0x9b
 6780 055a A401     		.uleb128 .LLSDATT1258-.LLSDATTD1258
 6781              	.LLSDATTD1258:
 6782 055c 01       		.byte	0x1
 6783 055d 9B01     		.uleb128 .LLSDACSE1258-.LLSDACSB1258
 6784              	.LLSDACSB1258:
 6785 055f 43       		.uleb128 .LEHB229-.LFB1258
 6786 0560 05       		.uleb128 .LEHE229-.LEHB229
 6787 0561 00       		.uleb128 0
 6788 0562 00       		.uleb128 0
 6789 0563 4E       		.uleb128 .LEHB230-.LFB1258
 6790 0564 42       		.uleb128 .LEHE230-.LEHB230
 6791 0565 F505     		.uleb128 .L327-.LFB1258
 6792 0567 01       		.uleb128 0x1
 6793 0568 A601     		.uleb128 .LEHB231-.LFB1258
 6794 056a 05       		.uleb128 .LEHE231-.LEHB231
 6795 056b 00       		.uleb128 0
 6796 056c 00       		.uleb128 0
 6797 056d B101     		.uleb128 .LEHB232-.LFB1258
 6798 056f 48       		.uleb128 .LEHE232-.LEHB232
 6799 0570 DC06     		.uleb128 .L329-.LFB1258
 6800 0572 01       		.uleb128 0x1
 6801 0573 A402     		.uleb128 .LEHB233-.LFB1258
 6802 0575 05       		.uleb128 .LEHE233-.LEHB233
 6803 0576 00       		.uleb128 0
 6804 0577 00       		.uleb128 0
 6805 0578 AF02     		.uleb128 .LEHB234-.LFB1258
 6806 057a 48       		.uleb128 .LEHE234-.LEHB234
 6807 057b C307     		.uleb128 .L331-.LFB1258
 6808 057d 01       		.uleb128 0x1
 6809 057e 8A03     		.uleb128 .LEHB235-.LFB1258
 6810 0580 05       		.uleb128 .LEHE235-.LEHB235
 6811 0581 00       		.uleb128 0
 6812 0582 00       		.uleb128 0
 6813 0583 9503     		.uleb128 .LEHB236-.LFB1258
 6814 0585 48       		.uleb128 .LEHE236-.LEHB236
 6815 0586 AA08     		.uleb128 .L333-.LFB1258
 6816 0588 01       		.uleb128 0x1
 6817 0589 DD03     		.uleb128 .LEHB237-.LFB1258
 6818 058b 46       		.uleb128 .LEHE237-.LEHB237
 6819 058c 9109     		.uleb128 .L335-.LFB1258
 6820 058e 01       		.uleb128 0x1
 6821 058f FE04     		.uleb128 .LEHB238-.LFB1258
 6822 0591 46       		.uleb128 .LEHE238-.LEHB238
 6823 0592 F809     		.uleb128 .L337-.LFB1258
 6824 0594 01       		.uleb128 0x1
 6825 0595 CB05     		.uleb128 .LEHB239-.LFB1258
 6826 0597 11       		.uleb128 .LEHE239-.LEHB239
 6827 0598 00       		.uleb128 0
 6828 0599 00       		.uleb128 0
 6829 059a 8106     		.uleb128 .LEHB240-.LFB1258
 6830 059c 3A       		.uleb128 .LEHE240-.LEHB240
 6831 059d C506     		.uleb128 .L328-.LFB1258
 6832 059f 00       		.uleb128 0
 6833 05a0 BB06     		.uleb128 .LEHB241-.LFB1258
 6834 05a2 05       		.uleb128 .LEHE241-.LEHB241
 6835 05a3 00       		.uleb128 0
 6836 05a4 00       		.uleb128 0
 6837 05a5 D706     		.uleb128 .LEHB242-.LFB1258
 6838 05a7 05       		.uleb128 .LEHE242-.LEHB242
 6839 05a8 00       		.uleb128 0
 6840 05a9 00       		.uleb128 0
 6841 05aa E806     		.uleb128 .LEHB243-.LFB1258
 6842 05ac 3A       		.uleb128 .LEHE243-.LEHB243
 6843 05ad AC07     		.uleb128 .L330-.LFB1258
 6844 05af 00       		.uleb128 0
 6845 05b0 A207     		.uleb128 .LEHB244-.LFB1258
 6846 05b2 05       		.uleb128 .LEHE244-.LEHB244
 6847 05b3 00       		.uleb128 0
 6848 05b4 00       		.uleb128 0
 6849 05b5 BE07     		.uleb128 .LEHB245-.LFB1258
 6850 05b7 05       		.uleb128 .LEHE245-.LEHB245
 6851 05b8 00       		.uleb128 0
 6852 05b9 00       		.uleb128 0
 6853 05ba CF07     		.uleb128 .LEHB246-.LFB1258
 6854 05bc 3A       		.uleb128 .LEHE246-.LEHB246
 6855 05bd 9308     		.uleb128 .L332-.LFB1258
 6856 05bf 00       		.uleb128 0
 6857 05c0 8908     		.uleb128 .LEHB247-.LFB1258
 6858 05c2 05       		.uleb128 .LEHE247-.LEHB247
 6859 05c3 00       		.uleb128 0
 6860 05c4 00       		.uleb128 0
 6861 05c5 A508     		.uleb128 .LEHB248-.LFB1258
 6862 05c7 05       		.uleb128 .LEHE248-.LEHB248
 6863 05c8 00       		.uleb128 0
 6864 05c9 00       		.uleb128 0
 6865 05ca B608     		.uleb128 .LEHB249-.LFB1258
 6866 05cc 3A       		.uleb128 .LEHE249-.LEHB249
 6867 05cd FA08     		.uleb128 .L334-.LFB1258
 6868 05cf 00       		.uleb128 0
 6869 05d0 F008     		.uleb128 .LEHB250-.LFB1258
 6870 05d2 05       		.uleb128 .LEHE250-.LEHB250
 6871 05d3 00       		.uleb128 0
 6872 05d4 00       		.uleb128 0
 6873 05d5 8C09     		.uleb128 .LEHB251-.LFB1258
 6874 05d7 05       		.uleb128 .LEHE251-.LEHB251
 6875 05d8 00       		.uleb128 0
 6876 05d9 00       		.uleb128 0
 6877 05da 9D09     		.uleb128 .LEHB252-.LFB1258
 6878 05dc 3A       		.uleb128 .LEHE252-.LEHB252
 6879 05dd E109     		.uleb128 .L336-.LFB1258
 6880 05df 00       		.uleb128 0
 6881 05e0 D709     		.uleb128 .LEHB253-.LFB1258
 6882 05e2 05       		.uleb128 .LEHE253-.LEHB253
 6883 05e3 00       		.uleb128 0
 6884 05e4 00       		.uleb128 0
 6885 05e5 F309     		.uleb128 .LEHB254-.LFB1258
 6886 05e7 05       		.uleb128 .LEHE254-.LEHB254
 6887 05e8 00       		.uleb128 0
 6888 05e9 00       		.uleb128 0
 6889 05ea 840A     		.uleb128 .LEHB255-.LFB1258
 6890 05ec 3A       		.uleb128 .LEHE255-.LEHB255
 6891 05ed C80A     		.uleb128 .L338-.LFB1258
 6892 05ef 00       		.uleb128 0
 6893 05f0 BE0A     		.uleb128 .LEHB256-.LFB1258
 6894 05f2 05       		.uleb128 .LEHE256-.LEHB256
 6895 05f3 00       		.uleb128 0
 6896 05f4 00       		.uleb128 0
 6897 05f5 DA0A     		.uleb128 .LEHB257-.LFB1258
 6898 05f7 05       		.uleb128 .LEHE257-.LEHB257
 6899 05f8 00       		.uleb128 0
 6900 05f9 00       		.uleb128 0
 6901              	.LLSDACSE1258:
 6902 05fa 01       		.byte	0x1
 6903 05fb 00       		.byte	0
 6904              		.align 4
 6905 05fc 00000000 		.long	0
 6906              	
 6907              	.LLSDATT1258:
 6908              		.text
 6910              		.section	.rodata
 6911              	.LC72:
 6912 0c1e 48657849 		.string	"HexIO_testDeriveWriteMap"
 6912      4F5F7465 
 6912      73744465 
 6912      72697665 
 6912      57726974 
 6913              		.section	.text._ZN28TestHexIO_testDeriveWriteMapC2Ev,"axG",@progbits,_ZN28TestHexIO_testDeriveWrit
 6914              		.align 2
 6915              		.weak	_ZN28TestHexIO_testDeriveWriteMapC2Ev
 6917              	_ZN28TestHexIO_testDeriveWriteMapC2Ev:
 6918              	.LFB1260:
 302:testHexIO.cpp **** 
 303:testHexIO.cpp **** TEST(HexIO_testDeriveWriteMap) {
 6919              		.loc 4 303 1
 6920              		.cfi_startproc
 6921 0000 F30F1EFA 		endbr64
 6922 0004 55       		pushq	%rbp
 6923              		.cfi_def_cfa_offset 16
 6924              		.cfi_offset 6, -16
 6925 0005 4889E5   		movq	%rsp, %rbp
 6926              		.cfi_def_cfa_register 6
 6927 0008 53       		pushq	%rbx
 6928 0009 4883EC18 		subq	$24, %rsp
 6929              		.cfi_offset 3, -24
 6930 000d 48897DE8 		movq	%rdi, -24(%rbp)
 6931              	.LBB17:
 6932              		.loc 4 303 1
 6933 0011 488B5DE8 		movq	-24(%rbp), %rbx
 6934 0015 E8000000 		call	_ZN13UnitTestSuite12GetSuiteNameEv
 6934      00
 6935 001a 4889C2   		movq	%rax, %rdx
 6936 001d 41B82F01 		movl	$303, %r8d
 6936      0000
 6937 0023 488D0500 		leaq	.LC1(%rip), %rax
 6937      000000
 6938 002a 4889C1   		movq	%rax, %rcx
 6939 002d 488D0500 		leaq	.LC72(%rip), %rax
 6939      000000
 6940 0034 4889C6   		movq	%rax, %rsi
 6941 0037 4889DF   		movq	%rbx, %rdi
 6942 003a E8000000 		call	_ZN8UnitTest4TestC2EPKcS2_S2_i@PLT
 6942      00
 6943 003f 488D1500 		leaq	16+_ZTV28TestHexIO_testDeriveWriteMap(%rip), %rdx
 6943      000000
 6944 0046 488B45E8 		movq	-24(%rbp), %rax
 6945 004a 488910   		movq	%rdx, (%rax)
 6946              	.LBE17:
 6947 004d 90       		nop
 6948 004e 488B5DF8 		movq	-8(%rbp), %rbx
 6949 0052 C9       		leave
 6950              		.cfi_def_cfa 7, 8
 6951 0053 C3       		ret
 6952              		.cfi_endproc
 6953              	.LFE1260:
 6955              		.weak	_ZN28TestHexIO_testDeriveWriteMapC1Ev
 6956              		.set	_ZN28TestHexIO_testDeriveWriteMapC1Ev,_ZN28TestHexIO_testDeriveWriteMapC2Ev
 6957              		.globl	testHexIO_testDeriveWriteMapInstance
 6958              		.bss
 6959 02f9 00000000 		.align 32
 6959      000000
 6962              	testHexIO_testDeriveWriteMapInstance:
 6963 0300 00000000 		.zero	56
 6963      00000000 
 6963      00000000 
 6963      00000000 
 6963      00000000 
 6964              		.globl	adderHexIO_testDeriveWriteMap
 6967              	adderHexIO_testDeriveWriteMap:
 6968 0338 00       		.zero	1
 6969              		.section	.rodata
 6970              	.LC73:
 6971 0c37 2A2A2A2A 		.string	"*****........*****"
 6971      2A2E2E2E 
 6971      2E2E2E2E 
 6971      2E2A2A2A 
 6971      2A2A00
 6972              	.LC74:
 6973 0c4a 48656C6C 		.string	"Hello........World"
 6973      6F2E2E2E 
 6973      2E2E2E2E 
 6973      2E576F72 
 6973      6C6400
 6974              	.LC75:
 6975 0c5d 2A2A2A2A 		.string	"*****************"
 6975      2A2A2A2A 
 6975      2A2A2A2A 
 6975      2A2A2A2A 
 6975      2A00
 6976              	.LC76:
 6977 0c6f 48656C6C 		.string	"Hello.......World"
 6977      6F2E2E2E 
 6977      2E2E2E2E 
 6977      576F726C 
 6977      6400
 6978              		.text
 6979 33c9 90       		.align 2
 6980              		.globl	_ZNK28TestHexIO_testDeriveWriteMap7RunImplEv
 6982              	_ZNK28TestHexIO_testDeriveWriteMap7RunImplEv:
 6983              	.LFB1262:
 6984              		.loc 4 303 32
 6985              		.cfi_startproc
 6986 33ca F30F1EFA 		endbr64
 6987 33ce 55       		pushq	%rbp
 6988              		.cfi_def_cfa_offset 16
 6989              		.cfi_offset 6, -16
 6990 33cf 4889E5   		movq	%rsp, %rbp
 6991              		.cfi_def_cfa_register 6
 6992 33d2 4883EC10 		subq	$16, %rsp
 6993 33d6 48897DF8 		movq	%rdi, -8(%rbp)
 304:testHexIO.cpp **** 	testDeriveWriteMap("Hello........World", "*****........*****");
 6994              		.loc 4 304 20
 6995 33da 488D0500 		leaq	.LC73(%rip), %rax
 6995      000000
 6996 33e1 4889C6   		movq	%rax, %rsi
 6997 33e4 488D0500 		leaq	.LC74(%rip), %rax
 6997      000000
 6998 33eb 4889C7   		movq	%rax, %rdi
 6999 33ee E8000000 		call	_Z18testDeriveWriteMapPKcS0_
 6999      00
 305:testHexIO.cpp **** 	testDeriveWriteMap("Hello.......World", "*****************");
 7000              		.loc 4 305 20
 7001 33f3 488D0500 		leaq	.LC75(%rip), %rax
 7001      000000
 7002 33fa 4889C6   		movq	%rax, %rsi
 7003 33fd 488D0500 		leaq	.LC76(%rip), %rax
 7003      000000
 7004 3404 4889C7   		movq	%rax, %rdi
 7005 3407 E8000000 		call	_Z18testDeriveWriteMapPKcS0_
 7005      00
 306:testHexIO.cpp **** }
 7006              		.loc 4 306 1
 7007 340c 90       		nop
 7008 340d C9       		leave
 7009              		.cfi_def_cfa 7, 8
 7010 340e C3       		ret
 7011              		.cfi_endproc
 7012              	.LFE1262:
 7014              		.section	.text._ZN8UnitTest15MemoryOutStreamD1Ev,"axG",@progbits,_ZN8UnitTest15MemoryOutStreamD1Ev
 7015              		.align 2
 7016              		.weak	_ZN8UnitTest15MemoryOutStreamD1Ev
 7018              	_ZN8UnitTest15MemoryOutStreamD1Ev:
 7019              	.LFB1293:
  13:/home/pong/FPGALink/makestuff/libs/libutpp/MemoryOutStream.h **** {
 7020              		.loc 3 13 7
 7021              		.cfi_startproc
 7022              		.cfi_personality 0x9b,DW.ref.__gxx_personality_v0
 7023              		.cfi_lsda 0x1b,.LLSDA1293
 7024 0000 F30F1EFA 		endbr64
 7025 0004 55       		pushq	%rbp
 7026              		.cfi_def_cfa_offset 16
 7027              		.cfi_offset 6, -16
 7028 0005 4889E5   		movq	%rsp, %rbp
 7029              		.cfi_def_cfa_register 6
 7030 0008 53       		pushq	%rbx
 7031 0009 4883EC18 		subq	$24, %rsp
 7032              		.cfi_offset 3, -24
 7033 000d 48897DE8 		movq	%rdi, -24(%rbp)
 7034              	.LBB18:
  13:/home/pong/FPGALink/makestuff/libs/libutpp/MemoryOutStream.h **** {
 7035              		.loc 3 13 7
 7036 0011 488D1500 		leaq	24+_ZTVN8UnitTest15MemoryOutStreamE(%rip), %rdx
 7036      000000
 7037 0018 488B45E8 		movq	-24(%rbp), %rax
 7038 001c 488910   		movq	%rdx, (%rax)
 7039 001f 488B45E8 		movq	-24(%rbp), %rax
 7040 0023 48059000 		addq	$144, %rax
 7040      0000
 7041 0029 488D1500 		leaq	64+_ZTVN8UnitTest15MemoryOutStreamE(%rip), %rdx
 7041      000000
 7042 0030 488910   		movq	%rdx, (%rax)
 7043 0033 488B45E8 		movq	-24(%rbp), %rax
 7044 0037 4883C070 		addq	$112, %rax
 7045 003b 4889C7   		movq	%rax, %rdi
 7046              	.LEHB258:
 7047 003e E8000000 		call	_ZNSt7__cxx1112basic_stringIcSt11char_traitsIcESaIcEED1Ev@PLT
 7047      00
 7048              	.LEHE258:
  13:/home/pong/FPGALink/makestuff/libs/libutpp/MemoryOutStream.h **** {
 7049              		.loc 3 13 7 is_stmt 0 discriminator 2
 7050 0043 488B45E8 		movq	-24(%rbp), %rax
 7051 0047 488D1500 		leaq	8+_ZTTN8UnitTest15MemoryOutStreamE(%rip), %rdx
 7051      000000
 7052 004e 4889D6   		movq	%rdx, %rsi
 7053 0051 4889C7   		movq	%rax, %rdi
 7054              	.LEHB259:
 7055 0054 E8000000 		call	_ZNSt7__cxx1119basic_ostringstreamIcSt11char_traitsIcESaIcEED2Ev@PLT
 7055      00
 7056              	.LEHE259:
  13:/home/pong/FPGALink/makestuff/libs/libutpp/MemoryOutStream.h **** {
 7057              		.loc 3 13 7 discriminator 4
 7058 0059 488B45E8 		movq	-24(%rbp), %rax
 7059 005d 48059000 		addq	$144, %rax
 7059      0000
 7060 0063 4889C7   		movq	%rax, %rdi
 7061              	.LEHB260:
 7062 0066 E8000000 		call	_ZNSt9basic_iosIcSt11char_traitsIcEED2Ev@PLT
 7062      00
 7063              	.LEHE260:
 7064              	.LBE18:
 7065 006b EB43     		jmp	.L347
 7066              	.L345:
 7067 006d F30F1EFA 		endbr64
 7068              	.LBB19:
  13:/home/pong/FPGALink/makestuff/libs/libutpp/MemoryOutStream.h **** {
 7069              		.loc 3 13 7
 7070 0071 4889C3   		movq	%rax, %rbx
 7071 0074 488B45E8 		movq	-24(%rbp), %rax
 7072 0078 488D1500 		leaq	8+_ZTTN8UnitTest15MemoryOutStreamE(%rip), %rdx
 7072      000000
 7073 007f 4889D6   		movq	%rdx, %rsi
 7074 0082 4889C7   		movq	%rax, %rdi
 7075 0085 E8000000 		call	_ZNSt7__cxx1119basic_ostringstreamIcSt11char_traitsIcESaIcEED2Ev@PLT
 7075      00
 7076 008a EB07     		jmp	.L344
 7077              	.L346:
 7078 008c F30F1EFA 		endbr64
 7079 0090 4889C3   		movq	%rax, %rbx
 7080              	.L344:
  13:/home/pong/FPGALink/makestuff/libs/libutpp/MemoryOutStream.h **** {
 7081              		.loc 3 13 7 discriminator 3
 7082 0093 488B45E8 		movq	-24(%rbp), %rax
 7083 0097 48059000 		addq	$144, %rax
 7083      0000
 7084 009d 4889C7   		movq	%rax, %rdi
 7085 00a0 E8000000 		call	_ZNSt9basic_iosIcSt11char_traitsIcEED2Ev@PLT
 7085      00
 7086 00a5 4889D8   		movq	%rbx, %rax
 7087 00a8 4889C7   		movq	%rax, %rdi
 7088              	.LEHB261:
 7089 00ab E8000000 		call	_Unwind_Resume@PLT
 7089      00
 7090              	.LEHE261:
 7091              	.L347:
 7092              	.LBE19:
  13:/home/pong/FPGALink/makestuff/libs/libutpp/MemoryOutStream.h **** {
 7093              		.loc 3 13 7
 7094 00b0 488B5DF8 		movq	-8(%rbp), %rbx
 7095 00b4 C9       		leave
 7096              		.cfi_def_cfa 7, 8
 7097 00b5 C3       		ret
 7098              		.cfi_endproc
 7099              	.LFE1293:
 7100              		.section	.gcc_except_table
 7101              	.LLSDA1293:
 7102 0600 FF       		.byte	0xff
 7103 0601 FF       		.byte	0xff
 7104 0602 01       		.byte	0x1
 7105 0603 12       		.uleb128 .LLSDACSE1293-.LLSDACSB1293
 7106              	.LLSDACSB1293:
 7107 0604 3E       		.uleb128 .LEHB258-.LFB1293
 7108 0605 05       		.uleb128 .LEHE258-.LEHB258
 7109 0606 6D       		.uleb128 .L345-.LFB1293
 7110 0607 00       		.uleb128 0
 7111 0608 54       		.uleb128 .LEHB259-.LFB1293
 7112 0609 05       		.uleb128 .LEHE259-.LEHB259
 7113 060a 8C01     		.uleb128 .L346-.LFB1293
 7114 060c 00       		.uleb128 0
 7115 060d 66       		.uleb128 .LEHB260-.LFB1293
 7116 060e 05       		.uleb128 .LEHE260-.LEHB260
 7117 060f 00       		.uleb128 0
 7118 0610 00       		.uleb128 0
 7119 0611 AB01     		.uleb128 .LEHB261-.LFB1293
 7120 0613 05       		.uleb128 .LEHE261-.LEHB261
 7121 0614 00       		.uleb128 0
 7122 0615 00       		.uleb128 0
 7123              	.LLSDACSE1293:
 7124              		.section	.text._ZN8UnitTest15MemoryOutStreamD1Ev,"axG",@progbits,_ZN8UnitTest15MemoryOutStreamD1Ev
 7126              		.set	.LTHUNK0,_ZN8UnitTest15MemoryOutStreamD1Ev
 7127              		.weak	_ZTv0_n24_N8UnitTest15MemoryOutStreamD1Ev
 7129              	_ZTv0_n24_N8UnitTest15MemoryOutStreamD1Ev:
 7130              	.LFB1449:
  13:/home/pong/FPGALink/makestuff/libs/libutpp/MemoryOutStream.h **** {
 7131              		.loc 3 13 7 is_stmt 1
 7132              		.cfi_startproc
 7133 00b6 F30F1EFA 		endbr64
 7134 00ba 4C8B17   		movq	(%rdi), %r10
 7135 00bd 49037AE8 		addq	-24(%r10), %rdi
 7136 00c1 E93AFFFF 		jmp	.LTHUNK0
 7136      FF
 7137              		.cfi_endproc
 7138              	.LFE1449:
 7140              		.section	.text._ZN8UnitTest15MemoryOutStreamD0Ev,"axG",@progbits,_ZN8UnitTest15MemoryOutStreamD0Ev
 7141              		.align 2
 7142              		.weak	_ZN8UnitTest15MemoryOutStreamD0Ev
 7144              	_ZN8UnitTest15MemoryOutStreamD0Ev:
 7145              	.LFB1294:
  13:/home/pong/FPGALink/makestuff/libs/libutpp/MemoryOutStream.h **** {
 7146              		.loc 3 13 7
 7147              		.cfi_startproc
 7148              		.cfi_personality 0x9b,DW.ref.__gxx_personality_v0
 7149              		.cfi_lsda 0x1b,.LLSDA1294
 7150 0000 F30F1EFA 		endbr64
 7151 0004 55       		pushq	%rbp
 7152              		.cfi_def_cfa_offset 16
 7153              		.cfi_offset 6, -16
 7154 0005 4889E5   		movq	%rsp, %rbp
 7155              		.cfi_def_cfa_register 6
 7156 0008 53       		pushq	%rbx
 7157 0009 4883EC18 		subq	$24, %rsp
 7158              		.cfi_offset 3, -24
 7159 000d 48897DE8 		movq	%rdi, -24(%rbp)
  13:/home/pong/FPGALink/makestuff/libs/libutpp/MemoryOutStream.h **** {
 7160              		.loc 3 13 7
 7161 0011 488B45E8 		movq	-24(%rbp), %rax
 7162 0015 4889C7   		movq	%rax, %rdi
 7163              	.LEHB262:
 7164 0018 E8000000 		call	_ZN8UnitTest15MemoryOutStreamD1Ev
 7164      00
 7165              	.LEHE262:
  13:/home/pong/FPGALink/makestuff/libs/libutpp/MemoryOutStream.h **** {
 7166              		.loc 3 13 7 is_stmt 0 discriminator 2
 7167 001d 488B45E8 		movq	-24(%rbp), %rax
 7168 0021 4889C7   		movq	%rax, %rdi
 7169 0024 E8000000 		call	_ZdlPv@PLT
 7169      00
 7170 0029 EB1E     		jmp	.L351
 7171              	.L350:
 7172 002b F30F1EFA 		endbr64
  13:/home/pong/FPGALink/makestuff/libs/libutpp/MemoryOutStream.h **** {
 7173              		.loc 3 13 7
 7174 002f 4889C3   		movq	%rax, %rbx
 7175 0032 488B45E8 		movq	-24(%rbp), %rax
 7176 0036 4889C7   		movq	%rax, %rdi
 7177 0039 E8000000 		call	_ZdlPv@PLT
 7177      00
 7178 003e 4889D8   		movq	%rbx, %rax
 7179 0041 4889C7   		movq	%rax, %rdi
 7180              	.LEHB263:
 7181 0044 E8000000 		call	_Unwind_Resume@PLT
 7181      00
 7182              	.LEHE263:
 7183              	.L351:
 7184 0049 488B5DF8 		movq	-8(%rbp), %rbx
 7185 004d C9       		leave
 7186              		.cfi_def_cfa 7, 8
 7187 004e C3       		ret
 7188              		.cfi_endproc
 7189              	.LFE1294:
 7190              		.section	.gcc_except_table
 7191              	.LLSDA1294:
 7192 0616 FF       		.byte	0xff
 7193 0617 FF       		.byte	0xff
 7194 0618 01       		.byte	0x1
 7195 0619 08       		.uleb128 .LLSDACSE1294-.LLSDACSB1294
 7196              	.LLSDACSB1294:
 7197 061a 18       		.uleb128 .LEHB262-.LFB1294
 7198 061b 05       		.uleb128 .LEHE262-.LEHB262
 7199 061c 2B       		.uleb128 .L350-.LFB1294
 7200 061d 00       		.uleb128 0
 7201 061e 44       		.uleb128 .LEHB263-.LFB1294
 7202 061f 05       		.uleb128 .LEHE263-.LEHB263
 7203 0620 00       		.uleb128 0
 7204 0621 00       		.uleb128 0
 7205              	.LLSDACSE1294:
 7206              		.section	.text._ZN8UnitTest15MemoryOutStreamD0Ev,"axG",@progbits,_ZN8UnitTest15MemoryOutStreamD0Ev
 7208              		.set	.LTHUNK1,_ZN8UnitTest15MemoryOutStreamD0Ev
 7209              		.weak	_ZTv0_n24_N8UnitTest15MemoryOutStreamD0Ev
 7211              	_ZTv0_n24_N8UnitTest15MemoryOutStreamD0Ev:
 7212              	.LFB1450:
  13:/home/pong/FPGALink/makestuff/libs/libutpp/MemoryOutStream.h **** {
 7213              		.loc 3 13 7 is_stmt 1
 7214              		.cfi_startproc
 7215 004f F30F1EFA 		endbr64
 7216 0053 4C8B17   		movq	(%rdi), %r10
 7217 0056 49037AE8 		addq	-24(%r10), %rdi
 7218 005a EBA4     		jmp	.LTHUNK1
 7219              		.cfi_endproc
 7220              	.LFE1450:
 7222              		.section	.rodata
 7223              	.LC77:
 7224 0c81 45787065 		.string	"Expected "
 7224      63746564 
 7224      2000
 7225              	.LC78:
 7226 0c8b 20627574 		.string	" but was "
 7226      20776173 
 7226      2000
 7227              		.section	.text._ZN8UnitTest10CheckEqualI12BufferStatusS1_EEvRNS_11TestResultsERKT_RKT0_RKNS_11Test
 7228              		.weak	_ZN8UnitTest10CheckEqualI12BufferStatusS1_EEvRNS_11TestResultsERKT_RKT0_RKNS_11TestDetailsE
 7230              	_ZN8UnitTest10CheckEqualI12BufferStatusS1_EEvRNS_11TestResultsERKT_RKT0_RKNS_11TestDetailsE:
 7231              	.LFB1290:
 7232              		.file 5 "/home/pong/FPGALink/makestuff/libs/libutpp/Checks.h"
   1:/home/pong/FPGALink/makestuff/libs/libutpp/Checks.h **** #ifndef UNITTEST_CHECKS_H
   2:/home/pong/FPGALink/makestuff/libs/libutpp/Checks.h **** #define UNITTEST_CHECKS_H
   3:/home/pong/FPGALink/makestuff/libs/libutpp/Checks.h **** 
   4:/home/pong/FPGALink/makestuff/libs/libutpp/Checks.h **** #include "Config.h"
   5:/home/pong/FPGALink/makestuff/libs/libutpp/Checks.h **** #include "TestResults.h"
   6:/home/pong/FPGALink/makestuff/libs/libutpp/Checks.h **** #include "MemoryOutStream.h"
   7:/home/pong/FPGALink/makestuff/libs/libutpp/Checks.h **** 
   8:/home/pong/FPGALink/makestuff/libs/libutpp/Checks.h **** namespace UnitTest {
   9:/home/pong/FPGALink/makestuff/libs/libutpp/Checks.h **** 
  10:/home/pong/FPGALink/makestuff/libs/libutpp/Checks.h **** 
  11:/home/pong/FPGALink/makestuff/libs/libutpp/Checks.h **** template< typename Value >
  12:/home/pong/FPGALink/makestuff/libs/libutpp/Checks.h **** bool Check(Value const value)
  13:/home/pong/FPGALink/makestuff/libs/libutpp/Checks.h **** {
  14:/home/pong/FPGALink/makestuff/libs/libutpp/Checks.h ****     return !!value; // doing double negative to avoid silly VS warnings
  15:/home/pong/FPGALink/makestuff/libs/libutpp/Checks.h **** }
  16:/home/pong/FPGALink/makestuff/libs/libutpp/Checks.h **** 
  17:/home/pong/FPGALink/makestuff/libs/libutpp/Checks.h **** 
  18:/home/pong/FPGALink/makestuff/libs/libutpp/Checks.h **** template< typename Expected, typename Actual >
  19:/home/pong/FPGALink/makestuff/libs/libutpp/Checks.h **** void CheckEqual(TestResults& results, Expected const& expected, Actual const& actual, TestDetails c
 7233              		.loc 5 19 6
 7234              		.cfi_startproc
 7235              		.cfi_personality 0x9b,DW.ref.__gxx_personality_v0
 7236              		.cfi_lsda 0x1b,.LLSDA1290
 7237 0000 F30F1EFA 		endbr64
 7238 0004 55       		pushq	%rbp
 7239              		.cfi_def_cfa_offset 16
 7240              		.cfi_offset 6, -16
 7241 0005 4889E5   		movq	%rsp, %rbp
 7242              		.cfi_def_cfa_register 6
 7243 0008 53       		pushq	%rbx
 7244 0009 4881ECC8 		subq	$456, %rsp
 7244      010000
 7245              		.cfi_offset 3, -24
 7246 0010 4889BD48 		movq	%rdi, -440(%rbp)
 7246      FEFFFF
 7247 0017 4889B540 		movq	%rsi, -448(%rbp)
 7247      FEFFFF
 7248 001e 48899538 		movq	%rdx, -456(%rbp)
 7248      FEFFFF
 7249 0025 48898D30 		movq	%rcx, -464(%rbp)
 7249      FEFFFF
 7250              		.loc 5 19 6
 7251 002c 64488B04 		movq	%fs:40, %rax
 7251      25280000 
 7251      00
 7252 0035 488945E8 		movq	%rax, -24(%rbp)
 7253 0039 31C0     		xorl	%eax, %eax
 7254              	.LBB20:
  20:/home/pong/FPGALink/makestuff/libs/libutpp/Checks.h **** {
  21:/home/pong/FPGALink/makestuff/libs/libutpp/Checks.h ****     if (!(expected == actual))
 7255              		.loc 5 21 20
 7256 003b 488B8540 		movq	-448(%rbp), %rax
 7256      FEFFFF
 7257 0042 8B10     		movl	(%rax), %edx
 7258 0044 488B8538 		movq	-456(%rbp), %rax
 7258      FEFFFF
 7259 004b 8B00     		movl	(%rax), %eax
 7260              		.loc 5 21 5
 7261 004d 39C2     		cmpl	%eax, %edx
 7262 004f 0F84C600 		je	.L357
 7262      0000
 7263              	.LBB21:
  22:/home/pong/FPGALink/makestuff/libs/libutpp/Checks.h ****     {
  23:/home/pong/FPGALink/makestuff/libs/libutpp/Checks.h ****         UnitTest::MemoryOutStream stream;
 7264              		.loc 5 23 35
 7265 0055 488D8550 		leaq	-432(%rbp), %rax
 7265      FEFFFF
 7266 005c 4889C7   		movq	%rax, %rdi
 7267              	.LEHB264:
 7268 005f E8000000 		call	_ZN8UnitTest15MemoryOutStreamC1Ev
 7268      00
 7269              	.LEHE264:
  24:/home/pong/FPGALink/makestuff/libs/libutpp/Checks.h ****         stream << "Expected " << expected << " but was " << actual;
 7270              		.loc 5 24 16
 7271 0064 488D8550 		leaq	-432(%rbp), %rax
 7271      FEFFFF
 7272 006b 488D1500 		leaq	.LC77(%rip), %rdx
 7272      000000
 7273 0072 4889D6   		movq	%rdx, %rsi
 7274 0075 4889C7   		movq	%rax, %rdi
 7275              	.LEHB265:
 7276 0078 E8000000 		call	_ZStlsISt11char_traitsIcEERSt13basic_ostreamIcT_ES5_PKc@PLT
 7276      00
 7277 007d 4889C2   		movq	%rax, %rdx
 7278              		.loc 5 24 43
 7279 0080 488B8540 		movq	-448(%rbp), %rax
 7279      FEFFFF
 7280 0087 8B00     		movl	(%rax), %eax
 7281 0089 89C6     		movl	%eax, %esi
 7282 008b 4889D7   		movq	%rdx, %rdi
 7283 008e E8000000 		call	_ZNSolsEi@PLT
 7283      00
 7284              		.loc 5 24 43 is_stmt 0 discriminator 1
 7285 0093 4889C2   		movq	%rax, %rdx
 7286 0096 488D0500 		leaq	.LC78(%rip), %rax
 7286      000000
 7287 009d 4889C6   		movq	%rax, %rsi
 7288 00a0 4889D7   		movq	%rdx, %rdi
 7289 00a3 E8000000 		call	_ZStlsISt11char_traitsIcEERSt13basic_ostreamIcT_ES5_PKc@PLT
 7289      00
 7290              		.loc 5 24 43 discriminator 2
 7291 00a8 4889C2   		movq	%rax, %rdx
 7292              		.loc 5 24 58 is_stmt 1 discriminator 2
 7293 00ab 488B8538 		movq	-456(%rbp), %rax
 7293      FEFFFF
 7294 00b2 8B00     		movl	(%rax), %eax
 7295 00b4 89C6     		movl	%eax, %esi
 7296 00b6 4889D7   		movq	%rdx, %rdi
 7297 00b9 E8000000 		call	_ZNSolsEi@PLT
 7297      00
  25:/home/pong/FPGALink/makestuff/libs/libutpp/Checks.h **** 
  26:/home/pong/FPGALink/makestuff/libs/libutpp/Checks.h ****         results.OnTestFailure(details, stream.GetText());
 7298              		.loc 5 26 30
 7299 00be 488D8550 		leaq	-432(%rbp), %rax
 7299      FEFFFF
 7300 00c5 4889C7   		movq	%rax, %rdi
 7301 00c8 E8000000 		call	_ZNK8UnitTest15MemoryOutStream7GetTextEv@PLT
 7301      00
 7302 00cd 4889C2   		movq	%rax, %rdx
 7303 00d0 488B8D30 		movq	-464(%rbp), %rcx
 7303      FEFFFF
 7304 00d7 488B8548 		movq	-440(%rbp), %rax
 7304      FEFFFF
 7305 00de 4889CE   		movq	%rcx, %rsi
 7306 00e1 4889C7   		movq	%rax, %rdi
 7307 00e4 E8000000 		call	_ZN8UnitTest11TestResults13OnTestFailureERKNS_11TestDetailsEPKc@PLT
 7307      00
 7308              	.LEHE265:
  27:/home/pong/FPGALink/makestuff/libs/libutpp/Checks.h ****     }
 7309              		.loc 5 27 5
 7310 00e9 488D8550 		leaq	-432(%rbp), %rax
 7310      FEFFFF
 7311 00f0 4889C7   		movq	%rax, %rdi
 7312              	.LEHB266:
 7313 00f3 E8000000 		call	_ZN8UnitTest15MemoryOutStreamD1Ev
 7313      00
 7314              	.LEHE266:
 7315              	.LBE21:
 7316              	.LBE20:
  28:/home/pong/FPGALink/makestuff/libs/libutpp/Checks.h **** }
 7317              		.loc 5 28 1
 7318 00f8 EB21     		jmp	.L357
 7319              	.L356:
 7320 00fa F30F1EFA 		endbr64
 7321              	.LBB23:
 7322              	.LBB22:
  27:/home/pong/FPGALink/makestuff/libs/libutpp/Checks.h ****     }
 7323              		.loc 5 27 5
 7324 00fe 4889C3   		movq	%rax, %rbx
 7325 0101 488D8550 		leaq	-432(%rbp), %rax
 7325      FEFFFF
 7326 0108 4889C7   		movq	%rax, %rdi
 7327 010b E8000000 		call	_ZN8UnitTest15MemoryOutStreamD1Ev
 7327      00
 7328 0110 4889D8   		movq	%rbx, %rax
 7329 0113 4889C7   		movq	%rax, %rdi
 7330              	.LEHB267:
 7331 0116 E8000000 		call	_Unwind_Resume@PLT
 7331      00
 7332              	.LEHE267:
 7333              	.L357:
 7334              	.LBE22:
 7335              	.LBE23:
 7336              		.loc 5 28 1
 7337 011b 90       		nop
 7338 011c 488B45E8 		movq	-24(%rbp), %rax
 7339 0120 64482B04 		subq	%fs:40, %rax
 7339      25280000 
 7339      00
 7340 0129 7405     		je	.L355
 7341 012b E8000000 		call	__stack_chk_fail@PLT
 7341      00
 7342              	.L355:
 7343 0130 488B5DF8 		movq	-8(%rbp), %rbx
 7344 0134 C9       		leave
 7345              		.cfi_def_cfa 7, 8
 7346 0135 C3       		ret
 7347              		.cfi_endproc
 7348              	.LFE1290:
 7349              		.section	.gcc_except_table
 7350              	.LLSDA1290:
 7351 0622 FF       		.byte	0xff
 7352 0623 FF       		.byte	0xff
 7353 0624 01       		.byte	0x1
 7354 0625 13       		.uleb128 .LLSDACSE1290-.LLSDACSB1290
 7355              	.LLSDACSB1290:
 7356 0626 5F       		.uleb128 .LEHB264-.LFB1290
 7357 0627 05       		.uleb128 .LEHE264-.LEHB264
 7358 0628 00       		.uleb128 0
 7359 0629 00       		.uleb128 0
 7360 062a 78       		.uleb128 .LEHB265-.LFB1290
 7361 062b 71       		.uleb128 .LEHE265-.LEHB265
 7362 062c FA01     		.uleb128 .L356-.LFB1290
 7363 062e 00       		.uleb128 0
 7364 062f F301     		.uleb128 .LEHB266-.LFB1290
 7365 0631 05       		.uleb128 .LEHE266-.LEHB266
 7366 0632 00       		.uleb128 0
 7367 0633 00       		.uleb128 0
 7368 0634 9602     		.uleb128 .LEHB267-.LFB1290
 7369 0636 05       		.uleb128 .LEHE267-.LEHB267
 7370 0637 00       		.uleb128 0
 7371 0638 00       		.uleb128 0
 7372              	.LLSDACSE1290:
 7373              		.section	.text._ZN8UnitTest10CheckEqualI12BufferStatusS1_EEvRNS_11TestResultsERKT_RKT0_RKNS_11Test
 7375              		.section	.text._ZN8UnitTest10CheckEqualIihEEvRNS_11TestResultsERKT_RKT0_RKNS_11TestDetailsE,"axG",
 7376              		.weak	_ZN8UnitTest10CheckEqualIihEEvRNS_11TestResultsERKT_RKT0_RKNS_11TestDetailsE
 7378              	_ZN8UnitTest10CheckEqualIihEEvRNS_11TestResultsERKT_RKT0_RKNS_11TestDetailsE:
 7379              	.LFB1295:
  19:/home/pong/FPGALink/makestuff/libs/libutpp/Checks.h **** {
 7380              		.loc 5 19 6
 7381              		.cfi_startproc
 7382              		.cfi_personality 0x9b,DW.ref.__gxx_personality_v0
 7383              		.cfi_lsda 0x1b,.LLSDA1295
 7384 0000 F30F1EFA 		endbr64
 7385 0004 55       		pushq	%rbp
 7386              		.cfi_def_cfa_offset 16
 7387              		.cfi_offset 6, -16
 7388 0005 4889E5   		movq	%rsp, %rbp
 7389              		.cfi_def_cfa_register 6
 7390 0008 53       		pushq	%rbx
 7391 0009 4881ECC8 		subq	$456, %rsp
 7391      010000
 7392              		.cfi_offset 3, -24
 7393 0010 4889BD48 		movq	%rdi, -440(%rbp)
 7393      FEFFFF
 7394 0017 4889B540 		movq	%rsi, -448(%rbp)
 7394      FEFFFF
 7395 001e 48899538 		movq	%rdx, -456(%rbp)
 7395      FEFFFF
 7396 0025 48898D30 		movq	%rcx, -464(%rbp)
 7396      FEFFFF
  19:/home/pong/FPGALink/makestuff/libs/libutpp/Checks.h **** {
 7397              		.loc 5 19 6
 7398 002c 64488B04 		movq	%fs:40, %rax
 7398      25280000 
 7398      00
 7399 0035 488945E8 		movq	%rax, -24(%rbp)
 7400 0039 31C0     		xorl	%eax, %eax
 7401              	.LBB24:
  21:/home/pong/FPGALink/makestuff/libs/libutpp/Checks.h ****     {
 7402              		.loc 5 21 20
 7403 003b 488B8540 		movq	-448(%rbp), %rax
 7403      FEFFFF
 7404 0042 8B10     		movl	(%rax), %edx
 7405 0044 488B8538 		movq	-456(%rbp), %rax
 7405      FEFFFF
 7406 004b 0FB600   		movzbl	(%rax), %eax
 7407 004e 0FB6C0   		movzbl	%al, %eax
  21:/home/pong/FPGALink/makestuff/libs/libutpp/Checks.h ****     {
 7408              		.loc 5 21 5
 7409 0051 39C2     		cmpl	%eax, %edx
 7410 0053 0F84CA00 		je	.L363
 7410      0000
 7411              	.LBB25:
  23:/home/pong/FPGALink/makestuff/libs/libutpp/Checks.h ****         stream << "Expected " << expected << " but was " << actual;
 7412              		.loc 5 23 35
 7413 0059 488D8550 		leaq	-432(%rbp), %rax
 7413      FEFFFF
 7414 0060 4889C7   		movq	%rax, %rdi
 7415              	.LEHB268:
 7416 0063 E8000000 		call	_ZN8UnitTest15MemoryOutStreamC1Ev
 7416      00
 7417              	.LEHE268:
  24:/home/pong/FPGALink/makestuff/libs/libutpp/Checks.h **** 
 7418              		.loc 5 24 16
 7419 0068 488D8550 		leaq	-432(%rbp), %rax
 7419      FEFFFF
 7420 006f 488D1500 		leaq	.LC77(%rip), %rdx
 7420      000000
 7421 0076 4889D6   		movq	%rdx, %rsi
 7422 0079 4889C7   		movq	%rax, %rdi
 7423              	.LEHB269:
 7424 007c E8000000 		call	_ZStlsISt11char_traitsIcEERSt13basic_ostreamIcT_ES5_PKc@PLT
 7424      00
 7425 0081 4889C2   		movq	%rax, %rdx
  24:/home/pong/FPGALink/makestuff/libs/libutpp/Checks.h **** 
 7426              		.loc 5 24 58
 7427 0084 488B8540 		movq	-448(%rbp), %rax
 7427      FEFFFF
 7428 008b 8B00     		movl	(%rax), %eax
 7429 008d 89C6     		movl	%eax, %esi
 7430 008f 4889D7   		movq	%rdx, %rdi
 7431 0092 E8000000 		call	_ZNSolsEi@PLT
 7431      00
  24:/home/pong/FPGALink/makestuff/libs/libutpp/Checks.h **** 
 7432              		.loc 5 24 58 is_stmt 0 discriminator 1
 7433 0097 4889C2   		movq	%rax, %rdx
 7434 009a 488D0500 		leaq	.LC78(%rip), %rax
 7434      000000
 7435 00a1 4889C6   		movq	%rax, %rsi
 7436 00a4 4889D7   		movq	%rdx, %rdi
 7437 00a7 E8000000 		call	_ZStlsISt11char_traitsIcEERSt13basic_ostreamIcT_ES5_PKc@PLT
 7437      00
  24:/home/pong/FPGALink/makestuff/libs/libutpp/Checks.h **** 
 7438              		.loc 5 24 58 discriminator 2
 7439 00ac 4889C2   		movq	%rax, %rdx
 7440 00af 488B8538 		movq	-456(%rbp), %rax
 7440      FEFFFF
 7441 00b6 0FB600   		movzbl	(%rax), %eax
 7442 00b9 0FB6C0   		movzbl	%al, %eax
 7443 00bc 89C6     		movl	%eax, %esi
 7444 00be 4889D7   		movq	%rdx, %rdi
 7445 00c1 E8000000 		call	_ZStlsISt11char_traitsIcEERSt13basic_ostreamIcT_ES5_h@PLT
 7445      00
  26:/home/pong/FPGALink/makestuff/libs/libutpp/Checks.h ****     }
 7446              		.loc 5 26 30 is_stmt 1
 7447 00c6 488D8550 		leaq	-432(%rbp), %rax
 7447      FEFFFF
 7448 00cd 4889C7   		movq	%rax, %rdi
 7449 00d0 E8000000 		call	_ZNK8UnitTest15MemoryOutStream7GetTextEv@PLT
 7449      00
 7450 00d5 4889C2   		movq	%rax, %rdx
 7451 00d8 488B8D30 		movq	-464(%rbp), %rcx
 7451      FEFFFF
 7452 00df 488B8548 		movq	-440(%rbp), %rax
 7452      FEFFFF
 7453 00e6 4889CE   		movq	%rcx, %rsi
 7454 00e9 4889C7   		movq	%rax, %rdi
 7455 00ec E8000000 		call	_ZN8UnitTest11TestResults13OnTestFailureERKNS_11TestDetailsEPKc@PLT
 7455      00
 7456              	.LEHE269:
  27:/home/pong/FPGALink/makestuff/libs/libutpp/Checks.h **** }
 7457              		.loc 5 27 5
 7458 00f1 488D8550 		leaq	-432(%rbp), %rax
 7458      FEFFFF
 7459 00f8 4889C7   		movq	%rax, %rdi
 7460              	.LEHB270:
 7461 00fb E8000000 		call	_ZN8UnitTest15MemoryOutStreamD1Ev
 7461      00
 7462              	.LEHE270:
 7463              	.LBE25:
 7464              	.LBE24:
 7465              		.loc 5 28 1
 7466 0100 EB21     		jmp	.L363
 7467              	.L362:
 7468 0102 F30F1EFA 		endbr64
 7469              	.LBB27:
 7470              	.LBB26:
  27:/home/pong/FPGALink/makestuff/libs/libutpp/Checks.h **** }
 7471              		.loc 5 27 5
 7472 0106 4889C3   		movq	%rax, %rbx
 7473 0109 488D8550 		leaq	-432(%rbp), %rax
 7473      FEFFFF
 7474 0110 4889C7   		movq	%rax, %rdi
 7475 0113 E8000000 		call	_ZN8UnitTest15MemoryOutStreamD1Ev
 7475      00
 7476 0118 4889D8   		movq	%rbx, %rax
 7477 011b 4889C7   		movq	%rax, %rdi
 7478              	.LEHB271:
 7479 011e E8000000 		call	_Unwind_Resume@PLT
 7479      00
 7480              	.LEHE271:
 7481              	.L363:
 7482              	.LBE26:
 7483              	.LBE27:
 7484              		.loc 5 28 1
 7485 0123 90       		nop
 7486 0124 488B45E8 		movq	-24(%rbp), %rax
 7487 0128 64482B04 		subq	%fs:40, %rax
 7487      25280000 
 7487      00
 7488 0131 7405     		je	.L361
 7489 0133 E8000000 		call	__stack_chk_fail@PLT
 7489      00
 7490              	.L361:
 7491 0138 488B5DF8 		movq	-8(%rbp), %rbx
 7492 013c C9       		leave
 7493              		.cfi_def_cfa 7, 8
 7494 013d C3       		ret
 7495              		.cfi_endproc
 7496              	.LFE1295:
 7497              		.section	.gcc_except_table
 7498              	.LLSDA1295:
 7499 0639 FF       		.byte	0xff
 7500 063a FF       		.byte	0xff
 7501 063b 01       		.byte	0x1
 7502 063c 13       		.uleb128 .LLSDACSE1295-.LLSDACSB1295
 7503              	.LLSDACSB1295:
 7504 063d 63       		.uleb128 .LEHB268-.LFB1295
 7505 063e 05       		.uleb128 .LEHE268-.LEHB268
 7506 063f 00       		.uleb128 0
 7507 0640 00       		.uleb128 0
 7508 0641 7C       		.uleb128 .LEHB269-.LFB1295
 7509 0642 75       		.uleb128 .LEHE269-.LEHB269
 7510 0643 8202     		.uleb128 .L362-.LFB1295
 7511 0645 00       		.uleb128 0
 7512 0646 FB01     		.uleb128 .LEHB270-.LFB1295
 7513 0648 05       		.uleb128 .LEHE270-.LEHB270
 7514 0649 00       		.uleb128 0
 7515 064a 00       		.uleb128 0
 7516 064b 9E02     		.uleb128 .LEHB271-.LFB1295
 7517 064d 05       		.uleb128 .LEHE271-.LEHB271
 7518 064e 00       		.uleb128 0
 7519 064f 00       		.uleb128 0
 7520              	.LLSDACSE1295:
 7521              		.section	.text._ZN8UnitTest10CheckEqualIihEEvRNS_11TestResultsERKT_RKT0_RKNS_11TestDetailsE,"axG",
 7523              		.section	.text._ZN8UnitTest10CheckEqualImmEEvRNS_11TestResultsERKT_RKT0_RKNS_11TestDetailsE,"axG",
 7524              		.weak	_ZN8UnitTest10CheckEqualImmEEvRNS_11TestResultsERKT_RKT0_RKNS_11TestDetailsE
 7526              	_ZN8UnitTest10CheckEqualImmEEvRNS_11TestResultsERKT_RKT0_RKNS_11TestDetailsE:
 7527              	.LFB1296:
  19:/home/pong/FPGALink/makestuff/libs/libutpp/Checks.h **** {
 7528              		.loc 5 19 6
 7529              		.cfi_startproc
 7530              		.cfi_personality 0x9b,DW.ref.__gxx_personality_v0
 7531              		.cfi_lsda 0x1b,.LLSDA1296
 7532 0000 F30F1EFA 		endbr64
 7533 0004 55       		pushq	%rbp
 7534              		.cfi_def_cfa_offset 16
 7535              		.cfi_offset 6, -16
 7536 0005 4889E5   		movq	%rsp, %rbp
 7537              		.cfi_def_cfa_register 6
 7538 0008 53       		pushq	%rbx
 7539 0009 4881ECC8 		subq	$456, %rsp
 7539      010000
 7540              		.cfi_offset 3, -24
 7541 0010 4889BD48 		movq	%rdi, -440(%rbp)
 7541      FEFFFF
 7542 0017 4889B540 		movq	%rsi, -448(%rbp)
 7542      FEFFFF
 7543 001e 48899538 		movq	%rdx, -456(%rbp)
 7543      FEFFFF
 7544 0025 48898D30 		movq	%rcx, -464(%rbp)
 7544      FEFFFF
  19:/home/pong/FPGALink/makestuff/libs/libutpp/Checks.h **** {
 7545              		.loc 5 19 6
 7546 002c 64488B04 		movq	%fs:40, %rax
 7546      25280000 
 7546      00
 7547 0035 488945E8 		movq	%rax, -24(%rbp)
 7548 0039 31C0     		xorl	%eax, %eax
 7549              	.LBB28:
  21:/home/pong/FPGALink/makestuff/libs/libutpp/Checks.h ****     {
 7550              		.loc 5 21 20
 7551 003b 488B8540 		movq	-448(%rbp), %rax
 7551      FEFFFF
 7552 0042 488B10   		movq	(%rax), %rdx
 7553 0045 488B8538 		movq	-456(%rbp), %rax
 7553      FEFFFF
 7554 004c 488B00   		movq	(%rax), %rax
  21:/home/pong/FPGALink/makestuff/libs/libutpp/Checks.h ****     {
 7555              		.loc 5 21 5
 7556 004f 4839C2   		cmpq	%rax, %rdx
 7557 0052 0F84CA00 		je	.L369
 7557      0000
 7558              	.LBB29:
  23:/home/pong/FPGALink/makestuff/libs/libutpp/Checks.h ****         stream << "Expected " << expected << " but was " << actual;
 7559              		.loc 5 23 35
 7560 0058 488D8550 		leaq	-432(%rbp), %rax
 7560      FEFFFF
 7561 005f 4889C7   		movq	%rax, %rdi
 7562              	.LEHB272:
 7563 0062 E8000000 		call	_ZN8UnitTest15MemoryOutStreamC1Ev
 7563      00
 7564              	.LEHE272:
  24:/home/pong/FPGALink/makestuff/libs/libutpp/Checks.h **** 
 7565              		.loc 5 24 16
 7566 0067 488D8550 		leaq	-432(%rbp), %rax
 7566      FEFFFF
 7567 006e 488D1500 		leaq	.LC77(%rip), %rdx
 7567      000000
 7568 0075 4889D6   		movq	%rdx, %rsi
 7569 0078 4889C7   		movq	%rax, %rdi
 7570              	.LEHB273:
 7571 007b E8000000 		call	_ZStlsISt11char_traitsIcEERSt13basic_ostreamIcT_ES5_PKc@PLT
 7571      00
 7572 0080 4889C2   		movq	%rax, %rdx
  24:/home/pong/FPGALink/makestuff/libs/libutpp/Checks.h **** 
 7573              		.loc 5 24 31
 7574 0083 488B8540 		movq	-448(%rbp), %rax
 7574      FEFFFF
 7575 008a 488B00   		movq	(%rax), %rax
 7576 008d 4889C6   		movq	%rax, %rsi
 7577 0090 4889D7   		movq	%rdx, %rdi
 7578 0093 E8000000 		call	_ZNSolsEm@PLT
 7578      00
  24:/home/pong/FPGALink/makestuff/libs/libutpp/Checks.h **** 
 7579              		.loc 5 24 31 is_stmt 0 discriminator 1
 7580 0098 4889C2   		movq	%rax, %rdx
  24:/home/pong/FPGALink/makestuff/libs/libutpp/Checks.h **** 
 7581              		.loc 5 24 43 is_stmt 1 discriminator 1
 7582 009b 488D0500 		leaq	.LC78(%rip), %rax
 7582      000000
 7583 00a2 4889C6   		movq	%rax, %rsi
 7584 00a5 4889D7   		movq	%rdx, %rdi
 7585 00a8 E8000000 		call	_ZStlsISt11char_traitsIcEERSt13basic_ostreamIcT_ES5_PKc@PLT
 7585      00
  24:/home/pong/FPGALink/makestuff/libs/libutpp/Checks.h **** 
 7586              		.loc 5 24 43 is_stmt 0 discriminator 2
 7587 00ad 4889C2   		movq	%rax, %rdx
  24:/home/pong/FPGALink/makestuff/libs/libutpp/Checks.h **** 
 7588              		.loc 5 24 58 is_stmt 1 discriminator 2
 7589 00b0 488B8538 		movq	-456(%rbp), %rax
 7589      FEFFFF
 7590 00b7 488B00   		movq	(%rax), %rax
 7591 00ba 4889C6   		movq	%rax, %rsi
 7592 00bd 4889D7   		movq	%rdx, %rdi
 7593 00c0 E8000000 		call	_ZNSolsEm@PLT
 7593      00
  26:/home/pong/FPGALink/makestuff/libs/libutpp/Checks.h ****     }
 7594              		.loc 5 26 30
 7595 00c5 488D8550 		leaq	-432(%rbp), %rax
 7595      FEFFFF
 7596 00cc 4889C7   		movq	%rax, %rdi
 7597 00cf E8000000 		call	_ZNK8UnitTest15MemoryOutStream7GetTextEv@PLT
 7597      00
 7598 00d4 4889C2   		movq	%rax, %rdx
 7599 00d7 488B8D30 		movq	-464(%rbp), %rcx
 7599      FEFFFF
 7600 00de 488B8548 		movq	-440(%rbp), %rax
 7600      FEFFFF
 7601 00e5 4889CE   		movq	%rcx, %rsi
 7602 00e8 4889C7   		movq	%rax, %rdi
 7603 00eb E8000000 		call	_ZN8UnitTest11TestResults13OnTestFailureERKNS_11TestDetailsEPKc@PLT
 7603      00
 7604              	.LEHE273:
  27:/home/pong/FPGALink/makestuff/libs/libutpp/Checks.h **** }
 7605              		.loc 5 27 5
 7606 00f0 488D8550 		leaq	-432(%rbp), %rax
 7606      FEFFFF
 7607 00f7 4889C7   		movq	%rax, %rdi
 7608              	.LEHB274:
 7609 00fa E8000000 		call	_ZN8UnitTest15MemoryOutStreamD1Ev
 7609      00
 7610              	.LEHE274:
 7611              	.LBE29:
 7612              	.LBE28:
 7613              		.loc 5 28 1
 7614 00ff EB21     		jmp	.L369
 7615              	.L368:
 7616 0101 F30F1EFA 		endbr64
 7617              	.LBB31:
 7618              	.LBB30:
  27:/home/pong/FPGALink/makestuff/libs/libutpp/Checks.h **** }
 7619              		.loc 5 27 5
 7620 0105 4889C3   		movq	%rax, %rbx
 7621 0108 488D8550 		leaq	-432(%rbp), %rax
 7621      FEFFFF
 7622 010f 4889C7   		movq	%rax, %rdi
 7623 0112 E8000000 		call	_ZN8UnitTest15MemoryOutStreamD1Ev
 7623      00
 7624 0117 4889D8   		movq	%rbx, %rax
 7625 011a 4889C7   		movq	%rax, %rdi
 7626              	.LEHB275:
 7627 011d E8000000 		call	_Unwind_Resume@PLT
 7627      00
 7628              	.LEHE275:
 7629              	.L369:
 7630              	.LBE30:
 7631              	.LBE31:
 7632              		.loc 5 28 1
 7633 0122 90       		nop
 7634 0123 488B45E8 		movq	-24(%rbp), %rax
 7635 0127 64482B04 		subq	%fs:40, %rax
 7635      25280000 
 7635      00
 7636 0130 7405     		je	.L367
 7637 0132 E8000000 		call	__stack_chk_fail@PLT
 7637      00
 7638              	.L367:
 7639 0137 488B5DF8 		movq	-8(%rbp), %rbx
 7640 013b C9       		leave
 7641              		.cfi_def_cfa 7, 8
 7642 013c C3       		ret
 7643              		.cfi_endproc
 7644              	.LFE1296:
 7645              		.section	.gcc_except_table
 7646              	.LLSDA1296:
 7647 0650 FF       		.byte	0xff
 7648 0651 FF       		.byte	0xff
 7649 0652 01       		.byte	0x1
 7650 0653 13       		.uleb128 .LLSDACSE1296-.LLSDACSB1296
 7651              	.LLSDACSB1296:
 7652 0654 62       		.uleb128 .LEHB272-.LFB1296
 7653 0655 05       		.uleb128 .LEHE272-.LEHB272
 7654 0656 00       		.uleb128 0
 7655 0657 00       		.uleb128 0
 7656 0658 7B       		.uleb128 .LEHB273-.LFB1296
 7657 0659 75       		.uleb128 .LEHE273-.LEHB273
 7658 065a 8102     		.uleb128 .L368-.LFB1296
 7659 065c 00       		.uleb128 0
 7660 065d FA01     		.uleb128 .LEHB274-.LFB1296
 7661 065f 05       		.uleb128 .LEHE274-.LEHB274
 7662 0660 00       		.uleb128 0
 7663 0661 00       		.uleb128 0
 7664 0662 9D02     		.uleb128 .LEHB275-.LFB1296
 7665 0664 05       		.uleb128 .LEHE275-.LEHB275
 7666 0665 00       		.uleb128 0
 7667 0666 00       		.uleb128 0
 7668              	.LLSDACSE1296:
 7669              		.section	.text._ZN8UnitTest10CheckEqualImmEEvRNS_11TestResultsERKT_RKT0_RKNS_11TestDetailsE,"axG",
 7671              		.section	.rodata
 7672              	.LC79:
 7673 0c95 45787065 		.string	"Expected [ "
 7673      63746564 
 7673      205B2000 
 7674              	.LC80:
 7675 0ca1 2000     		.string	" "
 7676              	.LC81:
 7677 0ca3 5D206275 		.string	"] but was [ "
 7677      74207761 
 7677      73205B20 
 7677      00
 7678              	.LC82:
 7679 0cb0 5D00     		.string	"]"
 7680              		.section	.text._ZN8UnitTest15CheckArrayEqualIA4_hPhEEvRNS_11TestResultsERKT_RKT0_iRKNS_11TestDetai
 7681              		.weak	_ZN8UnitTest15CheckArrayEqualIA4_hPhEEvRNS_11TestResultsERKT_RKT0_iRKNS_11TestDetailsE
 7683              	_ZN8UnitTest15CheckArrayEqualIA4_hPhEEvRNS_11TestResultsERKT_RKT0_iRKNS_11TestDetailsE:
 7684              	.LFB1297:
  29:/home/pong/FPGALink/makestuff/libs/libutpp/Checks.h **** 
  30:/home/pong/FPGALink/makestuff/libs/libutpp/Checks.h **** void CheckEqual(TestResults& results, char const* expected, char const* actual, TestDetails const& 
  31:/home/pong/FPGALink/makestuff/libs/libutpp/Checks.h **** 
  32:/home/pong/FPGALink/makestuff/libs/libutpp/Checks.h **** void CheckEqual(TestResults& results, char* expected, char* actual, TestDetails const& details);
  33:/home/pong/FPGALink/makestuff/libs/libutpp/Checks.h **** 
  34:/home/pong/FPGALink/makestuff/libs/libutpp/Checks.h **** void CheckEqual(TestResults& results, char* expected, char const* actual, TestDetails const& detail
  35:/home/pong/FPGALink/makestuff/libs/libutpp/Checks.h **** 
  36:/home/pong/FPGALink/makestuff/libs/libutpp/Checks.h **** void CheckEqual(TestResults& results, char const* expected, char* actual, TestDetails const& detail
  37:/home/pong/FPGALink/makestuff/libs/libutpp/Checks.h **** 
  38:/home/pong/FPGALink/makestuff/libs/libutpp/Checks.h **** template< typename Expected, typename Actual, typename Tolerance >
  39:/home/pong/FPGALink/makestuff/libs/libutpp/Checks.h **** bool AreClose(Expected const& expected, Actual const& actual, Tolerance const& tolerance)
  40:/home/pong/FPGALink/makestuff/libs/libutpp/Checks.h **** {
  41:/home/pong/FPGALink/makestuff/libs/libutpp/Checks.h ****     return (actual >= (expected - tolerance)) && (actual <= (expected + tolerance));
  42:/home/pong/FPGALink/makestuff/libs/libutpp/Checks.h **** }
  43:/home/pong/FPGALink/makestuff/libs/libutpp/Checks.h **** 
  44:/home/pong/FPGALink/makestuff/libs/libutpp/Checks.h **** template< typename Expected, typename Actual, typename Tolerance >
  45:/home/pong/FPGALink/makestuff/libs/libutpp/Checks.h **** void CheckClose(TestResults& results, Expected const& expected, Actual const& actual, Tolerance con
  46:/home/pong/FPGALink/makestuff/libs/libutpp/Checks.h ****                 TestDetails const& details)
  47:/home/pong/FPGALink/makestuff/libs/libutpp/Checks.h **** {
  48:/home/pong/FPGALink/makestuff/libs/libutpp/Checks.h ****     if (!AreClose(expected, actual, tolerance))
  49:/home/pong/FPGALink/makestuff/libs/libutpp/Checks.h ****     { 
  50:/home/pong/FPGALink/makestuff/libs/libutpp/Checks.h ****         UnitTest::MemoryOutStream stream;
  51:/home/pong/FPGALink/makestuff/libs/libutpp/Checks.h ****         stream << "Expected " << expected << " +/- " << tolerance << " but was " << actual;
  52:/home/pong/FPGALink/makestuff/libs/libutpp/Checks.h **** 
  53:/home/pong/FPGALink/makestuff/libs/libutpp/Checks.h ****         results.OnTestFailure(details, stream.GetText());
  54:/home/pong/FPGALink/makestuff/libs/libutpp/Checks.h ****     }
  55:/home/pong/FPGALink/makestuff/libs/libutpp/Checks.h **** }
  56:/home/pong/FPGALink/makestuff/libs/libutpp/Checks.h **** 
  57:/home/pong/FPGALink/makestuff/libs/libutpp/Checks.h **** 
  58:/home/pong/FPGALink/makestuff/libs/libutpp/Checks.h **** template< typename Expected, typename Actual >
  59:/home/pong/FPGALink/makestuff/libs/libutpp/Checks.h **** void CheckArrayEqual(TestResults& results, Expected const& expected, Actual const& actual,
 7685              		.loc 5 59 6
 7686              		.cfi_startproc
 7687              		.cfi_personality 0x9b,DW.ref.__gxx_personality_v0
 7688              		.cfi_lsda 0x1b,.LLSDA1297
 7689 0000 F30F1EFA 		endbr64
 7690 0004 55       		pushq	%rbp
 7691              		.cfi_def_cfa_offset 16
 7692              		.cfi_offset 6, -16
 7693 0005 4889E5   		movq	%rsp, %rbp
 7694              		.cfi_def_cfa_register 6
 7695 0008 53       		pushq	%rbx
 7696 0009 4881ECE8 		subq	$488, %rsp
 7696      010000
 7697              		.cfi_offset 3, -24
 7698 0010 4889BD38 		movq	%rdi, -456(%rbp)
 7698      FEFFFF
 7699 0017 4889B530 		movq	%rsi, -464(%rbp)
 7699      FEFFFF
 7700 001e 48899528 		movq	%rdx, -472(%rbp)
 7700      FEFFFF
 7701 0025 898D24FE 		movl	%ecx, -476(%rbp)
 7701      FFFF
 7702 002b 4C898518 		movq	%r8, -488(%rbp)
 7702      FEFFFF
 7703              		.loc 5 59 6
 7704 0032 64488B04 		movq	%fs:40, %rax
 7704      25280000 
 7704      00
 7705 003b 488945E8 		movq	%rax, -24(%rbp)
 7706 003f 31C0     		xorl	%eax, %eax
  60:/home/pong/FPGALink/makestuff/libs/libutpp/Checks.h ****                 int const count, TestDetails const& details)
  61:/home/pong/FPGALink/makestuff/libs/libutpp/Checks.h **** {
  62:/home/pong/FPGALink/makestuff/libs/libutpp/Checks.h ****     bool equal = true;
 7707              		.loc 5 62 10
 7708 0041 C68543FE 		movb	$1, -445(%rbp)
 7708      FFFF01
 7709              	.LBB32:
  63:/home/pong/FPGALink/makestuff/libs/libutpp/Checks.h ****     for (int i = 0; i < count; ++i)
 7710              		.loc 5 63 14
 7711 0048 C78544FE 		movl	$0, -444(%rbp)
 7711      FFFF0000 
 7711      0000
 7712              		.loc 5 63 5
 7713 0052 EB4E     		jmp	.L371
 7714              	.L372:
  64:/home/pong/FPGALink/makestuff/libs/libutpp/Checks.h ****         equal &= (expected[i] == actual[i]);
 7715              		.loc 5 64 15 discriminator 3
 7716 0054 0FB68D43 		movzbl	-445(%rbp), %ecx
 7716      FEFFFF
 7717              		.loc 5 64 27 discriminator 3
 7718 005b 488B9530 		movq	-464(%rbp), %rdx
 7718      FEFFFF
 7719 0062 8B8544FE 		movl	-444(%rbp), %eax
 7719      FFFF
 7720 0068 4898     		cltq
 7721 006a 0FB61402 		movzbl	(%rdx,%rax), %edx
 7722              		.loc 5 64 40 discriminator 3
 7723 006e 488B8528 		movq	-472(%rbp), %rax
 7723      FEFFFF
 7724 0075 488B30   		movq	(%rax), %rsi
 7725              		.loc 5 64 41 discriminator 3
 7726 0078 8B8544FE 		movl	-444(%rbp), %eax
 7726      FFFF
 7727 007e 4898     		cltq
 7728              		.loc 5 64 40 discriminator 3
 7729 0080 4801F0   		addq	%rsi, %rax
 7730              		.loc 5 64 31 discriminator 3
 7731 0083 0FB600   		movzbl	(%rax), %eax
 7732 0086 38C2     		cmpb	%al, %dl
 7733 0088 0F94C0   		sete	%al
 7734 008b 0FB6C0   		movzbl	%al, %eax
 7735              		.loc 5 64 15 discriminator 3
 7736 008e 21C8     		andl	%ecx, %eax
 7737 0090 85C0     		testl	%eax, %eax
 7738 0092 0F95C0   		setne	%al
 7739 0095 888543FE 		movb	%al, -445(%rbp)
 7739      FFFF
  63:/home/pong/FPGALink/makestuff/libs/libutpp/Checks.h ****     for (int i = 0; i < count; ++i)
 7740              		.loc 5 63 5 discriminator 3
 7741 009b 838544FE 		addl	$1, -444(%rbp)
 7741      FFFF01
 7742              	.L371:
  63:/home/pong/FPGALink/makestuff/libs/libutpp/Checks.h ****     for (int i = 0; i < count; ++i)
 7743              		.loc 5 63 23 discriminator 1
 7744 00a2 8B8544FE 		movl	-444(%rbp), %eax
 7744      FFFF
 7745 00a8 3B8524FE 		cmpl	-476(%rbp), %eax
 7745      FFFF
 7746 00ae 7CA4     		jl	.L372
 7747              	.LBE32:
 7748              	.LBB33:
  65:/home/pong/FPGALink/makestuff/libs/libutpp/Checks.h **** 
  66:/home/pong/FPGALink/makestuff/libs/libutpp/Checks.h ****     if (!equal)
 7749              		.loc 5 66 10
 7750 00b0 0FB68543 		movzbl	-445(%rbp), %eax
 7750      FEFFFF
 7751 00b7 83F001   		xorl	$1, %eax
 7752              		.loc 5 66 5
 7753 00ba 84C0     		testb	%al, %al
 7754 00bc 0F847601 		je	.L381
 7754      0000
 7755              	.LBB34:
  67:/home/pong/FPGALink/makestuff/libs/libutpp/Checks.h ****     {
  68:/home/pong/FPGALink/makestuff/libs/libutpp/Checks.h ****         UnitTest::MemoryOutStream stream;
 7756              		.loc 5 68 35
 7757 00c2 488D8550 		leaq	-432(%rbp), %rax
 7757      FEFFFF
 7758 00c9 4889C7   		movq	%rax, %rdi
 7759              	.LEHB276:
 7760 00cc E8000000 		call	_ZN8UnitTest15MemoryOutStreamC1Ev
 7760      00
 7761              	.LEHE276:
  69:/home/pong/FPGALink/makestuff/libs/libutpp/Checks.h **** 
  70:/home/pong/FPGALink/makestuff/libs/libutpp/Checks.h **** 		stream << "Expected [ ";
 7762              		.loc 5 70 10
 7763 00d1 488D8550 		leaq	-432(%rbp), %rax
 7763      FEFFFF
 7764 00d8 488D1500 		leaq	.LC79(%rip), %rdx
 7764      000000
 7765 00df 4889D6   		movq	%rdx, %rsi
 7766 00e2 4889C7   		movq	%rax, %rdi
 7767              	.LEHB277:
 7768 00e5 E8000000 		call	_ZStlsISt11char_traitsIcEERSt13basic_ostreamIcT_ES5_PKc@PLT
 7768      00
 7769              	.LBB35:
  71:/home/pong/FPGALink/makestuff/libs/libutpp/Checks.h **** 
  72:/home/pong/FPGALink/makestuff/libs/libutpp/Checks.h **** 		for (int expectedIndex = 0; expectedIndex < count; ++expectedIndex)
 7770              		.loc 5 72 12
 7771 00ea C78548FE 		movl	$0, -440(%rbp)
 7771      FFFF0000 
 7771      0000
 7772              		.loc 5 72 3
 7773 00f4 EB43     		jmp	.L374
 7774              	.L375:
  73:/home/pong/FPGALink/makestuff/libs/libutpp/Checks.h ****             stream << expected[expectedIndex] << " ";
 7775              		.loc 5 73 31
 7776 00f6 488B9530 		movq	-464(%rbp), %rdx
 7776      FEFFFF
 7777 00fd 8B8548FE 		movl	-440(%rbp), %eax
 7777      FFFF
 7778 0103 4898     		cltq
 7779 0105 0FB60402 		movzbl	(%rdx,%rax), %eax
 7780              		.loc 5 73 47
 7781 0109 0FB6D0   		movzbl	%al, %edx
 7782 010c 488D8550 		leaq	-432(%rbp), %rax
 7782      FEFFFF
 7783 0113 89D6     		movl	%edx, %esi
 7784 0115 4889C7   		movq	%rax, %rdi
 7785 0118 E8000000 		call	_ZStlsISt11char_traitsIcEERSt13basic_ostreamIcT_ES5_h@PLT
 7785      00
 7786 011d 4889C2   		movq	%rax, %rdx
 7787 0120 488D0500 		leaq	.LC80(%rip), %rax
 7787      000000
 7788 0127 4889C6   		movq	%rax, %rsi
 7789 012a 4889D7   		movq	%rdx, %rdi
 7790 012d E8000000 		call	_ZStlsISt11char_traitsIcEERSt13basic_ostreamIcT_ES5_PKc@PLT
 7790      00
  72:/home/pong/FPGALink/makestuff/libs/libutpp/Checks.h ****             stream << expected[expectedIndex] << " ";
 7791              		.loc 5 72 3 discriminator 2
 7792 0132 838548FE 		addl	$1, -440(%rbp)
 7792      FFFF01
 7793              	.L374:
  72:/home/pong/FPGALink/makestuff/libs/libutpp/Checks.h ****             stream << expected[expectedIndex] << " ";
 7794              		.loc 5 72 45 discriminator 1
 7795 0139 8B8548FE 		movl	-440(%rbp), %eax
 7795      FFFF
 7796 013f 3B8524FE 		cmpl	-476(%rbp), %eax
 7796      FFFF
 7797 0145 7CAF     		jl	.L375
 7798              	.LBE35:
  74:/home/pong/FPGALink/makestuff/libs/libutpp/Checks.h **** 
  75:/home/pong/FPGALink/makestuff/libs/libutpp/Checks.h **** 		stream << "] but was [ ";
 7799              		.loc 5 75 10
 7800 0147 488D8550 		leaq	-432(%rbp), %rax
 7800      FEFFFF
 7801 014e 488D1500 		leaq	.LC81(%rip), %rdx
 7801      000000
 7802 0155 4889D6   		movq	%rdx, %rsi
 7803 0158 4889C7   		movq	%rax, %rdi
 7804 015b E8000000 		call	_ZStlsISt11char_traitsIcEERSt13basic_ostreamIcT_ES5_PKc@PLT
 7804      00
 7805              	.LBB36:
  76:/home/pong/FPGALink/makestuff/libs/libutpp/Checks.h **** 
  77:/home/pong/FPGALink/makestuff/libs/libutpp/Checks.h **** 		for (int actualIndex = 0; actualIndex < count; ++actualIndex)
 7806              		.loc 5 77 12
 7807 0160 C7854CFE 		movl	$0, -436(%rbp)
 7807      FFFF0000 
 7807      0000
 7808              		.loc 5 77 3
 7809 016a EB48     		jmp	.L376
 7810              	.L377:
  78:/home/pong/FPGALink/makestuff/libs/libutpp/Checks.h ****             stream << actual[actualIndex] << " ";
 7811              		.loc 5 78 29
 7812 016c 488B8528 		movq	-472(%rbp), %rax
 7812      FEFFFF
 7813 0173 488B10   		movq	(%rax), %rdx
 7814              		.loc 5 78 30
 7815 0176 8B854CFE 		movl	-436(%rbp), %eax
 7815      FFFF
 7816 017c 4898     		cltq
 7817              		.loc 5 78 29
 7818 017e 4801D0   		addq	%rdx, %rax
 7819 0181 0FB600   		movzbl	(%rax), %eax
 7820              		.loc 5 78 43
 7821 0184 0FB6D0   		movzbl	%al, %edx
 7822 0187 488D8550 		leaq	-432(%rbp), %rax
 7822      FEFFFF
 7823 018e 89D6     		movl	%edx, %esi
 7824 0190 4889C7   		movq	%rax, %rdi
 7825 0193 E8000000 		call	_ZStlsISt11char_traitsIcEERSt13basic_ostreamIcT_ES5_h@PLT
 7825      00
 7826 0198 4889C2   		movq	%rax, %rdx
 7827 019b 488D0500 		leaq	.LC80(%rip), %rax
 7827      000000
 7828 01a2 4889C6   		movq	%rax, %rsi
 7829 01a5 4889D7   		movq	%rdx, %rdi
 7830 01a8 E8000000 		call	_ZStlsISt11char_traitsIcEERSt13basic_ostreamIcT_ES5_PKc@PLT
 7830      00
  77:/home/pong/FPGALink/makestuff/libs/libutpp/Checks.h ****             stream << actual[actualIndex] << " ";
 7831              		.loc 5 77 3 discriminator 2
 7832 01ad 83854CFE 		addl	$1, -436(%rbp)
 7832      FFFF01
 7833              	.L376:
  77:/home/pong/FPGALink/makestuff/libs/libutpp/Checks.h ****             stream << actual[actualIndex] << " ";
 7834              		.loc 5 77 41 discriminator 1
 7835 01b4 8B854CFE 		movl	-436(%rbp), %eax
 7835      FFFF
 7836 01ba 3B8524FE 		cmpl	-476(%rbp), %eax
 7836      FFFF
 7837 01c0 7CAA     		jl	.L377
 7838              	.LBE36:
  79:/home/pong/FPGALink/makestuff/libs/libutpp/Checks.h **** 
  80:/home/pong/FPGALink/makestuff/libs/libutpp/Checks.h **** 		stream << "]";
 7839              		.loc 5 80 10
 7840 01c2 488D8550 		leaq	-432(%rbp), %rax
 7840      FEFFFF
 7841 01c9 488D1500 		leaq	.LC82(%rip), %rdx
 7841      000000
 7842 01d0 4889D6   		movq	%rdx, %rsi
 7843 01d3 4889C7   		movq	%rax, %rdi
 7844 01d6 E8000000 		call	_ZStlsISt11char_traitsIcEERSt13basic_ostreamIcT_ES5_PKc@PLT
 7844      00
  81:/home/pong/FPGALink/makestuff/libs/libutpp/Checks.h **** 
  82:/home/pong/FPGALink/makestuff/libs/libutpp/Checks.h ****         results.OnTestFailure(details, stream.GetText());
 7845              		.loc 5 82 30
 7846 01db 488D8550 		leaq	-432(%rbp), %rax
 7846      FEFFFF
 7847 01e2 4889C7   		movq	%rax, %rdi
 7848 01e5 E8000000 		call	_ZNK8UnitTest15MemoryOutStream7GetTextEv@PLT
 7848      00
 7849 01ea 4889C2   		movq	%rax, %rdx
 7850 01ed 488B8D18 		movq	-488(%rbp), %rcx
 7850      FEFFFF
 7851 01f4 488B8538 		movq	-456(%rbp), %rax
 7851      FEFFFF
 7852 01fb 4889CE   		movq	%rcx, %rsi
 7853 01fe 4889C7   		movq	%rax, %rdi
 7854 0201 E8000000 		call	_ZN8UnitTest11TestResults13OnTestFailureERKNS_11TestDetailsEPKc@PLT
 7854      00
 7855              	.LEHE277:
  83:/home/pong/FPGALink/makestuff/libs/libutpp/Checks.h ****     }
 7856              		.loc 5 83 5
 7857 0206 488D8550 		leaq	-432(%rbp), %rax
 7857      FEFFFF
 7858 020d 4889C7   		movq	%rax, %rdi
 7859              	.LEHB278:
 7860 0210 E8000000 		call	_ZN8UnitTest15MemoryOutStreamD1Ev
 7860      00
 7861              	.LEHE278:
 7862              	.LBE34:
 7863              	.LBE33:
  84:/home/pong/FPGALink/makestuff/libs/libutpp/Checks.h **** }
 7864              		.loc 5 84 1
 7865 0215 EB21     		jmp	.L381
 7866              	.L380:
 7867 0217 F30F1EFA 		endbr64
 7868              	.LBB38:
 7869              	.LBB37:
  83:/home/pong/FPGALink/makestuff/libs/libutpp/Checks.h ****     }
 7870              		.loc 5 83 5
 7871 021b 4889C3   		movq	%rax, %rbx
 7872 021e 488D8550 		leaq	-432(%rbp), %rax
 7872      FEFFFF
 7873 0225 4889C7   		movq	%rax, %rdi
 7874 0228 E8000000 		call	_ZN8UnitTest15MemoryOutStreamD1Ev
 7874      00
 7875 022d 4889D8   		movq	%rbx, %rax
 7876 0230 4889C7   		movq	%rax, %rdi
 7877              	.LEHB279:
 7878 0233 E8000000 		call	_Unwind_Resume@PLT
 7878      00
 7879              	.LEHE279:
 7880              	.L381:
 7881              	.LBE37:
 7882              	.LBE38:
 7883              		.loc 5 84 1
 7884 0238 90       		nop
 7885 0239 488B45E8 		movq	-24(%rbp), %rax
 7886 023d 64482B04 		subq	%fs:40, %rax
 7886      25280000 
 7886      00
 7887 0246 7405     		je	.L379
 7888 0248 E8000000 		call	__stack_chk_fail@PLT
 7888      00
 7889              	.L379:
 7890 024d 488B5DF8 		movq	-8(%rbp), %rbx
 7891 0251 C9       		leave
 7892              		.cfi_def_cfa 7, 8
 7893 0252 C3       		ret
 7894              		.cfi_endproc
 7895              	.LFE1297:
 7896              		.section	.gcc_except_table
 7897              	.LLSDA1297:
 7898 0667 FF       		.byte	0xff
 7899 0668 FF       		.byte	0xff
 7900 0669 01       		.byte	0x1
 7901 066a 16       		.uleb128 .LLSDACSE1297-.LLSDACSB1297
 7902              	.LLSDACSB1297:
 7903 066b CC01     		.uleb128 .LEHB276-.LFB1297
 7904 066d 05       		.uleb128 .LEHE276-.LEHB276
 7905 066e 00       		.uleb128 0
 7906 066f 00       		.uleb128 0
 7907 0670 E501     		.uleb128 .LEHB277-.LFB1297
 7908 0672 A102     		.uleb128 .LEHE277-.LEHB277
 7909 0674 9704     		.uleb128 .L380-.LFB1297
 7910 0676 00       		.uleb128 0
 7911 0677 9004     		.uleb128 .LEHB278-.LFB1297
 7912 0679 05       		.uleb128 .LEHE278-.LEHB278
 7913 067a 00       		.uleb128 0
 7914 067b 00       		.uleb128 0
 7915 067c B304     		.uleb128 .LEHB279-.LFB1297
 7916 067e 05       		.uleb128 .LEHE279-.LEHB279
 7917 067f 00       		.uleb128 0
 7918 0680 00       		.uleb128 0
 7919              	.LLSDACSE1297:
 7920              		.section	.text._ZN8UnitTest15CheckArrayEqualIA4_hPhEEvRNS_11TestResultsERKT_RKT0_iRKNS_11TestDetai
 7922              		.section	.text._ZN8UnitTest5CheckIbEEbT_,"axG",@progbits,_ZN8UnitTest5CheckIbEEbT_,comdat
 7923              		.weak	_ZN8UnitTest5CheckIbEEbT_
 7925              	_ZN8UnitTest5CheckIbEEbT_:
 7926              	.LFB1309:
  12:/home/pong/FPGALink/makestuff/libs/libutpp/Checks.h **** {
 7927              		.loc 5 12 6
 7928              		.cfi_startproc
 7929 0000 F30F1EFA 		endbr64
 7930 0004 55       		pushq	%rbp
 7931              		.cfi_def_cfa_offset 16
 7932              		.cfi_offset 6, -16
 7933 0005 4889E5   		movq	%rsp, %rbp
 7934              		.cfi_def_cfa_register 6
 7935 0008 89F8     		movl	%edi, %eax
 7936 000a 8845FC   		movb	%al, -4(%rbp)
  14:/home/pong/FPGALink/makestuff/libs/libutpp/Checks.h **** }
 7937              		.loc 5 14 14
 7938 000d 0FB645FC 		movzbl	-4(%rbp), %eax
  15:/home/pong/FPGALink/makestuff/libs/libutpp/Checks.h **** 
 7939              		.loc 5 15 1
 7940 0011 5D       		popq	%rbp
 7941              		.cfi_def_cfa 7, 8
 7942 0012 C3       		ret
 7943              		.cfi_endproc
 7944              	.LFE1309:
 7946              		.section	.text._ZNKSt4fposI11__mbstate_tEcvlEv,"axG",@progbits,_ZNKSt4fposI11__mbstate_tEcvlEv,com
 7947              		.align 2
 7948              		.weak	_ZNKSt4fposI11__mbstate_tEcvlEv
 7950              	_ZNKSt4fposI11__mbstate_tEcvlEv:
 7951              	.LFB1310:
 7952              		.file 6 "/usr/include/c++/11/bits/postypes.h"
   1:/usr/include/c++/11/bits/postypes.h **** // Position types -*- C++ -*-
   2:/usr/include/c++/11/bits/postypes.h **** 
   3:/usr/include/c++/11/bits/postypes.h **** // Copyright (C) 1997-2021 Free Software Foundation, Inc.
   4:/usr/include/c++/11/bits/postypes.h **** //
   5:/usr/include/c++/11/bits/postypes.h **** // This file is part of the GNU ISO C++ Library.  This library is free
   6:/usr/include/c++/11/bits/postypes.h **** // software; you can redistribute it and/or modify it under the
   7:/usr/include/c++/11/bits/postypes.h **** // terms of the GNU General Public License as published by the
   8:/usr/include/c++/11/bits/postypes.h **** // Free Software Foundation; either version 3, or (at your option)
   9:/usr/include/c++/11/bits/postypes.h **** // any later version.
  10:/usr/include/c++/11/bits/postypes.h **** 
  11:/usr/include/c++/11/bits/postypes.h **** // This library is distributed in the hope that it will be useful,
  12:/usr/include/c++/11/bits/postypes.h **** // but WITHOUT ANY WARRANTY; without even the implied warranty of
  13:/usr/include/c++/11/bits/postypes.h **** // MERCHANTABILITY or FITNESS FOR A PARTICULAR PURPOSE.  See the
  14:/usr/include/c++/11/bits/postypes.h **** // GNU General Public License for more details.
  15:/usr/include/c++/11/bits/postypes.h **** 
  16:/usr/include/c++/11/bits/postypes.h **** // Under Section 7 of GPL version 3, you are granted additional
  17:/usr/include/c++/11/bits/postypes.h **** // permissions described in the GCC Runtime Library Exception, version
  18:/usr/include/c++/11/bits/postypes.h **** // 3.1, as published by the Free Software Foundation.
  19:/usr/include/c++/11/bits/postypes.h **** 
  20:/usr/include/c++/11/bits/postypes.h **** // You should have received a copy of the GNU General Public License and
  21:/usr/include/c++/11/bits/postypes.h **** // a copy of the GCC Runtime Library Exception along with this program;
  22:/usr/include/c++/11/bits/postypes.h **** // see the files COPYING3 and COPYING.RUNTIME respectively.  If not, see
  23:/usr/include/c++/11/bits/postypes.h **** // <http://www.gnu.org/licenses/>.
  24:/usr/include/c++/11/bits/postypes.h **** 
  25:/usr/include/c++/11/bits/postypes.h **** /** @file bits/postypes.h
  26:/usr/include/c++/11/bits/postypes.h ****  *  This is an internal header file, included by other library headers.
  27:/usr/include/c++/11/bits/postypes.h ****  *  Do not attempt to use it directly. @headername{iosfwd}
  28:/usr/include/c++/11/bits/postypes.h ****  */
  29:/usr/include/c++/11/bits/postypes.h **** 
  30:/usr/include/c++/11/bits/postypes.h **** //
  31:/usr/include/c++/11/bits/postypes.h **** // ISO C++ 14882: 27.4.1 - Types
  32:/usr/include/c++/11/bits/postypes.h **** // ISO C++ 14882: 27.4.3 - Template class fpos
  33:/usr/include/c++/11/bits/postypes.h **** //
  34:/usr/include/c++/11/bits/postypes.h **** 
  35:/usr/include/c++/11/bits/postypes.h **** #ifndef _GLIBCXX_POSTYPES_H
  36:/usr/include/c++/11/bits/postypes.h **** #define _GLIBCXX_POSTYPES_H 1
  37:/usr/include/c++/11/bits/postypes.h **** 
  38:/usr/include/c++/11/bits/postypes.h **** #pragma GCC system_header
  39:/usr/include/c++/11/bits/postypes.h **** 
  40:/usr/include/c++/11/bits/postypes.h **** #include <cwchar> // For mbstate_t
  41:/usr/include/c++/11/bits/postypes.h **** 
  42:/usr/include/c++/11/bits/postypes.h **** // XXX If <stdint.h> is really needed, make sure to define the macros
  43:/usr/include/c++/11/bits/postypes.h **** // before including it, in order not to break <tr1/cstdint> (and <cstdint>
  44:/usr/include/c++/11/bits/postypes.h **** // in C++11).  Reconsider all this as soon as possible...
  45:/usr/include/c++/11/bits/postypes.h **** #if (defined(_GLIBCXX_HAVE_INT64_T) && !defined(_GLIBCXX_HAVE_INT64_T_LONG) \
  46:/usr/include/c++/11/bits/postypes.h ****      && !defined(_GLIBCXX_HAVE_INT64_T_LONG_LONG))
  47:/usr/include/c++/11/bits/postypes.h **** 
  48:/usr/include/c++/11/bits/postypes.h **** #ifndef __STDC_LIMIT_MACROS
  49:/usr/include/c++/11/bits/postypes.h **** # define _UNDEF__STDC_LIMIT_MACROS
  50:/usr/include/c++/11/bits/postypes.h **** # define __STDC_LIMIT_MACROS
  51:/usr/include/c++/11/bits/postypes.h **** #endif
  52:/usr/include/c++/11/bits/postypes.h **** #ifndef __STDC_CONSTANT_MACROS
  53:/usr/include/c++/11/bits/postypes.h **** # define _UNDEF__STDC_CONSTANT_MACROS
  54:/usr/include/c++/11/bits/postypes.h **** # define __STDC_CONSTANT_MACROS
  55:/usr/include/c++/11/bits/postypes.h **** #endif
  56:/usr/include/c++/11/bits/postypes.h **** #include <stdint.h> // For int64_t
  57:/usr/include/c++/11/bits/postypes.h **** #ifdef _UNDEF__STDC_LIMIT_MACROS
  58:/usr/include/c++/11/bits/postypes.h **** # undef __STDC_LIMIT_MACROS
  59:/usr/include/c++/11/bits/postypes.h **** # undef _UNDEF__STDC_LIMIT_MACROS
  60:/usr/include/c++/11/bits/postypes.h **** #endif
  61:/usr/include/c++/11/bits/postypes.h **** #ifdef _UNDEF__STDC_CONSTANT_MACROS
  62:/usr/include/c++/11/bits/postypes.h **** # undef __STDC_CONSTANT_MACROS
  63:/usr/include/c++/11/bits/postypes.h **** # undef _UNDEF__STDC_CONSTANT_MACROS
  64:/usr/include/c++/11/bits/postypes.h **** #endif
  65:/usr/include/c++/11/bits/postypes.h **** 
  66:/usr/include/c++/11/bits/postypes.h **** #endif
  67:/usr/include/c++/11/bits/postypes.h **** 
  68:/usr/include/c++/11/bits/postypes.h **** namespace std _GLIBCXX_VISIBILITY(default)
  69:/usr/include/c++/11/bits/postypes.h **** {
  70:/usr/include/c++/11/bits/postypes.h **** _GLIBCXX_BEGIN_NAMESPACE_VERSION
  71:/usr/include/c++/11/bits/postypes.h **** 
  72:/usr/include/c++/11/bits/postypes.h ****   // The types streamoff, streampos and wstreampos and the class
  73:/usr/include/c++/11/bits/postypes.h ****   // template fpos<> are described in clauses 21.1.2, 21.1.3, 27.1.2,
  74:/usr/include/c++/11/bits/postypes.h ****   // 27.2, 27.4.1, 27.4.3 and D.6. Despite all this verbiage, the
  75:/usr/include/c++/11/bits/postypes.h ****   // behaviour of these types is mostly implementation defined or
  76:/usr/include/c++/11/bits/postypes.h ****   // unspecified. The behaviour in this implementation is as noted
  77:/usr/include/c++/11/bits/postypes.h ****   // below.
  78:/usr/include/c++/11/bits/postypes.h **** 
  79:/usr/include/c++/11/bits/postypes.h ****   /**
  80:/usr/include/c++/11/bits/postypes.h ****    *  @brief  Type used by fpos, char_traits<char>, and char_traits<wchar_t>.
  81:/usr/include/c++/11/bits/postypes.h ****    *
  82:/usr/include/c++/11/bits/postypes.h ****    *  In clauses 21.1.3.1 and 27.4.1 streamoff is described as an
  83:/usr/include/c++/11/bits/postypes.h ****    *  implementation defined type.
  84:/usr/include/c++/11/bits/postypes.h ****    *  Note: In versions of GCC up to and including GCC 3.3, streamoff
  85:/usr/include/c++/11/bits/postypes.h ****    *  was typedef long.
  86:/usr/include/c++/11/bits/postypes.h ****   */  
  87:/usr/include/c++/11/bits/postypes.h **** #ifdef _GLIBCXX_HAVE_INT64_T_LONG
  88:/usr/include/c++/11/bits/postypes.h ****   typedef long          streamoff;
  89:/usr/include/c++/11/bits/postypes.h **** #elif defined(_GLIBCXX_HAVE_INT64_T_LONG_LONG)
  90:/usr/include/c++/11/bits/postypes.h ****   typedef long long     streamoff;
  91:/usr/include/c++/11/bits/postypes.h **** #elif defined(_GLIBCXX_HAVE_INT64_T) 
  92:/usr/include/c++/11/bits/postypes.h ****   typedef int64_t       streamoff;
  93:/usr/include/c++/11/bits/postypes.h **** #else
  94:/usr/include/c++/11/bits/postypes.h ****   typedef long long     streamoff;
  95:/usr/include/c++/11/bits/postypes.h **** #endif
  96:/usr/include/c++/11/bits/postypes.h **** 
  97:/usr/include/c++/11/bits/postypes.h ****   /// Integral type for I/O operation counts and buffer sizes.
  98:/usr/include/c++/11/bits/postypes.h ****   typedef ptrdiff_t	streamsize; // Signed integral type
  99:/usr/include/c++/11/bits/postypes.h **** 
 100:/usr/include/c++/11/bits/postypes.h ****   /**
 101:/usr/include/c++/11/bits/postypes.h ****    *  @brief  Class representing stream positions.
 102:/usr/include/c++/11/bits/postypes.h ****    *
 103:/usr/include/c++/11/bits/postypes.h ****    *  The standard places no requirements upon the template parameter StateT.
 104:/usr/include/c++/11/bits/postypes.h ****    *  In this implementation StateT must be DefaultConstructible,
 105:/usr/include/c++/11/bits/postypes.h ****    *  CopyConstructible and Assignable.  The standard only requires that fpos
 106:/usr/include/c++/11/bits/postypes.h ****    *  should contain a member of type StateT. In this implementation it also
 107:/usr/include/c++/11/bits/postypes.h ****    *  contains an offset stored as a signed integer.
 108:/usr/include/c++/11/bits/postypes.h ****    *
 109:/usr/include/c++/11/bits/postypes.h ****    *  @param  StateT  Type passed to and returned from state().
 110:/usr/include/c++/11/bits/postypes.h ****    */
 111:/usr/include/c++/11/bits/postypes.h ****   template<typename _StateT>
 112:/usr/include/c++/11/bits/postypes.h ****     class fpos
 113:/usr/include/c++/11/bits/postypes.h ****     {
 114:/usr/include/c++/11/bits/postypes.h ****     private:
 115:/usr/include/c++/11/bits/postypes.h ****       streamoff	                _M_off;
 116:/usr/include/c++/11/bits/postypes.h ****       _StateT			_M_state;
 117:/usr/include/c++/11/bits/postypes.h **** 
 118:/usr/include/c++/11/bits/postypes.h ****     public:
 119:/usr/include/c++/11/bits/postypes.h ****       // The standard doesn't require that fpos objects can be default
 120:/usr/include/c++/11/bits/postypes.h ****       // constructed. This implementation provides a default
 121:/usr/include/c++/11/bits/postypes.h ****       // constructor that initializes the offset to 0 and default
 122:/usr/include/c++/11/bits/postypes.h ****       // constructs the state.
 123:/usr/include/c++/11/bits/postypes.h ****       fpos()
 124:/usr/include/c++/11/bits/postypes.h ****       : _M_off(0), _M_state() { }
 125:/usr/include/c++/11/bits/postypes.h **** 
 126:/usr/include/c++/11/bits/postypes.h ****       // The standard requires that fpos objects can be constructed
 127:/usr/include/c++/11/bits/postypes.h ****       // from streamoff objects using the constructor syntax, and
 128:/usr/include/c++/11/bits/postypes.h ****       // fails to give any meaningful semantics. In this
 129:/usr/include/c++/11/bits/postypes.h ****       // implementation implicit conversion is also allowed, and this
 130:/usr/include/c++/11/bits/postypes.h ****       // constructor stores the streamoff as the offset and default
 131:/usr/include/c++/11/bits/postypes.h ****       // constructs the state.
 132:/usr/include/c++/11/bits/postypes.h ****       /// Construct position from offset.
 133:/usr/include/c++/11/bits/postypes.h ****       fpos(streamoff __off)
 134:/usr/include/c++/11/bits/postypes.h ****       : _M_off(__off), _M_state() { }
 135:/usr/include/c++/11/bits/postypes.h **** 
 136:/usr/include/c++/11/bits/postypes.h **** #if __cplusplus >= 201103L
 137:/usr/include/c++/11/bits/postypes.h ****       fpos(const fpos&) = default;
 138:/usr/include/c++/11/bits/postypes.h ****       fpos& operator=(const fpos&) = default;
 139:/usr/include/c++/11/bits/postypes.h ****       ~fpos() = default;
 140:/usr/include/c++/11/bits/postypes.h **** #endif
 141:/usr/include/c++/11/bits/postypes.h **** 
 142:/usr/include/c++/11/bits/postypes.h ****       /// Convert to streamoff.
 143:/usr/include/c++/11/bits/postypes.h ****       operator streamoff() const { return _M_off; }
 7953              		.loc 6 143 7
 7954              		.cfi_startproc
 7955 0000 F30F1EFA 		endbr64
 7956 0004 55       		pushq	%rbp
 7957              		.cfi_def_cfa_offset 16
 7958              		.cfi_offset 6, -16
 7959 0005 4889E5   		movq	%rsp, %rbp
 7960              		.cfi_def_cfa_register 6
 7961 0008 48897DF8 		movq	%rdi, -8(%rbp)
 7962              		.loc 6 143 43
 7963 000c 488B45F8 		movq	-8(%rbp), %rax
 7964 0010 488B00   		movq	(%rax), %rax
 7965              		.loc 6 143 51
 7966 0013 5D       		popq	%rbp
 7967              		.cfi_def_cfa 7, 8
 7968 0014 C3       		ret
 7969              		.cfi_endproc
 7970              	.LFE1310:
 7972              		.section	.text._ZN8UnitTest10CheckEqualImjEEvRNS_11TestResultsERKT_RKT0_RKNS_11TestDetailsE,"axG",
 7973              		.weak	_ZN8UnitTest10CheckEqualImjEEvRNS_11TestResultsERKT_RKT0_RKNS_11TestDetailsE
 7975              	_ZN8UnitTest10CheckEqualImjEEvRNS_11TestResultsERKT_RKT0_RKNS_11TestDetailsE:
 7976              	.LFB1312:
  19:/home/pong/FPGALink/makestuff/libs/libutpp/Checks.h **** {
 7977              		.loc 5 19 6
 7978              		.cfi_startproc
 7979              		.cfi_personality 0x9b,DW.ref.__gxx_personality_v0
 7980              		.cfi_lsda 0x1b,.LLSDA1312
 7981 0000 F30F1EFA 		endbr64
 7982 0004 55       		pushq	%rbp
 7983              		.cfi_def_cfa_offset 16
 7984              		.cfi_offset 6, -16
 7985 0005 4889E5   		movq	%rsp, %rbp
 7986              		.cfi_def_cfa_register 6
 7987 0008 53       		pushq	%rbx
 7988 0009 4881ECC8 		subq	$456, %rsp
 7988      010000
 7989              		.cfi_offset 3, -24
 7990 0010 4889BD48 		movq	%rdi, -440(%rbp)
 7990      FEFFFF
 7991 0017 4889B540 		movq	%rsi, -448(%rbp)
 7991      FEFFFF
 7992 001e 48899538 		movq	%rdx, -456(%rbp)
 7992      FEFFFF
 7993 0025 48898D30 		movq	%rcx, -464(%rbp)
 7993      FEFFFF
  19:/home/pong/FPGALink/makestuff/libs/libutpp/Checks.h **** {
 7994              		.loc 5 19 6
 7995 002c 64488B04 		movq	%fs:40, %rax
 7995      25280000 
 7995      00
 7996 0035 488945E8 		movq	%rax, -24(%rbp)
 7997 0039 31C0     		xorl	%eax, %eax
 7998              	.LBB39:
  21:/home/pong/FPGALink/makestuff/libs/libutpp/Checks.h ****     {
 7999              		.loc 5 21 20
 8000 003b 488B8540 		movq	-448(%rbp), %rax
 8000      FEFFFF
 8001 0042 488B10   		movq	(%rax), %rdx
 8002 0045 488B8538 		movq	-456(%rbp), %rax
 8002      FEFFFF
 8003 004c 8B00     		movl	(%rax), %eax
 8004 004e 89C0     		movl	%eax, %eax
  21:/home/pong/FPGALink/makestuff/libs/libutpp/Checks.h ****     {
 8005              		.loc 5 21 5
 8006 0050 4839C2   		cmpq	%rax, %rdx
 8007 0053 0F84C800 		je	.L391
 8007      0000
 8008              	.LBB40:
  23:/home/pong/FPGALink/makestuff/libs/libutpp/Checks.h ****         stream << "Expected " << expected << " but was " << actual;
 8009              		.loc 5 23 35
 8010 0059 488D8550 		leaq	-432(%rbp), %rax
 8010      FEFFFF
 8011 0060 4889C7   		movq	%rax, %rdi
 8012              	.LEHB280:
 8013 0063 E8000000 		call	_ZN8UnitTest15MemoryOutStreamC1Ev
 8013      00
 8014              	.LEHE280:
  24:/home/pong/FPGALink/makestuff/libs/libutpp/Checks.h **** 
 8015              		.loc 5 24 16
 8016 0068 488D8550 		leaq	-432(%rbp), %rax
 8016      FEFFFF
 8017 006f 488D1500 		leaq	.LC77(%rip), %rdx
 8017      000000
 8018 0076 4889D6   		movq	%rdx, %rsi
 8019 0079 4889C7   		movq	%rax, %rdi
 8020              	.LEHB281:
 8021 007c E8000000 		call	_ZStlsISt11char_traitsIcEERSt13basic_ostreamIcT_ES5_PKc@PLT
 8021      00
 8022 0081 4889C2   		movq	%rax, %rdx
  24:/home/pong/FPGALink/makestuff/libs/libutpp/Checks.h **** 
 8023              		.loc 5 24 31
 8024 0084 488B8540 		movq	-448(%rbp), %rax
 8024      FEFFFF
 8025 008b 488B00   		movq	(%rax), %rax
 8026 008e 4889C6   		movq	%rax, %rsi
 8027 0091 4889D7   		movq	%rdx, %rdi
 8028 0094 E8000000 		call	_ZNSolsEm@PLT
 8028      00
  24:/home/pong/FPGALink/makestuff/libs/libutpp/Checks.h **** 
 8029              		.loc 5 24 31 is_stmt 0 discriminator 1
 8030 0099 4889C2   		movq	%rax, %rdx
  24:/home/pong/FPGALink/makestuff/libs/libutpp/Checks.h **** 
 8031              		.loc 5 24 43 is_stmt 1 discriminator 1
 8032 009c 488D0500 		leaq	.LC78(%rip), %rax
 8032      000000
 8033 00a3 4889C6   		movq	%rax, %rsi
 8034 00a6 4889D7   		movq	%rdx, %rdi
 8035 00a9 E8000000 		call	_ZStlsISt11char_traitsIcEERSt13basic_ostreamIcT_ES5_PKc@PLT
 8035      00
  24:/home/pong/FPGALink/makestuff/libs/libutpp/Checks.h **** 
 8036              		.loc 5 24 43 is_stmt 0 discriminator 2
 8037 00ae 4889C2   		movq	%rax, %rdx
  24:/home/pong/FPGALink/makestuff/libs/libutpp/Checks.h **** 
 8038              		.loc 5 24 58 is_stmt 1 discriminator 2
 8039 00b1 488B8538 		movq	-456(%rbp), %rax
 8039      FEFFFF
 8040 00b8 8B00     		movl	(%rax), %eax
 8041 00ba 89C6     		movl	%eax, %esi
 8042 00bc 4889D7   		movq	%rdx, %rdi
 8043 00bf E8000000 		call	_ZNSolsEj@PLT
 8043      00
  26:/home/pong/FPGALink/makestuff/libs/libutpp/Checks.h ****     }
 8044              		.loc 5 26 30
 8045 00c4 488D8550 		leaq	-432(%rbp), %rax
 8045      FEFFFF
 8046 00cb 4889C7   		movq	%rax, %rdi
 8047 00ce E8000000 		call	_ZNK8UnitTest15MemoryOutStream7GetTextEv@PLT
 8047      00
 8048 00d3 4889C2   		movq	%rax, %rdx
 8049 00d6 488B8D30 		movq	-464(%rbp), %rcx
 8049      FEFFFF
 8050 00dd 488B8548 		movq	-440(%rbp), %rax
 8050      FEFFFF
 8051 00e4 4889CE   		movq	%rcx, %rsi
 8052 00e7 4889C7   		movq	%rax, %rdi
 8053 00ea E8000000 		call	_ZN8UnitTest11TestResults13OnTestFailureERKNS_11TestDetailsEPKc@PLT
 8053      00
 8054              	.LEHE281:
  27:/home/pong/FPGALink/makestuff/libs/libutpp/Checks.h **** }
 8055              		.loc 5 27 5
 8056 00ef 488D8550 		leaq	-432(%rbp), %rax
 8056      FEFFFF
 8057 00f6 4889C7   		movq	%rax, %rdi
 8058              	.LEHB282:
 8059 00f9 E8000000 		call	_ZN8UnitTest15MemoryOutStreamD1Ev
 8059      00
 8060              	.LEHE282:
 8061              	.LBE40:
 8062              	.LBE39:
  28:/home/pong/FPGALink/makestuff/libs/libutpp/Checks.h **** 
 8063              		.loc 5 28 1
 8064 00fe EB21     		jmp	.L391
 8065              	.L390:
 8066 0100 F30F1EFA 		endbr64
 8067              	.LBB42:
 8068              	.LBB41:
  27:/home/pong/FPGALink/makestuff/libs/libutpp/Checks.h **** }
 8069              		.loc 5 27 5
 8070 0104 4889C3   		movq	%rax, %rbx
 8071 0107 488D8550 		leaq	-432(%rbp), %rax
 8071      FEFFFF
 8072 010e 4889C7   		movq	%rax, %rdi
 8073 0111 E8000000 		call	_ZN8UnitTest15MemoryOutStreamD1Ev
 8073      00
 8074 0116 4889D8   		movq	%rbx, %rax
 8075 0119 4889C7   		movq	%rax, %rdi
 8076              	.LEHB283:
 8077 011c E8000000 		call	_Unwind_Resume@PLT
 8077      00
 8078              	.LEHE283:
 8079              	.L391:
 8080              	.LBE41:
 8081              	.LBE42:
  28:/home/pong/FPGALink/makestuff/libs/libutpp/Checks.h **** 
 8082              		.loc 5 28 1
 8083 0121 90       		nop
 8084 0122 488B45E8 		movq	-24(%rbp), %rax
 8085 0126 64482B04 		subq	%fs:40, %rax
 8085      25280000 
 8085      00
 8086 012f 7405     		je	.L389
 8087 0131 E8000000 		call	__stack_chk_fail@PLT
 8087      00
 8088              	.L389:
 8089 0136 488B5DF8 		movq	-8(%rbp), %rbx
 8090 013a C9       		leave
 8091              		.cfi_def_cfa 7, 8
 8092 013b C3       		ret
 8093              		.cfi_endproc
 8094              	.LFE1312:
 8095              		.section	.gcc_except_table
 8096              	.LLSDA1312:
 8097 0681 FF       		.byte	0xff
 8098 0682 FF       		.byte	0xff
 8099 0683 01       		.byte	0x1
 8100 0684 13       		.uleb128 .LLSDACSE1312-.LLSDACSB1312
 8101              	.LLSDACSB1312:
 8102 0685 63       		.uleb128 .LEHB280-.LFB1312
 8103 0686 05       		.uleb128 .LEHE280-.LEHB280
 8104 0687 00       		.uleb128 0
 8105 0688 00       		.uleb128 0
 8106 0689 7C       		.uleb128 .LEHB281-.LFB1312
 8107 068a 73       		.uleb128 .LEHE281-.LEHB281
 8108 068b 8002     		.uleb128 .L390-.LFB1312
 8109 068d 00       		.uleb128 0
 8110 068e F901     		.uleb128 .LEHB282-.LFB1312
 8111 0690 05       		.uleb128 .LEHE282-.LEHB282
 8112 0691 00       		.uleb128 0
 8113 0692 00       		.uleb128 0
 8114 0693 9C02     		.uleb128 .LEHB283-.LFB1312
 8115 0695 05       		.uleb128 .LEHE283-.LEHB283
 8116 0696 00       		.uleb128 0
 8117 0697 00       		.uleb128 0
 8118              	.LLSDACSE1312:
 8119              		.section	.text._ZN8UnitTest10CheckEqualImjEEvRNS_11TestResultsERKT_RKT0_RKNS_11TestDetailsE,"axG",
 8121              		.section	.text._ZN8UnitTest15CheckArrayEqualIPKcS2_EEvRNS_11TestResultsERKT_RKT0_iRKNS_11TestDetai
 8122              		.weak	_ZN8UnitTest15CheckArrayEqualIPKcS2_EEvRNS_11TestResultsERKT_RKT0_iRKNS_11TestDetailsE
 8124              	_ZN8UnitTest15CheckArrayEqualIPKcS2_EEvRNS_11TestResultsERKT_RKT0_iRKNS_11TestDetailsE:
 8125              	.LFB1315:
  59:/home/pong/FPGALink/makestuff/libs/libutpp/Checks.h ****                 int const count, TestDetails const& details)
 8126              		.loc 5 59 6
 8127              		.cfi_startproc
 8128              		.cfi_personality 0x9b,DW.ref.__gxx_personality_v0
 8129              		.cfi_lsda 0x1b,.LLSDA1315
 8130 0000 F30F1EFA 		endbr64
 8131 0004 55       		pushq	%rbp
 8132              		.cfi_def_cfa_offset 16
 8133              		.cfi_offset 6, -16
 8134 0005 4889E5   		movq	%rsp, %rbp
 8135              		.cfi_def_cfa_register 6
 8136 0008 53       		pushq	%rbx
 8137 0009 4881ECE8 		subq	$488, %rsp
 8137      010000
 8138              		.cfi_offset 3, -24
 8139 0010 4889BD38 		movq	%rdi, -456(%rbp)
 8139      FEFFFF
 8140 0017 4889B530 		movq	%rsi, -464(%rbp)
 8140      FEFFFF
 8141 001e 48899528 		movq	%rdx, -472(%rbp)
 8141      FEFFFF
 8142 0025 898D24FE 		movl	%ecx, -476(%rbp)
 8142      FFFF
 8143 002b 4C898518 		movq	%r8, -488(%rbp)
 8143      FEFFFF
  59:/home/pong/FPGALink/makestuff/libs/libutpp/Checks.h ****                 int const count, TestDetails const& details)
 8144              		.loc 5 59 6
 8145 0032 64488B04 		movq	%fs:40, %rax
 8145      25280000 
 8145      00
 8146 003b 488945E8 		movq	%rax, -24(%rbp)
 8147 003f 31C0     		xorl	%eax, %eax
  62:/home/pong/FPGALink/makestuff/libs/libutpp/Checks.h ****     for (int i = 0; i < count; ++i)
 8148              		.loc 5 62 10
 8149 0041 C68543FE 		movb	$1, -445(%rbp)
 8149      FFFF01
 8150              	.LBB43:
  63:/home/pong/FPGALink/makestuff/libs/libutpp/Checks.h ****         equal &= (expected[i] == actual[i]);
 8151              		.loc 5 63 14
 8152 0048 C78544FE 		movl	$0, -444(%rbp)
 8152      FFFF0000 
 8152      0000
  63:/home/pong/FPGALink/makestuff/libs/libutpp/Checks.h ****         equal &= (expected[i] == actual[i]);
 8153              		.loc 5 63 5
 8154 0052 EB53     		jmp	.L393
 8155              	.L394:
  64:/home/pong/FPGALink/makestuff/libs/libutpp/Checks.h **** 
 8156              		.loc 5 64 15 discriminator 3
 8157 0054 0FB68D43 		movzbl	-445(%rbp), %ecx
 8157      FEFFFF
  64:/home/pong/FPGALink/makestuff/libs/libutpp/Checks.h **** 
 8158              		.loc 5 64 27 discriminator 3
 8159 005b 488B8530 		movq	-464(%rbp), %rax
 8159      FEFFFF
 8160 0062 488B10   		movq	(%rax), %rdx
  64:/home/pong/FPGALink/makestuff/libs/libutpp/Checks.h **** 
 8161              		.loc 5 64 28 discriminator 3
 8162 0065 8B8544FE 		movl	-444(%rbp), %eax
 8162      FFFF
 8163 006b 4898     		cltq
  64:/home/pong/FPGALink/makestuff/libs/libutpp/Checks.h **** 
 8164              		.loc 5 64 27 discriminator 3
 8165 006d 4801D0   		addq	%rdx, %rax
 8166 0070 0FB610   		movzbl	(%rax), %edx
  64:/home/pong/FPGALink/makestuff/libs/libutpp/Checks.h **** 
 8167              		.loc 5 64 40 discriminator 3
 8168 0073 488B8528 		movq	-472(%rbp), %rax
 8168      FEFFFF
 8169 007a 488B30   		movq	(%rax), %rsi
  64:/home/pong/FPGALink/makestuff/libs/libutpp/Checks.h **** 
 8170              		.loc 5 64 41 discriminator 3
 8171 007d 8B8544FE 		movl	-444(%rbp), %eax
 8171      FFFF
 8172 0083 4898     		cltq
  64:/home/pong/FPGALink/makestuff/libs/libutpp/Checks.h **** 
 8173              		.loc 5 64 40 discriminator 3
 8174 0085 4801F0   		addq	%rsi, %rax
 8175 0088 0FB600   		movzbl	(%rax), %eax
  64:/home/pong/FPGALink/makestuff/libs/libutpp/Checks.h **** 
 8176              		.loc 5 64 31 discriminator 3
 8177 008b 38C2     		cmpb	%al, %dl
 8178 008d 0F94C0   		sete	%al
 8179 0090 0FB6C0   		movzbl	%al, %eax
  64:/home/pong/FPGALink/makestuff/libs/libutpp/Checks.h **** 
 8180              		.loc 5 64 15 discriminator 3
 8181 0093 21C8     		andl	%ecx, %eax
 8182 0095 85C0     		testl	%eax, %eax
 8183 0097 0F95C0   		setne	%al
 8184 009a 888543FE 		movb	%al, -445(%rbp)
 8184      FFFF
  63:/home/pong/FPGALink/makestuff/libs/libutpp/Checks.h ****         equal &= (expected[i] == actual[i]);
 8185              		.loc 5 63 5 discriminator 3
 8186 00a0 838544FE 		addl	$1, -444(%rbp)
 8186      FFFF01
 8187              	.L393:
  63:/home/pong/FPGALink/makestuff/libs/libutpp/Checks.h ****         equal &= (expected[i] == actual[i]);
 8188              		.loc 5 63 23 discriminator 1
 8189 00a7 8B8544FE 		movl	-444(%rbp), %eax
 8189      FFFF
 8190 00ad 3B8524FE 		cmpl	-476(%rbp), %eax
 8190      FFFF
 8191 00b3 7C9F     		jl	.L394
 8192              	.LBE43:
 8193              	.LBB44:
  66:/home/pong/FPGALink/makestuff/libs/libutpp/Checks.h ****     {
 8194              		.loc 5 66 10
 8195 00b5 0FB68543 		movzbl	-445(%rbp), %eax
 8195      FEFFFF
 8196 00bc 83F001   		xorl	$1, %eax
  66:/home/pong/FPGALink/makestuff/libs/libutpp/Checks.h ****     {
 8197              		.loc 5 66 5
 8198 00bf 84C0     		testb	%al, %al
 8199 00c1 0F847B01 		je	.L403
 8199      0000
 8200              	.LBB45:
  68:/home/pong/FPGALink/makestuff/libs/libutpp/Checks.h **** 
 8201              		.loc 5 68 35
 8202 00c7 488D8550 		leaq	-432(%rbp), %rax
 8202      FEFFFF
 8203 00ce 4889C7   		movq	%rax, %rdi
 8204              	.LEHB284:
 8205 00d1 E8000000 		call	_ZN8UnitTest15MemoryOutStreamC1Ev
 8205      00
 8206              	.LEHE284:
  70:/home/pong/FPGALink/makestuff/libs/libutpp/Checks.h **** 
 8207              		.loc 5 70 10
 8208 00d6 488D8550 		leaq	-432(%rbp), %rax
 8208      FEFFFF
 8209 00dd 488D1500 		leaq	.LC79(%rip), %rdx
 8209      000000
 8210 00e4 4889D6   		movq	%rdx, %rsi
 8211 00e7 4889C7   		movq	%rax, %rdi
 8212              	.LEHB285:
 8213 00ea E8000000 		call	_ZStlsISt11char_traitsIcEERSt13basic_ostreamIcT_ES5_PKc@PLT
 8213      00
 8214              	.LBB46:
  72:/home/pong/FPGALink/makestuff/libs/libutpp/Checks.h ****             stream << expected[expectedIndex] << " ";
 8215              		.loc 5 72 12
 8216 00ef C78548FE 		movl	$0, -440(%rbp)
 8216      FFFF0000 
 8216      0000
  72:/home/pong/FPGALink/makestuff/libs/libutpp/Checks.h ****             stream << expected[expectedIndex] << " ";
 8217              		.loc 5 72 3
 8218 00f9 EB48     		jmp	.L396
 8219              	.L397:
  73:/home/pong/FPGALink/makestuff/libs/libutpp/Checks.h **** 
 8220              		.loc 5 73 31
 8221 00fb 488B8530 		movq	-464(%rbp), %rax
 8221      FEFFFF
 8222 0102 488B10   		movq	(%rax), %rdx
  73:/home/pong/FPGALink/makestuff/libs/libutpp/Checks.h **** 
 8223              		.loc 5 73 32
 8224 0105 8B8548FE 		movl	-440(%rbp), %eax
 8224      FFFF
 8225 010b 4898     		cltq
  73:/home/pong/FPGALink/makestuff/libs/libutpp/Checks.h **** 
 8226              		.loc 5 73 31
 8227 010d 4801D0   		addq	%rdx, %rax
 8228 0110 0FB600   		movzbl	(%rax), %eax
  73:/home/pong/FPGALink/makestuff/libs/libutpp/Checks.h **** 
 8229              		.loc 5 73 47
 8230 0113 0FBED0   		movsbl	%al, %edx
 8231 0116 488D8550 		leaq	-432(%rbp), %rax
 8231      FEFFFF
 8232 011d 89D6     		movl	%edx, %esi
 8233 011f 4889C7   		movq	%rax, %rdi
 8234 0122 E8000000 		call	_ZStlsISt11char_traitsIcEERSt13basic_ostreamIcT_ES5_c@PLT
 8234      00
 8235 0127 4889C2   		movq	%rax, %rdx
 8236 012a 488D0500 		leaq	.LC80(%rip), %rax
 8236      000000
 8237 0131 4889C6   		movq	%rax, %rsi
 8238 0134 4889D7   		movq	%rdx, %rdi
 8239 0137 E8000000 		call	_ZStlsISt11char_traitsIcEERSt13basic_ostreamIcT_ES5_PKc@PLT
 8239      00
  72:/home/pong/FPGALink/makestuff/libs/libutpp/Checks.h ****             stream << expected[expectedIndex] << " ";
 8240              		.loc 5 72 3 discriminator 2
 8241 013c 838548FE 		addl	$1, -440(%rbp)
 8241      FFFF01
 8242              	.L396:
  72:/home/pong/FPGALink/makestuff/libs/libutpp/Checks.h ****             stream << expected[expectedIndex] << " ";
 8243              		.loc 5 72 45 discriminator 1
 8244 0143 8B8548FE 		movl	-440(%rbp), %eax
 8244      FFFF
 8245 0149 3B8524FE 		cmpl	-476(%rbp), %eax
 8245      FFFF
 8246 014f 7CAA     		jl	.L397
 8247              	.LBE46:
  75:/home/pong/FPGALink/makestuff/libs/libutpp/Checks.h **** 
 8248              		.loc 5 75 10
 8249 0151 488D8550 		leaq	-432(%rbp), %rax
 8249      FEFFFF
 8250 0158 488D1500 		leaq	.LC81(%rip), %rdx
 8250      000000
 8251 015f 4889D6   		movq	%rdx, %rsi
 8252 0162 4889C7   		movq	%rax, %rdi
 8253 0165 E8000000 		call	_ZStlsISt11char_traitsIcEERSt13basic_ostreamIcT_ES5_PKc@PLT
 8253      00
 8254              	.LBB47:
  77:/home/pong/FPGALink/makestuff/libs/libutpp/Checks.h ****             stream << actual[actualIndex] << " ";
 8255              		.loc 5 77 12
 8256 016a C7854CFE 		movl	$0, -436(%rbp)
 8256      FFFF0000 
 8256      0000
  77:/home/pong/FPGALink/makestuff/libs/libutpp/Checks.h ****             stream << actual[actualIndex] << " ";
 8257              		.loc 5 77 3
 8258 0174 EB48     		jmp	.L398
 8259              	.L399:
  78:/home/pong/FPGALink/makestuff/libs/libutpp/Checks.h **** 
 8260              		.loc 5 78 29
 8261 0176 488B8528 		movq	-472(%rbp), %rax
 8261      FEFFFF
 8262 017d 488B10   		movq	(%rax), %rdx
  78:/home/pong/FPGALink/makestuff/libs/libutpp/Checks.h **** 
 8263              		.loc 5 78 30
 8264 0180 8B854CFE 		movl	-436(%rbp), %eax
 8264      FFFF
 8265 0186 4898     		cltq
  78:/home/pong/FPGALink/makestuff/libs/libutpp/Checks.h **** 
 8266              		.loc 5 78 29
 8267 0188 4801D0   		addq	%rdx, %rax
 8268 018b 0FB600   		movzbl	(%rax), %eax
  78:/home/pong/FPGALink/makestuff/libs/libutpp/Checks.h **** 
 8269              		.loc 5 78 43
 8270 018e 0FBED0   		movsbl	%al, %edx
 8271 0191 488D8550 		leaq	-432(%rbp), %rax
 8271      FEFFFF
 8272 0198 89D6     		movl	%edx, %esi
 8273 019a 4889C7   		movq	%rax, %rdi
 8274 019d E8000000 		call	_ZStlsISt11char_traitsIcEERSt13basic_ostreamIcT_ES5_c@PLT
 8274      00
 8275 01a2 4889C2   		movq	%rax, %rdx
 8276 01a5 488D0500 		leaq	.LC80(%rip), %rax
 8276      000000
 8277 01ac 4889C6   		movq	%rax, %rsi
 8278 01af 4889D7   		movq	%rdx, %rdi
 8279 01b2 E8000000 		call	_ZStlsISt11char_traitsIcEERSt13basic_ostreamIcT_ES5_PKc@PLT
 8279      00
  77:/home/pong/FPGALink/makestuff/libs/libutpp/Checks.h ****             stream << actual[actualIndex] << " ";
 8280              		.loc 5 77 3 discriminator 2
 8281 01b7 83854CFE 		addl	$1, -436(%rbp)
 8281      FFFF01
 8282              	.L398:
  77:/home/pong/FPGALink/makestuff/libs/libutpp/Checks.h ****             stream << actual[actualIndex] << " ";
 8283              		.loc 5 77 41 discriminator 1
 8284 01be 8B854CFE 		movl	-436(%rbp), %eax
 8284      FFFF
 8285 01c4 3B8524FE 		cmpl	-476(%rbp), %eax
 8285      FFFF
 8286 01ca 7CAA     		jl	.L399
 8287              	.LBE47:
  80:/home/pong/FPGALink/makestuff/libs/libutpp/Checks.h **** 
 8288              		.loc 5 80 10
 8289 01cc 488D8550 		leaq	-432(%rbp), %rax
 8289      FEFFFF
 8290 01d3 488D1500 		leaq	.LC82(%rip), %rdx
 8290      000000
 8291 01da 4889D6   		movq	%rdx, %rsi
 8292 01dd 4889C7   		movq	%rax, %rdi
 8293 01e0 E8000000 		call	_ZStlsISt11char_traitsIcEERSt13basic_ostreamIcT_ES5_PKc@PLT
 8293      00
  82:/home/pong/FPGALink/makestuff/libs/libutpp/Checks.h ****     }
 8294              		.loc 5 82 30
 8295 01e5 488D8550 		leaq	-432(%rbp), %rax
 8295      FEFFFF
 8296 01ec 4889C7   		movq	%rax, %rdi
 8297 01ef E8000000 		call	_ZNK8UnitTest15MemoryOutStream7GetTextEv@PLT
 8297      00
 8298 01f4 4889C2   		movq	%rax, %rdx
 8299 01f7 488B8D18 		movq	-488(%rbp), %rcx
 8299      FEFFFF
 8300 01fe 488B8538 		movq	-456(%rbp), %rax
 8300      FEFFFF
 8301 0205 4889CE   		movq	%rcx, %rsi
 8302 0208 4889C7   		movq	%rax, %rdi
 8303 020b E8000000 		call	_ZN8UnitTest11TestResults13OnTestFailureERKNS_11TestDetailsEPKc@PLT
 8303      00
 8304              	.LEHE285:
  83:/home/pong/FPGALink/makestuff/libs/libutpp/Checks.h **** }
 8305              		.loc 5 83 5
 8306 0210 488D8550 		leaq	-432(%rbp), %rax
 8306      FEFFFF
 8307 0217 4889C7   		movq	%rax, %rdi
 8308              	.LEHB286:
 8309 021a E8000000 		call	_ZN8UnitTest15MemoryOutStreamD1Ev
 8309      00
 8310              	.LEHE286:
 8311              	.LBE45:
 8312              	.LBE44:
 8313              		.loc 5 84 1
 8314 021f EB21     		jmp	.L403
 8315              	.L402:
 8316 0221 F30F1EFA 		endbr64
 8317              	.LBB49:
 8318              	.LBB48:
  83:/home/pong/FPGALink/makestuff/libs/libutpp/Checks.h **** }
 8319              		.loc 5 83 5
 8320 0225 4889C3   		movq	%rax, %rbx
 8321 0228 488D8550 		leaq	-432(%rbp), %rax
 8321      FEFFFF
 8322 022f 4889C7   		movq	%rax, %rdi
 8323 0232 E8000000 		call	_ZN8UnitTest15MemoryOutStreamD1Ev
 8323      00
 8324 0237 4889D8   		movq	%rbx, %rax
 8325 023a 4889C7   		movq	%rax, %rdi
 8326              	.LEHB287:
 8327 023d E8000000 		call	_Unwind_Resume@PLT
 8327      00
 8328              	.LEHE287:
 8329              	.L403:
 8330              	.LBE48:
 8331              	.LBE49:
 8332              		.loc 5 84 1
 8333 0242 90       		nop
 8334 0243 488B45E8 		movq	-24(%rbp), %rax
 8335 0247 64482B04 		subq	%fs:40, %rax
 8335      25280000 
 8335      00
 8336 0250 7405     		je	.L401
 8337 0252 E8000000 		call	__stack_chk_fail@PLT
 8337      00
 8338              	.L401:
 8339 0257 488B5DF8 		movq	-8(%rbp), %rbx
 8340 025b C9       		leave
 8341              		.cfi_def_cfa 7, 8
 8342 025c C3       		ret
 8343              		.cfi_endproc
 8344              	.LFE1315:
 8345              		.section	.gcc_except_table
 8346              	.LLSDA1315:
 8347 0698 FF       		.byte	0xff
 8348 0699 FF       		.byte	0xff
 8349 069a 01       		.byte	0x1
 8350 069b 16       		.uleb128 .LLSDACSE1315-.LLSDACSB1315
 8351              	.LLSDACSB1315:
 8352 069c D101     		.uleb128 .LEHB284-.LFB1315
 8353 069e 05       		.uleb128 .LEHE284-.LEHB284
 8354 069f 00       		.uleb128 0
 8355 06a0 00       		.uleb128 0
 8356 06a1 EA01     		.uleb128 .LEHB285-.LFB1315
 8357 06a3 A602     		.uleb128 .LEHE285-.LEHB285
 8358 06a5 A104     		.uleb128 .L402-.LFB1315
 8359 06a7 00       		.uleb128 0
 8360 06a8 9A04     		.uleb128 .LEHB286-.LFB1315
 8361 06aa 05       		.uleb128 .LEHE286-.LEHB286
 8362 06ab 00       		.uleb128 0
 8363 06ac 00       		.uleb128 0
 8364 06ad BD04     		.uleb128 .LEHB287-.LFB1315
 8365 06af 05       		.uleb128 .LEHE287-.LEHB287
 8366 06b0 00       		.uleb128 0
 8367 06b1 00       		.uleb128 0
 8368              	.LLSDACSE1315:
 8369              		.section	.text._ZN8UnitTest15CheckArrayEqualIPKcS2_EEvRNS_11TestResultsERKT_RKT0_iRKNS_11TestDetai
 8371              		.section	.text._ZN8UnitTest15CheckArrayEqualIPhS1_EEvRNS_11TestResultsERKT_RKT0_iRKNS_11TestDetail
 8372              		.weak	_ZN8UnitTest15CheckArrayEqualIPhS1_EEvRNS_11TestResultsERKT_RKT0_iRKNS_11TestDetailsE
 8374              	_ZN8UnitTest15CheckArrayEqualIPhS1_EEvRNS_11TestResultsERKT_RKT0_iRKNS_11TestDetailsE:
 8375              	.LFB1316:
  59:/home/pong/FPGALink/makestuff/libs/libutpp/Checks.h ****                 int const count, TestDetails const& details)
 8376              		.loc 5 59 6
 8377              		.cfi_startproc
 8378              		.cfi_personality 0x9b,DW.ref.__gxx_personality_v0
 8379              		.cfi_lsda 0x1b,.LLSDA1316
 8380 0000 F30F1EFA 		endbr64
 8381 0004 55       		pushq	%rbp
 8382              		.cfi_def_cfa_offset 16
 8383              		.cfi_offset 6, -16
 8384 0005 4889E5   		movq	%rsp, %rbp
 8385              		.cfi_def_cfa_register 6
 8386 0008 53       		pushq	%rbx
 8387 0009 4881ECE8 		subq	$488, %rsp
 8387      010000
 8388              		.cfi_offset 3, -24
 8389 0010 4889BD38 		movq	%rdi, -456(%rbp)
 8389      FEFFFF
 8390 0017 4889B530 		movq	%rsi, -464(%rbp)
 8390      FEFFFF
 8391 001e 48899528 		movq	%rdx, -472(%rbp)
 8391      FEFFFF
 8392 0025 898D24FE 		movl	%ecx, -476(%rbp)
 8392      FFFF
 8393 002b 4C898518 		movq	%r8, -488(%rbp)
 8393      FEFFFF
  59:/home/pong/FPGALink/makestuff/libs/libutpp/Checks.h ****                 int const count, TestDetails const& details)
 8394              		.loc 5 59 6
 8395 0032 64488B04 		movq	%fs:40, %rax
 8395      25280000 
 8395      00
 8396 003b 488945E8 		movq	%rax, -24(%rbp)
 8397 003f 31C0     		xorl	%eax, %eax
  62:/home/pong/FPGALink/makestuff/libs/libutpp/Checks.h ****     for (int i = 0; i < count; ++i)
 8398              		.loc 5 62 10
 8399 0041 C68543FE 		movb	$1, -445(%rbp)
 8399      FFFF01
 8400              	.LBB50:
  63:/home/pong/FPGALink/makestuff/libs/libutpp/Checks.h ****         equal &= (expected[i] == actual[i]);
 8401              		.loc 5 63 14
 8402 0048 C78544FE 		movl	$0, -444(%rbp)
 8402      FFFF0000 
 8402      0000
  63:/home/pong/FPGALink/makestuff/libs/libutpp/Checks.h ****         equal &= (expected[i] == actual[i]);
 8403              		.loc 5 63 5
 8404 0052 EB53     		jmp	.L405
 8405              	.L406:
  64:/home/pong/FPGALink/makestuff/libs/libutpp/Checks.h **** 
 8406              		.loc 5 64 15 discriminator 3
 8407 0054 0FB68D43 		movzbl	-445(%rbp), %ecx
 8407      FEFFFF
  64:/home/pong/FPGALink/makestuff/libs/libutpp/Checks.h **** 
 8408              		.loc 5 64 27 discriminator 3
 8409 005b 488B8530 		movq	-464(%rbp), %rax
 8409      FEFFFF
 8410 0062 488B10   		movq	(%rax), %rdx
  64:/home/pong/FPGALink/makestuff/libs/libutpp/Checks.h **** 
 8411              		.loc 5 64 28 discriminator 3
 8412 0065 8B8544FE 		movl	-444(%rbp), %eax
 8412      FFFF
 8413 006b 4898     		cltq
  64:/home/pong/FPGALink/makestuff/libs/libutpp/Checks.h **** 
 8414              		.loc 5 64 27 discriminator 3
 8415 006d 4801D0   		addq	%rdx, %rax
 8416 0070 0FB610   		movzbl	(%rax), %edx
  64:/home/pong/FPGALink/makestuff/libs/libutpp/Checks.h **** 
 8417              		.loc 5 64 40 discriminator 3
 8418 0073 488B8528 		movq	-472(%rbp), %rax
 8418      FEFFFF
 8419 007a 488B30   		movq	(%rax), %rsi
  64:/home/pong/FPGALink/makestuff/libs/libutpp/Checks.h **** 
 8420              		.loc 5 64 41 discriminator 3
 8421 007d 8B8544FE 		movl	-444(%rbp), %eax
 8421      FFFF
 8422 0083 4898     		cltq
  64:/home/pong/FPGALink/makestuff/libs/libutpp/Checks.h **** 
 8423              		.loc 5 64 40 discriminator 3
 8424 0085 4801F0   		addq	%rsi, %rax
 8425 0088 0FB600   		movzbl	(%rax), %eax
  64:/home/pong/FPGALink/makestuff/libs/libutpp/Checks.h **** 
 8426              		.loc 5 64 31 discriminator 3
 8427 008b 38C2     		cmpb	%al, %dl
 8428 008d 0F94C0   		sete	%al
 8429 0090 0FB6C0   		movzbl	%al, %eax
  64:/home/pong/FPGALink/makestuff/libs/libutpp/Checks.h **** 
 8430              		.loc 5 64 15 discriminator 3
 8431 0093 21C8     		andl	%ecx, %eax
 8432 0095 85C0     		testl	%eax, %eax
 8433 0097 0F95C0   		setne	%al
 8434 009a 888543FE 		movb	%al, -445(%rbp)
 8434      FFFF
  63:/home/pong/FPGALink/makestuff/libs/libutpp/Checks.h ****         equal &= (expected[i] == actual[i]);
 8435              		.loc 5 63 5 discriminator 3
 8436 00a0 838544FE 		addl	$1, -444(%rbp)
 8436      FFFF01
 8437              	.L405:
  63:/home/pong/FPGALink/makestuff/libs/libutpp/Checks.h ****         equal &= (expected[i] == actual[i]);
 8438              		.loc 5 63 23 discriminator 1
 8439 00a7 8B8544FE 		movl	-444(%rbp), %eax
 8439      FFFF
 8440 00ad 3B8524FE 		cmpl	-476(%rbp), %eax
 8440      FFFF
 8441 00b3 7C9F     		jl	.L406
 8442              	.LBE50:
 8443              	.LBB51:
  66:/home/pong/FPGALink/makestuff/libs/libutpp/Checks.h ****     {
 8444              		.loc 5 66 10
 8445 00b5 0FB68543 		movzbl	-445(%rbp), %eax
 8445      FEFFFF
 8446 00bc 83F001   		xorl	$1, %eax
  66:/home/pong/FPGALink/makestuff/libs/libutpp/Checks.h ****     {
 8447              		.loc 5 66 5
 8448 00bf 84C0     		testb	%al, %al
 8449 00c1 0F847B01 		je	.L415
 8449      0000
 8450              	.LBB52:
  68:/home/pong/FPGALink/makestuff/libs/libutpp/Checks.h **** 
 8451              		.loc 5 68 35
 8452 00c7 488D8550 		leaq	-432(%rbp), %rax
 8452      FEFFFF
 8453 00ce 4889C7   		movq	%rax, %rdi
 8454              	.LEHB288:
 8455 00d1 E8000000 		call	_ZN8UnitTest15MemoryOutStreamC1Ev
 8455      00
 8456              	.LEHE288:
  70:/home/pong/FPGALink/makestuff/libs/libutpp/Checks.h **** 
 8457              		.loc 5 70 10
 8458 00d6 488D8550 		leaq	-432(%rbp), %rax
 8458      FEFFFF
 8459 00dd 488D1500 		leaq	.LC79(%rip), %rdx
 8459      000000
 8460 00e4 4889D6   		movq	%rdx, %rsi
 8461 00e7 4889C7   		movq	%rax, %rdi
 8462              	.LEHB289:
 8463 00ea E8000000 		call	_ZStlsISt11char_traitsIcEERSt13basic_ostreamIcT_ES5_PKc@PLT
 8463      00
 8464              	.LBB53:
  72:/home/pong/FPGALink/makestuff/libs/libutpp/Checks.h ****             stream << expected[expectedIndex] << " ";
 8465              		.loc 5 72 12
 8466 00ef C78548FE 		movl	$0, -440(%rbp)
 8466      FFFF0000 
 8466      0000
  72:/home/pong/FPGALink/makestuff/libs/libutpp/Checks.h ****             stream << expected[expectedIndex] << " ";
 8467              		.loc 5 72 3
 8468 00f9 EB48     		jmp	.L408
 8469              	.L409:
  73:/home/pong/FPGALink/makestuff/libs/libutpp/Checks.h **** 
 8470              		.loc 5 73 31
 8471 00fb 488B8530 		movq	-464(%rbp), %rax
 8471      FEFFFF
 8472 0102 488B10   		movq	(%rax), %rdx
  73:/home/pong/FPGALink/makestuff/libs/libutpp/Checks.h **** 
 8473              		.loc 5 73 32
 8474 0105 8B8548FE 		movl	-440(%rbp), %eax
 8474      FFFF
 8475 010b 4898     		cltq
  73:/home/pong/FPGALink/makestuff/libs/libutpp/Checks.h **** 
 8476              		.loc 5 73 31
 8477 010d 4801D0   		addq	%rdx, %rax
 8478 0110 0FB600   		movzbl	(%rax), %eax
  73:/home/pong/FPGALink/makestuff/libs/libutpp/Checks.h **** 
 8479              		.loc 5 73 47
 8480 0113 0FB6D0   		movzbl	%al, %edx
 8481 0116 488D8550 		leaq	-432(%rbp), %rax
 8481      FEFFFF
 8482 011d 89D6     		movl	%edx, %esi
 8483 011f 4889C7   		movq	%rax, %rdi
 8484 0122 E8000000 		call	_ZStlsISt11char_traitsIcEERSt13basic_ostreamIcT_ES5_h@PLT
 8484      00
 8485 0127 4889C2   		movq	%rax, %rdx
 8486 012a 488D0500 		leaq	.LC80(%rip), %rax
 8486      000000
 8487 0131 4889C6   		movq	%rax, %rsi
 8488 0134 4889D7   		movq	%rdx, %rdi
 8489 0137 E8000000 		call	_ZStlsISt11char_traitsIcEERSt13basic_ostreamIcT_ES5_PKc@PLT
 8489      00
  72:/home/pong/FPGALink/makestuff/libs/libutpp/Checks.h ****             stream << expected[expectedIndex] << " ";
 8490              		.loc 5 72 3 discriminator 2
 8491 013c 838548FE 		addl	$1, -440(%rbp)
 8491      FFFF01
 8492              	.L408:
  72:/home/pong/FPGALink/makestuff/libs/libutpp/Checks.h ****             stream << expected[expectedIndex] << " ";
 8493              		.loc 5 72 45 discriminator 1
 8494 0143 8B8548FE 		movl	-440(%rbp), %eax
 8494      FFFF
 8495 0149 3B8524FE 		cmpl	-476(%rbp), %eax
 8495      FFFF
 8496 014f 7CAA     		jl	.L409
 8497              	.LBE53:
  75:/home/pong/FPGALink/makestuff/libs/libutpp/Checks.h **** 
 8498              		.loc 5 75 10
 8499 0151 488D8550 		leaq	-432(%rbp), %rax
 8499      FEFFFF
 8500 0158 488D1500 		leaq	.LC81(%rip), %rdx
 8500      000000
 8501 015f 4889D6   		movq	%rdx, %rsi
 8502 0162 4889C7   		movq	%rax, %rdi
 8503 0165 E8000000 		call	_ZStlsISt11char_traitsIcEERSt13basic_ostreamIcT_ES5_PKc@PLT
 8503      00
 8504              	.LBB54:
  77:/home/pong/FPGALink/makestuff/libs/libutpp/Checks.h ****             stream << actual[actualIndex] << " ";
 8505              		.loc 5 77 12
 8506 016a C7854CFE 		movl	$0, -436(%rbp)
 8506      FFFF0000 
 8506      0000
  77:/home/pong/FPGALink/makestuff/libs/libutpp/Checks.h ****             stream << actual[actualIndex] << " ";
 8507              		.loc 5 77 3
 8508 0174 EB48     		jmp	.L410
 8509              	.L411:
  78:/home/pong/FPGALink/makestuff/libs/libutpp/Checks.h **** 
 8510              		.loc 5 78 29
 8511 0176 488B8528 		movq	-472(%rbp), %rax
 8511      FEFFFF
 8512 017d 488B10   		movq	(%rax), %rdx
  78:/home/pong/FPGALink/makestuff/libs/libutpp/Checks.h **** 
 8513              		.loc 5 78 30
 8514 0180 8B854CFE 		movl	-436(%rbp), %eax
 8514      FFFF
 8515 0186 4898     		cltq
  78:/home/pong/FPGALink/makestuff/libs/libutpp/Checks.h **** 
 8516              		.loc 5 78 29
 8517 0188 4801D0   		addq	%rdx, %rax
 8518 018b 0FB600   		movzbl	(%rax), %eax
  78:/home/pong/FPGALink/makestuff/libs/libutpp/Checks.h **** 
 8519              		.loc 5 78 43
 8520 018e 0FB6D0   		movzbl	%al, %edx
 8521 0191 488D8550 		leaq	-432(%rbp), %rax
 8521      FEFFFF
 8522 0198 89D6     		movl	%edx, %esi
 8523 019a 4889C7   		movq	%rax, %rdi
 8524 019d E8000000 		call	_ZStlsISt11char_traitsIcEERSt13basic_ostreamIcT_ES5_h@PLT
 8524      00
 8525 01a2 4889C2   		movq	%rax, %rdx
 8526 01a5 488D0500 		leaq	.LC80(%rip), %rax
 8526      000000
 8527 01ac 4889C6   		movq	%rax, %rsi
 8528 01af 4889D7   		movq	%rdx, %rdi
 8529 01b2 E8000000 		call	_ZStlsISt11char_traitsIcEERSt13basic_ostreamIcT_ES5_PKc@PLT
 8529      00
  77:/home/pong/FPGALink/makestuff/libs/libutpp/Checks.h ****             stream << actual[actualIndex] << " ";
 8530              		.loc 5 77 3 discriminator 2
 8531 01b7 83854CFE 		addl	$1, -436(%rbp)
 8531      FFFF01
 8532              	.L410:
  77:/home/pong/FPGALink/makestuff/libs/libutpp/Checks.h ****             stream << actual[actualIndex] << " ";
 8533              		.loc 5 77 41 discriminator 1
 8534 01be 8B854CFE 		movl	-436(%rbp), %eax
 8534      FFFF
 8535 01c4 3B8524FE 		cmpl	-476(%rbp), %eax
 8535      FFFF
 8536 01ca 7CAA     		jl	.L411
 8537              	.LBE54:
  80:/home/pong/FPGALink/makestuff/libs/libutpp/Checks.h **** 
 8538              		.loc 5 80 10
 8539 01cc 488D8550 		leaq	-432(%rbp), %rax
 8539      FEFFFF
 8540 01d3 488D1500 		leaq	.LC82(%rip), %rdx
 8540      000000
 8541 01da 4889D6   		movq	%rdx, %rsi
 8542 01dd 4889C7   		movq	%rax, %rdi
 8543 01e0 E8000000 		call	_ZStlsISt11char_traitsIcEERSt13basic_ostreamIcT_ES5_PKc@PLT
 8543      00
  82:/home/pong/FPGALink/makestuff/libs/libutpp/Checks.h ****     }
 8544              		.loc 5 82 30
 8545 01e5 488D8550 		leaq	-432(%rbp), %rax
 8545      FEFFFF
 8546 01ec 4889C7   		movq	%rax, %rdi
 8547 01ef E8000000 		call	_ZNK8UnitTest15MemoryOutStream7GetTextEv@PLT
 8547      00
 8548 01f4 4889C2   		movq	%rax, %rdx
 8549 01f7 488B8D18 		movq	-488(%rbp), %rcx
 8549      FEFFFF
 8550 01fe 488B8538 		movq	-456(%rbp), %rax
 8550      FEFFFF
 8551 0205 4889CE   		movq	%rcx, %rsi
 8552 0208 4889C7   		movq	%rax, %rdi
 8553 020b E8000000 		call	_ZN8UnitTest11TestResults13OnTestFailureERKNS_11TestDetailsEPKc@PLT
 8553      00
 8554              	.LEHE289:
  83:/home/pong/FPGALink/makestuff/libs/libutpp/Checks.h **** }
 8555              		.loc 5 83 5
 8556 0210 488D8550 		leaq	-432(%rbp), %rax
 8556      FEFFFF
 8557 0217 4889C7   		movq	%rax, %rdi
 8558              	.LEHB290:
 8559 021a E8000000 		call	_ZN8UnitTest15MemoryOutStreamD1Ev
 8559      00
 8560              	.LEHE290:
 8561              	.LBE52:
 8562              	.LBE51:
 8563              		.loc 5 84 1
 8564 021f EB21     		jmp	.L415
 8565              	.L414:
 8566 0221 F30F1EFA 		endbr64
 8567              	.LBB56:
 8568              	.LBB55:
  83:/home/pong/FPGALink/makestuff/libs/libutpp/Checks.h **** }
 8569              		.loc 5 83 5
 8570 0225 4889C3   		movq	%rax, %rbx
 8571 0228 488D8550 		leaq	-432(%rbp), %rax
 8571      FEFFFF
 8572 022f 4889C7   		movq	%rax, %rdi
 8573 0232 E8000000 		call	_ZN8UnitTest15MemoryOutStreamD1Ev
 8573      00
 8574 0237 4889D8   		movq	%rbx, %rax
 8575 023a 4889C7   		movq	%rax, %rdi
 8576              	.LEHB291:
 8577 023d E8000000 		call	_Unwind_Resume@PLT
 8577      00
 8578              	.LEHE291:
 8579              	.L415:
 8580              	.LBE55:
 8581              	.LBE56:
 8582              		.loc 5 84 1
 8583 0242 90       		nop
 8584 0243 488B45E8 		movq	-24(%rbp), %rax
 8585 0247 64482B04 		subq	%fs:40, %rax
 8585      25280000 
 8585      00
 8586 0250 7405     		je	.L413
 8587 0252 E8000000 		call	__stack_chk_fail@PLT
 8587      00
 8588              	.L413:
 8589 0257 488B5DF8 		movq	-8(%rbp), %rbx
 8590 025b C9       		leave
 8591              		.cfi_def_cfa 7, 8
 8592 025c C3       		ret
 8593              		.cfi_endproc
 8594              	.LFE1316:
 8595              		.section	.gcc_except_table
 8596              	.LLSDA1316:
 8597 06b2 FF       		.byte	0xff
 8598 06b3 FF       		.byte	0xff
 8599 06b4 01       		.byte	0x1
 8600 06b5 16       		.uleb128 .LLSDACSE1316-.LLSDACSB1316
 8601              	.LLSDACSB1316:
 8602 06b6 D101     		.uleb128 .LEHB288-.LFB1316
 8603 06b8 05       		.uleb128 .LEHE288-.LEHB288
 8604 06b9 00       		.uleb128 0
 8605 06ba 00       		.uleb128 0
 8606 06bb EA01     		.uleb128 .LEHB289-.LFB1316
 8607 06bd A602     		.uleb128 .LEHE289-.LEHB289
 8608 06bf A104     		.uleb128 .L414-.LFB1316
 8609 06c1 00       		.uleb128 0
 8610 06c2 9A04     		.uleb128 .LEHB290-.LFB1316
 8611 06c4 05       		.uleb128 .LEHE290-.LEHB290
 8612 06c5 00       		.uleb128 0
 8613 06c6 00       		.uleb128 0
 8614 06c7 BD04     		.uleb128 .LEHB291-.LFB1316
 8615 06c9 05       		.uleb128 .LEHE291-.LEHB291
 8616 06ca 00       		.uleb128 0
 8617 06cb 00       		.uleb128 0
 8618              	.LLSDACSE1316:
 8619              		.section	.text._ZN8UnitTest15CheckArrayEqualIPhS1_EEvRNS_11TestResultsERKT_RKT0_iRKNS_11TestDetail
 8621              		.section	.text._ZN8UnitTest15CheckArrayEqualIPKcPhEEvRNS_11TestResultsERKT_RKT0_iRKNS_11TestDetail
 8622              		.weak	_ZN8UnitTest15CheckArrayEqualIPKcPhEEvRNS_11TestResultsERKT_RKT0_iRKNS_11TestDetailsE
 8624              	_ZN8UnitTest15CheckArrayEqualIPKcPhEEvRNS_11TestResultsERKT_RKT0_iRKNS_11TestDetailsE:
 8625              	.LFB1317:
  59:/home/pong/FPGALink/makestuff/libs/libutpp/Checks.h ****                 int const count, TestDetails const& details)
 8626              		.loc 5 59 6
 8627              		.cfi_startproc
 8628              		.cfi_personality 0x9b,DW.ref.__gxx_personality_v0
 8629              		.cfi_lsda 0x1b,.LLSDA1317
 8630 0000 F30F1EFA 		endbr64
 8631 0004 55       		pushq	%rbp
 8632              		.cfi_def_cfa_offset 16
 8633              		.cfi_offset 6, -16
 8634 0005 4889E5   		movq	%rsp, %rbp
 8635              		.cfi_def_cfa_register 6
 8636 0008 53       		pushq	%rbx
 8637 0009 4881ECE8 		subq	$488, %rsp
 8637      010000
 8638              		.cfi_offset 3, -24
 8639 0010 4889BD38 		movq	%rdi, -456(%rbp)
 8639      FEFFFF
 8640 0017 4889B530 		movq	%rsi, -464(%rbp)
 8640      FEFFFF
 8641 001e 48899528 		movq	%rdx, -472(%rbp)
 8641      FEFFFF
 8642 0025 898D24FE 		movl	%ecx, -476(%rbp)
 8642      FFFF
 8643 002b 4C898518 		movq	%r8, -488(%rbp)
 8643      FEFFFF
  59:/home/pong/FPGALink/makestuff/libs/libutpp/Checks.h ****                 int const count, TestDetails const& details)
 8644              		.loc 5 59 6
 8645 0032 64488B04 		movq	%fs:40, %rax
 8645      25280000 
 8645      00
 8646 003b 488945E8 		movq	%rax, -24(%rbp)
 8647 003f 31C0     		xorl	%eax, %eax
  62:/home/pong/FPGALink/makestuff/libs/libutpp/Checks.h ****     for (int i = 0; i < count; ++i)
 8648              		.loc 5 62 10
 8649 0041 C68543FE 		movb	$1, -445(%rbp)
 8649      FFFF01
 8650              	.LBB57:
  63:/home/pong/FPGALink/makestuff/libs/libutpp/Checks.h ****         equal &= (expected[i] == actual[i]);
 8651              		.loc 5 63 14
 8652 0048 C78544FE 		movl	$0, -444(%rbp)
 8652      FFFF0000 
 8652      0000
  63:/home/pong/FPGALink/makestuff/libs/libutpp/Checks.h ****         equal &= (expected[i] == actual[i]);
 8653              		.loc 5 63 5
 8654 0052 EB59     		jmp	.L417
 8655              	.L418:
  64:/home/pong/FPGALink/makestuff/libs/libutpp/Checks.h **** 
 8656              		.loc 5 64 15 discriminator 3
 8657 0054 0FB68D43 		movzbl	-445(%rbp), %ecx
 8657      FEFFFF
  64:/home/pong/FPGALink/makestuff/libs/libutpp/Checks.h **** 
 8658              		.loc 5 64 27 discriminator 3
 8659 005b 488B8530 		movq	-464(%rbp), %rax
 8659      FEFFFF
 8660 0062 488B10   		movq	(%rax), %rdx
  64:/home/pong/FPGALink/makestuff/libs/libutpp/Checks.h **** 
 8661              		.loc 5 64 28 discriminator 3
 8662 0065 8B8544FE 		movl	-444(%rbp), %eax
 8662      FFFF
 8663 006b 4898     		cltq
  64:/home/pong/FPGALink/makestuff/libs/libutpp/Checks.h **** 
 8664              		.loc 5 64 27 discriminator 3
 8665 006d 4801D0   		addq	%rdx, %rax
 8666 0070 0FB600   		movzbl	(%rax), %eax
 8667 0073 0FBED0   		movsbl	%al, %edx
  64:/home/pong/FPGALink/makestuff/libs/libutpp/Checks.h **** 
 8668              		.loc 5 64 40 discriminator 3
 8669 0076 488B8528 		movq	-472(%rbp), %rax
 8669      FEFFFF
 8670 007d 488B30   		movq	(%rax), %rsi
  64:/home/pong/FPGALink/makestuff/libs/libutpp/Checks.h **** 
 8671              		.loc 5 64 41 discriminator 3
 8672 0080 8B8544FE 		movl	-444(%rbp), %eax
 8672      FFFF
 8673 0086 4898     		cltq
  64:/home/pong/FPGALink/makestuff/libs/libutpp/Checks.h **** 
 8674              		.loc 5 64 40 discriminator 3
 8675 0088 4801F0   		addq	%rsi, %rax
 8676 008b 0FB600   		movzbl	(%rax), %eax
 8677 008e 0FB6C0   		movzbl	%al, %eax
  64:/home/pong/FPGALink/makestuff/libs/libutpp/Checks.h **** 
 8678              		.loc 5 64 31 discriminator 3
 8679 0091 39C2     		cmpl	%eax, %edx
 8680 0093 0F94C0   		sete	%al
 8681 0096 0FB6C0   		movzbl	%al, %eax
  64:/home/pong/FPGALink/makestuff/libs/libutpp/Checks.h **** 
 8682              		.loc 5 64 15 discriminator 3
 8683 0099 21C8     		andl	%ecx, %eax
 8684 009b 85C0     		testl	%eax, %eax
 8685 009d 0F95C0   		setne	%al
 8686 00a0 888543FE 		movb	%al, -445(%rbp)
 8686      FFFF
  63:/home/pong/FPGALink/makestuff/libs/libutpp/Checks.h ****         equal &= (expected[i] == actual[i]);
 8687              		.loc 5 63 5 discriminator 3
 8688 00a6 838544FE 		addl	$1, -444(%rbp)
 8688      FFFF01
 8689              	.L417:
  63:/home/pong/FPGALink/makestuff/libs/libutpp/Checks.h ****         equal &= (expected[i] == actual[i]);
 8690              		.loc 5 63 23 discriminator 1
 8691 00ad 8B8544FE 		movl	-444(%rbp), %eax
 8691      FFFF
 8692 00b3 3B8524FE 		cmpl	-476(%rbp), %eax
 8692      FFFF
 8693 00b9 7C99     		jl	.L418
 8694              	.LBE57:
 8695              	.LBB58:
  66:/home/pong/FPGALink/makestuff/libs/libutpp/Checks.h ****     {
 8696              		.loc 5 66 10
 8697 00bb 0FB68543 		movzbl	-445(%rbp), %eax
 8697      FEFFFF
 8698 00c2 83F001   		xorl	$1, %eax
  66:/home/pong/FPGALink/makestuff/libs/libutpp/Checks.h ****     {
 8699              		.loc 5 66 5
 8700 00c5 84C0     		testb	%al, %al
 8701 00c7 0F847B01 		je	.L427
 8701      0000
 8702              	.LBB59:
  68:/home/pong/FPGALink/makestuff/libs/libutpp/Checks.h **** 
 8703              		.loc 5 68 35
 8704 00cd 488D8550 		leaq	-432(%rbp), %rax
 8704      FEFFFF
 8705 00d4 4889C7   		movq	%rax, %rdi
 8706              	.LEHB292:
 8707 00d7 E8000000 		call	_ZN8UnitTest15MemoryOutStreamC1Ev
 8707      00
 8708              	.LEHE292:
  70:/home/pong/FPGALink/makestuff/libs/libutpp/Checks.h **** 
 8709              		.loc 5 70 10
 8710 00dc 488D8550 		leaq	-432(%rbp), %rax
 8710      FEFFFF
 8711 00e3 488D1500 		leaq	.LC79(%rip), %rdx
 8711      000000
 8712 00ea 4889D6   		movq	%rdx, %rsi
 8713 00ed 4889C7   		movq	%rax, %rdi
 8714              	.LEHB293:
 8715 00f0 E8000000 		call	_ZStlsISt11char_traitsIcEERSt13basic_ostreamIcT_ES5_PKc@PLT
 8715      00
 8716              	.LBB60:
  72:/home/pong/FPGALink/makestuff/libs/libutpp/Checks.h ****             stream << expected[expectedIndex] << " ";
 8717              		.loc 5 72 12
 8718 00f5 C78548FE 		movl	$0, -440(%rbp)
 8718      FFFF0000 
 8718      0000
  72:/home/pong/FPGALink/makestuff/libs/libutpp/Checks.h ****             stream << expected[expectedIndex] << " ";
 8719              		.loc 5 72 3
 8720 00ff EB48     		jmp	.L420
 8721              	.L421:
  73:/home/pong/FPGALink/makestuff/libs/libutpp/Checks.h **** 
 8722              		.loc 5 73 31
 8723 0101 488B8530 		movq	-464(%rbp), %rax
 8723      FEFFFF
 8724 0108 488B10   		movq	(%rax), %rdx
  73:/home/pong/FPGALink/makestuff/libs/libutpp/Checks.h **** 
 8725              		.loc 5 73 32
 8726 010b 8B8548FE 		movl	-440(%rbp), %eax
 8726      FFFF
 8727 0111 4898     		cltq
  73:/home/pong/FPGALink/makestuff/libs/libutpp/Checks.h **** 
 8728              		.loc 5 73 31
 8729 0113 4801D0   		addq	%rdx, %rax
 8730 0116 0FB600   		movzbl	(%rax), %eax
  73:/home/pong/FPGALink/makestuff/libs/libutpp/Checks.h **** 
 8731              		.loc 5 73 47
 8732 0119 0FBED0   		movsbl	%al, %edx
 8733 011c 488D8550 		leaq	-432(%rbp), %rax
 8733      FEFFFF
 8734 0123 89D6     		movl	%edx, %esi
 8735 0125 4889C7   		movq	%rax, %rdi
 8736 0128 E8000000 		call	_ZStlsISt11char_traitsIcEERSt13basic_ostreamIcT_ES5_c@PLT
 8736      00
 8737 012d 4889C2   		movq	%rax, %rdx
 8738 0130 488D0500 		leaq	.LC80(%rip), %rax
 8738      000000
 8739 0137 4889C6   		movq	%rax, %rsi
 8740 013a 4889D7   		movq	%rdx, %rdi
 8741 013d E8000000 		call	_ZStlsISt11char_traitsIcEERSt13basic_ostreamIcT_ES5_PKc@PLT
 8741      00
  72:/home/pong/FPGALink/makestuff/libs/libutpp/Checks.h ****             stream << expected[expectedIndex] << " ";
 8742              		.loc 5 72 3 discriminator 2
 8743 0142 838548FE 		addl	$1, -440(%rbp)
 8743      FFFF01
 8744              	.L420:
  72:/home/pong/FPGALink/makestuff/libs/libutpp/Checks.h ****             stream << expected[expectedIndex] << " ";
 8745              		.loc 5 72 45 discriminator 1
 8746 0149 8B8548FE 		movl	-440(%rbp), %eax
 8746      FFFF
 8747 014f 3B8524FE 		cmpl	-476(%rbp), %eax
 8747      FFFF
 8748 0155 7CAA     		jl	.L421
 8749              	.LBE60:
  75:/home/pong/FPGALink/makestuff/libs/libutpp/Checks.h **** 
 8750              		.loc 5 75 10
 8751 0157 488D8550 		leaq	-432(%rbp), %rax
 8751      FEFFFF
 8752 015e 488D1500 		leaq	.LC81(%rip), %rdx
 8752      000000
 8753 0165 4889D6   		movq	%rdx, %rsi
 8754 0168 4889C7   		movq	%rax, %rdi
 8755 016b E8000000 		call	_ZStlsISt11char_traitsIcEERSt13basic_ostreamIcT_ES5_PKc@PLT
 8755      00
 8756              	.LBB61:
  77:/home/pong/FPGALink/makestuff/libs/libutpp/Checks.h ****             stream << actual[actualIndex] << " ";
 8757              		.loc 5 77 12
 8758 0170 C7854CFE 		movl	$0, -436(%rbp)
 8758      FFFF0000 
 8758      0000
  77:/home/pong/FPGALink/makestuff/libs/libutpp/Checks.h ****             stream << actual[actualIndex] << " ";
 8759              		.loc 5 77 3
 8760 017a EB48     		jmp	.L422
 8761              	.L423:
  78:/home/pong/FPGALink/makestuff/libs/libutpp/Checks.h **** 
 8762              		.loc 5 78 29
 8763 017c 488B8528 		movq	-472(%rbp), %rax
 8763      FEFFFF
 8764 0183 488B10   		movq	(%rax), %rdx
  78:/home/pong/FPGALink/makestuff/libs/libutpp/Checks.h **** 
 8765              		.loc 5 78 30
 8766 0186 8B854CFE 		movl	-436(%rbp), %eax
 8766      FFFF
 8767 018c 4898     		cltq
  78:/home/pong/FPGALink/makestuff/libs/libutpp/Checks.h **** 
 8768              		.loc 5 78 29
 8769 018e 4801D0   		addq	%rdx, %rax
 8770 0191 0FB600   		movzbl	(%rax), %eax
  78:/home/pong/FPGALink/makestuff/libs/libutpp/Checks.h **** 
 8771              		.loc 5 78 43
 8772 0194 0FB6D0   		movzbl	%al, %edx
 8773 0197 488D8550 		leaq	-432(%rbp), %rax
 8773      FEFFFF
 8774 019e 89D6     		movl	%edx, %esi
 8775 01a0 4889C7   		movq	%rax, %rdi
 8776 01a3 E8000000 		call	_ZStlsISt11char_traitsIcEERSt13basic_ostreamIcT_ES5_h@PLT
 8776      00
 8777 01a8 4889C2   		movq	%rax, %rdx
 8778 01ab 488D0500 		leaq	.LC80(%rip), %rax
 8778      000000
 8779 01b2 4889C6   		movq	%rax, %rsi
 8780 01b5 4889D7   		movq	%rdx, %rdi
 8781 01b8 E8000000 		call	_ZStlsISt11char_traitsIcEERSt13basic_ostreamIcT_ES5_PKc@PLT
 8781      00
  77:/home/pong/FPGALink/makestuff/libs/libutpp/Checks.h ****             stream << actual[actualIndex] << " ";
 8782              		.loc 5 77 3 discriminator 2
 8783 01bd 83854CFE 		addl	$1, -436(%rbp)
 8783      FFFF01
 8784              	.L422:
  77:/home/pong/FPGALink/makestuff/libs/libutpp/Checks.h ****             stream << actual[actualIndex] << " ";
 8785              		.loc 5 77 41 discriminator 1
 8786 01c4 8B854CFE 		movl	-436(%rbp), %eax
 8786      FFFF
 8787 01ca 3B8524FE 		cmpl	-476(%rbp), %eax
 8787      FFFF
 8788 01d0 7CAA     		jl	.L423
 8789              	.LBE61:
  80:/home/pong/FPGALink/makestuff/libs/libutpp/Checks.h **** 
 8790              		.loc 5 80 10
 8791 01d2 488D8550 		leaq	-432(%rbp), %rax
 8791      FEFFFF
 8792 01d9 488D1500 		leaq	.LC82(%rip), %rdx
 8792      000000
 8793 01e0 4889D6   		movq	%rdx, %rsi
 8794 01e3 4889C7   		movq	%rax, %rdi
 8795 01e6 E8000000 		call	_ZStlsISt11char_traitsIcEERSt13basic_ostreamIcT_ES5_PKc@PLT
 8795      00
  82:/home/pong/FPGALink/makestuff/libs/libutpp/Checks.h ****     }
 8796              		.loc 5 82 30
 8797 01eb 488D8550 		leaq	-432(%rbp), %rax
 8797      FEFFFF
 8798 01f2 4889C7   		movq	%rax, %rdi
 8799 01f5 E8000000 		call	_ZNK8UnitTest15MemoryOutStream7GetTextEv@PLT
 8799      00
 8800 01fa 4889C2   		movq	%rax, %rdx
 8801 01fd 488B8D18 		movq	-488(%rbp), %rcx
 8801      FEFFFF
 8802 0204 488B8538 		movq	-456(%rbp), %rax
 8802      FEFFFF
 8803 020b 4889CE   		movq	%rcx, %rsi
 8804 020e 4889C7   		movq	%rax, %rdi
 8805 0211 E8000000 		call	_ZN8UnitTest11TestResults13OnTestFailureERKNS_11TestDetailsEPKc@PLT
 8805      00
 8806              	.LEHE293:
  83:/home/pong/FPGALink/makestuff/libs/libutpp/Checks.h **** }
 8807              		.loc 5 83 5
 8808 0216 488D8550 		leaq	-432(%rbp), %rax
 8808      FEFFFF
 8809 021d 4889C7   		movq	%rax, %rdi
 8810              	.LEHB294:
 8811 0220 E8000000 		call	_ZN8UnitTest15MemoryOutStreamD1Ev
 8811      00
 8812              	.LEHE294:
 8813              	.LBE59:
 8814              	.LBE58:
 8815              		.loc 5 84 1
 8816 0225 EB21     		jmp	.L427
 8817              	.L426:
 8818 0227 F30F1EFA 		endbr64
 8819              	.LBB63:
 8820              	.LBB62:
  83:/home/pong/FPGALink/makestuff/libs/libutpp/Checks.h **** }
 8821              		.loc 5 83 5
 8822 022b 4889C3   		movq	%rax, %rbx
 8823 022e 488D8550 		leaq	-432(%rbp), %rax
 8823      FEFFFF
 8824 0235 4889C7   		movq	%rax, %rdi
 8825 0238 E8000000 		call	_ZN8UnitTest15MemoryOutStreamD1Ev
 8825      00
 8826 023d 4889D8   		movq	%rbx, %rax
 8827 0240 4889C7   		movq	%rax, %rdi
 8828              	.LEHB295:
 8829 0243 E8000000 		call	_Unwind_Resume@PLT
 8829      00
 8830              	.LEHE295:
 8831              	.L427:
 8832              	.LBE62:
 8833              	.LBE63:
 8834              		.loc 5 84 1
 8835 0248 90       		nop
 8836 0249 488B45E8 		movq	-24(%rbp), %rax
 8837 024d 64482B04 		subq	%fs:40, %rax
 8837      25280000 
 8837      00
 8838 0256 7405     		je	.L425
 8839 0258 E8000000 		call	__stack_chk_fail@PLT
 8839      00
 8840              	.L425:
 8841 025d 488B5DF8 		movq	-8(%rbp), %rbx
 8842 0261 C9       		leave
 8843              		.cfi_def_cfa 7, 8
 8844 0262 C3       		ret
 8845              		.cfi_endproc
 8846              	.LFE1317:
 8847              		.section	.gcc_except_table
 8848              	.LLSDA1317:
 8849 06cc FF       		.byte	0xff
 8850 06cd FF       		.byte	0xff
 8851 06ce 01       		.byte	0x1
 8852 06cf 16       		.uleb128 .LLSDACSE1317-.LLSDACSB1317
 8853              	.LLSDACSB1317:
 8854 06d0 D701     		.uleb128 .LEHB292-.LFB1317
 8855 06d2 05       		.uleb128 .LEHE292-.LEHB292
 8856 06d3 00       		.uleb128 0
 8857 06d4 00       		.uleb128 0
 8858 06d5 F001     		.uleb128 .LEHB293-.LFB1317
 8859 06d7 A602     		.uleb128 .LEHE293-.LEHB293
 8860 06d9 A704     		.uleb128 .L426-.LFB1317
 8861 06db 00       		.uleb128 0
 8862 06dc A004     		.uleb128 .LEHB294-.LFB1317
 8863 06de 05       		.uleb128 .LEHE294-.LEHB294
 8864 06df 00       		.uleb128 0
 8865 06e0 00       		.uleb128 0
 8866 06e1 C304     		.uleb128 .LEHB295-.LFB1317
 8867 06e3 05       		.uleb128 .LEHE295-.LEHB295
 8868 06e4 00       		.uleb128 0
 8869 06e5 00       		.uleb128 0
 8870              	.LLSDACSE1317:
 8871              		.section	.text._ZN8UnitTest15CheckArrayEqualIPKcPhEEvRNS_11TestResultsERKT_RKT0_iRKNS_11TestDetail
 8873              		.weak	_ZTV28TestHexIO_testDeriveWriteMap
 8874              		.section	.data.rel.ro.local._ZTV28TestHexIO_testDeriveWriteMap,"awG",@progbits,_ZTV28TestHexIO_tes
 8875              		.align 8
 8878              	_ZTV28TestHexIO_testDeriveWriteMap:
 8879 0000 00000000 		.quad	0
 8879      00000000 
 8880 0008 00000000 		.quad	_ZTI28TestHexIO_testDeriveWriteMap
 8880      00000000 
 8881 0010 00000000 		.quad	_ZN28TestHexIO_testDeriveWriteMapD1Ev
 8881      00000000 
 8882 0018 00000000 		.quad	_ZN28TestHexIO_testDeriveWriteMapD0Ev
 8882      00000000 
 8883 0020 00000000 		.quad	_ZNK28TestHexIO_testDeriveWriteMap7RunImplEv
 8883      00000000 
 8884              		.section	.text._ZN28TestHexIO_testDeriveWriteMapD2Ev,"axG",@progbits,_ZN28TestHexIO_testDeriveWrit
 8885              		.align 2
 8886              		.weak	_ZN28TestHexIO_testDeriveWriteMapD2Ev
 8888              	_ZN28TestHexIO_testDeriveWriteMapD2Ev:
 8889              	.LFB1396:
 303:testHexIO.cpp **** 	testDeriveWriteMap("Hello........World", "*****........*****");
 8890              		.loc 4 303 1
 8891              		.cfi_startproc
 8892 0000 F30F1EFA 		endbr64
 8893 0004 55       		pushq	%rbp
 8894              		.cfi_def_cfa_offset 16
 8895              		.cfi_offset 6, -16
 8896 0005 4889E5   		movq	%rsp, %rbp
 8897              		.cfi_def_cfa_register 6
 8898 0008 4883EC10 		subq	$16, %rsp
 8899 000c 48897DF8 		movq	%rdi, -8(%rbp)
 8900              	.LBB64:
 303:testHexIO.cpp **** 	testDeriveWriteMap("Hello........World", "*****........*****");
 8901              		.loc 4 303 1
 8902 0010 488D1500 		leaq	16+_ZTV28TestHexIO_testDeriveWriteMap(%rip), %rdx
 8902      000000
 8903 0017 488B45F8 		movq	-8(%rbp), %rax
 8904 001b 488910   		movq	%rdx, (%rax)
 8905 001e 488B45F8 		movq	-8(%rbp), %rax
 8906 0022 4889C7   		movq	%rax, %rdi
 8907 0025 E8000000 		call	_ZN8UnitTest4TestD2Ev@PLT
 8907      00
 8908              	.LBE64:
 8909 002a 90       		nop
 8910 002b C9       		leave
 8911              		.cfi_def_cfa 7, 8
 8912 002c C3       		ret
 8913              		.cfi_endproc
 8914              	.LFE1396:
 8916              		.weak	_ZN28TestHexIO_testDeriveWriteMapD1Ev
 8917              		.set	_ZN28TestHexIO_testDeriveWriteMapD1Ev,_ZN28TestHexIO_testDeriveWriteMapD2Ev
 8918              		.section	.text._ZN28TestHexIO_testDeriveWriteMapD0Ev,"axG",@progbits,_ZN28TestHexIO_testDeriveWrit
 8919              		.align 2
 8920              		.weak	_ZN28TestHexIO_testDeriveWriteMapD0Ev
 8922              	_ZN28TestHexIO_testDeriveWriteMapD0Ev:
 8923              	.LFB1398:
 303:testHexIO.cpp **** 	testDeriveWriteMap("Hello........World", "*****........*****");
 8924              		.loc 4 303 1
 8925              		.cfi_startproc
 8926              		.cfi_personality 0x9b,DW.ref.__gxx_personality_v0
 8927              		.cfi_lsda 0x1b,.LLSDA1398
 8928 0000 F30F1EFA 		endbr64
 8929 0004 55       		pushq	%rbp
 8930              		.cfi_def_cfa_offset 16
 8931              		.cfi_offset 6, -16
 8932 0005 4889E5   		movq	%rsp, %rbp
 8933              		.cfi_def_cfa_register 6
 8934 0008 53       		pushq	%rbx
 8935 0009 4883EC18 		subq	$24, %rsp
 8936              		.cfi_offset 3, -24
 8937 000d 48897DE8 		movq	%rdi, -24(%rbp)
 303:testHexIO.cpp **** 	testDeriveWriteMap("Hello........World", "*****........*****");
 8938              		.loc 4 303 1
 8939 0011 488B45E8 		movq	-24(%rbp), %rax
 8940 0015 4889C7   		movq	%rax, %rdi
 8941              	.LEHB296:
 8942 0018 E8000000 		call	_ZN28TestHexIO_testDeriveWriteMapD1Ev
 8942      00
 8943              	.LEHE296:
 303:testHexIO.cpp **** 	testDeriveWriteMap("Hello........World", "*****........*****");
 8944              		.loc 4 303 1 is_stmt 0 discriminator 2
 8945 001d 488B45E8 		movq	-24(%rbp), %rax
 8946 0021 4889C7   		movq	%rax, %rdi
 8947 0024 E8000000 		call	_ZdlPv@PLT
 8947      00
 8948 0029 EB1E     		jmp	.L432
 8949              	.L431:
 8950 002b F30F1EFA 		endbr64
 303:testHexIO.cpp **** 	testDeriveWriteMap("Hello........World", "*****........*****");
 8951              		.loc 4 303 1
 8952 002f 4889C3   		movq	%rax, %rbx
 8953 0032 488B45E8 		movq	-24(%rbp), %rax
 8954 0036 4889C7   		movq	%rax, %rdi
 8955 0039 E8000000 		call	_ZdlPv@PLT
 8955      00
 8956 003e 4889D8   		movq	%rbx, %rax
 8957 0041 4889C7   		movq	%rax, %rdi
 8958              	.LEHB297:
 8959 0044 E8000000 		call	_Unwind_Resume@PLT
 8959      00
 8960              	.LEHE297:
 8961              	.L432:
 8962 0049 488B5DF8 		movq	-8(%rbp), %rbx
 8963 004d C9       		leave
 8964              		.cfi_def_cfa 7, 8
 8965 004e C3       		ret
 8966              		.cfi_endproc
 8967              	.LFE1398:
 8968              		.section	.gcc_except_table
 8969              	.LLSDA1398:
 8970 06e6 FF       		.byte	0xff
 8971 06e7 FF       		.byte	0xff
 8972 06e8 01       		.byte	0x1
 8973 06e9 08       		.uleb128 .LLSDACSE1398-.LLSDACSB1398
 8974              	.LLSDACSB1398:
 8975 06ea 18       		.uleb128 .LEHB296-.LFB1398
 8976 06eb 05       		.uleb128 .LEHE296-.LEHB296
 8977 06ec 2B       		.uleb128 .L431-.LFB1398
 8978 06ed 00       		.uleb128 0
 8979 06ee 44       		.uleb128 .LEHB297-.LFB1398
 8980 06ef 05       		.uleb128 .LEHE297-.LEHB297
 8981 06f0 00       		.uleb128 0
 8982 06f1 00       		.uleb128 0
 8983              	.LLSDACSE1398:
 8984              		.section	.text._ZN28TestHexIO_testDeriveWriteMapD0Ev,"axG",@progbits,_ZN28TestHexIO_testDeriveWrit
 8986              		.weak	_ZTV23TestHexIO_testRoundTrip
 8987              		.section	.data.rel.ro.local._ZTV23TestHexIO_testRoundTrip,"awG",@progbits,_ZTV23TestHexIO_testRoun
 8988              		.align 8
 8991              	_ZTV23TestHexIO_testRoundTrip:
 8992 0000 00000000 		.quad	0
 8992      00000000 
 8993 0008 00000000 		.quad	_ZTI23TestHexIO_testRoundTrip
 8993      00000000 
 8994 0010 00000000 		.quad	_ZN23TestHexIO_testRoundTripD1Ev
 8994      00000000 
 8995 0018 00000000 		.quad	_ZN23TestHexIO_testRoundTripD0Ev
 8995      00000000 
 8996 0020 00000000 		.quad	_ZNK23TestHexIO_testRoundTrip7RunImplEv
 8996      00000000 
 8997              		.section	.text._ZN23TestHexIO_testRoundTripD2Ev,"axG",@progbits,_ZN23TestHexIO_testRoundTripD5Ev,c
 8998              		.align 2
 8999              		.weak	_ZN23TestHexIO_testRoundTripD2Ev
 9001              	_ZN23TestHexIO_testRoundTripD2Ev:
 9002              	.LFB1400:
 242:testHexIO.cpp **** 	testRoundTrip(
 9003              		.loc 4 242 1 is_stmt 1
 9004              		.cfi_startproc
 9005 0000 F30F1EFA 		endbr64
 9006 0004 55       		pushq	%rbp
 9007              		.cfi_def_cfa_offset 16
 9008              		.cfi_offset 6, -16
 9009 0005 4889E5   		movq	%rsp, %rbp
 9010              		.cfi_def_cfa_register 6
 9011 0008 4883EC10 		subq	$16, %rsp
 9012 000c 48897DF8 		movq	%rdi, -8(%rbp)
 9013              	.LBB65:
 242:testHexIO.cpp **** 	testRoundTrip(
 9014              		.loc 4 242 1
 9015 0010 488D1500 		leaq	16+_ZTV23TestHexIO_testRoundTrip(%rip), %rdx
 9015      000000
 9016 0017 488B45F8 		movq	-8(%rbp), %rax
 9017 001b 488910   		movq	%rdx, (%rax)
 9018 001e 488B45F8 		movq	-8(%rbp), %rax
 9019 0022 4889C7   		movq	%rax, %rdi
 9020 0025 E8000000 		call	_ZN8UnitTest4TestD2Ev@PLT
 9020      00
 9021              	.LBE65:
 9022 002a 90       		nop
 9023 002b C9       		leave
 9024              		.cfi_def_cfa 7, 8
 9025 002c C3       		ret
 9026              		.cfi_endproc
 9027              	.LFE1400:
 9029              		.weak	_ZN23TestHexIO_testRoundTripD1Ev
 9030              		.set	_ZN23TestHexIO_testRoundTripD1Ev,_ZN23TestHexIO_testRoundTripD2Ev
 9031              		.section	.text._ZN23TestHexIO_testRoundTripD0Ev,"axG",@progbits,_ZN23TestHexIO_testRoundTripD5Ev,c
 9032              		.align 2
 9033              		.weak	_ZN23TestHexIO_testRoundTripD0Ev
 9035              	_ZN23TestHexIO_testRoundTripD0Ev:
 9036              	.LFB1402:
 242:testHexIO.cpp **** 	testRoundTrip(
 9037              		.loc 4 242 1
 9038              		.cfi_startproc
 9039              		.cfi_personality 0x9b,DW.ref.__gxx_personality_v0
 9040              		.cfi_lsda 0x1b,.LLSDA1402
 9041 0000 F30F1EFA 		endbr64
 9042 0004 55       		pushq	%rbp
 9043              		.cfi_def_cfa_offset 16
 9044              		.cfi_offset 6, -16
 9045 0005 4889E5   		movq	%rsp, %rbp
 9046              		.cfi_def_cfa_register 6
 9047 0008 53       		pushq	%rbx
 9048 0009 4883EC18 		subq	$24, %rsp
 9049              		.cfi_offset 3, -24
 9050 000d 48897DE8 		movq	%rdi, -24(%rbp)
 242:testHexIO.cpp **** 	testRoundTrip(
 9051              		.loc 4 242 1
 9052 0011 488B45E8 		movq	-24(%rbp), %rax
 9053 0015 4889C7   		movq	%rax, %rdi
 9054              	.LEHB298:
 9055 0018 E8000000 		call	_ZN23TestHexIO_testRoundTripD1Ev
 9055      00
 9056              	.LEHE298:
 242:testHexIO.cpp **** 	testRoundTrip(
 9057              		.loc 4 242 1 is_stmt 0 discriminator 2
 9058 001d 488B45E8 		movq	-24(%rbp), %rax
 9059 0021 4889C7   		movq	%rax, %rdi
 9060 0024 E8000000 		call	_ZdlPv@PLT
 9060      00
 9061 0029 EB1E     		jmp	.L437
 9062              	.L436:
 9063 002b F30F1EFA 		endbr64
 242:testHexIO.cpp **** 	testRoundTrip(
 9064              		.loc 4 242 1
 9065 002f 4889C3   		movq	%rax, %rbx
 9066 0032 488B45E8 		movq	-24(%rbp), %rax
 9067 0036 4889C7   		movq	%rax, %rdi
 9068 0039 E8000000 		call	_ZdlPv@PLT
 9068      00
 9069 003e 4889D8   		movq	%rbx, %rax
 9070 0041 4889C7   		movq	%rax, %rdi
 9071              	.LEHB299:
 9072 0044 E8000000 		call	_Unwind_Resume@PLT
 9072      00
 9073              	.LEHE299:
 9074              	.L437:
 9075 0049 488B5DF8 		movq	-8(%rbp), %rbx
 9076 004d C9       		leave
 9077              		.cfi_def_cfa 7, 8
 9078 004e C3       		ret
 9079              		.cfi_endproc
 9080              	.LFE1402:
 9081              		.section	.gcc_except_table
 9082              	.LLSDA1402:
 9083 06f2 FF       		.byte	0xff
 9084 06f3 FF       		.byte	0xff
 9085 06f4 01       		.byte	0x1
 9086 06f5 08       		.uleb128 .LLSDACSE1402-.LLSDACSB1402
 9087              	.LLSDACSB1402:
 9088 06f6 18       		.uleb128 .LEHB298-.LFB1402
 9089 06f7 05       		.uleb128 .LEHE298-.LEHB298
 9090 06f8 2B       		.uleb128 .L436-.LFB1402
 9091 06f9 00       		.uleb128 0
 9092 06fa 44       		.uleb128 .LEHB299-.LFB1402
 9093 06fb 05       		.uleb128 .LEHE299-.LEHB299
 9094 06fc 00       		.uleb128 0
 9095 06fd 00       		.uleb128 0
 9096              	.LLSDACSE1402:
 9097              		.section	.text._ZN23TestHexIO_testRoundTripD0Ev,"axG",@progbits,_ZN23TestHexIO_testRoundTripD5Ev,c
 9099              		.weak	_ZTV25TestHexIO_testCorruptLine
 9100              		.section	.data.rel.ro.local._ZTV25TestHexIO_testCorruptLine,"awG",@progbits,_ZTV25TestHexIO_testCo
 9101              		.align 8
 9104              	_ZTV25TestHexIO_testCorruptLine:
 9105 0000 00000000 		.quad	0
 9105      00000000 
 9106 0008 00000000 		.quad	_ZTI25TestHexIO_testCorruptLine
 9106      00000000 
 9107 0010 00000000 		.quad	_ZN25TestHexIO_testCorruptLineD1Ev
 9107      00000000 
 9108 0018 00000000 		.quad	_ZN25TestHexIO_testCorruptLineD0Ev
 9108      00000000 
 9109 0020 00000000 		.quad	_ZNK25TestHexIO_testCorruptLine7RunImplEv
 9109      00000000 
 9110              		.section	.text._ZN25TestHexIO_testCorruptLineD2Ev,"axG",@progbits,_ZN25TestHexIO_testCorruptLineD5
 9111              		.align 2
 9112              		.weak	_ZN25TestHexIO_testCorruptLineD2Ev
 9114              	_ZN25TestHexIO_testCorruptLineD2Ev:
 9115              	.LFB1404:
 173:testHexIO.cpp **** 	Buffer data;
 9116              		.loc 4 173 1 is_stmt 1
 9117              		.cfi_startproc
 9118 0000 F30F1EFA 		endbr64
 9119 0004 55       		pushq	%rbp
 9120              		.cfi_def_cfa_offset 16
 9121              		.cfi_offset 6, -16
 9122 0005 4889E5   		movq	%rsp, %rbp
 9123              		.cfi_def_cfa_register 6
 9124 0008 4883EC10 		subq	$16, %rsp
 9125 000c 48897DF8 		movq	%rdi, -8(%rbp)
 9126              	.LBB66:
 173:testHexIO.cpp **** 	Buffer data;
 9127              		.loc 4 173 1
 9128 0010 488D1500 		leaq	16+_ZTV25TestHexIO_testCorruptLine(%rip), %rdx
 9128      000000
 9129 0017 488B45F8 		movq	-8(%rbp), %rax
 9130 001b 488910   		movq	%rdx, (%rax)
 9131 001e 488B45F8 		movq	-8(%rbp), %rax
 9132 0022 4889C7   		movq	%rax, %rdi
 9133 0025 E8000000 		call	_ZN8UnitTest4TestD2Ev@PLT
 9133      00
 9134              	.LBE66:
 9135 002a 90       		nop
 9136 002b C9       		leave
 9137              		.cfi_def_cfa 7, 8
 9138 002c C3       		ret
 9139              		.cfi_endproc
 9140              	.LFE1404:
 9142              		.weak	_ZN25TestHexIO_testCorruptLineD1Ev
 9143              		.set	_ZN25TestHexIO_testCorruptLineD1Ev,_ZN25TestHexIO_testCorruptLineD2Ev
 9144              		.section	.text._ZN25TestHexIO_testCorruptLineD0Ev,"axG",@progbits,_ZN25TestHexIO_testCorruptLineD5
 9145              		.align 2
 9146              		.weak	_ZN25TestHexIO_testCorruptLineD0Ev
 9148              	_ZN25TestHexIO_testCorruptLineD0Ev:
 9149              	.LFB1406:
 173:testHexIO.cpp **** 	Buffer data;
 9150              		.loc 4 173 1
 9151              		.cfi_startproc
 9152              		.cfi_personality 0x9b,DW.ref.__gxx_personality_v0
 9153              		.cfi_lsda 0x1b,.LLSDA1406
 9154 0000 F30F1EFA 		endbr64
 9155 0004 55       		pushq	%rbp
 9156              		.cfi_def_cfa_offset 16
 9157              		.cfi_offset 6, -16
 9158 0005 4889E5   		movq	%rsp, %rbp
 9159              		.cfi_def_cfa_register 6
 9160 0008 53       		pushq	%rbx
 9161 0009 4883EC18 		subq	$24, %rsp
 9162              		.cfi_offset 3, -24
 9163 000d 48897DE8 		movq	%rdi, -24(%rbp)
 173:testHexIO.cpp **** 	Buffer data;
 9164              		.loc 4 173 1
 9165 0011 488B45E8 		movq	-24(%rbp), %rax
 9166 0015 4889C7   		movq	%rax, %rdi
 9167              	.LEHB300:
 9168 0018 E8000000 		call	_ZN25TestHexIO_testCorruptLineD1Ev
 9168      00
 9169              	.LEHE300:
 173:testHexIO.cpp **** 	Buffer data;
 9170              		.loc 4 173 1 is_stmt 0 discriminator 2
 9171 001d 488B45E8 		movq	-24(%rbp), %rax
 9172 0021 4889C7   		movq	%rax, %rdi
 9173 0024 E8000000 		call	_ZdlPv@PLT
 9173      00
 9174 0029 EB1E     		jmp	.L442
 9175              	.L441:
 9176 002b F30F1EFA 		endbr64
 173:testHexIO.cpp **** 	Buffer data;
 9177              		.loc 4 173 1
 9178 002f 4889C3   		movq	%rax, %rbx
 9179 0032 488B45E8 		movq	-24(%rbp), %rax
 9180 0036 4889C7   		movq	%rax, %rdi
 9181 0039 E8000000 		call	_ZdlPv@PLT
 9181      00
 9182 003e 4889D8   		movq	%rbx, %rax
 9183 0041 4889C7   		movq	%rax, %rdi
 9184              	.LEHB301:
 9185 0044 E8000000 		call	_Unwind_Resume@PLT
 9185      00
 9186              	.LEHE301:
 9187              	.L442:
 9188 0049 488B5DF8 		movq	-8(%rbp), %rbx
 9189 004d C9       		leave
 9190              		.cfi_def_cfa 7, 8
 9191 004e C3       		ret
 9192              		.cfi_endproc
 9193              	.LFE1406:
 9194              		.section	.gcc_except_table
 9195              	.LLSDA1406:
 9196 06fe FF       		.byte	0xff
 9197 06ff FF       		.byte	0xff
 9198 0700 01       		.byte	0x1
 9199 0701 08       		.uleb128 .LLSDACSE1406-.LLSDACSB1406
 9200              	.LLSDACSB1406:
 9201 0702 18       		.uleb128 .LEHB300-.LFB1406
 9202 0703 05       		.uleb128 .LEHE300-.LEHB300
 9203 0704 2B       		.uleb128 .L441-.LFB1406
 9204 0705 00       		.uleb128 0
 9205 0706 44       		.uleb128 .LEHB301-.LFB1406
 9206 0707 05       		.uleb128 .LEHE301-.LEHB301
 9207 0708 00       		.uleb128 0
 9208 0709 00       		.uleb128 0
 9209              	.LLSDACSE1406:
 9210              		.section	.text._ZN25TestHexIO_testCorruptLineD0Ev,"axG",@progbits,_ZN25TestHexIO_testCorruptLineD5
 9212              		.weak	_ZTV25TestHexIO_testBadChecksum
 9213              		.section	.data.rel.ro.local._ZTV25TestHexIO_testBadChecksum,"awG",@progbits,_ZTV25TestHexIO_testBa
 9214              		.align 8
 9217              	_ZTV25TestHexIO_testBadChecksum:
 9218 0000 00000000 		.quad	0
 9218      00000000 
 9219 0008 00000000 		.quad	_ZTI25TestHexIO_testBadChecksum
 9219      00000000 
 9220 0010 00000000 		.quad	_ZN25TestHexIO_testBadChecksumD1Ev
 9220      00000000 
 9221 0018 00000000 		.quad	_ZN25TestHexIO_testBadChecksumD0Ev
 9221      00000000 
 9222 0020 00000000 		.quad	_ZNK25TestHexIO_testBadChecksum7RunImplEv
 9222      00000000 
 9223              		.section	.text._ZN25TestHexIO_testBadChecksumD2Ev,"axG",@progbits,_ZN25TestHexIO_testBadChecksumD5
 9224              		.align 2
 9225              		.weak	_ZN25TestHexIO_testBadChecksumD2Ev
 9227              	_ZN25TestHexIO_testBadChecksumD2Ev:
 9228              	.LFB1408:
 160:testHexIO.cpp **** 	Buffer data;
 9229              		.loc 4 160 1 is_stmt 1
 9230              		.cfi_startproc
 9231 0000 F30F1EFA 		endbr64
 9232 0004 55       		pushq	%rbp
 9233              		.cfi_def_cfa_offset 16
 9234              		.cfi_offset 6, -16
 9235 0005 4889E5   		movq	%rsp, %rbp
 9236              		.cfi_def_cfa_register 6
 9237 0008 4883EC10 		subq	$16, %rsp
 9238 000c 48897DF8 		movq	%rdi, -8(%rbp)
 9239              	.LBB67:
 160:testHexIO.cpp **** 	Buffer data;
 9240              		.loc 4 160 1
 9241 0010 488D1500 		leaq	16+_ZTV25TestHexIO_testBadChecksum(%rip), %rdx
 9241      000000
 9242 0017 488B45F8 		movq	-8(%rbp), %rax
 9243 001b 488910   		movq	%rdx, (%rax)
 9244 001e 488B45F8 		movq	-8(%rbp), %rax
 9245 0022 4889C7   		movq	%rax, %rdi
 9246 0025 E8000000 		call	_ZN8UnitTest4TestD2Ev@PLT
 9246      00
 9247              	.LBE67:
 9248 002a 90       		nop
 9249 002b C9       		leave
 9250              		.cfi_def_cfa 7, 8
 9251 002c C3       		ret
 9252              		.cfi_endproc
 9253              	.LFE1408:
 9255              		.weak	_ZN25TestHexIO_testBadChecksumD1Ev
 9256              		.set	_ZN25TestHexIO_testBadChecksumD1Ev,_ZN25TestHexIO_testBadChecksumD2Ev
 9257              		.section	.text._ZN25TestHexIO_testBadChecksumD0Ev,"axG",@progbits,_ZN25TestHexIO_testBadChecksumD5
 9258              		.align 2
 9259              		.weak	_ZN25TestHexIO_testBadChecksumD0Ev
 9261              	_ZN25TestHexIO_testBadChecksumD0Ev:
 9262              	.LFB1410:
 160:testHexIO.cpp **** 	Buffer data;
 9263              		.loc 4 160 1
 9264              		.cfi_startproc
 9265              		.cfi_personality 0x9b,DW.ref.__gxx_personality_v0
 9266              		.cfi_lsda 0x1b,.LLSDA1410
 9267 0000 F30F1EFA 		endbr64
 9268 0004 55       		pushq	%rbp
 9269              		.cfi_def_cfa_offset 16
 9270              		.cfi_offset 6, -16
 9271 0005 4889E5   		movq	%rsp, %rbp
 9272              		.cfi_def_cfa_register 6
 9273 0008 53       		pushq	%rbx
 9274 0009 4883EC18 		subq	$24, %rsp
 9275              		.cfi_offset 3, -24
 9276 000d 48897DE8 		movq	%rdi, -24(%rbp)
 160:testHexIO.cpp **** 	Buffer data;
 9277              		.loc 4 160 1
 9278 0011 488B45E8 		movq	-24(%rbp), %rax
 9279 0015 4889C7   		movq	%rax, %rdi
 9280              	.LEHB302:
 9281 0018 E8000000 		call	_ZN25TestHexIO_testBadChecksumD1Ev
 9281      00
 9282              	.LEHE302:
 160:testHexIO.cpp **** 	Buffer data;
 9283              		.loc 4 160 1 is_stmt 0 discriminator 2
 9284 001d 488B45E8 		movq	-24(%rbp), %rax
 9285 0021 4889C7   		movq	%rax, %rdi
 9286 0024 E8000000 		call	_ZdlPv@PLT
 9286      00
 9287 0029 EB1E     		jmp	.L447
 9288              	.L446:
 9289 002b F30F1EFA 		endbr64
 160:testHexIO.cpp **** 	Buffer data;
 9290              		.loc 4 160 1
 9291 002f 4889C3   		movq	%rax, %rbx
 9292 0032 488B45E8 		movq	-24(%rbp), %rax
 9293 0036 4889C7   		movq	%rax, %rdi
 9294 0039 E8000000 		call	_ZdlPv@PLT
 9294      00
 9295 003e 4889D8   		movq	%rbx, %rax
 9296 0041 4889C7   		movq	%rax, %rdi
 9297              	.LEHB303:
 9298 0044 E8000000 		call	_Unwind_Resume@PLT
 9298      00
 9299              	.LEHE303:
 9300              	.L447:
 9301 0049 488B5DF8 		movq	-8(%rbp), %rbx
 9302 004d C9       		leave
 9303              		.cfi_def_cfa 7, 8
 9304 004e C3       		ret
 9305              		.cfi_endproc
 9306              	.LFE1410:
 9307              		.section	.gcc_except_table
 9308              	.LLSDA1410:
 9309 070a FF       		.byte	0xff
 9310 070b FF       		.byte	0xff
 9311 070c 01       		.byte	0x1
 9312 070d 08       		.uleb128 .LLSDACSE1410-.LLSDACSB1410
 9313              	.LLSDACSB1410:
 9314 070e 18       		.uleb128 .LEHB302-.LFB1410
 9315 070f 05       		.uleb128 .LEHE302-.LEHB302
 9316 0710 2B       		.uleb128 .L446-.LFB1410
 9317 0711 00       		.uleb128 0
 9318 0712 44       		.uleb128 .LEHB303-.LFB1410
 9319 0713 05       		.uleb128 .LEHE303-.LEHB303
 9320 0714 00       		.uleb128 0
 9321 0715 00       		.uleb128 0
 9322              	.LLSDACSE1410:
 9323              		.section	.text._ZN25TestHexIO_testBadChecksumD0Ev,"axG",@progbits,_ZN25TestHexIO_testBadChecksumD5
 9325              		.weak	_ZTV26TestHexIO_testJunkChecksum
 9326              		.section	.data.rel.ro.local._ZTV26TestHexIO_testJunkChecksum,"awG",@progbits,_ZTV26TestHexIO_testJ
 9327              		.align 8
 9330              	_ZTV26TestHexIO_testJunkChecksum:
 9331 0000 00000000 		.quad	0
 9331      00000000 
 9332 0008 00000000 		.quad	_ZTI26TestHexIO_testJunkChecksum
 9332      00000000 
 9333 0010 00000000 		.quad	_ZN26TestHexIO_testJunkChecksumD1Ev
 9333      00000000 
 9334 0018 00000000 		.quad	_ZN26TestHexIO_testJunkChecksumD0Ev
 9334      00000000 
 9335 0020 00000000 		.quad	_ZNK26TestHexIO_testJunkChecksum7RunImplEv
 9335      00000000 
 9336              		.section	.text._ZN26TestHexIO_testJunkChecksumD2Ev,"axG",@progbits,_ZN26TestHexIO_testJunkChecksum
 9337              		.align 2
 9338              		.weak	_ZN26TestHexIO_testJunkChecksumD2Ev
 9340              	_ZN26TestHexIO_testJunkChecksumD2Ev:
 9341              	.LFB1412:
 147:testHexIO.cpp **** 	Buffer data;
 9342              		.loc 4 147 1 is_stmt 1
 9343              		.cfi_startproc
 9344 0000 F30F1EFA 		endbr64
 9345 0004 55       		pushq	%rbp
 9346              		.cfi_def_cfa_offset 16
 9347              		.cfi_offset 6, -16
 9348 0005 4889E5   		movq	%rsp, %rbp
 9349              		.cfi_def_cfa_register 6
 9350 0008 4883EC10 		subq	$16, %rsp
 9351 000c 48897DF8 		movq	%rdi, -8(%rbp)
 9352              	.LBB68:
 147:testHexIO.cpp **** 	Buffer data;
 9353              		.loc 4 147 1
 9354 0010 488D1500 		leaq	16+_ZTV26TestHexIO_testJunkChecksum(%rip), %rdx
 9354      000000
 9355 0017 488B45F8 		movq	-8(%rbp), %rax
 9356 001b 488910   		movq	%rdx, (%rax)
 9357 001e 488B45F8 		movq	-8(%rbp), %rax
 9358 0022 4889C7   		movq	%rax, %rdi
 9359 0025 E8000000 		call	_ZN8UnitTest4TestD2Ev@PLT
 9359      00
 9360              	.LBE68:
 9361 002a 90       		nop
 9362 002b C9       		leave
 9363              		.cfi_def_cfa 7, 8
 9364 002c C3       		ret
 9365              		.cfi_endproc
 9366              	.LFE1412:
 9368              		.weak	_ZN26TestHexIO_testJunkChecksumD1Ev
 9369              		.set	_ZN26TestHexIO_testJunkChecksumD1Ev,_ZN26TestHexIO_testJunkChecksumD2Ev
 9370              		.section	.text._ZN26TestHexIO_testJunkChecksumD0Ev,"axG",@progbits,_ZN26TestHexIO_testJunkChecksum
 9371              		.align 2
 9372              		.weak	_ZN26TestHexIO_testJunkChecksumD0Ev
 9374              	_ZN26TestHexIO_testJunkChecksumD0Ev:
 9375              	.LFB1414:
 147:testHexIO.cpp **** 	Buffer data;
 9376              		.loc 4 147 1
 9377              		.cfi_startproc
 9378              		.cfi_personality 0x9b,DW.ref.__gxx_personality_v0
 9379              		.cfi_lsda 0x1b,.LLSDA1414
 9380 0000 F30F1EFA 		endbr64
 9381 0004 55       		pushq	%rbp
 9382              		.cfi_def_cfa_offset 16
 9383              		.cfi_offset 6, -16
 9384 0005 4889E5   		movq	%rsp, %rbp
 9385              		.cfi_def_cfa_register 6
 9386 0008 53       		pushq	%rbx
 9387 0009 4883EC18 		subq	$24, %rsp
 9388              		.cfi_offset 3, -24
 9389 000d 48897DE8 		movq	%rdi, -24(%rbp)
 147:testHexIO.cpp **** 	Buffer data;
 9390              		.loc 4 147 1
 9391 0011 488B45E8 		movq	-24(%rbp), %rax
 9392 0015 4889C7   		movq	%rax, %rdi
 9393              	.LEHB304:
 9394 0018 E8000000 		call	_ZN26TestHexIO_testJunkChecksumD1Ev
 9394      00
 9395              	.LEHE304:
 147:testHexIO.cpp **** 	Buffer data;
 9396              		.loc 4 147 1 is_stmt 0 discriminator 2
 9397 001d 488B45E8 		movq	-24(%rbp), %rax
 9398 0021 4889C7   		movq	%rax, %rdi
 9399 0024 E8000000 		call	_ZdlPv@PLT
 9399      00
 9400 0029 EB1E     		jmp	.L452
 9401              	.L451:
 9402 002b F30F1EFA 		endbr64
 147:testHexIO.cpp **** 	Buffer data;
 9403              		.loc 4 147 1
 9404 002f 4889C3   		movq	%rax, %rbx
 9405 0032 488B45E8 		movq	-24(%rbp), %rax
 9406 0036 4889C7   		movq	%rax, %rdi
 9407 0039 E8000000 		call	_ZdlPv@PLT
 9407      00
 9408 003e 4889D8   		movq	%rbx, %rax
 9409 0041 4889C7   		movq	%rax, %rdi
 9410              	.LEHB305:
 9411 0044 E8000000 		call	_Unwind_Resume@PLT
 9411      00
 9412              	.LEHE305:
 9413              	.L452:
 9414 0049 488B5DF8 		movq	-8(%rbp), %rbx
 9415 004d C9       		leave
 9416              		.cfi_def_cfa 7, 8
 9417 004e C3       		ret
 9418              		.cfi_endproc
 9419              	.LFE1414:
 9420              		.section	.gcc_except_table
 9421              	.LLSDA1414:
 9422 0716 FF       		.byte	0xff
 9423 0717 FF       		.byte	0xff
 9424 0718 01       		.byte	0x1
 9425 0719 08       		.uleb128 .LLSDACSE1414-.LLSDACSB1414
 9426              	.LLSDACSB1414:
 9427 071a 18       		.uleb128 .LEHB304-.LFB1414
 9428 071b 05       		.uleb128 .LEHE304-.LEHB304
 9429 071c 2B       		.uleb128 .L451-.LFB1414
 9430 071d 00       		.uleb128 0
 9431 071e 44       		.uleb128 .LEHB305-.LFB1414
 9432 071f 05       		.uleb128 .LEHE305-.LEHB305
 9433 0720 00       		.uleb128 0
 9434 0721 00       		.uleb128 0
 9435              	.LLSDACSE1414:
 9436              		.section	.text._ZN26TestHexIO_testJunkChecksumD0Ev,"axG",@progbits,_ZN26TestHexIO_testJunkChecksum
 9438              		.weak	_ZTV26TestHexIO_testJunkDataByte
 9439              		.section	.data.rel.ro.local._ZTV26TestHexIO_testJunkDataByte,"awG",@progbits,_ZTV26TestHexIO_testJ
 9440              		.align 8
 9443              	_ZTV26TestHexIO_testJunkDataByte:
 9444 0000 00000000 		.quad	0
 9444      00000000 
 9445 0008 00000000 		.quad	_ZTI26TestHexIO_testJunkDataByte
 9445      00000000 
 9446 0010 00000000 		.quad	_ZN26TestHexIO_testJunkDataByteD1Ev
 9446      00000000 
 9447 0018 00000000 		.quad	_ZN26TestHexIO_testJunkDataByteD0Ev
 9447      00000000 
 9448 0020 00000000 		.quad	_ZNK26TestHexIO_testJunkDataByte7RunImplEv
 9448      00000000 
 9449              		.section	.text._ZN26TestHexIO_testJunkDataByteD2Ev,"axG",@progbits,_ZN26TestHexIO_testJunkDataByte
 9450              		.align 2
 9451              		.weak	_ZN26TestHexIO_testJunkDataByteD2Ev
 9453              	_ZN26TestHexIO_testJunkDataByteD2Ev:
 9454              	.LFB1416:
 134:testHexIO.cpp **** 	Buffer data;
 9455              		.loc 4 134 1 is_stmt 1
 9456              		.cfi_startproc
 9457 0000 F30F1EFA 		endbr64
 9458 0004 55       		pushq	%rbp
 9459              		.cfi_def_cfa_offset 16
 9460              		.cfi_offset 6, -16
 9461 0005 4889E5   		movq	%rsp, %rbp
 9462              		.cfi_def_cfa_register 6
 9463 0008 4883EC10 		subq	$16, %rsp
 9464 000c 48897DF8 		movq	%rdi, -8(%rbp)
 9465              	.LBB69:
 134:testHexIO.cpp **** 	Buffer data;
 9466              		.loc 4 134 1
 9467 0010 488D1500 		leaq	16+_ZTV26TestHexIO_testJunkDataByte(%rip), %rdx
 9467      000000
 9468 0017 488B45F8 		movq	-8(%rbp), %rax
 9469 001b 488910   		movq	%rdx, (%rax)
 9470 001e 488B45F8 		movq	-8(%rbp), %rax
 9471 0022 4889C7   		movq	%rax, %rdi
 9472 0025 E8000000 		call	_ZN8UnitTest4TestD2Ev@PLT
 9472      00
 9473              	.LBE69:
 9474 002a 90       		nop
 9475 002b C9       		leave
 9476              		.cfi_def_cfa 7, 8
 9477 002c C3       		ret
 9478              		.cfi_endproc
 9479              	.LFE1416:
 9481              		.weak	_ZN26TestHexIO_testJunkDataByteD1Ev
 9482              		.set	_ZN26TestHexIO_testJunkDataByteD1Ev,_ZN26TestHexIO_testJunkDataByteD2Ev
 9483              		.section	.text._ZN26TestHexIO_testJunkDataByteD0Ev,"axG",@progbits,_ZN26TestHexIO_testJunkDataByte
 9484              		.align 2
 9485              		.weak	_ZN26TestHexIO_testJunkDataByteD0Ev
 9487              	_ZN26TestHexIO_testJunkDataByteD0Ev:
 9488              	.LFB1418:
 134:testHexIO.cpp **** 	Buffer data;
 9489              		.loc 4 134 1
 9490              		.cfi_startproc
 9491              		.cfi_personality 0x9b,DW.ref.__gxx_personality_v0
 9492              		.cfi_lsda 0x1b,.LLSDA1418
 9493 0000 F30F1EFA 		endbr64
 9494 0004 55       		pushq	%rbp
 9495              		.cfi_def_cfa_offset 16
 9496              		.cfi_offset 6, -16
 9497 0005 4889E5   		movq	%rsp, %rbp
 9498              		.cfi_def_cfa_register 6
 9499 0008 53       		pushq	%rbx
 9500 0009 4883EC18 		subq	$24, %rsp
 9501              		.cfi_offset 3, -24
 9502 000d 48897DE8 		movq	%rdi, -24(%rbp)
 134:testHexIO.cpp **** 	Buffer data;
 9503              		.loc 4 134 1
 9504 0011 488B45E8 		movq	-24(%rbp), %rax
 9505 0015 4889C7   		movq	%rax, %rdi
 9506              	.LEHB306:
 9507 0018 E8000000 		call	_ZN26TestHexIO_testJunkDataByteD1Ev
 9507      00
 9508              	.LEHE306:
 134:testHexIO.cpp **** 	Buffer data;
 9509              		.loc 4 134 1 is_stmt 0 discriminator 2
 9510 001d 488B45E8 		movq	-24(%rbp), %rax
 9511 0021 4889C7   		movq	%rax, %rdi
 9512 0024 E8000000 		call	_ZdlPv@PLT
 9512      00
 9513 0029 EB1E     		jmp	.L457
 9514              	.L456:
 9515 002b F30F1EFA 		endbr64
 134:testHexIO.cpp **** 	Buffer data;
 9516              		.loc 4 134 1
 9517 002f 4889C3   		movq	%rax, %rbx
 9518 0032 488B45E8 		movq	-24(%rbp), %rax
 9519 0036 4889C7   		movq	%rax, %rdi
 9520 0039 E8000000 		call	_ZdlPv@PLT
 9520      00
 9521 003e 4889D8   		movq	%rbx, %rax
 9522 0041 4889C7   		movq	%rax, %rdi
 9523              	.LEHB307:
 9524 0044 E8000000 		call	_Unwind_Resume@PLT
 9524      00
 9525              	.LEHE307:
 9526              	.L457:
 9527 0049 488B5DF8 		movq	-8(%rbp), %rbx
 9528 004d C9       		leave
 9529              		.cfi_def_cfa 7, 8
 9530 004e C3       		ret
 9531              		.cfi_endproc
 9532              	.LFE1418:
 9533              		.section	.gcc_except_table
 9534              	.LLSDA1418:
 9535 0722 FF       		.byte	0xff
 9536 0723 FF       		.byte	0xff
 9537 0724 01       		.byte	0x1
 9538 0725 08       		.uleb128 .LLSDACSE1418-.LLSDACSB1418
 9539              	.LLSDACSB1418:
 9540 0726 18       		.uleb128 .LEHB306-.LFB1418
 9541 0727 05       		.uleb128 .LEHE306-.LEHB306
 9542 0728 2B       		.uleb128 .L456-.LFB1418
 9543 0729 00       		.uleb128 0
 9544 072a 44       		.uleb128 .LEHB307-.LFB1418
 9545 072b 05       		.uleb128 .LEHE307-.LEHB307
 9546 072c 00       		.uleb128 0
 9547 072d 00       		.uleb128 0
 9548              	.LLSDACSE1418:
 9549              		.section	.text._ZN26TestHexIO_testJunkDataByteD0Ev,"axG",@progbits,_ZN26TestHexIO_testJunkDataByte
 9551              		.weak	_ZTV25TestHexIO_testJunkRecType
 9552              		.section	.data.rel.ro.local._ZTV25TestHexIO_testJunkRecType,"awG",@progbits,_ZTV25TestHexIO_testJu
 9553              		.align 8
 9556              	_ZTV25TestHexIO_testJunkRecType:
 9557 0000 00000000 		.quad	0
 9557      00000000 
 9558 0008 00000000 		.quad	_ZTI25TestHexIO_testJunkRecType
 9558      00000000 
 9559 0010 00000000 		.quad	_ZN25TestHexIO_testJunkRecTypeD1Ev
 9559      00000000 
 9560 0018 00000000 		.quad	_ZN25TestHexIO_testJunkRecTypeD0Ev
 9560      00000000 
 9561 0020 00000000 		.quad	_ZNK25TestHexIO_testJunkRecType7RunImplEv
 9561      00000000 
 9562              		.section	.text._ZN25TestHexIO_testJunkRecTypeD2Ev,"axG",@progbits,_ZN25TestHexIO_testJunkRecTypeD5
 9563              		.align 2
 9564              		.weak	_ZN25TestHexIO_testJunkRecTypeD2Ev
 9566              	_ZN25TestHexIO_testJunkRecTypeD2Ev:
 9567              	.LFB1420:
 121:testHexIO.cpp **** 	Buffer data;
 9568              		.loc 4 121 1 is_stmt 1
 9569              		.cfi_startproc
 9570 0000 F30F1EFA 		endbr64
 9571 0004 55       		pushq	%rbp
 9572              		.cfi_def_cfa_offset 16
 9573              		.cfi_offset 6, -16
 9574 0005 4889E5   		movq	%rsp, %rbp
 9575              		.cfi_def_cfa_register 6
 9576 0008 4883EC10 		subq	$16, %rsp
 9577 000c 48897DF8 		movq	%rdi, -8(%rbp)
 9578              	.LBB70:
 121:testHexIO.cpp **** 	Buffer data;
 9579              		.loc 4 121 1
 9580 0010 488D1500 		leaq	16+_ZTV25TestHexIO_testJunkRecType(%rip), %rdx
 9580      000000
 9581 0017 488B45F8 		movq	-8(%rbp), %rax
 9582 001b 488910   		movq	%rdx, (%rax)
 9583 001e 488B45F8 		movq	-8(%rbp), %rax
 9584 0022 4889C7   		movq	%rax, %rdi
 9585 0025 E8000000 		call	_ZN8UnitTest4TestD2Ev@PLT
 9585      00
 9586              	.LBE70:
 9587 002a 90       		nop
 9588 002b C9       		leave
 9589              		.cfi_def_cfa 7, 8
 9590 002c C3       		ret
 9591              		.cfi_endproc
 9592              	.LFE1420:
 9594              		.weak	_ZN25TestHexIO_testJunkRecTypeD1Ev
 9595              		.set	_ZN25TestHexIO_testJunkRecTypeD1Ev,_ZN25TestHexIO_testJunkRecTypeD2Ev
 9596              		.section	.text._ZN25TestHexIO_testJunkRecTypeD0Ev,"axG",@progbits,_ZN25TestHexIO_testJunkRecTypeD5
 9597              		.align 2
 9598              		.weak	_ZN25TestHexIO_testJunkRecTypeD0Ev
 9600              	_ZN25TestHexIO_testJunkRecTypeD0Ev:
 9601              	.LFB1422:
 121:testHexIO.cpp **** 	Buffer data;
 9602              		.loc 4 121 1
 9603              		.cfi_startproc
 9604              		.cfi_personality 0x9b,DW.ref.__gxx_personality_v0
 9605              		.cfi_lsda 0x1b,.LLSDA1422
 9606 0000 F30F1EFA 		endbr64
 9607 0004 55       		pushq	%rbp
 9608              		.cfi_def_cfa_offset 16
 9609              		.cfi_offset 6, -16
 9610 0005 4889E5   		movq	%rsp, %rbp
 9611              		.cfi_def_cfa_register 6
 9612 0008 53       		pushq	%rbx
 9613 0009 4883EC18 		subq	$24, %rsp
 9614              		.cfi_offset 3, -24
 9615 000d 48897DE8 		movq	%rdi, -24(%rbp)
 121:testHexIO.cpp **** 	Buffer data;
 9616              		.loc 4 121 1
 9617 0011 488B45E8 		movq	-24(%rbp), %rax
 9618 0015 4889C7   		movq	%rax, %rdi
 9619              	.LEHB308:
 9620 0018 E8000000 		call	_ZN25TestHexIO_testJunkRecTypeD1Ev
 9620      00
 9621              	.LEHE308:
 121:testHexIO.cpp **** 	Buffer data;
 9622              		.loc 4 121 1 is_stmt 0 discriminator 2
 9623 001d 488B45E8 		movq	-24(%rbp), %rax
 9624 0021 4889C7   		movq	%rax, %rdi
 9625 0024 E8000000 		call	_ZdlPv@PLT
 9625      00
 9626 0029 EB1E     		jmp	.L462
 9627              	.L461:
 9628 002b F30F1EFA 		endbr64
 121:testHexIO.cpp **** 	Buffer data;
 9629              		.loc 4 121 1
 9630 002f 4889C3   		movq	%rax, %rbx
 9631 0032 488B45E8 		movq	-24(%rbp), %rax
 9632 0036 4889C7   		movq	%rax, %rdi
 9633 0039 E8000000 		call	_ZdlPv@PLT
 9633      00
 9634 003e 4889D8   		movq	%rbx, %rax
 9635 0041 4889C7   		movq	%rax, %rdi
 9636              	.LEHB309:
 9637 0044 E8000000 		call	_Unwind_Resume@PLT
 9637      00
 9638              	.LEHE309:
 9639              	.L462:
 9640 0049 488B5DF8 		movq	-8(%rbp), %rbx
 9641 004d C9       		leave
 9642              		.cfi_def_cfa 7, 8
 9643 004e C3       		ret
 9644              		.cfi_endproc
 9645              	.LFE1422:
 9646              		.section	.gcc_except_table
 9647              	.LLSDA1422:
 9648 072e FF       		.byte	0xff
 9649 072f FF       		.byte	0xff
 9650 0730 01       		.byte	0x1
 9651 0731 08       		.uleb128 .LLSDACSE1422-.LLSDACSB1422
 9652              	.LLSDACSB1422:
 9653 0732 18       		.uleb128 .LEHB308-.LFB1422
 9654 0733 05       		.uleb128 .LEHE308-.LEHB308
 9655 0734 2B       		.uleb128 .L461-.LFB1422
 9656 0735 00       		.uleb128 0
 9657 0736 44       		.uleb128 .LEHB309-.LFB1422
 9658 0737 05       		.uleb128 .LEHE309-.LEHB309
 9659 0738 00       		.uleb128 0
 9660 0739 00       		.uleb128 0
 9661              	.LLSDACSE1422:
 9662              		.section	.text._ZN25TestHexIO_testJunkRecTypeD0Ev,"axG",@progbits,_ZN25TestHexIO_testJunkRecTypeD5
 9664              		.weak	_ZTV25TestHexIO_testJunkAddrLsb
 9665              		.section	.data.rel.ro.local._ZTV25TestHexIO_testJunkAddrLsb,"awG",@progbits,_ZTV25TestHexIO_testJu
 9666              		.align 8
 9669              	_ZTV25TestHexIO_testJunkAddrLsb:
 9670 0000 00000000 		.quad	0
 9670      00000000 
 9671 0008 00000000 		.quad	_ZTI25TestHexIO_testJunkAddrLsb
 9671      00000000 
 9672 0010 00000000 		.quad	_ZN25TestHexIO_testJunkAddrLsbD1Ev
 9672      00000000 
 9673 0018 00000000 		.quad	_ZN25TestHexIO_testJunkAddrLsbD0Ev
 9673      00000000 
 9674 0020 00000000 		.quad	_ZNK25TestHexIO_testJunkAddrLsb7RunImplEv
 9674      00000000 
 9675              		.section	.text._ZN25TestHexIO_testJunkAddrLsbD2Ev,"axG",@progbits,_ZN25TestHexIO_testJunkAddrLsbD5
 9676              		.align 2
 9677              		.weak	_ZN25TestHexIO_testJunkAddrLsbD2Ev
 9679              	_ZN25TestHexIO_testJunkAddrLsbD2Ev:
 9680              	.LFB1424:
 108:testHexIO.cpp **** 	Buffer data;
 9681              		.loc 4 108 1 is_stmt 1
 9682              		.cfi_startproc
 9683 0000 F30F1EFA 		endbr64
 9684 0004 55       		pushq	%rbp
 9685              		.cfi_def_cfa_offset 16
 9686              		.cfi_offset 6, -16
 9687 0005 4889E5   		movq	%rsp, %rbp
 9688              		.cfi_def_cfa_register 6
 9689 0008 4883EC10 		subq	$16, %rsp
 9690 000c 48897DF8 		movq	%rdi, -8(%rbp)
 9691              	.LBB71:
 108:testHexIO.cpp **** 	Buffer data;
 9692              		.loc 4 108 1
 9693 0010 488D1500 		leaq	16+_ZTV25TestHexIO_testJunkAddrLsb(%rip), %rdx
 9693      000000
 9694 0017 488B45F8 		movq	-8(%rbp), %rax
 9695 001b 488910   		movq	%rdx, (%rax)
 9696 001e 488B45F8 		movq	-8(%rbp), %rax
 9697 0022 4889C7   		movq	%rax, %rdi
 9698 0025 E8000000 		call	_ZN8UnitTest4TestD2Ev@PLT
 9698      00
 9699              	.LBE71:
 9700 002a 90       		nop
 9701 002b C9       		leave
 9702              		.cfi_def_cfa 7, 8
 9703 002c C3       		ret
 9704              		.cfi_endproc
 9705              	.LFE1424:
 9707              		.weak	_ZN25TestHexIO_testJunkAddrLsbD1Ev
 9708              		.set	_ZN25TestHexIO_testJunkAddrLsbD1Ev,_ZN25TestHexIO_testJunkAddrLsbD2Ev
 9709              		.section	.text._ZN25TestHexIO_testJunkAddrLsbD0Ev,"axG",@progbits,_ZN25TestHexIO_testJunkAddrLsbD5
 9710              		.align 2
 9711              		.weak	_ZN25TestHexIO_testJunkAddrLsbD0Ev
 9713              	_ZN25TestHexIO_testJunkAddrLsbD0Ev:
 9714              	.LFB1426:
 108:testHexIO.cpp **** 	Buffer data;
 9715              		.loc 4 108 1
 9716              		.cfi_startproc
 9717              		.cfi_personality 0x9b,DW.ref.__gxx_personality_v0
 9718              		.cfi_lsda 0x1b,.LLSDA1426
 9719 0000 F30F1EFA 		endbr64
 9720 0004 55       		pushq	%rbp
 9721              		.cfi_def_cfa_offset 16
 9722              		.cfi_offset 6, -16
 9723 0005 4889E5   		movq	%rsp, %rbp
 9724              		.cfi_def_cfa_register 6
 9725 0008 53       		pushq	%rbx
 9726 0009 4883EC18 		subq	$24, %rsp
 9727              		.cfi_offset 3, -24
 9728 000d 48897DE8 		movq	%rdi, -24(%rbp)
 108:testHexIO.cpp **** 	Buffer data;
 9729              		.loc 4 108 1
 9730 0011 488B45E8 		movq	-24(%rbp), %rax
 9731 0015 4889C7   		movq	%rax, %rdi
 9732              	.LEHB310:
 9733 0018 E8000000 		call	_ZN25TestHexIO_testJunkAddrLsbD1Ev
 9733      00
 9734              	.LEHE310:
 108:testHexIO.cpp **** 	Buffer data;
 9735              		.loc 4 108 1 is_stmt 0 discriminator 2
 9736 001d 488B45E8 		movq	-24(%rbp), %rax
 9737 0021 4889C7   		movq	%rax, %rdi
 9738 0024 E8000000 		call	_ZdlPv@PLT
 9738      00
 9739 0029 EB1E     		jmp	.L467
 9740              	.L466:
 9741 002b F30F1EFA 		endbr64
 108:testHexIO.cpp **** 	Buffer data;
 9742              		.loc 4 108 1
 9743 002f 4889C3   		movq	%rax, %rbx
 9744 0032 488B45E8 		movq	-24(%rbp), %rax
 9745 0036 4889C7   		movq	%rax, %rdi
 9746 0039 E8000000 		call	_ZdlPv@PLT
 9746      00
 9747 003e 4889D8   		movq	%rbx, %rax
 9748 0041 4889C7   		movq	%rax, %rdi
 9749              	.LEHB311:
 9750 0044 E8000000 		call	_Unwind_Resume@PLT
 9750      00
 9751              	.LEHE311:
 9752              	.L467:
 9753 0049 488B5DF8 		movq	-8(%rbp), %rbx
 9754 004d C9       		leave
 9755              		.cfi_def_cfa 7, 8
 9756 004e C3       		ret
 9757              		.cfi_endproc
 9758              	.LFE1426:
 9759              		.section	.gcc_except_table
 9760              	.LLSDA1426:
 9761 073a FF       		.byte	0xff
 9762 073b FF       		.byte	0xff
 9763 073c 01       		.byte	0x1
 9764 073d 08       		.uleb128 .LLSDACSE1426-.LLSDACSB1426
 9765              	.LLSDACSB1426:
 9766 073e 18       		.uleb128 .LEHB310-.LFB1426
 9767 073f 05       		.uleb128 .LEHE310-.LEHB310
 9768 0740 2B       		.uleb128 .L466-.LFB1426
 9769 0741 00       		.uleb128 0
 9770 0742 44       		.uleb128 .LEHB311-.LFB1426
 9771 0743 05       		.uleb128 .LEHE311-.LEHB311
 9772 0744 00       		.uleb128 0
 9773 0745 00       		.uleb128 0
 9774              	.LLSDACSE1426:
 9775              		.section	.text._ZN25TestHexIO_testJunkAddrLsbD0Ev,"axG",@progbits,_ZN25TestHexIO_testJunkAddrLsbD5
 9777              		.weak	_ZTV25TestHexIO_testJunkAddrMsb
 9778              		.section	.data.rel.ro.local._ZTV25TestHexIO_testJunkAddrMsb,"awG",@progbits,_ZTV25TestHexIO_testJu
 9779              		.align 8
 9782              	_ZTV25TestHexIO_testJunkAddrMsb:
 9783 0000 00000000 		.quad	0
 9783      00000000 
 9784 0008 00000000 		.quad	_ZTI25TestHexIO_testJunkAddrMsb
 9784      00000000 
 9785 0010 00000000 		.quad	_ZN25TestHexIO_testJunkAddrMsbD1Ev
 9785      00000000 
 9786 0018 00000000 		.quad	_ZN25TestHexIO_testJunkAddrMsbD0Ev
 9786      00000000 
 9787 0020 00000000 		.quad	_ZNK25TestHexIO_testJunkAddrMsb7RunImplEv
 9787      00000000 
 9788              		.section	.text._ZN25TestHexIO_testJunkAddrMsbD2Ev,"axG",@progbits,_ZN25TestHexIO_testJunkAddrMsbD5
 9789              		.align 2
 9790              		.weak	_ZN25TestHexIO_testJunkAddrMsbD2Ev
 9792              	_ZN25TestHexIO_testJunkAddrMsbD2Ev:
 9793              	.LFB1428:
  95:testHexIO.cpp **** 	Buffer data;
 9794              		.loc 4 95 1 is_stmt 1
 9795              		.cfi_startproc
 9796 0000 F30F1EFA 		endbr64
 9797 0004 55       		pushq	%rbp
 9798              		.cfi_def_cfa_offset 16
 9799              		.cfi_offset 6, -16
 9800 0005 4889E5   		movq	%rsp, %rbp
 9801              		.cfi_def_cfa_register 6
 9802 0008 4883EC10 		subq	$16, %rsp
 9803 000c 48897DF8 		movq	%rdi, -8(%rbp)
 9804              	.LBB72:
  95:testHexIO.cpp **** 	Buffer data;
 9805              		.loc 4 95 1
 9806 0010 488D1500 		leaq	16+_ZTV25TestHexIO_testJunkAddrMsb(%rip), %rdx
 9806      000000
 9807 0017 488B45F8 		movq	-8(%rbp), %rax
 9808 001b 488910   		movq	%rdx, (%rax)
 9809 001e 488B45F8 		movq	-8(%rbp), %rax
 9810 0022 4889C7   		movq	%rax, %rdi
 9811 0025 E8000000 		call	_ZN8UnitTest4TestD2Ev@PLT
 9811      00
 9812              	.LBE72:
 9813 002a 90       		nop
 9814 002b C9       		leave
 9815              		.cfi_def_cfa 7, 8
 9816 002c C3       		ret
 9817              		.cfi_endproc
 9818              	.LFE1428:
 9820              		.weak	_ZN25TestHexIO_testJunkAddrMsbD1Ev
 9821              		.set	_ZN25TestHexIO_testJunkAddrMsbD1Ev,_ZN25TestHexIO_testJunkAddrMsbD2Ev
 9822              		.section	.text._ZN25TestHexIO_testJunkAddrMsbD0Ev,"axG",@progbits,_ZN25TestHexIO_testJunkAddrMsbD5
 9823              		.align 2
 9824              		.weak	_ZN25TestHexIO_testJunkAddrMsbD0Ev
 9826              	_ZN25TestHexIO_testJunkAddrMsbD0Ev:
 9827              	.LFB1430:
  95:testHexIO.cpp **** 	Buffer data;
 9828              		.loc 4 95 1
 9829              		.cfi_startproc
 9830              		.cfi_personality 0x9b,DW.ref.__gxx_personality_v0
 9831              		.cfi_lsda 0x1b,.LLSDA1430
 9832 0000 F30F1EFA 		endbr64
 9833 0004 55       		pushq	%rbp
 9834              		.cfi_def_cfa_offset 16
 9835              		.cfi_offset 6, -16
 9836 0005 4889E5   		movq	%rsp, %rbp
 9837              		.cfi_def_cfa_register 6
 9838 0008 53       		pushq	%rbx
 9839 0009 4883EC18 		subq	$24, %rsp
 9840              		.cfi_offset 3, -24
 9841 000d 48897DE8 		movq	%rdi, -24(%rbp)
  95:testHexIO.cpp **** 	Buffer data;
 9842              		.loc 4 95 1
 9843 0011 488B45E8 		movq	-24(%rbp), %rax
 9844 0015 4889C7   		movq	%rax, %rdi
 9845              	.LEHB312:
 9846 0018 E8000000 		call	_ZN25TestHexIO_testJunkAddrMsbD1Ev
 9846      00
 9847              	.LEHE312:
  95:testHexIO.cpp **** 	Buffer data;
 9848              		.loc 4 95 1 is_stmt 0 discriminator 2
 9849 001d 488B45E8 		movq	-24(%rbp), %rax
 9850 0021 4889C7   		movq	%rax, %rdi
 9851 0024 E8000000 		call	_ZdlPv@PLT
 9851      00
 9852 0029 EB1E     		jmp	.L472
 9853              	.L471:
 9854 002b F30F1EFA 		endbr64
  95:testHexIO.cpp **** 	Buffer data;
 9855              		.loc 4 95 1
 9856 002f 4889C3   		movq	%rax, %rbx
 9857 0032 488B45E8 		movq	-24(%rbp), %rax
 9858 0036 4889C7   		movq	%rax, %rdi
 9859 0039 E8000000 		call	_ZdlPv@PLT
 9859      00
 9860 003e 4889D8   		movq	%rbx, %rax
 9861 0041 4889C7   		movq	%rax, %rdi
 9862              	.LEHB313:
 9863 0044 E8000000 		call	_Unwind_Resume@PLT
 9863      00
 9864              	.LEHE313:
 9865              	.L472:
 9866 0049 488B5DF8 		movq	-8(%rbp), %rbx
 9867 004d C9       		leave
 9868              		.cfi_def_cfa 7, 8
 9869 004e C3       		ret
 9870              		.cfi_endproc
 9871              	.LFE1430:
 9872              		.section	.gcc_except_table
 9873              	.LLSDA1430:
 9874 0746 FF       		.byte	0xff
 9875 0747 FF       		.byte	0xff
 9876 0748 01       		.byte	0x1
 9877 0749 08       		.uleb128 .LLSDACSE1430-.LLSDACSB1430
 9878              	.LLSDACSB1430:
 9879 074a 18       		.uleb128 .LEHB312-.LFB1430
 9880 074b 05       		.uleb128 .LEHE312-.LEHB312
 9881 074c 2B       		.uleb128 .L471-.LFB1430
 9882 074d 00       		.uleb128 0
 9883 074e 44       		.uleb128 .LEHB313-.LFB1430
 9884 074f 05       		.uleb128 .LEHE313-.LEHB313
 9885 0750 00       		.uleb128 0
 9886 0751 00       		.uleb128 0
 9887              	.LLSDACSE1430:
 9888              		.section	.text._ZN25TestHexIO_testJunkAddrMsbD0Ev,"axG",@progbits,_ZN25TestHexIO_testJunkAddrMsbD5
 9890              		.weak	_ZTV27TestHexIO_testJunkByteCount
 9891              		.section	.data.rel.ro.local._ZTV27TestHexIO_testJunkByteCount,"awG",@progbits,_ZTV27TestHexIO_test
 9892              		.align 8
 9895              	_ZTV27TestHexIO_testJunkByteCount:
 9896 0000 00000000 		.quad	0
 9896      00000000 
 9897 0008 00000000 		.quad	_ZTI27TestHexIO_testJunkByteCount
 9897      00000000 
 9898 0010 00000000 		.quad	_ZN27TestHexIO_testJunkByteCountD1Ev
 9898      00000000 
 9899 0018 00000000 		.quad	_ZN27TestHexIO_testJunkByteCountD0Ev
 9899      00000000 
 9900 0020 00000000 		.quad	_ZNK27TestHexIO_testJunkByteCount7RunImplEv
 9900      00000000 
 9901              		.section	.text._ZN27TestHexIO_testJunkByteCountD2Ev,"axG",@progbits,_ZN27TestHexIO_testJunkByteCou
 9902              		.align 2
 9903              		.weak	_ZN27TestHexIO_testJunkByteCountD2Ev
 9905              	_ZN27TestHexIO_testJunkByteCountD2Ev:
 9906              	.LFB1432:
  82:testHexIO.cpp **** 	Buffer data;
 9907              		.loc 4 82 1 is_stmt 1
 9908              		.cfi_startproc
 9909 0000 F30F1EFA 		endbr64
 9910 0004 55       		pushq	%rbp
 9911              		.cfi_def_cfa_offset 16
 9912              		.cfi_offset 6, -16
 9913 0005 4889E5   		movq	%rsp, %rbp
 9914              		.cfi_def_cfa_register 6
 9915 0008 4883EC10 		subq	$16, %rsp
 9916 000c 48897DF8 		movq	%rdi, -8(%rbp)
 9917              	.LBB73:
  82:testHexIO.cpp **** 	Buffer data;
 9918              		.loc 4 82 1
 9919 0010 488D1500 		leaq	16+_ZTV27TestHexIO_testJunkByteCount(%rip), %rdx
 9919      000000
 9920 0017 488B45F8 		movq	-8(%rbp), %rax
 9921 001b 488910   		movq	%rdx, (%rax)
 9922 001e 488B45F8 		movq	-8(%rbp), %rax
 9923 0022 4889C7   		movq	%rax, %rdi
 9924 0025 E8000000 		call	_ZN8UnitTest4TestD2Ev@PLT
 9924      00
 9925              	.LBE73:
 9926 002a 90       		nop
 9927 002b C9       		leave
 9928              		.cfi_def_cfa 7, 8
 9929 002c C3       		ret
 9930              		.cfi_endproc
 9931              	.LFE1432:
 9933              		.weak	_ZN27TestHexIO_testJunkByteCountD1Ev
 9934              		.set	_ZN27TestHexIO_testJunkByteCountD1Ev,_ZN27TestHexIO_testJunkByteCountD2Ev
 9935              		.section	.text._ZN27TestHexIO_testJunkByteCountD0Ev,"axG",@progbits,_ZN27TestHexIO_testJunkByteCou
 9936              		.align 2
 9937              		.weak	_ZN27TestHexIO_testJunkByteCountD0Ev
 9939              	_ZN27TestHexIO_testJunkByteCountD0Ev:
 9940              	.LFB1434:
  82:testHexIO.cpp **** 	Buffer data;
 9941              		.loc 4 82 1
 9942              		.cfi_startproc
 9943              		.cfi_personality 0x9b,DW.ref.__gxx_personality_v0
 9944              		.cfi_lsda 0x1b,.LLSDA1434
 9945 0000 F30F1EFA 		endbr64
 9946 0004 55       		pushq	%rbp
 9947              		.cfi_def_cfa_offset 16
 9948              		.cfi_offset 6, -16
 9949 0005 4889E5   		movq	%rsp, %rbp
 9950              		.cfi_def_cfa_register 6
 9951 0008 53       		pushq	%rbx
 9952 0009 4883EC18 		subq	$24, %rsp
 9953              		.cfi_offset 3, -24
 9954 000d 48897DE8 		movq	%rdi, -24(%rbp)
  82:testHexIO.cpp **** 	Buffer data;
 9955              		.loc 4 82 1
 9956 0011 488B45E8 		movq	-24(%rbp), %rax
 9957 0015 4889C7   		movq	%rax, %rdi
 9958              	.LEHB314:
 9959 0018 E8000000 		call	_ZN27TestHexIO_testJunkByteCountD1Ev
 9959      00
 9960              	.LEHE314:
  82:testHexIO.cpp **** 	Buffer data;
 9961              		.loc 4 82 1 is_stmt 0 discriminator 2
 9962 001d 488B45E8 		movq	-24(%rbp), %rax
 9963 0021 4889C7   		movq	%rax, %rdi
 9964 0024 E8000000 		call	_ZdlPv@PLT
 9964      00
 9965 0029 EB1E     		jmp	.L477
 9966              	.L476:
 9967 002b F30F1EFA 		endbr64
  82:testHexIO.cpp **** 	Buffer data;
 9968              		.loc 4 82 1
 9969 002f 4889C3   		movq	%rax, %rbx
 9970 0032 488B45E8 		movq	-24(%rbp), %rax
 9971 0036 4889C7   		movq	%rax, %rdi
 9972 0039 E8000000 		call	_ZdlPv@PLT
 9972      00
 9973 003e 4889D8   		movq	%rbx, %rax
 9974 0041 4889C7   		movq	%rax, %rdi
 9975              	.LEHB315:
 9976 0044 E8000000 		call	_Unwind_Resume@PLT
 9976      00
 9977              	.LEHE315:
 9978              	.L477:
 9979 0049 488B5DF8 		movq	-8(%rbp), %rbx
 9980 004d C9       		leave
 9981              		.cfi_def_cfa 7, 8
 9982 004e C3       		ret
 9983              		.cfi_endproc
 9984              	.LFE1434:
 9985              		.section	.gcc_except_table
 9986              	.LLSDA1434:
 9987 0752 FF       		.byte	0xff
 9988 0753 FF       		.byte	0xff
 9989 0754 01       		.byte	0x1
 9990 0755 08       		.uleb128 .LLSDACSE1434-.LLSDACSB1434
 9991              	.LLSDACSB1434:
 9992 0756 18       		.uleb128 .LEHB314-.LFB1434
 9993 0757 05       		.uleb128 .LEHE314-.LEHB314
 9994 0758 2B       		.uleb128 .L476-.LFB1434
 9995 0759 00       		.uleb128 0
 9996 075a 44       		.uleb128 .LEHB315-.LFB1434
 9997 075b 05       		.uleb128 .LEHE315-.LEHB315
 9998 075c 00       		.uleb128 0
 9999 075d 00       		.uleb128 0
 10000              	.LLSDACSE1434:
 10001              		.section	.text._ZN27TestHexIO_testJunkByteCountD0Ev,"axG",@progbits,_ZN27TestHexIO_testJunkByteCou
 10003              		.weak	_ZTV27TestHexIO_testJunkStartCode
 10004              		.section	.data.rel.ro.local._ZTV27TestHexIO_testJunkStartCode,"awG",@progbits,_ZTV27TestHexIO_test
 10005              		.align 8
 10008              	_ZTV27TestHexIO_testJunkStartCode:
 10009 0000 00000000 		.quad	0
 10009      00000000 
 10010 0008 00000000 		.quad	_ZTI27TestHexIO_testJunkStartCode
 10010      00000000 
 10011 0010 00000000 		.quad	_ZN27TestHexIO_testJunkStartCodeD1Ev
 10011      00000000 
 10012 0018 00000000 		.quad	_ZN27TestHexIO_testJunkStartCodeD0Ev
 10012      00000000 
 10013 0020 00000000 		.quad	_ZNK27TestHexIO_testJunkStartCode7RunImplEv
 10013      00000000 
 10014              		.section	.text._ZN27TestHexIO_testJunkStartCodeD2Ev,"axG",@progbits,_ZN27TestHexIO_testJunkStartCo
 10015              		.align 2
 10016              		.weak	_ZN27TestHexIO_testJunkStartCodeD2Ev
 10018              	_ZN27TestHexIO_testJunkStartCodeD2Ev:
 10019              	.LFB1436:
  69:testHexIO.cpp **** 	Buffer data;
 10020              		.loc 4 69 1 is_stmt 1
 10021              		.cfi_startproc
 10022 0000 F30F1EFA 		endbr64
 10023 0004 55       		pushq	%rbp
 10024              		.cfi_def_cfa_offset 16
 10025              		.cfi_offset 6, -16
 10026 0005 4889E5   		movq	%rsp, %rbp
 10027              		.cfi_def_cfa_register 6
 10028 0008 4883EC10 		subq	$16, %rsp
 10029 000c 48897DF8 		movq	%rdi, -8(%rbp)
 10030              	.LBB74:
  69:testHexIO.cpp **** 	Buffer data;
 10031              		.loc 4 69 1
 10032 0010 488D1500 		leaq	16+_ZTV27TestHexIO_testJunkStartCode(%rip), %rdx
 10032      000000
 10033 0017 488B45F8 		movq	-8(%rbp), %rax
 10034 001b 488910   		movq	%rdx, (%rax)
 10035 001e 488B45F8 		movq	-8(%rbp), %rax
 10036 0022 4889C7   		movq	%rax, %rdi
 10037 0025 E8000000 		call	_ZN8UnitTest4TestD2Ev@PLT
 10037      00
 10038              	.LBE74:
 10039 002a 90       		nop
 10040 002b C9       		leave
 10041              		.cfi_def_cfa 7, 8
 10042 002c C3       		ret
 10043              		.cfi_endproc
 10044              	.LFE1436:
 10046              		.weak	_ZN27TestHexIO_testJunkStartCodeD1Ev
 10047              		.set	_ZN27TestHexIO_testJunkStartCodeD1Ev,_ZN27TestHexIO_testJunkStartCodeD2Ev
 10048              		.section	.text._ZN27TestHexIO_testJunkStartCodeD0Ev,"axG",@progbits,_ZN27TestHexIO_testJunkStartCo
 10049              		.align 2
 10050              		.weak	_ZN27TestHexIO_testJunkStartCodeD0Ev
 10052              	_ZN27TestHexIO_testJunkStartCodeD0Ev:
 10053              	.LFB1438:
  69:testHexIO.cpp **** 	Buffer data;
 10054              		.loc 4 69 1
 10055              		.cfi_startproc
 10056              		.cfi_personality 0x9b,DW.ref.__gxx_personality_v0
 10057              		.cfi_lsda 0x1b,.LLSDA1438
 10058 0000 F30F1EFA 		endbr64
 10059 0004 55       		pushq	%rbp
 10060              		.cfi_def_cfa_offset 16
 10061              		.cfi_offset 6, -16
 10062 0005 4889E5   		movq	%rsp, %rbp
 10063              		.cfi_def_cfa_register 6
 10064 0008 53       		pushq	%rbx
 10065 0009 4883EC18 		subq	$24, %rsp
 10066              		.cfi_offset 3, -24
 10067 000d 48897DE8 		movq	%rdi, -24(%rbp)
  69:testHexIO.cpp **** 	Buffer data;
 10068              		.loc 4 69 1
 10069 0011 488B45E8 		movq	-24(%rbp), %rax
 10070 0015 4889C7   		movq	%rax, %rdi
 10071              	.LEHB316:
 10072 0018 E8000000 		call	_ZN27TestHexIO_testJunkStartCodeD1Ev
 10072      00
 10073              	.LEHE316:
  69:testHexIO.cpp **** 	Buffer data;
 10074              		.loc 4 69 1 is_stmt 0 discriminator 2
 10075 001d 488B45E8 		movq	-24(%rbp), %rax
 10076 0021 4889C7   		movq	%rax, %rdi
 10077 0024 E8000000 		call	_ZdlPv@PLT
 10077      00
 10078 0029 EB1E     		jmp	.L482
 10079              	.L481:
 10080 002b F30F1EFA 		endbr64
  69:testHexIO.cpp **** 	Buffer data;
 10081              		.loc 4 69 1
 10082 002f 4889C3   		movq	%rax, %rbx
 10083 0032 488B45E8 		movq	-24(%rbp), %rax
 10084 0036 4889C7   		movq	%rax, %rdi
 10085 0039 E8000000 		call	_ZdlPv@PLT
 10085      00
 10086 003e 4889D8   		movq	%rbx, %rax
 10087 0041 4889C7   		movq	%rax, %rdi
 10088              	.LEHB317:
 10089 0044 E8000000 		call	_Unwind_Resume@PLT
 10089      00
 10090              	.LEHE317:
 10091              	.L482:
 10092 0049 488B5DF8 		movq	-8(%rbp), %rbx
 10093 004d C9       		leave
 10094              		.cfi_def_cfa 7, 8
 10095 004e C3       		ret
 10096              		.cfi_endproc
 10097              	.LFE1438:
 10098              		.section	.gcc_except_table
 10099              	.LLSDA1438:
 10100 075e FF       		.byte	0xff
 10101 075f FF       		.byte	0xff
 10102 0760 01       		.byte	0x1
 10103 0761 08       		.uleb128 .LLSDACSE1438-.LLSDACSB1438
 10104              	.LLSDACSB1438:
 10105 0762 18       		.uleb128 .LEHB316-.LFB1438
 10106 0763 05       		.uleb128 .LEHE316-.LEHB316
 10107 0764 2B       		.uleb128 .L481-.LFB1438
 10108 0765 00       		.uleb128 0
 10109 0766 44       		.uleb128 .LEHB317-.LFB1438
 10110 0767 05       		.uleb128 .LEHE317-.LEHB317
 10111 0768 00       		.uleb128 0
 10112 0769 00       		.uleb128 0
 10113              	.LLSDACSE1438:
 10114              		.section	.text._ZN27TestHexIO_testJunkStartCodeD0Ev,"axG",@progbits,_ZN27TestHexIO_testJunkStartCo
 10116              		.weak	_ZTV22TestHexIO_testValidEOF
 10117              		.section	.data.rel.ro.local._ZTV22TestHexIO_testValidEOF,"awG",@progbits,_ZTV22TestHexIO_testValid
 10118              		.align 8
 10121              	_ZTV22TestHexIO_testValidEOF:
 10122 0000 00000000 		.quad	0
 10122      00000000 
 10123 0008 00000000 		.quad	_ZTI22TestHexIO_testValidEOF
 10123      00000000 
 10124 0010 00000000 		.quad	_ZN22TestHexIO_testValidEOFD1Ev
 10124      00000000 
 10125 0018 00000000 		.quad	_ZN22TestHexIO_testValidEOFD0Ev
 10125      00000000 
 10126 0020 00000000 		.quad	_ZNK22TestHexIO_testValidEOF7RunImplEv
 10126      00000000 
 10127              		.section	.text._ZN22TestHexIO_testValidEOFD2Ev,"axG",@progbits,_ZN22TestHexIO_testValidEOFD5Ev,com
 10128              		.align 2
 10129              		.weak	_ZN22TestHexIO_testValidEOFD2Ev
 10131              	_ZN22TestHexIO_testValidEOFD2Ev:
 10132              	.LFB1440:
  50:testHexIO.cpp **** 	Buffer data, mask;
 10133              		.loc 4 50 1 is_stmt 1
 10134              		.cfi_startproc
 10135 0000 F30F1EFA 		endbr64
 10136 0004 55       		pushq	%rbp
 10137              		.cfi_def_cfa_offset 16
 10138              		.cfi_offset 6, -16
 10139 0005 4889E5   		movq	%rsp, %rbp
 10140              		.cfi_def_cfa_register 6
 10141 0008 4883EC10 		subq	$16, %rsp
 10142 000c 48897DF8 		movq	%rdi, -8(%rbp)
 10143              	.LBB75:
  50:testHexIO.cpp **** 	Buffer data, mask;
 10144              		.loc 4 50 1
 10145 0010 488D1500 		leaq	16+_ZTV22TestHexIO_testValidEOF(%rip), %rdx
 10145      000000
 10146 0017 488B45F8 		movq	-8(%rbp), %rax
 10147 001b 488910   		movq	%rdx, (%rax)
 10148 001e 488B45F8 		movq	-8(%rbp), %rax
 10149 0022 4889C7   		movq	%rax, %rdi
 10150 0025 E8000000 		call	_ZN8UnitTest4TestD2Ev@PLT
 10150      00
 10151              	.LBE75:
 10152 002a 90       		nop
 10153 002b C9       		leave
 10154              		.cfi_def_cfa 7, 8
 10155 002c C3       		ret
 10156              		.cfi_endproc
 10157              	.LFE1440:
 10159              		.weak	_ZN22TestHexIO_testValidEOFD1Ev
 10160              		.set	_ZN22TestHexIO_testValidEOFD1Ev,_ZN22TestHexIO_testValidEOFD2Ev
 10161              		.section	.text._ZN22TestHexIO_testValidEOFD0Ev,"axG",@progbits,_ZN22TestHexIO_testValidEOFD5Ev,com
 10162              		.align 2
 10163              		.weak	_ZN22TestHexIO_testValidEOFD0Ev
 10165              	_ZN22TestHexIO_testValidEOFD0Ev:
 10166              	.LFB1442:
  50:testHexIO.cpp **** 	Buffer data, mask;
 10167              		.loc 4 50 1
 10168              		.cfi_startproc
 10169              		.cfi_personality 0x9b,DW.ref.__gxx_personality_v0
 10170              		.cfi_lsda 0x1b,.LLSDA1442
 10171 0000 F30F1EFA 		endbr64
 10172 0004 55       		pushq	%rbp
 10173              		.cfi_def_cfa_offset 16
 10174              		.cfi_offset 6, -16
 10175 0005 4889E5   		movq	%rsp, %rbp
 10176              		.cfi_def_cfa_register 6
 10177 0008 53       		pushq	%rbx
 10178 0009 4883EC18 		subq	$24, %rsp
 10179              		.cfi_offset 3, -24
 10180 000d 48897DE8 		movq	%rdi, -24(%rbp)
  50:testHexIO.cpp **** 	Buffer data, mask;
 10181              		.loc 4 50 1
 10182 0011 488B45E8 		movq	-24(%rbp), %rax
 10183 0015 4889C7   		movq	%rax, %rdi
 10184              	.LEHB318:
 10185 0018 E8000000 		call	_ZN22TestHexIO_testValidEOFD1Ev
 10185      00
 10186              	.LEHE318:
  50:testHexIO.cpp **** 	Buffer data, mask;
 10187              		.loc 4 50 1 is_stmt 0 discriminator 2
 10188 001d 488B45E8 		movq	-24(%rbp), %rax
 10189 0021 4889C7   		movq	%rax, %rdi
 10190 0024 E8000000 		call	_ZdlPv@PLT
 10190      00
 10191 0029 EB1E     		jmp	.L487
 10192              	.L486:
 10193 002b F30F1EFA 		endbr64
  50:testHexIO.cpp **** 	Buffer data, mask;
 10194              		.loc 4 50 1
 10195 002f 4889C3   		movq	%rax, %rbx
 10196 0032 488B45E8 		movq	-24(%rbp), %rax
 10197 0036 4889C7   		movq	%rax, %rdi
 10198 0039 E8000000 		call	_ZdlPv@PLT
 10198      00
 10199 003e 4889D8   		movq	%rbx, %rax
 10200 0041 4889C7   		movq	%rax, %rdi
 10201              	.LEHB319:
 10202 0044 E8000000 		call	_Unwind_Resume@PLT
 10202      00
 10203              	.LEHE319:
 10204              	.L487:
 10205 0049 488B5DF8 		movq	-8(%rbp), %rbx
 10206 004d C9       		leave
 10207              		.cfi_def_cfa 7, 8
 10208 004e C3       		ret
 10209              		.cfi_endproc
 10210              	.LFE1442:
 10211              		.section	.gcc_except_table
 10212              	.LLSDA1442:
 10213 076a FF       		.byte	0xff
 10214 076b FF       		.byte	0xff
 10215 076c 01       		.byte	0x1
 10216 076d 08       		.uleb128 .LLSDACSE1442-.LLSDACSB1442
 10217              	.LLSDACSB1442:
 10218 076e 18       		.uleb128 .LEHB318-.LFB1442
 10219 076f 05       		.uleb128 .LEHE318-.LEHB318
 10220 0770 2B       		.uleb128 .L486-.LFB1442
 10221 0771 00       		.uleb128 0
 10222 0772 44       		.uleb128 .LEHB319-.LFB1442
 10223 0773 05       		.uleb128 .LEHE319-.LEHB319
 10224 0774 00       		.uleb128 0
 10225 0775 00       		.uleb128 0
 10226              	.LLSDACSE1442:
 10227              		.section	.text._ZN22TestHexIO_testValidEOFD0Ev,"axG",@progbits,_ZN22TestHexIO_testValidEOFD5Ev,com
 10229              		.weak	_ZTV27TestHexIO_testValidDataLine
 10230              		.section	.data.rel.ro.local._ZTV27TestHexIO_testValidDataLine,"awG",@progbits,_ZTV27TestHexIO_test
 10231              		.align 8
 10234              	_ZTV27TestHexIO_testValidDataLine:
 10235 0000 00000000 		.quad	0
 10235      00000000 
 10236 0008 00000000 		.quad	_ZTI27TestHexIO_testValidDataLine
 10236      00000000 
 10237 0010 00000000 		.quad	_ZN27TestHexIO_testValidDataLineD1Ev
 10237      00000000 
 10238 0018 00000000 		.quad	_ZN27TestHexIO_testValidDataLineD0Ev
 10238      00000000 
 10239 0020 00000000 		.quad	_ZNK27TestHexIO_testValidDataLine7RunImplEv
 10239      00000000 
 10240              		.section	.text._ZN27TestHexIO_testValidDataLineD2Ev,"axG",@progbits,_ZN27TestHexIO_testValidDataLi
 10241              		.align 2
 10242              		.weak	_ZN27TestHexIO_testValidDataLineD2Ev
 10244              	_ZN27TestHexIO_testValidDataLineD2Ev:
 10245              	.LFB1444:
  27:testHexIO.cpp **** 	Buffer data, mask;
 10246              		.loc 4 27 1 is_stmt 1
 10247              		.cfi_startproc
 10248 0000 F30F1EFA 		endbr64
 10249 0004 55       		pushq	%rbp
 10250              		.cfi_def_cfa_offset 16
 10251              		.cfi_offset 6, -16
 10252 0005 4889E5   		movq	%rsp, %rbp
 10253              		.cfi_def_cfa_register 6
 10254 0008 4883EC10 		subq	$16, %rsp
 10255 000c 48897DF8 		movq	%rdi, -8(%rbp)
 10256              	.LBB76:
  27:testHexIO.cpp **** 	Buffer data, mask;
 10257              		.loc 4 27 1
 10258 0010 488D1500 		leaq	16+_ZTV27TestHexIO_testValidDataLine(%rip), %rdx
 10258      000000
 10259 0017 488B45F8 		movq	-8(%rbp), %rax
 10260 001b 488910   		movq	%rdx, (%rax)
 10261 001e 488B45F8 		movq	-8(%rbp), %rax
 10262 0022 4889C7   		movq	%rax, %rdi
 10263 0025 E8000000 		call	_ZN8UnitTest4TestD2Ev@PLT
 10263      00
 10264              	.LBE76:
 10265 002a 90       		nop
 10266 002b C9       		leave
 10267              		.cfi_def_cfa 7, 8
 10268 002c C3       		ret
 10269              		.cfi_endproc
 10270              	.LFE1444:
 10272              		.weak	_ZN27TestHexIO_testValidDataLineD1Ev
 10273              		.set	_ZN27TestHexIO_testValidDataLineD1Ev,_ZN27TestHexIO_testValidDataLineD2Ev
 10274              		.section	.text._ZN27TestHexIO_testValidDataLineD0Ev,"axG",@progbits,_ZN27TestHexIO_testValidDataLi
 10275              		.align 2
 10276              		.weak	_ZN27TestHexIO_testValidDataLineD0Ev
 10278              	_ZN27TestHexIO_testValidDataLineD0Ev:
 10279              	.LFB1446:
  27:testHexIO.cpp **** 	Buffer data, mask;
 10280              		.loc 4 27 1
 10281              		.cfi_startproc
 10282              		.cfi_personality 0x9b,DW.ref.__gxx_personality_v0
 10283              		.cfi_lsda 0x1b,.LLSDA1446
 10284 0000 F30F1EFA 		endbr64
 10285 0004 55       		pushq	%rbp
 10286              		.cfi_def_cfa_offset 16
 10287              		.cfi_offset 6, -16
 10288 0005 4889E5   		movq	%rsp, %rbp
 10289              		.cfi_def_cfa_register 6
 10290 0008 53       		pushq	%rbx
 10291 0009 4883EC18 		subq	$24, %rsp
 10292              		.cfi_offset 3, -24
 10293 000d 48897DE8 		movq	%rdi, -24(%rbp)
  27:testHexIO.cpp **** 	Buffer data, mask;
 10294              		.loc 4 27 1
 10295 0011 488B45E8 		movq	-24(%rbp), %rax
 10296 0015 4889C7   		movq	%rax, %rdi
 10297              	.LEHB320:
 10298 0018 E8000000 		call	_ZN27TestHexIO_testValidDataLineD1Ev
 10298      00
 10299              	.LEHE320:
  27:testHexIO.cpp **** 	Buffer data, mask;
 10300              		.loc 4 27 1 is_stmt 0 discriminator 2
 10301 001d 488B45E8 		movq	-24(%rbp), %rax
 10302 0021 4889C7   		movq	%rax, %rdi
 10303 0024 E8000000 		call	_ZdlPv@PLT
 10303      00
 10304 0029 EB1E     		jmp	.L492
 10305              	.L491:
 10306 002b F30F1EFA 		endbr64
  27:testHexIO.cpp **** 	Buffer data, mask;
 10307              		.loc 4 27 1
 10308 002f 4889C3   		movq	%rax, %rbx
 10309 0032 488B45E8 		movq	-24(%rbp), %rax
 10310 0036 4889C7   		movq	%rax, %rdi
 10311 0039 E8000000 		call	_ZdlPv@PLT
 10311      00
 10312 003e 4889D8   		movq	%rbx, %rax
 10313 0041 4889C7   		movq	%rax, %rdi
 10314              	.LEHB321:
 10315 0044 E8000000 		call	_Unwind_Resume@PLT
 10315      00
 10316              	.LEHE321:
 10317              	.L492:
 10318 0049 488B5DF8 		movq	-8(%rbp), %rbx
 10319 004d C9       		leave
 10320              		.cfi_def_cfa 7, 8
 10321 004e C3       		ret
 10322              		.cfi_endproc
 10323              	.LFE1446:
 10324              		.section	.gcc_except_table
 10325              	.LLSDA1446:
 10326 0776 FF       		.byte	0xff
 10327 0777 FF       		.byte	0xff
 10328 0778 01       		.byte	0x1
 10329 0779 08       		.uleb128 .LLSDACSE1446-.LLSDACSB1446
 10330              	.LLSDACSB1446:
 10331 077a 18       		.uleb128 .LEHB320-.LFB1446
 10332 077b 05       		.uleb128 .LEHE320-.LEHB320
 10333 077c 2B       		.uleb128 .L491-.LFB1446
 10334 077d 00       		.uleb128 0
 10335 077e 44       		.uleb128 .LEHB321-.LFB1446
 10336 077f 05       		.uleb128 .LEHE321-.LEHB321
 10337 0780 00       		.uleb128 0
 10338 0781 00       		.uleb128 0
 10339              	.LLSDACSE1446:
 10340              		.section	.text._ZN27TestHexIO_testValidDataLineD0Ev,"axG",@progbits,_ZN27TestHexIO_testValidDataLi
 10342              		.weak	_ZTVN8UnitTest15MemoryOutStreamE
 10343              		.section	.data.rel.ro.local._ZTVN8UnitTest15MemoryOutStreamE,"awG",@progbits,_ZTVN8UnitTest15Memor
 10344              		.align 8
 10347              	_ZTVN8UnitTest15MemoryOutStreamE:
 10348 0000 90000000 		.quad	144
 10348      00000000 
 10349 0008 00000000 		.quad	0
 10349      00000000 
 10350 0010 00000000 		.quad	_ZTIN8UnitTest15MemoryOutStreamE
 10350      00000000 
 10351 0018 00000000 		.quad	_ZN8UnitTest15MemoryOutStreamD1Ev
 10351      00000000 
 10352 0020 00000000 		.quad	_ZN8UnitTest15MemoryOutStreamD0Ev
 10352      00000000 
 10353 0028 70FFFFFF 		.quad	-144
 10353      FFFFFFFF 
 10354 0030 70FFFFFF 		.quad	-144
 10354      FFFFFFFF 
 10355 0038 00000000 		.quad	_ZTIN8UnitTest15MemoryOutStreamE
 10355      00000000 
 10356 0040 00000000 		.quad	_ZTv0_n24_N8UnitTest15MemoryOutStreamD1Ev
 10356      00000000 
 10357 0048 00000000 		.quad	_ZTv0_n24_N8UnitTest15MemoryOutStreamD0Ev
 10357      00000000 
 10358              		.weak	_ZTTN8UnitTest15MemoryOutStreamE
 10359              		.section	.data.rel.ro.local._ZTTN8UnitTest15MemoryOutStreamE,"awG",@progbits,_ZTVN8UnitTest15Memor
 10360              		.align 8
 10363              	_ZTTN8UnitTest15MemoryOutStreamE:
 10364 0000 00000000 		.quad	_ZTVN8UnitTest15MemoryOutStreamE+24
 10364      00000000 
 10365 0008 00000000 		.quad	_ZTCN8UnitTest15MemoryOutStreamE0_NSt7__cxx1119basic_ostringstreamIcSt11char_traitsIcESaIcEE
 10365      00000000 
 10366 0010 00000000 		.quad	_ZTCN8UnitTest15MemoryOutStreamE0_So+24
 10366      00000000 
 10367 0018 00000000 		.quad	_ZTCN8UnitTest15MemoryOutStreamE0_So+64
 10367      00000000 
 10368 0020 00000000 		.quad	_ZTCN8UnitTest15MemoryOutStreamE0_NSt7__cxx1119basic_ostringstreamIcSt11char_traitsIcESaIcEE
 10368      00000000 
 10369 0028 00000000 		.quad	_ZTVN8UnitTest15MemoryOutStreamE+64
 10369      00000000 
 10370              		.hidden	_ZTCN8UnitTest15MemoryOutStreamE0_NSt7__cxx1119basic_ostringstreamIcSt11char_traitsIcESaIc
 10371              		.weak	_ZTCN8UnitTest15MemoryOutStreamE0_NSt7__cxx1119basic_ostringstreamIcSt11char_traitsIcESaIcEE
 10372              		.section	.data.rel.ro._ZTCN8UnitTest15MemoryOutStreamE0_NSt7__cxx1119basic_ostringstreamIcSt11char
 10373              		.align 8
 10376              	_ZTCN8UnitTest15MemoryOutStreamE0_NSt7__cxx1119basic_ostringstreamIcSt11char_traitsIcESaIcEEE:
 10377 0000 90000000 		.quad	144
 10377      00000000 
 10378 0008 00000000 		.quad	0
 10378      00000000 
 10379 0010 00000000 		.quad	_ZTINSt7__cxx1119basic_ostringstreamIcSt11char_traitsIcESaIcEEE
 10379      00000000 
 10380 0018 00000000 		.quad	0
 10380      00000000 
 10381 0020 00000000 		.quad	0
 10381      00000000 
 10382 0028 70FFFFFF 		.quad	-144
 10382      FFFFFFFF 
 10383 0030 70FFFFFF 		.quad	-144
 10383      FFFFFFFF 
 10384 0038 00000000 		.quad	_ZTINSt7__cxx1119basic_ostringstreamIcSt11char_traitsIcESaIcEEE
 10384      00000000 
 10385 0040 00000000 		.quad	0
 10385      00000000 
 10386 0048 00000000 		.quad	0
 10386      00000000 
 10387              		.hidden	_ZTCN8UnitTest15MemoryOutStreamE0_So
 10388              		.weak	_ZTCN8UnitTest15MemoryOutStreamE0_So
 10389              		.section	.data.rel.ro._ZTCN8UnitTest15MemoryOutStreamE0_So,"awG",@progbits,_ZTVN8UnitTest15MemoryO
 10390              		.align 8
 10393              	_ZTCN8UnitTest15MemoryOutStreamE0_So:
 10394 0000 90000000 		.quad	144
 10394      00000000 
 10395 0008 00000000 		.quad	0
 10395      00000000 
 10396 0010 00000000 		.quad	_ZTISo
 10396      00000000 
 10397 0018 00000000 		.quad	0
 10397      00000000 
 10398 0020 00000000 		.quad	0
 10398      00000000 
 10399 0028 70FFFFFF 		.quad	-144
 10399      FFFFFFFF 
 10400 0030 70FFFFFF 		.quad	-144
 10400      FFFFFFFF 
 10401 0038 00000000 		.quad	_ZTISo
 10401      00000000 
 10402 0040 00000000 		.quad	0
 10402      00000000 
 10403 0048 00000000 		.quad	0
 10403      00000000 
 10404              		.weak	_ZTI28TestHexIO_testDeriveWriteMap
 10405              		.section	.data.rel.ro._ZTI28TestHexIO_testDeriveWriteMap,"awG",@progbits,_ZTI28TestHexIO_testDeriv
 10406              		.align 8
 10409              	_ZTI28TestHexIO_testDeriveWriteMap:
 10410 0000 00000000 		.quad	_ZTVN10__cxxabiv120__si_class_type_infoE+16
 10410      00000000 
 10411 0008 00000000 		.quad	_ZTS28TestHexIO_testDeriveWriteMap
 10411      00000000 
 10412 0010 00000000 		.quad	_ZTIN8UnitTest4TestE
 10412      00000000 
 10413              		.weak	_ZTS28TestHexIO_testDeriveWriteMap
 10414              		.section	.rodata._ZTS28TestHexIO_testDeriveWriteMap,"aG",@progbits,_ZTS28TestHexIO_testDeriveWrite
 10415              		.align 16
 10418              	_ZTS28TestHexIO_testDeriveWriteMap:
 10419 0000 32385465 		.string	"28TestHexIO_testDeriveWriteMap"
 10419      73744865 
 10419      78494F5F 
 10419      74657374 
 10419      44657269 
 10420              		.weak	_ZTI23TestHexIO_testRoundTrip
 10421              		.section	.data.rel.ro._ZTI23TestHexIO_testRoundTrip,"awG",@progbits,_ZTI23TestHexIO_testRoundTrip,
 10422              		.align 8
 10425              	_ZTI23TestHexIO_testRoundTrip:
 10426 0000 00000000 		.quad	_ZTVN10__cxxabiv120__si_class_type_infoE+16
 10426      00000000 
 10427 0008 00000000 		.quad	_ZTS23TestHexIO_testRoundTrip
 10427      00000000 
 10428 0010 00000000 		.quad	_ZTIN8UnitTest4TestE
 10428      00000000 
 10429              		.weak	_ZTS23TestHexIO_testRoundTrip
 10430              		.section	.rodata._ZTS23TestHexIO_testRoundTrip,"aG",@progbits,_ZTS23TestHexIO_testRoundTrip,comdat
 10431              		.align 16
 10434              	_ZTS23TestHexIO_testRoundTrip:
 10435 0000 32335465 		.string	"23TestHexIO_testRoundTrip"
 10435      73744865 
 10435      78494F5F 
 10435      74657374 
 10435      526F756E 
 10436              		.weak	_ZTI25TestHexIO_testCorruptLine
 10437              		.section	.data.rel.ro._ZTI25TestHexIO_testCorruptLine,"awG",@progbits,_ZTI25TestHexIO_testCorruptL
 10438              		.align 8
 10441              	_ZTI25TestHexIO_testCorruptLine:
 10442 0000 00000000 		.quad	_ZTVN10__cxxabiv120__si_class_type_infoE+16
 10442      00000000 
 10443 0008 00000000 		.quad	_ZTS25TestHexIO_testCorruptLine
 10443      00000000 
 10444 0010 00000000 		.quad	_ZTIN8UnitTest4TestE
 10444      00000000 
 10445              		.weak	_ZTS25TestHexIO_testCorruptLine
 10446              		.section	.rodata._ZTS25TestHexIO_testCorruptLine,"aG",@progbits,_ZTS25TestHexIO_testCorruptLine,co
 10447              		.align 16
 10450              	_ZTS25TestHexIO_testCorruptLine:
 10451 0000 32355465 		.string	"25TestHexIO_testCorruptLine"
 10451      73744865 
 10451      78494F5F 
 10451      74657374 
 10451      436F7272 
 10452              		.weak	_ZTI25TestHexIO_testBadChecksum
 10453              		.section	.data.rel.ro._ZTI25TestHexIO_testBadChecksum,"awG",@progbits,_ZTI25TestHexIO_testBadCheck
 10454              		.align 8
 10457              	_ZTI25TestHexIO_testBadChecksum:
 10458 0000 00000000 		.quad	_ZTVN10__cxxabiv120__si_class_type_infoE+16
 10458      00000000 
 10459 0008 00000000 		.quad	_ZTS25TestHexIO_testBadChecksum
 10459      00000000 
 10460 0010 00000000 		.quad	_ZTIN8UnitTest4TestE
 10460      00000000 
 10461              		.weak	_ZTS25TestHexIO_testBadChecksum
 10462              		.section	.rodata._ZTS25TestHexIO_testBadChecksum,"aG",@progbits,_ZTS25TestHexIO_testBadChecksum,co
 10463              		.align 16
 10466              	_ZTS25TestHexIO_testBadChecksum:
 10467 0000 32355465 		.string	"25TestHexIO_testBadChecksum"
 10467      73744865 
 10467      78494F5F 
 10467      74657374 
 10467      42616443 
 10468              		.weak	_ZTI26TestHexIO_testJunkChecksum
 10469              		.section	.data.rel.ro._ZTI26TestHexIO_testJunkChecksum,"awG",@progbits,_ZTI26TestHexIO_testJunkChe
 10470              		.align 8
 10473              	_ZTI26TestHexIO_testJunkChecksum:
 10474 0000 00000000 		.quad	_ZTVN10__cxxabiv120__si_class_type_infoE+16
 10474      00000000 
 10475 0008 00000000 		.quad	_ZTS26TestHexIO_testJunkChecksum
 10475      00000000 
 10476 0010 00000000 		.quad	_ZTIN8UnitTest4TestE
 10476      00000000 
 10477              		.weak	_ZTS26TestHexIO_testJunkChecksum
 10478              		.section	.rodata._ZTS26TestHexIO_testJunkChecksum,"aG",@progbits,_ZTS26TestHexIO_testJunkChecksum,
 10479              		.align 16
 10482              	_ZTS26TestHexIO_testJunkChecksum:
 10483 0000 32365465 		.string	"26TestHexIO_testJunkChecksum"
 10483      73744865 
 10483      78494F5F 
 10483      74657374 
 10483      4A756E6B 
 10484              		.weak	_ZTI26TestHexIO_testJunkDataByte
 10485              		.section	.data.rel.ro._ZTI26TestHexIO_testJunkDataByte,"awG",@progbits,_ZTI26TestHexIO_testJunkDat
 10486              		.align 8
 10489              	_ZTI26TestHexIO_testJunkDataByte:
 10490 0000 00000000 		.quad	_ZTVN10__cxxabiv120__si_class_type_infoE+16
 10490      00000000 
 10491 0008 00000000 		.quad	_ZTS26TestHexIO_testJunkDataByte
 10491      00000000 
 10492 0010 00000000 		.quad	_ZTIN8UnitTest4TestE
 10492      00000000 
 10493              		.weak	_ZTS26TestHexIO_testJunkDataByte
 10494              		.section	.rodata._ZTS26TestHexIO_testJunkDataByte,"aG",@progbits,_ZTS26TestHexIO_testJunkDataByte,
 10495              		.align 16
 10498              	_ZTS26TestHexIO_testJunkDataByte:
 10499 0000 32365465 		.string	"26TestHexIO_testJunkDataByte"
 10499      73744865 
 10499      78494F5F 
 10499      74657374 
 10499      4A756E6B 
 10500              		.weak	_ZTI25TestHexIO_testJunkRecType
 10501              		.section	.data.rel.ro._ZTI25TestHexIO_testJunkRecType,"awG",@progbits,_ZTI25TestHexIO_testJunkRecT
 10502              		.align 8
 10505              	_ZTI25TestHexIO_testJunkRecType:
 10506 0000 00000000 		.quad	_ZTVN10__cxxabiv120__si_class_type_infoE+16
 10506      00000000 
 10507 0008 00000000 		.quad	_ZTS25TestHexIO_testJunkRecType
 10507      00000000 
 10508 0010 00000000 		.quad	_ZTIN8UnitTest4TestE
 10508      00000000 
 10509              		.weak	_ZTS25TestHexIO_testJunkRecType
 10510              		.section	.rodata._ZTS25TestHexIO_testJunkRecType,"aG",@progbits,_ZTS25TestHexIO_testJunkRecType,co
 10511              		.align 16
 10514              	_ZTS25TestHexIO_testJunkRecType:
 10515 0000 32355465 		.string	"25TestHexIO_testJunkRecType"
 10515      73744865 
 10515      78494F5F 
 10515      74657374 
 10515      4A756E6B 
 10516              		.weak	_ZTI25TestHexIO_testJunkAddrLsb
 10517              		.section	.data.rel.ro._ZTI25TestHexIO_testJunkAddrLsb,"awG",@progbits,_ZTI25TestHexIO_testJunkAddr
 10518              		.align 8
 10521              	_ZTI25TestHexIO_testJunkAddrLsb:
 10522 0000 00000000 		.quad	_ZTVN10__cxxabiv120__si_class_type_infoE+16
 10522      00000000 
 10523 0008 00000000 		.quad	_ZTS25TestHexIO_testJunkAddrLsb
 10523      00000000 
 10524 0010 00000000 		.quad	_ZTIN8UnitTest4TestE
 10524      00000000 
 10525              		.weak	_ZTS25TestHexIO_testJunkAddrLsb
 10526              		.section	.rodata._ZTS25TestHexIO_testJunkAddrLsb,"aG",@progbits,_ZTS25TestHexIO_testJunkAddrLsb,co
 10527              		.align 16
 10530              	_ZTS25TestHexIO_testJunkAddrLsb:
 10531 0000 32355465 		.string	"25TestHexIO_testJunkAddrLsb"
 10531      73744865 
 10531      78494F5F 
 10531      74657374 
 10531      4A756E6B 
 10532              		.weak	_ZTI25TestHexIO_testJunkAddrMsb
 10533              		.section	.data.rel.ro._ZTI25TestHexIO_testJunkAddrMsb,"awG",@progbits,_ZTI25TestHexIO_testJunkAddr
 10534              		.align 8
 10537              	_ZTI25TestHexIO_testJunkAddrMsb:
 10538 0000 00000000 		.quad	_ZTVN10__cxxabiv120__si_class_type_infoE+16
 10538      00000000 
 10539 0008 00000000 		.quad	_ZTS25TestHexIO_testJunkAddrMsb
 10539      00000000 
 10540 0010 00000000 		.quad	_ZTIN8UnitTest4TestE
 10540      00000000 
 10541              		.weak	_ZTS25TestHexIO_testJunkAddrMsb
 10542              		.section	.rodata._ZTS25TestHexIO_testJunkAddrMsb,"aG",@progbits,_ZTS25TestHexIO_testJunkAddrMsb,co
 10543              		.align 16
 10546              	_ZTS25TestHexIO_testJunkAddrMsb:
 10547 0000 32355465 		.string	"25TestHexIO_testJunkAddrMsb"
 10547      73744865 
 10547      78494F5F 
 10547      74657374 
 10547      4A756E6B 
 10548              		.weak	_ZTI27TestHexIO_testJunkByteCount
 10549              		.section	.data.rel.ro._ZTI27TestHexIO_testJunkByteCount,"awG",@progbits,_ZTI27TestHexIO_testJunkBy
 10550              		.align 8
 10553              	_ZTI27TestHexIO_testJunkByteCount:
 10554 0000 00000000 		.quad	_ZTVN10__cxxabiv120__si_class_type_infoE+16
 10554      00000000 
 10555 0008 00000000 		.quad	_ZTS27TestHexIO_testJunkByteCount
 10555      00000000 
 10556 0010 00000000 		.quad	_ZTIN8UnitTest4TestE
 10556      00000000 
 10557              		.weak	_ZTS27TestHexIO_testJunkByteCount
 10558              		.section	.rodata._ZTS27TestHexIO_testJunkByteCount,"aG",@progbits,_ZTS27TestHexIO_testJunkByteCoun
 10559              		.align 16
 10562              	_ZTS27TestHexIO_testJunkByteCount:
 10563 0000 32375465 		.string	"27TestHexIO_testJunkByteCount"
 10563      73744865 
 10563      78494F5F 
 10563      74657374 
 10563      4A756E6B 
 10564              		.weak	_ZTI27TestHexIO_testJunkStartCode
 10565              		.section	.data.rel.ro._ZTI27TestHexIO_testJunkStartCode,"awG",@progbits,_ZTI27TestHexIO_testJunkSt
 10566              		.align 8
 10569              	_ZTI27TestHexIO_testJunkStartCode:
 10570 0000 00000000 		.quad	_ZTVN10__cxxabiv120__si_class_type_infoE+16
 10570      00000000 
 10571 0008 00000000 		.quad	_ZTS27TestHexIO_testJunkStartCode
 10571      00000000 
 10572 0010 00000000 		.quad	_ZTIN8UnitTest4TestE
 10572      00000000 
 10573              		.weak	_ZTS27TestHexIO_testJunkStartCode
 10574              		.section	.rodata._ZTS27TestHexIO_testJunkStartCode,"aG",@progbits,_ZTS27TestHexIO_testJunkStartCod
 10575              		.align 16
 10578              	_ZTS27TestHexIO_testJunkStartCode:
 10579 0000 32375465 		.string	"27TestHexIO_testJunkStartCode"
 10579      73744865 
 10579      78494F5F 
 10579      74657374 
 10579      4A756E6B 
 10580              		.weak	_ZTI22TestHexIO_testValidEOF
 10581              		.section	.data.rel.ro._ZTI22TestHexIO_testValidEOF,"awG",@progbits,_ZTI22TestHexIO_testValidEOF,co
 10582              		.align 8
 10585              	_ZTI22TestHexIO_testValidEOF:
 10586 0000 00000000 		.quad	_ZTVN10__cxxabiv120__si_class_type_infoE+16
 10586      00000000 
 10587 0008 00000000 		.quad	_ZTS22TestHexIO_testValidEOF
 10587      00000000 
 10588 0010 00000000 		.quad	_ZTIN8UnitTest4TestE
 10588      00000000 
 10589              		.weak	_ZTS22TestHexIO_testValidEOF
 10590              		.section	.rodata._ZTS22TestHexIO_testValidEOF,"aG",@progbits,_ZTS22TestHexIO_testValidEOF,comdat
 10591              		.align 16
 10594              	_ZTS22TestHexIO_testValidEOF:
 10595 0000 32325465 		.string	"22TestHexIO_testValidEOF"
 10595      73744865 
 10595      78494F5F 
 10595      74657374 
 10595      56616C69 
 10596              		.weak	_ZTI27TestHexIO_testValidDataLine
 10597              		.section	.data.rel.ro._ZTI27TestHexIO_testValidDataLine,"awG",@progbits,_ZTI27TestHexIO_testValidD
 10598              		.align 8
 10601              	_ZTI27TestHexIO_testValidDataLine:
 10602 0000 00000000 		.quad	_ZTVN10__cxxabiv120__si_class_type_infoE+16
 10602      00000000 
 10603 0008 00000000 		.quad	_ZTS27TestHexIO_testValidDataLine
 10603      00000000 
 10604 0010 00000000 		.quad	_ZTIN8UnitTest4TestE
 10604      00000000 
 10605              		.weak	_ZTS27TestHexIO_testValidDataLine
 10606              		.section	.rodata._ZTS27TestHexIO_testValidDataLine,"aG",@progbits,_ZTS27TestHexIO_testValidDataLin
 10607              		.align 16
 10610              	_ZTS27TestHexIO_testValidDataLine:
 10611 0000 32375465 		.string	"27TestHexIO_testValidDataLine"
 10611      73744865 
 10611      78494F5F 
 10611      74657374 
 10611      56616C69 
 10612              		.weak	_ZTIN8UnitTest15MemoryOutStreamE
 10613              		.section	.data.rel.ro._ZTIN8UnitTest15MemoryOutStreamE,"awG",@progbits,_ZTIN8UnitTest15MemoryOutSt
 10614              		.align 8
 10617              	_ZTIN8UnitTest15MemoryOutStreamE:
 10618 0000 00000000 		.quad	_ZTVN10__cxxabiv120__si_class_type_infoE+16
 10618      00000000 
 10619 0008 00000000 		.quad	_ZTSN8UnitTest15MemoryOutStreamE
 10619      00000000 
 10620 0010 00000000 		.quad	_ZTINSt7__cxx1119basic_ostringstreamIcSt11char_traitsIcESaIcEEE
 10620      00000000 
 10621              		.weak	_ZTSN8UnitTest15MemoryOutStreamE
 10622              		.section	.rodata._ZTSN8UnitTest15MemoryOutStreamE,"aG",@progbits,_ZTSN8UnitTest15MemoryOutStreamE,
 10623              		.align 16
 10626              	_ZTSN8UnitTest15MemoryOutStreamE:
 10627 0000 4E38556E 		.string	"N8UnitTest15MemoryOutStreamE"
 10627      69745465 
 10627      73743135 
 10627      4D656D6F 
 10627      72794F75 
 10628              		.text
 10630              	_Z41__static_initialization_and_destruction_0ii:
 10631              	.LFB1447:
 10632              		.loc 4 306 1 is_stmt 1
 10633              		.cfi_startproc
 10634 340f F30F1EFA 		endbr64
 10635 3413 55       		pushq	%rbp
 10636              		.cfi_def_cfa_offset 16
 10637              		.cfi_offset 6, -16
 10638 3414 4889E5   		movq	%rsp, %rbp
 10639              		.cfi_def_cfa_register 6
 10640 3417 4883EC10 		subq	$16, %rsp
 10641 341b 897DFC   		movl	%edi, -4(%rbp)
 10642 341e 8975F8   		movl	%esi, -8(%rbp)
 10643              		.loc 4 306 1
 10644 3421 837DFC01 		cmpl	$1, -4(%rbp)
 10645 3425 0F856B04 		jne	.L495
 10645      0000
 10646              		.loc 4 306 1 is_stmt 0 discriminator 1
 10647 342b 817DF8FF 		cmpl	$65535, -8(%rbp)
 10647      FF0000
 10648 3432 0F855E04 		jne	.L495
 10648      0000
  27:testHexIO.cpp **** 	Buffer data, mask;
 10649              		.loc 4 27 1 is_stmt 1
 10650 3438 488D0500 		leaq	testHexIO_testValidDataLineInstance(%rip), %rax
 10650      000000
 10651 343f 4889C7   		movq	%rax, %rdi
 10652 3442 E8000000 		call	_ZN27TestHexIO_testValidDataLineC1Ev
 10652      00
 10653 3447 488D0500 		leaq	__dso_handle(%rip), %rax
 10653      000000
 10654 344e 4889C2   		movq	%rax, %rdx
 10655 3451 488D0500 		leaq	testHexIO_testValidDataLineInstance(%rip), %rax
 10655      000000
 10656 3458 4889C6   		movq	%rax, %rsi
 10657 345b 488D0500 		leaq	_ZN27TestHexIO_testValidDataLineD1Ev(%rip), %rax
 10657      000000
 10658 3462 4889C7   		movq	%rax, %rdi
 10659 3465 E8000000 		call	__cxa_atexit@PLT
 10659      00
 10660 346a E8000000 		call	_ZN8UnitTest4Test11GetTestListEv@PLT
 10660      00
 10661 346f 4889C1   		movq	%rax, %rcx
 10662 3472 488D0500 		leaq	testHexIO_testValidDataLineInstance(%rip), %rax
 10662      000000
 10663 3479 4889C2   		movq	%rax, %rdx
 10664 347c 4889CE   		movq	%rcx, %rsi
 10665 347f 488D0500 		leaq	adderHexIO_testValidDataLine(%rip), %rax
 10665      000000
 10666 3486 4889C7   		movq	%rax, %rdi
 10667 3489 E8000000 		call	_ZN8UnitTest9ListAdderC1ERNS_8TestListEPNS_4TestE@PLT
 10667      00
  50:testHexIO.cpp **** 	Buffer data, mask;
 10668              		.loc 4 50 1
 10669 348e 488D0500 		leaq	testHexIO_testValidEOFInstance(%rip), %rax
 10669      000000
 10670 3495 4889C7   		movq	%rax, %rdi
 10671 3498 E8000000 		call	_ZN22TestHexIO_testValidEOFC1Ev
 10671      00
 10672 349d 488D0500 		leaq	__dso_handle(%rip), %rax
 10672      000000
 10673 34a4 4889C2   		movq	%rax, %rdx
 10674 34a7 488D0500 		leaq	testHexIO_testValidEOFInstance(%rip), %rax
 10674      000000
 10675 34ae 4889C6   		movq	%rax, %rsi
 10676 34b1 488D0500 		leaq	_ZN22TestHexIO_testValidEOFD1Ev(%rip), %rax
 10676      000000
 10677 34b8 4889C7   		movq	%rax, %rdi
 10678 34bb E8000000 		call	__cxa_atexit@PLT
 10678      00
 10679 34c0 E8000000 		call	_ZN8UnitTest4Test11GetTestListEv@PLT
 10679      00
 10680 34c5 4889C1   		movq	%rax, %rcx
 10681 34c8 488D0500 		leaq	testHexIO_testValidEOFInstance(%rip), %rax
 10681      000000
 10682 34cf 4889C2   		movq	%rax, %rdx
 10683 34d2 4889CE   		movq	%rcx, %rsi
 10684 34d5 488D0500 		leaq	adderHexIO_testValidEOF(%rip), %rax
 10684      000000
 10685 34dc 4889C7   		movq	%rax, %rdi
 10686 34df E8000000 		call	_ZN8UnitTest9ListAdderC1ERNS_8TestListEPNS_4TestE@PLT
 10686      00
  69:testHexIO.cpp **** 	Buffer data;
 10687              		.loc 4 69 1
 10688 34e4 488D0500 		leaq	testHexIO_testJunkStartCodeInstance(%rip), %rax
 10688      000000
 10689 34eb 4889C7   		movq	%rax, %rdi
 10690 34ee E8000000 		call	_ZN27TestHexIO_testJunkStartCodeC1Ev
 10690      00
 10691 34f3 488D0500 		leaq	__dso_handle(%rip), %rax
 10691      000000
 10692 34fa 4889C2   		movq	%rax, %rdx
 10693 34fd 488D0500 		leaq	testHexIO_testJunkStartCodeInstance(%rip), %rax
 10693      000000
 10694 3504 4889C6   		movq	%rax, %rsi
 10695 3507 488D0500 		leaq	_ZN27TestHexIO_testJunkStartCodeD1Ev(%rip), %rax
 10695      000000
 10696 350e 4889C7   		movq	%rax, %rdi
 10697 3511 E8000000 		call	__cxa_atexit@PLT
 10697      00
 10698 3516 E8000000 		call	_ZN8UnitTest4Test11GetTestListEv@PLT
 10698      00
 10699 351b 4889C1   		movq	%rax, %rcx
 10700 351e 488D0500 		leaq	testHexIO_testJunkStartCodeInstance(%rip), %rax
 10700      000000
 10701 3525 4889C2   		movq	%rax, %rdx
 10702 3528 4889CE   		movq	%rcx, %rsi
 10703 352b 488D0500 		leaq	adderHexIO_testJunkStartCode(%rip), %rax
 10703      000000
 10704 3532 4889C7   		movq	%rax, %rdi
 10705 3535 E8000000 		call	_ZN8UnitTest9ListAdderC1ERNS_8TestListEPNS_4TestE@PLT
 10705      00
  82:testHexIO.cpp **** 	Buffer data;
 10706              		.loc 4 82 1
 10707 353a 488D0500 		leaq	testHexIO_testJunkByteCountInstance(%rip), %rax
 10707      000000
 10708 3541 4889C7   		movq	%rax, %rdi
 10709 3544 E8000000 		call	_ZN27TestHexIO_testJunkByteCountC1Ev
 10709      00
 10710 3549 488D0500 		leaq	__dso_handle(%rip), %rax
 10710      000000
 10711 3550 4889C2   		movq	%rax, %rdx
 10712 3553 488D0500 		leaq	testHexIO_testJunkByteCountInstance(%rip), %rax
 10712      000000
 10713 355a 4889C6   		movq	%rax, %rsi
 10714 355d 488D0500 		leaq	_ZN27TestHexIO_testJunkByteCountD1Ev(%rip), %rax
 10714      000000
 10715 3564 4889C7   		movq	%rax, %rdi
 10716 3567 E8000000 		call	__cxa_atexit@PLT
 10716      00
 10717 356c E8000000 		call	_ZN8UnitTest4Test11GetTestListEv@PLT
 10717      00
 10718 3571 4889C1   		movq	%rax, %rcx
 10719 3574 488D0500 		leaq	testHexIO_testJunkByteCountInstance(%rip), %rax
 10719      000000
 10720 357b 4889C2   		movq	%rax, %rdx
 10721 357e 4889CE   		movq	%rcx, %rsi
 10722 3581 488D0500 		leaq	adderHexIO_testJunkByteCount(%rip), %rax
 10722      000000
 10723 3588 4889C7   		movq	%rax, %rdi
 10724 358b E8000000 		call	_ZN8UnitTest9ListAdderC1ERNS_8TestListEPNS_4TestE@PLT
 10724      00
  95:testHexIO.cpp **** 	Buffer data;
 10725              		.loc 4 95 1
 10726 3590 488D0500 		leaq	testHexIO_testJunkAddrMsbInstance(%rip), %rax
 10726      000000
 10727 3597 4889C7   		movq	%rax, %rdi
 10728 359a E8000000 		call	_ZN25TestHexIO_testJunkAddrMsbC1Ev
 10728      00
 10729 359f 488D0500 		leaq	__dso_handle(%rip), %rax
 10729      000000
 10730 35a6 4889C2   		movq	%rax, %rdx
 10731 35a9 488D0500 		leaq	testHexIO_testJunkAddrMsbInstance(%rip), %rax
 10731      000000
 10732 35b0 4889C6   		movq	%rax, %rsi
 10733 35b3 488D0500 		leaq	_ZN25TestHexIO_testJunkAddrMsbD1Ev(%rip), %rax
 10733      000000
 10734 35ba 4889C7   		movq	%rax, %rdi
 10735 35bd E8000000 		call	__cxa_atexit@PLT
 10735      00
 10736 35c2 E8000000 		call	_ZN8UnitTest4Test11GetTestListEv@PLT
 10736      00
 10737 35c7 4889C1   		movq	%rax, %rcx
 10738 35ca 488D0500 		leaq	testHexIO_testJunkAddrMsbInstance(%rip), %rax
 10738      000000
 10739 35d1 4889C2   		movq	%rax, %rdx
 10740 35d4 4889CE   		movq	%rcx, %rsi
 10741 35d7 488D0500 		leaq	adderHexIO_testJunkAddrMsb(%rip), %rax
 10741      000000
 10742 35de 4889C7   		movq	%rax, %rdi
 10743 35e1 E8000000 		call	_ZN8UnitTest9ListAdderC1ERNS_8TestListEPNS_4TestE@PLT
 10743      00
 108:testHexIO.cpp **** 	Buffer data;
 10744              		.loc 4 108 1
 10745 35e6 488D0500 		leaq	testHexIO_testJunkAddrLsbInstance(%rip), %rax
 10745      000000
 10746 35ed 4889C7   		movq	%rax, %rdi
 10747 35f0 E8000000 		call	_ZN25TestHexIO_testJunkAddrLsbC1Ev
 10747      00
 10748 35f5 488D0500 		leaq	__dso_handle(%rip), %rax
 10748      000000
 10749 35fc 4889C2   		movq	%rax, %rdx
 10750 35ff 488D0500 		leaq	testHexIO_testJunkAddrLsbInstance(%rip), %rax
 10750      000000
 10751 3606 4889C6   		movq	%rax, %rsi
 10752 3609 488D0500 		leaq	_ZN25TestHexIO_testJunkAddrLsbD1Ev(%rip), %rax
 10752      000000
 10753 3610 4889C7   		movq	%rax, %rdi
 10754 3613 E8000000 		call	__cxa_atexit@PLT
 10754      00
 10755 3618 E8000000 		call	_ZN8UnitTest4Test11GetTestListEv@PLT
 10755      00
 10756 361d 4889C1   		movq	%rax, %rcx
 10757 3620 488D0500 		leaq	testHexIO_testJunkAddrLsbInstance(%rip), %rax
 10757      000000
 10758 3627 4889C2   		movq	%rax, %rdx
 10759 362a 4889CE   		movq	%rcx, %rsi
 10760 362d 488D0500 		leaq	adderHexIO_testJunkAddrLsb(%rip), %rax
 10760      000000
 10761 3634 4889C7   		movq	%rax, %rdi
 10762 3637 E8000000 		call	_ZN8UnitTest9ListAdderC1ERNS_8TestListEPNS_4TestE@PLT
 10762      00
 121:testHexIO.cpp **** 	Buffer data;
 10763              		.loc 4 121 1
 10764 363c 488D0500 		leaq	testHexIO_testJunkRecTypeInstance(%rip), %rax
 10764      000000
 10765 3643 4889C7   		movq	%rax, %rdi
 10766 3646 E8000000 		call	_ZN25TestHexIO_testJunkRecTypeC1Ev
 10766      00
 10767 364b 488D0500 		leaq	__dso_handle(%rip), %rax
 10767      000000
 10768 3652 4889C2   		movq	%rax, %rdx
 10769 3655 488D0500 		leaq	testHexIO_testJunkRecTypeInstance(%rip), %rax
 10769      000000
 10770 365c 4889C6   		movq	%rax, %rsi
 10771 365f 488D0500 		leaq	_ZN25TestHexIO_testJunkRecTypeD1Ev(%rip), %rax
 10771      000000
 10772 3666 4889C7   		movq	%rax, %rdi
 10773 3669 E8000000 		call	__cxa_atexit@PLT
 10773      00
 10774 366e E8000000 		call	_ZN8UnitTest4Test11GetTestListEv@PLT
 10774      00
 10775 3673 4889C1   		movq	%rax, %rcx
 10776 3676 488D0500 		leaq	testHexIO_testJunkRecTypeInstance(%rip), %rax
 10776      000000
 10777 367d 4889C2   		movq	%rax, %rdx
 10778 3680 4889CE   		movq	%rcx, %rsi
 10779 3683 488D0500 		leaq	adderHexIO_testJunkRecType(%rip), %rax
 10779      000000
 10780 368a 4889C7   		movq	%rax, %rdi
 10781 368d E8000000 		call	_ZN8UnitTest9ListAdderC1ERNS_8TestListEPNS_4TestE@PLT
 10781      00
 134:testHexIO.cpp **** 	Buffer data;
 10782              		.loc 4 134 1
 10783 3692 488D0500 		leaq	testHexIO_testJunkDataByteInstance(%rip), %rax
 10783      000000
 10784 3699 4889C7   		movq	%rax, %rdi
 10785 369c E8000000 		call	_ZN26TestHexIO_testJunkDataByteC1Ev
 10785      00
 10786 36a1 488D0500 		leaq	__dso_handle(%rip), %rax
 10786      000000
 10787 36a8 4889C2   		movq	%rax, %rdx
 10788 36ab 488D0500 		leaq	testHexIO_testJunkDataByteInstance(%rip), %rax
 10788      000000
 10789 36b2 4889C6   		movq	%rax, %rsi
 10790 36b5 488D0500 		leaq	_ZN26TestHexIO_testJunkDataByteD1Ev(%rip), %rax
 10790      000000
 10791 36bc 4889C7   		movq	%rax, %rdi
 10792 36bf E8000000 		call	__cxa_atexit@PLT
 10792      00
 10793 36c4 E8000000 		call	_ZN8UnitTest4Test11GetTestListEv@PLT
 10793      00
 10794 36c9 4889C1   		movq	%rax, %rcx
 10795 36cc 488D0500 		leaq	testHexIO_testJunkDataByteInstance(%rip), %rax
 10795      000000
 10796 36d3 4889C2   		movq	%rax, %rdx
 10797 36d6 4889CE   		movq	%rcx, %rsi
 10798 36d9 488D0500 		leaq	adderHexIO_testJunkDataByte(%rip), %rax
 10798      000000
 10799 36e0 4889C7   		movq	%rax, %rdi
 10800 36e3 E8000000 		call	_ZN8UnitTest9ListAdderC1ERNS_8TestListEPNS_4TestE@PLT
 10800      00
 147:testHexIO.cpp **** 	Buffer data;
 10801              		.loc 4 147 1
 10802 36e8 488D0500 		leaq	testHexIO_testJunkChecksumInstance(%rip), %rax
 10802      000000
 10803 36ef 4889C7   		movq	%rax, %rdi
 10804 36f2 E8000000 		call	_ZN26TestHexIO_testJunkChecksumC1Ev
 10804      00
 10805 36f7 488D0500 		leaq	__dso_handle(%rip), %rax
 10805      000000
 10806 36fe 4889C2   		movq	%rax, %rdx
 10807 3701 488D0500 		leaq	testHexIO_testJunkChecksumInstance(%rip), %rax
 10807      000000
 10808 3708 4889C6   		movq	%rax, %rsi
 10809 370b 488D0500 		leaq	_ZN26TestHexIO_testJunkChecksumD1Ev(%rip), %rax
 10809      000000
 10810 3712 4889C7   		movq	%rax, %rdi
 10811 3715 E8000000 		call	__cxa_atexit@PLT
 10811      00
 10812 371a E8000000 		call	_ZN8UnitTest4Test11GetTestListEv@PLT
 10812      00
 10813 371f 4889C1   		movq	%rax, %rcx
 10814 3722 488D0500 		leaq	testHexIO_testJunkChecksumInstance(%rip), %rax
 10814      000000
 10815 3729 4889C2   		movq	%rax, %rdx
 10816 372c 4889CE   		movq	%rcx, %rsi
 10817 372f 488D0500 		leaq	adderHexIO_testJunkChecksum(%rip), %rax
 10817      000000
 10818 3736 4889C7   		movq	%rax, %rdi
 10819 3739 E8000000 		call	_ZN8UnitTest9ListAdderC1ERNS_8TestListEPNS_4TestE@PLT
 10819      00
 160:testHexIO.cpp **** 	Buffer data;
 10820              		.loc 4 160 1
 10821 373e 488D0500 		leaq	testHexIO_testBadChecksumInstance(%rip), %rax
 10821      000000
 10822 3745 4889C7   		movq	%rax, %rdi
 10823 3748 E8000000 		call	_ZN25TestHexIO_testBadChecksumC1Ev
 10823      00
 10824 374d 488D0500 		leaq	__dso_handle(%rip), %rax
 10824      000000
 10825 3754 4889C2   		movq	%rax, %rdx
 10826 3757 488D0500 		leaq	testHexIO_testBadChecksumInstance(%rip), %rax
 10826      000000
 10827 375e 4889C6   		movq	%rax, %rsi
 10828 3761 488D0500 		leaq	_ZN25TestHexIO_testBadChecksumD1Ev(%rip), %rax
 10828      000000
 10829 3768 4889C7   		movq	%rax, %rdi
 10830 376b E8000000 		call	__cxa_atexit@PLT
 10830      00
 10831 3770 E8000000 		call	_ZN8UnitTest4Test11GetTestListEv@PLT
 10831      00
 10832 3775 4889C1   		movq	%rax, %rcx
 10833 3778 488D0500 		leaq	testHexIO_testBadChecksumInstance(%rip), %rax
 10833      000000
 10834 377f 4889C2   		movq	%rax, %rdx
 10835 3782 4889CE   		movq	%rcx, %rsi
 10836 3785 488D0500 		leaq	adderHexIO_testBadChecksum(%rip), %rax
 10836      000000
 10837 378c 4889C7   		movq	%rax, %rdi
 10838 378f E8000000 		call	_ZN8UnitTest9ListAdderC1ERNS_8TestListEPNS_4TestE@PLT
 10838      00
 173:testHexIO.cpp **** 	Buffer data;
 10839              		.loc 4 173 1
 10840 3794 488D0500 		leaq	testHexIO_testCorruptLineInstance(%rip), %rax
 10840      000000
 10841 379b 4889C7   		movq	%rax, %rdi
 10842 379e E8000000 		call	_ZN25TestHexIO_testCorruptLineC1Ev
 10842      00
 10843 37a3 488D0500 		leaq	__dso_handle(%rip), %rax
 10843      000000
 10844 37aa 4889C2   		movq	%rax, %rdx
 10845 37ad 488D0500 		leaq	testHexIO_testCorruptLineInstance(%rip), %rax
 10845      000000
 10846 37b4 4889C6   		movq	%rax, %rsi
 10847 37b7 488D0500 		leaq	_ZN25TestHexIO_testCorruptLineD1Ev(%rip), %rax
 10847      000000
 10848 37be 4889C7   		movq	%rax, %rdi
 10849 37c1 E8000000 		call	__cxa_atexit@PLT
 10849      00
 10850 37c6 E8000000 		call	_ZN8UnitTest4Test11GetTestListEv@PLT
 10850      00
 10851 37cb 4889C1   		movq	%rax, %rcx
 10852 37ce 488D0500 		leaq	testHexIO_testCorruptLineInstance(%rip), %rax
 10852      000000
 10853 37d5 4889C2   		movq	%rax, %rdx
 10854 37d8 4889CE   		movq	%rcx, %rsi
 10855 37db 488D0500 		leaq	adderHexIO_testCorruptLine(%rip), %rax
 10855      000000
 10856 37e2 4889C7   		movq	%rax, %rdi
 10857 37e5 E8000000 		call	_ZN8UnitTest9ListAdderC1ERNS_8TestListEPNS_4TestE@PLT
 10857      00
 242:testHexIO.cpp **** 	testRoundTrip(
 10858              		.loc 4 242 1
 10859 37ea 488D0500 		leaq	testHexIO_testRoundTripInstance(%rip), %rax
 10859      000000
 10860 37f1 4889C7   		movq	%rax, %rdi
 10861 37f4 E8000000 		call	_ZN23TestHexIO_testRoundTripC1Ev
 10861      00
 10862 37f9 488D0500 		leaq	__dso_handle(%rip), %rax
 10862      000000
 10863 3800 4889C2   		movq	%rax, %rdx
 10864 3803 488D0500 		leaq	testHexIO_testRoundTripInstance(%rip), %rax
 10864      000000
 10865 380a 4889C6   		movq	%rax, %rsi
 10866 380d 488D0500 		leaq	_ZN23TestHexIO_testRoundTripD1Ev(%rip), %rax
 10866      000000
 10867 3814 4889C7   		movq	%rax, %rdi
 10868 3817 E8000000 		call	__cxa_atexit@PLT
 10868      00
 10869 381c E8000000 		call	_ZN8UnitTest4Test11GetTestListEv@PLT
 10869      00
 10870 3821 4889C1   		movq	%rax, %rcx
 10871 3824 488D0500 		leaq	testHexIO_testRoundTripInstance(%rip), %rax
 10871      000000
 10872 382b 4889C2   		movq	%rax, %rdx
 10873 382e 4889CE   		movq	%rcx, %rsi
 10874 3831 488D0500 		leaq	adderHexIO_testRoundTrip(%rip), %rax
 10874      000000
 10875 3838 4889C7   		movq	%rax, %rdi
 10876 383b E8000000 		call	_ZN8UnitTest9ListAdderC1ERNS_8TestListEPNS_4TestE@PLT
 10876      00
 303:testHexIO.cpp **** 	testDeriveWriteMap("Hello........World", "*****........*****");
 10877              		.loc 4 303 1
 10878 3840 488D0500 		leaq	testHexIO_testDeriveWriteMapInstance(%rip), %rax
 10878      000000
 10879 3847 4889C7   		movq	%rax, %rdi
 10880 384a E8000000 		call	_ZN28TestHexIO_testDeriveWriteMapC1Ev
 10880      00
 10881 384f 488D0500 		leaq	__dso_handle(%rip), %rax
 10881      000000
 10882 3856 4889C2   		movq	%rax, %rdx
 10883 3859 488D0500 		leaq	testHexIO_testDeriveWriteMapInstance(%rip), %rax
 10883      000000
 10884 3860 4889C6   		movq	%rax, %rsi
 10885 3863 488D0500 		leaq	_ZN28TestHexIO_testDeriveWriteMapD1Ev(%rip), %rax
 10885      000000
 10886 386a 4889C7   		movq	%rax, %rdi
 10887 386d E8000000 		call	__cxa_atexit@PLT
 10887      00
 10888 3872 E8000000 		call	_ZN8UnitTest4Test11GetTestListEv@PLT
 10888      00
 10889 3877 4889C1   		movq	%rax, %rcx
 10890 387a 488D0500 		leaq	testHexIO_testDeriveWriteMapInstance(%rip), %rax
 10890      000000
 10891 3881 4889C2   		movq	%rax, %rdx
 10892 3884 4889CE   		movq	%rcx, %rsi
 10893 3887 488D0500 		leaq	adderHexIO_testDeriveWriteMap(%rip), %rax
 10893      000000
 10894 388e 4889C7   		movq	%rax, %rdi
 10895 3891 E8000000 		call	_ZN8UnitTest9ListAdderC1ERNS_8TestListEPNS_4TestE@PLT
 10895      00
 10896              	.L495:
 10897              		.loc 4 306 1
 10898 3896 90       		nop
 10899 3897 C9       		leave
 10900              		.cfi_def_cfa 7, 8
 10901 3898 C3       		ret
 10902              		.cfi_endproc
 10903              	.LFE1447:
 10906              	_GLOBAL__sub_I_testHexIO_testValidDataLineInstance:
 10907              	.LFB1448:
 10908              		.loc 4 306 1
 10909              		.cfi_startproc
 10910 3899 F30F1EFA 		endbr64
 10911 389d 55       		pushq	%rbp
 10912              		.cfi_def_cfa_offset 16
 10913              		.cfi_offset 6, -16
 10914 389e 4889E5   		movq	%rsp, %rbp
 10915              		.cfi_def_cfa_register 6
 10916              		.loc 4 306 1
 10917 38a1 BEFFFF00 		movl	$65535, %esi
 10917      00
 10918 38a6 BF010000 		movl	$1, %edi
 10918      00
 10919 38ab E85FFBFF 		call	_Z41__static_initialization_and_destruction_0ii
 10919      FF
 10920 38b0 5D       		popq	%rbp
 10921              		.cfi_def_cfa 7, 8
 10922 38b1 C3       		ret
 10923              		.cfi_endproc
 10924              	.LFE1448:
 10926              		.section	.init_array,"aw"
 10927              		.align 8
 10928 0000 00000000 		.quad	_GLOBAL__sub_I_testHexIO_testValidDataLineInstance
 10928      00000000 
 10929              		.text
 10930              	.Letext0:
 10931              		.file 7 "<built-in>"
 10932              		.file 8 "/usr/lib/gcc/x86_64-linux-gnu/11/include/stdarg.h"
 10933              		.file 9 "/usr/include/c++/11/cstdarg"
 10934              		.file 10 "/usr/include/c++/11/cwchar"
 10935              		.file 11 "/usr/include/c++/11/bits/char_traits.h"
 10936              		.file 12 "/usr/include/x86_64-linux-gnu/c++/11/bits/c++config.h"
 10937              		.file 13 "/usr/include/c++/11/bits/allocator.h"
 10938              		.file 14 "/usr/include/c++/11/clocale"
 10939              		.file 15 "/usr/include/c++/11/bits/basic_string.h"
 10940              		.file 16 "/usr/include/c++/11/bits/basic_string.tcc"
 10941              		.file 17 "/usr/include/c++/11/sstream"
 10942              		.file 18 "/usr/include/c++/11/bits/stringfwd.h"
 10943              		.file 19 "/usr/include/c++/11/cwctype"
 10944              		.file 20 "/usr/include/c++/11/bits/ostream.tcc"
 10945              		.file 21 "/usr/include/c++/11/ostream"
 10946              		.file 22 "/usr/include/c++/11/istream"
 10947              		.file 23 "/usr/include/c++/11/cstdio"
 10948              		.file 24 "/usr/include/c++/11/cstring"
 10949              		.file 25 "/usr/include/c++/11/fstream"
 10950              		.file 26 "/usr/include/c++/11/bits/basic_ios.h"
 10951              		.file 27 "/usr/include/c++/11/iosfwd"
 10952              		.file 28 "/usr/include/c++/11/debug/debug.h"
 10953              		.file 29 "/usr/include/c++/11/bits/predefined_ops.h"
 10954              		.file 30 "/usr/include/c++/11/ext/new_allocator.h"
 10955              		.file 31 "/usr/include/c++/11/ext/alloc_traits.h"
 10956              		.file 32 "/usr/lib/gcc/x86_64-linux-gnu/11/include/stddef.h"
 10957              		.file 33 "/usr/include/x86_64-linux-gnu/bits/types/wint_t.h"
 10958              		.file 34 "/usr/include/x86_64-linux-gnu/bits/types/__mbstate_t.h"
 10959              		.file 35 "/usr/include/x86_64-linux-gnu/bits/types/mbstate_t.h"
 10960              		.file 36 "/usr/include/x86_64-linux-gnu/bits/types/__FILE.h"
 10961              		.file 37 "/usr/include/x86_64-linux-gnu/bits/types/struct_FILE.h"
 10962              		.file 38 "/usr/include/x86_64-linux-gnu/bits/types/FILE.h"
 10963              		.file 39 "/usr/include/wchar.h"
 10964              		.file 40 "/usr/include/x86_64-linux-gnu/bits/types/struct_tm.h"
 10965              		.file 41 "/usr/include/locale.h"
 10966              		.file 42 "/usr/include/x86_64-linux-gnu/bits/types.h"
 10967              		.file 43 "/usr/include/x86_64-linux-gnu/bits/wctype-wchar.h"
 10968              		.file 44 "/usr/include/wctype.h"
 10969              		.file 45 "/usr/include/x86_64-linux-gnu/bits/types/__fpos_t.h"
 10970              		.file 46 "/usr/include/stdio.h"
 10971              		.file 47 "/usr/include/string.h"
 10972              		.file 48 "/home/pong/FPGALink/makestuff/libs/libutpp/TestDetails.h"
 10973              		.file 49 "/home/pong/FPGALink/makestuff/libs/libutpp/TestList.h"
 10974              		.file 50 "/home/pong/FPGALink/makestuff/libs/libutpp/Test.h"
 10975              		.file 51 "/home/pong/FPGALink/makestuff/libs/libutpp/TestResults.h"
 10976              		.file 52 "/home/pong/FPGALink/makestuff/libs/libutpp/CurrentTest.h"
 10977              		.file 53 "/home/pong/FPGALink/makestuff/common/makestuff.h"
 10978              		.file 54 "../libbuffer.h"
 10979              		.file 55 "../private.h"
 10980              		.file 56 "/usr/include/c++/11/new"
 27848              		.align 8
 27851              	DW.ref.__gxx_personality_v0:
 27852 0000 00000000 		.quad	__gxx_personality_v0
 27852      00000000 
 27853              		.hidden	__dso_handle
 27854              		.ident	"GCC: (Ubuntu 11.3.0-1ubuntu1~22.04) 11.3.0"
 27855              		.section	.note.GNU-stack,"",@progbits
 27856              		.section	.note.gnu.property,"a"
 27857              		.align 8
 27858 0000 04000000 		.long	1f - 0f
 27859 0004 10000000 		.long	4f - 1f
 27860 0008 05000000 		.long	5
 27861              	0:
 27862 000c 474E5500 		.string	"GNU"
 27863              	1:
 27864              		.align 8
 27865 0010 020000C0 		.long	0xc0000002
 27866 0014 04000000 		.long	3f - 2f
 27867              	2:
 27868 0018 03000000 		.long	0x3
 27869              	3:
 27870 001c 00000000 		.align 8
 27871              	4:
DEFINED SYMBOLS
                            *ABS*:0000000000000000 testHexIO.cpp
     /tmp/cc5VSaMN.s:8      .text._ZStorSt13_Ios_OpenmodeS_:0000000000000000 _ZStorSt13_Ios_OpenmodeS_
     /tmp/cc5VSaMN.s:37     .text._ZN13UnitTestSuite12GetSuiteNameEv:0000000000000000 _ZN13UnitTestSuite12GetSuiteNameEv
     /tmp/cc5VSaMN.s:61     .text._ZN8UnitTest15MemoryOutStreamC1Ev:0000000000000000 _ZN8UnitTest15MemoryOutStreamC1Ev
     /tmp/cc5VSaMN.s:27851  .data.rel.local.DW.ref.__gxx_personality_v0:0000000000000000 DW.ref.__gxx_personality_v0
     /tmp/cc5VSaMN.s:10363  .data.rel.ro.local._ZTTN8UnitTest15MemoryOutStreamE:0000000000000000 _ZTTN8UnitTest15MemoryOutStreamE
     /tmp/cc5VSaMN.s:10347  .data.rel.ro.local._ZTVN8UnitTest15MemoryOutStreamE:0000000000000000 _ZTVN8UnitTest15MemoryOutStreamE
     /tmp/cc5VSaMN.s:179    .text._ZN27TestHexIO_testValidDataLineC2Ev:0000000000000000 _ZN27TestHexIO_testValidDataLineC2Ev
     /tmp/cc5VSaMN.s:10234  .data.rel.ro.local._ZTV27TestHexIO_testValidDataLine:0000000000000000 _ZTV27TestHexIO_testValidDataLine
     /tmp/cc5VSaMN.s:179    .text._ZN27TestHexIO_testValidDataLineC2Ev:0000000000000000 _ZN27TestHexIO_testValidDataLineC1Ev
     /tmp/cc5VSaMN.s:225    .bss:0000000000000000 testHexIO_testValidDataLineInstance
     /tmp/cc5VSaMN.s:230    .bss:0000000000000038 adderHexIO_testValidDataLine
     /tmp/cc5VSaMN.s:260    .text:0000000000000000 _ZNK27TestHexIO_testValidDataLine7RunImplEv
     /tmp/cc5VSaMN.s:7230   .text._ZN8UnitTest10CheckEqualI12BufferStatusS1_EEvRNS_11TestResultsERKT_RKT0_RKNS_11TestDetailsE:0000000000000000 _ZN8UnitTest10CheckEqualI12BufferStatusS1_EEvRNS_11TestResultsERKT_RKT0_RKNS_11TestDetailsE
     /tmp/cc5VSaMN.s:7378   .text._ZN8UnitTest10CheckEqualIihEEvRNS_11TestResultsERKT_RKT0_RKNS_11TestDetailsE:0000000000000000 _ZN8UnitTest10CheckEqualIihEEvRNS_11TestResultsERKT_RKT0_RKNS_11TestDetailsE
     /tmp/cc5VSaMN.s:7526   .text._ZN8UnitTest10CheckEqualImmEEvRNS_11TestResultsERKT_RKT0_RKNS_11TestDetailsE:0000000000000000 _ZN8UnitTest10CheckEqualImmEEvRNS_11TestResultsERKT_RKT0_RKNS_11TestDetailsE
     /tmp/cc5VSaMN.s:7683   .text._ZN8UnitTest15CheckArrayEqualIA4_hPhEEvRNS_11TestResultsERKT_RKT0_iRKNS_11TestDetailsE:0000000000000000 _ZN8UnitTest15CheckArrayEqualIA4_hPhEEvRNS_11TestResultsERKT_RKT0_iRKNS_11TestDetailsE
     /tmp/cc5VSaMN.s:1086   .text._ZN22TestHexIO_testValidEOFC2Ev:0000000000000000 _ZN22TestHexIO_testValidEOFC2Ev
     /tmp/cc5VSaMN.s:10121  .data.rel.ro.local._ZTV22TestHexIO_testValidEOF:0000000000000000 _ZTV22TestHexIO_testValidEOF
     /tmp/cc5VSaMN.s:1086   .text._ZN22TestHexIO_testValidEOFC2Ev:0000000000000000 _ZN22TestHexIO_testValidEOFC1Ev
     /tmp/cc5VSaMN.s:1131   .bss:0000000000000040 testHexIO_testValidEOFInstance
     /tmp/cc5VSaMN.s:1136   .bss:0000000000000078 adderHexIO_testValidEOF
     /tmp/cc5VSaMN.s:1154   .text:0000000000000750 _ZNK22TestHexIO_testValidEOF7RunImplEv
     /tmp/cc5VSaMN.s:1743   .text._ZN27TestHexIO_testJunkStartCodeC2Ev:0000000000000000 _ZN27TestHexIO_testJunkStartCodeC2Ev
     /tmp/cc5VSaMN.s:10008  .data.rel.ro.local._ZTV27TestHexIO_testJunkStartCode:0000000000000000 _ZTV27TestHexIO_testJunkStartCode
     /tmp/cc5VSaMN.s:1743   .text._ZN27TestHexIO_testJunkStartCodeC2Ev:0000000000000000 _ZN27TestHexIO_testJunkStartCodeC1Ev
     /tmp/cc5VSaMN.s:1788   .bss:0000000000000080 testHexIO_testJunkStartCodeInstance
     /tmp/cc5VSaMN.s:1793   .bss:00000000000000b8 adderHexIO_testJunkStartCode
     /tmp/cc5VSaMN.s:1805   .text:0000000000000c70 _ZNK27TestHexIO_testJunkStartCode7RunImplEv
     /tmp/cc5VSaMN.s:2069   .text._ZN27TestHexIO_testJunkByteCountC2Ev:0000000000000000 _ZN27TestHexIO_testJunkByteCountC2Ev
     /tmp/cc5VSaMN.s:9895   .data.rel.ro.local._ZTV27TestHexIO_testJunkByteCount:0000000000000000 _ZTV27TestHexIO_testJunkByteCount
     /tmp/cc5VSaMN.s:2069   .text._ZN27TestHexIO_testJunkByteCountC2Ev:0000000000000000 _ZN27TestHexIO_testJunkByteCountC1Ev
     /tmp/cc5VSaMN.s:2114   .bss:00000000000000c0 testHexIO_testJunkByteCountInstance
     /tmp/cc5VSaMN.s:2119   .bss:00000000000000f8 adderHexIO_testJunkByteCount
     /tmp/cc5VSaMN.s:2131   .text:0000000000000e78 _ZNK27TestHexIO_testJunkByteCount7RunImplEv
     /tmp/cc5VSaMN.s:2395   .text._ZN25TestHexIO_testJunkAddrMsbC2Ev:0000000000000000 _ZN25TestHexIO_testJunkAddrMsbC2Ev
     /tmp/cc5VSaMN.s:9782   .data.rel.ro.local._ZTV25TestHexIO_testJunkAddrMsb:0000000000000000 _ZTV25TestHexIO_testJunkAddrMsb
     /tmp/cc5VSaMN.s:2395   .text._ZN25TestHexIO_testJunkAddrMsbC2Ev:0000000000000000 _ZN25TestHexIO_testJunkAddrMsbC1Ev
     /tmp/cc5VSaMN.s:2440   .bss:0000000000000100 testHexIO_testJunkAddrMsbInstance
     /tmp/cc5VSaMN.s:2445   .bss:0000000000000138 adderHexIO_testJunkAddrMsb
     /tmp/cc5VSaMN.s:2457   .text:0000000000001080 _ZNK25TestHexIO_testJunkAddrMsb7RunImplEv
     /tmp/cc5VSaMN.s:2721   .text._ZN25TestHexIO_testJunkAddrLsbC2Ev:0000000000000000 _ZN25TestHexIO_testJunkAddrLsbC2Ev
     /tmp/cc5VSaMN.s:9669   .data.rel.ro.local._ZTV25TestHexIO_testJunkAddrLsb:0000000000000000 _ZTV25TestHexIO_testJunkAddrLsb
     /tmp/cc5VSaMN.s:2721   .text._ZN25TestHexIO_testJunkAddrLsbC2Ev:0000000000000000 _ZN25TestHexIO_testJunkAddrLsbC1Ev
     /tmp/cc5VSaMN.s:2766   .bss:0000000000000140 testHexIO_testJunkAddrLsbInstance
     /tmp/cc5VSaMN.s:2771   .bss:0000000000000178 adderHexIO_testJunkAddrLsb
     /tmp/cc5VSaMN.s:2783   .text:0000000000001288 _ZNK25TestHexIO_testJunkAddrLsb7RunImplEv
     /tmp/cc5VSaMN.s:3047   .text._ZN25TestHexIO_testJunkRecTypeC2Ev:0000000000000000 _ZN25TestHexIO_testJunkRecTypeC2Ev
     /tmp/cc5VSaMN.s:9556   .data.rel.ro.local._ZTV25TestHexIO_testJunkRecType:0000000000000000 _ZTV25TestHexIO_testJunkRecType
     /tmp/cc5VSaMN.s:3047   .text._ZN25TestHexIO_testJunkRecTypeC2Ev:0000000000000000 _ZN25TestHexIO_testJunkRecTypeC1Ev
     /tmp/cc5VSaMN.s:3092   .bss:0000000000000180 testHexIO_testJunkRecTypeInstance
     /tmp/cc5VSaMN.s:3097   .bss:00000000000001b8 adderHexIO_testJunkRecType
     /tmp/cc5VSaMN.s:3109   .text:0000000000001490 _ZNK25TestHexIO_testJunkRecType7RunImplEv
     /tmp/cc5VSaMN.s:3373   .text._ZN26TestHexIO_testJunkDataByteC2Ev:0000000000000000 _ZN26TestHexIO_testJunkDataByteC2Ev
     /tmp/cc5VSaMN.s:9443   .data.rel.ro.local._ZTV26TestHexIO_testJunkDataByte:0000000000000000 _ZTV26TestHexIO_testJunkDataByte
     /tmp/cc5VSaMN.s:3373   .text._ZN26TestHexIO_testJunkDataByteC2Ev:0000000000000000 _ZN26TestHexIO_testJunkDataByteC1Ev
     /tmp/cc5VSaMN.s:3418   .bss:00000000000001c0 testHexIO_testJunkDataByteInstance
     /tmp/cc5VSaMN.s:3423   .bss:00000000000001f8 adderHexIO_testJunkDataByte
     /tmp/cc5VSaMN.s:3435   .text:0000000000001698 _ZNK26TestHexIO_testJunkDataByte7RunImplEv
     /tmp/cc5VSaMN.s:3699   .text._ZN26TestHexIO_testJunkChecksumC2Ev:0000000000000000 _ZN26TestHexIO_testJunkChecksumC2Ev
     /tmp/cc5VSaMN.s:9330   .data.rel.ro.local._ZTV26TestHexIO_testJunkChecksum:0000000000000000 _ZTV26TestHexIO_testJunkChecksum
     /tmp/cc5VSaMN.s:3699   .text._ZN26TestHexIO_testJunkChecksumC2Ev:0000000000000000 _ZN26TestHexIO_testJunkChecksumC1Ev
     /tmp/cc5VSaMN.s:3744   .bss:0000000000000200 testHexIO_testJunkChecksumInstance
     /tmp/cc5VSaMN.s:3749   .bss:0000000000000238 adderHexIO_testJunkChecksum
     /tmp/cc5VSaMN.s:3761   .text:00000000000018a0 _ZNK26TestHexIO_testJunkChecksum7RunImplEv
     /tmp/cc5VSaMN.s:4025   .text._ZN25TestHexIO_testBadChecksumC2Ev:0000000000000000 _ZN25TestHexIO_testBadChecksumC2Ev
     /tmp/cc5VSaMN.s:9217   .data.rel.ro.local._ZTV25TestHexIO_testBadChecksum:0000000000000000 _ZTV25TestHexIO_testBadChecksum
     /tmp/cc5VSaMN.s:4025   .text._ZN25TestHexIO_testBadChecksumC2Ev:0000000000000000 _ZN25TestHexIO_testBadChecksumC1Ev
     /tmp/cc5VSaMN.s:4070   .bss:0000000000000240 testHexIO_testBadChecksumInstance
     /tmp/cc5VSaMN.s:4075   .bss:0000000000000278 adderHexIO_testBadChecksum
     /tmp/cc5VSaMN.s:4087   .text:0000000000001aa8 _ZNK25TestHexIO_testBadChecksum7RunImplEv
     /tmp/cc5VSaMN.s:4351   .text._ZN25TestHexIO_testCorruptLineC2Ev:0000000000000000 _ZN25TestHexIO_testCorruptLineC2Ev
     /tmp/cc5VSaMN.s:9104   .data.rel.ro.local._ZTV25TestHexIO_testCorruptLine:0000000000000000 _ZTV25TestHexIO_testCorruptLine
     /tmp/cc5VSaMN.s:4351   .text._ZN25TestHexIO_testCorruptLineC2Ev:0000000000000000 _ZN25TestHexIO_testCorruptLineC1Ev
     /tmp/cc5VSaMN.s:4396   .bss:0000000000000280 testHexIO_testCorruptLineInstance
     /tmp/cc5VSaMN.s:4401   .bss:00000000000002b8 adderHexIO_testCorruptLine
     /tmp/cc5VSaMN.s:4413   .text:0000000000001cb0 _ZNK25TestHexIO_testCorruptLine7RunImplEv
     /tmp/cc5VSaMN.s:4699   .text:0000000000001eb7 _Z13testRoundTripPKcz
     /tmp/cc5VSaMN.s:7925   .text._ZN8UnitTest5CheckIbEEbT_:0000000000000000 _ZN8UnitTest5CheckIbEEbT_
     /tmp/cc5VSaMN.s:7950   .text._ZNKSt4fposI11__mbstate_tEcvlEv:0000000000000000 _ZNKSt4fposI11__mbstate_tEcvlEv
     /tmp/cc5VSaMN.s:7975   .text._ZN8UnitTest10CheckEqualImjEEvRNS_11TestResultsERKT_RKT0_RKNS_11TestDetailsE:0000000000000000 _ZN8UnitTest10CheckEqualImjEEvRNS_11TestResultsERKT_RKT0_RKNS_11TestDetailsE
     /tmp/cc5VSaMN.s:8124   .text._ZN8UnitTest15CheckArrayEqualIPKcS2_EEvRNS_11TestResultsERKT_RKT0_iRKNS_11TestDetailsE:0000000000000000 _ZN8UnitTest15CheckArrayEqualIPKcS2_EEvRNS_11TestResultsERKT_RKT0_iRKNS_11TestDetailsE
     /tmp/cc5VSaMN.s:8374   .text._ZN8UnitTest15CheckArrayEqualIPhS1_EEvRNS_11TestResultsERKT_RKT0_iRKNS_11TestDetailsE:0000000000000000 _ZN8UnitTest15CheckArrayEqualIPhS1_EEvRNS_11TestResultsERKT_RKT0_iRKNS_11TestDetailsE
     /tmp/cc5VSaMN.s:6081   .text._ZN23TestHexIO_testRoundTripC2Ev:0000000000000000 _ZN23TestHexIO_testRoundTripC2Ev
     /tmp/cc5VSaMN.s:8991   .data.rel.ro.local._ZTV23TestHexIO_testRoundTrip:0000000000000000 _ZTV23TestHexIO_testRoundTrip
     /tmp/cc5VSaMN.s:6081   .text._ZN23TestHexIO_testRoundTripC2Ev:0000000000000000 _ZN23TestHexIO_testRoundTripC1Ev
     /tmp/cc5VSaMN.s:6126   .bss:00000000000002c0 testHexIO_testRoundTripInstance
     /tmp/cc5VSaMN.s:6131   .bss:00000000000002f8 adderHexIO_testRoundTrip
     /tmp/cc5VSaMN.s:6185   .text:0000000000002d24 _ZNK23TestHexIO_testRoundTrip7RunImplEv
     /tmp/cc5VSaMN.s:6279   .text:0000000000002e5f _Z18testDeriveWriteMapPKcS0_
     /tmp/cc5VSaMN.s:8624   .text._ZN8UnitTest15CheckArrayEqualIPKcPhEEvRNS_11TestResultsERKT_RKT0_iRKNS_11TestDetailsE:0000000000000000 _ZN8UnitTest15CheckArrayEqualIPKcPhEEvRNS_11TestResultsERKT_RKT0_iRKNS_11TestDetailsE
     /tmp/cc5VSaMN.s:6917   .text._ZN28TestHexIO_testDeriveWriteMapC2Ev:0000000000000000 _ZN28TestHexIO_testDeriveWriteMapC2Ev
     /tmp/cc5VSaMN.s:8878   .data.rel.ro.local._ZTV28TestHexIO_testDeriveWriteMap:0000000000000000 _ZTV28TestHexIO_testDeriveWriteMap
     /tmp/cc5VSaMN.s:6917   .text._ZN28TestHexIO_testDeriveWriteMapC2Ev:0000000000000000 _ZN28TestHexIO_testDeriveWriteMapC1Ev
     /tmp/cc5VSaMN.s:6962   .bss:0000000000000300 testHexIO_testDeriveWriteMapInstance
     /tmp/cc5VSaMN.s:6967   .bss:0000000000000338 adderHexIO_testDeriveWriteMap
     /tmp/cc5VSaMN.s:6982   .text:00000000000033ca _ZNK28TestHexIO_testDeriveWriteMap7RunImplEv
     /tmp/cc5VSaMN.s:7018   .text._ZN8UnitTest15MemoryOutStreamD1Ev:0000000000000000 _ZN8UnitTest15MemoryOutStreamD1Ev
     /tmp/cc5VSaMN.s:7129   .text._ZN8UnitTest15MemoryOutStreamD1Ev:00000000000000b6 _ZTv0_n24_N8UnitTest15MemoryOutStreamD1Ev
     /tmp/cc5VSaMN.s:7144   .text._ZN8UnitTest15MemoryOutStreamD0Ev:0000000000000000 _ZN8UnitTest15MemoryOutStreamD0Ev
     /tmp/cc5VSaMN.s:7211   .text._ZN8UnitTest15MemoryOutStreamD0Ev:000000000000004f _ZTv0_n24_N8UnitTest15MemoryOutStreamD0Ev
     /tmp/cc5VSaMN.s:10409  .data.rel.ro._ZTI28TestHexIO_testDeriveWriteMap:0000000000000000 _ZTI28TestHexIO_testDeriveWriteMap
     /tmp/cc5VSaMN.s:8888   .text._ZN28TestHexIO_testDeriveWriteMapD2Ev:0000000000000000 _ZN28TestHexIO_testDeriveWriteMapD1Ev
     /tmp/cc5VSaMN.s:8922   .text._ZN28TestHexIO_testDeriveWriteMapD0Ev:0000000000000000 _ZN28TestHexIO_testDeriveWriteMapD0Ev
     /tmp/cc5VSaMN.s:8888   .text._ZN28TestHexIO_testDeriveWriteMapD2Ev:0000000000000000 _ZN28TestHexIO_testDeriveWriteMapD2Ev
     /tmp/cc5VSaMN.s:10425  .data.rel.ro._ZTI23TestHexIO_testRoundTrip:0000000000000000 _ZTI23TestHexIO_testRoundTrip
     /tmp/cc5VSaMN.s:9001   .text._ZN23TestHexIO_testRoundTripD2Ev:0000000000000000 _ZN23TestHexIO_testRoundTripD1Ev
     /tmp/cc5VSaMN.s:9035   .text._ZN23TestHexIO_testRoundTripD0Ev:0000000000000000 _ZN23TestHexIO_testRoundTripD0Ev
     /tmp/cc5VSaMN.s:9001   .text._ZN23TestHexIO_testRoundTripD2Ev:0000000000000000 _ZN23TestHexIO_testRoundTripD2Ev
     /tmp/cc5VSaMN.s:10441  .data.rel.ro._ZTI25TestHexIO_testCorruptLine:0000000000000000 _ZTI25TestHexIO_testCorruptLine
     /tmp/cc5VSaMN.s:9114   .text._ZN25TestHexIO_testCorruptLineD2Ev:0000000000000000 _ZN25TestHexIO_testCorruptLineD1Ev
     /tmp/cc5VSaMN.s:9148   .text._ZN25TestHexIO_testCorruptLineD0Ev:0000000000000000 _ZN25TestHexIO_testCorruptLineD0Ev
     /tmp/cc5VSaMN.s:9114   .text._ZN25TestHexIO_testCorruptLineD2Ev:0000000000000000 _ZN25TestHexIO_testCorruptLineD2Ev
     /tmp/cc5VSaMN.s:10457  .data.rel.ro._ZTI25TestHexIO_testBadChecksum:0000000000000000 _ZTI25TestHexIO_testBadChecksum
     /tmp/cc5VSaMN.s:9227   .text._ZN25TestHexIO_testBadChecksumD2Ev:0000000000000000 _ZN25TestHexIO_testBadChecksumD1Ev
     /tmp/cc5VSaMN.s:9261   .text._ZN25TestHexIO_testBadChecksumD0Ev:0000000000000000 _ZN25TestHexIO_testBadChecksumD0Ev
     /tmp/cc5VSaMN.s:9227   .text._ZN25TestHexIO_testBadChecksumD2Ev:0000000000000000 _ZN25TestHexIO_testBadChecksumD2Ev
     /tmp/cc5VSaMN.s:10473  .data.rel.ro._ZTI26TestHexIO_testJunkChecksum:0000000000000000 _ZTI26TestHexIO_testJunkChecksum
     /tmp/cc5VSaMN.s:9340   .text._ZN26TestHexIO_testJunkChecksumD2Ev:0000000000000000 _ZN26TestHexIO_testJunkChecksumD1Ev
     /tmp/cc5VSaMN.s:9374   .text._ZN26TestHexIO_testJunkChecksumD0Ev:0000000000000000 _ZN26TestHexIO_testJunkChecksumD0Ev
     /tmp/cc5VSaMN.s:9340   .text._ZN26TestHexIO_testJunkChecksumD2Ev:0000000000000000 _ZN26TestHexIO_testJunkChecksumD2Ev
     /tmp/cc5VSaMN.s:10489  .data.rel.ro._ZTI26TestHexIO_testJunkDataByte:0000000000000000 _ZTI26TestHexIO_testJunkDataByte
     /tmp/cc5VSaMN.s:9453   .text._ZN26TestHexIO_testJunkDataByteD2Ev:0000000000000000 _ZN26TestHexIO_testJunkDataByteD1Ev
     /tmp/cc5VSaMN.s:9487   .text._ZN26TestHexIO_testJunkDataByteD0Ev:0000000000000000 _ZN26TestHexIO_testJunkDataByteD0Ev
     /tmp/cc5VSaMN.s:9453   .text._ZN26TestHexIO_testJunkDataByteD2Ev:0000000000000000 _ZN26TestHexIO_testJunkDataByteD2Ev
     /tmp/cc5VSaMN.s:10505  .data.rel.ro._ZTI25TestHexIO_testJunkRecType:0000000000000000 _ZTI25TestHexIO_testJunkRecType
     /tmp/cc5VSaMN.s:9566   .text._ZN25TestHexIO_testJunkRecTypeD2Ev:0000000000000000 _ZN25TestHexIO_testJunkRecTypeD1Ev
     /tmp/cc5VSaMN.s:9600   .text._ZN25TestHexIO_testJunkRecTypeD0Ev:0000000000000000 _ZN25TestHexIO_testJunkRecTypeD0Ev
     /tmp/cc5VSaMN.s:9566   .text._ZN25TestHexIO_testJunkRecTypeD2Ev:0000000000000000 _ZN25TestHexIO_testJunkRecTypeD2Ev
     /tmp/cc5VSaMN.s:10521  .data.rel.ro._ZTI25TestHexIO_testJunkAddrLsb:0000000000000000 _ZTI25TestHexIO_testJunkAddrLsb
     /tmp/cc5VSaMN.s:9679   .text._ZN25TestHexIO_testJunkAddrLsbD2Ev:0000000000000000 _ZN25TestHexIO_testJunkAddrLsbD1Ev
     /tmp/cc5VSaMN.s:9713   .text._ZN25TestHexIO_testJunkAddrLsbD0Ev:0000000000000000 _ZN25TestHexIO_testJunkAddrLsbD0Ev
     /tmp/cc5VSaMN.s:9679   .text._ZN25TestHexIO_testJunkAddrLsbD2Ev:0000000000000000 _ZN25TestHexIO_testJunkAddrLsbD2Ev
     /tmp/cc5VSaMN.s:10537  .data.rel.ro._ZTI25TestHexIO_testJunkAddrMsb:0000000000000000 _ZTI25TestHexIO_testJunkAddrMsb
     /tmp/cc5VSaMN.s:9792   .text._ZN25TestHexIO_testJunkAddrMsbD2Ev:0000000000000000 _ZN25TestHexIO_testJunkAddrMsbD1Ev
     /tmp/cc5VSaMN.s:9826   .text._ZN25TestHexIO_testJunkAddrMsbD0Ev:0000000000000000 _ZN25TestHexIO_testJunkAddrMsbD0Ev
     /tmp/cc5VSaMN.s:9792   .text._ZN25TestHexIO_testJunkAddrMsbD2Ev:0000000000000000 _ZN25TestHexIO_testJunkAddrMsbD2Ev
     /tmp/cc5VSaMN.s:10553  .data.rel.ro._ZTI27TestHexIO_testJunkByteCount:0000000000000000 _ZTI27TestHexIO_testJunkByteCount
     /tmp/cc5VSaMN.s:9905   .text._ZN27TestHexIO_testJunkByteCountD2Ev:0000000000000000 _ZN27TestHexIO_testJunkByteCountD1Ev
     /tmp/cc5VSaMN.s:9939   .text._ZN27TestHexIO_testJunkByteCountD0Ev:0000000000000000 _ZN27TestHexIO_testJunkByteCountD0Ev
     /tmp/cc5VSaMN.s:9905   .text._ZN27TestHexIO_testJunkByteCountD2Ev:0000000000000000 _ZN27TestHexIO_testJunkByteCountD2Ev
     /tmp/cc5VSaMN.s:10569  .data.rel.ro._ZTI27TestHexIO_testJunkStartCode:0000000000000000 _ZTI27TestHexIO_testJunkStartCode
     /tmp/cc5VSaMN.s:10018  .text._ZN27TestHexIO_testJunkStartCodeD2Ev:0000000000000000 _ZN27TestHexIO_testJunkStartCodeD1Ev
     /tmp/cc5VSaMN.s:10052  .text._ZN27TestHexIO_testJunkStartCodeD0Ev:0000000000000000 _ZN27TestHexIO_testJunkStartCodeD0Ev
     /tmp/cc5VSaMN.s:10018  .text._ZN27TestHexIO_testJunkStartCodeD2Ev:0000000000000000 _ZN27TestHexIO_testJunkStartCodeD2Ev
     /tmp/cc5VSaMN.s:10585  .data.rel.ro._ZTI22TestHexIO_testValidEOF:0000000000000000 _ZTI22TestHexIO_testValidEOF
     /tmp/cc5VSaMN.s:10131  .text._ZN22TestHexIO_testValidEOFD2Ev:0000000000000000 _ZN22TestHexIO_testValidEOFD1Ev
     /tmp/cc5VSaMN.s:10165  .text._ZN22TestHexIO_testValidEOFD0Ev:0000000000000000 _ZN22TestHexIO_testValidEOFD0Ev
     /tmp/cc5VSaMN.s:10131  .text._ZN22TestHexIO_testValidEOFD2Ev:0000000000000000 _ZN22TestHexIO_testValidEOFD2Ev
     /tmp/cc5VSaMN.s:10601  .data.rel.ro._ZTI27TestHexIO_testValidDataLine:0000000000000000 _ZTI27TestHexIO_testValidDataLine
     /tmp/cc5VSaMN.s:10244  .text._ZN27TestHexIO_testValidDataLineD2Ev:0000000000000000 _ZN27TestHexIO_testValidDataLineD1Ev
     /tmp/cc5VSaMN.s:10278  .text._ZN27TestHexIO_testValidDataLineD0Ev:0000000000000000 _ZN27TestHexIO_testValidDataLineD0Ev
     /tmp/cc5VSaMN.s:10244  .text._ZN27TestHexIO_testValidDataLineD2Ev:0000000000000000 _ZN27TestHexIO_testValidDataLineD2Ev
     /tmp/cc5VSaMN.s:10617  .data.rel.ro._ZTIN8UnitTest15MemoryOutStreamE:0000000000000000 _ZTIN8UnitTest15MemoryOutStreamE
     /tmp/cc5VSaMN.s:10376  .data.rel.ro._ZTCN8UnitTest15MemoryOutStreamE0_NSt7__cxx1119basic_ostringstreamIcSt11char_traitsIcESaIcEEE:0000000000000000 _ZTCN8UnitTest15MemoryOutStreamE0_NSt7__cxx1119basic_ostringstreamIcSt11char_traitsIcESaIcEEE
     /tmp/cc5VSaMN.s:10393  .data.rel.ro._ZTCN8UnitTest15MemoryOutStreamE0_So:0000000000000000 _ZTCN8UnitTest15MemoryOutStreamE0_So
     /tmp/cc5VSaMN.s:10418  .rodata._ZTS28TestHexIO_testDeriveWriteMap:0000000000000000 _ZTS28TestHexIO_testDeriveWriteMap
     /tmp/cc5VSaMN.s:10434  .rodata._ZTS23TestHexIO_testRoundTrip:0000000000000000 _ZTS23TestHexIO_testRoundTrip
     /tmp/cc5VSaMN.s:10450  .rodata._ZTS25TestHexIO_testCorruptLine:0000000000000000 _ZTS25TestHexIO_testCorruptLine
     /tmp/cc5VSaMN.s:10466  .rodata._ZTS25TestHexIO_testBadChecksum:0000000000000000 _ZTS25TestHexIO_testBadChecksum
     /tmp/cc5VSaMN.s:10482  .rodata._ZTS26TestHexIO_testJunkChecksum:0000000000000000 _ZTS26TestHexIO_testJunkChecksum
     /tmp/cc5VSaMN.s:10498  .rodata._ZTS26TestHexIO_testJunkDataByte:0000000000000000 _ZTS26TestHexIO_testJunkDataByte
     /tmp/cc5VSaMN.s:10514  .rodata._ZTS25TestHexIO_testJunkRecType:0000000000000000 _ZTS25TestHexIO_testJunkRecType
     /tmp/cc5VSaMN.s:10530  .rodata._ZTS25TestHexIO_testJunkAddrLsb:0000000000000000 _ZTS25TestHexIO_testJunkAddrLsb
     /tmp/cc5VSaMN.s:10546  .rodata._ZTS25TestHexIO_testJunkAddrMsb:0000000000000000 _ZTS25TestHexIO_testJunkAddrMsb
     /tmp/cc5VSaMN.s:10562  .rodata._ZTS27TestHexIO_testJunkByteCount:0000000000000000 _ZTS27TestHexIO_testJunkByteCount
     /tmp/cc5VSaMN.s:10578  .rodata._ZTS27TestHexIO_testJunkStartCode:0000000000000000 _ZTS27TestHexIO_testJunkStartCode
     /tmp/cc5VSaMN.s:10594  .rodata._ZTS22TestHexIO_testValidEOF:0000000000000000 _ZTS22TestHexIO_testValidEOF
     /tmp/cc5VSaMN.s:10610  .rodata._ZTS27TestHexIO_testValidDataLine:0000000000000000 _ZTS27TestHexIO_testValidDataLine
     /tmp/cc5VSaMN.s:10626  .rodata._ZTSN8UnitTest15MemoryOutStreamE:0000000000000000 _ZTSN8UnitTest15MemoryOutStreamE
     /tmp/cc5VSaMN.s:10630  .text:000000000000340f _Z41__static_initialization_and_destruction_0ii
     /tmp/cc5VSaMN.s:10906  .text:0000000000003899 _GLOBAL__sub_I_testHexIO_testValidDataLineInstance
                           .group:0000000000000000 _ZN27TestHexIO_testValidDataLineC5Ev
                           .group:0000000000000000 _ZN22TestHexIO_testValidEOFC5Ev
                           .group:0000000000000000 _ZN27TestHexIO_testJunkStartCodeC5Ev
                           .group:0000000000000000 _ZN27TestHexIO_testJunkByteCountC5Ev
                           .group:0000000000000000 _ZN25TestHexIO_testJunkAddrMsbC5Ev
                           .group:0000000000000000 _ZN25TestHexIO_testJunkAddrLsbC5Ev
                           .group:0000000000000000 _ZN25TestHexIO_testJunkRecTypeC5Ev
                           .group:0000000000000000 _ZN26TestHexIO_testJunkDataByteC5Ev
                           .group:0000000000000000 _ZN26TestHexIO_testJunkChecksumC5Ev
                           .group:0000000000000000 _ZN25TestHexIO_testBadChecksumC5Ev
                           .group:0000000000000000 _ZN25TestHexIO_testCorruptLineC5Ev
                           .group:0000000000000000 _ZN23TestHexIO_testRoundTripC5Ev
                           .group:0000000000000000 _ZN28TestHexIO_testDeriveWriteMapC5Ev
                           .group:0000000000000000 _ZN28TestHexIO_testDeriveWriteMapD5Ev
                           .group:0000000000000000 _ZN23TestHexIO_testRoundTripD5Ev
                           .group:0000000000000000 _ZN25TestHexIO_testCorruptLineD5Ev
                           .group:0000000000000000 _ZN25TestHexIO_testBadChecksumD5Ev
                           .group:0000000000000000 _ZN26TestHexIO_testJunkChecksumD5Ev
                           .group:0000000000000000 _ZN26TestHexIO_testJunkDataByteD5Ev
                           .group:0000000000000000 _ZN25TestHexIO_testJunkRecTypeD5Ev
                           .group:0000000000000000 _ZN25TestHexIO_testJunkAddrLsbD5Ev
                           .group:0000000000000000 _ZN25TestHexIO_testJunkAddrMsbD5Ev
                           .group:0000000000000000 _ZN27TestHexIO_testJunkByteCountD5Ev
                           .group:0000000000000000 _ZN27TestHexIO_testJunkStartCodeD5Ev
                           .group:0000000000000000 _ZN22TestHexIO_testValidEOFD5Ev
                           .group:0000000000000000 _ZN27TestHexIO_testValidDataLineD5Ev

UNDEFINED SYMBOLS
_ZNSt9basic_iosIcSt11char_traitsIcEEC2Ev
_ZNSt7__cxx1119basic_ostringstreamIcSt11char_traitsIcESaIcEEC2Ev
_ZNSt7__cxx1112basic_stringIcSt11char_traitsIcESaIcEEC1Ev
_ZNSt7__cxx1119basic_ostringstreamIcSt11char_traitsIcESaIcEED2Ev
_ZNSt9basic_iosIcSt11char_traitsIcEED2Ev
_Unwind_Resume
__gxx_personality_v0
_ZN8UnitTest4TestC2EPKcS2_S2_i
bufInitialise
_ZN8UnitTest11CurrentTest7DetailsEv
_ZN8UnitTest11TestDetailsC1ERKS0_i
_ZN8UnitTest11CurrentTest7ResultsEv
bufProcessLine
bufDestroy
__cxa_begin_catch
_ZN8UnitTest11TestResults13OnTestFailureERKNS_11TestDetailsEPKc
__cxa_end_catch
__stack_chk_fail
_ZNSt7__cxx1112basic_stringIcSt11char_traitsIcESaIcEEpLEPKc
_ZNSt7__cxx1112basic_stringIcSt11char_traitsIcESaIcEEpLEc
bufWriteToIntelHexFile
_ZNSt14basic_ifstreamIcSt11char_traitsIcEEC1Ev
_ZNSt14basic_ifstreamIcSt11char_traitsIcEE4openEPKcSt13_Ios_Openmode
_ZNSt14basic_ifstreamIcSt11char_traitsIcEE7is_openEv
_ZNSi5tellgEv
_ZNKSt7__cxx1112basic_stringIcSt11char_traitsIcESaIcEE4sizeEv
_Znam
_ZNSi5seekgElSt12_Ios_Seekdir
_ZNSi4readEPcl
_ZNSt14basic_ifstreamIcSt11char_traitsIcEE5closeEv
_ZNKSt7__cxx1112basic_stringIcSt11char_traitsIcESaIcEE5c_strEv
bufReadFromIntelHexFile
_ZNSt14basic_ifstreamIcSt11char_traitsIcEED1Ev
_ZNSt7__cxx1112basic_stringIcSt11char_traitsIcESaIcEED1Ev
strlen
bufWriteBlock
bufDeriveMask
_ZdlPv
_ZStlsISt11char_traitsIcEERSt13basic_ostreamIcT_ES5_PKc
_ZNSolsEi
_ZNK8UnitTest15MemoryOutStream7GetTextEv
_ZStlsISt11char_traitsIcEERSt13basic_ostreamIcT_ES5_h
_ZNSolsEm
_ZNSolsEj
_ZStlsISt11char_traitsIcEERSt13basic_ostreamIcT_ES5_c
_ZN8UnitTest4TestD2Ev
_ZTINSt7__cxx1119basic_ostringstreamIcSt11char_traitsIcESaIcEEE
_ZTISo
_ZTVN10__cxxabiv120__si_class_type_infoE
_ZTIN8UnitTest4TestE
__dso_handle
__cxa_atexit
_ZN8UnitTest4Test11GetTestListEv
_ZN8UnitTest9ListAdderC1ERNS_8TestListEPNS_4TestE
