   1              		.file	"testBinIO.cpp"
   2              		.text
   3              	.Ltext0:
   4              		.file 0 "/home/pong/FPGALink/makestuff/libs/libbuffer/tests" "testBinIO.cpp"
   5              		.section	.text._ZStorSt13_Ios_OpenmodeS_,"axG",@progbits,_ZStorSt13_Ios_OpenmodeS_,comdat
   6              		.weak	_ZStorSt13_Ios_OpenmodeS_
   8              	_ZStorSt13_Ios_OpenmodeS_:
   9              	.LFB707:
  10              		.file 1 "/usr/include/c++/11/bits/ios_base.h"
   1:/usr/include/c++/11/bits/ios_base.h **** // Iostreams base classes -*- C++ -*-
   2:/usr/include/c++/11/bits/ios_base.h **** 
   3:/usr/include/c++/11/bits/ios_base.h **** // Copyright (C) 1997-2021 Free Software Foundation, Inc.
   4:/usr/include/c++/11/bits/ios_base.h **** //
   5:/usr/include/c++/11/bits/ios_base.h **** // This file is part of the GNU ISO C++ Library.  This library is free
   6:/usr/include/c++/11/bits/ios_base.h **** // software; you can redistribute it and/or modify it under the
   7:/usr/include/c++/11/bits/ios_base.h **** // terms of the GNU General Public License as published by the
   8:/usr/include/c++/11/bits/ios_base.h **** // Free Software Foundation; either version 3, or (at your option)
   9:/usr/include/c++/11/bits/ios_base.h **** // any later version.
  10:/usr/include/c++/11/bits/ios_base.h **** 
  11:/usr/include/c++/11/bits/ios_base.h **** // This library is distributed in the hope that it will be useful,
  12:/usr/include/c++/11/bits/ios_base.h **** // but WITHOUT ANY WARRANTY; without even the implied warranty of
  13:/usr/include/c++/11/bits/ios_base.h **** // MERCHANTABILITY or FITNESS FOR A PARTICULAR PURPOSE.  See the
  14:/usr/include/c++/11/bits/ios_base.h **** // GNU General Public License for more details.
  15:/usr/include/c++/11/bits/ios_base.h **** 
  16:/usr/include/c++/11/bits/ios_base.h **** // Under Section 7 of GPL version 3, you are granted additional
  17:/usr/include/c++/11/bits/ios_base.h **** // permissions described in the GCC Runtime Library Exception, version
  18:/usr/include/c++/11/bits/ios_base.h **** // 3.1, as published by the Free Software Foundation.
  19:/usr/include/c++/11/bits/ios_base.h **** 
  20:/usr/include/c++/11/bits/ios_base.h **** // You should have received a copy of the GNU General Public License and
  21:/usr/include/c++/11/bits/ios_base.h **** // a copy of the GCC Runtime Library Exception along with this program;
  22:/usr/include/c++/11/bits/ios_base.h **** // see the files COPYING3 and COPYING.RUNTIME respectively.  If not, see
  23:/usr/include/c++/11/bits/ios_base.h **** // <http://www.gnu.org/licenses/>.
  24:/usr/include/c++/11/bits/ios_base.h **** 
  25:/usr/include/c++/11/bits/ios_base.h **** /** @file bits/ios_base.h
  26:/usr/include/c++/11/bits/ios_base.h ****  *  This is an internal header file, included by other library headers.
  27:/usr/include/c++/11/bits/ios_base.h ****  *  Do not attempt to use it directly. @headername{ios}
  28:/usr/include/c++/11/bits/ios_base.h ****  */
  29:/usr/include/c++/11/bits/ios_base.h **** 
  30:/usr/include/c++/11/bits/ios_base.h **** //
  31:/usr/include/c++/11/bits/ios_base.h **** // ISO C++ 14882: 27.4  Iostreams base classes
  32:/usr/include/c++/11/bits/ios_base.h **** //
  33:/usr/include/c++/11/bits/ios_base.h **** 
  34:/usr/include/c++/11/bits/ios_base.h **** #ifndef _IOS_BASE_H
  35:/usr/include/c++/11/bits/ios_base.h **** #define _IOS_BASE_H 1
  36:/usr/include/c++/11/bits/ios_base.h **** 
  37:/usr/include/c++/11/bits/ios_base.h **** #pragma GCC system_header
  38:/usr/include/c++/11/bits/ios_base.h **** 
  39:/usr/include/c++/11/bits/ios_base.h **** #include <ext/atomicity.h>
  40:/usr/include/c++/11/bits/ios_base.h **** #include <bits/localefwd.h>
  41:/usr/include/c++/11/bits/ios_base.h **** #include <bits/locale_classes.h>
  42:/usr/include/c++/11/bits/ios_base.h **** 
  43:/usr/include/c++/11/bits/ios_base.h **** #if __cplusplus < 201103L
  44:/usr/include/c++/11/bits/ios_base.h **** # include <stdexcept>
  45:/usr/include/c++/11/bits/ios_base.h **** #else
  46:/usr/include/c++/11/bits/ios_base.h **** # include <system_error>
  47:/usr/include/c++/11/bits/ios_base.h **** #endif
  48:/usr/include/c++/11/bits/ios_base.h **** 
  49:/usr/include/c++/11/bits/ios_base.h **** namespace std _GLIBCXX_VISIBILITY(default)
  50:/usr/include/c++/11/bits/ios_base.h **** {
  51:/usr/include/c++/11/bits/ios_base.h **** _GLIBCXX_BEGIN_NAMESPACE_VERSION
  52:/usr/include/c++/11/bits/ios_base.h **** 
  53:/usr/include/c++/11/bits/ios_base.h ****   // The following definitions of bitmask types are enums, not ints,
  54:/usr/include/c++/11/bits/ios_base.h ****   // as permitted (but not required) in the standard, in order to provide
  55:/usr/include/c++/11/bits/ios_base.h ****   // better type safety in iostream calls.  A side effect is that in C++98
  56:/usr/include/c++/11/bits/ios_base.h ****   // expressions involving them are not compile-time constants.
  57:/usr/include/c++/11/bits/ios_base.h ****   enum _Ios_Fmtflags 
  58:/usr/include/c++/11/bits/ios_base.h ****     { 
  59:/usr/include/c++/11/bits/ios_base.h ****       _S_boolalpha 	= 1L << 0,
  60:/usr/include/c++/11/bits/ios_base.h ****       _S_dec 		= 1L << 1,
  61:/usr/include/c++/11/bits/ios_base.h ****       _S_fixed 		= 1L << 2,
  62:/usr/include/c++/11/bits/ios_base.h ****       _S_hex 		= 1L << 3,
  63:/usr/include/c++/11/bits/ios_base.h ****       _S_internal 	= 1L << 4,
  64:/usr/include/c++/11/bits/ios_base.h ****       _S_left 		= 1L << 5,
  65:/usr/include/c++/11/bits/ios_base.h ****       _S_oct 		= 1L << 6,
  66:/usr/include/c++/11/bits/ios_base.h ****       _S_right 		= 1L << 7,
  67:/usr/include/c++/11/bits/ios_base.h ****       _S_scientific 	= 1L << 8,
  68:/usr/include/c++/11/bits/ios_base.h ****       _S_showbase 	= 1L << 9,
  69:/usr/include/c++/11/bits/ios_base.h ****       _S_showpoint 	= 1L << 10,
  70:/usr/include/c++/11/bits/ios_base.h ****       _S_showpos 	= 1L << 11,
  71:/usr/include/c++/11/bits/ios_base.h ****       _S_skipws 	= 1L << 12,
  72:/usr/include/c++/11/bits/ios_base.h ****       _S_unitbuf 	= 1L << 13,
  73:/usr/include/c++/11/bits/ios_base.h ****       _S_uppercase 	= 1L << 14,
  74:/usr/include/c++/11/bits/ios_base.h ****       _S_adjustfield 	= _S_left | _S_right | _S_internal,
  75:/usr/include/c++/11/bits/ios_base.h ****       _S_basefield 	= _S_dec | _S_oct | _S_hex,
  76:/usr/include/c++/11/bits/ios_base.h ****       _S_floatfield 	= _S_scientific | _S_fixed,
  77:/usr/include/c++/11/bits/ios_base.h ****       _S_ios_fmtflags_end = 1L << 16,
  78:/usr/include/c++/11/bits/ios_base.h ****       _S_ios_fmtflags_max = __INT_MAX__,
  79:/usr/include/c++/11/bits/ios_base.h ****       _S_ios_fmtflags_min = ~__INT_MAX__
  80:/usr/include/c++/11/bits/ios_base.h ****     };
  81:/usr/include/c++/11/bits/ios_base.h **** 
  82:/usr/include/c++/11/bits/ios_base.h ****   inline _GLIBCXX_CONSTEXPR _Ios_Fmtflags
  83:/usr/include/c++/11/bits/ios_base.h ****   operator&(_Ios_Fmtflags __a, _Ios_Fmtflags __b)
  84:/usr/include/c++/11/bits/ios_base.h ****   { return _Ios_Fmtflags(static_cast<int>(__a) & static_cast<int>(__b)); }
  85:/usr/include/c++/11/bits/ios_base.h **** 
  86:/usr/include/c++/11/bits/ios_base.h ****   inline _GLIBCXX_CONSTEXPR _Ios_Fmtflags
  87:/usr/include/c++/11/bits/ios_base.h ****   operator|(_Ios_Fmtflags __a, _Ios_Fmtflags __b)
  88:/usr/include/c++/11/bits/ios_base.h ****   { return _Ios_Fmtflags(static_cast<int>(__a) | static_cast<int>(__b)); }
  89:/usr/include/c++/11/bits/ios_base.h **** 
  90:/usr/include/c++/11/bits/ios_base.h ****   inline _GLIBCXX_CONSTEXPR _Ios_Fmtflags
  91:/usr/include/c++/11/bits/ios_base.h ****   operator^(_Ios_Fmtflags __a, _Ios_Fmtflags __b)
  92:/usr/include/c++/11/bits/ios_base.h ****   { return _Ios_Fmtflags(static_cast<int>(__a) ^ static_cast<int>(__b)); }
  93:/usr/include/c++/11/bits/ios_base.h **** 
  94:/usr/include/c++/11/bits/ios_base.h ****   inline _GLIBCXX_CONSTEXPR _Ios_Fmtflags
  95:/usr/include/c++/11/bits/ios_base.h ****   operator~(_Ios_Fmtflags __a)
  96:/usr/include/c++/11/bits/ios_base.h ****   { return _Ios_Fmtflags(~static_cast<int>(__a)); }
  97:/usr/include/c++/11/bits/ios_base.h **** 
  98:/usr/include/c++/11/bits/ios_base.h ****   inline const _Ios_Fmtflags&
  99:/usr/include/c++/11/bits/ios_base.h ****   operator|=(_Ios_Fmtflags& __a, _Ios_Fmtflags __b)
 100:/usr/include/c++/11/bits/ios_base.h ****   { return __a = __a | __b; }
 101:/usr/include/c++/11/bits/ios_base.h **** 
 102:/usr/include/c++/11/bits/ios_base.h ****   inline const _Ios_Fmtflags&
 103:/usr/include/c++/11/bits/ios_base.h ****   operator&=(_Ios_Fmtflags& __a, _Ios_Fmtflags __b)
 104:/usr/include/c++/11/bits/ios_base.h ****   { return __a = __a & __b; }
 105:/usr/include/c++/11/bits/ios_base.h **** 
 106:/usr/include/c++/11/bits/ios_base.h ****   inline const _Ios_Fmtflags&
 107:/usr/include/c++/11/bits/ios_base.h ****   operator^=(_Ios_Fmtflags& __a, _Ios_Fmtflags __b)
 108:/usr/include/c++/11/bits/ios_base.h ****   { return __a = __a ^ __b; }
 109:/usr/include/c++/11/bits/ios_base.h **** 
 110:/usr/include/c++/11/bits/ios_base.h **** 
 111:/usr/include/c++/11/bits/ios_base.h ****   enum _Ios_Openmode 
 112:/usr/include/c++/11/bits/ios_base.h ****     { 
 113:/usr/include/c++/11/bits/ios_base.h ****       _S_app 		= 1L << 0,
 114:/usr/include/c++/11/bits/ios_base.h ****       _S_ate 		= 1L << 1,
 115:/usr/include/c++/11/bits/ios_base.h ****       _S_bin 		= 1L << 2,
 116:/usr/include/c++/11/bits/ios_base.h ****       _S_in 		= 1L << 3,
 117:/usr/include/c++/11/bits/ios_base.h ****       _S_out 		= 1L << 4,
 118:/usr/include/c++/11/bits/ios_base.h ****       _S_trunc 		= 1L << 5,
 119:/usr/include/c++/11/bits/ios_base.h ****       _S_ios_openmode_end = 1L << 16,
 120:/usr/include/c++/11/bits/ios_base.h ****       _S_ios_openmode_max = __INT_MAX__,
 121:/usr/include/c++/11/bits/ios_base.h ****       _S_ios_openmode_min = ~__INT_MAX__
 122:/usr/include/c++/11/bits/ios_base.h ****     };
 123:/usr/include/c++/11/bits/ios_base.h **** 
 124:/usr/include/c++/11/bits/ios_base.h ****   inline _GLIBCXX_CONSTEXPR _Ios_Openmode
 125:/usr/include/c++/11/bits/ios_base.h ****   operator&(_Ios_Openmode __a, _Ios_Openmode __b)
 126:/usr/include/c++/11/bits/ios_base.h ****   { return _Ios_Openmode(static_cast<int>(__a) & static_cast<int>(__b)); }
 127:/usr/include/c++/11/bits/ios_base.h **** 
 128:/usr/include/c++/11/bits/ios_base.h ****   inline _GLIBCXX_CONSTEXPR _Ios_Openmode
 129:/usr/include/c++/11/bits/ios_base.h ****   operator|(_Ios_Openmode __a, _Ios_Openmode __b)
 130:/usr/include/c++/11/bits/ios_base.h ****   { return _Ios_Openmode(static_cast<int>(__a) | static_cast<int>(__b)); }
  11              		.loc 1 130 3
  12              		.cfi_startproc
  13 0000 F30F1EFA 		endbr64
  14 0004 55       		pushq	%rbp
  15              		.cfi_def_cfa_offset 16
  16              		.cfi_offset 6, -16
  17 0005 4889E5   		movq	%rsp, %rbp
  18              		.cfi_def_cfa_register 6
  19 0008 897DFC   		movl	%edi, -4(%rbp)
  20 000b 8975F8   		movl	%esi, -8(%rbp)
  21              		.loc 1 130 71
  22 000e 8B45FC   		movl	-4(%rbp), %eax
  23 0011 0B45F8   		orl	-8(%rbp), %eax
  24              		.loc 1 130 74
  25 0014 5D       		popq	%rbp
  26              		.cfi_def_cfa 7, 8
  27 0015 C3       		ret
  28              		.cfi_endproc
  29              	.LFE707:
  31              		.section	.rodata
  32              	.LC0:
  33 0000 44656661 		.string	"DefaultSuite"
  33      756C7453 
  33      75697465 
  33      00
  34              		.section	.text._ZN13UnitTestSuite12GetSuiteNameEv,"axG",@progbits,_ZN13UnitTestSuite12GetSuiteName
  35              		.weak	_ZN13UnitTestSuite12GetSuiteNameEv
  37              	_ZN13UnitTestSuite12GetSuiteNameEv:
  38              	.LFB1152:
  39              		.file 2 "/home/pong/FPGALink/makestuff/libs/libutpp/TestSuite.h"
   1:/home/pong/FPGALink/makestuff/libs/libutpp/TestSuite.h **** #ifndef UNITTEST_TESTSUITE_H
   2:/home/pong/FPGALink/makestuff/libs/libutpp/TestSuite.h **** #define UNITTEST_TESTSUITE_H
   3:/home/pong/FPGALink/makestuff/libs/libutpp/TestSuite.h **** 
   4:/home/pong/FPGALink/makestuff/libs/libutpp/TestSuite.h **** namespace UnitTestSuite {
   5:/home/pong/FPGALink/makestuff/libs/libutpp/TestSuite.h **** 
   6:/home/pong/FPGALink/makestuff/libs/libutpp/TestSuite.h ****     inline char const* GetSuiteName ()
   7:/home/pong/FPGALink/makestuff/libs/libutpp/TestSuite.h ****     {
  40              		.loc 2 7 5
  41              		.cfi_startproc
  42 0000 F30F1EFA 		endbr64
  43 0004 55       		pushq	%rbp
  44              		.cfi_def_cfa_offset 16
  45              		.cfi_offset 6, -16
  46 0005 4889E5   		movq	%rsp, %rbp
  47              		.cfi_def_cfa_register 6
   8:/home/pong/FPGALink/makestuff/libs/libutpp/TestSuite.h ****         return "DefaultSuite";
  48              		.loc 2 8 16
  49 0008 488D0500 		leaq	.LC0(%rip), %rax
  49      000000
   9:/home/pong/FPGALink/makestuff/libs/libutpp/TestSuite.h ****     }
  50              		.loc 2 9 5
  51 000f 5D       		popq	%rbp
  52              		.cfi_def_cfa 7, 8
  53 0010 C3       		ret
  54              		.cfi_endproc
  55              	.LFE1152:
  57              		.section	.text._ZN8UnitTest15MemoryOutStreamC1Ev,"axG",@progbits,_ZN8UnitTest15MemoryOutStreamC1Ev
  58              		.align 2
  59              		.weak	_ZN8UnitTest15MemoryOutStreamC1Ev
  61              	_ZN8UnitTest15MemoryOutStreamC1Ev:
  62              	.LFB1193:
  63              		.file 3 "/home/pong/FPGALink/makestuff/libs/libutpp/MemoryOutStream.h"
   1:/home/pong/FPGALink/makestuff/libs/libutpp/MemoryOutStream.h **** #ifndef UNITTEST_MEMORYOUTSTREAM_H
   2:/home/pong/FPGALink/makestuff/libs/libutpp/MemoryOutStream.h **** #define UNITTEST_MEMORYOUTSTREAM_H
   3:/home/pong/FPGALink/makestuff/libs/libutpp/MemoryOutStream.h **** 
   4:/home/pong/FPGALink/makestuff/libs/libutpp/MemoryOutStream.h **** #include "Config.h"
   5:/home/pong/FPGALink/makestuff/libs/libutpp/MemoryOutStream.h **** 
   6:/home/pong/FPGALink/makestuff/libs/libutpp/MemoryOutStream.h **** #ifndef UNITTEST_USE_CUSTOM_STREAMS
   7:/home/pong/FPGALink/makestuff/libs/libutpp/MemoryOutStream.h **** 
   8:/home/pong/FPGALink/makestuff/libs/libutpp/MemoryOutStream.h **** #include <sstream>
   9:/home/pong/FPGALink/makestuff/libs/libutpp/MemoryOutStream.h **** 
  10:/home/pong/FPGALink/makestuff/libs/libutpp/MemoryOutStream.h **** namespace UnitTest
  11:/home/pong/FPGALink/makestuff/libs/libutpp/MemoryOutStream.h **** {
  12:/home/pong/FPGALink/makestuff/libs/libutpp/MemoryOutStream.h **** 
  13:/home/pong/FPGALink/makestuff/libs/libutpp/MemoryOutStream.h **** class MemoryOutStream : public std::ostringstream
  14:/home/pong/FPGALink/makestuff/libs/libutpp/MemoryOutStream.h **** {
  15:/home/pong/FPGALink/makestuff/libs/libutpp/MemoryOutStream.h **** public:
  16:/home/pong/FPGALink/makestuff/libs/libutpp/MemoryOutStream.h ****     MemoryOutStream() {}
  64              		.loc 3 16 5
  65              		.cfi_startproc
  66              		.cfi_personality 0x9b,DW.ref.__gxx_personality_v0
  67              		.cfi_lsda 0x1b,.LLSDA1193
  68 0000 F30F1EFA 		endbr64
  69 0004 55       		pushq	%rbp
  70              		.cfi_def_cfa_offset 16
  71              		.cfi_offset 6, -16
  72 0005 4889E5   		movq	%rsp, %rbp
  73              		.cfi_def_cfa_register 6
  74 0008 53       		pushq	%rbx
  75 0009 4883EC18 		subq	$24, %rsp
  76              		.cfi_offset 3, -24
  77 000d 48897DE8 		movq	%rdi, -24(%rbp)
  78              	.LBB2:
  79              		.loc 3 16 23
  80 0011 488B45E8 		movq	-24(%rbp), %rax
  81 0015 48059000 		addq	$144, %rax
  81      0000
  82 001b 4889C7   		movq	%rax, %rdi
  83              	.LEHB0:
  84 001e E8000000 		call	_ZNSt9basic_iosIcSt11char_traitsIcEEC2Ev@PLT
  84      00
  85              	.LEHE0:
  86 0023 488B45E8 		movq	-24(%rbp), %rax
  87 0027 488D1500 		leaq	8+_ZTTN8UnitTest15MemoryOutStreamE(%rip), %rdx
  87      000000
  88 002e 4889D6   		movq	%rdx, %rsi
  89 0031 4889C7   		movq	%rax, %rdi
  90              	.LEHB1:
  91 0034 E8000000 		call	_ZNSt7__cxx1119basic_ostringstreamIcSt11char_traitsIcESaIcEEC2Ev@PLT
  91      00
  92              	.LEHE1:
  93              		.loc 3 16 23 is_stmt 0 discriminator 2
  94 0039 488D1500 		leaq	24+_ZTVN8UnitTest15MemoryOutStreamE(%rip), %rdx
  94      000000
  95 0040 488B45E8 		movq	-24(%rbp), %rax
  96 0044 488910   		movq	%rdx, (%rax)
  97 0047 488B45E8 		movq	-24(%rbp), %rax
  98 004b 48059000 		addq	$144, %rax
  98      0000
  99 0051 488D1500 		leaq	64+_ZTVN8UnitTest15MemoryOutStreamE(%rip), %rdx
  99      000000
 100 0058 488910   		movq	%rdx, (%rax)
 101 005b 488B45E8 		movq	-24(%rbp), %rax
 102 005f 4883C070 		addq	$112, %rax
 103 0063 4889C7   		movq	%rax, %rdi
 104              	.LEHB2:
 105 0066 E8000000 		call	_ZNSt7__cxx1112basic_stringIcSt11char_traitsIcESaIcEEC1Ev@PLT
 105      00
 106              	.LEHE2:
 107              	.LBE2:
 108              		.loc 3 16 24 is_stmt 1
 109 006b EB43     		jmp	.L10
 110              	.L9:
 111 006d F30F1EFA 		endbr64
 112              	.LBB3:
 113 0071 4889C3   		movq	%rax, %rbx
 114 0074 488B45E8 		movq	-24(%rbp), %rax
 115 0078 488D1500 		leaq	8+_ZTTN8UnitTest15MemoryOutStreamE(%rip), %rdx
 115      000000
 116 007f 4889D6   		movq	%rdx, %rsi
 117 0082 4889C7   		movq	%rax, %rdi
 118 0085 E8000000 		call	_ZNSt7__cxx1119basic_ostringstreamIcSt11char_traitsIcESaIcEED2Ev@PLT
 118      00
 119 008a EB07     		jmp	.L7
 120              	.L8:
 121 008c F30F1EFA 		endbr64
 122 0090 4889C3   		movq	%rax, %rbx
 123              	.L7:
 124              		.loc 3 16 24 is_stmt 0 discriminator 1
 125 0093 488B45E8 		movq	-24(%rbp), %rax
 126 0097 48059000 		addq	$144, %rax
 126      0000
 127 009d 4889C7   		movq	%rax, %rdi
 128 00a0 E8000000 		call	_ZNSt9basic_iosIcSt11char_traitsIcEED2Ev@PLT
 128      00
 129 00a5 4889D8   		movq	%rbx, %rax
 130 00a8 4889C7   		movq	%rax, %rdi
 131              	.LEHB3:
 132 00ab E8000000 		call	_Unwind_Resume@PLT
 132      00
 133              	.LEHE3:
 134              	.L10:
 135              	.LBE3:
 136              		.loc 3 16 24
 137 00b0 488B5DF8 		movq	-8(%rbp), %rbx
 138 00b4 C9       		leave
 139              		.cfi_def_cfa 7, 8
 140 00b5 C3       		ret
 141              		.cfi_endproc
 142              	.LFE1193:
 143              		.globl	__gxx_personality_v0
 144              		.section	.gcc_except_table._ZN8UnitTest15MemoryOutStreamC1Ev,"aG",@progbits,_ZN8UnitTest15MemoryOu
 145              	.LLSDA1193:
 146 0000 FF       		.byte	0xff
 147 0001 FF       		.byte	0xff
 148 0002 01       		.byte	0x1
 149 0003 12       		.uleb128 .LLSDACSE1193-.LLSDACSB1193
 150              	.LLSDACSB1193:
 151 0004 1E       		.uleb128 .LEHB0-.LFB1193
 152 0005 05       		.uleb128 .LEHE0-.LEHB0
 153 0006 00       		.uleb128 0
 154 0007 00       		.uleb128 0
 155 0008 34       		.uleb128 .LEHB1-.LFB1193
 156 0009 05       		.uleb128 .LEHE1-.LEHB1
 157 000a 8C01     		.uleb128 .L8-.LFB1193
 158 000c 00       		.uleb128 0
 159 000d 66       		.uleb128 .LEHB2-.LFB1193
 160 000e 05       		.uleb128 .LEHE2-.LEHB2
 161 000f 6D       		.uleb128 .L9-.LFB1193
 162 0010 00       		.uleb128 0
 163 0011 AB01     		.uleb128 .LEHB3-.LFB1193
 164 0013 05       		.uleb128 .LEHE3-.LEHB3
 165 0014 00       		.uleb128 0
 166 0015 00       		.uleb128 0
 167              	.LLSDACSE1193:
 168              		.section	.text._ZN8UnitTest15MemoryOutStreamC1Ev,"axG",@progbits,_ZN8UnitTest15MemoryOutStreamC1Ev
 170              		.section	.rodata
 171              	.LC1:
 172 000d 74657374 		.string	"testBinIO.cpp"
 172      42696E49 
 172      4F2E6370 
 172      7000
 173              	.LC2:
 174 001b 42696E49 		.string	"BinIO_testReadNonExistentFile"
 174      4F5F7465 
 174      73745265 
 174      61644E6F 
 174      6E457869 
 175              		.section	.text._ZN33TestBinIO_testReadNonExistentFileC2Ev,"axG",@progbits,_ZN33TestBinIO_testReadN
 176              		.align 2
 177              		.weak	_ZN33TestBinIO_testReadNonExistentFileC2Ev
 179              	_ZN33TestBinIO_testReadNonExistentFileC2Ev:
 180              	.LFB1210:
 181              		.file 4 "testBinIO.cpp"
   1:testBinIO.cpp **** /*
   2:testBinIO.cpp ****  * Copyright (C) 2009-2012 Chris McClelland
   3:testBinIO.cpp ****  *
   4:testBinIO.cpp ****  * This program is free software: you can redistribute it and/or modify
   5:testBinIO.cpp ****  * it under the terms of the GNU Lesser General Public License as published by
   6:testBinIO.cpp ****  * the Free Software Foundation, either version 3 of the License, or
   7:testBinIO.cpp ****  * (at your option) any later version.
   8:testBinIO.cpp ****  *
   9:testBinIO.cpp ****  * This program is distributed in the hope that it will be useful,
  10:testBinIO.cpp ****  * but WITHOUT ANY WARRANTY; without even the implied warranty of
  11:testBinIO.cpp ****  * MERCHANTABILITY or FITNESS FOR A PARTICULAR PURPOSE.  See the
  12:testBinIO.cpp ****  * GNU Lesser General Public License for more details.
  13:testBinIO.cpp ****  *
  14:testBinIO.cpp ****  * You should have received a copy of the GNU Lesser General Public License
  15:testBinIO.cpp ****  * along with this program.  If not, see <http://www.gnu.org/licenses/>.
  16:testBinIO.cpp ****  */
  17:testBinIO.cpp **** #include <string.h>
  18:testBinIO.cpp **** #include <fstream>
  19:testBinIO.cpp **** #include <UnitTest++.h>
  20:testBinIO.cpp **** #include "../libbuffer.h"
  21:testBinIO.cpp **** 
  22:testBinIO.cpp **** using namespace std;
  23:testBinIO.cpp **** 
  24:testBinIO.cpp **** TEST(BinIO_testReadNonExistentFile) {
 182              		.loc 4 24 1 is_stmt 1
 183              		.cfi_startproc
 184 0000 F30F1EFA 		endbr64
 185 0004 55       		pushq	%rbp
 186              		.cfi_def_cfa_offset 16
 187              		.cfi_offset 6, -16
 188 0005 4889E5   		movq	%rsp, %rbp
 189              		.cfi_def_cfa_register 6
 190 0008 53       		pushq	%rbx
 191 0009 4883EC18 		subq	$24, %rsp
 192              		.cfi_offset 3, -24
 193 000d 48897DE8 		movq	%rdi, -24(%rbp)
 194              	.LBB4:
 195              		.loc 4 24 1
 196 0011 488B5DE8 		movq	-24(%rbp), %rbx
 197 0015 E8000000 		call	_ZN13UnitTestSuite12GetSuiteNameEv
 197      00
 198 001a 4889C2   		movq	%rax, %rdx
 199 001d 41B81800 		movl	$24, %r8d
 199      0000
 200 0023 488D0500 		leaq	.LC1(%rip), %rax
 200      000000
 201 002a 4889C1   		movq	%rax, %rcx
 202 002d 488D0500 		leaq	.LC2(%rip), %rax
 202      000000
 203 0034 4889C6   		movq	%rax, %rsi
 204 0037 4889DF   		movq	%rbx, %rdi
 205 003a E8000000 		call	_ZN8UnitTest4TestC2EPKcS2_S2_i@PLT
 205      00
 206 003f 488D1500 		leaq	16+_ZTV33TestBinIO_testReadNonExistentFile(%rip), %rdx
 206      000000
 207 0046 488B45E8 		movq	-24(%rbp), %rax
 208 004a 488910   		movq	%rdx, (%rax)
 209              	.LBE4:
 210 004d 90       		nop
 211 004e 488B5DF8 		movq	-8(%rbp), %rbx
 212 0052 C9       		leave
 213              		.cfi_def_cfa 7, 8
 214 0053 C3       		ret
 215              		.cfi_endproc
 216              	.LFE1210:
 218              		.weak	_ZN33TestBinIO_testReadNonExistentFileC1Ev
 219              		.set	_ZN33TestBinIO_testReadNonExistentFileC1Ev,_ZN33TestBinIO_testReadNonExistentFileC2Ev
 220              		.globl	testBinIO_testReadNonExistentFileInstance
 221              		.bss
 222              		.align 32
 225              	testBinIO_testReadNonExistentFileInstance:
 226 0000 00000000 		.zero	56
 226      00000000 
 226      00000000 
 226      00000000 
 226      00000000 
 227              		.globl	adderBinIO_testReadNonExistentFile
 230              	adderBinIO_testReadNonExistentFile:
 231 0038 00       		.zero	1
 232              		.section	.rodata
 233              	.LC3:
 234 0039 6E6F6E45 		.string	"nonExistentFile.bin"
 234      78697374 
 234      656E7446 
 234      696C652E 
 234      62696E00 
 235 004d 000000   		.align 8
 236              	.LC4:
 237 0050 556E6861 		.string	"Unhandled exception in CHECK_EQUAL(BUF_SUCCESS, status)"
 237      6E646C65 
 237      64206578 
 237      63657074 
 237      696F6E20 
 238              		.align 8
 239              	.LC5:
 240 0088 556E6861 		.string	"Unhandled exception in CHECK_EQUAL(BUF_FOPEN, status)"
 240      6E646C65 
 240      64206578 
 240      63657074 
 240      696F6E20 
 241              		.text
 242              		.align 2
 243              		.globl	_ZNK33TestBinIO_testReadNonExistentFile7RunImplEv
 245              	_ZNK33TestBinIO_testReadNonExistentFile7RunImplEv:
 246              	.LFB1212:
 247              		.loc 4 24 37
 248              		.cfi_startproc
 249              		.cfi_personality 0x9b,DW.ref.__gxx_personality_v0
 250              		.cfi_lsda 0x1b,.LLSDA1212
 251 0000 F30F1EFA 		endbr64
 252 0004 55       		pushq	%rbp
 253              		.cfi_def_cfa_offset 16
 254              		.cfi_offset 6, -16
 255 0005 4889E5   		movq	%rsp, %rbp
 256              		.cfi_def_cfa_register 6
 257 0008 53       		pushq	%rbx
 258 0009 4883EC78 		subq	$120, %rsp
 259              		.cfi_offset 3, -24
 260 000d 48897D88 		movq	%rdi, -120(%rbp)
 261              		.loc 4 24 37
 262 0011 64488B04 		movq	%fs:40, %rax
 262      25280000 
 262      00
 263 001a 488945E8 		movq	%rax, -24(%rbp)
 264 001e 31C0     		xorl	%eax, %eax
  25:testBinIO.cpp **** 	Buffer buf;
  26:testBinIO.cpp **** 	BufferStatus status = bufInitialise(&buf, 8, 0, NULL);
 265              		.loc 4 26 37
 266 0020 488D45A0 		leaq	-96(%rbp), %rax
 267 0024 B9000000 		movl	$0, %ecx
 267      00
 268 0029 BA000000 		movl	$0, %edx
 268      00
 269 002e BE080000 		movl	$8, %esi
 269      00
 270 0033 4889C7   		movq	%rax, %rdi
 271              	.LEHB4:
 272 0036 E8000000 		call	bufInitialise@PLT
 272      00
 273              	.LEHE4:
 274              		.loc 4 26 54
 275 003b 894598   		movl	%eax, -104(%rbp)
 276              	.LEHB5:
  27:testBinIO.cpp **** 	CHECK_EQUAL(BUF_SUCCESS, status);
 277              		.loc 4 27 2
 278 003e E8000000 		call	_ZN8UnitTest11CurrentTest7DetailsEv@PLT
 278      00
 279 0043 488B08   		movq	(%rax), %rcx
 280 0046 488D45C0 		leaq	-64(%rbp), %rax
 281 004a BA1B0000 		movl	$27, %edx
 281      00
 282 004f 4889CE   		movq	%rcx, %rsi
 283 0052 4889C7   		movq	%rax, %rdi
 284 0055 E8000000 		call	_ZN8UnitTest11TestDetailsC1ERKS0_i@PLT
 284      00
 285              		.loc 4 27 2 is_stmt 0 discriminator 4
 286 005a C7459C00 		movl	$0, -100(%rbp)
 286      000000
 287 0061 E8000000 		call	_ZN8UnitTest11CurrentTest7ResultsEv@PLT
 287      00
 288 0066 488B00   		movq	(%rax), %rax
 289 0069 488D4DC0 		leaq	-64(%rbp), %rcx
 290 006d 488D5598 		leaq	-104(%rbp), %rdx
 291 0071 488D759C 		leaq	-100(%rbp), %rsi
 292 0075 4889C7   		movq	%rax, %rdi
 293 0078 E8000000 		call	_ZN8UnitTest10CheckEqualI12BufferStatusS1_EEvRNS_11TestResultsERKT_RKT0_RKNS_11TestDetailsE
 293      00
 294              	.LEHE5:
 295              	.L14:
  28:testBinIO.cpp **** 	status = bufAppendFromBinaryFile(&buf, "nonExistentFile.bin", NULL);
 296              		.loc 4 28 34 is_stmt 1
 297 007d 488D45A0 		leaq	-96(%rbp), %rax
 298 0081 BA000000 		movl	$0, %edx
 298      00
 299 0086 488D0D00 		leaq	.LC3(%rip), %rcx
 299      000000
 300 008d 4889CE   		movq	%rcx, %rsi
 301 0090 4889C7   		movq	%rax, %rdi
 302              	.LEHB6:
 303 0093 E8000000 		call	bufAppendFromBinaryFile@PLT
 303      00
 304              	.LEHE6:
 305              		.loc 4 28 9
 306 0098 894598   		movl	%eax, -104(%rbp)
 307              	.LEHB7:
  29:testBinIO.cpp **** 	CHECK_EQUAL(BUF_FOPEN, status);
 308              		.loc 4 29 2
 309 009b E8000000 		call	_ZN8UnitTest11CurrentTest7DetailsEv@PLT
 309      00
 310 00a0 488B08   		movq	(%rax), %rcx
 311 00a3 488D45C0 		leaq	-64(%rbp), %rax
 312 00a7 BA1D0000 		movl	$29, %edx
 312      00
 313 00ac 4889CE   		movq	%rcx, %rsi
 314 00af 4889C7   		movq	%rax, %rdi
 315 00b2 E8000000 		call	_ZN8UnitTest11TestDetailsC1ERKS0_i@PLT
 315      00
 316              		.loc 4 29 2 is_stmt 0 discriminator 4
 317 00b7 C7459C02 		movl	$2, -100(%rbp)
 317      000000
 318 00be E8000000 		call	_ZN8UnitTest11CurrentTest7ResultsEv@PLT
 318      00
 319 00c3 488B00   		movq	(%rax), %rax
 320 00c6 488D4DC0 		leaq	-64(%rbp), %rcx
 321 00ca 488D5598 		leaq	-104(%rbp), %rdx
 322 00ce 488D759C 		leaq	-100(%rbp), %rsi
 323 00d2 4889C7   		movq	%rax, %rdi
 324 00d5 E8000000 		call	_ZN8UnitTest10CheckEqualI12BufferStatusS1_EEvRNS_11TestResultsERKT_RKT0_RKNS_11TestDetailsE
 324      00
 325              	.LEHE7:
 326              	.L17:
  30:testBinIO.cpp **** 	bufDestroy(&buf);
 327              		.loc 4 30 12 is_stmt 1
 328 00da 488D45A0 		leaq	-96(%rbp), %rax
 329 00de 4889C7   		movq	%rax, %rdi
 330              	.LEHB8:
 331 00e1 E8000000 		call	bufDestroy@PLT
 331      00
 332              	.LEHE8:
  31:testBinIO.cpp **** }
 333              		.loc 4 31 1
 334 00e6 90       		nop
 335 00e7 488B45E8 		movq	-24(%rbp), %rax
 336 00eb 64482B04 		subq	%fs:40, %rax
 336      25280000 
 336      00
 337 00f4 0F84D800 		je	.L19
 337      0000
 338 00fa E9CE0000 		jmp	.L24
 338      00
 339              	.L20:
 340 00ff F30F1EFA 		endbr64
  27:testBinIO.cpp **** 	status = bufAppendFromBinaryFile(&buf, "nonExistentFile.bin", NULL);
 341              		.loc 4 27 2
 342 0103 4889C7   		movq	%rax, %rdi
 343 0106 E8000000 		call	__cxa_begin_catch@PLT
 343      00
 344              	.LEHB9:
 345 010b E8000000 		call	_ZN8UnitTest11CurrentTest7ResultsEv@PLT
 345      00
  27:testBinIO.cpp **** 	status = bufAppendFromBinaryFile(&buf, "nonExistentFile.bin", NULL);
 346              		.loc 4 27 2 is_stmt 0 discriminator 3
 347 0110 488B18   		movq	(%rax), %rbx
 348 0113 E8000000 		call	_ZN8UnitTest11CurrentTest7DetailsEv@PLT
 348      00
  27:testBinIO.cpp **** 	status = bufAppendFromBinaryFile(&buf, "nonExistentFile.bin", NULL);
 349              		.loc 4 27 2 discriminator 11
 350 0118 488B08   		movq	(%rax), %rcx
 351 011b 488D45C0 		leaq	-64(%rbp), %rax
 352 011f BA1B0000 		movl	$27, %edx
 352      00
 353 0124 4889CE   		movq	%rcx, %rsi
 354 0127 4889C7   		movq	%rax, %rdi
 355 012a E8000000 		call	_ZN8UnitTest11TestDetailsC1ERKS0_i@PLT
 355      00
  27:testBinIO.cpp **** 	status = bufAppendFromBinaryFile(&buf, "nonExistentFile.bin", NULL);
 356              		.loc 4 27 2 discriminator 15
 357 012f 488D45C0 		leaq	-64(%rbp), %rax
 358 0133 488D1500 		leaq	.LC4(%rip), %rdx
 358      000000
 359 013a 4889C6   		movq	%rax, %rsi
 360 013d 4889DF   		movq	%rbx, %rdi
 361 0140 E8000000 		call	_ZN8UnitTest11TestResults13OnTestFailureERKNS_11TestDetailsEPKc@PLT
 361      00
 362              	.LEHE9:
 363              	.LEHB10:
  27:testBinIO.cpp **** 	status = bufAppendFromBinaryFile(&buf, "nonExistentFile.bin", NULL);
 364              		.loc 4 27 2 discriminator 17
 365 0145 E8000000 		call	__cxa_end_catch@PLT
 365      00
 366              	.LEHE10:
 367 014a E92EFFFF 		jmp	.L14
 367      FF
 368              	.L21:
 369 014f F30F1EFA 		endbr64
  27:testBinIO.cpp **** 	status = bufAppendFromBinaryFile(&buf, "nonExistentFile.bin", NULL);
 370              		.loc 4 27 2
 371 0153 4889C3   		movq	%rax, %rbx
 372 0156 E8000000 		call	__cxa_end_catch@PLT
 372      00
 373 015b 4889D8   		movq	%rbx, %rax
 374 015e 4889C7   		movq	%rax, %rdi
 375              	.LEHB11:
 376 0161 E8000000 		call	_Unwind_Resume@PLT
 376      00
 377              	.LEHE11:
 378              	.L22:
 379 0166 F30F1EFA 		endbr64
  29:testBinIO.cpp **** 	bufDestroy(&buf);
 380              		.loc 4 29 2 is_stmt 1
 381 016a 4889C7   		movq	%rax, %rdi
 382 016d E8000000 		call	__cxa_begin_catch@PLT
 382      00
 383              	.LEHB12:
 384 0172 E8000000 		call	_ZN8UnitTest11CurrentTest7ResultsEv@PLT
 384      00
  29:testBinIO.cpp **** 	bufDestroy(&buf);
 385              		.loc 4 29 2 is_stmt 0 discriminator 3
 386 0177 488B18   		movq	(%rax), %rbx
 387 017a E8000000 		call	_ZN8UnitTest11CurrentTest7DetailsEv@PLT
 387      00
  29:testBinIO.cpp **** 	bufDestroy(&buf);
 388              		.loc 4 29 2 discriminator 11
 389 017f 488B08   		movq	(%rax), %rcx
 390 0182 488D45C0 		leaq	-64(%rbp), %rax
 391 0186 BA1D0000 		movl	$29, %edx
 391      00
 392 018b 4889CE   		movq	%rcx, %rsi
 393 018e 4889C7   		movq	%rax, %rdi
 394 0191 E8000000 		call	_ZN8UnitTest11TestDetailsC1ERKS0_i@PLT
 394      00
  29:testBinIO.cpp **** 	bufDestroy(&buf);
 395              		.loc 4 29 2 discriminator 15
 396 0196 488D45C0 		leaq	-64(%rbp), %rax
 397 019a 488D1500 		leaq	.LC5(%rip), %rdx
 397      000000
 398 01a1 4889C6   		movq	%rax, %rsi
 399 01a4 4889DF   		movq	%rbx, %rdi
 400 01a7 E8000000 		call	_ZN8UnitTest11TestResults13OnTestFailureERKNS_11TestDetailsEPKc@PLT
 400      00
 401              	.LEHE12:
 402              	.LEHB13:
  29:testBinIO.cpp **** 	bufDestroy(&buf);
 403              		.loc 4 29 2 discriminator 17
 404 01ac E8000000 		call	__cxa_end_catch@PLT
 404      00
 405              	.LEHE13:
 406 01b1 E924FFFF 		jmp	.L17
 406      FF
 407              	.L23:
 408 01b6 F30F1EFA 		endbr64
  29:testBinIO.cpp **** 	bufDestroy(&buf);
 409              		.loc 4 29 2
 410 01ba 4889C3   		movq	%rax, %rbx
 411 01bd E8000000 		call	__cxa_end_catch@PLT
 411      00
 412 01c2 4889D8   		movq	%rbx, %rax
 413 01c5 4889C7   		movq	%rax, %rdi
 414              	.LEHB14:
 415 01c8 E8000000 		call	_Unwind_Resume@PLT
 415      00
 416              	.LEHE14:
 417              	.L24:
 418              		.loc 4 31 1 is_stmt 1
 419 01cd E8000000 		call	__stack_chk_fail@PLT
 419      00
 420              	.L19:
 421 01d2 488B5DF8 		movq	-8(%rbp), %rbx
 422 01d6 C9       		leave
 423              		.cfi_def_cfa 7, 8
 424 01d7 C3       		ret
 425              		.cfi_endproc
 426              	.LFE1212:
 427              		.section	.gcc_except_table,"a",@progbits
 428              		.align 4
 429              	.LLSDA1212:
 430 0000 FF       		.byte	0xff
 431 0001 9B       		.byte	0x9b
 432 0002 41       		.uleb128 .LLSDATT1212-.LLSDATTD1212
 433              	.LLSDATTD1212:
 434 0003 01       		.byte	0x1
 435 0004 39       		.uleb128 .LLSDACSE1212-.LLSDACSB1212
 436              	.LLSDACSB1212:
 437 0005 36       		.uleb128 .LEHB4-.LFB1212
 438 0006 05       		.uleb128 .LEHE4-.LEHB4
 439 0007 00       		.uleb128 0
 440 0008 00       		.uleb128 0
 441 0009 3E       		.uleb128 .LEHB5-.LFB1212
 442 000a 3F       		.uleb128 .LEHE5-.LEHB5
 443 000b FF01     		.uleb128 .L20-.LFB1212
 444 000d 01       		.uleb128 0x1
 445 000e 9301     		.uleb128 .LEHB6-.LFB1212
 446 0010 05       		.uleb128 .LEHE6-.LEHB6
 447 0011 00       		.uleb128 0
 448 0012 00       		.uleb128 0
 449 0013 9B01     		.uleb128 .LEHB7-.LFB1212
 450 0015 3F       		.uleb128 .LEHE7-.LEHB7
 451 0016 E602     		.uleb128 .L22-.LFB1212
 452 0018 01       		.uleb128 0x1
 453 0019 E101     		.uleb128 .LEHB8-.LFB1212
 454 001b 05       		.uleb128 .LEHE8-.LEHB8
 455 001c 00       		.uleb128 0
 456 001d 00       		.uleb128 0
 457 001e 8B02     		.uleb128 .LEHB9-.LFB1212
 458 0020 3A       		.uleb128 .LEHE9-.LEHB9
 459 0021 CF02     		.uleb128 .L21-.LFB1212
 460 0023 00       		.uleb128 0
 461 0024 C502     		.uleb128 .LEHB10-.LFB1212
 462 0026 05       		.uleb128 .LEHE10-.LEHB10
 463 0027 00       		.uleb128 0
 464 0028 00       		.uleb128 0
 465 0029 E102     		.uleb128 .LEHB11-.LFB1212
 466 002b 05       		.uleb128 .LEHE11-.LEHB11
 467 002c 00       		.uleb128 0
 468 002d 00       		.uleb128 0
 469 002e F202     		.uleb128 .LEHB12-.LFB1212
 470 0030 3A       		.uleb128 .LEHE12-.LEHB12
 471 0031 B603     		.uleb128 .L23-.LFB1212
 472 0033 00       		.uleb128 0
 473 0034 AC03     		.uleb128 .LEHB13-.LFB1212
 474 0036 05       		.uleb128 .LEHE13-.LEHB13
 475 0037 00       		.uleb128 0
 476 0038 00       		.uleb128 0
 477 0039 C803     		.uleb128 .LEHB14-.LFB1212
 478 003b 05       		.uleb128 .LEHE14-.LEHB14
 479 003c 00       		.uleb128 0
 480 003d 00       		.uleb128 0
 481              	.LLSDACSE1212:
 482 003e 01       		.byte	0x1
 483 003f 00       		.byte	0
 484              		.align 4
 485 0040 00000000 		.long	0
 486              	
 487              	.LLSDATT1212:
 488              		.text
 490              		.section	.rodata
 491              	.LC6:
 492 00be 42696E49 		.string	"BinIO_testReadExistingFile"
 492      4F5F7465 
 492      73745265 
 492      61644578 
 492      69737469 
 493              		.section	.text._ZN30TestBinIO_testReadExistingFileC2Ev,"axG",@progbits,_ZN30TestBinIO_testReadExis
 494              		.align 2
 495              		.weak	_ZN30TestBinIO_testReadExistingFileC2Ev
 497              	_ZN30TestBinIO_testReadExistingFileC2Ev:
 498              	.LFB1214:
  32:testBinIO.cpp **** 
  33:testBinIO.cpp **** TEST(BinIO_testReadExistingFile) {
 499              		.loc 4 33 1
 500              		.cfi_startproc
 501 0000 F30F1EFA 		endbr64
 502 0004 55       		pushq	%rbp
 503              		.cfi_def_cfa_offset 16
 504              		.cfi_offset 6, -16
 505 0005 4889E5   		movq	%rsp, %rbp
 506              		.cfi_def_cfa_register 6
 507 0008 53       		pushq	%rbx
 508 0009 4883EC18 		subq	$24, %rsp
 509              		.cfi_offset 3, -24
 510 000d 48897DE8 		movq	%rdi, -24(%rbp)
 511              	.LBB5:
 512              		.loc 4 33 1
 513 0011 488B5DE8 		movq	-24(%rbp), %rbx
 514 0015 E8000000 		call	_ZN13UnitTestSuite12GetSuiteNameEv
 514      00
 515 001a 4889C2   		movq	%rax, %rdx
 516 001d 41B82100 		movl	$33, %r8d
 516      0000
 517 0023 488D0500 		leaq	.LC1(%rip), %rax
 517      000000
 518 002a 4889C1   		movq	%rax, %rcx
 519 002d 488D0500 		leaq	.LC6(%rip), %rax
 519      000000
 520 0034 4889C6   		movq	%rax, %rsi
 521 0037 4889DF   		movq	%rbx, %rdi
 522 003a E8000000 		call	_ZN8UnitTest4TestC2EPKcS2_S2_i@PLT
 522      00
 523 003f 488D1500 		leaq	16+_ZTV30TestBinIO_testReadExistingFile(%rip), %rdx
 523      000000
 524 0046 488B45E8 		movq	-24(%rbp), %rax
 525 004a 488910   		movq	%rdx, (%rax)
 526              	.LBE5:
 527 004d 90       		nop
 528 004e 488B5DF8 		movq	-8(%rbp), %rbx
 529 0052 C9       		leave
 530              		.cfi_def_cfa 7, 8
 531 0053 C3       		ret
 532              		.cfi_endproc
 533              	.LFE1214:
 535              		.weak	_ZN30TestBinIO_testReadExistingFileC1Ev
 536              		.set	_ZN30TestBinIO_testReadExistingFileC1Ev,_ZN30TestBinIO_testReadExistingFileC2Ev
 537              		.globl	testBinIO_testReadExistingFileInstance
 538              		.bss
 539 0039 00000000 		.align 32
 539      000000
 542              	testBinIO_testReadExistingFileInstance:
 543 0040 00000000 		.zero	56
 543      00000000 
 543      00000000 
 543      00000000 
 543      00000000 
 544              		.globl	adderBinIO_testReadExistingFile
 547              	adderBinIO_testReadExistingFile:
 548 0078 00       		.zero	1
 549              		.section	.rodata
 550              	.LC7:
 551 00d9 746D7046 		.string	"tmpFile.bin"
 551      696C652E 
 551      62696E00 
 552              	.LC8:
 553 00e5 4A757374 		.string	"Just some test data"
 553      20736F6D 
 553      65207465 
 553      73742064 
 553      61746100 
 554 00f9 00000000 		.align 8
 554      000000
 555              	.LC9:
 556 0100 556E6861 		.string	"Unhandled exception in CHECK_EQUAL(strlen(DATA), buf.length)"
 556      6E646C65 
 556      64206578 
 556      63657074 
 556      696F6E20 
 557 013d 000000   		.align 8
 558              	.LC10:
 559 0140 556E6861 		.string	"Unhandled exception in CHECK_ARRAY_EQUAL(DATA, buf.data)"
 559      6E646C65 
 559      64206578 
 559      63657074 
 559      696F6E20 
 560 0179 00000000 		.align 8
 560      000000
 561              	.LC11:
 562 0180 556E6861 		.string	"Unhandled exception in CHECK_EQUAL(2 * strlen(DATA), buf.length)"
 562      6E646C65 
 562      64206578 
 562      63657074 
 562      696F6E20 
 563 01c1 00000000 		.align 8
 563      000000
 564              	.LC12:
 565 01c8 556E6861 		.string	"Unhandled exception in CHECK_ARRAY_EQUAL(DATA, buf.data + strlen(DATA))"
 565      6E646C65 
 565      64206578 
 565      63657074 
 565      696F6E20 
 566              		.text
 567              		.align 2
 568              		.globl	_ZNK30TestBinIO_testReadExistingFile7RunImplEv
 570              	_ZNK30TestBinIO_testReadExistingFile7RunImplEv:
 571              	.LFB1216:
 572              		.loc 4 33 34
 573              		.cfi_startproc
 574              		.cfi_personality 0x9b,DW.ref.__gxx_personality_v0
 575              		.cfi_lsda 0x1b,.LLSDA1216
 576 01d8 F30F1EFA 		endbr64
 577 01dc 55       		pushq	%rbp
 578              		.cfi_def_cfa_offset 16
 579              		.cfi_offset 6, -16
 580 01dd 4889E5   		movq	%rsp, %rbp
 581              		.cfi_def_cfa_register 6
 582 01e0 53       		pushq	%rbx
 583 01e1 4881EC88 		subq	$648, %rsp
 583      020000
 584              		.cfi_offset 3, -24
 585 01e8 4889BD78 		movq	%rdi, -648(%rbp)
 585      FDFFFF
 586              		.loc 4 33 34
 587 01ef 64488B04 		movq	%fs:40, %rax
 587      25280000 
 587      00
 588 01f8 488945E8 		movq	%rax, -24(%rbp)
 589 01fc 31C0     		xorl	%eax, %eax
  34:testBinIO.cpp **** 	const char *const FILENAME = "tmpFile.bin";
 590              		.loc 4 34 20
 591 01fe 488D0500 		leaq	.LC7(%rip), %rax
 591      000000
 592 0205 48898598 		movq	%rax, -616(%rbp)
 592      FDFFFF
  35:testBinIO.cpp **** 	const char *const DATA = "Just some test data";
 593              		.loc 4 35 20
 594 020c 488D0500 		leaq	.LC8(%rip), %rax
 594      000000
 595 0213 48898588 		movq	%rax, -632(%rbp)
 595      FDFFFF
  36:testBinIO.cpp **** 	ofstream file;
 596              		.loc 4 36 11
 597 021a 488D85E0 		leaq	-544(%rbp), %rax
 597      FDFFFF
 598 0221 4889C7   		movq	%rax, %rdi
 599              	.LEHB15:
 600 0224 E8000000 		call	_ZNSt14basic_ofstreamIcSt11char_traitsIcEEC1Ev@PLT
 600      00
 601              	.LEHE15:
  37:testBinIO.cpp **** 	Buffer buf;
  38:testBinIO.cpp **** 	BufferStatus status = bufInitialise(&buf, 8, 0, NULL);
 602              		.loc 4 38 37
 603 0229 488D85A0 		leaq	-608(%rbp), %rax
 603      FDFFFF
 604 0230 B9000000 		movl	$0, %ecx
 604      00
 605 0235 BA000000 		movl	$0, %edx
 605      00
 606 023a BE080000 		movl	$8, %esi
 606      00
 607 023f 4889C7   		movq	%rax, %rdi
 608              	.LEHB16:
 609 0242 E8000000 		call	bufInitialise@PLT
 609      00
 610              	.LEHE16:
 611              		.loc 4 38 54
 612 0247 898584FD 		movl	%eax, -636(%rbp)
 612      FFFF
 613              	.LEHB17:
  39:testBinIO.cpp **** 	CHECK_EQUAL(BUF_SUCCESS, status);
 614              		.loc 4 39 2
 615 024d E8000000 		call	_ZN8UnitTest11CurrentTest7DetailsEv@PLT
 615      00
 616              		.loc 4 39 2 is_stmt 0 discriminator 1
 617 0252 488B08   		movq	(%rax), %rcx
 618 0255 488D85C0 		leaq	-576(%rbp), %rax
 618      FDFFFF
 619 025c BA270000 		movl	$39, %edx
 619      00
 620 0261 4889CE   		movq	%rcx, %rsi
 621 0264 4889C7   		movq	%rax, %rdi
 622 0267 E8000000 		call	_ZN8UnitTest11TestDetailsC1ERKS0_i@PLT
 622      00
 623              		.loc 4 39 2 discriminator 4
 624 026c C78590FD 		movl	$0, -624(%rbp)
 624      FFFF0000 
 624      0000
 625 0276 E8000000 		call	_ZN8UnitTest11CurrentTest7ResultsEv@PLT
 625      00
 626 027b 488B00   		movq	(%rax), %rax
 627 027e 488D8DC0 		leaq	-576(%rbp), %rcx
 627      FDFFFF
 628 0285 488D9584 		leaq	-636(%rbp), %rdx
 628      FDFFFF
 629 028c 488DB590 		leaq	-624(%rbp), %rsi
 629      FDFFFF
 630 0293 4889C7   		movq	%rax, %rdi
 631 0296 E8000000 		call	_ZN8UnitTest10CheckEqualI12BufferStatusS1_EEvRNS_11TestResultsERKT_RKT0_RKNS_11TestDetailsE
 631      00
 632              	.LEHE17:
 633              	.L28:
  40:testBinIO.cpp **** 	file.open(FILENAME, ios::out|ios::binary);
 634              		.loc 4 40 11 is_stmt 1
 635 029b BE040000 		movl	$4, %esi
 635      00
 636 02a0 BF100000 		movl	$16, %edi
 636      00
 637 02a5 E8000000 		call	_ZStorSt13_Ios_OpenmodeS_
 637      00
 638 02aa 89C2     		movl	%eax, %edx
 639 02ac 488D85E0 		leaq	-544(%rbp), %rax
 639      FDFFFF
 640 02b3 488D0D00 		leaq	.LC7(%rip), %rcx
 640      000000
 641 02ba 4889CE   		movq	%rcx, %rsi
 642 02bd 4889C7   		movq	%rax, %rdi
 643              	.LEHB18:
 644 02c0 E8000000 		call	_ZNSt14basic_ofstreamIcSt11char_traitsIcEE4openEPKcSt13_Ios_Openmode@PLT
 644      00
  41:testBinIO.cpp **** 	file << DATA;
 645              		.loc 4 41 10
 646 02c5 488D85E0 		leaq	-544(%rbp), %rax
 646      FDFFFF
 647 02cc 488D1500 		leaq	.LC8(%rip), %rdx
 647      000000
 648 02d3 4889D6   		movq	%rdx, %rsi
 649 02d6 4889C7   		movq	%rax, %rdi
 650 02d9 E8000000 		call	_ZStlsISt11char_traitsIcEERSt13basic_ostreamIcT_ES5_PKc@PLT
 650      00
  42:testBinIO.cpp **** 	file.close();
 651              		.loc 4 42 12
 652 02de 488D85E0 		leaq	-544(%rbp), %rax
 652      FDFFFF
 653 02e5 4889C7   		movq	%rax, %rdi
 654 02e8 E8000000 		call	_ZNSt14basic_ofstreamIcSt11char_traitsIcEE5closeEv@PLT
 654      00
  43:testBinIO.cpp **** 	status = bufAppendFromBinaryFile(&buf, FILENAME, NULL);
 655              		.loc 4 43 34
 656 02ed 488D85A0 		leaq	-608(%rbp), %rax
 656      FDFFFF
 657 02f4 BA000000 		movl	$0, %edx
 657      00
 658 02f9 488D0D00 		leaq	.LC7(%rip), %rcx
 658      000000
 659 0300 4889CE   		movq	%rcx, %rsi
 660 0303 4889C7   		movq	%rax, %rdi
 661 0306 E8000000 		call	bufAppendFromBinaryFile@PLT
 661      00
 662              	.LEHE18:
 663              		.loc 4 43 9
 664 030b 898584FD 		movl	%eax, -636(%rbp)
 664      FFFF
 665              	.LEHB19:
  44:testBinIO.cpp **** 	CHECK_EQUAL(BUF_SUCCESS, status);
 666              		.loc 4 44 2
 667 0311 E8000000 		call	_ZN8UnitTest11CurrentTest7DetailsEv@PLT
 667      00
 668              		.loc 4 44 2 is_stmt 0 discriminator 1
 669 0316 488B08   		movq	(%rax), %rcx
 670 0319 488D85C0 		leaq	-576(%rbp), %rax
 670      FDFFFF
 671 0320 BA2C0000 		movl	$44, %edx
 671      00
 672 0325 4889CE   		movq	%rcx, %rsi
 673 0328 4889C7   		movq	%rax, %rdi
 674 032b E8000000 		call	_ZN8UnitTest11TestDetailsC1ERKS0_i@PLT
 674      00
 675              		.loc 4 44 2 discriminator 4
 676 0330 C78590FD 		movl	$0, -624(%rbp)
 676      FFFF0000 
 676      0000
 677 033a E8000000 		call	_ZN8UnitTest11CurrentTest7ResultsEv@PLT
 677      00
 678 033f 488B00   		movq	(%rax), %rax
 679 0342 488D8DC0 		leaq	-576(%rbp), %rcx
 679      FDFFFF
 680 0349 488D9584 		leaq	-636(%rbp), %rdx
 680      FDFFFF
 681 0350 488DB590 		leaq	-624(%rbp), %rsi
 681      FDFFFF
 682 0357 4889C7   		movq	%rax, %rdi
 683 035a E8000000 		call	_ZN8UnitTest10CheckEqualI12BufferStatusS1_EEvRNS_11TestResultsERKT_RKT0_RKNS_11TestDetailsE
 683      00
 684              	.LEHE19:
 685              	.L32:
 686              	.LEHB20:
  45:testBinIO.cpp **** 	CHECK_EQUAL(strlen(DATA), buf.length);
 687              		.loc 4 45 2 is_stmt 1
 688 035f E8000000 		call	_ZN8UnitTest11CurrentTest7DetailsEv@PLT
 688      00
 689 0364 488B08   		movq	(%rax), %rcx
 690 0367 488D85C0 		leaq	-576(%rbp), %rax
 690      FDFFFF
 691 036e BA2D0000 		movl	$45, %edx
 691      00
 692 0373 4889CE   		movq	%rcx, %rsi
 693 0376 4889C7   		movq	%rax, %rdi
 694 0379 E8000000 		call	_ZN8UnitTest11TestDetailsC1ERKS0_i@PLT
 694      00
 695              		.loc 4 45 2 is_stmt 0 discriminator 4
 696 037e 48C78590 		movq	$19, -624(%rbp)
 696      FDFFFF13 
 696      000000
 697 0389 E8000000 		call	_ZN8UnitTest11CurrentTest7ResultsEv@PLT
 697      00
 698 038e 488B00   		movq	(%rax), %rax
 699 0391 488D95C0 		leaq	-576(%rbp), %rdx
 699      FDFFFF
 700 0398 488D8DA0 		leaq	-608(%rbp), %rcx
 700      FDFFFF
 701 039f 488D7908 		leaq	8(%rcx), %rdi
 702 03a3 488DB590 		leaq	-624(%rbp), %rsi
 702      FDFFFF
 703 03aa 4889D1   		movq	%rdx, %rcx
 704 03ad 4889FA   		movq	%rdi, %rdx
 705 03b0 4889C7   		movq	%rax, %rdi
 706 03b3 E8000000 		call	_ZN8UnitTest10CheckEqualImmEEvRNS_11TestResultsERKT_RKT0_RKNS_11TestDetailsE
 706      00
 707              	.LEHE20:
 708              	.L35:
 709              	.LEHB21:
  46:testBinIO.cpp **** 	CHECK_ARRAY_EQUAL(DATA, buf.data, (int)buf.length);
 710              		.loc 4 46 2 is_stmt 1
 711 03b8 E8000000 		call	_ZN8UnitTest11CurrentTest7DetailsEv@PLT
 711      00
 712 03bd 488B08   		movq	(%rax), %rcx
 713 03c0 488D85C0 		leaq	-576(%rbp), %rax
 713      FDFFFF
 714 03c7 BA2E0000 		movl	$46, %edx
 714      00
 715 03cc 4889CE   		movq	%rcx, %rsi
 716 03cf 4889C7   		movq	%rax, %rdi
 717 03d2 E8000000 		call	_ZN8UnitTest11TestDetailsC1ERKS0_i@PLT
 717      00
 718              		.loc 4 46 2 is_stmt 0 discriminator 4
 719 03d7 488B85A8 		movq	-600(%rbp), %rax
 719      FDFFFF
 720 03de 89C3     		movl	%eax, %ebx
 721 03e0 E8000000 		call	_ZN8UnitTest11CurrentTest7ResultsEv@PLT
 721      00
 722 03e5 488B00   		movq	(%rax), %rax
 723 03e8 488D8DC0 		leaq	-576(%rbp), %rcx
 723      FDFFFF
 724 03ef 488D95A0 		leaq	-608(%rbp), %rdx
 724      FDFFFF
 725 03f6 488DB588 		leaq	-632(%rbp), %rsi
 725      FDFFFF
 726 03fd 4989C8   		movq	%rcx, %r8
 727 0400 89D9     		movl	%ebx, %ecx
 728 0402 4889C7   		movq	%rax, %rdi
 729 0405 E8000000 		call	_ZN8UnitTest15CheckArrayEqualIPKcPhEEvRNS_11TestResultsERKT_RKT0_iRKNS_11TestDetailsE
 729      00
 730              	.LEHE21:
 731              	.L38:
  47:testBinIO.cpp **** 	status = bufAppendFromBinaryFile(&buf, FILENAME, NULL);
 732              		.loc 4 47 34 is_stmt 1
 733 040a 488D85A0 		leaq	-608(%rbp), %rax
 733      FDFFFF
 734 0411 BA000000 		movl	$0, %edx
 734      00
 735 0416 488D0D00 		leaq	.LC7(%rip), %rcx
 735      000000
 736 041d 4889CE   		movq	%rcx, %rsi
 737 0420 4889C7   		movq	%rax, %rdi
 738              	.LEHB22:
 739 0423 E8000000 		call	bufAppendFromBinaryFile@PLT
 739      00
 740              	.LEHE22:
 741              		.loc 4 47 9
 742 0428 898584FD 		movl	%eax, -636(%rbp)
 742      FFFF
 743              	.LEHB23:
  48:testBinIO.cpp **** 	CHECK_EQUAL(BUF_SUCCESS, status);
 744              		.loc 4 48 2
 745 042e E8000000 		call	_ZN8UnitTest11CurrentTest7DetailsEv@PLT
 745      00
 746              		.loc 4 48 2 is_stmt 0 discriminator 1
 747 0433 488B08   		movq	(%rax), %rcx
 748 0436 488D85C0 		leaq	-576(%rbp), %rax
 748      FDFFFF
 749 043d BA300000 		movl	$48, %edx
 749      00
 750 0442 4889CE   		movq	%rcx, %rsi
 751 0445 4889C7   		movq	%rax, %rdi
 752 0448 E8000000 		call	_ZN8UnitTest11TestDetailsC1ERKS0_i@PLT
 752      00
 753              		.loc 4 48 2 discriminator 4
 754 044d C78590FD 		movl	$0, -624(%rbp)
 754      FFFF0000 
 754      0000
 755 0457 E8000000 		call	_ZN8UnitTest11CurrentTest7ResultsEv@PLT
 755      00
 756 045c 488B00   		movq	(%rax), %rax
 757 045f 488D8DC0 		leaq	-576(%rbp), %rcx
 757      FDFFFF
 758 0466 488D9584 		leaq	-636(%rbp), %rdx
 758      FDFFFF
 759 046d 488DB590 		leaq	-624(%rbp), %rsi
 759      FDFFFF
 760 0474 4889C7   		movq	%rax, %rdi
 761 0477 E8000000 		call	_ZN8UnitTest10CheckEqualI12BufferStatusS1_EEvRNS_11TestResultsERKT_RKT0_RKNS_11TestDetailsE
 761      00
 762              	.LEHE23:
 763              	.L41:
 764              	.LEHB24:
  49:testBinIO.cpp **** 	CHECK_EQUAL(2 * strlen(DATA), buf.length);
 765              		.loc 4 49 2 is_stmt 1
 766 047c E8000000 		call	_ZN8UnitTest11CurrentTest7DetailsEv@PLT
 766      00
 767 0481 488B08   		movq	(%rax), %rcx
 768 0484 488D85C0 		leaq	-576(%rbp), %rax
 768      FDFFFF
 769 048b BA310000 		movl	$49, %edx
 769      00
 770 0490 4889CE   		movq	%rcx, %rsi
 771 0493 4889C7   		movq	%rax, %rdi
 772 0496 E8000000 		call	_ZN8UnitTest11TestDetailsC1ERKS0_i@PLT
 772      00
 773              		.loc 4 49 2 is_stmt 0 discriminator 4
 774 049b 48C78590 		movq	$38, -624(%rbp)
 774      FDFFFF26 
 774      000000
 775 04a6 E8000000 		call	_ZN8UnitTest11CurrentTest7ResultsEv@PLT
 775      00
 776 04ab 488B00   		movq	(%rax), %rax
 777 04ae 488D95C0 		leaq	-576(%rbp), %rdx
 777      FDFFFF
 778 04b5 488D8DA0 		leaq	-608(%rbp), %rcx
 778      FDFFFF
 779 04bc 488D7908 		leaq	8(%rcx), %rdi
 780 04c0 488DB590 		leaq	-624(%rbp), %rsi
 780      FDFFFF
 781 04c7 4889D1   		movq	%rdx, %rcx
 782 04ca 4889FA   		movq	%rdi, %rdx
 783 04cd 4889C7   		movq	%rax, %rdi
 784 04d0 E8000000 		call	_ZN8UnitTest10CheckEqualImmEEvRNS_11TestResultsERKT_RKT0_RKNS_11TestDetailsE
 784      00
 785              	.LEHE24:
 786              	.L44:
 787              	.LEHB25:
  50:testBinIO.cpp **** 	CHECK_ARRAY_EQUAL(DATA, buf.data + strlen(DATA), (int)strlen(DATA));
 788              		.loc 4 50 2 is_stmt 1
 789 04d5 E8000000 		call	_ZN8UnitTest11CurrentTest7DetailsEv@PLT
 789      00
 790 04da 488B08   		movq	(%rax), %rcx
 791 04dd 488D85C0 		leaq	-576(%rbp), %rax
 791      FDFFFF
 792 04e4 BA320000 		movl	$50, %edx
 792      00
 793 04e9 4889CE   		movq	%rcx, %rsi
 794 04ec 4889C7   		movq	%rax, %rdi
 795 04ef E8000000 		call	_ZN8UnitTest11TestDetailsC1ERKS0_i@PLT
 795      00
 796              		.loc 4 50 2 is_stmt 0 discriminator 4
 797 04f4 488B85A0 		movq	-608(%rbp), %rax
 797      FDFFFF
 798 04fb 4883C013 		addq	$19, %rax
 799 04ff 48898590 		movq	%rax, -624(%rbp)
 799      FDFFFF
 800 0506 E8000000 		call	_ZN8UnitTest11CurrentTest7ResultsEv@PLT
 800      00
 801 050b 488B00   		movq	(%rax), %rax
 802 050e 488D8DC0 		leaq	-576(%rbp), %rcx
 802      FDFFFF
 803 0515 488D9590 		leaq	-624(%rbp), %rdx
 803      FDFFFF
 804 051c 488DB588 		leaq	-632(%rbp), %rsi
 804      FDFFFF
 805 0523 4989C8   		movq	%rcx, %r8
 806 0526 B9130000 		movl	$19, %ecx
 806      00
 807 052b 4889C7   		movq	%rax, %rdi
 808 052e E8000000 		call	_ZN8UnitTest15CheckArrayEqualIPKcPhEEvRNS_11TestResultsERKT_RKT0_iRKNS_11TestDetailsE
 808      00
 809              	.LEHE25:
 810              	.L47:
  51:testBinIO.cpp **** 	bufDestroy(&buf);
 811              		.loc 4 51 12 is_stmt 1
 812 0533 488D85A0 		leaq	-608(%rbp), %rax
 812      FDFFFF
 813 053a 4889C7   		movq	%rax, %rdi
 814              	.LEHB26:
 815 053d E8000000 		call	bufDestroy@PLT
 815      00
 816              	.LEHE26:
  52:testBinIO.cpp **** }
 817              		.loc 4 52 1
 818 0542 488D85E0 		leaq	-544(%rbp), %rax
 818      FDFFFF
 819 0549 4889C7   		movq	%rax, %rdi
 820              	.LEHB27:
 821 054c E8000000 		call	_ZNSt14basic_ofstreamIcSt11char_traitsIcEED1Ev@PLT
 821      00
 822              	.LEHE27:
 823 0551 488B45E8 		movq	-24(%rbp), %rax
 824 0555 64482B04 		subq	%fs:40, %rax
 824      25280000 
 824      00
 825 055e 0F84F602 		je	.L49
 825      0000
 826 0564 E9EC0200 		jmp	.L65
 826      00
 827              	.L51:
 828 0569 F30F1EFA 		endbr64
  39:testBinIO.cpp **** 	file.open(FILENAME, ios::out|ios::binary);
 829              		.loc 4 39 2
 830 056d 4889C7   		movq	%rax, %rdi
 831 0570 E8000000 		call	__cxa_begin_catch@PLT
 831      00
 832              	.LEHB28:
 833 0575 E8000000 		call	_ZN8UnitTest11CurrentTest7ResultsEv@PLT
 833      00
  39:testBinIO.cpp **** 	file.open(FILENAME, ios::out|ios::binary);
 834              		.loc 4 39 2 is_stmt 0 discriminator 3
 835 057a 488B18   		movq	(%rax), %rbx
 836 057d E8000000 		call	_ZN8UnitTest11CurrentTest7DetailsEv@PLT
 836      00
  39:testBinIO.cpp **** 	file.open(FILENAME, ios::out|ios::binary);
 837              		.loc 4 39 2 discriminator 11
 838 0582 488B08   		movq	(%rax), %rcx
 839 0585 488D85C0 		leaq	-576(%rbp), %rax
 839      FDFFFF
 840 058c BA270000 		movl	$39, %edx
 840      00
 841 0591 4889CE   		movq	%rcx, %rsi
 842 0594 4889C7   		movq	%rax, %rdi
 843 0597 E8000000 		call	_ZN8UnitTest11TestDetailsC1ERKS0_i@PLT
 843      00
  39:testBinIO.cpp **** 	file.open(FILENAME, ios::out|ios::binary);
 844              		.loc 4 39 2 discriminator 15
 845 059c 488D85C0 		leaq	-576(%rbp), %rax
 845      FDFFFF
 846 05a3 488D1500 		leaq	.LC4(%rip), %rdx
 846      000000
 847 05aa 4889C6   		movq	%rax, %rsi
 848 05ad 4889DF   		movq	%rbx, %rdi
 849 05b0 E8000000 		call	_ZN8UnitTest11TestResults13OnTestFailureERKNS_11TestDetailsEPKc@PLT
 849      00
 850              	.LEHE28:
 851              	.LEHB29:
  39:testBinIO.cpp **** 	file.open(FILENAME, ios::out|ios::binary);
 852              		.loc 4 39 2 discriminator 17
 853 05b5 E8000000 		call	__cxa_end_catch@PLT
 853      00
 854              	.LEHE29:
  39:testBinIO.cpp **** 	file.open(FILENAME, ios::out|ios::binary);
 855              		.loc 4 39 2
 856 05ba E9DCFCFF 		jmp	.L28
 856      FF
 857              	.L52:
 858 05bf F30F1EFA 		endbr64
 859 05c3 4889C3   		movq	%rax, %rbx
 860 05c6 E8000000 		call	__cxa_end_catch@PLT
 860      00
 861 05cb E96B0200 		jmp	.L30
 861      00
 862              	.L53:
 863 05d0 F30F1EFA 		endbr64
  44:testBinIO.cpp **** 	CHECK_EQUAL(strlen(DATA), buf.length);
 864              		.loc 4 44 2 is_stmt 1
 865 05d4 4889C7   		movq	%rax, %rdi
 866 05d7 E8000000 		call	__cxa_begin_catch@PLT
 866      00
 867              	.LEHB30:
 868 05dc E8000000 		call	_ZN8UnitTest11CurrentTest7ResultsEv@PLT
 868      00
  44:testBinIO.cpp **** 	CHECK_EQUAL(strlen(DATA), buf.length);
 869              		.loc 4 44 2 is_stmt 0 discriminator 3
 870 05e1 488B18   		movq	(%rax), %rbx
 871 05e4 E8000000 		call	_ZN8UnitTest11CurrentTest7DetailsEv@PLT
 871      00
  44:testBinIO.cpp **** 	CHECK_EQUAL(strlen(DATA), buf.length);
 872              		.loc 4 44 2 discriminator 11
 873 05e9 488B08   		movq	(%rax), %rcx
 874 05ec 488D85C0 		leaq	-576(%rbp), %rax
 874      FDFFFF
 875 05f3 BA2C0000 		movl	$44, %edx
 875      00
 876 05f8 4889CE   		movq	%rcx, %rsi
 877 05fb 4889C7   		movq	%rax, %rdi
 878 05fe E8000000 		call	_ZN8UnitTest11TestDetailsC1ERKS0_i@PLT
 878      00
  44:testBinIO.cpp **** 	CHECK_EQUAL(strlen(DATA), buf.length);
 879              		.loc 4 44 2 discriminator 15
 880 0603 488D85C0 		leaq	-576(%rbp), %rax
 880      FDFFFF
 881 060a 488D1500 		leaq	.LC4(%rip), %rdx
 881      000000
 882 0611 4889C6   		movq	%rax, %rsi
 883 0614 4889DF   		movq	%rbx, %rdi
 884 0617 E8000000 		call	_ZN8UnitTest11TestResults13OnTestFailureERKNS_11TestDetailsEPKc@PLT
 884      00
 885              	.LEHE30:
 886              	.LEHB31:
  44:testBinIO.cpp **** 	CHECK_EQUAL(strlen(DATA), buf.length);
 887              		.loc 4 44 2 discriminator 17
 888 061c E8000000 		call	__cxa_end_catch@PLT
 888      00
 889              	.LEHE31:
  44:testBinIO.cpp **** 	CHECK_EQUAL(strlen(DATA), buf.length);
 890              		.loc 4 44 2
 891 0621 E939FDFF 		jmp	.L32
 891      FF
 892              	.L54:
 893 0626 F30F1EFA 		endbr64
 894 062a 4889C3   		movq	%rax, %rbx
 895 062d E8000000 		call	__cxa_end_catch@PLT
 895      00
 896 0632 E9040200 		jmp	.L30
 896      00
 897              	.L55:
 898 0637 F30F1EFA 		endbr64
  45:testBinIO.cpp **** 	CHECK_ARRAY_EQUAL(DATA, buf.data, (int)buf.length);
 899              		.loc 4 45 2 is_stmt 1
 900 063b 4889C7   		movq	%rax, %rdi
 901 063e E8000000 		call	__cxa_begin_catch@PLT
 901      00
 902              	.LEHB32:
 903 0643 E8000000 		call	_ZN8UnitTest11CurrentTest7ResultsEv@PLT
 903      00
  45:testBinIO.cpp **** 	CHECK_ARRAY_EQUAL(DATA, buf.data, (int)buf.length);
 904              		.loc 4 45 2 is_stmt 0 discriminator 3
 905 0648 488B18   		movq	(%rax), %rbx
 906 064b E8000000 		call	_ZN8UnitTest11CurrentTest7DetailsEv@PLT
 906      00
  45:testBinIO.cpp **** 	CHECK_ARRAY_EQUAL(DATA, buf.data, (int)buf.length);
 907              		.loc 4 45 2 discriminator 11
 908 0650 488B08   		movq	(%rax), %rcx
 909 0653 488D85C0 		leaq	-576(%rbp), %rax
 909      FDFFFF
 910 065a BA2D0000 		movl	$45, %edx
 910      00
 911 065f 4889CE   		movq	%rcx, %rsi
 912 0662 4889C7   		movq	%rax, %rdi
 913 0665 E8000000 		call	_ZN8UnitTest11TestDetailsC1ERKS0_i@PLT
 913      00
  45:testBinIO.cpp **** 	CHECK_ARRAY_EQUAL(DATA, buf.data, (int)buf.length);
 914              		.loc 4 45 2 discriminator 15
 915 066a 488D85C0 		leaq	-576(%rbp), %rax
 915      FDFFFF
 916 0671 488D1500 		leaq	.LC9(%rip), %rdx
 916      000000
 917 0678 4889C6   		movq	%rax, %rsi
 918 067b 4889DF   		movq	%rbx, %rdi
 919 067e E8000000 		call	_ZN8UnitTest11TestResults13OnTestFailureERKNS_11TestDetailsEPKc@PLT
 919      00
 920              	.LEHE32:
 921              	.LEHB33:
  45:testBinIO.cpp **** 	CHECK_ARRAY_EQUAL(DATA, buf.data, (int)buf.length);
 922              		.loc 4 45 2 discriminator 17
 923 0683 E8000000 		call	__cxa_end_catch@PLT
 923      00
 924              	.LEHE33:
  45:testBinIO.cpp **** 	CHECK_ARRAY_EQUAL(DATA, buf.data, (int)buf.length);
 925              		.loc 4 45 2
 926 0688 E92BFDFF 		jmp	.L35
 926      FF
 927              	.L56:
 928 068d F30F1EFA 		endbr64
 929 0691 4889C3   		movq	%rax, %rbx
 930 0694 E8000000 		call	__cxa_end_catch@PLT
 930      00
 931 0699 E99D0100 		jmp	.L30
 931      00
 932              	.L57:
 933 069e F30F1EFA 		endbr64
  46:testBinIO.cpp **** 	status = bufAppendFromBinaryFile(&buf, FILENAME, NULL);
 934              		.loc 4 46 2 is_stmt 1
 935 06a2 4889C7   		movq	%rax, %rdi
 936 06a5 E8000000 		call	__cxa_begin_catch@PLT
 936      00
 937              	.LEHB34:
 938 06aa E8000000 		call	_ZN8UnitTest11CurrentTest7ResultsEv@PLT
 938      00
  46:testBinIO.cpp **** 	status = bufAppendFromBinaryFile(&buf, FILENAME, NULL);
 939              		.loc 4 46 2 is_stmt 0 discriminator 3
 940 06af 488B18   		movq	(%rax), %rbx
 941 06b2 E8000000 		call	_ZN8UnitTest11CurrentTest7DetailsEv@PLT
 941      00
  46:testBinIO.cpp **** 	status = bufAppendFromBinaryFile(&buf, FILENAME, NULL);
 942              		.loc 4 46 2 discriminator 11
 943 06b7 488B08   		movq	(%rax), %rcx
 944 06ba 488D85C0 		leaq	-576(%rbp), %rax
 944      FDFFFF
 945 06c1 BA2E0000 		movl	$46, %edx
 945      00
 946 06c6 4889CE   		movq	%rcx, %rsi
 947 06c9 4889C7   		movq	%rax, %rdi
 948 06cc E8000000 		call	_ZN8UnitTest11TestDetailsC1ERKS0_i@PLT
 948      00
  46:testBinIO.cpp **** 	status = bufAppendFromBinaryFile(&buf, FILENAME, NULL);
 949              		.loc 4 46 2 discriminator 15
 950 06d1 488D85C0 		leaq	-576(%rbp), %rax
 950      FDFFFF
 951 06d8 488D1500 		leaq	.LC10(%rip), %rdx
 951      000000
 952 06df 4889C6   		movq	%rax, %rsi
 953 06e2 4889DF   		movq	%rbx, %rdi
 954 06e5 E8000000 		call	_ZN8UnitTest11TestResults13OnTestFailureERKNS_11TestDetailsEPKc@PLT
 954      00
 955              	.LEHE34:
 956              	.LEHB35:
  46:testBinIO.cpp **** 	status = bufAppendFromBinaryFile(&buf, FILENAME, NULL);
 957              		.loc 4 46 2 discriminator 17
 958 06ea E8000000 		call	__cxa_end_catch@PLT
 958      00
 959              	.LEHE35:
  46:testBinIO.cpp **** 	status = bufAppendFromBinaryFile(&buf, FILENAME, NULL);
 960              		.loc 4 46 2
 961 06ef E916FDFF 		jmp	.L38
 961      FF
 962              	.L58:
 963 06f4 F30F1EFA 		endbr64
 964 06f8 4889C3   		movq	%rax, %rbx
 965 06fb E8000000 		call	__cxa_end_catch@PLT
 965      00
 966 0700 E9360100 		jmp	.L30
 966      00
 967              	.L59:
 968 0705 F30F1EFA 		endbr64
  48:testBinIO.cpp **** 	CHECK_EQUAL(2 * strlen(DATA), buf.length);
 969              		.loc 4 48 2 is_stmt 1
 970 0709 4889C7   		movq	%rax, %rdi
 971 070c E8000000 		call	__cxa_begin_catch@PLT
 971      00
 972              	.LEHB36:
 973 0711 E8000000 		call	_ZN8UnitTest11CurrentTest7ResultsEv@PLT
 973      00
  48:testBinIO.cpp **** 	CHECK_EQUAL(2 * strlen(DATA), buf.length);
 974              		.loc 4 48 2 is_stmt 0 discriminator 3
 975 0716 488B18   		movq	(%rax), %rbx
 976 0719 E8000000 		call	_ZN8UnitTest11CurrentTest7DetailsEv@PLT
 976      00
  48:testBinIO.cpp **** 	CHECK_EQUAL(2 * strlen(DATA), buf.length);
 977              		.loc 4 48 2 discriminator 11
 978 071e 488B08   		movq	(%rax), %rcx
 979 0721 488D85C0 		leaq	-576(%rbp), %rax
 979      FDFFFF
 980 0728 BA300000 		movl	$48, %edx
 980      00
 981 072d 4889CE   		movq	%rcx, %rsi
 982 0730 4889C7   		movq	%rax, %rdi
 983 0733 E8000000 		call	_ZN8UnitTest11TestDetailsC1ERKS0_i@PLT
 983      00
  48:testBinIO.cpp **** 	CHECK_EQUAL(2 * strlen(DATA), buf.length);
 984              		.loc 4 48 2 discriminator 15
 985 0738 488D85C0 		leaq	-576(%rbp), %rax
 985      FDFFFF
 986 073f 488D1500 		leaq	.LC4(%rip), %rdx
 986      000000
 987 0746 4889C6   		movq	%rax, %rsi
 988 0749 4889DF   		movq	%rbx, %rdi
 989 074c E8000000 		call	_ZN8UnitTest11TestResults13OnTestFailureERKNS_11TestDetailsEPKc@PLT
 989      00
 990              	.LEHE36:
 991              	.LEHB37:
  48:testBinIO.cpp **** 	CHECK_EQUAL(2 * strlen(DATA), buf.length);
 992              		.loc 4 48 2 discriminator 17
 993 0751 E8000000 		call	__cxa_end_catch@PLT
 993      00
 994              	.LEHE37:
  48:testBinIO.cpp **** 	CHECK_EQUAL(2 * strlen(DATA), buf.length);
 995              		.loc 4 48 2
 996 0756 E921FDFF 		jmp	.L41
 996      FF
 997              	.L60:
 998 075b F30F1EFA 		endbr64
 999 075f 4889C3   		movq	%rax, %rbx
 1000 0762 E8000000 		call	__cxa_end_catch@PLT
 1000      00
 1001 0767 E9CF0000 		jmp	.L30
 1001      00
 1002              	.L61:
 1003 076c F30F1EFA 		endbr64
  49:testBinIO.cpp **** 	CHECK_ARRAY_EQUAL(DATA, buf.data + strlen(DATA), (int)strlen(DATA));
 1004              		.loc 4 49 2 is_stmt 1
 1005 0770 4889C7   		movq	%rax, %rdi
 1006 0773 E8000000 		call	__cxa_begin_catch@PLT
 1006      00
 1007              	.LEHB38:
 1008 0778 E8000000 		call	_ZN8UnitTest11CurrentTest7ResultsEv@PLT
 1008      00
  49:testBinIO.cpp **** 	CHECK_ARRAY_EQUAL(DATA, buf.data + strlen(DATA), (int)strlen(DATA));
 1009              		.loc 4 49 2 is_stmt 0 discriminator 3
 1010 077d 488B18   		movq	(%rax), %rbx
 1011 0780 E8000000 		call	_ZN8UnitTest11CurrentTest7DetailsEv@PLT
 1011      00
  49:testBinIO.cpp **** 	CHECK_ARRAY_EQUAL(DATA, buf.data + strlen(DATA), (int)strlen(DATA));
 1012              		.loc 4 49 2 discriminator 11
 1013 0785 488B08   		movq	(%rax), %rcx
 1014 0788 488D85C0 		leaq	-576(%rbp), %rax
 1014      FDFFFF
 1015 078f BA310000 		movl	$49, %edx
 1015      00
 1016 0794 4889CE   		movq	%rcx, %rsi
 1017 0797 4889C7   		movq	%rax, %rdi
 1018 079a E8000000 		call	_ZN8UnitTest11TestDetailsC1ERKS0_i@PLT
 1018      00
  49:testBinIO.cpp **** 	CHECK_ARRAY_EQUAL(DATA, buf.data + strlen(DATA), (int)strlen(DATA));
 1019              		.loc 4 49 2 discriminator 15
 1020 079f 488D85C0 		leaq	-576(%rbp), %rax
 1020      FDFFFF
 1021 07a6 488D1500 		leaq	.LC11(%rip), %rdx
 1021      000000
 1022 07ad 4889C6   		movq	%rax, %rsi
 1023 07b0 4889DF   		movq	%rbx, %rdi
 1024 07b3 E8000000 		call	_ZN8UnitTest11TestResults13OnTestFailureERKNS_11TestDetailsEPKc@PLT
 1024      00
 1025              	.LEHE38:
 1026              	.LEHB39:
  49:testBinIO.cpp **** 	CHECK_ARRAY_EQUAL(DATA, buf.data + strlen(DATA), (int)strlen(DATA));
 1027              		.loc 4 49 2 discriminator 17
 1028 07b8 E8000000 		call	__cxa_end_catch@PLT
 1028      00
 1029              	.LEHE39:
  49:testBinIO.cpp **** 	CHECK_ARRAY_EQUAL(DATA, buf.data + strlen(DATA), (int)strlen(DATA));
 1030              		.loc 4 49 2
 1031 07bd E913FDFF 		jmp	.L44
 1031      FF
 1032              	.L62:
 1033 07c2 F30F1EFA 		endbr64
 1034 07c6 4889C3   		movq	%rax, %rbx
 1035 07c9 E8000000 		call	__cxa_end_catch@PLT
 1035      00
 1036 07ce EB6B     		jmp	.L30
 1037              	.L63:
 1038 07d0 F30F1EFA 		endbr64
  50:testBinIO.cpp **** 	bufDestroy(&buf);
 1039              		.loc 4 50 2 is_stmt 1
 1040 07d4 4889C7   		movq	%rax, %rdi
 1041 07d7 E8000000 		call	__cxa_begin_catch@PLT
 1041      00
 1042              	.LEHB40:
 1043 07dc E8000000 		call	_ZN8UnitTest11CurrentTest7ResultsEv@PLT
 1043      00
  50:testBinIO.cpp **** 	bufDestroy(&buf);
 1044              		.loc 4 50 2 is_stmt 0 discriminator 3
 1045 07e1 488B18   		movq	(%rax), %rbx
 1046 07e4 E8000000 		call	_ZN8UnitTest11CurrentTest7DetailsEv@PLT
 1046      00
  50:testBinIO.cpp **** 	bufDestroy(&buf);
 1047              		.loc 4 50 2 discriminator 11
 1048 07e9 488B08   		movq	(%rax), %rcx
 1049 07ec 488D85C0 		leaq	-576(%rbp), %rax
 1049      FDFFFF
 1050 07f3 BA320000 		movl	$50, %edx
 1050      00
 1051 07f8 4889CE   		movq	%rcx, %rsi
 1052 07fb 4889C7   		movq	%rax, %rdi
 1053 07fe E8000000 		call	_ZN8UnitTest11TestDetailsC1ERKS0_i@PLT
 1053      00
  50:testBinIO.cpp **** 	bufDestroy(&buf);
 1054              		.loc 4 50 2 discriminator 15
 1055 0803 488D85C0 		leaq	-576(%rbp), %rax
 1055      FDFFFF
 1056 080a 488D1500 		leaq	.LC12(%rip), %rdx
 1056      000000
 1057 0811 4889C6   		movq	%rax, %rsi
 1058 0814 4889DF   		movq	%rbx, %rdi
 1059 0817 E8000000 		call	_ZN8UnitTest11TestResults13OnTestFailureERKNS_11TestDetailsEPKc@PLT
 1059      00
 1060              	.LEHE40:
 1061              	.LEHB41:
  50:testBinIO.cpp **** 	bufDestroy(&buf);
 1062              		.loc 4 50 2 discriminator 17
 1063 081c E8000000 		call	__cxa_end_catch@PLT
 1063      00
 1064              	.LEHE41:
  50:testBinIO.cpp **** 	bufDestroy(&buf);
 1065              		.loc 4 50 2
 1066 0821 E90DFDFF 		jmp	.L47
 1066      FF
 1067              	.L64:
 1068 0826 F30F1EFA 		endbr64
 1069 082a 4889C3   		movq	%rax, %rbx
 1070 082d E8000000 		call	__cxa_end_catch@PLT
 1070      00
 1071 0832 EB07     		jmp	.L30
 1072              	.L50:
 1073 0834 F30F1EFA 		endbr64
 1074              		.loc 4 52 1 is_stmt 1
 1075 0838 4889C3   		movq	%rax, %rbx
 1076              	.L30:
 1077 083b 488D85E0 		leaq	-544(%rbp), %rax
 1077      FDFFFF
 1078 0842 4889C7   		movq	%rax, %rdi
 1079 0845 E8000000 		call	_ZNSt14basic_ofstreamIcSt11char_traitsIcEED1Ev@PLT
 1079      00
 1080 084a 4889D8   		movq	%rbx, %rax
 1081 084d 4889C7   		movq	%rax, %rdi
 1082              	.LEHB42:
 1083 0850 E8000000 		call	_Unwind_Resume@PLT
 1083      00
 1084              	.LEHE42:
 1085              	.L65:
 1086 0855 E8000000 		call	__stack_chk_fail@PLT
 1086      00
 1087              	.L49:
 1088 085a 488B5DF8 		movq	-8(%rbp), %rbx
 1089 085e C9       		leave
 1090              		.cfi_def_cfa 7, 8
 1091 085f C3       		ret
 1092              		.cfi_endproc
 1093              	.LFE1216:
 1094              		.section	.gcc_except_table
 1095              		.align 4
 1096              	.LLSDA1216:
 1097 0044 FF       		.byte	0xff
 1098 0045 9B       		.byte	0x9b
 1099 0046 AC01     		.uleb128 .LLSDATT1216-.LLSDATTD1216
 1100              	.LLSDATTD1216:
 1101 0048 01       		.byte	0x1
 1102 0049 A201     		.uleb128 .LLSDACSE1216-.LLSDACSB1216
 1103              	.LLSDACSB1216:
 1104 004b 4C       		.uleb128 .LEHB15-.LFB1216
 1105 004c 05       		.uleb128 .LEHE15-.LEHB15
 1106 004d 00       		.uleb128 0
 1107 004e 00       		.uleb128 0
 1108 004f 6A       		.uleb128 .LEHB16-.LFB1216
 1109 0050 05       		.uleb128 .LEHE16-.LEHB16
 1110 0051 DC0C     		.uleb128 .L50-.LFB1216
 1111 0053 00       		.uleb128 0
 1112 0054 75       		.uleb128 .LEHB17-.LFB1216
 1113 0055 4E       		.uleb128 .LEHE17-.LEHB17
 1114 0056 9107     		.uleb128 .L51-.LFB1216
 1115 0058 01       		.uleb128 0x1
 1116 0059 E801     		.uleb128 .LEHB18-.LFB1216
 1117 005b 4B       		.uleb128 .LEHE18-.LEHB18
 1118 005c DC0C     		.uleb128 .L50-.LFB1216
 1119 005e 00       		.uleb128 0
 1120 005f B902     		.uleb128 .LEHB19-.LFB1216
 1121 0061 4E       		.uleb128 .LEHE19-.LEHB19
 1122 0062 F807     		.uleb128 .L53-.LFB1216
 1123 0064 01       		.uleb128 0x1
 1124 0065 8703     		.uleb128 .LEHB20-.LFB1216
 1125 0067 59       		.uleb128 .LEHE20-.LEHB20
 1126 0068 DF08     		.uleb128 .L55-.LFB1216
 1127 006a 01       		.uleb128 0x1
 1128 006b E003     		.uleb128 .LEHB21-.LFB1216
 1129 006d 52       		.uleb128 .LEHE21-.LEHB21
 1130 006e C609     		.uleb128 .L57-.LFB1216
 1131 0070 01       		.uleb128 0x1
 1132 0071 CB04     		.uleb128 .LEHB22-.LFB1216
 1133 0073 05       		.uleb128 .LEHE22-.LEHB22
 1134 0074 DC0C     		.uleb128 .L50-.LFB1216
 1135 0076 00       		.uleb128 0
 1136 0077 D604     		.uleb128 .LEHB23-.LFB1216
 1137 0079 4E       		.uleb128 .LEHE23-.LEHB23
 1138 007a AD0A     		.uleb128 .L59-.LFB1216
 1139 007c 01       		.uleb128 0x1
 1140 007d A405     		.uleb128 .LEHB24-.LFB1216
 1141 007f 59       		.uleb128 .LEHE24-.LEHB24
 1142 0080 940B     		.uleb128 .L61-.LFB1216
 1143 0082 01       		.uleb128 0x1
 1144 0083 FD05     		.uleb128 .LEHB25-.LFB1216
 1145 0085 5E       		.uleb128 .LEHE25-.LEHB25
 1146 0086 F80B     		.uleb128 .L63-.LFB1216
 1147 0088 01       		.uleb128 0x1
 1148 0089 E506     		.uleb128 .LEHB26-.LFB1216
 1149 008b 05       		.uleb128 .LEHE26-.LEHB26
 1150 008c DC0C     		.uleb128 .L50-.LFB1216
 1151 008e 00       		.uleb128 0
 1152 008f F406     		.uleb128 .LEHB27-.LFB1216
 1153 0091 05       		.uleb128 .LEHE27-.LEHB27
 1154 0092 00       		.uleb128 0
 1155 0093 00       		.uleb128 0
 1156 0094 9D07     		.uleb128 .LEHB28-.LFB1216
 1157 0096 40       		.uleb128 .LEHE28-.LEHB28
 1158 0097 E707     		.uleb128 .L52-.LFB1216
 1159 0099 00       		.uleb128 0
 1160 009a DD07     		.uleb128 .LEHB29-.LFB1216
 1161 009c 05       		.uleb128 .LEHE29-.LEHB29
 1162 009d DC0C     		.uleb128 .L50-.LFB1216
 1163 009f 00       		.uleb128 0
 1164 00a0 8408     		.uleb128 .LEHB30-.LFB1216
 1165 00a2 40       		.uleb128 .LEHE30-.LEHB30
 1166 00a3 CE08     		.uleb128 .L54-.LFB1216
 1167 00a5 00       		.uleb128 0
 1168 00a6 C408     		.uleb128 .LEHB31-.LFB1216
 1169 00a8 05       		.uleb128 .LEHE31-.LEHB31
 1170 00a9 DC0C     		.uleb128 .L50-.LFB1216
 1171 00ab 00       		.uleb128 0
 1172 00ac EB08     		.uleb128 .LEHB32-.LFB1216
 1173 00ae 40       		.uleb128 .LEHE32-.LEHB32
 1174 00af B509     		.uleb128 .L56-.LFB1216
 1175 00b1 00       		.uleb128 0
 1176 00b2 AB09     		.uleb128 .LEHB33-.LFB1216
 1177 00b4 05       		.uleb128 .LEHE33-.LEHB33
 1178 00b5 DC0C     		.uleb128 .L50-.LFB1216
 1179 00b7 00       		.uleb128 0
 1180 00b8 D209     		.uleb128 .LEHB34-.LFB1216
 1181 00ba 40       		.uleb128 .LEHE34-.LEHB34
 1182 00bb 9C0A     		.uleb128 .L58-.LFB1216
 1183 00bd 00       		.uleb128 0
 1184 00be 920A     		.uleb128 .LEHB35-.LFB1216
 1185 00c0 05       		.uleb128 .LEHE35-.LEHB35
 1186 00c1 DC0C     		.uleb128 .L50-.LFB1216
 1187 00c3 00       		.uleb128 0
 1188 00c4 B90A     		.uleb128 .LEHB36-.LFB1216
 1189 00c6 40       		.uleb128 .LEHE36-.LEHB36
 1190 00c7 830B     		.uleb128 .L60-.LFB1216
 1191 00c9 00       		.uleb128 0
 1192 00ca F90A     		.uleb128 .LEHB37-.LFB1216
 1193 00cc 05       		.uleb128 .LEHE37-.LEHB37
 1194 00cd DC0C     		.uleb128 .L50-.LFB1216
 1195 00cf 00       		.uleb128 0
 1196 00d0 A00B     		.uleb128 .LEHB38-.LFB1216
 1197 00d2 40       		.uleb128 .LEHE38-.LEHB38
 1198 00d3 EA0B     		.uleb128 .L62-.LFB1216
 1199 00d5 00       		.uleb128 0
 1200 00d6 E00B     		.uleb128 .LEHB39-.LFB1216
 1201 00d8 05       		.uleb128 .LEHE39-.LEHB39
 1202 00d9 DC0C     		.uleb128 .L50-.LFB1216
 1203 00db 00       		.uleb128 0
 1204 00dc 840C     		.uleb128 .LEHB40-.LFB1216
 1205 00de 40       		.uleb128 .LEHE40-.LEHB40
 1206 00df CE0C     		.uleb128 .L64-.LFB1216
 1207 00e1 00       		.uleb128 0
 1208 00e2 C40C     		.uleb128 .LEHB41-.LFB1216
 1209 00e4 05       		.uleb128 .LEHE41-.LEHB41
 1210 00e5 DC0C     		.uleb128 .L50-.LFB1216
 1211 00e7 00       		.uleb128 0
 1212 00e8 F80C     		.uleb128 .LEHB42-.LFB1216
 1213 00ea 05       		.uleb128 .LEHE42-.LEHB42
 1214 00eb 00       		.uleb128 0
 1215 00ec 00       		.uleb128 0
 1216              	.LLSDACSE1216:
 1217 00ed 01       		.byte	0x1
 1218 00ee 00       		.byte	0
 1219 00ef 00       		.align 4
 1220 00f0 00000000 		.long	0
 1221              	
 1222              	.LLSDATT1216:
 1223              		.text
 1225              		.section	.rodata
 1226              	.LC13:
 1227 0210 42696E49 		.string	"BinIO_testWriteFile"
 1227      4F5F7465 
 1227      73745772 
 1227      69746546 
 1227      696C6500 
 1228              		.section	.text._ZN23TestBinIO_testWriteFileC2Ev,"axG",@progbits,_ZN23TestBinIO_testWriteFileC5Ev,c
 1229              		.align 2
 1230              		.weak	_ZN23TestBinIO_testWriteFileC2Ev
 1232              	_ZN23TestBinIO_testWriteFileC2Ev:
 1233              	.LFB1218:
  53:testBinIO.cpp **** 
  54:testBinIO.cpp **** TEST(BinIO_testWriteFile) {
 1234              		.loc 4 54 1
 1235              		.cfi_startproc
 1236 0000 F30F1EFA 		endbr64
 1237 0004 55       		pushq	%rbp
 1238              		.cfi_def_cfa_offset 16
 1239              		.cfi_offset 6, -16
 1240 0005 4889E5   		movq	%rsp, %rbp
 1241              		.cfi_def_cfa_register 6
 1242 0008 53       		pushq	%rbx
 1243 0009 4883EC18 		subq	$24, %rsp
 1244              		.cfi_offset 3, -24
 1245 000d 48897DE8 		movq	%rdi, -24(%rbp)
 1246              	.LBB6:
 1247              		.loc 4 54 1
 1248 0011 488B5DE8 		movq	-24(%rbp), %rbx
 1249 0015 E8000000 		call	_ZN13UnitTestSuite12GetSuiteNameEv
 1249      00
 1250 001a 4889C2   		movq	%rax, %rdx
 1251 001d 41B83600 		movl	$54, %r8d
 1251      0000
 1252 0023 488D0500 		leaq	.LC1(%rip), %rax
 1252      000000
 1253 002a 4889C1   		movq	%rax, %rcx
 1254 002d 488D0500 		leaq	.LC13(%rip), %rax
 1254      000000
 1255 0034 4889C6   		movq	%rax, %rsi
 1256 0037 4889DF   		movq	%rbx, %rdi
 1257 003a E8000000 		call	_ZN8UnitTest4TestC2EPKcS2_S2_i@PLT
 1257      00
 1258 003f 488D1500 		leaq	16+_ZTV23TestBinIO_testWriteFile(%rip), %rdx
 1258      000000
 1259 0046 488B45E8 		movq	-24(%rbp), %rax
 1260 004a 488910   		movq	%rdx, (%rax)
 1261              	.LBE6:
 1262 004d 90       		nop
 1263 004e 488B5DF8 		movq	-8(%rbp), %rbx
 1264 0052 C9       		leave
 1265              		.cfi_def_cfa 7, 8
 1266 0053 C3       		ret
 1267              		.cfi_endproc
 1268              	.LFE1218:
 1270              		.weak	_ZN23TestBinIO_testWriteFileC1Ev
 1271              		.set	_ZN23TestBinIO_testWriteFileC1Ev,_ZN23TestBinIO_testWriteFileC2Ev
 1272              		.globl	testBinIO_testWriteFileInstance
 1273              		.bss
 1274 0079 00000000 		.align 32
 1274      000000
 1277              	testBinIO_testWriteFileInstance:
 1278 0080 00000000 		.zero	56
 1278      00000000 
 1278      00000000 
 1278      00000000 
 1278      00000000 
 1279              		.globl	adderBinIO_testWriteFile
 1282              	adderBinIO_testWriteFile:
 1283 00b8 00       		.zero	1
 1284              		.section	.rodata
 1285              	.LC14:
 1286 0224 66696C65 		.string	"file.is_open()"
 1286      2E69735F 
 1286      6F70656E 
 1286      282900
 1287 0233 00000000 		.align 8
 1287      00
 1288              	.LC15:
 1289 0238 556E6861 		.string	"Unhandled exception in CHECK(file.is_open())"
 1289      6E646C65 
 1289      64206578 
 1289      63657074 
 1289      696F6E20 
 1290 0265 000000   		.align 8
 1291              	.LC16:
 1292 0268 556E6861 		.string	"Unhandled exception in CHECK_EQUAL(strlen(DATA), (size_t)length)"
 1292      6E646C65 
 1292      64206578 
 1292      63657074 
 1292      696F6E20 
 1293 02a9 00000000 		.align 8
 1293      000000
 1294              	.LC17:
 1295 02b0 556E6861 		.string	"Unhandled exception in CHECK_ARRAY_EQUAL(DATA, fileData)"
 1295      6E646C65 
 1295      64206578 
 1295      63657074 
 1295      696F6E20 
 1296 02e9 00000000 		.align 8
 1296      000000
 1297              	.LC18:
 1298 02f0 556E6861 		.string	"Unhandled exception in CHECK_EQUAL(9, length)"
 1298      6E646C65 
 1298      64206578 
 1298      63657074 
 1298      696F6E20 
 1299 031e 0000     		.align 8
 1300              	.LC19:
 1301 0320 556E6861 		.string	"Unhandled exception in CHECK_ARRAY_EQUAL(DATA+5, fileData)"
 1301      6E646C65 
 1301      64206578 
 1301      63657074 
 1301      696F6E20 
 1302              		.text
 1303              		.align 2
 1304              		.globl	_ZNK23TestBinIO_testWriteFile7RunImplEv
 1306              	_ZNK23TestBinIO_testWriteFile7RunImplEv:
 1307              	.LFB1220:
 1308              		.loc 4 54 27
 1309              		.cfi_startproc
 1310              		.cfi_personality 0x9b,DW.ref.__gxx_personality_v0
 1311              		.cfi_lsda 0x1b,.LLSDA1220
 1312 0860 F30F1EFA 		endbr64
 1313 0864 55       		pushq	%rbp
 1314              		.cfi_def_cfa_offset 16
 1315              		.cfi_offset 6, -16
 1316 0865 4889E5   		movq	%rsp, %rbp
 1317              		.cfi_def_cfa_register 6
 1318 0868 53       		pushq	%rbx
 1319 0869 4881ECB8 		subq	$696, %rsp
 1319      020000
 1320              		.cfi_offset 3, -24
 1321 0870 4889BD48 		movq	%rdi, -696(%rbp)
 1321      FDFFFF
 1322              		.loc 4 54 27
 1323 0877 64488B04 		movq	%fs:40, %rax
 1323      25280000 
 1323      00
 1324 0880 488945E8 		movq	%rax, -24(%rbp)
 1325 0884 31C0     		xorl	%eax, %eax
  55:testBinIO.cpp **** 	const char *const FILENAME = "tmpFile.bin";
 1326              		.loc 4 55 20
 1327 0886 488D0500 		leaq	.LC7(%rip), %rax
 1327      000000
 1328 088d 48898578 		movq	%rax, -648(%rbp)
 1328      FDFFFF
  56:testBinIO.cpp **** 	const char *const DATA = "Just some test data";
 1329              		.loc 4 56 20
 1330 0894 488D0500 		leaq	.LC8(%rip), %rax
 1330      000000
 1331 089b 48898558 		movq	%rax, -680(%rbp)
 1331      FDFFFF
  57:testBinIO.cpp **** 	ifstream file;
 1332              		.loc 4 57 11
 1333 08a2 488D85E0 		leaq	-544(%rbp), %rax
 1333      FDFFFF
 1334 08a9 4889C7   		movq	%rax, %rdi
 1335              	.LEHB43:
 1336 08ac E8000000 		call	_ZNSt14basic_ifstreamIcSt11char_traitsIcEEC1Ev@PLT
 1336      00
 1337              	.LEHE43:
  58:testBinIO.cpp **** 	streamoff length;
  59:testBinIO.cpp **** 	//ifstream::pos_type length;
  60:testBinIO.cpp **** 	char *fileData;
  61:testBinIO.cpp **** 	Buffer buf;
  62:testBinIO.cpp **** 	BufferStatus status = bufInitialise(&buf, 8, 0, NULL);
 1338              		.loc 4 62 37
 1339 08b1 488D8580 		leaq	-640(%rbp), %rax
 1339      FDFFFF
 1340 08b8 B9000000 		movl	$0, %ecx
 1340      00
 1341 08bd BA000000 		movl	$0, %edx
 1341      00
 1342 08c2 BE080000 		movl	$8, %esi
 1342      00
 1343 08c7 4889C7   		movq	%rax, %rdi
 1344              	.LEHB44:
 1345 08ca E8000000 		call	bufInitialise@PLT
 1345      00
 1346              	.LEHE44:
 1347              		.loc 4 62 54
 1348 08cf 898554FD 		movl	%eax, -684(%rbp)
 1348      FFFF
 1349              	.LEHB45:
  63:testBinIO.cpp **** 	CHECK_EQUAL(BUF_SUCCESS, status);
 1350              		.loc 4 63 2
 1351 08d5 E8000000 		call	_ZN8UnitTest11CurrentTest7DetailsEv@PLT
 1351      00
 1352              		.loc 4 63 2 is_stmt 0 discriminator 1
 1353 08da 488B08   		movq	(%rax), %rcx
 1354 08dd 488D85A0 		leaq	-608(%rbp), %rax
 1354      FDFFFF
 1355 08e4 BA3F0000 		movl	$63, %edx
 1355      00
 1356 08e9 4889CE   		movq	%rcx, %rsi
 1357 08ec 4889C7   		movq	%rax, %rdi
 1358 08ef E8000000 		call	_ZN8UnitTest11TestDetailsC1ERKS0_i@PLT
 1358      00
 1359              		.loc 4 63 2 discriminator 4
 1360 08f4 C78570FD 		movl	$0, -656(%rbp)
 1360      FFFF0000 
 1360      0000
 1361 08fe E8000000 		call	_ZN8UnitTest11CurrentTest7ResultsEv@PLT
 1361      00
 1362 0903 488B00   		movq	(%rax), %rax
 1363 0906 488D8DA0 		leaq	-608(%rbp), %rcx
 1363      FDFFFF
 1364 090d 488D9554 		leaq	-684(%rbp), %rdx
 1364      FDFFFF
 1365 0914 488DB570 		leaq	-656(%rbp), %rsi
 1365      FDFFFF
 1366 091b 4889C7   		movq	%rax, %rdi
 1367 091e E8000000 		call	_ZN8UnitTest10CheckEqualI12BufferStatusS1_EEvRNS_11TestResultsERKT_RKT0_RKNS_11TestDetailsE
 1367      00
 1368              	.LEHE45:
 1369              	.L72:
  64:testBinIO.cpp **** 	status = bufAppendBlock(&buf, (const uint8 *)DATA, strlen(DATA), NULL);
 1370              		.loc 4 64 25 is_stmt 1
 1371 0923 488D8580 		leaq	-640(%rbp), %rax
 1371      FDFFFF
 1372 092a B9000000 		movl	$0, %ecx
 1372      00
 1373 092f BA130000 		movl	$19, %edx
 1373      00
 1374 0934 488D3500 		leaq	.LC8(%rip), %rsi
 1374      000000
 1375 093b 4889C7   		movq	%rax, %rdi
 1376              	.LEHB46:
 1377 093e E8000000 		call	bufAppendBlock@PLT
 1377      00
 1378              	.LEHE46:
 1379              		.loc 4 64 9
 1380 0943 898554FD 		movl	%eax, -684(%rbp)
 1380      FFFF
 1381              	.LEHB47:
  65:testBinIO.cpp **** 	CHECK_EQUAL(BUF_SUCCESS, status);
 1382              		.loc 4 65 2
 1383 0949 E8000000 		call	_ZN8UnitTest11CurrentTest7DetailsEv@PLT
 1383      00
 1384              		.loc 4 65 2 is_stmt 0 discriminator 1
 1385 094e 488B08   		movq	(%rax), %rcx
 1386 0951 488D85A0 		leaq	-608(%rbp), %rax
 1386      FDFFFF
 1387 0958 BA410000 		movl	$65, %edx
 1387      00
 1388 095d 4889CE   		movq	%rcx, %rsi
 1389 0960 4889C7   		movq	%rax, %rdi
 1390 0963 E8000000 		call	_ZN8UnitTest11TestDetailsC1ERKS0_i@PLT
 1390      00
 1391              		.loc 4 65 2 discriminator 4
 1392 0968 C78570FD 		movl	$0, -656(%rbp)
 1392      FFFF0000 
 1392      0000
 1393 0972 E8000000 		call	_ZN8UnitTest11CurrentTest7ResultsEv@PLT
 1393      00
 1394 0977 488B00   		movq	(%rax), %rax
 1395 097a 488D8DA0 		leaq	-608(%rbp), %rcx
 1395      FDFFFF
 1396 0981 488D9554 		leaq	-684(%rbp), %rdx
 1396      FDFFFF
 1397 0988 488DB570 		leaq	-656(%rbp), %rsi
 1397      FDFFFF
 1398 098f 4889C7   		movq	%rax, %rdi
 1399 0992 E8000000 		call	_ZN8UnitTest10CheckEqualI12BufferStatusS1_EEvRNS_11TestResultsERKT_RKT0_RKNS_11TestDetailsE
 1399      00
 1400              	.LEHE47:
 1401              	.L76:
  66:testBinIO.cpp **** 
  67:testBinIO.cpp **** 	status = bufWriteBinaryFile(&buf, FILENAME, 0, buf.length, NULL);
 1402              		.loc 4 67 29 is_stmt 1
 1403 0997 488B9588 		movq	-632(%rbp), %rdx
 1403      FDFFFF
 1404 099e 488D8580 		leaq	-640(%rbp), %rax
 1404      FDFFFF
 1405 09a5 41B80000 		movl	$0, %r8d
 1405      0000
 1406 09ab 4889D1   		movq	%rdx, %rcx
 1407 09ae BA000000 		movl	$0, %edx
 1407      00
 1408 09b3 488D3500 		leaq	.LC7(%rip), %rsi
 1408      000000
 1409 09ba 4889C7   		movq	%rax, %rdi
 1410              	.LEHB48:
 1411 09bd E8000000 		call	bufWriteBinaryFile@PLT
 1411      00
 1412              	.LEHE48:
 1413              		.loc 4 67 9
 1414 09c2 898554FD 		movl	%eax, -684(%rbp)
 1414      FFFF
 1415              	.LEHB49:
  68:testBinIO.cpp **** 	CHECK_EQUAL(BUF_SUCCESS, status);
 1416              		.loc 4 68 2
 1417 09c8 E8000000 		call	_ZN8UnitTest11CurrentTest7DetailsEv@PLT
 1417      00
 1418              		.loc 4 68 2 is_stmt 0 discriminator 1
 1419 09cd 488B08   		movq	(%rax), %rcx
 1420 09d0 488D85A0 		leaq	-608(%rbp), %rax
 1420      FDFFFF
 1421 09d7 BA440000 		movl	$68, %edx
 1421      00
 1422 09dc 4889CE   		movq	%rcx, %rsi
 1423 09df 4889C7   		movq	%rax, %rdi
 1424 09e2 E8000000 		call	_ZN8UnitTest11TestDetailsC1ERKS0_i@PLT
 1424      00
 1425              		.loc 4 68 2 discriminator 4
 1426 09e7 C78570FD 		movl	$0, -656(%rbp)
 1426      FFFF0000 
 1426      0000
 1427 09f1 E8000000 		call	_ZN8UnitTest11CurrentTest7ResultsEv@PLT
 1427      00
 1428 09f6 488B00   		movq	(%rax), %rax
 1429 09f9 488D8DA0 		leaq	-608(%rbp), %rcx
 1429      FDFFFF
 1430 0a00 488D9554 		leaq	-684(%rbp), %rdx
 1430      FDFFFF
 1431 0a07 488DB570 		leaq	-656(%rbp), %rsi
 1431      FDFFFF
 1432 0a0e 4889C7   		movq	%rax, %rdi
 1433 0a11 E8000000 		call	_ZN8UnitTest10CheckEqualI12BufferStatusS1_EEvRNS_11TestResultsERKT_RKT0_RKNS_11TestDetailsE
 1433      00
 1434              	.LEHE49:
 1435              	.L79:
  69:testBinIO.cpp **** 	file.open(FILENAME, ios::in|ios::binary|ios::ate);
 1436              		.loc 4 69 11 is_stmt 1
 1437 0a16 BE040000 		movl	$4, %esi
 1437      00
 1438 0a1b BF080000 		movl	$8, %edi
 1438      00
 1439 0a20 E8000000 		call	_ZStorSt13_Ios_OpenmodeS_
 1439      00
 1440 0a25 BE020000 		movl	$2, %esi
 1440      00
 1441 0a2a 89C7     		movl	%eax, %edi
 1442 0a2c E8000000 		call	_ZStorSt13_Ios_OpenmodeS_
 1442      00
 1443 0a31 89C2     		movl	%eax, %edx
 1444 0a33 488D85E0 		leaq	-544(%rbp), %rax
 1444      FDFFFF
 1445 0a3a 488D0D00 		leaq	.LC7(%rip), %rcx
 1445      000000
 1446 0a41 4889CE   		movq	%rcx, %rsi
 1447 0a44 4889C7   		movq	%rax, %rdi
 1448              	.LEHB50:
 1449 0a47 E8000000 		call	_ZNSt14basic_ifstreamIcSt11char_traitsIcEE4openEPKcSt13_Ios_Openmode@PLT
 1449      00
 1450              	.LEHE50:
  70:testBinIO.cpp **** 	CHECK(file.is_open());
 1451              		.loc 4 70 2
 1452 0a4c 488D85E0 		leaq	-544(%rbp), %rax
 1452      FDFFFF
 1453 0a53 4889C7   		movq	%rax, %rdi
 1454              	.LEHB51:
 1455 0a56 E8000000 		call	_ZNSt14basic_ifstreamIcSt11char_traitsIcEE7is_openEv@PLT
 1455      00
 1456 0a5b 0FB6C0   		movzbl	%al, %eax
 1457 0a5e 89C7     		movl	%eax, %edi
 1458 0a60 E8000000 		call	_ZN8UnitTest5CheckIbEEbT_
 1458      00
 1459 0a65 83F001   		xorl	$1, %eax
 1460 0a68 84C0     		testb	%al, %al
 1461 0a6a 7440     		je	.L68
 1462              		.loc 4 70 2 is_stmt 0 discriminator 3
 1463 0a6c E8000000 		call	_ZN8UnitTest11CurrentTest7ResultsEv@PLT
 1463      00
 1464 0a71 488B18   		movq	(%rax), %rbx
 1465 0a74 E8000000 		call	_ZN8UnitTest11CurrentTest7DetailsEv@PLT
 1465      00
 1466              		.loc 4 70 2 discriminator 5
 1467 0a79 488B08   		movq	(%rax), %rcx
 1468 0a7c 488D85A0 		leaq	-608(%rbp), %rax
 1468      FDFFFF
 1469 0a83 BA460000 		movl	$70, %edx
 1469      00
 1470 0a88 4889CE   		movq	%rcx, %rsi
 1471 0a8b 4889C7   		movq	%rax, %rdi
 1472 0a8e E8000000 		call	_ZN8UnitTest11TestDetailsC1ERKS0_i@PLT
 1472      00
 1473              		.loc 4 70 2 discriminator 9
 1474 0a93 488D85A0 		leaq	-608(%rbp), %rax
 1474      FDFFFF
 1475 0a9a 488D1500 		leaq	.LC14(%rip), %rdx
 1475      000000
 1476 0aa1 4889C6   		movq	%rax, %rsi
 1477 0aa4 4889DF   		movq	%rbx, %rdi
 1478 0aa7 E8000000 		call	_ZN8UnitTest11TestResults13OnTestFailureERKNS_11TestDetailsEPKc@PLT
 1478      00
 1479              	.LEHE51:
 1480              	.L68:
  71:testBinIO.cpp **** 	length = file.tellg();
 1481              		.loc 4 71 21 is_stmt 1
 1482 0aac 488D85E0 		leaq	-544(%rbp), %rax
 1482      FDFFFF
 1483 0ab3 4889C7   		movq	%rax, %rdi
 1484              	.LEHB52:
 1485 0ab6 E8000000 		call	_ZNSi5tellgEv@PLT
 1485      00
 1486              	.LEHE52:
 1487 0abb 488985C0 		movq	%rax, -576(%rbp)
 1487      FDFFFF
 1488 0ac2 488995C8 		movq	%rdx, -568(%rbp)
 1488      FDFFFF
 1489              		.loc 4 71 22
 1490 0ac9 488D85C0 		leaq	-576(%rbp), %rax
 1490      FDFFFF
 1491 0ad0 4889C7   		movq	%rax, %rdi
 1492 0ad3 E8000000 		call	_ZNKSt4fposI11__mbstate_tEcvlEv
 1492      00
 1493              		.loc 4 71 9
 1494 0ad8 48898560 		movq	%rax, -672(%rbp)
 1494      FDFFFF
 1495              	.LEHB53:
  72:testBinIO.cpp **** 	CHECK_EQUAL(strlen(DATA), (size_t)length);
 1496              		.loc 4 72 2
 1497 0adf E8000000 		call	_ZN8UnitTest11CurrentTest7DetailsEv@PLT
 1497      00
 1498              		.loc 4 72 2 is_stmt 0 discriminator 1
 1499 0ae4 488B08   		movq	(%rax), %rcx
 1500 0ae7 488D85A0 		leaq	-608(%rbp), %rax
 1500      FDFFFF
 1501 0aee BA480000 		movl	$72, %edx
 1501      00
 1502 0af3 4889CE   		movq	%rcx, %rsi
 1503 0af6 4889C7   		movq	%rax, %rdi
 1504 0af9 E8000000 		call	_ZN8UnitTest11TestDetailsC1ERKS0_i@PLT
 1504      00
 1505              		.loc 4 72 2 discriminator 4
 1506 0afe 488B8560 		movq	-672(%rbp), %rax
 1506      FDFFFF
 1507 0b05 48898570 		movq	%rax, -656(%rbp)
 1507      FDFFFF
 1508 0b0c 48C78568 		movq	$19, -664(%rbp)
 1508      FDFFFF13 
 1508      000000
 1509 0b17 E8000000 		call	_ZN8UnitTest11CurrentTest7ResultsEv@PLT
 1509      00
 1510 0b1c 488B00   		movq	(%rax), %rax
 1511 0b1f 488D8DA0 		leaq	-608(%rbp), %rcx
 1511      FDFFFF
 1512 0b26 488D9570 		leaq	-656(%rbp), %rdx
 1512      FDFFFF
 1513 0b2d 488DB568 		leaq	-664(%rbp), %rsi
 1513      FDFFFF
 1514 0b34 4889C7   		movq	%rax, %rdi
 1515 0b37 E8000000 		call	_ZN8UnitTest10CheckEqualImmEEvRNS_11TestResultsERKT_RKT0_RKNS_11TestDetailsE
 1515      00
 1516              	.LEHE53:
 1517              	.L84:
  73:testBinIO.cpp **** 	fileData = new char[(unsigned int)length];
 1518              		.loc 4 73 22 is_stmt 1
 1519 0b3c 488B8560 		movq	-672(%rbp), %rax
 1519      FDFFFF
 1520 0b43 89C0     		movl	%eax, %eax
 1521              		.loc 4 73 42
 1522 0b45 4889C7   		movq	%rax, %rdi
 1523              	.LEHB54:
 1524 0b48 E8000000 		call	_Znam@PLT
 1524      00
 1525              		.loc 4 73 11
 1526 0b4d 48898568 		movq	%rax, -664(%rbp)
 1526      FDFFFF
  74:testBinIO.cpp **** 	file.seekg(0, ios::beg);
 1527              		.loc 4 74 12
 1528 0b54 488D85E0 		leaq	-544(%rbp), %rax
 1528      FDFFFF
 1529 0b5b BA000000 		movl	$0, %edx
 1529      00
 1530 0b60 BE000000 		movl	$0, %esi
 1530      00
 1531 0b65 4889C7   		movq	%rax, %rdi
 1532 0b68 E8000000 		call	_ZNSi5seekgElSt12_Ios_Seekdir@PLT
 1532      00
  75:testBinIO.cpp **** 	file.read(fileData, (streamsize)length);
 1533              		.loc 4 75 11
 1534 0b6d 488B9560 		movq	-672(%rbp), %rdx
 1534      FDFFFF
 1535 0b74 488B8D68 		movq	-664(%rbp), %rcx
 1535      FDFFFF
 1536 0b7b 488D85E0 		leaq	-544(%rbp), %rax
 1536      FDFFFF
 1537 0b82 4889CE   		movq	%rcx, %rsi
 1538 0b85 4889C7   		movq	%rax, %rdi
 1539 0b88 E8000000 		call	_ZNSi4readEPcl@PLT
 1539      00
  76:testBinIO.cpp **** 	file.close();
 1540              		.loc 4 76 12
 1541 0b8d 488D85E0 		leaq	-544(%rbp), %rax
 1541      FDFFFF
 1542 0b94 4889C7   		movq	%rax, %rdi
 1543 0b97 E8000000 		call	_ZNSt14basic_ifstreamIcSt11char_traitsIcEE5closeEv@PLT
 1543      00
 1544              	.LEHE54:
 1545              	.LEHB55:
  77:testBinIO.cpp **** 	CHECK_ARRAY_EQUAL(DATA, fileData, (int)length);
 1546              		.loc 4 77 2
 1547 0b9c E8000000 		call	_ZN8UnitTest11CurrentTest7DetailsEv@PLT
 1547      00
 1548 0ba1 488B08   		movq	(%rax), %rcx
 1549 0ba4 488D85A0 		leaq	-608(%rbp), %rax
 1549      FDFFFF
 1550 0bab BA4D0000 		movl	$77, %edx
 1550      00
 1551 0bb0 4889CE   		movq	%rcx, %rsi
 1552 0bb3 4889C7   		movq	%rax, %rdi
 1553 0bb6 E8000000 		call	_ZN8UnitTest11TestDetailsC1ERKS0_i@PLT
 1553      00
 1554              		.loc 4 77 2 is_stmt 0 discriminator 4
 1555 0bbb 488B8560 		movq	-672(%rbp), %rax
 1555      FDFFFF
 1556 0bc2 89C3     		movl	%eax, %ebx
 1557 0bc4 E8000000 		call	_ZN8UnitTest11CurrentTest7ResultsEv@PLT
 1557      00
 1558 0bc9 488B00   		movq	(%rax), %rax
 1559 0bcc 488D8DA0 		leaq	-608(%rbp), %rcx
 1559      FDFFFF
 1560 0bd3 488D9568 		leaq	-664(%rbp), %rdx
 1560      FDFFFF
 1561 0bda 488DB558 		leaq	-680(%rbp), %rsi
 1561      FDFFFF
 1562 0be1 4989C8   		movq	%rcx, %r8
 1563 0be4 89D9     		movl	%ebx, %ecx
 1564 0be6 4889C7   		movq	%rax, %rdi
 1565 0be9 E8000000 		call	_ZN8UnitTest15CheckArrayEqualIPKcPcEEvRNS_11TestResultsERKT_RKT0_iRKNS_11TestDetailsE
 1565      00
 1566              	.LEHE55:
 1567              	.L87:
  78:testBinIO.cpp **** 
  79:testBinIO.cpp **** 	status = bufWriteBinaryFile(&buf, FILENAME, 5, 9, NULL);
 1568              		.loc 4 79 29 is_stmt 1
 1569 0bee 488D8580 		leaq	-640(%rbp), %rax
 1569      FDFFFF
 1570 0bf5 41B80000 		movl	$0, %r8d
 1570      0000
 1571 0bfb B9090000 		movl	$9, %ecx
 1571      00
 1572 0c00 BA050000 		movl	$5, %edx
 1572      00
 1573 0c05 488D3500 		leaq	.LC7(%rip), %rsi
 1573      000000
 1574 0c0c 4889C7   		movq	%rax, %rdi
 1575              	.LEHB56:
 1576 0c0f E8000000 		call	bufWriteBinaryFile@PLT
 1576      00
 1577              	.LEHE56:
 1578              		.loc 4 79 9
 1579 0c14 898554FD 		movl	%eax, -684(%rbp)
 1579      FFFF
 1580              	.LEHB57:
  80:testBinIO.cpp **** 	CHECK_EQUAL(BUF_SUCCESS, status);
 1581              		.loc 4 80 2
 1582 0c1a E8000000 		call	_ZN8UnitTest11CurrentTest7DetailsEv@PLT
 1582      00
 1583              		.loc 4 80 2 is_stmt 0 discriminator 1
 1584 0c1f 488B08   		movq	(%rax), %rcx
 1585 0c22 488D85A0 		leaq	-608(%rbp), %rax
 1585      FDFFFF
 1586 0c29 BA500000 		movl	$80, %edx
 1586      00
 1587 0c2e 4889CE   		movq	%rcx, %rsi
 1588 0c31 4889C7   		movq	%rax, %rdi
 1589 0c34 E8000000 		call	_ZN8UnitTest11TestDetailsC1ERKS0_i@PLT
 1589      00
 1590              		.loc 4 80 2 discriminator 4
 1591 0c39 C78570FD 		movl	$0, -656(%rbp)
 1591      FFFF0000 
 1591      0000
 1592 0c43 E8000000 		call	_ZN8UnitTest11CurrentTest7ResultsEv@PLT
 1592      00
 1593 0c48 488B00   		movq	(%rax), %rax
 1594 0c4b 488D8DA0 		leaq	-608(%rbp), %rcx
 1594      FDFFFF
 1595 0c52 488D9554 		leaq	-684(%rbp), %rdx
 1595      FDFFFF
 1596 0c59 488DB570 		leaq	-656(%rbp), %rsi
 1596      FDFFFF
 1597 0c60 4889C7   		movq	%rax, %rdi
 1598 0c63 E8000000 		call	_ZN8UnitTest10CheckEqualI12BufferStatusS1_EEvRNS_11TestResultsERKT_RKT0_RKNS_11TestDetailsE
 1598      00
 1599              	.LEHE57:
 1600              	.L90:
  81:testBinIO.cpp **** 	file.open(FILENAME, ios::in|ios::binary|ios::ate);
 1601              		.loc 4 81 11 is_stmt 1
 1602 0c68 BE040000 		movl	$4, %esi
 1602      00
 1603 0c6d BF080000 		movl	$8, %edi
 1603      00
 1604 0c72 E8000000 		call	_ZStorSt13_Ios_OpenmodeS_
 1604      00
 1605 0c77 BE020000 		movl	$2, %esi
 1605      00
 1606 0c7c 89C7     		movl	%eax, %edi
 1607 0c7e E8000000 		call	_ZStorSt13_Ios_OpenmodeS_
 1607      00
 1608 0c83 89C2     		movl	%eax, %edx
 1609 0c85 488D85E0 		leaq	-544(%rbp), %rax
 1609      FDFFFF
 1610 0c8c 488D0D00 		leaq	.LC7(%rip), %rcx
 1610      000000
 1611 0c93 4889CE   		movq	%rcx, %rsi
 1612 0c96 4889C7   		movq	%rax, %rdi
 1613              	.LEHB58:
 1614 0c99 E8000000 		call	_ZNSt14basic_ifstreamIcSt11char_traitsIcEE4openEPKcSt13_Ios_Openmode@PLT
 1614      00
 1615              	.LEHE58:
  82:testBinIO.cpp **** 	CHECK(file.is_open());
 1616              		.loc 4 82 2
 1617 0c9e 488D85E0 		leaq	-544(%rbp), %rax
 1617      FDFFFF
 1618 0ca5 4889C7   		movq	%rax, %rdi
 1619              	.LEHB59:
 1620 0ca8 E8000000 		call	_ZNSt14basic_ifstreamIcSt11char_traitsIcEE7is_openEv@PLT
 1620      00
 1621 0cad 0FB6C0   		movzbl	%al, %eax
 1622 0cb0 89C7     		movl	%eax, %edi
 1623 0cb2 E8000000 		call	_ZN8UnitTest5CheckIbEEbT_
 1623      00
 1624 0cb7 83F001   		xorl	$1, %eax
 1625 0cba 84C0     		testb	%al, %al
 1626 0cbc 7440     		je	.L69
 1627              		.loc 4 82 2 is_stmt 0 discriminator 3
 1628 0cbe E8000000 		call	_ZN8UnitTest11CurrentTest7ResultsEv@PLT
 1628      00
 1629 0cc3 488B18   		movq	(%rax), %rbx
 1630 0cc6 E8000000 		call	_ZN8UnitTest11CurrentTest7DetailsEv@PLT
 1630      00
 1631              		.loc 4 82 2 discriminator 5
 1632 0ccb 488B08   		movq	(%rax), %rcx
 1633 0cce 488D85A0 		leaq	-608(%rbp), %rax
 1633      FDFFFF
 1634 0cd5 BA520000 		movl	$82, %edx
 1634      00
 1635 0cda 4889CE   		movq	%rcx, %rsi
 1636 0cdd 4889C7   		movq	%rax, %rdi
 1637 0ce0 E8000000 		call	_ZN8UnitTest11TestDetailsC1ERKS0_i@PLT
 1637      00
 1638              		.loc 4 82 2 discriminator 9
 1639 0ce5 488D85A0 		leaq	-608(%rbp), %rax
 1639      FDFFFF
 1640 0cec 488D1500 		leaq	.LC14(%rip), %rdx
 1640      000000
 1641 0cf3 4889C6   		movq	%rax, %rsi
 1642 0cf6 4889DF   		movq	%rbx, %rdi
 1643 0cf9 E8000000 		call	_ZN8UnitTest11TestResults13OnTestFailureERKNS_11TestDetailsEPKc@PLT
 1643      00
 1644              	.LEHE59:
 1645              	.L69:
  83:testBinIO.cpp **** 	length = file.tellg();
 1646              		.loc 4 83 21 is_stmt 1
 1647 0cfe 488D85E0 		leaq	-544(%rbp), %rax
 1647      FDFFFF
 1648 0d05 4889C7   		movq	%rax, %rdi
 1649              	.LEHB60:
 1650 0d08 E8000000 		call	_ZNSi5tellgEv@PLT
 1650      00
 1651              	.LEHE60:
 1652 0d0d 488985D0 		movq	%rax, -560(%rbp)
 1652      FDFFFF
 1653 0d14 488995D8 		movq	%rdx, -552(%rbp)
 1653      FDFFFF
 1654              		.loc 4 83 22
 1655 0d1b 488D85D0 		leaq	-560(%rbp), %rax
 1655      FDFFFF
 1656 0d22 4889C7   		movq	%rax, %rdi
 1657 0d25 E8000000 		call	_ZNKSt4fposI11__mbstate_tEcvlEv
 1657      00
 1658              		.loc 4 83 9
 1659 0d2a 48898560 		movq	%rax, -672(%rbp)
 1659      FDFFFF
 1660              	.LEHB61:
  84:testBinIO.cpp **** 	CHECK_EQUAL(9, length);
 1661              		.loc 4 84 2
 1662 0d31 E8000000 		call	_ZN8UnitTest11CurrentTest7DetailsEv@PLT
 1662      00
 1663              		.loc 4 84 2 is_stmt 0 discriminator 1
 1664 0d36 488B08   		movq	(%rax), %rcx
 1665 0d39 488D85A0 		leaq	-608(%rbp), %rax
 1665      FDFFFF
 1666 0d40 BA540000 		movl	$84, %edx
 1666      00
 1667 0d45 4889CE   		movq	%rcx, %rsi
 1668 0d48 4889C7   		movq	%rax, %rdi
 1669 0d4b E8000000 		call	_ZN8UnitTest11TestDetailsC1ERKS0_i@PLT
 1669      00
 1670              		.loc 4 84 2 discriminator 4
 1671 0d50 C78570FD 		movl	$9, -656(%rbp)
 1671      FFFF0900 
 1671      0000
 1672 0d5a E8000000 		call	_ZN8UnitTest11CurrentTest7ResultsEv@PLT
 1672      00
 1673 0d5f 488B00   		movq	(%rax), %rax
 1674 0d62 488D8DA0 		leaq	-608(%rbp), %rcx
 1674      FDFFFF
 1675 0d69 488D9560 		leaq	-672(%rbp), %rdx
 1675      FDFFFF
 1676 0d70 488DB570 		leaq	-656(%rbp), %rsi
 1676      FDFFFF
 1677 0d77 4889C7   		movq	%rax, %rdi
 1678 0d7a E8000000 		call	_ZN8UnitTest10CheckEqualIilEEvRNS_11TestResultsERKT_RKT0_RKNS_11TestDetailsE
 1678      00
 1679              	.LEHE61:
 1680              	.L95:
  85:testBinIO.cpp **** 	file.seekg(0, ios::beg);
 1681              		.loc 4 85 12 is_stmt 1
 1682 0d7f 488D85E0 		leaq	-544(%rbp), %rax
 1682      FDFFFF
 1683 0d86 BA000000 		movl	$0, %edx
 1683      00
 1684 0d8b BE000000 		movl	$0, %esi
 1684      00
 1685 0d90 4889C7   		movq	%rax, %rdi
 1686              	.LEHB62:
 1687 0d93 E8000000 		call	_ZNSi5seekgElSt12_Ios_Seekdir@PLT
 1687      00
  86:testBinIO.cpp **** 	file.read(fileData, (streamsize)length);
 1688              		.loc 4 86 11
 1689 0d98 488B9560 		movq	-672(%rbp), %rdx
 1689      FDFFFF
 1690 0d9f 488B8D68 		movq	-664(%rbp), %rcx
 1690      FDFFFF
 1691 0da6 488D85E0 		leaq	-544(%rbp), %rax
 1691      FDFFFF
 1692 0dad 4889CE   		movq	%rcx, %rsi
 1693 0db0 4889C7   		movq	%rax, %rdi
 1694 0db3 E8000000 		call	_ZNSi4readEPcl@PLT
 1694      00
  87:testBinIO.cpp **** 	file.close();
 1695              		.loc 4 87 12
 1696 0db8 488D85E0 		leaq	-544(%rbp), %rax
 1696      FDFFFF
 1697 0dbf 4889C7   		movq	%rax, %rdi
 1698 0dc2 E8000000 		call	_ZNSt14basic_ifstreamIcSt11char_traitsIcEE5closeEv@PLT
 1698      00
 1699              	.LEHE62:
 1700              	.LEHB63:
  88:testBinIO.cpp **** 	CHECK_ARRAY_EQUAL(DATA+5, fileData, (int)length);
 1701              		.loc 4 88 2
 1702 0dc7 E8000000 		call	_ZN8UnitTest11CurrentTest7DetailsEv@PLT
 1702      00
 1703 0dcc 488B08   		movq	(%rax), %rcx
 1704 0dcf 488D85A0 		leaq	-608(%rbp), %rax
 1704      FDFFFF
 1705 0dd6 BA580000 		movl	$88, %edx
 1705      00
 1706 0ddb 4889CE   		movq	%rcx, %rsi
 1707 0dde 4889C7   		movq	%rax, %rdi
 1708 0de1 E8000000 		call	_ZN8UnitTest11TestDetailsC1ERKS0_i@PLT
 1708      00
 1709              		.loc 4 88 2 is_stmt 0 discriminator 4
 1710 0de6 488B8560 		movq	-672(%rbp), %rax
 1710      FDFFFF
 1711 0ded 89C3     		movl	%eax, %ebx
 1712 0def 488D0500 		leaq	5+.LC8(%rip), %rax
 1712      000000
 1713 0df6 48898570 		movq	%rax, -656(%rbp)
 1713      FDFFFF
 1714 0dfd E8000000 		call	_ZN8UnitTest11CurrentTest7ResultsEv@PLT
 1714      00
 1715 0e02 488B00   		movq	(%rax), %rax
 1716 0e05 488D8DA0 		leaq	-608(%rbp), %rcx
 1716      FDFFFF
 1717 0e0c 488D9568 		leaq	-664(%rbp), %rdx
 1717      FDFFFF
 1718 0e13 488DB570 		leaq	-656(%rbp), %rsi
 1718      FDFFFF
 1719 0e1a 4989C8   		movq	%rcx, %r8
 1720 0e1d 89D9     		movl	%ebx, %ecx
 1721 0e1f 4889C7   		movq	%rax, %rdi
 1722 0e22 E8000000 		call	_ZN8UnitTest15CheckArrayEqualIPKcPcEEvRNS_11TestResultsERKT_RKT0_iRKNS_11TestDetailsE
 1722      00
 1723              	.LEHE63:
 1724              	.L98:
  89:testBinIO.cpp **** 
  90:testBinIO.cpp **** 	delete[] fileData;
 1725              		.loc 4 90 2 is_stmt 1
 1726 0e27 488B8568 		movq	-664(%rbp), %rax
 1726      FDFFFF
 1727 0e2e 4885C0   		testq	%rax, %rax
 1728 0e31 740F     		je	.L70
 1729              		.loc 4 90 11 discriminator 1
 1730 0e33 488B8568 		movq	-664(%rbp), %rax
 1730      FDFFFF
 1731 0e3a 4889C7   		movq	%rax, %rdi
 1732 0e3d E8000000 		call	_ZdaPv@PLT
 1732      00
 1733              	.L70:
  91:testBinIO.cpp **** 	bufDestroy(&buf);
 1734              		.loc 4 91 12
 1735 0e42 488D8580 		leaq	-640(%rbp), %rax
 1735      FDFFFF
 1736 0e49 4889C7   		movq	%rax, %rdi
 1737              	.LEHB64:
 1738 0e4c E8000000 		call	bufDestroy@PLT
 1738      00
 1739              	.LEHE64:
  92:testBinIO.cpp **** }
 1740              		.loc 4 92 1
 1741 0e51 488D85E0 		leaq	-544(%rbp), %rax
 1741      FDFFFF
 1742 0e58 4889C7   		movq	%rax, %rdi
 1743              	.LEHB65:
 1744 0e5b E8000000 		call	_ZNSt14basic_ifstreamIcSt11char_traitsIcEED1Ev@PLT
 1744      00
 1745              	.LEHE65:
 1746 0e60 488B45E8 		movq	-24(%rbp), %rax
 1747 0e64 64482B04 		subq	%fs:40, %rax
 1747      25280000 
 1747      00
 1748 0e6d 0F842B04 		je	.L100
 1748      0000
 1749 0e73 E9210400 		jmp	.L122
 1749      00
 1750              	.L102:
 1751 0e78 F30F1EFA 		endbr64
  63:testBinIO.cpp **** 	status = bufAppendBlock(&buf, (const uint8 *)DATA, strlen(DATA), NULL);
 1752              		.loc 4 63 2
 1753 0e7c 4889C7   		movq	%rax, %rdi
 1754 0e7f E8000000 		call	__cxa_begin_catch@PLT
 1754      00
 1755              	.LEHB66:
 1756 0e84 E8000000 		call	_ZN8UnitTest11CurrentTest7ResultsEv@PLT
 1756      00
  63:testBinIO.cpp **** 	status = bufAppendBlock(&buf, (const uint8 *)DATA, strlen(DATA), NULL);
 1757              		.loc 4 63 2 is_stmt 0 discriminator 3
 1758 0e89 488B18   		movq	(%rax), %rbx
 1759 0e8c E8000000 		call	_ZN8UnitTest11CurrentTest7DetailsEv@PLT
 1759      00
  63:testBinIO.cpp **** 	status = bufAppendBlock(&buf, (const uint8 *)DATA, strlen(DATA), NULL);
 1760              		.loc 4 63 2 discriminator 11
 1761 0e91 488B08   		movq	(%rax), %rcx
 1762 0e94 488D85A0 		leaq	-608(%rbp), %rax
 1762      FDFFFF
 1763 0e9b BA3F0000 		movl	$63, %edx
 1763      00
 1764 0ea0 4889CE   		movq	%rcx, %rsi
 1765 0ea3 4889C7   		movq	%rax, %rdi
 1766 0ea6 E8000000 		call	_ZN8UnitTest11TestDetailsC1ERKS0_i@PLT
 1766      00
  63:testBinIO.cpp **** 	status = bufAppendBlock(&buf, (const uint8 *)DATA, strlen(DATA), NULL);
 1767              		.loc 4 63 2 discriminator 15
 1768 0eab 488D85A0 		leaq	-608(%rbp), %rax
 1768      FDFFFF
 1769 0eb2 488D1500 		leaq	.LC4(%rip), %rdx
 1769      000000
 1770 0eb9 4889C6   		movq	%rax, %rsi
 1771 0ebc 4889DF   		movq	%rbx, %rdi
 1772 0ebf E8000000 		call	_ZN8UnitTest11TestResults13OnTestFailureERKNS_11TestDetailsEPKc@PLT
 1772      00
 1773              	.LEHE66:
 1774              	.LEHB67:
  63:testBinIO.cpp **** 	status = bufAppendBlock(&buf, (const uint8 *)DATA, strlen(DATA), NULL);
 1775              		.loc 4 63 2 discriminator 17
 1776 0ec4 E8000000 		call	__cxa_end_catch@PLT
 1776      00
 1777              	.LEHE67:
  63:testBinIO.cpp **** 	status = bufAppendBlock(&buf, (const uint8 *)DATA, strlen(DATA), NULL);
 1778              		.loc 4 63 2
 1779 0ec9 E955FAFF 		jmp	.L72
 1779      FF
 1780              	.L103:
 1781 0ece F30F1EFA 		endbr64
 1782 0ed2 4889C3   		movq	%rax, %rbx
 1783 0ed5 E8000000 		call	__cxa_end_catch@PLT
 1783      00
 1784 0eda E9A00300 		jmp	.L74
 1784      00
 1785              	.L104:
 1786 0edf F30F1EFA 		endbr64
  65:testBinIO.cpp **** 
 1787              		.loc 4 65 2 is_stmt 1
 1788 0ee3 4889C7   		movq	%rax, %rdi
 1789 0ee6 E8000000 		call	__cxa_begin_catch@PLT
 1789      00
 1790              	.LEHB68:
 1791 0eeb E8000000 		call	_ZN8UnitTest11CurrentTest7ResultsEv@PLT
 1791      00
  65:testBinIO.cpp **** 
 1792              		.loc 4 65 2 is_stmt 0 discriminator 3
 1793 0ef0 488B18   		movq	(%rax), %rbx
 1794 0ef3 E8000000 		call	_ZN8UnitTest11CurrentTest7DetailsEv@PLT
 1794      00
  65:testBinIO.cpp **** 
 1795              		.loc 4 65 2 discriminator 11
 1796 0ef8 488B08   		movq	(%rax), %rcx
 1797 0efb 488D85A0 		leaq	-608(%rbp), %rax
 1797      FDFFFF
 1798 0f02 BA410000 		movl	$65, %edx
 1798      00
 1799 0f07 4889CE   		movq	%rcx, %rsi
 1800 0f0a 4889C7   		movq	%rax, %rdi
 1801 0f0d E8000000 		call	_ZN8UnitTest11TestDetailsC1ERKS0_i@PLT
 1801      00
  65:testBinIO.cpp **** 
 1802              		.loc 4 65 2 discriminator 15
 1803 0f12 488D85A0 		leaq	-608(%rbp), %rax
 1803      FDFFFF
 1804 0f19 488D1500 		leaq	.LC4(%rip), %rdx
 1804      000000
 1805 0f20 4889C6   		movq	%rax, %rsi
 1806 0f23 4889DF   		movq	%rbx, %rdi
 1807 0f26 E8000000 		call	_ZN8UnitTest11TestResults13OnTestFailureERKNS_11TestDetailsEPKc@PLT
 1807      00
 1808              	.LEHE68:
 1809              	.LEHB69:
  65:testBinIO.cpp **** 
 1810              		.loc 4 65 2 discriminator 17
 1811 0f2b E8000000 		call	__cxa_end_catch@PLT
 1811      00
 1812              	.LEHE69:
  65:testBinIO.cpp **** 
 1813              		.loc 4 65 2
 1814 0f30 E962FAFF 		jmp	.L76
 1814      FF
 1815              	.L105:
 1816 0f35 F30F1EFA 		endbr64
 1817 0f39 4889C3   		movq	%rax, %rbx
 1818 0f3c E8000000 		call	__cxa_end_catch@PLT
 1818      00
 1819 0f41 E9390300 		jmp	.L74
 1819      00
 1820              	.L106:
 1821 0f46 F30F1EFA 		endbr64
  68:testBinIO.cpp **** 	file.open(FILENAME, ios::in|ios::binary|ios::ate);
 1822              		.loc 4 68 2 is_stmt 1
 1823 0f4a 4889C7   		movq	%rax, %rdi
 1824 0f4d E8000000 		call	__cxa_begin_catch@PLT
 1824      00
 1825              	.LEHB70:
 1826 0f52 E8000000 		call	_ZN8UnitTest11CurrentTest7ResultsEv@PLT
 1826      00
  68:testBinIO.cpp **** 	file.open(FILENAME, ios::in|ios::binary|ios::ate);
 1827              		.loc 4 68 2 is_stmt 0 discriminator 3
 1828 0f57 488B18   		movq	(%rax), %rbx
 1829 0f5a E8000000 		call	_ZN8UnitTest11CurrentTest7DetailsEv@PLT
 1829      00
  68:testBinIO.cpp **** 	file.open(FILENAME, ios::in|ios::binary|ios::ate);
 1830              		.loc 4 68 2 discriminator 11
 1831 0f5f 488B08   		movq	(%rax), %rcx
 1832 0f62 488D85A0 		leaq	-608(%rbp), %rax
 1832      FDFFFF
 1833 0f69 BA440000 		movl	$68, %edx
 1833      00
 1834 0f6e 4889CE   		movq	%rcx, %rsi
 1835 0f71 4889C7   		movq	%rax, %rdi
 1836 0f74 E8000000 		call	_ZN8UnitTest11TestDetailsC1ERKS0_i@PLT
 1836      00
  68:testBinIO.cpp **** 	file.open(FILENAME, ios::in|ios::binary|ios::ate);
 1837              		.loc 4 68 2 discriminator 15
 1838 0f79 488D85A0 		leaq	-608(%rbp), %rax
 1838      FDFFFF
 1839 0f80 488D1500 		leaq	.LC4(%rip), %rdx
 1839      000000
 1840 0f87 4889C6   		movq	%rax, %rsi
 1841 0f8a 4889DF   		movq	%rbx, %rdi
 1842 0f8d E8000000 		call	_ZN8UnitTest11TestResults13OnTestFailureERKNS_11TestDetailsEPKc@PLT
 1842      00
 1843              	.LEHE70:
 1844              	.LEHB71:
  68:testBinIO.cpp **** 	file.open(FILENAME, ios::in|ios::binary|ios::ate);
 1845              		.loc 4 68 2 discriminator 17
 1846 0f92 E8000000 		call	__cxa_end_catch@PLT
 1846      00
 1847              	.LEHE71:
  68:testBinIO.cpp **** 	file.open(FILENAME, ios::in|ios::binary|ios::ate);
 1848              		.loc 4 68 2
 1849 0f97 E97AFAFF 		jmp	.L79
 1849      FF
 1850              	.L107:
 1851 0f9c F30F1EFA 		endbr64
 1852 0fa0 4889C3   		movq	%rax, %rbx
 1853 0fa3 E8000000 		call	__cxa_end_catch@PLT
 1853      00
 1854 0fa8 E9D20200 		jmp	.L74
 1854      00
 1855              	.L108:
 1856 0fad F30F1EFA 		endbr64
  70:testBinIO.cpp **** 	length = file.tellg();
 1857              		.loc 4 70 2 is_stmt 1
 1858 0fb1 4889C7   		movq	%rax, %rdi
 1859 0fb4 E8000000 		call	__cxa_begin_catch@PLT
 1859      00
 1860              	.LEHB72:
 1861 0fb9 E8000000 		call	_ZN8UnitTest11CurrentTest7ResultsEv@PLT
 1861      00
  70:testBinIO.cpp **** 	length = file.tellg();
 1862              		.loc 4 70 2 is_stmt 0 discriminator 8
 1863 0fbe 488B18   		movq	(%rax), %rbx
 1864 0fc1 E8000000 		call	_ZN8UnitTest11CurrentTest7DetailsEv@PLT
 1864      00
  70:testBinIO.cpp **** 	length = file.tellg();
 1865              		.loc 4 70 2 discriminator 14
 1866 0fc6 488B08   		movq	(%rax), %rcx
 1867 0fc9 488D85A0 		leaq	-608(%rbp), %rax
 1867      FDFFFF
 1868 0fd0 BA460000 		movl	$70, %edx
 1868      00
 1869 0fd5 4889CE   		movq	%rcx, %rsi
 1870 0fd8 4889C7   		movq	%rax, %rdi
 1871 0fdb E8000000 		call	_ZN8UnitTest11TestDetailsC1ERKS0_i@PLT
 1871      00
  70:testBinIO.cpp **** 	length = file.tellg();
 1872              		.loc 4 70 2 discriminator 18
 1873 0fe0 488D85A0 		leaq	-608(%rbp), %rax
 1873      FDFFFF
 1874 0fe7 488D1500 		leaq	.LC15(%rip), %rdx
 1874      000000
 1875 0fee 4889C6   		movq	%rax, %rsi
 1876 0ff1 4889DF   		movq	%rbx, %rdi
 1877 0ff4 E8000000 		call	_ZN8UnitTest11TestResults13OnTestFailureERKNS_11TestDetailsEPKc@PLT
 1877      00
 1878              	.LEHE72:
 1879              	.LEHB73:
  70:testBinIO.cpp **** 	length = file.tellg();
 1880              		.loc 4 70 2 discriminator 20
 1881 0ff9 E8000000 		call	__cxa_end_catch@PLT
 1881      00
 1882              	.LEHE73:
  70:testBinIO.cpp **** 	length = file.tellg();
 1883              		.loc 4 70 2
 1884 0ffe E9A9FAFF 		jmp	.L68
 1884      FF
 1885              	.L109:
 1886 1003 F30F1EFA 		endbr64
 1887 1007 4889C3   		movq	%rax, %rbx
 1888 100a E8000000 		call	__cxa_end_catch@PLT
 1888      00
 1889 100f E96B0200 		jmp	.L74
 1889      00
 1890              	.L110:
 1891 1014 F30F1EFA 		endbr64
  72:testBinIO.cpp **** 	fileData = new char[(unsigned int)length];
 1892              		.loc 4 72 2 is_stmt 1
 1893 1018 4889C7   		movq	%rax, %rdi
 1894 101b E8000000 		call	__cxa_begin_catch@PLT
 1894      00
 1895              	.LEHB74:
 1896 1020 E8000000 		call	_ZN8UnitTest11CurrentTest7ResultsEv@PLT
 1896      00
  72:testBinIO.cpp **** 	fileData = new char[(unsigned int)length];
 1897              		.loc 4 72 2 is_stmt 0 discriminator 3
 1898 1025 488B18   		movq	(%rax), %rbx
 1899 1028 E8000000 		call	_ZN8UnitTest11CurrentTest7DetailsEv@PLT
 1899      00
  72:testBinIO.cpp **** 	fileData = new char[(unsigned int)length];
 1900              		.loc 4 72 2 discriminator 11
 1901 102d 488B08   		movq	(%rax), %rcx
 1902 1030 488D85A0 		leaq	-608(%rbp), %rax
 1902      FDFFFF
 1903 1037 BA480000 		movl	$72, %edx
 1903      00
 1904 103c 4889CE   		movq	%rcx, %rsi
 1905 103f 4889C7   		movq	%rax, %rdi
 1906 1042 E8000000 		call	_ZN8UnitTest11TestDetailsC1ERKS0_i@PLT
 1906      00
  72:testBinIO.cpp **** 	fileData = new char[(unsigned int)length];
 1907              		.loc 4 72 2 discriminator 15
 1908 1047 488D85A0 		leaq	-608(%rbp), %rax
 1908      FDFFFF
 1909 104e 488D1500 		leaq	.LC16(%rip), %rdx
 1909      000000
 1910 1055 4889C6   		movq	%rax, %rsi
 1911 1058 4889DF   		movq	%rbx, %rdi
 1912 105b E8000000 		call	_ZN8UnitTest11TestResults13OnTestFailureERKNS_11TestDetailsEPKc@PLT
 1912      00
 1913              	.LEHE74:
 1914              	.LEHB75:
  72:testBinIO.cpp **** 	fileData = new char[(unsigned int)length];
 1915              		.loc 4 72 2 discriminator 17
 1916 1060 E8000000 		call	__cxa_end_catch@PLT
 1916      00
 1917              	.LEHE75:
  72:testBinIO.cpp **** 	fileData = new char[(unsigned int)length];
 1918              		.loc 4 72 2
 1919 1065 E9D2FAFF 		jmp	.L84
 1919      FF
 1920              	.L111:
 1921 106a F30F1EFA 		endbr64
 1922 106e 4889C3   		movq	%rax, %rbx
 1923 1071 E8000000 		call	__cxa_end_catch@PLT
 1923      00
 1924 1076 E9040200 		jmp	.L74
 1924      00
 1925              	.L112:
 1926 107b F30F1EFA 		endbr64
  77:testBinIO.cpp **** 
 1927              		.loc 4 77 2 is_stmt 1
 1928 107f 4889C7   		movq	%rax, %rdi
 1929 1082 E8000000 		call	__cxa_begin_catch@PLT
 1929      00
 1930              	.LEHB76:
 1931 1087 E8000000 		call	_ZN8UnitTest11CurrentTest7ResultsEv@PLT
 1931      00
  77:testBinIO.cpp **** 
 1932              		.loc 4 77 2 is_stmt 0 discriminator 3
 1933 108c 488B18   		movq	(%rax), %rbx
 1934 108f E8000000 		call	_ZN8UnitTest11CurrentTest7DetailsEv@PLT
 1934      00
  77:testBinIO.cpp **** 
 1935              		.loc 4 77 2 discriminator 11
 1936 1094 488B08   		movq	(%rax), %rcx
 1937 1097 488D85A0 		leaq	-608(%rbp), %rax
 1937      FDFFFF
 1938 109e BA4D0000 		movl	$77, %edx
 1938      00
 1939 10a3 4889CE   		movq	%rcx, %rsi
 1940 10a6 4889C7   		movq	%rax, %rdi
 1941 10a9 E8000000 		call	_ZN8UnitTest11TestDetailsC1ERKS0_i@PLT
 1941      00
  77:testBinIO.cpp **** 
 1942              		.loc 4 77 2 discriminator 15
 1943 10ae 488D85A0 		leaq	-608(%rbp), %rax
 1943      FDFFFF
 1944 10b5 488D1500 		leaq	.LC17(%rip), %rdx
 1944      000000
 1945 10bc 4889C6   		movq	%rax, %rsi
 1946 10bf 4889DF   		movq	%rbx, %rdi
 1947 10c2 E8000000 		call	_ZN8UnitTest11TestResults13OnTestFailureERKNS_11TestDetailsEPKc@PLT
 1947      00
 1948              	.LEHE76:
 1949              	.LEHB77:
  77:testBinIO.cpp **** 
 1950              		.loc 4 77 2 discriminator 17
 1951 10c7 E8000000 		call	__cxa_end_catch@PLT
 1951      00
 1952              	.LEHE77:
  77:testBinIO.cpp **** 
 1953              		.loc 4 77 2
 1954 10cc E91DFBFF 		jmp	.L87
 1954      FF
 1955              	.L113:
 1956 10d1 F30F1EFA 		endbr64
 1957 10d5 4889C3   		movq	%rax, %rbx
 1958 10d8 E8000000 		call	__cxa_end_catch@PLT
 1958      00
 1959 10dd E99D0100 		jmp	.L74
 1959      00
 1960              	.L114:
 1961 10e2 F30F1EFA 		endbr64
  80:testBinIO.cpp **** 	file.open(FILENAME, ios::in|ios::binary|ios::ate);
 1962              		.loc 4 80 2 is_stmt 1
 1963 10e6 4889C7   		movq	%rax, %rdi
 1964 10e9 E8000000 		call	__cxa_begin_catch@PLT
 1964      00
 1965              	.LEHB78:
 1966 10ee E8000000 		call	_ZN8UnitTest11CurrentTest7ResultsEv@PLT
 1966      00
  80:testBinIO.cpp **** 	file.open(FILENAME, ios::in|ios::binary|ios::ate);
 1967              		.loc 4 80 2 is_stmt 0 discriminator 3
 1968 10f3 488B18   		movq	(%rax), %rbx
 1969 10f6 E8000000 		call	_ZN8UnitTest11CurrentTest7DetailsEv@PLT
 1969      00
  80:testBinIO.cpp **** 	file.open(FILENAME, ios::in|ios::binary|ios::ate);
 1970              		.loc 4 80 2 discriminator 11
 1971 10fb 488B08   		movq	(%rax), %rcx
 1972 10fe 488D85A0 		leaq	-608(%rbp), %rax
 1972      FDFFFF
 1973 1105 BA500000 		movl	$80, %edx
 1973      00
 1974 110a 4889CE   		movq	%rcx, %rsi
 1975 110d 4889C7   		movq	%rax, %rdi
 1976 1110 E8000000 		call	_ZN8UnitTest11TestDetailsC1ERKS0_i@PLT
 1976      00
  80:testBinIO.cpp **** 	file.open(FILENAME, ios::in|ios::binary|ios::ate);
 1977              		.loc 4 80 2 discriminator 15
 1978 1115 488D85A0 		leaq	-608(%rbp), %rax
 1978      FDFFFF
 1979 111c 488D1500 		leaq	.LC4(%rip), %rdx
 1979      000000
 1980 1123 4889C6   		movq	%rax, %rsi
 1981 1126 4889DF   		movq	%rbx, %rdi
 1982 1129 E8000000 		call	_ZN8UnitTest11TestResults13OnTestFailureERKNS_11TestDetailsEPKc@PLT
 1982      00
 1983              	.LEHE78:
 1984              	.LEHB79:
  80:testBinIO.cpp **** 	file.open(FILENAME, ios::in|ios::binary|ios::ate);
 1985              		.loc 4 80 2 discriminator 17
 1986 112e E8000000 		call	__cxa_end_catch@PLT
 1986      00
 1987              	.LEHE79:
  80:testBinIO.cpp **** 	file.open(FILENAME, ios::in|ios::binary|ios::ate);
 1988              		.loc 4 80 2
 1989 1133 E930FBFF 		jmp	.L90
 1989      FF
 1990              	.L115:
 1991 1138 F30F1EFA 		endbr64
 1992 113c 4889C3   		movq	%rax, %rbx
 1993 113f E8000000 		call	__cxa_end_catch@PLT
 1993      00
 1994 1144 E9360100 		jmp	.L74
 1994      00
 1995              	.L116:
 1996 1149 F30F1EFA 		endbr64
  82:testBinIO.cpp **** 	length = file.tellg();
 1997              		.loc 4 82 2 is_stmt 1
 1998 114d 4889C7   		movq	%rax, %rdi
 1999 1150 E8000000 		call	__cxa_begin_catch@PLT
 1999      00
 2000              	.LEHB80:
 2001 1155 E8000000 		call	_ZN8UnitTest11CurrentTest7ResultsEv@PLT
 2001      00
  82:testBinIO.cpp **** 	length = file.tellg();
 2002              		.loc 4 82 2 is_stmt 0 discriminator 8
 2003 115a 488B18   		movq	(%rax), %rbx
 2004 115d E8000000 		call	_ZN8UnitTest11CurrentTest7DetailsEv@PLT
 2004      00
  82:testBinIO.cpp **** 	length = file.tellg();
 2005              		.loc 4 82 2 discriminator 14
 2006 1162 488B08   		movq	(%rax), %rcx
 2007 1165 488D85A0 		leaq	-608(%rbp), %rax
 2007      FDFFFF
 2008 116c BA520000 		movl	$82, %edx
 2008      00
 2009 1171 4889CE   		movq	%rcx, %rsi
 2010 1174 4889C7   		movq	%rax, %rdi
 2011 1177 E8000000 		call	_ZN8UnitTest11TestDetailsC1ERKS0_i@PLT
 2011      00
  82:testBinIO.cpp **** 	length = file.tellg();
 2012              		.loc 4 82 2 discriminator 18
 2013 117c 488D85A0 		leaq	-608(%rbp), %rax
 2013      FDFFFF
 2014 1183 488D1500 		leaq	.LC15(%rip), %rdx
 2014      000000
 2015 118a 4889C6   		movq	%rax, %rsi
 2016 118d 4889DF   		movq	%rbx, %rdi
 2017 1190 E8000000 		call	_ZN8UnitTest11TestResults13OnTestFailureERKNS_11TestDetailsEPKc@PLT
 2017      00
 2018              	.LEHE80:
 2019              	.LEHB81:
  82:testBinIO.cpp **** 	length = file.tellg();
 2020              		.loc 4 82 2 discriminator 20
 2021 1195 E8000000 		call	__cxa_end_catch@PLT
 2021      00
 2022              	.LEHE81:
  82:testBinIO.cpp **** 	length = file.tellg();
 2023              		.loc 4 82 2
 2024 119a E95FFBFF 		jmp	.L69
 2024      FF
 2025              	.L117:
 2026 119f F30F1EFA 		endbr64
 2027 11a3 4889C3   		movq	%rax, %rbx
 2028 11a6 E8000000 		call	__cxa_end_catch@PLT
 2028      00
 2029 11ab E9CF0000 		jmp	.L74
 2029      00
 2030              	.L118:
 2031 11b0 F30F1EFA 		endbr64
  84:testBinIO.cpp **** 	file.seekg(0, ios::beg);
 2032              		.loc 4 84 2 is_stmt 1
 2033 11b4 4889C7   		movq	%rax, %rdi
 2034 11b7 E8000000 		call	__cxa_begin_catch@PLT
 2034      00
 2035              	.LEHB82:
 2036 11bc E8000000 		call	_ZN8UnitTest11CurrentTest7ResultsEv@PLT
 2036      00
  84:testBinIO.cpp **** 	file.seekg(0, ios::beg);
 2037              		.loc 4 84 2 is_stmt 0 discriminator 3
 2038 11c1 488B18   		movq	(%rax), %rbx
 2039 11c4 E8000000 		call	_ZN8UnitTest11CurrentTest7DetailsEv@PLT
 2039      00
  84:testBinIO.cpp **** 	file.seekg(0, ios::beg);
 2040              		.loc 4 84 2 discriminator 11
 2041 11c9 488B08   		movq	(%rax), %rcx
 2042 11cc 488D85A0 		leaq	-608(%rbp), %rax
 2042      FDFFFF
 2043 11d3 BA540000 		movl	$84, %edx
 2043      00
 2044 11d8 4889CE   		movq	%rcx, %rsi
 2045 11db 4889C7   		movq	%rax, %rdi
 2046 11de E8000000 		call	_ZN8UnitTest11TestDetailsC1ERKS0_i@PLT
 2046      00
  84:testBinIO.cpp **** 	file.seekg(0, ios::beg);
 2047              		.loc 4 84 2 discriminator 15
 2048 11e3 488D85A0 		leaq	-608(%rbp), %rax
 2048      FDFFFF
 2049 11ea 488D1500 		leaq	.LC18(%rip), %rdx
 2049      000000
 2050 11f1 4889C6   		movq	%rax, %rsi
 2051 11f4 4889DF   		movq	%rbx, %rdi
 2052 11f7 E8000000 		call	_ZN8UnitTest11TestResults13OnTestFailureERKNS_11TestDetailsEPKc@PLT
 2052      00
 2053              	.LEHE82:
 2054              	.LEHB83:
  84:testBinIO.cpp **** 	file.seekg(0, ios::beg);
 2055              		.loc 4 84 2 discriminator 17
 2056 11fc E8000000 		call	__cxa_end_catch@PLT
 2056      00
 2057              	.LEHE83:
  84:testBinIO.cpp **** 	file.seekg(0, ios::beg);
 2058              		.loc 4 84 2
 2059 1201 E979FBFF 		jmp	.L95
 2059      FF
 2060              	.L119:
 2061 1206 F30F1EFA 		endbr64
 2062 120a 4889C3   		movq	%rax, %rbx
 2063 120d E8000000 		call	__cxa_end_catch@PLT
 2063      00
 2064 1212 EB6B     		jmp	.L74
 2065              	.L120:
 2066 1214 F30F1EFA 		endbr64
  88:testBinIO.cpp **** 
 2067              		.loc 4 88 2 is_stmt 1
 2068 1218 4889C7   		movq	%rax, %rdi
 2069 121b E8000000 		call	__cxa_begin_catch@PLT
 2069      00
 2070              	.LEHB84:
 2071 1220 E8000000 		call	_ZN8UnitTest11CurrentTest7ResultsEv@PLT
 2071      00
  88:testBinIO.cpp **** 
 2072              		.loc 4 88 2 is_stmt 0 discriminator 3
 2073 1225 488B18   		movq	(%rax), %rbx
 2074 1228 E8000000 		call	_ZN8UnitTest11CurrentTest7DetailsEv@PLT
 2074      00
  88:testBinIO.cpp **** 
 2075              		.loc 4 88 2 discriminator 11
 2076 122d 488B08   		movq	(%rax), %rcx
 2077 1230 488D85A0 		leaq	-608(%rbp), %rax
 2077      FDFFFF
 2078 1237 BA580000 		movl	$88, %edx
 2078      00
 2079 123c 4889CE   		movq	%rcx, %rsi
 2080 123f 4889C7   		movq	%rax, %rdi
 2081 1242 E8000000 		call	_ZN8UnitTest11TestDetailsC1ERKS0_i@PLT
 2081      00
  88:testBinIO.cpp **** 
 2082              		.loc 4 88 2 discriminator 15
 2083 1247 488D85A0 		leaq	-608(%rbp), %rax
 2083      FDFFFF
 2084 124e 488D1500 		leaq	.LC19(%rip), %rdx
 2084      000000
 2085 1255 4889C6   		movq	%rax, %rsi
 2086 1258 4889DF   		movq	%rbx, %rdi
 2087 125b E8000000 		call	_ZN8UnitTest11TestResults13OnTestFailureERKNS_11TestDetailsEPKc@PLT
 2087      00
 2088              	.LEHE84:
 2089              	.LEHB85:
  88:testBinIO.cpp **** 
 2090              		.loc 4 88 2 discriminator 17
 2091 1260 E8000000 		call	__cxa_end_catch@PLT
 2091      00
 2092              	.LEHE85:
  88:testBinIO.cpp **** 
 2093              		.loc 4 88 2
 2094 1265 E9BDFBFF 		jmp	.L98
 2094      FF
 2095              	.L121:
 2096 126a F30F1EFA 		endbr64
 2097 126e 4889C3   		movq	%rax, %rbx
 2098 1271 E8000000 		call	__cxa_end_catch@PLT
 2098      00
 2099 1276 EB07     		jmp	.L74
 2100              	.L101:
 2101 1278 F30F1EFA 		endbr64
 2102              		.loc 4 92 1 is_stmt 1
 2103 127c 4889C3   		movq	%rax, %rbx
 2104              	.L74:
 2105 127f 488D85E0 		leaq	-544(%rbp), %rax
 2105      FDFFFF
 2106 1286 4889C7   		movq	%rax, %rdi
 2107 1289 E8000000 		call	_ZNSt14basic_ifstreamIcSt11char_traitsIcEED1Ev@PLT
 2107      00
 2108 128e 4889D8   		movq	%rbx, %rax
 2109 1291 4889C7   		movq	%rax, %rdi
 2110              	.LEHB86:
 2111 1294 E8000000 		call	_Unwind_Resume@PLT
 2111      00
 2112              	.LEHE86:
 2113              	.L122:
 2114 1299 E8000000 		call	__stack_chk_fail@PLT
 2114      00
 2115              	.L100:
 2116 129e 488B5DF8 		movq	-8(%rbp), %rbx
 2117 12a2 C9       		leave
 2118              		.cfi_def_cfa 7, 8
 2119 12a3 C3       		ret
 2120              		.cfi_endproc
 2121              	.LFE1220:
 2122              		.section	.gcc_except_table
 2123              		.align 4
 2124              	.LLSDA1220:
 2125 00f4 FF       		.byte	0xff
 2126 00f5 9B       		.byte	0x9b
 2127 00f6 8C02     		.uleb128 .LLSDATT1220-.LLSDATTD1220
 2128              	.LLSDATTD1220:
 2129 00f8 01       		.byte	0x1
 2130 00f9 8202     		.uleb128 .LLSDACSE1220-.LLSDACSB1220
 2131              	.LLSDACSB1220:
 2132 00fb 4C       		.uleb128 .LEHB43-.LFB1220
 2133 00fc 05       		.uleb128 .LEHE43-.LEHB43
 2134 00fd 00       		.uleb128 0
 2135 00fe 00       		.uleb128 0
 2136 00ff 6A       		.uleb128 .LEHB44-.LFB1220
 2137 0100 05       		.uleb128 .LEHE44-.LEHB44
 2138 0101 9814     		.uleb128 .L101-.LFB1220
 2139 0103 00       		.uleb128 0
 2140 0104 75       		.uleb128 .LEHB45-.LFB1220
 2141 0105 4E       		.uleb128 .LEHE45-.LEHB45
 2142 0106 980C     		.uleb128 .L102-.LFB1220
 2143 0108 01       		.uleb128 0x1
 2144 0109 DE01     		.uleb128 .LEHB46-.LFB1220
 2145 010b 05       		.uleb128 .LEHE46-.LEHB46
 2146 010c 9814     		.uleb128 .L101-.LFB1220
 2147 010e 00       		.uleb128 0
 2148 010f E901     		.uleb128 .LEHB47-.LFB1220
 2149 0111 4E       		.uleb128 .LEHE47-.LEHB47
 2150 0112 FF0C     		.uleb128 .L104-.LFB1220
 2151 0114 01       		.uleb128 0x1
 2152 0115 DD02     		.uleb128 .LEHB48-.LFB1220
 2153 0117 05       		.uleb128 .LEHE48-.LEHB48
 2154 0118 9814     		.uleb128 .L101-.LFB1220
 2155 011a 00       		.uleb128 0
 2156 011b E802     		.uleb128 .LEHB49-.LFB1220
 2157 011d 4E       		.uleb128 .LEHE49-.LEHB49
 2158 011e E60D     		.uleb128 .L106-.LFB1220
 2159 0120 01       		.uleb128 0x1
 2160 0121 E703     		.uleb128 .LEHB50-.LFB1220
 2161 0123 05       		.uleb128 .LEHE50-.LEHB50
 2162 0124 9814     		.uleb128 .L101-.LFB1220
 2163 0126 00       		.uleb128 0
 2164 0127 F603     		.uleb128 .LEHB51-.LFB1220
 2165 0129 56       		.uleb128 .LEHE51-.LEHB51
 2166 012a CD0E     		.uleb128 .L108-.LFB1220
 2167 012c 01       		.uleb128 0x1
 2168 012d D604     		.uleb128 .LEHB52-.LFB1220
 2169 012f 05       		.uleb128 .LEHE52-.LEHB52
 2170 0130 9814     		.uleb128 .L101-.LFB1220
 2171 0132 00       		.uleb128 0
 2172 0133 FF04     		.uleb128 .LEHB53-.LFB1220
 2173 0135 5D       		.uleb128 .LEHE53-.LEHB53
 2174 0136 B40F     		.uleb128 .L110-.LFB1220
 2175 0138 01       		.uleb128 0x1
 2176 0139 E805     		.uleb128 .LEHB54-.LFB1220
 2177 013b 54       		.uleb128 .LEHE54-.LEHB54
 2178 013c 9814     		.uleb128 .L101-.LFB1220
 2179 013e 00       		.uleb128 0
 2180 013f BC06     		.uleb128 .LEHB55-.LFB1220
 2181 0141 52       		.uleb128 .LEHE55-.LEHB55
 2182 0142 9B10     		.uleb128 .L112-.LFB1220
 2183 0144 01       		.uleb128 0x1
 2184 0145 AF07     		.uleb128 .LEHB56-.LFB1220
 2185 0147 05       		.uleb128 .LEHE56-.LEHB56
 2186 0148 9814     		.uleb128 .L101-.LFB1220
 2187 014a 00       		.uleb128 0
 2188 014b BA07     		.uleb128 .LEHB57-.LFB1220
 2189 014d 4E       		.uleb128 .LEHE57-.LEHB57
 2190 014e 8211     		.uleb128 .L114-.LFB1220
 2191 0150 01       		.uleb128 0x1
 2192 0151 B908     		.uleb128 .LEHB58-.LFB1220
 2193 0153 05       		.uleb128 .LEHE58-.LEHB58
 2194 0154 9814     		.uleb128 .L101-.LFB1220
 2195 0156 00       		.uleb128 0
 2196 0157 C808     		.uleb128 .LEHB59-.LFB1220
 2197 0159 56       		.uleb128 .LEHE59-.LEHB59
 2198 015a E911     		.uleb128 .L116-.LFB1220
 2199 015c 01       		.uleb128 0x1
 2200 015d A809     		.uleb128 .LEHB60-.LFB1220
 2201 015f 05       		.uleb128 .LEHE60-.LEHB60
 2202 0160 9814     		.uleb128 .L101-.LFB1220
 2203 0162 00       		.uleb128 0
 2204 0163 D109     		.uleb128 .LEHB61-.LFB1220
 2205 0165 4E       		.uleb128 .LEHE61-.LEHB61
 2206 0166 D012     		.uleb128 .L118-.LFB1220
 2207 0168 01       		.uleb128 0x1
 2208 0169 B30A     		.uleb128 .LEHB62-.LFB1220
 2209 016b 34       		.uleb128 .LEHE62-.LEHB62
 2210 016c 9814     		.uleb128 .L101-.LFB1220
 2211 016e 00       		.uleb128 0
 2212 016f E70A     		.uleb128 .LEHB63-.LFB1220
 2213 0171 60       		.uleb128 .LEHE63-.LEHB63
 2214 0172 B413     		.uleb128 .L120-.LFB1220
 2215 0174 01       		.uleb128 0x1
 2216 0175 EC0B     		.uleb128 .LEHB64-.LFB1220
 2217 0177 05       		.uleb128 .LEHE64-.LEHB64
 2218 0178 9814     		.uleb128 .L101-.LFB1220
 2219 017a 00       		.uleb128 0
 2220 017b FB0B     		.uleb128 .LEHB65-.LFB1220
 2221 017d 05       		.uleb128 .LEHE65-.LEHB65
 2222 017e 00       		.uleb128 0
 2223 017f 00       		.uleb128 0
 2224 0180 A40C     		.uleb128 .LEHB66-.LFB1220
 2225 0182 40       		.uleb128 .LEHE66-.LEHB66
 2226 0183 EE0C     		.uleb128 .L103-.LFB1220
 2227 0185 00       		.uleb128 0
 2228 0186 E40C     		.uleb128 .LEHB67-.LFB1220
 2229 0188 05       		.uleb128 .LEHE67-.LEHB67
 2230 0189 9814     		.uleb128 .L101-.LFB1220
 2231 018b 00       		.uleb128 0
 2232 018c 8B0D     		.uleb128 .LEHB68-.LFB1220
 2233 018e 40       		.uleb128 .LEHE68-.LEHB68
 2234 018f D50D     		.uleb128 .L105-.LFB1220
 2235 0191 00       		.uleb128 0
 2236 0192 CB0D     		.uleb128 .LEHB69-.LFB1220
 2237 0194 05       		.uleb128 .LEHE69-.LEHB69
 2238 0195 9814     		.uleb128 .L101-.LFB1220
 2239 0197 00       		.uleb128 0
 2240 0198 F20D     		.uleb128 .LEHB70-.LFB1220
 2241 019a 40       		.uleb128 .LEHE70-.LEHB70
 2242 019b BC0E     		.uleb128 .L107-.LFB1220
 2243 019d 00       		.uleb128 0
 2244 019e B20E     		.uleb128 .LEHB71-.LFB1220
 2245 01a0 05       		.uleb128 .LEHE71-.LEHB71
 2246 01a1 9814     		.uleb128 .L101-.LFB1220
 2247 01a3 00       		.uleb128 0
 2248 01a4 D90E     		.uleb128 .LEHB72-.LFB1220
 2249 01a6 40       		.uleb128 .LEHE72-.LEHB72
 2250 01a7 A30F     		.uleb128 .L109-.LFB1220
 2251 01a9 00       		.uleb128 0
 2252 01aa 990F     		.uleb128 .LEHB73-.LFB1220
 2253 01ac 05       		.uleb128 .LEHE73-.LEHB73
 2254 01ad 9814     		.uleb128 .L101-.LFB1220
 2255 01af 00       		.uleb128 0
 2256 01b0 C00F     		.uleb128 .LEHB74-.LFB1220
 2257 01b2 40       		.uleb128 .LEHE74-.LEHB74
 2258 01b3 8A10     		.uleb128 .L111-.LFB1220
 2259 01b5 00       		.uleb128 0
 2260 01b6 8010     		.uleb128 .LEHB75-.LFB1220
 2261 01b8 05       		.uleb128 .LEHE75-.LEHB75
 2262 01b9 9814     		.uleb128 .L101-.LFB1220
 2263 01bb 00       		.uleb128 0
 2264 01bc A710     		.uleb128 .LEHB76-.LFB1220
 2265 01be 40       		.uleb128 .LEHE76-.LEHB76
 2266 01bf F110     		.uleb128 .L113-.LFB1220
 2267 01c1 00       		.uleb128 0
 2268 01c2 E710     		.uleb128 .LEHB77-.LFB1220
 2269 01c4 05       		.uleb128 .LEHE77-.LEHB77
 2270 01c5 9814     		.uleb128 .L101-.LFB1220
 2271 01c7 00       		.uleb128 0
 2272 01c8 8E11     		.uleb128 .LEHB78-.LFB1220
 2273 01ca 40       		.uleb128 .LEHE78-.LEHB78
 2274 01cb D811     		.uleb128 .L115-.LFB1220
 2275 01cd 00       		.uleb128 0
 2276 01ce CE11     		.uleb128 .LEHB79-.LFB1220
 2277 01d0 05       		.uleb128 .LEHE79-.LEHB79
 2278 01d1 9814     		.uleb128 .L101-.LFB1220
 2279 01d3 00       		.uleb128 0
 2280 01d4 F511     		.uleb128 .LEHB80-.LFB1220
 2281 01d6 40       		.uleb128 .LEHE80-.LEHB80
 2282 01d7 BF12     		.uleb128 .L117-.LFB1220
 2283 01d9 00       		.uleb128 0
 2284 01da B512     		.uleb128 .LEHB81-.LFB1220
 2285 01dc 05       		.uleb128 .LEHE81-.LEHB81
 2286 01dd 9814     		.uleb128 .L101-.LFB1220
 2287 01df 00       		.uleb128 0
 2288 01e0 DC12     		.uleb128 .LEHB82-.LFB1220
 2289 01e2 40       		.uleb128 .LEHE82-.LEHB82
 2290 01e3 A613     		.uleb128 .L119-.LFB1220
 2291 01e5 00       		.uleb128 0
 2292 01e6 9C13     		.uleb128 .LEHB83-.LFB1220
 2293 01e8 05       		.uleb128 .LEHE83-.LEHB83
 2294 01e9 9814     		.uleb128 .L101-.LFB1220
 2295 01eb 00       		.uleb128 0
 2296 01ec C013     		.uleb128 .LEHB84-.LFB1220
 2297 01ee 40       		.uleb128 .LEHE84-.LEHB84
 2298 01ef 8A14     		.uleb128 .L121-.LFB1220
 2299 01f1 00       		.uleb128 0
 2300 01f2 8014     		.uleb128 .LEHB85-.LFB1220
 2301 01f4 05       		.uleb128 .LEHE85-.LEHB85
 2302 01f5 9814     		.uleb128 .L101-.LFB1220
 2303 01f7 00       		.uleb128 0
 2304 01f8 B414     		.uleb128 .LEHB86-.LFB1220
 2305 01fa 05       		.uleb128 .LEHE86-.LEHB86
 2306 01fb 00       		.uleb128 0
 2307 01fc 00       		.uleb128 0
 2308              	.LLSDACSE1220:
 2309 01fd 01       		.byte	0x1
 2310 01fe 00       		.byte	0
 2311 01ff 00       		.align 4
 2312 0200 00000000 		.long	0
 2313              	
 2314              	.LLSDATT1220:
 2315              		.text
 2317              		.section	.text._ZN8UnitTest15MemoryOutStreamD1Ev,"axG",@progbits,_ZN8UnitTest15MemoryOutStreamD1Ev
 2318              		.align 2
 2319              		.weak	_ZN8UnitTest15MemoryOutStreamD1Ev
 2321              	_ZN8UnitTest15MemoryOutStreamD1Ev:
 2322              	.LFB1251:
  13:/home/pong/FPGALink/makestuff/libs/libutpp/MemoryOutStream.h **** {
 2323              		.loc 3 13 7
 2324              		.cfi_startproc
 2325              		.cfi_personality 0x9b,DW.ref.__gxx_personality_v0
 2326              		.cfi_lsda 0x1b,.LLSDA1251
 2327 0000 F30F1EFA 		endbr64
 2328 0004 55       		pushq	%rbp
 2329              		.cfi_def_cfa_offset 16
 2330              		.cfi_offset 6, -16
 2331 0005 4889E5   		movq	%rsp, %rbp
 2332              		.cfi_def_cfa_register 6
 2333 0008 53       		pushq	%rbx
 2334 0009 4883EC18 		subq	$24, %rsp
 2335              		.cfi_offset 3, -24
 2336 000d 48897DE8 		movq	%rdi, -24(%rbp)
 2337              	.LBB7:
  13:/home/pong/FPGALink/makestuff/libs/libutpp/MemoryOutStream.h **** {
 2338              		.loc 3 13 7
 2339 0011 488D1500 		leaq	24+_ZTVN8UnitTest15MemoryOutStreamE(%rip), %rdx
 2339      000000
 2340 0018 488B45E8 		movq	-24(%rbp), %rax
 2341 001c 488910   		movq	%rdx, (%rax)
 2342 001f 488B45E8 		movq	-24(%rbp), %rax
 2343 0023 48059000 		addq	$144, %rax
 2343      0000
 2344 0029 488D1500 		leaq	64+_ZTVN8UnitTest15MemoryOutStreamE(%rip), %rdx
 2344      000000
 2345 0030 488910   		movq	%rdx, (%rax)
 2346 0033 488B45E8 		movq	-24(%rbp), %rax
 2347 0037 4883C070 		addq	$112, %rax
 2348 003b 4889C7   		movq	%rax, %rdi
 2349              	.LEHB87:
 2350 003e E8000000 		call	_ZNSt7__cxx1112basic_stringIcSt11char_traitsIcESaIcEED1Ev@PLT
 2350      00
 2351              	.LEHE87:
  13:/home/pong/FPGALink/makestuff/libs/libutpp/MemoryOutStream.h **** {
 2352              		.loc 3 13 7 is_stmt 0 discriminator 2
 2353 0043 488B45E8 		movq	-24(%rbp), %rax
 2354 0047 488D1500 		leaq	8+_ZTTN8UnitTest15MemoryOutStreamE(%rip), %rdx
 2354      000000
 2355 004e 4889D6   		movq	%rdx, %rsi
 2356 0051 4889C7   		movq	%rax, %rdi
 2357              	.LEHB88:
 2358 0054 E8000000 		call	_ZNSt7__cxx1119basic_ostringstreamIcSt11char_traitsIcESaIcEED2Ev@PLT
 2358      00
 2359              	.LEHE88:
  13:/home/pong/FPGALink/makestuff/libs/libutpp/MemoryOutStream.h **** {
 2360              		.loc 3 13 7 discriminator 4
 2361 0059 488B45E8 		movq	-24(%rbp), %rax
 2362 005d 48059000 		addq	$144, %rax
 2362      0000
 2363 0063 4889C7   		movq	%rax, %rdi
 2364              	.LEHB89:
 2365 0066 E8000000 		call	_ZNSt9basic_iosIcSt11char_traitsIcEED2Ev@PLT
 2365      00
 2366              	.LEHE89:
 2367              	.LBE7:
 2368 006b EB43     		jmp	.L128
 2369              	.L126:
 2370 006d F30F1EFA 		endbr64
 2371              	.LBB8:
  13:/home/pong/FPGALink/makestuff/libs/libutpp/MemoryOutStream.h **** {
 2372              		.loc 3 13 7
 2373 0071 4889C3   		movq	%rax, %rbx
 2374 0074 488B45E8 		movq	-24(%rbp), %rax
 2375 0078 488D1500 		leaq	8+_ZTTN8UnitTest15MemoryOutStreamE(%rip), %rdx
 2375      000000
 2376 007f 4889D6   		movq	%rdx, %rsi
 2377 0082 4889C7   		movq	%rax, %rdi
 2378 0085 E8000000 		call	_ZNSt7__cxx1119basic_ostringstreamIcSt11char_traitsIcESaIcEED2Ev@PLT
 2378      00
 2379 008a EB07     		jmp	.L125
 2380              	.L127:
 2381 008c F30F1EFA 		endbr64
 2382 0090 4889C3   		movq	%rax, %rbx
 2383              	.L125:
  13:/home/pong/FPGALink/makestuff/libs/libutpp/MemoryOutStream.h **** {
 2384              		.loc 3 13 7 discriminator 3
 2385 0093 488B45E8 		movq	-24(%rbp), %rax
 2386 0097 48059000 		addq	$144, %rax
 2386      0000
 2387 009d 4889C7   		movq	%rax, %rdi
 2388 00a0 E8000000 		call	_ZNSt9basic_iosIcSt11char_traitsIcEED2Ev@PLT
 2388      00
 2389 00a5 4889D8   		movq	%rbx, %rax
 2390 00a8 4889C7   		movq	%rax, %rdi
 2391              	.LEHB90:
 2392 00ab E8000000 		call	_Unwind_Resume@PLT
 2392      00
 2393              	.LEHE90:
 2394              	.L128:
 2395              	.LBE8:
  13:/home/pong/FPGALink/makestuff/libs/libutpp/MemoryOutStream.h **** {
 2396              		.loc 3 13 7
 2397 00b0 488B5DF8 		movq	-8(%rbp), %rbx
 2398 00b4 C9       		leave
 2399              		.cfi_def_cfa 7, 8
 2400 00b5 C3       		ret
 2401              		.cfi_endproc
 2402              	.LFE1251:
 2403              		.section	.gcc_except_table
 2404              	.LLSDA1251:
 2405 0204 FF       		.byte	0xff
 2406 0205 FF       		.byte	0xff
 2407 0206 01       		.byte	0x1
 2408 0207 12       		.uleb128 .LLSDACSE1251-.LLSDACSB1251
 2409              	.LLSDACSB1251:
 2410 0208 3E       		.uleb128 .LEHB87-.LFB1251
 2411 0209 05       		.uleb128 .LEHE87-.LEHB87
 2412 020a 6D       		.uleb128 .L126-.LFB1251
 2413 020b 00       		.uleb128 0
 2414 020c 54       		.uleb128 .LEHB88-.LFB1251
 2415 020d 05       		.uleb128 .LEHE88-.LEHB88
 2416 020e 8C01     		.uleb128 .L127-.LFB1251
 2417 0210 00       		.uleb128 0
 2418 0211 66       		.uleb128 .LEHB89-.LFB1251
 2419 0212 05       		.uleb128 .LEHE89-.LEHB89
 2420 0213 00       		.uleb128 0
 2421 0214 00       		.uleb128 0
 2422 0215 AB01     		.uleb128 .LEHB90-.LFB1251
 2423 0217 05       		.uleb128 .LEHE90-.LEHB90
 2424 0218 00       		.uleb128 0
 2425 0219 00       		.uleb128 0
 2426              	.LLSDACSE1251:
 2427              		.section	.text._ZN8UnitTest15MemoryOutStreamD1Ev,"axG",@progbits,_ZN8UnitTest15MemoryOutStreamD1Ev
 2429              		.set	.LTHUNK0,_ZN8UnitTest15MemoryOutStreamD1Ev
 2430              		.weak	_ZTv0_n24_N8UnitTest15MemoryOutStreamD1Ev
 2432              	_ZTv0_n24_N8UnitTest15MemoryOutStreamD1Ev:
 2433              	.LFB1360:
  13:/home/pong/FPGALink/makestuff/libs/libutpp/MemoryOutStream.h **** {
 2434              		.loc 3 13 7 is_stmt 1
 2435              		.cfi_startproc
 2436 00b6 F30F1EFA 		endbr64
 2437 00ba 4C8B17   		movq	(%rdi), %r10
 2438 00bd 49037AE8 		addq	-24(%r10), %rdi
 2439 00c1 E93AFFFF 		jmp	.LTHUNK0
 2439      FF
 2440              		.cfi_endproc
 2441              	.LFE1360:
 2443              		.section	.text._ZN8UnitTest15MemoryOutStreamD0Ev,"axG",@progbits,_ZN8UnitTest15MemoryOutStreamD0Ev
 2444              		.align 2
 2445              		.weak	_ZN8UnitTest15MemoryOutStreamD0Ev
 2447              	_ZN8UnitTest15MemoryOutStreamD0Ev:
 2448              	.LFB1252:
  13:/home/pong/FPGALink/makestuff/libs/libutpp/MemoryOutStream.h **** {
 2449              		.loc 3 13 7
 2450              		.cfi_startproc
 2451              		.cfi_personality 0x9b,DW.ref.__gxx_personality_v0
 2452              		.cfi_lsda 0x1b,.LLSDA1252
 2453 0000 F30F1EFA 		endbr64
 2454 0004 55       		pushq	%rbp
 2455              		.cfi_def_cfa_offset 16
 2456              		.cfi_offset 6, -16
 2457 0005 4889E5   		movq	%rsp, %rbp
 2458              		.cfi_def_cfa_register 6
 2459 0008 53       		pushq	%rbx
 2460 0009 4883EC18 		subq	$24, %rsp
 2461              		.cfi_offset 3, -24
 2462 000d 48897DE8 		movq	%rdi, -24(%rbp)
  13:/home/pong/FPGALink/makestuff/libs/libutpp/MemoryOutStream.h **** {
 2463              		.loc 3 13 7
 2464 0011 488B45E8 		movq	-24(%rbp), %rax
 2465 0015 4889C7   		movq	%rax, %rdi
 2466              	.LEHB91:
 2467 0018 E8000000 		call	_ZN8UnitTest15MemoryOutStreamD1Ev
 2467      00
 2468              	.LEHE91:
  13:/home/pong/FPGALink/makestuff/libs/libutpp/MemoryOutStream.h **** {
 2469              		.loc 3 13 7 is_stmt 0 discriminator 2
 2470 001d 488B45E8 		movq	-24(%rbp), %rax
 2471 0021 4889C7   		movq	%rax, %rdi
 2472 0024 E8000000 		call	_ZdlPv@PLT
 2472      00
 2473 0029 EB1E     		jmp	.L132
 2474              	.L131:
 2475 002b F30F1EFA 		endbr64
  13:/home/pong/FPGALink/makestuff/libs/libutpp/MemoryOutStream.h **** {
 2476              		.loc 3 13 7
 2477 002f 4889C3   		movq	%rax, %rbx
 2478 0032 488B45E8 		movq	-24(%rbp), %rax
 2479 0036 4889C7   		movq	%rax, %rdi
 2480 0039 E8000000 		call	_ZdlPv@PLT
 2480      00
 2481 003e 4889D8   		movq	%rbx, %rax
 2482 0041 4889C7   		movq	%rax, %rdi
 2483              	.LEHB92:
 2484 0044 E8000000 		call	_Unwind_Resume@PLT
 2484      00
 2485              	.LEHE92:
 2486              	.L132:
 2487 0049 488B5DF8 		movq	-8(%rbp), %rbx
 2488 004d C9       		leave
 2489              		.cfi_def_cfa 7, 8
 2490 004e C3       		ret
 2491              		.cfi_endproc
 2492              	.LFE1252:
 2493              		.section	.gcc_except_table
 2494              	.LLSDA1252:
 2495 021a FF       		.byte	0xff
 2496 021b FF       		.byte	0xff
 2497 021c 01       		.byte	0x1
 2498 021d 08       		.uleb128 .LLSDACSE1252-.LLSDACSB1252
 2499              	.LLSDACSB1252:
 2500 021e 18       		.uleb128 .LEHB91-.LFB1252
 2501 021f 05       		.uleb128 .LEHE91-.LEHB91
 2502 0220 2B       		.uleb128 .L131-.LFB1252
 2503 0221 00       		.uleb128 0
 2504 0222 44       		.uleb128 .LEHB92-.LFB1252
 2505 0223 05       		.uleb128 .LEHE92-.LEHB92
 2506 0224 00       		.uleb128 0
 2507 0225 00       		.uleb128 0
 2508              	.LLSDACSE1252:
 2509              		.section	.text._ZN8UnitTest15MemoryOutStreamD0Ev,"axG",@progbits,_ZN8UnitTest15MemoryOutStreamD0Ev
 2511              		.set	.LTHUNK1,_ZN8UnitTest15MemoryOutStreamD0Ev
 2512              		.weak	_ZTv0_n24_N8UnitTest15MemoryOutStreamD0Ev
 2514              	_ZTv0_n24_N8UnitTest15MemoryOutStreamD0Ev:
 2515              	.LFB1361:
  13:/home/pong/FPGALink/makestuff/libs/libutpp/MemoryOutStream.h **** {
 2516              		.loc 3 13 7 is_stmt 1
 2517              		.cfi_startproc
 2518 004f F30F1EFA 		endbr64
 2519 0053 4C8B17   		movq	(%rdi), %r10
 2520 0056 49037AE8 		addq	-24(%r10), %rdi
 2521 005a EBA4     		jmp	.LTHUNK1
 2522              		.cfi_endproc
 2523              	.LFE1361:
 2525              		.section	.rodata
 2526              	.LC20:
 2527 035b 45787065 		.string	"Expected "
 2527      63746564 
 2527      2000
 2528              	.LC21:
 2529 0365 20627574 		.string	" but was "
 2529      20776173 
 2529      2000
 2530              		.section	.text._ZN8UnitTest10CheckEqualI12BufferStatusS1_EEvRNS_11TestResultsERKT_RKT0_RKNS_11Test
 2531              		.weak	_ZN8UnitTest10CheckEqualI12BufferStatusS1_EEvRNS_11TestResultsERKT_RKT0_RKNS_11TestDetailsE
 2533              	_ZN8UnitTest10CheckEqualI12BufferStatusS1_EEvRNS_11TestResultsERKT_RKT0_RKNS_11TestDetailsE:
 2534              	.LFB1248:
 2535              		.file 5 "/home/pong/FPGALink/makestuff/libs/libutpp/Checks.h"
   1:/home/pong/FPGALink/makestuff/libs/libutpp/Checks.h **** #ifndef UNITTEST_CHECKS_H
   2:/home/pong/FPGALink/makestuff/libs/libutpp/Checks.h **** #define UNITTEST_CHECKS_H
   3:/home/pong/FPGALink/makestuff/libs/libutpp/Checks.h **** 
   4:/home/pong/FPGALink/makestuff/libs/libutpp/Checks.h **** #include "Config.h"
   5:/home/pong/FPGALink/makestuff/libs/libutpp/Checks.h **** #include "TestResults.h"
   6:/home/pong/FPGALink/makestuff/libs/libutpp/Checks.h **** #include "MemoryOutStream.h"
   7:/home/pong/FPGALink/makestuff/libs/libutpp/Checks.h **** 
   8:/home/pong/FPGALink/makestuff/libs/libutpp/Checks.h **** namespace UnitTest {
   9:/home/pong/FPGALink/makestuff/libs/libutpp/Checks.h **** 
  10:/home/pong/FPGALink/makestuff/libs/libutpp/Checks.h **** 
  11:/home/pong/FPGALink/makestuff/libs/libutpp/Checks.h **** template< typename Value >
  12:/home/pong/FPGALink/makestuff/libs/libutpp/Checks.h **** bool Check(Value const value)
  13:/home/pong/FPGALink/makestuff/libs/libutpp/Checks.h **** {
  14:/home/pong/FPGALink/makestuff/libs/libutpp/Checks.h ****     return !!value; // doing double negative to avoid silly VS warnings
  15:/home/pong/FPGALink/makestuff/libs/libutpp/Checks.h **** }
  16:/home/pong/FPGALink/makestuff/libs/libutpp/Checks.h **** 
  17:/home/pong/FPGALink/makestuff/libs/libutpp/Checks.h **** 
  18:/home/pong/FPGALink/makestuff/libs/libutpp/Checks.h **** template< typename Expected, typename Actual >
  19:/home/pong/FPGALink/makestuff/libs/libutpp/Checks.h **** void CheckEqual(TestResults& results, Expected const& expected, Actual const& actual, TestDetails c
 2536              		.loc 5 19 6
 2537              		.cfi_startproc
 2538              		.cfi_personality 0x9b,DW.ref.__gxx_personality_v0
 2539              		.cfi_lsda 0x1b,.LLSDA1248
 2540 0000 F30F1EFA 		endbr64
 2541 0004 55       		pushq	%rbp
 2542              		.cfi_def_cfa_offset 16
 2543              		.cfi_offset 6, -16
 2544 0005 4889E5   		movq	%rsp, %rbp
 2545              		.cfi_def_cfa_register 6
 2546 0008 53       		pushq	%rbx
 2547 0009 4881ECC8 		subq	$456, %rsp
 2547      010000
 2548              		.cfi_offset 3, -24
 2549 0010 4889BD48 		movq	%rdi, -440(%rbp)
 2549      FEFFFF
 2550 0017 4889B540 		movq	%rsi, -448(%rbp)
 2550      FEFFFF
 2551 001e 48899538 		movq	%rdx, -456(%rbp)
 2551      FEFFFF
 2552 0025 48898D30 		movq	%rcx, -464(%rbp)
 2552      FEFFFF
 2553              		.loc 5 19 6
 2554 002c 64488B04 		movq	%fs:40, %rax
 2554      25280000 
 2554      00
 2555 0035 488945E8 		movq	%rax, -24(%rbp)
 2556 0039 31C0     		xorl	%eax, %eax
 2557              	.LBB9:
  20:/home/pong/FPGALink/makestuff/libs/libutpp/Checks.h **** {
  21:/home/pong/FPGALink/makestuff/libs/libutpp/Checks.h ****     if (!(expected == actual))
 2558              		.loc 5 21 20
 2559 003b 488B8540 		movq	-448(%rbp), %rax
 2559      FEFFFF
 2560 0042 8B10     		movl	(%rax), %edx
 2561 0044 488B8538 		movq	-456(%rbp), %rax
 2561      FEFFFF
 2562 004b 8B00     		movl	(%rax), %eax
 2563              		.loc 5 21 5
 2564 004d 39C2     		cmpl	%eax, %edx
 2565 004f 0F84C600 		je	.L138
 2565      0000
 2566              	.LBB10:
  22:/home/pong/FPGALink/makestuff/libs/libutpp/Checks.h ****     {
  23:/home/pong/FPGALink/makestuff/libs/libutpp/Checks.h ****         UnitTest::MemoryOutStream stream;
 2567              		.loc 5 23 35
 2568 0055 488D8550 		leaq	-432(%rbp), %rax
 2568      FEFFFF
 2569 005c 4889C7   		movq	%rax, %rdi
 2570              	.LEHB93:
 2571 005f E8000000 		call	_ZN8UnitTest15MemoryOutStreamC1Ev
 2571      00
 2572              	.LEHE93:
  24:/home/pong/FPGALink/makestuff/libs/libutpp/Checks.h ****         stream << "Expected " << expected << " but was " << actual;
 2573              		.loc 5 24 16
 2574 0064 488D8550 		leaq	-432(%rbp), %rax
 2574      FEFFFF
 2575 006b 488D1500 		leaq	.LC20(%rip), %rdx
 2575      000000
 2576 0072 4889D6   		movq	%rdx, %rsi
 2577 0075 4889C7   		movq	%rax, %rdi
 2578              	.LEHB94:
 2579 0078 E8000000 		call	_ZStlsISt11char_traitsIcEERSt13basic_ostreamIcT_ES5_PKc@PLT
 2579      00
 2580 007d 4889C2   		movq	%rax, %rdx
 2581              		.loc 5 24 43
 2582 0080 488B8540 		movq	-448(%rbp), %rax
 2582      FEFFFF
 2583 0087 8B00     		movl	(%rax), %eax
 2584 0089 89C6     		movl	%eax, %esi
 2585 008b 4889D7   		movq	%rdx, %rdi
 2586 008e E8000000 		call	_ZNSolsEi@PLT
 2586      00
 2587              		.loc 5 24 43 is_stmt 0 discriminator 1
 2588 0093 4889C2   		movq	%rax, %rdx
 2589 0096 488D0500 		leaq	.LC21(%rip), %rax
 2589      000000
 2590 009d 4889C6   		movq	%rax, %rsi
 2591 00a0 4889D7   		movq	%rdx, %rdi
 2592 00a3 E8000000 		call	_ZStlsISt11char_traitsIcEERSt13basic_ostreamIcT_ES5_PKc@PLT
 2592      00
 2593              		.loc 5 24 43 discriminator 2
 2594 00a8 4889C2   		movq	%rax, %rdx
 2595              		.loc 5 24 58 is_stmt 1 discriminator 2
 2596 00ab 488B8538 		movq	-456(%rbp), %rax
 2596      FEFFFF
 2597 00b2 8B00     		movl	(%rax), %eax
 2598 00b4 89C6     		movl	%eax, %esi
 2599 00b6 4889D7   		movq	%rdx, %rdi
 2600 00b9 E8000000 		call	_ZNSolsEi@PLT
 2600      00
  25:/home/pong/FPGALink/makestuff/libs/libutpp/Checks.h **** 
  26:/home/pong/FPGALink/makestuff/libs/libutpp/Checks.h ****         results.OnTestFailure(details, stream.GetText());
 2601              		.loc 5 26 30
 2602 00be 488D8550 		leaq	-432(%rbp), %rax
 2602      FEFFFF
 2603 00c5 4889C7   		movq	%rax, %rdi
 2604 00c8 E8000000 		call	_ZNK8UnitTest15MemoryOutStream7GetTextEv@PLT
 2604      00
 2605 00cd 4889C2   		movq	%rax, %rdx
 2606 00d0 488B8D30 		movq	-464(%rbp), %rcx
 2606      FEFFFF
 2607 00d7 488B8548 		movq	-440(%rbp), %rax
 2607      FEFFFF
 2608 00de 4889CE   		movq	%rcx, %rsi
 2609 00e1 4889C7   		movq	%rax, %rdi
 2610 00e4 E8000000 		call	_ZN8UnitTest11TestResults13OnTestFailureERKNS_11TestDetailsEPKc@PLT
 2610      00
 2611              	.LEHE94:
  27:/home/pong/FPGALink/makestuff/libs/libutpp/Checks.h ****     }
 2612              		.loc 5 27 5
 2613 00e9 488D8550 		leaq	-432(%rbp), %rax
 2613      FEFFFF
 2614 00f0 4889C7   		movq	%rax, %rdi
 2615              	.LEHB95:
 2616 00f3 E8000000 		call	_ZN8UnitTest15MemoryOutStreamD1Ev
 2616      00
 2617              	.LEHE95:
 2618              	.LBE10:
 2619              	.LBE9:
  28:/home/pong/FPGALink/makestuff/libs/libutpp/Checks.h **** }
 2620              		.loc 5 28 1
 2621 00f8 EB21     		jmp	.L138
 2622              	.L137:
 2623 00fa F30F1EFA 		endbr64
 2624              	.LBB12:
 2625              	.LBB11:
  27:/home/pong/FPGALink/makestuff/libs/libutpp/Checks.h ****     }
 2626              		.loc 5 27 5
 2627 00fe 4889C3   		movq	%rax, %rbx
 2628 0101 488D8550 		leaq	-432(%rbp), %rax
 2628      FEFFFF
 2629 0108 4889C7   		movq	%rax, %rdi
 2630 010b E8000000 		call	_ZN8UnitTest15MemoryOutStreamD1Ev
 2630      00
 2631 0110 4889D8   		movq	%rbx, %rax
 2632 0113 4889C7   		movq	%rax, %rdi
 2633              	.LEHB96:
 2634 0116 E8000000 		call	_Unwind_Resume@PLT
 2634      00
 2635              	.LEHE96:
 2636              	.L138:
 2637              	.LBE11:
 2638              	.LBE12:
 2639              		.loc 5 28 1
 2640 011b 90       		nop
 2641 011c 488B45E8 		movq	-24(%rbp), %rax
 2642 0120 64482B04 		subq	%fs:40, %rax
 2642      25280000 
 2642      00
 2643 0129 7405     		je	.L136
 2644 012b E8000000 		call	__stack_chk_fail@PLT
 2644      00
 2645              	.L136:
 2646 0130 488B5DF8 		movq	-8(%rbp), %rbx
 2647 0134 C9       		leave
 2648              		.cfi_def_cfa 7, 8
 2649 0135 C3       		ret
 2650              		.cfi_endproc
 2651              	.LFE1248:
 2652              		.section	.gcc_except_table
 2653              	.LLSDA1248:
 2654 0226 FF       		.byte	0xff
 2655 0227 FF       		.byte	0xff
 2656 0228 01       		.byte	0x1
 2657 0229 13       		.uleb128 .LLSDACSE1248-.LLSDACSB1248
 2658              	.LLSDACSB1248:
 2659 022a 5F       		.uleb128 .LEHB93-.LFB1248
 2660 022b 05       		.uleb128 .LEHE93-.LEHB93
 2661 022c 00       		.uleb128 0
 2662 022d 00       		.uleb128 0
 2663 022e 78       		.uleb128 .LEHB94-.LFB1248
 2664 022f 71       		.uleb128 .LEHE94-.LEHB94
 2665 0230 FA01     		.uleb128 .L137-.LFB1248
 2666 0232 00       		.uleb128 0
 2667 0233 F301     		.uleb128 .LEHB95-.LFB1248
 2668 0235 05       		.uleb128 .LEHE95-.LEHB95
 2669 0236 00       		.uleb128 0
 2670 0237 00       		.uleb128 0
 2671 0238 9602     		.uleb128 .LEHB96-.LFB1248
 2672 023a 05       		.uleb128 .LEHE96-.LEHB96
 2673 023b 00       		.uleb128 0
 2674 023c 00       		.uleb128 0
 2675              	.LLSDACSE1248:
 2676              		.section	.text._ZN8UnitTest10CheckEqualI12BufferStatusS1_EEvRNS_11TestResultsERKT_RKT0_RKNS_11Test
 2678              		.section	.text._ZN8UnitTest10CheckEqualImmEEvRNS_11TestResultsERKT_RKT0_RKNS_11TestDetailsE,"axG",
 2679              		.weak	_ZN8UnitTest10CheckEqualImmEEvRNS_11TestResultsERKT_RKT0_RKNS_11TestDetailsE
 2681              	_ZN8UnitTest10CheckEqualImmEEvRNS_11TestResultsERKT_RKT0_RKNS_11TestDetailsE:
 2682              	.LFB1263:
  19:/home/pong/FPGALink/makestuff/libs/libutpp/Checks.h **** {
 2683              		.loc 5 19 6
 2684              		.cfi_startproc
 2685              		.cfi_personality 0x9b,DW.ref.__gxx_personality_v0
 2686              		.cfi_lsda 0x1b,.LLSDA1263
 2687 0000 F30F1EFA 		endbr64
 2688 0004 55       		pushq	%rbp
 2689              		.cfi_def_cfa_offset 16
 2690              		.cfi_offset 6, -16
 2691 0005 4889E5   		movq	%rsp, %rbp
 2692              		.cfi_def_cfa_register 6
 2693 0008 53       		pushq	%rbx
 2694 0009 4881ECC8 		subq	$456, %rsp
 2694      010000
 2695              		.cfi_offset 3, -24
 2696 0010 4889BD48 		movq	%rdi, -440(%rbp)
 2696      FEFFFF
 2697 0017 4889B540 		movq	%rsi, -448(%rbp)
 2697      FEFFFF
 2698 001e 48899538 		movq	%rdx, -456(%rbp)
 2698      FEFFFF
 2699 0025 48898D30 		movq	%rcx, -464(%rbp)
 2699      FEFFFF
  19:/home/pong/FPGALink/makestuff/libs/libutpp/Checks.h **** {
 2700              		.loc 5 19 6
 2701 002c 64488B04 		movq	%fs:40, %rax
 2701      25280000 
 2701      00
 2702 0035 488945E8 		movq	%rax, -24(%rbp)
 2703 0039 31C0     		xorl	%eax, %eax
 2704              	.LBB13:
  21:/home/pong/FPGALink/makestuff/libs/libutpp/Checks.h ****     {
 2705              		.loc 5 21 20
 2706 003b 488B8540 		movq	-448(%rbp), %rax
 2706      FEFFFF
 2707 0042 488B10   		movq	(%rax), %rdx
 2708 0045 488B8538 		movq	-456(%rbp), %rax
 2708      FEFFFF
 2709 004c 488B00   		movq	(%rax), %rax
  21:/home/pong/FPGALink/makestuff/libs/libutpp/Checks.h ****     {
 2710              		.loc 5 21 5
 2711 004f 4839C2   		cmpq	%rax, %rdx
 2712 0052 0F84CA00 		je	.L144
 2712      0000
 2713              	.LBB14:
  23:/home/pong/FPGALink/makestuff/libs/libutpp/Checks.h ****         stream << "Expected " << expected << " but was " << actual;
 2714              		.loc 5 23 35
 2715 0058 488D8550 		leaq	-432(%rbp), %rax
 2715      FEFFFF
 2716 005f 4889C7   		movq	%rax, %rdi
 2717              	.LEHB97:
 2718 0062 E8000000 		call	_ZN8UnitTest15MemoryOutStreamC1Ev
 2718      00
 2719              	.LEHE97:
  24:/home/pong/FPGALink/makestuff/libs/libutpp/Checks.h **** 
 2720              		.loc 5 24 16
 2721 0067 488D8550 		leaq	-432(%rbp), %rax
 2721      FEFFFF
 2722 006e 488D1500 		leaq	.LC20(%rip), %rdx
 2722      000000
 2723 0075 4889D6   		movq	%rdx, %rsi
 2724 0078 4889C7   		movq	%rax, %rdi
 2725              	.LEHB98:
 2726 007b E8000000 		call	_ZStlsISt11char_traitsIcEERSt13basic_ostreamIcT_ES5_PKc@PLT
 2726      00
 2727 0080 4889C2   		movq	%rax, %rdx
  24:/home/pong/FPGALink/makestuff/libs/libutpp/Checks.h **** 
 2728              		.loc 5 24 31
 2729 0083 488B8540 		movq	-448(%rbp), %rax
 2729      FEFFFF
 2730 008a 488B00   		movq	(%rax), %rax
 2731 008d 4889C6   		movq	%rax, %rsi
 2732 0090 4889D7   		movq	%rdx, %rdi
 2733 0093 E8000000 		call	_ZNSolsEm@PLT
 2733      00
  24:/home/pong/FPGALink/makestuff/libs/libutpp/Checks.h **** 
 2734              		.loc 5 24 31 is_stmt 0 discriminator 1
 2735 0098 4889C2   		movq	%rax, %rdx
  24:/home/pong/FPGALink/makestuff/libs/libutpp/Checks.h **** 
 2736              		.loc 5 24 43 is_stmt 1 discriminator 1
 2737 009b 488D0500 		leaq	.LC21(%rip), %rax
 2737      000000
 2738 00a2 4889C6   		movq	%rax, %rsi
 2739 00a5 4889D7   		movq	%rdx, %rdi
 2740 00a8 E8000000 		call	_ZStlsISt11char_traitsIcEERSt13basic_ostreamIcT_ES5_PKc@PLT
 2740      00
  24:/home/pong/FPGALink/makestuff/libs/libutpp/Checks.h **** 
 2741              		.loc 5 24 43 is_stmt 0 discriminator 2
 2742 00ad 4889C2   		movq	%rax, %rdx
  24:/home/pong/FPGALink/makestuff/libs/libutpp/Checks.h **** 
 2743              		.loc 5 24 58 is_stmt 1 discriminator 2
 2744 00b0 488B8538 		movq	-456(%rbp), %rax
 2744      FEFFFF
 2745 00b7 488B00   		movq	(%rax), %rax
 2746 00ba 4889C6   		movq	%rax, %rsi
 2747 00bd 4889D7   		movq	%rdx, %rdi
 2748 00c0 E8000000 		call	_ZNSolsEm@PLT
 2748      00
  26:/home/pong/FPGALink/makestuff/libs/libutpp/Checks.h ****     }
 2749              		.loc 5 26 30
 2750 00c5 488D8550 		leaq	-432(%rbp), %rax
 2750      FEFFFF
 2751 00cc 4889C7   		movq	%rax, %rdi
 2752 00cf E8000000 		call	_ZNK8UnitTest15MemoryOutStream7GetTextEv@PLT
 2752      00
 2753 00d4 4889C2   		movq	%rax, %rdx
 2754 00d7 488B8D30 		movq	-464(%rbp), %rcx
 2754      FEFFFF
 2755 00de 488B8548 		movq	-440(%rbp), %rax
 2755      FEFFFF
 2756 00e5 4889CE   		movq	%rcx, %rsi
 2757 00e8 4889C7   		movq	%rax, %rdi
 2758 00eb E8000000 		call	_ZN8UnitTest11TestResults13OnTestFailureERKNS_11TestDetailsEPKc@PLT
 2758      00
 2759              	.LEHE98:
  27:/home/pong/FPGALink/makestuff/libs/libutpp/Checks.h **** }
 2760              		.loc 5 27 5
 2761 00f0 488D8550 		leaq	-432(%rbp), %rax
 2761      FEFFFF
 2762 00f7 4889C7   		movq	%rax, %rdi
 2763              	.LEHB99:
 2764 00fa E8000000 		call	_ZN8UnitTest15MemoryOutStreamD1Ev
 2764      00
 2765              	.LEHE99:
 2766              	.LBE14:
 2767              	.LBE13:
 2768              		.loc 5 28 1
 2769 00ff EB21     		jmp	.L144
 2770              	.L143:
 2771 0101 F30F1EFA 		endbr64
 2772              	.LBB16:
 2773              	.LBB15:
  27:/home/pong/FPGALink/makestuff/libs/libutpp/Checks.h **** }
 2774              		.loc 5 27 5
 2775 0105 4889C3   		movq	%rax, %rbx
 2776 0108 488D8550 		leaq	-432(%rbp), %rax
 2776      FEFFFF
 2777 010f 4889C7   		movq	%rax, %rdi
 2778 0112 E8000000 		call	_ZN8UnitTest15MemoryOutStreamD1Ev
 2778      00
 2779 0117 4889D8   		movq	%rbx, %rax
 2780 011a 4889C7   		movq	%rax, %rdi
 2781              	.LEHB100:
 2782 011d E8000000 		call	_Unwind_Resume@PLT
 2782      00
 2783              	.LEHE100:
 2784              	.L144:
 2785              	.LBE15:
 2786              	.LBE16:
 2787              		.loc 5 28 1
 2788 0122 90       		nop
 2789 0123 488B45E8 		movq	-24(%rbp), %rax
 2790 0127 64482B04 		subq	%fs:40, %rax
 2790      25280000 
 2790      00
 2791 0130 7405     		je	.L142
 2792 0132 E8000000 		call	__stack_chk_fail@PLT
 2792      00
 2793              	.L142:
 2794 0137 488B5DF8 		movq	-8(%rbp), %rbx
 2795 013b C9       		leave
 2796              		.cfi_def_cfa 7, 8
 2797 013c C3       		ret
 2798              		.cfi_endproc
 2799              	.LFE1263:
 2800              		.section	.gcc_except_table
 2801              	.LLSDA1263:
 2802 023d FF       		.byte	0xff
 2803 023e FF       		.byte	0xff
 2804 023f 01       		.byte	0x1
 2805 0240 13       		.uleb128 .LLSDACSE1263-.LLSDACSB1263
 2806              	.LLSDACSB1263:
 2807 0241 62       		.uleb128 .LEHB97-.LFB1263
 2808 0242 05       		.uleb128 .LEHE97-.LEHB97
 2809 0243 00       		.uleb128 0
 2810 0244 00       		.uleb128 0
 2811 0245 7B       		.uleb128 .LEHB98-.LFB1263
 2812 0246 75       		.uleb128 .LEHE98-.LEHB98
 2813 0247 8102     		.uleb128 .L143-.LFB1263
 2814 0249 00       		.uleb128 0
 2815 024a FA01     		.uleb128 .LEHB99-.LFB1263
 2816 024c 05       		.uleb128 .LEHE99-.LEHB99
 2817 024d 00       		.uleb128 0
 2818 024e 00       		.uleb128 0
 2819 024f 9D02     		.uleb128 .LEHB100-.LFB1263
 2820 0251 05       		.uleb128 .LEHE100-.LEHB100
 2821 0252 00       		.uleb128 0
 2822 0253 00       		.uleb128 0
 2823              	.LLSDACSE1263:
 2824              		.section	.text._ZN8UnitTest10CheckEqualImmEEvRNS_11TestResultsERKT_RKT0_RKNS_11TestDetailsE,"axG",
 2826              		.section	.rodata
 2827              	.LC22:
 2828 036f 45787065 		.string	"Expected [ "
 2828      63746564 
 2828      205B2000 
 2829              	.LC23:
 2830 037b 2000     		.string	" "
 2831              	.LC24:
 2832 037d 5D206275 		.string	"] but was [ "
 2832      74207761 
 2832      73205B20 
 2832      00
 2833              	.LC25:
 2834 038a 5D00     		.string	"]"
 2835              		.section	.text._ZN8UnitTest15CheckArrayEqualIPKcPhEEvRNS_11TestResultsERKT_RKT0_iRKNS_11TestDetail
 2836              		.weak	_ZN8UnitTest15CheckArrayEqualIPKcPhEEvRNS_11TestResultsERKT_RKT0_iRKNS_11TestDetailsE
 2838              	_ZN8UnitTest15CheckArrayEqualIPKcPhEEvRNS_11TestResultsERKT_RKT0_iRKNS_11TestDetailsE:
 2839              	.LFB1264:
  29:/home/pong/FPGALink/makestuff/libs/libutpp/Checks.h **** 
  30:/home/pong/FPGALink/makestuff/libs/libutpp/Checks.h **** void CheckEqual(TestResults& results, char const* expected, char const* actual, TestDetails const& 
  31:/home/pong/FPGALink/makestuff/libs/libutpp/Checks.h **** 
  32:/home/pong/FPGALink/makestuff/libs/libutpp/Checks.h **** void CheckEqual(TestResults& results, char* expected, char* actual, TestDetails const& details);
  33:/home/pong/FPGALink/makestuff/libs/libutpp/Checks.h **** 
  34:/home/pong/FPGALink/makestuff/libs/libutpp/Checks.h **** void CheckEqual(TestResults& results, char* expected, char const* actual, TestDetails const& detail
  35:/home/pong/FPGALink/makestuff/libs/libutpp/Checks.h **** 
  36:/home/pong/FPGALink/makestuff/libs/libutpp/Checks.h **** void CheckEqual(TestResults& results, char const* expected, char* actual, TestDetails const& detail
  37:/home/pong/FPGALink/makestuff/libs/libutpp/Checks.h **** 
  38:/home/pong/FPGALink/makestuff/libs/libutpp/Checks.h **** template< typename Expected, typename Actual, typename Tolerance >
  39:/home/pong/FPGALink/makestuff/libs/libutpp/Checks.h **** bool AreClose(Expected const& expected, Actual const& actual, Tolerance const& tolerance)
  40:/home/pong/FPGALink/makestuff/libs/libutpp/Checks.h **** {
  41:/home/pong/FPGALink/makestuff/libs/libutpp/Checks.h ****     return (actual >= (expected - tolerance)) && (actual <= (expected + tolerance));
  42:/home/pong/FPGALink/makestuff/libs/libutpp/Checks.h **** }
  43:/home/pong/FPGALink/makestuff/libs/libutpp/Checks.h **** 
  44:/home/pong/FPGALink/makestuff/libs/libutpp/Checks.h **** template< typename Expected, typename Actual, typename Tolerance >
  45:/home/pong/FPGALink/makestuff/libs/libutpp/Checks.h **** void CheckClose(TestResults& results, Expected const& expected, Actual const& actual, Tolerance con
  46:/home/pong/FPGALink/makestuff/libs/libutpp/Checks.h ****                 TestDetails const& details)
  47:/home/pong/FPGALink/makestuff/libs/libutpp/Checks.h **** {
  48:/home/pong/FPGALink/makestuff/libs/libutpp/Checks.h ****     if (!AreClose(expected, actual, tolerance))
  49:/home/pong/FPGALink/makestuff/libs/libutpp/Checks.h ****     { 
  50:/home/pong/FPGALink/makestuff/libs/libutpp/Checks.h ****         UnitTest::MemoryOutStream stream;
  51:/home/pong/FPGALink/makestuff/libs/libutpp/Checks.h ****         stream << "Expected " << expected << " +/- " << tolerance << " but was " << actual;
  52:/home/pong/FPGALink/makestuff/libs/libutpp/Checks.h **** 
  53:/home/pong/FPGALink/makestuff/libs/libutpp/Checks.h ****         results.OnTestFailure(details, stream.GetText());
  54:/home/pong/FPGALink/makestuff/libs/libutpp/Checks.h ****     }
  55:/home/pong/FPGALink/makestuff/libs/libutpp/Checks.h **** }
  56:/home/pong/FPGALink/makestuff/libs/libutpp/Checks.h **** 
  57:/home/pong/FPGALink/makestuff/libs/libutpp/Checks.h **** 
  58:/home/pong/FPGALink/makestuff/libs/libutpp/Checks.h **** template< typename Expected, typename Actual >
  59:/home/pong/FPGALink/makestuff/libs/libutpp/Checks.h **** void CheckArrayEqual(TestResults& results, Expected const& expected, Actual const& actual,
 2840              		.loc 5 59 6
 2841              		.cfi_startproc
 2842              		.cfi_personality 0x9b,DW.ref.__gxx_personality_v0
 2843              		.cfi_lsda 0x1b,.LLSDA1264
 2844 0000 F30F1EFA 		endbr64
 2845 0004 55       		pushq	%rbp
 2846              		.cfi_def_cfa_offset 16
 2847              		.cfi_offset 6, -16
 2848 0005 4889E5   		movq	%rsp, %rbp
 2849              		.cfi_def_cfa_register 6
 2850 0008 53       		pushq	%rbx
 2851 0009 4881ECE8 		subq	$488, %rsp
 2851      010000
 2852              		.cfi_offset 3, -24
 2853 0010 4889BD38 		movq	%rdi, -456(%rbp)
 2853      FEFFFF
 2854 0017 4889B530 		movq	%rsi, -464(%rbp)
 2854      FEFFFF
 2855 001e 48899528 		movq	%rdx, -472(%rbp)
 2855      FEFFFF
 2856 0025 898D24FE 		movl	%ecx, -476(%rbp)
 2856      FFFF
 2857 002b 4C898518 		movq	%r8, -488(%rbp)
 2857      FEFFFF
 2858              		.loc 5 59 6
 2859 0032 64488B04 		movq	%fs:40, %rax
 2859      25280000 
 2859      00
 2860 003b 488945E8 		movq	%rax, -24(%rbp)
 2861 003f 31C0     		xorl	%eax, %eax
  60:/home/pong/FPGALink/makestuff/libs/libutpp/Checks.h ****                 int const count, TestDetails const& details)
  61:/home/pong/FPGALink/makestuff/libs/libutpp/Checks.h **** {
  62:/home/pong/FPGALink/makestuff/libs/libutpp/Checks.h ****     bool equal = true;
 2862              		.loc 5 62 10
 2863 0041 C68543FE 		movb	$1, -445(%rbp)
 2863      FFFF01
 2864              	.LBB17:
  63:/home/pong/FPGALink/makestuff/libs/libutpp/Checks.h ****     for (int i = 0; i < count; ++i)
 2865              		.loc 5 63 14
 2866 0048 C78544FE 		movl	$0, -444(%rbp)
 2866      FFFF0000 
 2866      0000
 2867              		.loc 5 63 5
 2868 0052 EB59     		jmp	.L146
 2869              	.L147:
  64:/home/pong/FPGALink/makestuff/libs/libutpp/Checks.h ****         equal &= (expected[i] == actual[i]);
 2870              		.loc 5 64 15 discriminator 3
 2871 0054 0FB68D43 		movzbl	-445(%rbp), %ecx
 2871      FEFFFF
 2872              		.loc 5 64 27 discriminator 3
 2873 005b 488B8530 		movq	-464(%rbp), %rax
 2873      FEFFFF
 2874 0062 488B10   		movq	(%rax), %rdx
 2875              		.loc 5 64 28 discriminator 3
 2876 0065 8B8544FE 		movl	-444(%rbp), %eax
 2876      FFFF
 2877 006b 4898     		cltq
 2878              		.loc 5 64 27 discriminator 3
 2879 006d 4801D0   		addq	%rdx, %rax
 2880 0070 0FB600   		movzbl	(%rax), %eax
 2881 0073 0FBED0   		movsbl	%al, %edx
 2882              		.loc 5 64 40 discriminator 3
 2883 0076 488B8528 		movq	-472(%rbp), %rax
 2883      FEFFFF
 2884 007d 488B30   		movq	(%rax), %rsi
 2885              		.loc 5 64 41 discriminator 3
 2886 0080 8B8544FE 		movl	-444(%rbp), %eax
 2886      FFFF
 2887 0086 4898     		cltq
 2888              		.loc 5 64 40 discriminator 3
 2889 0088 4801F0   		addq	%rsi, %rax
 2890 008b 0FB600   		movzbl	(%rax), %eax
 2891 008e 0FB6C0   		movzbl	%al, %eax
 2892              		.loc 5 64 31 discriminator 3
 2893 0091 39C2     		cmpl	%eax, %edx
 2894 0093 0F94C0   		sete	%al
 2895 0096 0FB6C0   		movzbl	%al, %eax
 2896              		.loc 5 64 15 discriminator 3
 2897 0099 21C8     		andl	%ecx, %eax
 2898 009b 85C0     		testl	%eax, %eax
 2899 009d 0F95C0   		setne	%al
 2900 00a0 888543FE 		movb	%al, -445(%rbp)
 2900      FFFF
  63:/home/pong/FPGALink/makestuff/libs/libutpp/Checks.h ****     for (int i = 0; i < count; ++i)
 2901              		.loc 5 63 5 discriminator 3
 2902 00a6 838544FE 		addl	$1, -444(%rbp)
 2902      FFFF01
 2903              	.L146:
  63:/home/pong/FPGALink/makestuff/libs/libutpp/Checks.h ****     for (int i = 0; i < count; ++i)
 2904              		.loc 5 63 23 discriminator 1
 2905 00ad 8B8544FE 		movl	-444(%rbp), %eax
 2905      FFFF
 2906 00b3 3B8524FE 		cmpl	-476(%rbp), %eax
 2906      FFFF
 2907 00b9 7C99     		jl	.L147
 2908              	.LBE17:
 2909              	.LBB18:
  65:/home/pong/FPGALink/makestuff/libs/libutpp/Checks.h **** 
  66:/home/pong/FPGALink/makestuff/libs/libutpp/Checks.h ****     if (!equal)
 2910              		.loc 5 66 10
 2911 00bb 0FB68543 		movzbl	-445(%rbp), %eax
 2911      FEFFFF
 2912 00c2 83F001   		xorl	$1, %eax
 2913              		.loc 5 66 5
 2914 00c5 84C0     		testb	%al, %al
 2915 00c7 0F847B01 		je	.L156
 2915      0000
 2916              	.LBB19:
  67:/home/pong/FPGALink/makestuff/libs/libutpp/Checks.h ****     {
  68:/home/pong/FPGALink/makestuff/libs/libutpp/Checks.h ****         UnitTest::MemoryOutStream stream;
 2917              		.loc 5 68 35
 2918 00cd 488D8550 		leaq	-432(%rbp), %rax
 2918      FEFFFF
 2919 00d4 4889C7   		movq	%rax, %rdi
 2920              	.LEHB101:
 2921 00d7 E8000000 		call	_ZN8UnitTest15MemoryOutStreamC1Ev
 2921      00
 2922              	.LEHE101:
  69:/home/pong/FPGALink/makestuff/libs/libutpp/Checks.h **** 
  70:/home/pong/FPGALink/makestuff/libs/libutpp/Checks.h **** 		stream << "Expected [ ";
 2923              		.loc 5 70 10
 2924 00dc 488D8550 		leaq	-432(%rbp), %rax
 2924      FEFFFF
 2925 00e3 488D1500 		leaq	.LC22(%rip), %rdx
 2925      000000
 2926 00ea 4889D6   		movq	%rdx, %rsi
 2927 00ed 4889C7   		movq	%rax, %rdi
 2928              	.LEHB102:
 2929 00f0 E8000000 		call	_ZStlsISt11char_traitsIcEERSt13basic_ostreamIcT_ES5_PKc@PLT
 2929      00
 2930              	.LBB20:
  71:/home/pong/FPGALink/makestuff/libs/libutpp/Checks.h **** 
  72:/home/pong/FPGALink/makestuff/libs/libutpp/Checks.h **** 		for (int expectedIndex = 0; expectedIndex < count; ++expectedIndex)
 2931              		.loc 5 72 12
 2932 00f5 C78548FE 		movl	$0, -440(%rbp)
 2932      FFFF0000 
 2932      0000
 2933              		.loc 5 72 3
 2934 00ff EB48     		jmp	.L149
 2935              	.L150:
  73:/home/pong/FPGALink/makestuff/libs/libutpp/Checks.h ****             stream << expected[expectedIndex] << " ";
 2936              		.loc 5 73 31
 2937 0101 488B8530 		movq	-464(%rbp), %rax
 2937      FEFFFF
 2938 0108 488B10   		movq	(%rax), %rdx
 2939              		.loc 5 73 32
 2940 010b 8B8548FE 		movl	-440(%rbp), %eax
 2940      FFFF
 2941 0111 4898     		cltq
 2942              		.loc 5 73 31
 2943 0113 4801D0   		addq	%rdx, %rax
 2944 0116 0FB600   		movzbl	(%rax), %eax
 2945              		.loc 5 73 47
 2946 0119 0FBED0   		movsbl	%al, %edx
 2947 011c 488D8550 		leaq	-432(%rbp), %rax
 2947      FEFFFF
 2948 0123 89D6     		movl	%edx, %esi
 2949 0125 4889C7   		movq	%rax, %rdi
 2950 0128 E8000000 		call	_ZStlsISt11char_traitsIcEERSt13basic_ostreamIcT_ES5_c@PLT
 2950      00
 2951 012d 4889C2   		movq	%rax, %rdx
 2952 0130 488D0500 		leaq	.LC23(%rip), %rax
 2952      000000
 2953 0137 4889C6   		movq	%rax, %rsi
 2954 013a 4889D7   		movq	%rdx, %rdi
 2955 013d E8000000 		call	_ZStlsISt11char_traitsIcEERSt13basic_ostreamIcT_ES5_PKc@PLT
 2955      00
  72:/home/pong/FPGALink/makestuff/libs/libutpp/Checks.h ****             stream << expected[expectedIndex] << " ";
 2956              		.loc 5 72 3 discriminator 2
 2957 0142 838548FE 		addl	$1, -440(%rbp)
 2957      FFFF01
 2958              	.L149:
  72:/home/pong/FPGALink/makestuff/libs/libutpp/Checks.h ****             stream << expected[expectedIndex] << " ";
 2959              		.loc 5 72 45 discriminator 1
 2960 0149 8B8548FE 		movl	-440(%rbp), %eax
 2960      FFFF
 2961 014f 3B8524FE 		cmpl	-476(%rbp), %eax
 2961      FFFF
 2962 0155 7CAA     		jl	.L150
 2963              	.LBE20:
  74:/home/pong/FPGALink/makestuff/libs/libutpp/Checks.h **** 
  75:/home/pong/FPGALink/makestuff/libs/libutpp/Checks.h **** 		stream << "] but was [ ";
 2964              		.loc 5 75 10
 2965 0157 488D8550 		leaq	-432(%rbp), %rax
 2965      FEFFFF
 2966 015e 488D1500 		leaq	.LC24(%rip), %rdx
 2966      000000
 2967 0165 4889D6   		movq	%rdx, %rsi
 2968 0168 4889C7   		movq	%rax, %rdi
 2969 016b E8000000 		call	_ZStlsISt11char_traitsIcEERSt13basic_ostreamIcT_ES5_PKc@PLT
 2969      00
 2970              	.LBB21:
  76:/home/pong/FPGALink/makestuff/libs/libutpp/Checks.h **** 
  77:/home/pong/FPGALink/makestuff/libs/libutpp/Checks.h **** 		for (int actualIndex = 0; actualIndex < count; ++actualIndex)
 2971              		.loc 5 77 12
 2972 0170 C7854CFE 		movl	$0, -436(%rbp)
 2972      FFFF0000 
 2972      0000
 2973              		.loc 5 77 3
 2974 017a EB48     		jmp	.L151
 2975              	.L152:
  78:/home/pong/FPGALink/makestuff/libs/libutpp/Checks.h ****             stream << actual[actualIndex] << " ";
 2976              		.loc 5 78 29
 2977 017c 488B8528 		movq	-472(%rbp), %rax
 2977      FEFFFF
 2978 0183 488B10   		movq	(%rax), %rdx
 2979              		.loc 5 78 30
 2980 0186 8B854CFE 		movl	-436(%rbp), %eax
 2980      FFFF
 2981 018c 4898     		cltq
 2982              		.loc 5 78 29
 2983 018e 4801D0   		addq	%rdx, %rax
 2984 0191 0FB600   		movzbl	(%rax), %eax
 2985              		.loc 5 78 43
 2986 0194 0FB6D0   		movzbl	%al, %edx
 2987 0197 488D8550 		leaq	-432(%rbp), %rax
 2987      FEFFFF
 2988 019e 89D6     		movl	%edx, %esi
 2989 01a0 4889C7   		movq	%rax, %rdi
 2990 01a3 E8000000 		call	_ZStlsISt11char_traitsIcEERSt13basic_ostreamIcT_ES5_h@PLT
 2990      00
 2991 01a8 4889C2   		movq	%rax, %rdx
 2992 01ab 488D0500 		leaq	.LC23(%rip), %rax
 2992      000000
 2993 01b2 4889C6   		movq	%rax, %rsi
 2994 01b5 4889D7   		movq	%rdx, %rdi
 2995 01b8 E8000000 		call	_ZStlsISt11char_traitsIcEERSt13basic_ostreamIcT_ES5_PKc@PLT
 2995      00
  77:/home/pong/FPGALink/makestuff/libs/libutpp/Checks.h ****             stream << actual[actualIndex] << " ";
 2996              		.loc 5 77 3 discriminator 2
 2997 01bd 83854CFE 		addl	$1, -436(%rbp)
 2997      FFFF01
 2998              	.L151:
  77:/home/pong/FPGALink/makestuff/libs/libutpp/Checks.h ****             stream << actual[actualIndex] << " ";
 2999              		.loc 5 77 41 discriminator 1
 3000 01c4 8B854CFE 		movl	-436(%rbp), %eax
 3000      FFFF
 3001 01ca 3B8524FE 		cmpl	-476(%rbp), %eax
 3001      FFFF
 3002 01d0 7CAA     		jl	.L152
 3003              	.LBE21:
  79:/home/pong/FPGALink/makestuff/libs/libutpp/Checks.h **** 
  80:/home/pong/FPGALink/makestuff/libs/libutpp/Checks.h **** 		stream << "]";
 3004              		.loc 5 80 10
 3005 01d2 488D8550 		leaq	-432(%rbp), %rax
 3005      FEFFFF
 3006 01d9 488D1500 		leaq	.LC25(%rip), %rdx
 3006      000000
 3007 01e0 4889D6   		movq	%rdx, %rsi
 3008 01e3 4889C7   		movq	%rax, %rdi
 3009 01e6 E8000000 		call	_ZStlsISt11char_traitsIcEERSt13basic_ostreamIcT_ES5_PKc@PLT
 3009      00
  81:/home/pong/FPGALink/makestuff/libs/libutpp/Checks.h **** 
  82:/home/pong/FPGALink/makestuff/libs/libutpp/Checks.h ****         results.OnTestFailure(details, stream.GetText());
 3010              		.loc 5 82 30
 3011 01eb 488D8550 		leaq	-432(%rbp), %rax
 3011      FEFFFF
 3012 01f2 4889C7   		movq	%rax, %rdi
 3013 01f5 E8000000 		call	_ZNK8UnitTest15MemoryOutStream7GetTextEv@PLT
 3013      00
 3014 01fa 4889C2   		movq	%rax, %rdx
 3015 01fd 488B8D18 		movq	-488(%rbp), %rcx
 3015      FEFFFF
 3016 0204 488B8538 		movq	-456(%rbp), %rax
 3016      FEFFFF
 3017 020b 4889CE   		movq	%rcx, %rsi
 3018 020e 4889C7   		movq	%rax, %rdi
 3019 0211 E8000000 		call	_ZN8UnitTest11TestResults13OnTestFailureERKNS_11TestDetailsEPKc@PLT
 3019      00
 3020              	.LEHE102:
  83:/home/pong/FPGALink/makestuff/libs/libutpp/Checks.h ****     }
 3021              		.loc 5 83 5
 3022 0216 488D8550 		leaq	-432(%rbp), %rax
 3022      FEFFFF
 3023 021d 4889C7   		movq	%rax, %rdi
 3024              	.LEHB103:
 3025 0220 E8000000 		call	_ZN8UnitTest15MemoryOutStreamD1Ev
 3025      00
 3026              	.LEHE103:
 3027              	.LBE19:
 3028              	.LBE18:
  84:/home/pong/FPGALink/makestuff/libs/libutpp/Checks.h **** }
 3029              		.loc 5 84 1
 3030 0225 EB21     		jmp	.L156
 3031              	.L155:
 3032 0227 F30F1EFA 		endbr64
 3033              	.LBB23:
 3034              	.LBB22:
  83:/home/pong/FPGALink/makestuff/libs/libutpp/Checks.h ****     }
 3035              		.loc 5 83 5
 3036 022b 4889C3   		movq	%rax, %rbx
 3037 022e 488D8550 		leaq	-432(%rbp), %rax
 3037      FEFFFF
 3038 0235 4889C7   		movq	%rax, %rdi
 3039 0238 E8000000 		call	_ZN8UnitTest15MemoryOutStreamD1Ev
 3039      00
 3040 023d 4889D8   		movq	%rbx, %rax
 3041 0240 4889C7   		movq	%rax, %rdi
 3042              	.LEHB104:
 3043 0243 E8000000 		call	_Unwind_Resume@PLT
 3043      00
 3044              	.LEHE104:
 3045              	.L156:
 3046              	.LBE22:
 3047              	.LBE23:
 3048              		.loc 5 84 1
 3049 0248 90       		nop
 3050 0249 488B45E8 		movq	-24(%rbp), %rax
 3051 024d 64482B04 		subq	%fs:40, %rax
 3051      25280000 
 3051      00
 3052 0256 7405     		je	.L154
 3053 0258 E8000000 		call	__stack_chk_fail@PLT
 3053      00
 3054              	.L154:
 3055 025d 488B5DF8 		movq	-8(%rbp), %rbx
 3056 0261 C9       		leave
 3057              		.cfi_def_cfa 7, 8
 3058 0262 C3       		ret
 3059              		.cfi_endproc
 3060              	.LFE1264:
 3061              		.section	.gcc_except_table
 3062              	.LLSDA1264:
 3063 0254 FF       		.byte	0xff
 3064 0255 FF       		.byte	0xff
 3065 0256 01       		.byte	0x1
 3066 0257 16       		.uleb128 .LLSDACSE1264-.LLSDACSB1264
 3067              	.LLSDACSB1264:
 3068 0258 D701     		.uleb128 .LEHB101-.LFB1264
 3069 025a 05       		.uleb128 .LEHE101-.LEHB101
 3070 025b 00       		.uleb128 0
 3071 025c 00       		.uleb128 0
 3072 025d F001     		.uleb128 .LEHB102-.LFB1264
 3073 025f A602     		.uleb128 .LEHE102-.LEHB102
 3074 0261 A704     		.uleb128 .L155-.LFB1264
 3075 0263 00       		.uleb128 0
 3076 0264 A004     		.uleb128 .LEHB103-.LFB1264
 3077 0266 05       		.uleb128 .LEHE103-.LEHB103
 3078 0267 00       		.uleb128 0
 3079 0268 00       		.uleb128 0
 3080 0269 C304     		.uleb128 .LEHB104-.LFB1264
 3081 026b 05       		.uleb128 .LEHE104-.LEHB104
 3082 026c 00       		.uleb128 0
 3083 026d 00       		.uleb128 0
 3084              	.LLSDACSE1264:
 3085              		.section	.text._ZN8UnitTest15CheckArrayEqualIPKcPhEEvRNS_11TestResultsERKT_RKT0_iRKNS_11TestDetail
 3087              		.section	.text._ZN8UnitTest5CheckIbEEbT_,"axG",@progbits,_ZN8UnitTest5CheckIbEEbT_,comdat
 3088              		.weak	_ZN8UnitTest5CheckIbEEbT_
 3090              	_ZN8UnitTest5CheckIbEEbT_:
 3091              	.LFB1274:
  12:/home/pong/FPGALink/makestuff/libs/libutpp/Checks.h **** {
 3092              		.loc 5 12 6
 3093              		.cfi_startproc
 3094 0000 F30F1EFA 		endbr64
 3095 0004 55       		pushq	%rbp
 3096              		.cfi_def_cfa_offset 16
 3097              		.cfi_offset 6, -16
 3098 0005 4889E5   		movq	%rsp, %rbp
 3099              		.cfi_def_cfa_register 6
 3100 0008 89F8     		movl	%edi, %eax
 3101 000a 8845FC   		movb	%al, -4(%rbp)
  14:/home/pong/FPGALink/makestuff/libs/libutpp/Checks.h **** }
 3102              		.loc 5 14 14
 3103 000d 0FB645FC 		movzbl	-4(%rbp), %eax
  15:/home/pong/FPGALink/makestuff/libs/libutpp/Checks.h **** 
 3104              		.loc 5 15 1
 3105 0011 5D       		popq	%rbp
 3106              		.cfi_def_cfa 7, 8
 3107 0012 C3       		ret
 3108              		.cfi_endproc
 3109              	.LFE1274:
 3111              		.section	.text._ZNKSt4fposI11__mbstate_tEcvlEv,"axG",@progbits,_ZNKSt4fposI11__mbstate_tEcvlEv,com
 3112              		.align 2
 3113              		.weak	_ZNKSt4fposI11__mbstate_tEcvlEv
 3115              	_ZNKSt4fposI11__mbstate_tEcvlEv:
 3116              	.LFB1275:
 3117              		.file 6 "/usr/include/c++/11/bits/postypes.h"
   1:/usr/include/c++/11/bits/postypes.h **** // Position types -*- C++ -*-
   2:/usr/include/c++/11/bits/postypes.h **** 
   3:/usr/include/c++/11/bits/postypes.h **** // Copyright (C) 1997-2021 Free Software Foundation, Inc.
   4:/usr/include/c++/11/bits/postypes.h **** //
   5:/usr/include/c++/11/bits/postypes.h **** // This file is part of the GNU ISO C++ Library.  This library is free
   6:/usr/include/c++/11/bits/postypes.h **** // software; you can redistribute it and/or modify it under the
   7:/usr/include/c++/11/bits/postypes.h **** // terms of the GNU General Public License as published by the
   8:/usr/include/c++/11/bits/postypes.h **** // Free Software Foundation; either version 3, or (at your option)
   9:/usr/include/c++/11/bits/postypes.h **** // any later version.
  10:/usr/include/c++/11/bits/postypes.h **** 
  11:/usr/include/c++/11/bits/postypes.h **** // This library is distributed in the hope that it will be useful,
  12:/usr/include/c++/11/bits/postypes.h **** // but WITHOUT ANY WARRANTY; without even the implied warranty of
  13:/usr/include/c++/11/bits/postypes.h **** // MERCHANTABILITY or FITNESS FOR A PARTICULAR PURPOSE.  See the
  14:/usr/include/c++/11/bits/postypes.h **** // GNU General Public License for more details.
  15:/usr/include/c++/11/bits/postypes.h **** 
  16:/usr/include/c++/11/bits/postypes.h **** // Under Section 7 of GPL version 3, you are granted additional
  17:/usr/include/c++/11/bits/postypes.h **** // permissions described in the GCC Runtime Library Exception, version
  18:/usr/include/c++/11/bits/postypes.h **** // 3.1, as published by the Free Software Foundation.
  19:/usr/include/c++/11/bits/postypes.h **** 
  20:/usr/include/c++/11/bits/postypes.h **** // You should have received a copy of the GNU General Public License and
  21:/usr/include/c++/11/bits/postypes.h **** // a copy of the GCC Runtime Library Exception along with this program;
  22:/usr/include/c++/11/bits/postypes.h **** // see the files COPYING3 and COPYING.RUNTIME respectively.  If not, see
  23:/usr/include/c++/11/bits/postypes.h **** // <http://www.gnu.org/licenses/>.
  24:/usr/include/c++/11/bits/postypes.h **** 
  25:/usr/include/c++/11/bits/postypes.h **** /** @file bits/postypes.h
  26:/usr/include/c++/11/bits/postypes.h ****  *  This is an internal header file, included by other library headers.
  27:/usr/include/c++/11/bits/postypes.h ****  *  Do not attempt to use it directly. @headername{iosfwd}
  28:/usr/include/c++/11/bits/postypes.h ****  */
  29:/usr/include/c++/11/bits/postypes.h **** 
  30:/usr/include/c++/11/bits/postypes.h **** //
  31:/usr/include/c++/11/bits/postypes.h **** // ISO C++ 14882: 27.4.1 - Types
  32:/usr/include/c++/11/bits/postypes.h **** // ISO C++ 14882: 27.4.3 - Template class fpos
  33:/usr/include/c++/11/bits/postypes.h **** //
  34:/usr/include/c++/11/bits/postypes.h **** 
  35:/usr/include/c++/11/bits/postypes.h **** #ifndef _GLIBCXX_POSTYPES_H
  36:/usr/include/c++/11/bits/postypes.h **** #define _GLIBCXX_POSTYPES_H 1
  37:/usr/include/c++/11/bits/postypes.h **** 
  38:/usr/include/c++/11/bits/postypes.h **** #pragma GCC system_header
  39:/usr/include/c++/11/bits/postypes.h **** 
  40:/usr/include/c++/11/bits/postypes.h **** #include <cwchar> // For mbstate_t
  41:/usr/include/c++/11/bits/postypes.h **** 
  42:/usr/include/c++/11/bits/postypes.h **** // XXX If <stdint.h> is really needed, make sure to define the macros
  43:/usr/include/c++/11/bits/postypes.h **** // before including it, in order not to break <tr1/cstdint> (and <cstdint>
  44:/usr/include/c++/11/bits/postypes.h **** // in C++11).  Reconsider all this as soon as possible...
  45:/usr/include/c++/11/bits/postypes.h **** #if (defined(_GLIBCXX_HAVE_INT64_T) && !defined(_GLIBCXX_HAVE_INT64_T_LONG) \
  46:/usr/include/c++/11/bits/postypes.h ****      && !defined(_GLIBCXX_HAVE_INT64_T_LONG_LONG))
  47:/usr/include/c++/11/bits/postypes.h **** 
  48:/usr/include/c++/11/bits/postypes.h **** #ifndef __STDC_LIMIT_MACROS
  49:/usr/include/c++/11/bits/postypes.h **** # define _UNDEF__STDC_LIMIT_MACROS
  50:/usr/include/c++/11/bits/postypes.h **** # define __STDC_LIMIT_MACROS
  51:/usr/include/c++/11/bits/postypes.h **** #endif
  52:/usr/include/c++/11/bits/postypes.h **** #ifndef __STDC_CONSTANT_MACROS
  53:/usr/include/c++/11/bits/postypes.h **** # define _UNDEF__STDC_CONSTANT_MACROS
  54:/usr/include/c++/11/bits/postypes.h **** # define __STDC_CONSTANT_MACROS
  55:/usr/include/c++/11/bits/postypes.h **** #endif
  56:/usr/include/c++/11/bits/postypes.h **** #include <stdint.h> // For int64_t
  57:/usr/include/c++/11/bits/postypes.h **** #ifdef _UNDEF__STDC_LIMIT_MACROS
  58:/usr/include/c++/11/bits/postypes.h **** # undef __STDC_LIMIT_MACROS
  59:/usr/include/c++/11/bits/postypes.h **** # undef _UNDEF__STDC_LIMIT_MACROS
  60:/usr/include/c++/11/bits/postypes.h **** #endif
  61:/usr/include/c++/11/bits/postypes.h **** #ifdef _UNDEF__STDC_CONSTANT_MACROS
  62:/usr/include/c++/11/bits/postypes.h **** # undef __STDC_CONSTANT_MACROS
  63:/usr/include/c++/11/bits/postypes.h **** # undef _UNDEF__STDC_CONSTANT_MACROS
  64:/usr/include/c++/11/bits/postypes.h **** #endif
  65:/usr/include/c++/11/bits/postypes.h **** 
  66:/usr/include/c++/11/bits/postypes.h **** #endif
  67:/usr/include/c++/11/bits/postypes.h **** 
  68:/usr/include/c++/11/bits/postypes.h **** namespace std _GLIBCXX_VISIBILITY(default)
  69:/usr/include/c++/11/bits/postypes.h **** {
  70:/usr/include/c++/11/bits/postypes.h **** _GLIBCXX_BEGIN_NAMESPACE_VERSION
  71:/usr/include/c++/11/bits/postypes.h **** 
  72:/usr/include/c++/11/bits/postypes.h ****   // The types streamoff, streampos and wstreampos and the class
  73:/usr/include/c++/11/bits/postypes.h ****   // template fpos<> are described in clauses 21.1.2, 21.1.3, 27.1.2,
  74:/usr/include/c++/11/bits/postypes.h ****   // 27.2, 27.4.1, 27.4.3 and D.6. Despite all this verbiage, the
  75:/usr/include/c++/11/bits/postypes.h ****   // behaviour of these types is mostly implementation defined or
  76:/usr/include/c++/11/bits/postypes.h ****   // unspecified. The behaviour in this implementation is as noted
  77:/usr/include/c++/11/bits/postypes.h ****   // below.
  78:/usr/include/c++/11/bits/postypes.h **** 
  79:/usr/include/c++/11/bits/postypes.h ****   /**
  80:/usr/include/c++/11/bits/postypes.h ****    *  @brief  Type used by fpos, char_traits<char>, and char_traits<wchar_t>.
  81:/usr/include/c++/11/bits/postypes.h ****    *
  82:/usr/include/c++/11/bits/postypes.h ****    *  In clauses 21.1.3.1 and 27.4.1 streamoff is described as an
  83:/usr/include/c++/11/bits/postypes.h ****    *  implementation defined type.
  84:/usr/include/c++/11/bits/postypes.h ****    *  Note: In versions of GCC up to and including GCC 3.3, streamoff
  85:/usr/include/c++/11/bits/postypes.h ****    *  was typedef long.
  86:/usr/include/c++/11/bits/postypes.h ****   */  
  87:/usr/include/c++/11/bits/postypes.h **** #ifdef _GLIBCXX_HAVE_INT64_T_LONG
  88:/usr/include/c++/11/bits/postypes.h ****   typedef long          streamoff;
  89:/usr/include/c++/11/bits/postypes.h **** #elif defined(_GLIBCXX_HAVE_INT64_T_LONG_LONG)
  90:/usr/include/c++/11/bits/postypes.h ****   typedef long long     streamoff;
  91:/usr/include/c++/11/bits/postypes.h **** #elif defined(_GLIBCXX_HAVE_INT64_T) 
  92:/usr/include/c++/11/bits/postypes.h ****   typedef int64_t       streamoff;
  93:/usr/include/c++/11/bits/postypes.h **** #else
  94:/usr/include/c++/11/bits/postypes.h ****   typedef long long     streamoff;
  95:/usr/include/c++/11/bits/postypes.h **** #endif
  96:/usr/include/c++/11/bits/postypes.h **** 
  97:/usr/include/c++/11/bits/postypes.h ****   /// Integral type for I/O operation counts and buffer sizes.
  98:/usr/include/c++/11/bits/postypes.h ****   typedef ptrdiff_t	streamsize; // Signed integral type
  99:/usr/include/c++/11/bits/postypes.h **** 
 100:/usr/include/c++/11/bits/postypes.h ****   /**
 101:/usr/include/c++/11/bits/postypes.h ****    *  @brief  Class representing stream positions.
 102:/usr/include/c++/11/bits/postypes.h ****    *
 103:/usr/include/c++/11/bits/postypes.h ****    *  The standard places no requirements upon the template parameter StateT.
 104:/usr/include/c++/11/bits/postypes.h ****    *  In this implementation StateT must be DefaultConstructible,
 105:/usr/include/c++/11/bits/postypes.h ****    *  CopyConstructible and Assignable.  The standard only requires that fpos
 106:/usr/include/c++/11/bits/postypes.h ****    *  should contain a member of type StateT. In this implementation it also
 107:/usr/include/c++/11/bits/postypes.h ****    *  contains an offset stored as a signed integer.
 108:/usr/include/c++/11/bits/postypes.h ****    *
 109:/usr/include/c++/11/bits/postypes.h ****    *  @param  StateT  Type passed to and returned from state().
 110:/usr/include/c++/11/bits/postypes.h ****    */
 111:/usr/include/c++/11/bits/postypes.h ****   template<typename _StateT>
 112:/usr/include/c++/11/bits/postypes.h ****     class fpos
 113:/usr/include/c++/11/bits/postypes.h ****     {
 114:/usr/include/c++/11/bits/postypes.h ****     private:
 115:/usr/include/c++/11/bits/postypes.h ****       streamoff	                _M_off;
 116:/usr/include/c++/11/bits/postypes.h ****       _StateT			_M_state;
 117:/usr/include/c++/11/bits/postypes.h **** 
 118:/usr/include/c++/11/bits/postypes.h ****     public:
 119:/usr/include/c++/11/bits/postypes.h ****       // The standard doesn't require that fpos objects can be default
 120:/usr/include/c++/11/bits/postypes.h ****       // constructed. This implementation provides a default
 121:/usr/include/c++/11/bits/postypes.h ****       // constructor that initializes the offset to 0 and default
 122:/usr/include/c++/11/bits/postypes.h ****       // constructs the state.
 123:/usr/include/c++/11/bits/postypes.h ****       fpos()
 124:/usr/include/c++/11/bits/postypes.h ****       : _M_off(0), _M_state() { }
 125:/usr/include/c++/11/bits/postypes.h **** 
 126:/usr/include/c++/11/bits/postypes.h ****       // The standard requires that fpos objects can be constructed
 127:/usr/include/c++/11/bits/postypes.h ****       // from streamoff objects using the constructor syntax, and
 128:/usr/include/c++/11/bits/postypes.h ****       // fails to give any meaningful semantics. In this
 129:/usr/include/c++/11/bits/postypes.h ****       // implementation implicit conversion is also allowed, and this
 130:/usr/include/c++/11/bits/postypes.h ****       // constructor stores the streamoff as the offset and default
 131:/usr/include/c++/11/bits/postypes.h ****       // constructs the state.
 132:/usr/include/c++/11/bits/postypes.h ****       /// Construct position from offset.
 133:/usr/include/c++/11/bits/postypes.h ****       fpos(streamoff __off)
 134:/usr/include/c++/11/bits/postypes.h ****       : _M_off(__off), _M_state() { }
 135:/usr/include/c++/11/bits/postypes.h **** 
 136:/usr/include/c++/11/bits/postypes.h **** #if __cplusplus >= 201103L
 137:/usr/include/c++/11/bits/postypes.h ****       fpos(const fpos&) = default;
 138:/usr/include/c++/11/bits/postypes.h ****       fpos& operator=(const fpos&) = default;
 139:/usr/include/c++/11/bits/postypes.h ****       ~fpos() = default;
 140:/usr/include/c++/11/bits/postypes.h **** #endif
 141:/usr/include/c++/11/bits/postypes.h **** 
 142:/usr/include/c++/11/bits/postypes.h ****       /// Convert to streamoff.
 143:/usr/include/c++/11/bits/postypes.h ****       operator streamoff() const { return _M_off; }
 3118              		.loc 6 143 7
 3119              		.cfi_startproc
 3120 0000 F30F1EFA 		endbr64
 3121 0004 55       		pushq	%rbp
 3122              		.cfi_def_cfa_offset 16
 3123              		.cfi_offset 6, -16
 3124 0005 4889E5   		movq	%rsp, %rbp
 3125              		.cfi_def_cfa_register 6
 3126 0008 48897DF8 		movq	%rdi, -8(%rbp)
 3127              		.loc 6 143 43
 3128 000c 488B45F8 		movq	-8(%rbp), %rax
 3129 0010 488B00   		movq	(%rax), %rax
 3130              		.loc 6 143 51
 3131 0013 5D       		popq	%rbp
 3132              		.cfi_def_cfa 7, 8
 3133 0014 C3       		ret
 3134              		.cfi_endproc
 3135              	.LFE1275:
 3137              		.section	.text._ZN8UnitTest15CheckArrayEqualIPKcPcEEvRNS_11TestResultsERKT_RKT0_iRKNS_11TestDetail
 3138              		.weak	_ZN8UnitTest15CheckArrayEqualIPKcPcEEvRNS_11TestResultsERKT_RKT0_iRKNS_11TestDetailsE
 3140              	_ZN8UnitTest15CheckArrayEqualIPKcPcEEvRNS_11TestResultsERKT_RKT0_iRKNS_11TestDetailsE:
 3141              	.LFB1277:
  59:/home/pong/FPGALink/makestuff/libs/libutpp/Checks.h ****                 int const count, TestDetails const& details)
 3142              		.loc 5 59 6
 3143              		.cfi_startproc
 3144              		.cfi_personality 0x9b,DW.ref.__gxx_personality_v0
 3145              		.cfi_lsda 0x1b,.LLSDA1277
 3146 0000 F30F1EFA 		endbr64
 3147 0004 55       		pushq	%rbp
 3148              		.cfi_def_cfa_offset 16
 3149              		.cfi_offset 6, -16
 3150 0005 4889E5   		movq	%rsp, %rbp
 3151              		.cfi_def_cfa_register 6
 3152 0008 53       		pushq	%rbx
 3153 0009 4881ECE8 		subq	$488, %rsp
 3153      010000
 3154              		.cfi_offset 3, -24
 3155 0010 4889BD38 		movq	%rdi, -456(%rbp)
 3155      FEFFFF
 3156 0017 4889B530 		movq	%rsi, -464(%rbp)
 3156      FEFFFF
 3157 001e 48899528 		movq	%rdx, -472(%rbp)
 3157      FEFFFF
 3158 0025 898D24FE 		movl	%ecx, -476(%rbp)
 3158      FFFF
 3159 002b 4C898518 		movq	%r8, -488(%rbp)
 3159      FEFFFF
  59:/home/pong/FPGALink/makestuff/libs/libutpp/Checks.h ****                 int const count, TestDetails const& details)
 3160              		.loc 5 59 6
 3161 0032 64488B04 		movq	%fs:40, %rax
 3161      25280000 
 3161      00
 3162 003b 488945E8 		movq	%rax, -24(%rbp)
 3163 003f 31C0     		xorl	%eax, %eax
  62:/home/pong/FPGALink/makestuff/libs/libutpp/Checks.h ****     for (int i = 0; i < count; ++i)
 3164              		.loc 5 62 10
 3165 0041 C68543FE 		movb	$1, -445(%rbp)
 3165      FFFF01
 3166              	.LBB24:
  63:/home/pong/FPGALink/makestuff/libs/libutpp/Checks.h ****         equal &= (expected[i] == actual[i]);
 3167              		.loc 5 63 14
 3168 0048 C78544FE 		movl	$0, -444(%rbp)
 3168      FFFF0000 
 3168      0000
  63:/home/pong/FPGALink/makestuff/libs/libutpp/Checks.h ****         equal &= (expected[i] == actual[i]);
 3169              		.loc 5 63 5
 3170 0052 EB53     		jmp	.L162
 3171              	.L163:
  64:/home/pong/FPGALink/makestuff/libs/libutpp/Checks.h **** 
 3172              		.loc 5 64 15 discriminator 3
 3173 0054 0FB68D43 		movzbl	-445(%rbp), %ecx
 3173      FEFFFF
  64:/home/pong/FPGALink/makestuff/libs/libutpp/Checks.h **** 
 3174              		.loc 5 64 27 discriminator 3
 3175 005b 488B8530 		movq	-464(%rbp), %rax
 3175      FEFFFF
 3176 0062 488B10   		movq	(%rax), %rdx
  64:/home/pong/FPGALink/makestuff/libs/libutpp/Checks.h **** 
 3177              		.loc 5 64 28 discriminator 3
 3178 0065 8B8544FE 		movl	-444(%rbp), %eax
 3178      FFFF
 3179 006b 4898     		cltq
  64:/home/pong/FPGALink/makestuff/libs/libutpp/Checks.h **** 
 3180              		.loc 5 64 27 discriminator 3
 3181 006d 4801D0   		addq	%rdx, %rax
 3182 0070 0FB610   		movzbl	(%rax), %edx
  64:/home/pong/FPGALink/makestuff/libs/libutpp/Checks.h **** 
 3183              		.loc 5 64 40 discriminator 3
 3184 0073 488B8528 		movq	-472(%rbp), %rax
 3184      FEFFFF
 3185 007a 488B30   		movq	(%rax), %rsi
  64:/home/pong/FPGALink/makestuff/libs/libutpp/Checks.h **** 
 3186              		.loc 5 64 41 discriminator 3
 3187 007d 8B8544FE 		movl	-444(%rbp), %eax
 3187      FFFF
 3188 0083 4898     		cltq
  64:/home/pong/FPGALink/makestuff/libs/libutpp/Checks.h **** 
 3189              		.loc 5 64 40 discriminator 3
 3190 0085 4801F0   		addq	%rsi, %rax
  64:/home/pong/FPGALink/makestuff/libs/libutpp/Checks.h **** 
 3191              		.loc 5 64 31 discriminator 3
 3192 0088 0FB600   		movzbl	(%rax), %eax
 3193 008b 38C2     		cmpb	%al, %dl
 3194 008d 0F94C0   		sete	%al
 3195 0090 0FB6C0   		movzbl	%al, %eax
  64:/home/pong/FPGALink/makestuff/libs/libutpp/Checks.h **** 
 3196              		.loc 5 64 15 discriminator 3
 3197 0093 21C8     		andl	%ecx, %eax
 3198 0095 85C0     		testl	%eax, %eax
 3199 0097 0F95C0   		setne	%al
 3200 009a 888543FE 		movb	%al, -445(%rbp)
 3200      FFFF
  63:/home/pong/FPGALink/makestuff/libs/libutpp/Checks.h ****         equal &= (expected[i] == actual[i]);
 3201              		.loc 5 63 5 discriminator 3
 3202 00a0 838544FE 		addl	$1, -444(%rbp)
 3202      FFFF01
 3203              	.L162:
  63:/home/pong/FPGALink/makestuff/libs/libutpp/Checks.h ****         equal &= (expected[i] == actual[i]);
 3204              		.loc 5 63 23 discriminator 1
 3205 00a7 8B8544FE 		movl	-444(%rbp), %eax
 3205      FFFF
 3206 00ad 3B8524FE 		cmpl	-476(%rbp), %eax
 3206      FFFF
 3207 00b3 7C9F     		jl	.L163
 3208              	.LBE24:
 3209              	.LBB25:
  66:/home/pong/FPGALink/makestuff/libs/libutpp/Checks.h ****     {
 3210              		.loc 5 66 10
 3211 00b5 0FB68543 		movzbl	-445(%rbp), %eax
 3211      FEFFFF
 3212 00bc 83F001   		xorl	$1, %eax
  66:/home/pong/FPGALink/makestuff/libs/libutpp/Checks.h ****     {
 3213              		.loc 5 66 5
 3214 00bf 84C0     		testb	%al, %al
 3215 00c1 0F847B01 		je	.L172
 3215      0000
 3216              	.LBB26:
  68:/home/pong/FPGALink/makestuff/libs/libutpp/Checks.h **** 
 3217              		.loc 5 68 35
 3218 00c7 488D8550 		leaq	-432(%rbp), %rax
 3218      FEFFFF
 3219 00ce 4889C7   		movq	%rax, %rdi
 3220              	.LEHB105:
 3221 00d1 E8000000 		call	_ZN8UnitTest15MemoryOutStreamC1Ev
 3221      00
 3222              	.LEHE105:
  70:/home/pong/FPGALink/makestuff/libs/libutpp/Checks.h **** 
 3223              		.loc 5 70 10
 3224 00d6 488D8550 		leaq	-432(%rbp), %rax
 3224      FEFFFF
 3225 00dd 488D1500 		leaq	.LC22(%rip), %rdx
 3225      000000
 3226 00e4 4889D6   		movq	%rdx, %rsi
 3227 00e7 4889C7   		movq	%rax, %rdi
 3228              	.LEHB106:
 3229 00ea E8000000 		call	_ZStlsISt11char_traitsIcEERSt13basic_ostreamIcT_ES5_PKc@PLT
 3229      00
 3230              	.LBB27:
  72:/home/pong/FPGALink/makestuff/libs/libutpp/Checks.h ****             stream << expected[expectedIndex] << " ";
 3231              		.loc 5 72 12
 3232 00ef C78548FE 		movl	$0, -440(%rbp)
 3232      FFFF0000 
 3232      0000
  72:/home/pong/FPGALink/makestuff/libs/libutpp/Checks.h ****             stream << expected[expectedIndex] << " ";
 3233              		.loc 5 72 3
 3234 00f9 EB48     		jmp	.L165
 3235              	.L166:
  73:/home/pong/FPGALink/makestuff/libs/libutpp/Checks.h **** 
 3236              		.loc 5 73 31
 3237 00fb 488B8530 		movq	-464(%rbp), %rax
 3237      FEFFFF
 3238 0102 488B10   		movq	(%rax), %rdx
  73:/home/pong/FPGALink/makestuff/libs/libutpp/Checks.h **** 
 3239              		.loc 5 73 32
 3240 0105 8B8548FE 		movl	-440(%rbp), %eax
 3240      FFFF
 3241 010b 4898     		cltq
  73:/home/pong/FPGALink/makestuff/libs/libutpp/Checks.h **** 
 3242              		.loc 5 73 31
 3243 010d 4801D0   		addq	%rdx, %rax
 3244 0110 0FB600   		movzbl	(%rax), %eax
  73:/home/pong/FPGALink/makestuff/libs/libutpp/Checks.h **** 
 3245              		.loc 5 73 47
 3246 0113 0FBED0   		movsbl	%al, %edx
 3247 0116 488D8550 		leaq	-432(%rbp), %rax
 3247      FEFFFF
 3248 011d 89D6     		movl	%edx, %esi
 3249 011f 4889C7   		movq	%rax, %rdi
 3250 0122 E8000000 		call	_ZStlsISt11char_traitsIcEERSt13basic_ostreamIcT_ES5_c@PLT
 3250      00
 3251 0127 4889C2   		movq	%rax, %rdx
 3252 012a 488D0500 		leaq	.LC23(%rip), %rax
 3252      000000
 3253 0131 4889C6   		movq	%rax, %rsi
 3254 0134 4889D7   		movq	%rdx, %rdi
 3255 0137 E8000000 		call	_ZStlsISt11char_traitsIcEERSt13basic_ostreamIcT_ES5_PKc@PLT
 3255      00
  72:/home/pong/FPGALink/makestuff/libs/libutpp/Checks.h ****             stream << expected[expectedIndex] << " ";
 3256              		.loc 5 72 3 discriminator 2
 3257 013c 838548FE 		addl	$1, -440(%rbp)
 3257      FFFF01
 3258              	.L165:
  72:/home/pong/FPGALink/makestuff/libs/libutpp/Checks.h ****             stream << expected[expectedIndex] << " ";
 3259              		.loc 5 72 45 discriminator 1
 3260 0143 8B8548FE 		movl	-440(%rbp), %eax
 3260      FFFF
 3261 0149 3B8524FE 		cmpl	-476(%rbp), %eax
 3261      FFFF
 3262 014f 7CAA     		jl	.L166
 3263              	.LBE27:
  75:/home/pong/FPGALink/makestuff/libs/libutpp/Checks.h **** 
 3264              		.loc 5 75 10
 3265 0151 488D8550 		leaq	-432(%rbp), %rax
 3265      FEFFFF
 3266 0158 488D1500 		leaq	.LC24(%rip), %rdx
 3266      000000
 3267 015f 4889D6   		movq	%rdx, %rsi
 3268 0162 4889C7   		movq	%rax, %rdi
 3269 0165 E8000000 		call	_ZStlsISt11char_traitsIcEERSt13basic_ostreamIcT_ES5_PKc@PLT
 3269      00
 3270              	.LBB28:
  77:/home/pong/FPGALink/makestuff/libs/libutpp/Checks.h ****             stream << actual[actualIndex] << " ";
 3271              		.loc 5 77 12
 3272 016a C7854CFE 		movl	$0, -436(%rbp)
 3272      FFFF0000 
 3272      0000
  77:/home/pong/FPGALink/makestuff/libs/libutpp/Checks.h ****             stream << actual[actualIndex] << " ";
 3273              		.loc 5 77 3
 3274 0174 EB48     		jmp	.L167
 3275              	.L168:
  78:/home/pong/FPGALink/makestuff/libs/libutpp/Checks.h **** 
 3276              		.loc 5 78 29
 3277 0176 488B8528 		movq	-472(%rbp), %rax
 3277      FEFFFF
 3278 017d 488B10   		movq	(%rax), %rdx
  78:/home/pong/FPGALink/makestuff/libs/libutpp/Checks.h **** 
 3279              		.loc 5 78 30
 3280 0180 8B854CFE 		movl	-436(%rbp), %eax
 3280      FFFF
 3281 0186 4898     		cltq
  78:/home/pong/FPGALink/makestuff/libs/libutpp/Checks.h **** 
 3282              		.loc 5 78 29
 3283 0188 4801D0   		addq	%rdx, %rax
 3284 018b 0FB600   		movzbl	(%rax), %eax
  78:/home/pong/FPGALink/makestuff/libs/libutpp/Checks.h **** 
 3285              		.loc 5 78 43
 3286 018e 0FBED0   		movsbl	%al, %edx
 3287 0191 488D8550 		leaq	-432(%rbp), %rax
 3287      FEFFFF
 3288 0198 89D6     		movl	%edx, %esi
 3289 019a 4889C7   		movq	%rax, %rdi
 3290 019d E8000000 		call	_ZStlsISt11char_traitsIcEERSt13basic_ostreamIcT_ES5_c@PLT
 3290      00
 3291 01a2 4889C2   		movq	%rax, %rdx
 3292 01a5 488D0500 		leaq	.LC23(%rip), %rax
 3292      000000
 3293 01ac 4889C6   		movq	%rax, %rsi
 3294 01af 4889D7   		movq	%rdx, %rdi
 3295 01b2 E8000000 		call	_ZStlsISt11char_traitsIcEERSt13basic_ostreamIcT_ES5_PKc@PLT
 3295      00
  77:/home/pong/FPGALink/makestuff/libs/libutpp/Checks.h ****             stream << actual[actualIndex] << " ";
 3296              		.loc 5 77 3 discriminator 2
 3297 01b7 83854CFE 		addl	$1, -436(%rbp)
 3297      FFFF01
 3298              	.L167:
  77:/home/pong/FPGALink/makestuff/libs/libutpp/Checks.h ****             stream << actual[actualIndex] << " ";
 3299              		.loc 5 77 41 discriminator 1
 3300 01be 8B854CFE 		movl	-436(%rbp), %eax
 3300      FFFF
 3301 01c4 3B8524FE 		cmpl	-476(%rbp), %eax
 3301      FFFF
 3302 01ca 7CAA     		jl	.L168
 3303              	.LBE28:
  80:/home/pong/FPGALink/makestuff/libs/libutpp/Checks.h **** 
 3304              		.loc 5 80 10
 3305 01cc 488D8550 		leaq	-432(%rbp), %rax
 3305      FEFFFF
 3306 01d3 488D1500 		leaq	.LC25(%rip), %rdx
 3306      000000
 3307 01da 4889D6   		movq	%rdx, %rsi
 3308 01dd 4889C7   		movq	%rax, %rdi
 3309 01e0 E8000000 		call	_ZStlsISt11char_traitsIcEERSt13basic_ostreamIcT_ES5_PKc@PLT
 3309      00
  82:/home/pong/FPGALink/makestuff/libs/libutpp/Checks.h ****     }
 3310              		.loc 5 82 30
 3311 01e5 488D8550 		leaq	-432(%rbp), %rax
 3311      FEFFFF
 3312 01ec 4889C7   		movq	%rax, %rdi
 3313 01ef E8000000 		call	_ZNK8UnitTest15MemoryOutStream7GetTextEv@PLT
 3313      00
 3314 01f4 4889C2   		movq	%rax, %rdx
 3315 01f7 488B8D18 		movq	-488(%rbp), %rcx
 3315      FEFFFF
 3316 01fe 488B8538 		movq	-456(%rbp), %rax
 3316      FEFFFF
 3317 0205 4889CE   		movq	%rcx, %rsi
 3318 0208 4889C7   		movq	%rax, %rdi
 3319 020b E8000000 		call	_ZN8UnitTest11TestResults13OnTestFailureERKNS_11TestDetailsEPKc@PLT
 3319      00
 3320              	.LEHE106:
  83:/home/pong/FPGALink/makestuff/libs/libutpp/Checks.h **** }
 3321              		.loc 5 83 5
 3322 0210 488D8550 		leaq	-432(%rbp), %rax
 3322      FEFFFF
 3323 0217 4889C7   		movq	%rax, %rdi
 3324              	.LEHB107:
 3325 021a E8000000 		call	_ZN8UnitTest15MemoryOutStreamD1Ev
 3325      00
 3326              	.LEHE107:
 3327              	.LBE26:
 3328              	.LBE25:
 3329              		.loc 5 84 1
 3330 021f EB21     		jmp	.L172
 3331              	.L171:
 3332 0221 F30F1EFA 		endbr64
 3333              	.LBB30:
 3334              	.LBB29:
  83:/home/pong/FPGALink/makestuff/libs/libutpp/Checks.h **** }
 3335              		.loc 5 83 5
 3336 0225 4889C3   		movq	%rax, %rbx
 3337 0228 488D8550 		leaq	-432(%rbp), %rax
 3337      FEFFFF
 3338 022f 4889C7   		movq	%rax, %rdi
 3339 0232 E8000000 		call	_ZN8UnitTest15MemoryOutStreamD1Ev
 3339      00
 3340 0237 4889D8   		movq	%rbx, %rax
 3341 023a 4889C7   		movq	%rax, %rdi
 3342              	.LEHB108:
 3343 023d E8000000 		call	_Unwind_Resume@PLT
 3343      00
 3344              	.LEHE108:
 3345              	.L172:
 3346              	.LBE29:
 3347              	.LBE30:
 3348              		.loc 5 84 1
 3349 0242 90       		nop
 3350 0243 488B45E8 		movq	-24(%rbp), %rax
 3351 0247 64482B04 		subq	%fs:40, %rax
 3351      25280000 
 3351      00
 3352 0250 7405     		je	.L170
 3353 0252 E8000000 		call	__stack_chk_fail@PLT
 3353      00
 3354              	.L170:
 3355 0257 488B5DF8 		movq	-8(%rbp), %rbx
 3356 025b C9       		leave
 3357              		.cfi_def_cfa 7, 8
 3358 025c C3       		ret
 3359              		.cfi_endproc
 3360              	.LFE1277:
 3361              		.section	.gcc_except_table
 3362              	.LLSDA1277:
 3363 026e FF       		.byte	0xff
 3364 026f FF       		.byte	0xff
 3365 0270 01       		.byte	0x1
 3366 0271 16       		.uleb128 .LLSDACSE1277-.LLSDACSB1277
 3367              	.LLSDACSB1277:
 3368 0272 D101     		.uleb128 .LEHB105-.LFB1277
 3369 0274 05       		.uleb128 .LEHE105-.LEHB105
 3370 0275 00       		.uleb128 0
 3371 0276 00       		.uleb128 0
 3372 0277 EA01     		.uleb128 .LEHB106-.LFB1277
 3373 0279 A602     		.uleb128 .LEHE106-.LEHB106
 3374 027b A104     		.uleb128 .L171-.LFB1277
 3375 027d 00       		.uleb128 0
 3376 027e 9A04     		.uleb128 .LEHB107-.LFB1277
 3377 0280 05       		.uleb128 .LEHE107-.LEHB107
 3378 0281 00       		.uleb128 0
 3379 0282 00       		.uleb128 0
 3380 0283 BD04     		.uleb128 .LEHB108-.LFB1277
 3381 0285 05       		.uleb128 .LEHE108-.LEHB108
 3382 0286 00       		.uleb128 0
 3383 0287 00       		.uleb128 0
 3384              	.LLSDACSE1277:
 3385              		.section	.text._ZN8UnitTest15CheckArrayEqualIPKcPcEEvRNS_11TestResultsERKT_RKT0_iRKNS_11TestDetail
 3387              		.section	.text._ZN8UnitTest10CheckEqualIilEEvRNS_11TestResultsERKT_RKT0_RKNS_11TestDetailsE,"axG",
 3388              		.weak	_ZN8UnitTest10CheckEqualIilEEvRNS_11TestResultsERKT_RKT0_RKNS_11TestDetailsE
 3390              	_ZN8UnitTest10CheckEqualIilEEvRNS_11TestResultsERKT_RKT0_RKNS_11TestDetailsE:
 3391              	.LFB1278:
  19:/home/pong/FPGALink/makestuff/libs/libutpp/Checks.h **** {
 3392              		.loc 5 19 6
 3393              		.cfi_startproc
 3394              		.cfi_personality 0x9b,DW.ref.__gxx_personality_v0
 3395              		.cfi_lsda 0x1b,.LLSDA1278
 3396 0000 F30F1EFA 		endbr64
 3397 0004 55       		pushq	%rbp
 3398              		.cfi_def_cfa_offset 16
 3399              		.cfi_offset 6, -16
 3400 0005 4889E5   		movq	%rsp, %rbp
 3401              		.cfi_def_cfa_register 6
 3402 0008 53       		pushq	%rbx
 3403 0009 4881ECC8 		subq	$456, %rsp
 3403      010000
 3404              		.cfi_offset 3, -24
 3405 0010 4889BD48 		movq	%rdi, -440(%rbp)
 3405      FEFFFF
 3406 0017 4889B540 		movq	%rsi, -448(%rbp)
 3406      FEFFFF
 3407 001e 48899538 		movq	%rdx, -456(%rbp)
 3407      FEFFFF
 3408 0025 48898D30 		movq	%rcx, -464(%rbp)
 3408      FEFFFF
  19:/home/pong/FPGALink/makestuff/libs/libutpp/Checks.h **** {
 3409              		.loc 5 19 6
 3410 002c 64488B04 		movq	%fs:40, %rax
 3410      25280000 
 3410      00
 3411 0035 488945E8 		movq	%rax, -24(%rbp)
 3412 0039 31C0     		xorl	%eax, %eax
 3413              	.LBB31:
  21:/home/pong/FPGALink/makestuff/libs/libutpp/Checks.h ****     {
 3414              		.loc 5 21 20
 3415 003b 488B8540 		movq	-448(%rbp), %rax
 3415      FEFFFF
 3416 0042 8B00     		movl	(%rax), %eax
 3417 0044 4863D0   		movslq	%eax, %rdx
 3418 0047 488B8538 		movq	-456(%rbp), %rax
 3418      FEFFFF
 3419 004e 488B00   		movq	(%rax), %rax
  21:/home/pong/FPGALink/makestuff/libs/libutpp/Checks.h ****     {
 3420              		.loc 5 21 5
 3421 0051 4839C2   		cmpq	%rax, %rdx
 3422 0054 0F84C800 		je	.L178
 3422      0000
 3423              	.LBB32:
  23:/home/pong/FPGALink/makestuff/libs/libutpp/Checks.h ****         stream << "Expected " << expected << " but was " << actual;
 3424              		.loc 5 23 35
 3425 005a 488D8550 		leaq	-432(%rbp), %rax
 3425      FEFFFF
 3426 0061 4889C7   		movq	%rax, %rdi
 3427              	.LEHB109:
 3428 0064 E8000000 		call	_ZN8UnitTest15MemoryOutStreamC1Ev
 3428      00
 3429              	.LEHE109:
  24:/home/pong/FPGALink/makestuff/libs/libutpp/Checks.h **** 
 3430              		.loc 5 24 16
 3431 0069 488D8550 		leaq	-432(%rbp), %rax
 3431      FEFFFF
 3432 0070 488D1500 		leaq	.LC20(%rip), %rdx
 3432      000000
 3433 0077 4889D6   		movq	%rdx, %rsi
 3434 007a 4889C7   		movq	%rax, %rdi
 3435              	.LEHB110:
 3436 007d E8000000 		call	_ZStlsISt11char_traitsIcEERSt13basic_ostreamIcT_ES5_PKc@PLT
 3436      00
 3437 0082 4889C2   		movq	%rax, %rdx
  24:/home/pong/FPGALink/makestuff/libs/libutpp/Checks.h **** 
 3438              		.loc 5 24 43
 3439 0085 488B8540 		movq	-448(%rbp), %rax
 3439      FEFFFF
 3440 008c 8B00     		movl	(%rax), %eax
 3441 008e 89C6     		movl	%eax, %esi
 3442 0090 4889D7   		movq	%rdx, %rdi
 3443 0093 E8000000 		call	_ZNSolsEi@PLT
 3443      00
  24:/home/pong/FPGALink/makestuff/libs/libutpp/Checks.h **** 
 3444              		.loc 5 24 43 is_stmt 0 discriminator 1
 3445 0098 4889C2   		movq	%rax, %rdx
 3446 009b 488D0500 		leaq	.LC21(%rip), %rax
 3446      000000
 3447 00a2 4889C6   		movq	%rax, %rsi
 3448 00a5 4889D7   		movq	%rdx, %rdi
 3449 00a8 E8000000 		call	_ZStlsISt11char_traitsIcEERSt13basic_ostreamIcT_ES5_PKc@PLT
 3449      00
  24:/home/pong/FPGALink/makestuff/libs/libutpp/Checks.h **** 
 3450              		.loc 5 24 43 discriminator 2
 3451 00ad 4889C2   		movq	%rax, %rdx
  24:/home/pong/FPGALink/makestuff/libs/libutpp/Checks.h **** 
 3452              		.loc 5 24 58 is_stmt 1 discriminator 2
 3453 00b0 488B8538 		movq	-456(%rbp), %rax
 3453      FEFFFF
 3454 00b7 488B00   		movq	(%rax), %rax
 3455 00ba 4889C6   		movq	%rax, %rsi
 3456 00bd 4889D7   		movq	%rdx, %rdi
 3457 00c0 E8000000 		call	_ZNSolsEl@PLT
 3457      00
  26:/home/pong/FPGALink/makestuff/libs/libutpp/Checks.h ****     }
 3458              		.loc 5 26 30
 3459 00c5 488D8550 		leaq	-432(%rbp), %rax
 3459      FEFFFF
 3460 00cc 4889C7   		movq	%rax, %rdi
 3461 00cf E8000000 		call	_ZNK8UnitTest15MemoryOutStream7GetTextEv@PLT
 3461      00
 3462 00d4 4889C2   		movq	%rax, %rdx
 3463 00d7 488B8D30 		movq	-464(%rbp), %rcx
 3463      FEFFFF
 3464 00de 488B8548 		movq	-440(%rbp), %rax
 3464      FEFFFF
 3465 00e5 4889CE   		movq	%rcx, %rsi
 3466 00e8 4889C7   		movq	%rax, %rdi
 3467 00eb E8000000 		call	_ZN8UnitTest11TestResults13OnTestFailureERKNS_11TestDetailsEPKc@PLT
 3467      00
 3468              	.LEHE110:
  27:/home/pong/FPGALink/makestuff/libs/libutpp/Checks.h **** }
 3469              		.loc 5 27 5
 3470 00f0 488D8550 		leaq	-432(%rbp), %rax
 3470      FEFFFF
 3471 00f7 4889C7   		movq	%rax, %rdi
 3472              	.LEHB111:
 3473 00fa E8000000 		call	_ZN8UnitTest15MemoryOutStreamD1Ev
 3473      00
 3474              	.LEHE111:
 3475              	.LBE32:
 3476              	.LBE31:
  28:/home/pong/FPGALink/makestuff/libs/libutpp/Checks.h **** 
 3477              		.loc 5 28 1
 3478 00ff EB21     		jmp	.L178
 3479              	.L177:
 3480 0101 F30F1EFA 		endbr64
 3481              	.LBB34:
 3482              	.LBB33:
  27:/home/pong/FPGALink/makestuff/libs/libutpp/Checks.h **** }
 3483              		.loc 5 27 5
 3484 0105 4889C3   		movq	%rax, %rbx
 3485 0108 488D8550 		leaq	-432(%rbp), %rax
 3485      FEFFFF
 3486 010f 4889C7   		movq	%rax, %rdi
 3487 0112 E8000000 		call	_ZN8UnitTest15MemoryOutStreamD1Ev
 3487      00
 3488 0117 4889D8   		movq	%rbx, %rax
 3489 011a 4889C7   		movq	%rax, %rdi
 3490              	.LEHB112:
 3491 011d E8000000 		call	_Unwind_Resume@PLT
 3491      00
 3492              	.LEHE112:
 3493              	.L178:
 3494              	.LBE33:
 3495              	.LBE34:
  28:/home/pong/FPGALink/makestuff/libs/libutpp/Checks.h **** 
 3496              		.loc 5 28 1
 3497 0122 90       		nop
 3498 0123 488B45E8 		movq	-24(%rbp), %rax
 3499 0127 64482B04 		subq	%fs:40, %rax
 3499      25280000 
 3499      00
 3500 0130 7405     		je	.L176
 3501 0132 E8000000 		call	__stack_chk_fail@PLT
 3501      00
 3502              	.L176:
 3503 0137 488B5DF8 		movq	-8(%rbp), %rbx
 3504 013b C9       		leave
 3505              		.cfi_def_cfa 7, 8
 3506 013c C3       		ret
 3507              		.cfi_endproc
 3508              	.LFE1278:
 3509              		.section	.gcc_except_table
 3510              	.LLSDA1278:
 3511 0288 FF       		.byte	0xff
 3512 0289 FF       		.byte	0xff
 3513 028a 01       		.byte	0x1
 3514 028b 13       		.uleb128 .LLSDACSE1278-.LLSDACSB1278
 3515              	.LLSDACSB1278:
 3516 028c 64       		.uleb128 .LEHB109-.LFB1278
 3517 028d 05       		.uleb128 .LEHE109-.LEHB109
 3518 028e 00       		.uleb128 0
 3519 028f 00       		.uleb128 0
 3520 0290 7D       		.uleb128 .LEHB110-.LFB1278
 3521 0291 73       		.uleb128 .LEHE110-.LEHB110
 3522 0292 8102     		.uleb128 .L177-.LFB1278
 3523 0294 00       		.uleb128 0
 3524 0295 FA01     		.uleb128 .LEHB111-.LFB1278
 3525 0297 05       		.uleb128 .LEHE111-.LEHB111
 3526 0298 00       		.uleb128 0
 3527 0299 00       		.uleb128 0
 3528 029a 9D02     		.uleb128 .LEHB112-.LFB1278
 3529 029c 05       		.uleb128 .LEHE112-.LEHB112
 3530 029d 00       		.uleb128 0
 3531 029e 00       		.uleb128 0
 3532              	.LLSDACSE1278:
 3533              		.section	.text._ZN8UnitTest10CheckEqualIilEEvRNS_11TestResultsERKT_RKT0_RKNS_11TestDetailsE,"axG",
 3535              		.weak	_ZTV23TestBinIO_testWriteFile
 3536              		.section	.data.rel.ro.local._ZTV23TestBinIO_testWriteFile,"awG",@progbits,_ZTV23TestBinIO_testWrit
 3537              		.align 8
 3540              	_ZTV23TestBinIO_testWriteFile:
 3541 0000 00000000 		.quad	0
 3541      00000000 
 3542 0008 00000000 		.quad	_ZTI23TestBinIO_testWriteFile
 3542      00000000 
 3543 0010 00000000 		.quad	_ZN23TestBinIO_testWriteFileD1Ev
 3543      00000000 
 3544 0018 00000000 		.quad	_ZN23TestBinIO_testWriteFileD0Ev
 3544      00000000 
 3545 0020 00000000 		.quad	_ZNK23TestBinIO_testWriteFile7RunImplEv
 3545      00000000 
 3546              		.section	.text._ZN23TestBinIO_testWriteFileD2Ev,"axG",@progbits,_ZN23TestBinIO_testWriteFileD5Ev,c
 3547              		.align 2
 3548              		.weak	_ZN23TestBinIO_testWriteFileD2Ev
 3550              	_ZN23TestBinIO_testWriteFileD2Ev:
 3551              	.LFB1347:
  54:testBinIO.cpp **** 	const char *const FILENAME = "tmpFile.bin";
 3552              		.loc 4 54 1
 3553              		.cfi_startproc
 3554 0000 F30F1EFA 		endbr64
 3555 0004 55       		pushq	%rbp
 3556              		.cfi_def_cfa_offset 16
 3557              		.cfi_offset 6, -16
 3558 0005 4889E5   		movq	%rsp, %rbp
 3559              		.cfi_def_cfa_register 6
 3560 0008 4883EC10 		subq	$16, %rsp
 3561 000c 48897DF8 		movq	%rdi, -8(%rbp)
 3562              	.LBB35:
  54:testBinIO.cpp **** 	const char *const FILENAME = "tmpFile.bin";
 3563              		.loc 4 54 1
 3564 0010 488D1500 		leaq	16+_ZTV23TestBinIO_testWriteFile(%rip), %rdx
 3564      000000
 3565 0017 488B45F8 		movq	-8(%rbp), %rax
 3566 001b 488910   		movq	%rdx, (%rax)
 3567 001e 488B45F8 		movq	-8(%rbp), %rax
 3568 0022 4889C7   		movq	%rax, %rdi
 3569 0025 E8000000 		call	_ZN8UnitTest4TestD2Ev@PLT
 3569      00
 3570              	.LBE35:
 3571 002a 90       		nop
 3572 002b C9       		leave
 3573              		.cfi_def_cfa 7, 8
 3574 002c C3       		ret
 3575              		.cfi_endproc
 3576              	.LFE1347:
 3578              		.weak	_ZN23TestBinIO_testWriteFileD1Ev
 3579              		.set	_ZN23TestBinIO_testWriteFileD1Ev,_ZN23TestBinIO_testWriteFileD2Ev
 3580              		.section	.text._ZN23TestBinIO_testWriteFileD0Ev,"axG",@progbits,_ZN23TestBinIO_testWriteFileD5Ev,c
 3581              		.align 2
 3582              		.weak	_ZN23TestBinIO_testWriteFileD0Ev
 3584              	_ZN23TestBinIO_testWriteFileD0Ev:
 3585              	.LFB1349:
  54:testBinIO.cpp **** 	const char *const FILENAME = "tmpFile.bin";
 3586              		.loc 4 54 1
 3587              		.cfi_startproc
 3588              		.cfi_personality 0x9b,DW.ref.__gxx_personality_v0
 3589              		.cfi_lsda 0x1b,.LLSDA1349
 3590 0000 F30F1EFA 		endbr64
 3591 0004 55       		pushq	%rbp
 3592              		.cfi_def_cfa_offset 16
 3593              		.cfi_offset 6, -16
 3594 0005 4889E5   		movq	%rsp, %rbp
 3595              		.cfi_def_cfa_register 6
 3596 0008 53       		pushq	%rbx
 3597 0009 4883EC18 		subq	$24, %rsp
 3598              		.cfi_offset 3, -24
 3599 000d 48897DE8 		movq	%rdi, -24(%rbp)
  54:testBinIO.cpp **** 	const char *const FILENAME = "tmpFile.bin";
 3600              		.loc 4 54 1
 3601 0011 488B45E8 		movq	-24(%rbp), %rax
 3602 0015 4889C7   		movq	%rax, %rdi
 3603              	.LEHB113:
 3604 0018 E8000000 		call	_ZN23TestBinIO_testWriteFileD1Ev
 3604      00
 3605              	.LEHE113:
  54:testBinIO.cpp **** 	const char *const FILENAME = "tmpFile.bin";
 3606              		.loc 4 54 1 is_stmt 0 discriminator 2
 3607 001d 488B45E8 		movq	-24(%rbp), %rax
 3608 0021 4889C7   		movq	%rax, %rdi
 3609 0024 E8000000 		call	_ZdlPv@PLT
 3609      00
 3610 0029 EB1E     		jmp	.L183
 3611              	.L182:
 3612 002b F30F1EFA 		endbr64
  54:testBinIO.cpp **** 	const char *const FILENAME = "tmpFile.bin";
 3613              		.loc 4 54 1
 3614 002f 4889C3   		movq	%rax, %rbx
 3615 0032 488B45E8 		movq	-24(%rbp), %rax
 3616 0036 4889C7   		movq	%rax, %rdi
 3617 0039 E8000000 		call	_ZdlPv@PLT
 3617      00
 3618 003e 4889D8   		movq	%rbx, %rax
 3619 0041 4889C7   		movq	%rax, %rdi
 3620              	.LEHB114:
 3621 0044 E8000000 		call	_Unwind_Resume@PLT
 3621      00
 3622              	.LEHE114:
 3623              	.L183:
 3624 0049 488B5DF8 		movq	-8(%rbp), %rbx
 3625 004d C9       		leave
 3626              		.cfi_def_cfa 7, 8
 3627 004e C3       		ret
 3628              		.cfi_endproc
 3629              	.LFE1349:
 3630              		.section	.gcc_except_table
 3631              	.LLSDA1349:
 3632 029f FF       		.byte	0xff
 3633 02a0 FF       		.byte	0xff
 3634 02a1 01       		.byte	0x1
 3635 02a2 08       		.uleb128 .LLSDACSE1349-.LLSDACSB1349
 3636              	.LLSDACSB1349:
 3637 02a3 18       		.uleb128 .LEHB113-.LFB1349
 3638 02a4 05       		.uleb128 .LEHE113-.LEHB113
 3639 02a5 2B       		.uleb128 .L182-.LFB1349
 3640 02a6 00       		.uleb128 0
 3641 02a7 44       		.uleb128 .LEHB114-.LFB1349
 3642 02a8 05       		.uleb128 .LEHE114-.LEHB114
 3643 02a9 00       		.uleb128 0
 3644 02aa 00       		.uleb128 0
 3645              	.LLSDACSE1349:
 3646              		.section	.text._ZN23TestBinIO_testWriteFileD0Ev,"axG",@progbits,_ZN23TestBinIO_testWriteFileD5Ev,c
 3648              		.weak	_ZTV30TestBinIO_testReadExistingFile
 3649              		.section	.data.rel.ro.local._ZTV30TestBinIO_testReadExistingFile,"awG",@progbits,_ZTV30TestBinIO_t
 3650              		.align 8
 3653              	_ZTV30TestBinIO_testReadExistingFile:
 3654 0000 00000000 		.quad	0
 3654      00000000 
 3655 0008 00000000 		.quad	_ZTI30TestBinIO_testReadExistingFile
 3655      00000000 
 3656 0010 00000000 		.quad	_ZN30TestBinIO_testReadExistingFileD1Ev
 3656      00000000 
 3657 0018 00000000 		.quad	_ZN30TestBinIO_testReadExistingFileD0Ev
 3657      00000000 
 3658 0020 00000000 		.quad	_ZNK30TestBinIO_testReadExistingFile7RunImplEv
 3658      00000000 
 3659              		.section	.text._ZN30TestBinIO_testReadExistingFileD2Ev,"axG",@progbits,_ZN30TestBinIO_testReadExis
 3660              		.align 2
 3661              		.weak	_ZN30TestBinIO_testReadExistingFileD2Ev
 3663              	_ZN30TestBinIO_testReadExistingFileD2Ev:
 3664              	.LFB1351:
  33:testBinIO.cpp **** 	const char *const FILENAME = "tmpFile.bin";
 3665              		.loc 4 33 1 is_stmt 1
 3666              		.cfi_startproc
 3667 0000 F30F1EFA 		endbr64
 3668 0004 55       		pushq	%rbp
 3669              		.cfi_def_cfa_offset 16
 3670              		.cfi_offset 6, -16
 3671 0005 4889E5   		movq	%rsp, %rbp
 3672              		.cfi_def_cfa_register 6
 3673 0008 4883EC10 		subq	$16, %rsp
 3674 000c 48897DF8 		movq	%rdi, -8(%rbp)
 3675              	.LBB36:
  33:testBinIO.cpp **** 	const char *const FILENAME = "tmpFile.bin";
 3676              		.loc 4 33 1
 3677 0010 488D1500 		leaq	16+_ZTV30TestBinIO_testReadExistingFile(%rip), %rdx
 3677      000000
 3678 0017 488B45F8 		movq	-8(%rbp), %rax
 3679 001b 488910   		movq	%rdx, (%rax)
 3680 001e 488B45F8 		movq	-8(%rbp), %rax
 3681 0022 4889C7   		movq	%rax, %rdi
 3682 0025 E8000000 		call	_ZN8UnitTest4TestD2Ev@PLT
 3682      00
 3683              	.LBE36:
 3684 002a 90       		nop
 3685 002b C9       		leave
 3686              		.cfi_def_cfa 7, 8
 3687 002c C3       		ret
 3688              		.cfi_endproc
 3689              	.LFE1351:
 3691              		.weak	_ZN30TestBinIO_testReadExistingFileD1Ev
 3692              		.set	_ZN30TestBinIO_testReadExistingFileD1Ev,_ZN30TestBinIO_testReadExistingFileD2Ev
 3693              		.section	.text._ZN30TestBinIO_testReadExistingFileD0Ev,"axG",@progbits,_ZN30TestBinIO_testReadExis
 3694              		.align 2
 3695              		.weak	_ZN30TestBinIO_testReadExistingFileD0Ev
 3697              	_ZN30TestBinIO_testReadExistingFileD0Ev:
 3698              	.LFB1353:
  33:testBinIO.cpp **** 	const char *const FILENAME = "tmpFile.bin";
 3699              		.loc 4 33 1
 3700              		.cfi_startproc
 3701              		.cfi_personality 0x9b,DW.ref.__gxx_personality_v0
 3702              		.cfi_lsda 0x1b,.LLSDA1353
 3703 0000 F30F1EFA 		endbr64
 3704 0004 55       		pushq	%rbp
 3705              		.cfi_def_cfa_offset 16
 3706              		.cfi_offset 6, -16
 3707 0005 4889E5   		movq	%rsp, %rbp
 3708              		.cfi_def_cfa_register 6
 3709 0008 53       		pushq	%rbx
 3710 0009 4883EC18 		subq	$24, %rsp
 3711              		.cfi_offset 3, -24
 3712 000d 48897DE8 		movq	%rdi, -24(%rbp)
  33:testBinIO.cpp **** 	const char *const FILENAME = "tmpFile.bin";
 3713              		.loc 4 33 1
 3714 0011 488B45E8 		movq	-24(%rbp), %rax
 3715 0015 4889C7   		movq	%rax, %rdi
 3716              	.LEHB115:
 3717 0018 E8000000 		call	_ZN30TestBinIO_testReadExistingFileD1Ev
 3717      00
 3718              	.LEHE115:
  33:testBinIO.cpp **** 	const char *const FILENAME = "tmpFile.bin";
 3719              		.loc 4 33 1 is_stmt 0 discriminator 2
 3720 001d 488B45E8 		movq	-24(%rbp), %rax
 3721 0021 4889C7   		movq	%rax, %rdi
 3722 0024 E8000000 		call	_ZdlPv@PLT
 3722      00
 3723 0029 EB1E     		jmp	.L188
 3724              	.L187:
 3725 002b F30F1EFA 		endbr64
  33:testBinIO.cpp **** 	const char *const FILENAME = "tmpFile.bin";
 3726              		.loc 4 33 1
 3727 002f 4889C3   		movq	%rax, %rbx
 3728 0032 488B45E8 		movq	-24(%rbp), %rax
 3729 0036 4889C7   		movq	%rax, %rdi
 3730 0039 E8000000 		call	_ZdlPv@PLT
 3730      00
 3731 003e 4889D8   		movq	%rbx, %rax
 3732 0041 4889C7   		movq	%rax, %rdi
 3733              	.LEHB116:
 3734 0044 E8000000 		call	_Unwind_Resume@PLT
 3734      00
 3735              	.LEHE116:
 3736              	.L188:
 3737 0049 488B5DF8 		movq	-8(%rbp), %rbx
 3738 004d C9       		leave
 3739              		.cfi_def_cfa 7, 8
 3740 004e C3       		ret
 3741              		.cfi_endproc
 3742              	.LFE1353:
 3743              		.section	.gcc_except_table
 3744              	.LLSDA1353:
 3745 02ab FF       		.byte	0xff
 3746 02ac FF       		.byte	0xff
 3747 02ad 01       		.byte	0x1
 3748 02ae 08       		.uleb128 .LLSDACSE1353-.LLSDACSB1353
 3749              	.LLSDACSB1353:
 3750 02af 18       		.uleb128 .LEHB115-.LFB1353
 3751 02b0 05       		.uleb128 .LEHE115-.LEHB115
 3752 02b1 2B       		.uleb128 .L187-.LFB1353
 3753 02b2 00       		.uleb128 0
 3754 02b3 44       		.uleb128 .LEHB116-.LFB1353
 3755 02b4 05       		.uleb128 .LEHE116-.LEHB116
 3756 02b5 00       		.uleb128 0
 3757 02b6 00       		.uleb128 0
 3758              	.LLSDACSE1353:
 3759              		.section	.text._ZN30TestBinIO_testReadExistingFileD0Ev,"axG",@progbits,_ZN30TestBinIO_testReadExis
 3761              		.weak	_ZTV33TestBinIO_testReadNonExistentFile
 3762              		.section	.data.rel.ro.local._ZTV33TestBinIO_testReadNonExistentFile,"awG",@progbits,_ZTV33TestBinI
 3763              		.align 8
 3766              	_ZTV33TestBinIO_testReadNonExistentFile:
 3767 0000 00000000 		.quad	0
 3767      00000000 
 3768 0008 00000000 		.quad	_ZTI33TestBinIO_testReadNonExistentFile
 3768      00000000 
 3769 0010 00000000 		.quad	_ZN33TestBinIO_testReadNonExistentFileD1Ev
 3769      00000000 
 3770 0018 00000000 		.quad	_ZN33TestBinIO_testReadNonExistentFileD0Ev
 3770      00000000 
 3771 0020 00000000 		.quad	_ZNK33TestBinIO_testReadNonExistentFile7RunImplEv
 3771      00000000 
 3772              		.section	.text._ZN33TestBinIO_testReadNonExistentFileD2Ev,"axG",@progbits,_ZN33TestBinIO_testReadN
 3773              		.align 2
 3774              		.weak	_ZN33TestBinIO_testReadNonExistentFileD2Ev
 3776              	_ZN33TestBinIO_testReadNonExistentFileD2Ev:
 3777              	.LFB1355:
  24:testBinIO.cpp **** 	Buffer buf;
 3778              		.loc 4 24 1 is_stmt 1
 3779              		.cfi_startproc
 3780 0000 F30F1EFA 		endbr64
 3781 0004 55       		pushq	%rbp
 3782              		.cfi_def_cfa_offset 16
 3783              		.cfi_offset 6, -16
 3784 0005 4889E5   		movq	%rsp, %rbp
 3785              		.cfi_def_cfa_register 6
 3786 0008 4883EC10 		subq	$16, %rsp
 3787 000c 48897DF8 		movq	%rdi, -8(%rbp)
 3788              	.LBB37:
  24:testBinIO.cpp **** 	Buffer buf;
 3789              		.loc 4 24 1
 3790 0010 488D1500 		leaq	16+_ZTV33TestBinIO_testReadNonExistentFile(%rip), %rdx
 3790      000000
 3791 0017 488B45F8 		movq	-8(%rbp), %rax
 3792 001b 488910   		movq	%rdx, (%rax)
 3793 001e 488B45F8 		movq	-8(%rbp), %rax
 3794 0022 4889C7   		movq	%rax, %rdi
 3795 0025 E8000000 		call	_ZN8UnitTest4TestD2Ev@PLT
 3795      00
 3796              	.LBE37:
 3797 002a 90       		nop
 3798 002b C9       		leave
 3799              		.cfi_def_cfa 7, 8
 3800 002c C3       		ret
 3801              		.cfi_endproc
 3802              	.LFE1355:
 3804              		.weak	_ZN33TestBinIO_testReadNonExistentFileD1Ev
 3805              		.set	_ZN33TestBinIO_testReadNonExistentFileD1Ev,_ZN33TestBinIO_testReadNonExistentFileD2Ev
 3806              		.section	.text._ZN33TestBinIO_testReadNonExistentFileD0Ev,"axG",@progbits,_ZN33TestBinIO_testReadN
 3807              		.align 2
 3808              		.weak	_ZN33TestBinIO_testReadNonExistentFileD0Ev
 3810              	_ZN33TestBinIO_testReadNonExistentFileD0Ev:
 3811              	.LFB1357:
  24:testBinIO.cpp **** 	Buffer buf;
 3812              		.loc 4 24 1
 3813              		.cfi_startproc
 3814              		.cfi_personality 0x9b,DW.ref.__gxx_personality_v0
 3815              		.cfi_lsda 0x1b,.LLSDA1357
 3816 0000 F30F1EFA 		endbr64
 3817 0004 55       		pushq	%rbp
 3818              		.cfi_def_cfa_offset 16
 3819              		.cfi_offset 6, -16
 3820 0005 4889E5   		movq	%rsp, %rbp
 3821              		.cfi_def_cfa_register 6
 3822 0008 53       		pushq	%rbx
 3823 0009 4883EC18 		subq	$24, %rsp
 3824              		.cfi_offset 3, -24
 3825 000d 48897DE8 		movq	%rdi, -24(%rbp)
  24:testBinIO.cpp **** 	Buffer buf;
 3826              		.loc 4 24 1
 3827 0011 488B45E8 		movq	-24(%rbp), %rax
 3828 0015 4889C7   		movq	%rax, %rdi
 3829              	.LEHB117:
 3830 0018 E8000000 		call	_ZN33TestBinIO_testReadNonExistentFileD1Ev
 3830      00
 3831              	.LEHE117:
  24:testBinIO.cpp **** 	Buffer buf;
 3832              		.loc 4 24 1 is_stmt 0 discriminator 2
 3833 001d 488B45E8 		movq	-24(%rbp), %rax
 3834 0021 4889C7   		movq	%rax, %rdi
 3835 0024 E8000000 		call	_ZdlPv@PLT
 3835      00
 3836 0029 EB1E     		jmp	.L193
 3837              	.L192:
 3838 002b F30F1EFA 		endbr64
  24:testBinIO.cpp **** 	Buffer buf;
 3839              		.loc 4 24 1
 3840 002f 4889C3   		movq	%rax, %rbx
 3841 0032 488B45E8 		movq	-24(%rbp), %rax
 3842 0036 4889C7   		movq	%rax, %rdi
 3843 0039 E8000000 		call	_ZdlPv@PLT
 3843      00
 3844 003e 4889D8   		movq	%rbx, %rax
 3845 0041 4889C7   		movq	%rax, %rdi
 3846              	.LEHB118:
 3847 0044 E8000000 		call	_Unwind_Resume@PLT
 3847      00
 3848              	.LEHE118:
 3849              	.L193:
 3850 0049 488B5DF8 		movq	-8(%rbp), %rbx
 3851 004d C9       		leave
 3852              		.cfi_def_cfa 7, 8
 3853 004e C3       		ret
 3854              		.cfi_endproc
 3855              	.LFE1357:
 3856              		.section	.gcc_except_table
 3857              	.LLSDA1357:
 3858 02b7 FF       		.byte	0xff
 3859 02b8 FF       		.byte	0xff
 3860 02b9 01       		.byte	0x1
 3861 02ba 08       		.uleb128 .LLSDACSE1357-.LLSDACSB1357
 3862              	.LLSDACSB1357:
 3863 02bb 18       		.uleb128 .LEHB117-.LFB1357
 3864 02bc 05       		.uleb128 .LEHE117-.LEHB117
 3865 02bd 2B       		.uleb128 .L192-.LFB1357
 3866 02be 00       		.uleb128 0
 3867 02bf 44       		.uleb128 .LEHB118-.LFB1357
 3868 02c0 05       		.uleb128 .LEHE118-.LEHB118
 3869 02c1 00       		.uleb128 0
 3870 02c2 00       		.uleb128 0
 3871              	.LLSDACSE1357:
 3872              		.section	.text._ZN33TestBinIO_testReadNonExistentFileD0Ev,"axG",@progbits,_ZN33TestBinIO_testReadN
 3874              		.weak	_ZTVN8UnitTest15MemoryOutStreamE
 3875              		.section	.data.rel.ro.local._ZTVN8UnitTest15MemoryOutStreamE,"awG",@progbits,_ZTVN8UnitTest15Memor
 3876              		.align 8
 3879              	_ZTVN8UnitTest15MemoryOutStreamE:
 3880 0000 90000000 		.quad	144
 3880      00000000 
 3881 0008 00000000 		.quad	0
 3881      00000000 
 3882 0010 00000000 		.quad	_ZTIN8UnitTest15MemoryOutStreamE
 3882      00000000 
 3883 0018 00000000 		.quad	_ZN8UnitTest15MemoryOutStreamD1Ev
 3883      00000000 
 3884 0020 00000000 		.quad	_ZN8UnitTest15MemoryOutStreamD0Ev
 3884      00000000 
 3885 0028 70FFFFFF 		.quad	-144
 3885      FFFFFFFF 
 3886 0030 70FFFFFF 		.quad	-144
 3886      FFFFFFFF 
 3887 0038 00000000 		.quad	_ZTIN8UnitTest15MemoryOutStreamE
 3887      00000000 
 3888 0040 00000000 		.quad	_ZTv0_n24_N8UnitTest15MemoryOutStreamD1Ev
 3888      00000000 
 3889 0048 00000000 		.quad	_ZTv0_n24_N8UnitTest15MemoryOutStreamD0Ev
 3889      00000000 
 3890              		.weak	_ZTTN8UnitTest15MemoryOutStreamE
 3891              		.section	.data.rel.ro.local._ZTTN8UnitTest15MemoryOutStreamE,"awG",@progbits,_ZTVN8UnitTest15Memor
 3892              		.align 8
 3895              	_ZTTN8UnitTest15MemoryOutStreamE:
 3896 0000 00000000 		.quad	_ZTVN8UnitTest15MemoryOutStreamE+24
 3896      00000000 
 3897 0008 00000000 		.quad	_ZTCN8UnitTest15MemoryOutStreamE0_NSt7__cxx1119basic_ostringstreamIcSt11char_traitsIcESaIcEE
 3897      00000000 
 3898 0010 00000000 		.quad	_ZTCN8UnitTest15MemoryOutStreamE0_So+24
 3898      00000000 
 3899 0018 00000000 		.quad	_ZTCN8UnitTest15MemoryOutStreamE0_So+64
 3899      00000000 
 3900 0020 00000000 		.quad	_ZTCN8UnitTest15MemoryOutStreamE0_NSt7__cxx1119basic_ostringstreamIcSt11char_traitsIcESaIcEE
 3900      00000000 
 3901 0028 00000000 		.quad	_ZTVN8UnitTest15MemoryOutStreamE+64
 3901      00000000 
 3902              		.hidden	_ZTCN8UnitTest15MemoryOutStreamE0_NSt7__cxx1119basic_ostringstreamIcSt11char_traitsIcESaIc
 3903              		.weak	_ZTCN8UnitTest15MemoryOutStreamE0_NSt7__cxx1119basic_ostringstreamIcSt11char_traitsIcESaIcEE
 3904              		.section	.data.rel.ro._ZTCN8UnitTest15MemoryOutStreamE0_NSt7__cxx1119basic_ostringstreamIcSt11char
 3905              		.align 8
 3908              	_ZTCN8UnitTest15MemoryOutStreamE0_NSt7__cxx1119basic_ostringstreamIcSt11char_traitsIcESaIcEEE:
 3909 0000 90000000 		.quad	144
 3909      00000000 
 3910 0008 00000000 		.quad	0
 3910      00000000 
 3911 0010 00000000 		.quad	_ZTINSt7__cxx1119basic_ostringstreamIcSt11char_traitsIcESaIcEEE
 3911      00000000 
 3912 0018 00000000 		.quad	0
 3912      00000000 
 3913 0020 00000000 		.quad	0
 3913      00000000 
 3914 0028 70FFFFFF 		.quad	-144
 3914      FFFFFFFF 
 3915 0030 70FFFFFF 		.quad	-144
 3915      FFFFFFFF 
 3916 0038 00000000 		.quad	_ZTINSt7__cxx1119basic_ostringstreamIcSt11char_traitsIcESaIcEEE
 3916      00000000 
 3917 0040 00000000 		.quad	0
 3917      00000000 
 3918 0048 00000000 		.quad	0
 3918      00000000 
 3919              		.hidden	_ZTCN8UnitTest15MemoryOutStreamE0_So
 3920              		.weak	_ZTCN8UnitTest15MemoryOutStreamE0_So
 3921              		.section	.data.rel.ro._ZTCN8UnitTest15MemoryOutStreamE0_So,"awG",@progbits,_ZTVN8UnitTest15MemoryO
 3922              		.align 8
 3925              	_ZTCN8UnitTest15MemoryOutStreamE0_So:
 3926 0000 90000000 		.quad	144
 3926      00000000 
 3927 0008 00000000 		.quad	0
 3927      00000000 
 3928 0010 00000000 		.quad	_ZTISo
 3928      00000000 
 3929 0018 00000000 		.quad	0
 3929      00000000 
 3930 0020 00000000 		.quad	0
 3930      00000000 
 3931 0028 70FFFFFF 		.quad	-144
 3931      FFFFFFFF 
 3932 0030 70FFFFFF 		.quad	-144
 3932      FFFFFFFF 
 3933 0038 00000000 		.quad	_ZTISo
 3933      00000000 
 3934 0040 00000000 		.quad	0
 3934      00000000 
 3935 0048 00000000 		.quad	0
 3935      00000000 
 3936              		.weak	_ZTI23TestBinIO_testWriteFile
 3937              		.section	.data.rel.ro._ZTI23TestBinIO_testWriteFile,"awG",@progbits,_ZTI23TestBinIO_testWriteFile,
 3938              		.align 8
 3941              	_ZTI23TestBinIO_testWriteFile:
 3942 0000 00000000 		.quad	_ZTVN10__cxxabiv120__si_class_type_infoE+16
 3942      00000000 
 3943 0008 00000000 		.quad	_ZTS23TestBinIO_testWriteFile
 3943      00000000 
 3944 0010 00000000 		.quad	_ZTIN8UnitTest4TestE
 3944      00000000 
 3945              		.weak	_ZTS23TestBinIO_testWriteFile
 3946              		.section	.rodata._ZTS23TestBinIO_testWriteFile,"aG",@progbits,_ZTS23TestBinIO_testWriteFile,comdat
 3947              		.align 16
 3950              	_ZTS23TestBinIO_testWriteFile:
 3951 0000 32335465 		.string	"23TestBinIO_testWriteFile"
 3951      73744269 
 3951      6E494F5F 
 3951      74657374 
 3951      57726974 
 3952              		.weak	_ZTI30TestBinIO_testReadExistingFile
 3953              		.section	.data.rel.ro._ZTI30TestBinIO_testReadExistingFile,"awG",@progbits,_ZTI30TestBinIO_testRea
 3954              		.align 8
 3957              	_ZTI30TestBinIO_testReadExistingFile:
 3958 0000 00000000 		.quad	_ZTVN10__cxxabiv120__si_class_type_infoE+16
 3958      00000000 
 3959 0008 00000000 		.quad	_ZTS30TestBinIO_testReadExistingFile
 3959      00000000 
 3960 0010 00000000 		.quad	_ZTIN8UnitTest4TestE
 3960      00000000 
 3961              		.weak	_ZTS30TestBinIO_testReadExistingFile
 3962              		.section	.rodata._ZTS30TestBinIO_testReadExistingFile,"aG",@progbits,_ZTS30TestBinIO_testReadExist
 3963              		.align 32
 3966              	_ZTS30TestBinIO_testReadExistingFile:
 3967 0000 33305465 		.string	"30TestBinIO_testReadExistingFile"
 3967      73744269 
 3967      6E494F5F 
 3967      74657374 
 3967      52656164 
 3968              		.weak	_ZTI33TestBinIO_testReadNonExistentFile
 3969              		.section	.data.rel.ro._ZTI33TestBinIO_testReadNonExistentFile,"awG",@progbits,_ZTI33TestBinIO_test
 3970              		.align 8
 3973              	_ZTI33TestBinIO_testReadNonExistentFile:
 3974 0000 00000000 		.quad	_ZTVN10__cxxabiv120__si_class_type_infoE+16
 3974      00000000 
 3975 0008 00000000 		.quad	_ZTS33TestBinIO_testReadNonExistentFile
 3975      00000000 
 3976 0010 00000000 		.quad	_ZTIN8UnitTest4TestE
 3976      00000000 
 3977              		.weak	_ZTS33TestBinIO_testReadNonExistentFile
 3978              		.section	.rodata._ZTS33TestBinIO_testReadNonExistentFile,"aG",@progbits,_ZTS33TestBinIO_testReadNo
 3979              		.align 32
 3982              	_ZTS33TestBinIO_testReadNonExistentFile:
 3983 0000 33335465 		.string	"33TestBinIO_testReadNonExistentFile"
 3983      73744269 
 3983      6E494F5F 
 3983      74657374 
 3983      52656164 
 3984              		.weak	_ZTIN8UnitTest15MemoryOutStreamE
 3985              		.section	.data.rel.ro._ZTIN8UnitTest15MemoryOutStreamE,"awG",@progbits,_ZTIN8UnitTest15MemoryOutSt
 3986              		.align 8
 3989              	_ZTIN8UnitTest15MemoryOutStreamE:
 3990 0000 00000000 		.quad	_ZTVN10__cxxabiv120__si_class_type_infoE+16
 3990      00000000 
 3991 0008 00000000 		.quad	_ZTSN8UnitTest15MemoryOutStreamE
 3991      00000000 
 3992 0010 00000000 		.quad	_ZTINSt7__cxx1119basic_ostringstreamIcSt11char_traitsIcESaIcEEE
 3992      00000000 
 3993              		.weak	_ZTSN8UnitTest15MemoryOutStreamE
 3994              		.section	.rodata._ZTSN8UnitTest15MemoryOutStreamE,"aG",@progbits,_ZTSN8UnitTest15MemoryOutStreamE,
 3995              		.align 16
 3998              	_ZTSN8UnitTest15MemoryOutStreamE:
 3999 0000 4E38556E 		.string	"N8UnitTest15MemoryOutStreamE"
 3999      69745465 
 3999      73743135 
 3999      4D656D6F 
 3999      72794F75 
 4000              		.text
 4002              	_Z41__static_initialization_and_destruction_0ii:
 4003              	.LFB1358:
 4004              		.loc 4 92 1 is_stmt 1
 4005              		.cfi_startproc
 4006 12a4 F30F1EFA 		endbr64
 4007 12a8 55       		pushq	%rbp
 4008              		.cfi_def_cfa_offset 16
 4009              		.cfi_offset 6, -16
 4010 12a9 4889E5   		movq	%rsp, %rbp
 4011              		.cfi_def_cfa_register 6
 4012 12ac 4883EC10 		subq	$16, %rsp
 4013 12b0 897DFC   		movl	%edi, -4(%rbp)
 4014 12b3 8975F8   		movl	%esi, -8(%rbp)
 4015              		.loc 4 92 1
 4016 12b6 837DFC01 		cmpl	$1, -4(%rbp)
 4017 12ba 0F850F01 		jne	.L196
 4017      0000
 4018              		.loc 4 92 1 is_stmt 0 discriminator 1
 4019 12c0 817DF8FF 		cmpl	$65535, -8(%rbp)
 4019      FF0000
 4020 12c7 0F850201 		jne	.L196
 4020      0000
  24:testBinIO.cpp **** 	Buffer buf;
 4021              		.loc 4 24 1 is_stmt 1
 4022 12cd 488D0500 		leaq	testBinIO_testReadNonExistentFileInstance(%rip), %rax
 4022      000000
 4023 12d4 4889C7   		movq	%rax, %rdi
 4024 12d7 E8000000 		call	_ZN33TestBinIO_testReadNonExistentFileC1Ev
 4024      00
 4025 12dc 488D0500 		leaq	__dso_handle(%rip), %rax
 4025      000000
 4026 12e3 4889C2   		movq	%rax, %rdx
 4027 12e6 488D0500 		leaq	testBinIO_testReadNonExistentFileInstance(%rip), %rax
 4027      000000
 4028 12ed 4889C6   		movq	%rax, %rsi
 4029 12f0 488D0500 		leaq	_ZN33TestBinIO_testReadNonExistentFileD1Ev(%rip), %rax
 4029      000000
 4030 12f7 4889C7   		movq	%rax, %rdi
 4031 12fa E8000000 		call	__cxa_atexit@PLT
 4031      00
 4032 12ff E8000000 		call	_ZN8UnitTest4Test11GetTestListEv@PLT
 4032      00
 4033 1304 4889C1   		movq	%rax, %rcx
 4034 1307 488D0500 		leaq	testBinIO_testReadNonExistentFileInstance(%rip), %rax
 4034      000000
 4035 130e 4889C2   		movq	%rax, %rdx
 4036 1311 4889CE   		movq	%rcx, %rsi
 4037 1314 488D0500 		leaq	adderBinIO_testReadNonExistentFile(%rip), %rax
 4037      000000
 4038 131b 4889C7   		movq	%rax, %rdi
 4039 131e E8000000 		call	_ZN8UnitTest9ListAdderC1ERNS_8TestListEPNS_4TestE@PLT
 4039      00
  33:testBinIO.cpp **** 	const char *const FILENAME = "tmpFile.bin";
 4040              		.loc 4 33 1
 4041 1323 488D0500 		leaq	testBinIO_testReadExistingFileInstance(%rip), %rax
 4041      000000
 4042 132a 4889C7   		movq	%rax, %rdi
 4043 132d E8000000 		call	_ZN30TestBinIO_testReadExistingFileC1Ev
 4043      00
 4044 1332 488D0500 		leaq	__dso_handle(%rip), %rax
 4044      000000
 4045 1339 4889C2   		movq	%rax, %rdx
 4046 133c 488D0500 		leaq	testBinIO_testReadExistingFileInstance(%rip), %rax
 4046      000000
 4047 1343 4889C6   		movq	%rax, %rsi
 4048 1346 488D0500 		leaq	_ZN30TestBinIO_testReadExistingFileD1Ev(%rip), %rax
 4048      000000
 4049 134d 4889C7   		movq	%rax, %rdi
 4050 1350 E8000000 		call	__cxa_atexit@PLT
 4050      00
 4051 1355 E8000000 		call	_ZN8UnitTest4Test11GetTestListEv@PLT
 4051      00
 4052 135a 4889C1   		movq	%rax, %rcx
 4053 135d 488D0500 		leaq	testBinIO_testReadExistingFileInstance(%rip), %rax
 4053      000000
 4054 1364 4889C2   		movq	%rax, %rdx
 4055 1367 4889CE   		movq	%rcx, %rsi
 4056 136a 488D0500 		leaq	adderBinIO_testReadExistingFile(%rip), %rax
 4056      000000
 4057 1371 4889C7   		movq	%rax, %rdi
 4058 1374 E8000000 		call	_ZN8UnitTest9ListAdderC1ERNS_8TestListEPNS_4TestE@PLT
 4058      00
  54:testBinIO.cpp **** 	const char *const FILENAME = "tmpFile.bin";
 4059              		.loc 4 54 1
 4060 1379 488D0500 		leaq	testBinIO_testWriteFileInstance(%rip), %rax
 4060      000000
 4061 1380 4889C7   		movq	%rax, %rdi
 4062 1383 E8000000 		call	_ZN23TestBinIO_testWriteFileC1Ev
 4062      00
 4063 1388 488D0500 		leaq	__dso_handle(%rip), %rax
 4063      000000
 4064 138f 4889C2   		movq	%rax, %rdx
 4065 1392 488D0500 		leaq	testBinIO_testWriteFileInstance(%rip), %rax
 4065      000000
 4066 1399 4889C6   		movq	%rax, %rsi
 4067 139c 488D0500 		leaq	_ZN23TestBinIO_testWriteFileD1Ev(%rip), %rax
 4067      000000
 4068 13a3 4889C7   		movq	%rax, %rdi
 4069 13a6 E8000000 		call	__cxa_atexit@PLT
 4069      00
 4070 13ab E8000000 		call	_ZN8UnitTest4Test11GetTestListEv@PLT
 4070      00
 4071 13b0 4889C1   		movq	%rax, %rcx
 4072 13b3 488D0500 		leaq	testBinIO_testWriteFileInstance(%rip), %rax
 4072      000000
 4073 13ba 4889C2   		movq	%rax, %rdx
 4074 13bd 4889CE   		movq	%rcx, %rsi
 4075 13c0 488D0500 		leaq	adderBinIO_testWriteFile(%rip), %rax
 4075      000000
 4076 13c7 4889C7   		movq	%rax, %rdi
 4077 13ca E8000000 		call	_ZN8UnitTest9ListAdderC1ERNS_8TestListEPNS_4TestE@PLT
 4077      00
 4078              	.L196:
 4079              		.loc 4 92 1
 4080 13cf 90       		nop
 4081 13d0 C9       		leave
 4082              		.cfi_def_cfa 7, 8
 4083 13d1 C3       		ret
 4084              		.cfi_endproc
 4085              	.LFE1358:
 4088              	_GLOBAL__sub_I_testBinIO_testReadNonExistentFileInstance:
 4089              	.LFB1359:
 4090              		.loc 4 92 1
 4091              		.cfi_startproc
 4092 13d2 F30F1EFA 		endbr64
 4093 13d6 55       		pushq	%rbp
 4094              		.cfi_def_cfa_offset 16
 4095              		.cfi_offset 6, -16
 4096 13d7 4889E5   		movq	%rsp, %rbp
 4097              		.cfi_def_cfa_register 6
 4098              		.loc 4 92 1
 4099 13da BEFFFF00 		movl	$65535, %esi
 4099      00
 4100 13df BF010000 		movl	$1, %edi
 4100      00
 4101 13e4 E8BBFEFF 		call	_Z41__static_initialization_and_destruction_0ii
 4101      FF
 4102 13e9 5D       		popq	%rbp
 4103              		.cfi_def_cfa 7, 8
 4104 13ea C3       		ret
 4105              		.cfi_endproc
 4106              	.LFE1359:
 4108              		.section	.init_array,"aw"
 4109              		.align 8
 4110 0000 00000000 		.quad	_GLOBAL__sub_I_testBinIO_testReadNonExistentFileInstance
 4110      00000000 
 4111              		.text
 4112              	.Letext0:
 4113              		.file 7 "<built-in>"
 4114              		.file 8 "/usr/lib/gcc/x86_64-linux-gnu/11/include/stddef.h"
 4115              		.file 9 "/usr/include/x86_64-linux-gnu/bits/types/wint_t.h"
 4116              		.file 10 "/usr/include/x86_64-linux-gnu/bits/types/__mbstate_t.h"
 4117              		.file 11 "/usr/include/x86_64-linux-gnu/bits/types/mbstate_t.h"
 4118              		.file 12 "/usr/include/x86_64-linux-gnu/bits/types/__FILE.h"
 4119              		.file 13 "/usr/include/x86_64-linux-gnu/bits/types/struct_FILE.h"
 4120              		.file 14 "/usr/include/x86_64-linux-gnu/bits/types/FILE.h"
 4121              		.file 15 "/usr/include/c++/11/cwchar"
 4122              		.file 16 "/usr/include/c++/11/bits/char_traits.h"
 4123              		.file 17 "/usr/include/x86_64-linux-gnu/c++/11/bits/c++config.h"
 4124              		.file 18 "/usr/include/c++/11/clocale"
 4125              		.file 19 "/usr/include/c++/11/bits/allocator.h"
 4126              		.file 20 "/usr/include/c++/11/bits/basic_string.h"
 4127              		.file 21 "/usr/include/c++/11/bits/basic_string.tcc"
 4128              		.file 22 "/usr/include/c++/11/sstream"
 4129              		.file 23 "/usr/include/c++/11/bits/stringfwd.h"
 4130              		.file 24 "/usr/include/c++/11/cwctype"
 4131              		.file 25 "/usr/include/c++/11/bits/ostream.tcc"
 4132              		.file 26 "/usr/include/c++/11/ostream"
 4133              		.file 27 "/usr/include/c++/11/istream"
 4134              		.file 28 "/usr/include/c++/11/cstdio"
 4135              		.file 29 "/usr/include/c++/11/fstream"
 4136              		.file 30 "/usr/include/c++/11/bits/basic_ios.h"
 4137              		.file 31 "/usr/include/c++/11/iosfwd"
 4138              		.file 32 "/usr/include/wchar.h"
 4139              		.file 33 "/usr/include/x86_64-linux-gnu/bits/types/struct_tm.h"
 4140              		.file 34 "/usr/include/c++/11/debug/debug.h"
 4141              		.file 35 "/usr/include/c++/11/bits/predefined_ops.h"
 4142              		.file 36 "/usr/include/c++/11/ext/new_allocator.h"
 4143              		.file 37 "/usr/include/c++/11/ext/alloc_traits.h"
 4144              		.file 38 "/usr/include/locale.h"
 4145              		.file 39 "/usr/include/x86_64-linux-gnu/bits/types.h"
 4146              		.file 40 "/usr/include/x86_64-linux-gnu/bits/wctype-wchar.h"
 4147              		.file 41 "/usr/include/wctype.h"
 4148              		.file 42 "/usr/include/x86_64-linux-gnu/bits/types/__fpos_t.h"
 4149              		.file 43 "/usr/include/stdio.h"
 4150              		.file 44 "/home/pong/FPGALink/makestuff/libs/libutpp/TestDetails.h"
 4151              		.file 45 "/home/pong/FPGALink/makestuff/libs/libutpp/TestList.h"
 4152              		.file 46 "/home/pong/FPGALink/makestuff/libs/libutpp/Test.h"
 4153              		.file 47 "/home/pong/FPGALink/makestuff/libs/libutpp/TestResults.h"
 4154              		.file 48 "/home/pong/FPGALink/makestuff/libs/libutpp/CurrentTest.h"
 4155              		.file 49 "/home/pong/FPGALink/makestuff/common/makestuff.h"
 4156              		.file 50 "../libbuffer.h"
 4157              		.file 51 "/usr/include/c++/11/new"
 17501              		.align 8
 17504              	DW.ref.__gxx_personality_v0:
 17505 0000 00000000 		.quad	__gxx_personality_v0
 17505      00000000 
 17506              		.hidden	__dso_handle
 17507              		.ident	"GCC: (Ubuntu 11.3.0-1ubuntu1~22.04) 11.3.0"
 17508              		.section	.note.GNU-stack,"",@progbits
 17509              		.section	.note.gnu.property,"a"
 17510              		.align 8
 17511 0000 04000000 		.long	1f - 0f
 17512 0004 10000000 		.long	4f - 1f
 17513 0008 05000000 		.long	5
 17514              	0:
 17515 000c 474E5500 		.string	"GNU"
 17516              	1:
 17517              		.align 8
 17518 0010 020000C0 		.long	0xc0000002
 17519 0014 04000000 		.long	3f - 2f
 17520              	2:
 17521 0018 03000000 		.long	0x3
 17522              	3:
 17523 001c 00000000 		.align 8
 17524              	4: