   1              		.file	"DeferredTestReporter.cpp"
   2              		.text
   3              		.align 2
   4              		.p2align 4
   5              		.globl	_ZN8UnitTest20DeferredTestReporter16ReportTestFinishERKNS_11TestDetailsEf
   7              	_ZN8UnitTest20DeferredTestReporter16ReportTestFinishERKNS_11TestDetailsEf:
   8              	.LFB963:
   9              		.cfi_startproc
  10 0000 F30F1EFA 		endbr64
  11 0004 488B4710 		movq	16(%rdi), %rax
  12 0008 F30F1140 		movss	%xmm0, -8(%rax)
  12      F8
  13 000d C3       		ret
  14              		.cfi_endproc
  15              	.LFE963:
  17              		.section	.text._ZN8UnitTest18DeferredTestResultD2Ev,"axG",@progbits,_ZN8UnitTest18DeferredTestResu
  18              		.align 2
  19              		.p2align 4
  20              		.weak	_ZN8UnitTest18DeferredTestResultD2Ev
  22              	_ZN8UnitTest18DeferredTestResultD2Ev:
  23              	.LFB957:
  24              		.cfi_startproc
  25 0000 F30F1EFA 		endbr64
  26 0004 4154     		pushq	%r12
  27              		.cfi_def_cfa_offset 16
  28              		.cfi_offset 12, -16
  29 0006 55       		pushq	%rbp
  30              		.cfi_def_cfa_offset 24
  31              		.cfi_offset 6, -24
  32 0007 53       		pushq	%rbx
  33              		.cfi_def_cfa_offset 32
  34              		.cfi_offset 3, -32
  35 0008 4C8B6768 		movq	104(%rdi), %r12
  36 000c 4889FB   		movq	%rdi, %rbx
  37 000f 488B6F60 		movq	96(%rdi), %rbp
  38 0013 4939EC   		cmpq	%rbp, %r12
  39 0016 7427     		je	.L4
  40 0018 0F1F8400 		.p2align 4,,10
  40      00000000 
  41              		.p2align 3
  42              	.L8:
  43 0020 488B7D08 		movq	8(%rbp), %rdi
  44 0024 488D4518 		leaq	24(%rbp), %rax
  45 0028 4839C7   		cmpq	%rax, %rdi
  46 002b 745B     		je	.L5
  47 002d E8000000 		call	_ZdlPv@PLT
  47      00
  48 0032 4883C528 		addq	$40, %rbp
  49 0036 4939EC   		cmpq	%rbp, %r12
  50 0039 75E5     		jne	.L8
  51              	.L7:
  52 003b 488B6B60 		movq	96(%rbx), %rbp
  53              	.L4:
  54 003f 4885ED   		testq	%rbp, %rbp
  55 0042 7408     		je	.L9
  56 0044 4889EF   		movq	%rbp, %rdi
  57 0047 E8000000 		call	_ZdlPv@PLT
  57      00
  58              	.L9:
  59 004c 488B7B40 		movq	64(%rbx), %rdi
  60 0050 488D4350 		leaq	80(%rbx), %rax
  61 0054 4839C7   		cmpq	%rax, %rdi
  62 0057 7405     		je	.L10
  63 0059 E8000000 		call	_ZdlPv@PLT
  63      00
  64              	.L10:
  65 005e 488B7B20 		movq	32(%rbx), %rdi
  66 0062 488D4330 		leaq	48(%rbx), %rax
  67 0066 4839C7   		cmpq	%rax, %rdi
  68 0069 7405     		je	.L11
  69 006b E8000000 		call	_ZdlPv@PLT
  69      00
  70              	.L11:
  71 0070 488B3B   		movq	(%rbx), %rdi
  72 0073 4883C310 		addq	$16, %rbx
  73 0077 4839DF   		cmpq	%rbx, %rdi
  74 007a 741C     		je	.L3
  75 007c 5B       		popq	%rbx
  76              		.cfi_remember_state
  77              		.cfi_def_cfa_offset 24
  78 007d 5D       		popq	%rbp
  79              		.cfi_def_cfa_offset 16
  80 007e 415C     		popq	%r12
  81              		.cfi_def_cfa_offset 8
  82 0080 E9000000 		jmp	_ZdlPv@PLT
  82      00
  83              		.p2align 4,,10
  84 0085 0F1F00   		.p2align 3
  85              	.L5:
  86              		.cfi_restore_state
  87 0088 4883C528 		addq	$40, %rbp
  88 008c 4939EC   		cmpq	%rbp, %r12
  89 008f 758F     		jne	.L8
  90 0091 EBA8     		jmp	.L7
  91              		.p2align 4,,10
  92 0093 0F1F4400 		.p2align 3
  92      00
  93              	.L3:
  94 0098 5B       		popq	%rbx
  95              		.cfi_def_cfa_offset 24
  96 0099 5D       		popq	%rbp
  97              		.cfi_def_cfa_offset 16
  98 009a 415C     		popq	%r12
  99              		.cfi_def_cfa_offset 8
 100 009c C3       		ret
 101              		.cfi_endproc
 102              	.LFE957:
 104              		.weak	_ZN8UnitTest18DeferredTestResultD1Ev
 105              		.set	_ZN8UnitTest18DeferredTestResultD1Ev,_ZN8UnitTest18DeferredTestResultD2Ev
 106              		.text
 107              		.align 2
 108 000e 6690     		.p2align 4
 109              		.globl	_ZN8UnitTest20DeferredTestReporter10GetResultsEv
 111              	_ZN8UnitTest20DeferredTestReporter10GetResultsEv:
 112              	.LFB964:
 113              		.cfi_startproc
 114 0010 F30F1EFA 		endbr64
 115 0014 488D4708 		leaq	8(%rdi), %rax
 116 0018 C3       		ret
 117              		.cfi_endproc
 118              	.LFE964:
 120              		.section	.rodata._ZNSt6vectorIN8UnitTest18DeferredTestResultESaIS1_EE17_M_realloc_insertEN9__gnu_c
 121              	.LC0:
 122 0000 76656374 		.string	"vector::_M_realloc_insert"
 122      6F723A3A 
 122      5F4D5F72 
 122      65616C6C 
 122      6F635F69 
 123              		.section	.rodata._ZNSt6vectorIN8UnitTest18DeferredTestResultESaIS1_EE17_M_realloc_insertEN9__gnu_c
 124              		.align 8
 125              	.LC1:
 126 0000 62617369 		.string	"basic_string::_M_construct null not valid"
 126      635F7374 
 126      72696E67 
 126      3A3A5F4D 
 126      5F636F6E 
 127              		.section	.text._ZNSt6vectorIN8UnitTest18DeferredTestResultESaIS1_EE17_M_realloc_insertEN9__gnu_cxx
 128              		.align 2
 129              		.p2align 4
 130              		.weak	_ZNSt6vectorIN8UnitTest18DeferredTestResultESaIS1_EE17_M_realloc_insertEN9__gnu_cxx17__norma
 132              	_ZNSt6vectorIN8UnitTest18DeferredTestResultESaIS1_EE17_M_realloc_insertEN9__gnu_cxx17__normal_itera
 133              	.LFB1000:
 134              		.cfi_startproc
 135              		.cfi_personality 0x9b,DW.ref.__gxx_personality_v0
 136              		.cfi_lsda 0x1b,.LLSDA1000
 137 0000 F30F1EFA 		endbr64
 138 0004 4157     		pushq	%r15
 139              		.cfi_def_cfa_offset 16
 140              		.cfi_offset 15, -16
 141 0006 4156     		pushq	%r14
 142              		.cfi_def_cfa_offset 24
 143              		.cfi_offset 14, -24
 144 0008 4989D6   		movq	%rdx, %r14
 145 000b 4155     		pushq	%r13
 146              		.cfi_def_cfa_offset 32
 147              		.cfi_offset 13, -32
 148 000d 4154     		pushq	%r12
 149              		.cfi_def_cfa_offset 40
 150              		.cfi_offset 12, -40
 151 000f 55       		pushq	%rbp
 152              		.cfi_def_cfa_offset 48
 153              		.cfi_offset 6, -48
 154 0010 53       		pushq	%rbx
 155              		.cfi_def_cfa_offset 56
 156              		.cfi_offset 3, -56
 157 0011 4881EC98 		subq	$152, %rsp
 157      000000
 158              		.cfi_def_cfa_offset 208
 159 0018 488B17   		movq	(%rdi), %rdx
 160 001b 48897C24 		movq	%rdi, 120(%rsp)
 160      78
 161 0020 48897424 		movq	%rsi, 88(%rsp)
 161      58
 162 0025 64488B04 		movq	%fs:40, %rax
 162      25280000 
 162      00
 163 002e 48898424 		movq	%rax, 136(%rsp)
 163      88000000 
 164 0036 31C0     		xorl	%eax, %eax
 165 0038 488B4708 		movq	8(%rdi), %rax
 166 003c 48895424 		movq	%rdx, 104(%rsp)
 166      68
 167 0041 48897424 		movq	%rsi, 24(%rsp)
 167      18
 168 0046 48894424 		movq	%rax, 48(%rsp)
 168      30
 169 004b 4829D0   		subq	%rdx, %rax
 170 004e 48BAFFFF 		movabsq	$72057594037927935, %rdx
 170      FFFFFFFF 
 170      FF00
 171 0058 48C1F807 		sarq	$7, %rax
 172 005c 4839D0   		cmpq	%rdx, %rax
 173 005f 0F84760D 		je	.L321
 173      0000
 174 0065 4885C0   		testq	%rax, %rax
 175 0068 BA010000 		movl	$1, %edx
 175      00
 176 006d 4889F3   		movq	%rsi, %rbx
 177 0070 480F45D0 		cmovne	%rax, %rdx
 178 0074 4801D0   		addq	%rdx, %rax
 179 0077 0F92C2   		setc	%dl
 180 007a 48894424 		movq	%rax, 112(%rsp)
 180      70
 181 007f 482B5C24 		subq	104(%rsp), %rbx
 181      68
 182 0084 0FB6D2   		movzbl	%dl, %edx
 183 0087 4885D2   		testq	%rdx, %rdx
 184 008a 0F85900B 		jne	.L170
 184      0000
 185 0090 4885C0   		testq	%rax, %rax
 186 0093 0F85DC0C 		jne	.L23
 186      0000
 187 0099 48C74424 		movq	$0, 96(%rsp)
 187      60000000 
 187      00
 188              	.L168:
 189 00a2 498B2E   		movq	(%r14), %rbp
 190 00a5 4D8B6608 		movq	8(%r14), %r12
 191 00a9 48035C24 		addq	96(%rsp), %rbx
 191      60
 192 00ae 4889E8   		movq	%rbp, %rax
 193 00b1 488D7310 		leaq	16(%rbx), %rsi
 194 00b5 48895C24 		movq	%rbx, 56(%rsp)
 194      38
 195 00ba 4C01E0   		addq	%r12, %rax
 196 00bd 48897424 		movq	%rsi, 40(%rsp)
 196      28
 197 00c2 488933   		movq	%rsi, (%rbx)
 198 00c5 7409     		je	.L24
 199 00c7 4885ED   		testq	%rbp, %rbp
 200 00ca 0F84F30C 		je	.L322
 200      0000
 201              	.L24:
 202 00d0 4C89A424 		movq	%r12, 128(%rsp)
 202      80000000 
 203 00d8 4983FC0F 		cmpq	$15, %r12
 204 00dc 0F871D0C 		ja	.L323
 204      0000
 205 00e2 4983FC01 		cmpq	$1, %r12
 206 00e6 0F850A02 		jne	.L27
 206      0000
 207 00ec 0FB64500 		movzbl	0(%rbp), %eax
 208 00f0 488B7424 		movq	56(%rsp), %rsi
 208      38
 209 00f5 884610   		movb	%al, 16(%rsi)
 210 00f8 488B4424 		movq	40(%rsp), %rax
 210      28
 211              	.L28:
 212 00fd 488B5424 		movq	56(%rsp), %rdx
 212      38
 213 0102 4C896208 		movq	%r12, 8(%rdx)
 214 0106 488D4A30 		leaq	48(%rdx), %rcx
 215 010a 42C60420 		movb	$0, (%rax,%r12)
 215      00
 216 010f 498B6E20 		movq	32(%r14), %rbp
 217 0113 4D8B6628 		movq	40(%r14), %r12
 218 0117 48894C24 		movq	%rcx, 64(%rsp)
 218      40
 219 011c 4889E8   		movq	%rbp, %rax
 220 011f 48894A20 		movq	%rcx, 32(%rdx)
 221 0123 4C01E0   		addq	%r12, %rax
 222 0126 7409     		je	.L29
 223 0128 4885ED   		testq	%rbp, %rbp
 224 012b 0F849E0C 		je	.L324
 224      0000
 225              	.L29:
 226 0131 4C89A424 		movq	%r12, 128(%rsp)
 226      80000000 
 227 0139 4983FC0F 		cmpq	$15, %r12
 228 013d 0F87700B 		ja	.L325
 228      0000
 229 0143 4983FC01 		cmpq	$1, %r12
 230 0147 0F85070B 		jne	.L32
 230      0000
 231 014d 0FB64500 		movzbl	0(%rbp), %eax
 232 0151 488B5424 		movq	56(%rsp), %rdx
 232      38
 233 0156 884230   		movb	%al, 48(%rdx)
 234 0159 488B4424 		movq	64(%rsp), %rax
 234      40
 235              	.L33:
 236 015e 488B7424 		movq	56(%rsp), %rsi
 236      38
 237 0163 4C896628 		movq	%r12, 40(%rsi)
 238 0167 488D5650 		leaq	80(%rsi), %rdx
 239 016b 42C60420 		movb	$0, (%rax,%r12)
 239      00
 240 0170 498B6E40 		movq	64(%r14), %rbp
 241 0174 4D8B6648 		movq	72(%r14), %r12
 242 0178 48895424 		movq	%rdx, 72(%rsp)
 242      48
 243 017d 4889E8   		movq	%rbp, %rax
 244 0180 48895640 		movq	%rdx, 64(%rsi)
 245 0184 4C01E0   		addq	%r12, %rax
 246 0187 7409     		je	.L34
 247 0189 4885ED   		testq	%rbp, %rbp
 248 018c 0F84200C 		je	.L326
 248      0000
 249              	.L34:
 250 0192 4C89A424 		movq	%r12, 128(%rsp)
 250      80000000 
 251 019a 4983FC0F 		cmpq	$15, %r12
 252 019e 0F87C30A 		ja	.L327
 252      0000
 253 01a4 4983FC01 		cmpq	$1, %r12
 254 01a8 0F85930A 		jne	.L37
 254      0000
 255 01ae 0FB64500 		movzbl	0(%rbp), %eax
 256 01b2 488B7424 		movq	56(%rsp), %rsi
 256      38
 257 01b7 884650   		movb	%al, 80(%rsi)
 258 01ba 488B4424 		movq	72(%rsp), %rax
 258      48
 259              	.L38:
 260 01bf 488B5424 		movq	56(%rsp), %rdx
 260      38
 261 01c4 660FEFC0 		pxor	%xmm0, %xmm0
 262 01c8 4C896248 		movq	%r12, 72(%rdx)
 263 01cc 42C60420 		movb	$0, (%rax,%r12)
 263      00
 264 01d1 4D8B7E68 		movq	104(%r14), %r15
 265 01d5 498B6E60 		movq	96(%r14), %rbp
 266 01d9 48C74270 		movq	$0, 112(%rdx)
 266      00000000 
 267 01e1 4C89F8   		movq	%r15, %rax
 268 01e4 0F114260 		movups	%xmm0, 96(%rdx)
 269 01e8 4829E8   		subq	%rbp, %rax
 270 01eb 0F841F0A 		je	.L174
 270      0000
 271 01f1 48BAF8FF 		movabsq	$9223372036854775800, %rdx
 271      FFFFFFFF 
 271      FF7F
 272 01fb 4889C3   		movq	%rax, %rbx
 273 01fe 4839D0   		cmpq	%rdx, %rax
 274 0201 0F875F0B 		ja	.L328
 274      0000
 275 0207 4889C7   		movq	%rax, %rdi
 276              	.LEHB0:
 277 020a E8000000 		call	_Znwm@PLT
 277      00
 278              	.LEHE0:
 279 020f 4D8B7E68 		movq	104(%r14), %r15
 280 0213 498B6E60 		movq	96(%r14), %rbp
 281 0217 48894424 		movq	%rax, 32(%rsp)
 281      20
 282              	.L39:
 283 021c 488B4424 		movq	32(%rsp), %rax
 283      20
 284 0221 488B7424 		movq	56(%rsp), %rsi
 284      38
 285 0226 66480F6E 		movq	%rax, %xmm0
 285      C0
 286 022b 4801C3   		addq	%rax, %rbx
 287 022e 660F6CC0 		punpcklqdq	%xmm0, %xmm0
 288 0232 48895E70 		movq	%rbx, 112(%rsi)
 289 0236 4889C3   		movq	%rax, %rbx
 290 0239 0F114660 		movups	%xmm0, 96(%rsi)
 291 023d 4C39FD   		cmpq	%r15, %rbp
 292 0240 0F84DA00 		je	.L42
 292      0000
 293 0246 488D8424 		leaq	128(%rsp), %rax
 293      80000000 
 294 024e 48890424 		movq	%rax, (%rsp)
 295 0252 EB30     		jmp	.L48
 296              		.p2align 4,,10
 297 0254 0F1F4000 		.p2align 3
 298              	.L44:
 299 0258 4983FC01 		cmpq	$1, %r12
 300 025c 0F85AE00 		jne	.L46
 300      0000
 301 0262 410FB645 		movzbl	0(%r13), %eax
 301      00
 302 0267 884318   		movb	%al, 24(%rbx)
 303              	.L47:
 304 026a 4883C528 		addq	$40, %rbp
 305 026e 4C896310 		movq	%r12, 16(%rbx)
 306 0272 4883C328 		addq	$40, %rbx
 307 0276 42C60427 		movb	$0, (%rdi,%r12)
 307      00
 308 027b 4939EF   		cmpq	%rbp, %r15
 309 027e 0F849C00 		je	.L42
 309      0000
 310              	.L48:
 311 0284 488D7B18 		leaq	24(%rbx), %rdi
 312 0288 8B4500   		movl	0(%rbp), %eax
 313 028b 4C8B6510 		movq	16(%rbp), %r12
 314 028f 48897B08 		movq	%rdi, 8(%rbx)
 315 0293 4C8B6D08 		movq	8(%rbp), %r13
 316 0297 8903     		movl	%eax, (%rbx)
 317 0299 4C89E8   		movq	%r13, %rax
 318 029c 4C01E0   		addq	%r12, %rax
 319 029f 7409     		je	.L43
 320 02a1 4D85ED   		testq	%r13, %r13
 321 02a4 0F84DF0B 		je	.L329
 321      0000
 322              	.L43:
 323 02aa 4C89A424 		movq	%r12, 128(%rsp)
 323      80000000 
 324 02b2 4983FC0F 		cmpq	$15, %r12
 325 02b6 76A0     		jbe	.L44
 326 02b8 488B3424 		movq	(%rsp), %rsi
 327 02bc 488D7B08 		leaq	8(%rbx), %rdi
 328 02c0 31D2     		xorl	%edx, %edx
 329              	.LEHB1:
 330 02c2 E8000000 		call	_ZNSt7__cxx1112basic_stringIcSt11char_traitsIcESaIcEE9_M_createERmm@PLT
 330      00
 331              	.LEHE1:
 332 02c7 48894308 		movq	%rax, 8(%rbx)
 333 02cb 4889C7   		movq	%rax, %rdi
 334 02ce 488B8424 		movq	128(%rsp), %rax
 334      80000000 
 335 02d6 48894318 		movq	%rax, 24(%rbx)
 336              	.L45:
 337 02da 4C89E2   		movq	%r12, %rdx
 338 02dd 4C89EE   		movq	%r13, %rsi
 339 02e0 E8000000 		call	memcpy@PLT
 339      00
 340 02e5 4C8BA424 		movq	128(%rsp), %r12
 340      80000000 
 341 02ed 488B7B08 		movq	8(%rbx), %rdi
 342 02f1 E974FFFF 		jmp	.L47
 342      FF
 343              	.L27:
 344 02f6 4D85E4   		testq	%r12, %r12
 345 02f9 0F855C0B 		jne	.L330
 345      0000
 346 02ff 488B4424 		movq	40(%rsp), %rax
 346      28
 347 0304 E9F4FDFF 		jmp	.L28
 347      FF
 348 0309 0F1F8000 		.p2align 4,,10
 348      000000
 349              		.p2align 3
 350              	.L46:
 351 0310 4D85E4   		testq	%r12, %r12
 352 0313 0F8451FF 		je	.L47
 352      FFFF
 353 0319 EBBF     		jmp	.L45
 354 031b 0F1F4400 		.p2align 4,,10
 354      00
 355              		.p2align 3
 356              	.L42:
 357 0320 488B4C24 		movq	56(%rsp), %rcx
 357      38
 358 0325 410FB646 		movzbl	124(%r14), %eax
 358      7C
 359 032a F3410F10 		movss	120(%r14), %xmm0
 359      4678
 360 0330 4C8B7424 		movq	96(%rsp), %r14
 360      60
 361 0335 88417C   		movb	%al, 124(%rcx)
 362 0338 488B4424 		movq	104(%rsp), %rax
 362      68
 363 033d 48895968 		movq	%rbx, 104(%rcx)
 364 0341 F30F1141 		movss	%xmm0, 120(%rcx)
 364      78
 365 0346 4989C7   		movq	%rax, %r15
 366 0349 48394424 		cmpq	%rax, 88(%rsp)
 366      58
 367 034e 0F846802 		je	.L50
 367      0000
 368              		.p2align 4,,10
 369 0354 0F1F4000 		.p2align 3
 370              	.L49:
 371 0358 498D4610 		leaq	16(%r14), %rax
 372 035c 4D8B6708 		movq	8(%r15), %r12
 373 0360 498906   		movq	%rax, (%r14)
 374 0363 498B2F   		movq	(%r15), %rbp
 375 0366 48894424 		movq	%rax, 72(%rsp)
 375      48
 376 036b 4889E8   		movq	%rbp, %rax
 377 036e 4C01E0   		addq	%r12, %rax
 378 0371 7409     		je	.L64
 379 0373 4885ED   		testq	%rbp, %rbp
 380 0376 0F84E90A 		je	.L331
 380      0000
 381              	.L64:
 382 037c 4C89A424 		movq	%r12, 128(%rsp)
 382      80000000 
 383 0384 4983FC0F 		cmpq	$15, %r12
 384 0388 0F87EA06 		ja	.L332
 384      0000
 385 038e 4983FC01 		cmpq	$1, %r12
 386 0392 0F852006 		jne	.L67
 386      0000
 387 0398 0FB64500 		movzbl	0(%rbp), %eax
 388 039c 41884610 		movb	%al, 16(%r14)
 389 03a0 488B4424 		movq	72(%rsp), %rax
 389      48
 390              	.L68:
 391 03a5 4D896608 		movq	%r12, 8(%r14)
 392 03a9 42C60420 		movb	$0, (%rax,%r12)
 392      00
 393 03ae 498D4630 		leaq	48(%r14), %rax
 394 03b2 4D8B6728 		movq	40(%r15), %r12
 395 03b6 49894620 		movq	%rax, 32(%r14)
 396 03ba 498B6F20 		movq	32(%r15), %rbp
 397 03be 48894424 		movq	%rax, 64(%rsp)
 397      40
 398 03c3 4889E8   		movq	%rbp, %rax
 399 03c6 4C01E0   		addq	%r12, %rax
 400 03c9 7409     		je	.L69
 401 03cb 4885ED   		testq	%rbp, %rbp
 402 03ce 0F849D0A 		je	.L333
 402      0000
 403              	.L69:
 404 03d4 4C89A424 		movq	%r12, 128(%rsp)
 404      80000000 
 405 03dc 4983FC0F 		cmpq	$15, %r12
 406 03e0 0F870206 		ja	.L334
 406      0000
 407 03e6 4983FC01 		cmpq	$1, %r12
 408 03ea 0F85E005 		jne	.L72
 408      0000
 409 03f0 0FB64500 		movzbl	0(%rbp), %eax
 410 03f4 41884630 		movb	%al, 48(%r14)
 411 03f8 488B4424 		movq	64(%rsp), %rax
 411      40
 412              	.L73:
 413 03fd 4D896628 		movq	%r12, 40(%r14)
 414 0401 42C60420 		movb	$0, (%rax,%r12)
 414      00
 415 0406 498D4650 		leaq	80(%r14), %rax
 416 040a 4D8B6748 		movq	72(%r15), %r12
 417 040e 49894640 		movq	%rax, 64(%r14)
 418 0412 498B6F40 		movq	64(%r15), %rbp
 419 0416 48894424 		movq	%rax, 80(%rsp)
 419      50
 420 041b 4889E8   		movq	%rbp, %rax
 421 041e 4C01E0   		addq	%r12, %rax
 422 0421 7409     		je	.L74
 423 0423 4885ED   		testq	%rbp, %rbp
 424 0426 0F84510A 		je	.L335
 424      0000
 425              	.L74:
 426 042c 4C89A424 		movq	%r12, 128(%rsp)
 426      80000000 
 427 0434 4983FC0F 		cmpq	$15, %r12
 428 0438 0F87F205 		ja	.L336
 428      0000
 429 043e 4983FC01 		cmpq	$1, %r12
 430 0442 0F855805 		jne	.L77
 430      0000
 431 0448 0FB64500 		movzbl	0(%rbp), %eax
 432 044c 41884650 		movb	%al, 80(%r14)
 433 0450 488B4424 		movq	80(%rsp), %rax
 433      50
 434              	.L78:
 435 0455 4D896648 		movq	%r12, 72(%r14)
 436 0459 660FEFC0 		pxor	%xmm0, %xmm0
 437 045d 42C60420 		movb	$0, (%rax,%r12)
 437      00
 438 0462 498B4768 		movq	104(%r15), %rax
 439 0466 492B4760 		subq	96(%r15), %rax
 440 046a 49C74670 		movq	$0, 112(%r14)
 440      00000000 
 441 0472 410F1146 		movups	%xmm0, 96(%r14)
 441      60
 442 0477 0F840B05 		je	.L180
 442      0000
 443 047d 48BAF8FF 		movabsq	$9223372036854775800, %rdx
 443      FFFFFFFF 
 443      FF7F
 444 0487 4889C3   		movq	%rax, %rbx
 445 048a 4839D0   		cmpq	%rdx, %rax
 446 048d 0F87B508 		ja	.L337
 446      0000
 447 0493 4889C7   		movq	%rax, %rdi
 448              	.LEHB2:
 449 0496 E8000000 		call	_Znwm@PLT
 449      00
 450              	.LEHE2:
 451 049b 48894424 		movq	%rax, 40(%rsp)
 451      28
 452              	.L79:
 453 04a0 488B4424 		movq	40(%rsp), %rax
 453      28
 454 04a5 66480F6E 		movq	%rax, %xmm0
 454      C0
 455 04aa 4801C3   		addq	%rax, %rbx
 456 04ad 660F6CC0 		punpcklqdq	%xmm0, %xmm0
 457 04b1 49895E70 		movq	%rbx, 112(%r14)
 458 04b5 4889C3   		movq	%rax, %rbx
 459 04b8 410F1146 		movups	%xmm0, 96(%r14)
 459      60
 460 04bd 498B4F68 		movq	104(%r15), %rcx
 461 04c1 498B6F60 		movq	96(%r15), %rbp
 462 04c5 48890C24 		movq	%rcx, (%rsp)
 463 04c9 4839E9   		cmpq	%rbp, %rcx
 464 04cc 0F84BE00 		je	.L82
 464      0000
 465 04d2 488D8424 		leaq	128(%rsp), %rax
 465      80000000 
 466 04da 48894424 		movq	%rax, 32(%rsp)
 466      20
 467 04df EB2A     		jmp	.L88
 468              		.p2align 4,,10
 469 04e1 0F1F8000 		.p2align 3
 469      000000
 470              	.L340:
 471 04e8 410FB645 		movzbl	0(%r13), %eax
 471      00
 472 04ed 884318   		movb	%al, 24(%rbx)
 473              	.L87:
 474 04f0 4C896310 		movq	%r12, 16(%rbx)
 475 04f4 4883C528 		addq	$40, %rbp
 476 04f8 4883C328 		addq	$40, %rbx
 477 04fc 42C60427 		movb	$0, (%rdi,%r12)
 477      00
 478 0501 48392C24 		cmpq	%rbp, (%rsp)
 479 0505 0F848500 		je	.L82
 479      0000
 480              	.L88:
 481 050b 488D7B18 		leaq	24(%rbx), %rdi
 482 050f 8B4500   		movl	0(%rbp), %eax
 483 0512 4C8B6510 		movq	16(%rbp), %r12
 484 0516 48897B08 		movq	%rdi, 8(%rbx)
 485 051a 4C8B6D08 		movq	8(%rbp), %r13
 486 051e 8903     		movl	%eax, (%rbx)
 487 0520 4C89E8   		movq	%r13, %rax
 488 0523 4C01E0   		addq	%r12, %rax
 489 0526 7409     		je	.L83
 490 0528 4D85ED   		testq	%r13, %r13
 491 052b 0F846908 		je	.L338
 491      0000
 492              	.L83:
 493 0531 4C89A424 		movq	%r12, 128(%rsp)
 493      80000000 
 494 0539 4983FC0F 		cmpq	$15, %r12
 495 053d 7711     		ja	.L339
 496 053f 4983FC01 		cmpq	$1, %r12
 497 0543 74A3     		je	.L340
 498 0545 4D85E4   		testq	%r12, %r12
 499 0548 74A6     		je	.L87
 500 054a EB27     		jmp	.L85
 501 054c 0F1F4000 		.p2align 4,,10
 502              		.p2align 3
 503              	.L339:
 504 0550 488B7424 		movq	32(%rsp), %rsi
 504      20
 505 0555 488D7B08 		leaq	8(%rbx), %rdi
 506 0559 31D2     		xorl	%edx, %edx
 507              	.LEHB3:
 508 055b E8000000 		call	_ZNSt7__cxx1112basic_stringIcSt11char_traitsIcESaIcEE9_M_createERmm@PLT
 508      00
 509              	.LEHE3:
 510 0560 48894308 		movq	%rax, 8(%rbx)
 511 0564 4889C7   		movq	%rax, %rdi
 512 0567 488B8424 		movq	128(%rsp), %rax
 512      80000000 
 513 056f 48894318 		movq	%rax, 24(%rbx)
 514              	.L85:
 515 0573 4C89E2   		movq	%r12, %rdx
 516 0576 4C89EE   		movq	%r13, %rsi
 517 0579 E8000000 		call	memcpy@PLT
 517      00
 518 057e 4C8BA424 		movq	128(%rsp), %r12
 518      80000000 
 519 0586 488B7B08 		movq	8(%rbx), %rdi
 520 058a E961FFFF 		jmp	.L87
 520      FF
 521 058f 90       		.p2align 4,,10
 522              		.p2align 3
 523              	.L82:
 524 0590 F3410F10 		movss	120(%r15), %xmm0
 524      4778
 525 0596 49895E68 		movq	%rbx, 104(%r14)
 526 059a 4983EF80 		subq	$-128, %r15
 527 059e 4983EE80 		subq	$-128, %r14
 528 05a2 410FB647 		movzbl	-4(%r15), %eax
 528      FC
 529 05a7 F3410F11 		movss	%xmm0, -8(%r14)
 529      46F8
 530 05ad 418846FC 		movb	%al, -4(%r14)
 531 05b1 4C397C24 		cmpq	%r15, 88(%rsp)
 531      58
 532 05b6 0F859CFD 		jne	.L49
 532      FFFF
 533              	.L50:
 534 05bc 498D8680 		leaq	128(%r14), %rax
 534      000000
 535 05c3 488B4C24 		movq	48(%rsp), %rcx
 535      30
 536 05c8 48894424 		movq	%rax, 72(%rsp)
 536      48
 537 05cd 4989C6   		movq	%rax, %r14
 538 05d0 48394C24 		cmpq	%rcx, 88(%rsp)
 538      58
 539 05d5 0F848902 		je	.L103
 539      0000
 540 05db 0F1F4400 		.p2align 4,,10
 540      00
 541              		.p2align 3
 542              	.L102:
 543 05e0 498D4610 		leaq	16(%r14), %rax
 544 05e4 48894424 		movq	%rax, 64(%rsp)
 544      40
 545 05e9 498906   		movq	%rax, (%r14)
 546 05ec 488B4424 		movq	24(%rsp), %rax
 546      18
 547 05f1 488B28   		movq	(%rax), %rbp
 548 05f4 4C8B6008 		movq	8(%rax), %r12
 549 05f8 4889E8   		movq	%rbp, %rax
 550 05fb 4C01E0   		addq	%r12, %rax
 551 05fe 7409     		je	.L108
 552 0600 4885ED   		testq	%rbp, %rbp
 553 0603 0F841008 		je	.L341
 553      0000
 554              	.L108:
 555 0609 4C89A424 		movq	%r12, 128(%rsp)
 555      80000000 
 556 0611 4983FC0F 		cmpq	$15, %r12
 557 0615 0F871D05 		ja	.L342
 557      0000
 558 061b 4983FC01 		cmpq	$1, %r12
 559 061f 0F85FB04 		jne	.L111
 559      0000
 560 0625 0FB64500 		movzbl	0(%rbp), %eax
 561 0629 41884610 		movb	%al, 16(%r14)
 562 062d 488B4424 		movq	64(%rsp), %rax
 562      40
 563              	.L112:
 564 0632 4D896608 		movq	%r12, 8(%r14)
 565 0636 42C60420 		movb	$0, (%rax,%r12)
 565      00
 566 063b 498D4630 		leaq	48(%r14), %rax
 567 063f 48894424 		movq	%rax, 56(%rsp)
 567      38
 568 0644 49894620 		movq	%rax, 32(%r14)
 569 0648 488B4424 		movq	24(%rsp), %rax
 569      18
 570 064d 488B6820 		movq	32(%rax), %rbp
 571 0651 4C8B6028 		movq	40(%rax), %r12
 572 0655 4889E8   		movq	%rbp, %rax
 573 0658 4C01E0   		addq	%r12, %rax
 574 065b 7409     		je	.L113
 575 065d 4885ED   		testq	%rbp, %rbp
 576 0660 0F84BF07 		je	.L343
 576      0000
 577              	.L113:
 578 0666 4C89A424 		movq	%r12, 128(%rsp)
 578      80000000 
 579 066e 4983FC0F 		cmpq	$15, %r12
 580 0672 0F875005 		ja	.L344
 580      0000
 581 0678 4983FC01 		cmpq	$1, %r12
 582 067c 0F858604 		jne	.L116
 582      0000
 583 0682 0FB64500 		movzbl	0(%rbp), %eax
 584 0686 41884630 		movb	%al, 48(%r14)
 585 068a 488B4424 		movq	56(%rsp), %rax
 585      38
 586              	.L117:
 587 068f 4D896628 		movq	%r12, 40(%r14)
 588 0693 42C60420 		movb	$0, (%rax,%r12)
 588      00
 589 0698 498D4650 		leaq	80(%r14), %rax
 590 069c 48894424 		movq	%rax, 40(%rsp)
 590      28
 591 06a1 49894640 		movq	%rax, 64(%r14)
 592 06a5 488B4424 		movq	24(%rsp), %rax
 592      18
 593 06aa 488B6840 		movq	64(%rax), %rbp
 594 06ae 4C8B6048 		movq	72(%rax), %r12
 595 06b2 4889E8   		movq	%rbp, %rax
 596 06b5 4C01E0   		addq	%r12, %rax
 597 06b8 7409     		je	.L118
 598 06ba 4885ED   		testq	%rbp, %rbp
 599 06bd 0F846E07 		je	.L345
 599      0000
 600              	.L118:
 601 06c3 4C89A424 		movq	%r12, 128(%rsp)
 601      80000000 
 602 06cb 4983FC0F 		cmpq	$15, %r12
 603 06cf 0F87AB04 		ja	.L346
 603      0000
 604 06d5 4983FC01 		cmpq	$1, %r12
 605 06d9 0F851104 		jne	.L121
 605      0000
 606 06df 0FB64500 		movzbl	0(%rbp), %eax
 607 06e3 41884650 		movb	%al, 80(%r14)
 608 06e7 488B4424 		movq	40(%rsp), %rax
 608      28
 609              	.L122:
 610 06ec 4D896648 		movq	%r12, 72(%r14)
 611 06f0 660FEFC0 		pxor	%xmm0, %xmm0
 612 06f4 42C60420 		movb	$0, (%rax,%r12)
 612      00
 613 06f9 488B4424 		movq	24(%rsp), %rax
 613      18
 614 06fe 49C74670 		movq	$0, 112(%r14)
 614      00000000 
 615 0706 4C8B7868 		movq	104(%rax), %r15
 616 070a 488B6860 		movq	96(%rax), %rbp
 617 070e 410F1146 		movups	%xmm0, 96(%r14)
 617      60
 618 0713 4C89F8   		movq	%r15, %rax
 619 0716 4829E8   		subq	%rbp, %rax
 620 0719 0F84B903 		je	.L186
 620      0000
 621 071f 48BEF8FF 		movabsq	$9223372036854775800, %rsi
 621      FFFFFFFF 
 621      FF7F
 622 0729 4889C3   		movq	%rax, %rbx
 623 072c 4839F0   		cmpq	%rsi, %rax
 624 072f 0F872206 		ja	.L347
 624      0000
 625 0735 4889C7   		movq	%rax, %rdi
 626              	.LEHB4:
 627 0738 E8000000 		call	_Znwm@PLT
 627      00
 628              	.LEHE4:
 629 073d 48894424 		movq	%rax, 32(%rsp)
 629      20
 630 0742 488B4424 		movq	24(%rsp), %rax
 630      18
 631 0747 4C8B7868 		movq	104(%rax), %r15
 632 074b 488B6860 		movq	96(%rax), %rbp
 633              	.L123:
 634 074f 488B4424 		movq	32(%rsp), %rax
 634      20
 635 0754 66480F6E 		movq	%rax, %xmm0
 635      C0
 636 0759 4801C3   		addq	%rax, %rbx
 637 075c 660F6CC0 		punpcklqdq	%xmm0, %xmm0
 638 0760 49895E70 		movq	%rbx, 112(%r14)
 639 0764 4889C3   		movq	%rax, %rbx
 640 0767 410F1146 		movups	%xmm0, 96(%r14)
 640      60
 641 076c 4939EF   		cmpq	%rbp, %r15
 642 076f 0F84BB00 		je	.L126
 642      0000
 643 0775 488D8424 		leaq	128(%rsp), %rax
 643      80000000 
 644 077d 48890424 		movq	%rax, (%rsp)
 645 0781 EB27     		jmp	.L132
 646              		.p2align 4,,10
 647 0783 0F1F4400 		.p2align 3
 647      00
 648              	.L350:
 649 0788 410FB645 		movzbl	0(%r13), %eax
 649      00
 650 078d 884318   		movb	%al, 24(%rbx)
 651              	.L131:
 652 0790 4883C528 		addq	$40, %rbp
 653 0794 4C896310 		movq	%r12, 16(%rbx)
 654 0798 4883C328 		addq	$40, %rbx
 655 079c 42C60427 		movb	$0, (%rdi,%r12)
 655      00
 656 07a1 4939EF   		cmpq	%rbp, %r15
 657 07a4 0F848600 		je	.L126
 657      0000
 658              	.L132:
 659 07aa 488D7B18 		leaq	24(%rbx), %rdi
 660 07ae 8B4500   		movl	0(%rbp), %eax
 661 07b1 4C8B6510 		movq	16(%rbp), %r12
 662 07b5 48897B08 		movq	%rdi, 8(%rbx)
 663 07b9 4C8B6D08 		movq	8(%rbp), %r13
 664 07bd 8903     		movl	%eax, (%rbx)
 665 07bf 4C89E8   		movq	%r13, %rax
 666 07c2 4C01E0   		addq	%r12, %rax
 667 07c5 7409     		je	.L127
 668 07c7 4D85ED   		testq	%r13, %r13
 669 07ca 0F84D605 		je	.L348
 669      0000
 670              	.L127:
 671 07d0 4C89A424 		movq	%r12, 128(%rsp)
 671      80000000 
 672 07d8 4983FC0F 		cmpq	$15, %r12
 673 07dc 7712     		ja	.L349
 674 07de 4983FC01 		cmpq	$1, %r12
 675 07e2 74A4     		je	.L350
 676 07e4 4D85E4   		testq	%r12, %r12
 677 07e7 74A7     		je	.L131
 678 07e9 EB27     		jmp	.L129
 679 07eb 0F1F4400 		.p2align 4,,10
 679      00
 680              		.p2align 3
 681              	.L349:
 682 07f0 488B3424 		movq	(%rsp), %rsi
 683 07f4 488D7B08 		leaq	8(%rbx), %rdi
 684 07f8 31D2     		xorl	%edx, %edx
 685              	.LEHB5:
 686 07fa E8000000 		call	_ZNSt7__cxx1112basic_stringIcSt11char_traitsIcESaIcEE9_M_createERmm@PLT
 686      00
 687              	.LEHE5:
 688 07ff 48894308 		movq	%rax, 8(%rbx)
 689 0803 4889C7   		movq	%rax, %rdi
 690 0806 488B8424 		movq	128(%rsp), %rax
 690      80000000 
 691 080e 48894318 		movq	%rax, 24(%rbx)
 692              	.L129:
 693 0812 4C89E2   		movq	%r12, %rdx
 694 0815 4C89EE   		movq	%r13, %rsi
 695 0818 E8000000 		call	memcpy@PLT
 695      00
 696 081d 4C8BA424 		movq	128(%rsp), %r12
 696      80000000 
 697 0825 488B7B08 		movq	8(%rbx), %rdi
 698 0829 E962FFFF 		jmp	.L131
 698      FF
 699 082e 6690     		.p2align 4,,10
 700              		.p2align 3
 701              	.L126:
 702 0830 488B4C24 		movq	24(%rsp), %rcx
 702      18
 703 0835 49895E68 		movq	%rbx, 104(%r14)
 704 0839 4983EE80 		subq	$-128, %r14
 705 083d F30F1041 		movss	120(%rcx), %xmm0
 705      78
 706 0842 0FB6417C 		movzbl	124(%rcx), %eax
 707 0846 4883E980 		subq	$-128, %rcx
 708 084a 48894C24 		movq	%rcx, 24(%rsp)
 708      18
 709 084f F3410F11 		movss	%xmm0, -8(%r14)
 709      46F8
 710 0855 418846FC 		movb	%al, -4(%r14)
 711 0859 48394C24 		cmpq	%rcx, 48(%rsp)
 711      30
 712 085e 0F857CFD 		jne	.L102
 712      FFFF
 713              	.L103:
 714 0864 488B4424 		movq	104(%rsp), %rax
 714      68
 715 0869 66490F6E 		movq	%r14, %xmm2
 715      D6
 716 086e 488B5424 		movq	48(%rsp), %rdx
 716      30
 717 0873 F30F7E4C 		movq	96(%rsp), %xmm1
 717      2460
 718 0879 4889C3   		movq	%rax, %rbx
 719 087c 660F6CCA 		punpcklqdq	%xmm2, %xmm1
 720 0880 0F290C24 		movaps	%xmm1, (%rsp)
 721 0884 4839D0   		cmpq	%rdx, %rax
 722 0887 0F848B00 		je	.L163
 722      0000
 723 088d 0F1F00   		.p2align 4,,10
 724              		.p2align 3
 725              	.L146:
 726 0890 4C8B6368 		movq	104(%rbx), %r12
 727 0894 488B6B60 		movq	96(%rbx), %rbp
 728 0898 4939EC   		cmpq	%rbp, %r12
 729 089b 7426     		je	.L153
 730 089d 0F1F00   		.p2align 4,,10
 731              		.p2align 3
 732              	.L157:
 733 08a0 488B7D08 		movq	8(%rbp), %rdi
 734 08a4 488D4518 		leaq	24(%rbp), %rax
 735 08a8 4839C7   		cmpq	%rax, %rdi
 736 08ab 0F84BF00 		je	.L154
 736      0000
 737 08b1 E8000000 		call	_ZdlPv@PLT
 737      00
 738 08b6 4883C528 		addq	$40, %rbp
 739 08ba 4939EC   		cmpq	%rbp, %r12
 740 08bd 75E1     		jne	.L157
 741              	.L156:
 742 08bf 488B6B60 		movq	96(%rbx), %rbp
 743              	.L153:
 744 08c3 4885ED   		testq	%rbp, %rbp
 745 08c6 7408     		je	.L158
 746 08c8 4889EF   		movq	%rbp, %rdi
 747 08cb E8000000 		call	_ZdlPv@PLT
 747      00
 748              	.L158:
 749 08d0 488B7B40 		movq	64(%rbx), %rdi
 750 08d4 488D4350 		leaq	80(%rbx), %rax
 751 08d8 4839C7   		cmpq	%rax, %rdi
 752 08db 7405     		je	.L159
 753 08dd E8000000 		call	_ZdlPv@PLT
 753      00
 754              	.L159:
 755 08e2 488B7B20 		movq	32(%rbx), %rdi
 756 08e6 488D4330 		leaq	48(%rbx), %rax
 757 08ea 4839C7   		cmpq	%rax, %rdi
 758 08ed 7405     		je	.L160
 759 08ef E8000000 		call	_ZdlPv@PLT
 759      00
 760              	.L160:
 761 08f4 488B3B   		movq	(%rbx), %rdi
 762 08f7 488D4310 		leaq	16(%rbx), %rax
 763 08fb 4839C7   		cmpq	%rax, %rdi
 764 08fe 0F84BC01 		je	.L161
 764      0000
 765 0904 E8000000 		call	_ZdlPv@PLT
 765      00
 766 0909 4883EB80 		subq	$-128, %rbx
 767 090d 48395C24 		cmpq	%rbx, 48(%rsp)
 767      30
 768 0912 0F8578FF 		jne	.L146
 768      FFFF
 769              	.L163:
 770 0918 48837C24 		cmpq	$0, 104(%rsp)
 770      6800
 771 091e 740A     		je	.L148
 772 0920 488B7C24 		movq	104(%rsp), %rdi
 772      68
 773 0925 E8000000 		call	_ZdlPv@PLT
 773      00
 774              	.L148:
 775 092a 488B4C24 		movq	120(%rsp), %rcx
 775      78
 776 092f 488B4424 		movq	96(%rsp), %rax
 776      60
 777 0934 48034424 		addq	112(%rsp), %rax
 777      70
 778 0939 660F6F1C 		movdqa	(%rsp), %xmm3
 778      24
 779 093e 48894110 		movq	%rax, 16(%rcx)
 780 0942 0F1119   		movups	%xmm3, (%rcx)
 781 0945 488B8424 		movq	136(%rsp), %rax
 781      88000000 
 782 094d 64482B04 		subq	%fs:40, %rax
 782      25280000 
 782      00
 783 0956 0F856204 		jne	.L351
 783      0000
 784 095c 4881C498 		addq	$152, %rsp
 784      000000
 785              		.cfi_remember_state
 786              		.cfi_def_cfa_offset 56
 787 0963 5B       		popq	%rbx
 788              		.cfi_def_cfa_offset 48
 789 0964 5D       		popq	%rbp
 790              		.cfi_def_cfa_offset 40
 791 0965 415C     		popq	%r12
 792              		.cfi_def_cfa_offset 32
 793 0967 415D     		popq	%r13
 794              		.cfi_def_cfa_offset 24
 795 0969 415E     		popq	%r14
 796              		.cfi_def_cfa_offset 16
 797 096b 415F     		popq	%r15
 798              		.cfi_def_cfa_offset 8
 799 096d C3       		ret
 800 096e 6690     		.p2align 4,,10
 801              		.p2align 3
 802              	.L154:
 803              		.cfi_restore_state
 804 0970 4883C528 		addq	$40, %rbp
 805 0974 4939EC   		cmpq	%rbp, %r12
 806 0977 0F8523FF 		jne	.L157
 806      FFFF
 807 097d E93DFFFF 		jmp	.L156
 807      FF
 808              		.p2align 4,,10
 809 0982 660F1F44 		.p2align 3
 809      0000
 810              	.L180:
 811 0988 48C74424 		movq	$0, 40(%rsp)
 811      28000000 
 811      00
 812 0991 31DB     		xorl	%ebx, %ebx
 813 0993 E908FBFF 		jmp	.L79
 813      FF
 814 0998 0F1F8400 		.p2align 4,,10
 814      00000000 
 815              		.p2align 3
 816              	.L77:
 817 09a0 4D85E4   		testq	%r12, %r12
 818 09a3 0F853E04 		jne	.L352
 818      0000
 819 09a9 488B4424 		movq	80(%rsp), %rax
 819      50
 820 09ae E9A2FAFF 		jmp	.L78
 820      FF
 821              		.p2align 4,,10
 822 09b3 0F1F4400 		.p2align 3
 822      00
 823              	.L67:
 824 09b8 4D85E4   		testq	%r12, %r12
 825 09bb 0F853004 		jne	.L353
 825      0000
 826 09c1 488B4424 		movq	72(%rsp), %rax
 826      48
 827 09c6 E9DAF9FF 		jmp	.L68
 827      FF
 828 09cb 0F1F4400 		.p2align 4,,10
 828      00
 829              		.p2align 3
 830              	.L72:
 831 09d0 4D85E4   		testq	%r12, %r12
 832 09d3 0F852204 		jne	.L354
 832      0000
 833 09d9 488B4424 		movq	64(%rsp), %rax
 833      40
 834 09de E91AFAFF 		jmp	.L73
 834      FF
 835              		.p2align 4,,10
 836 09e3 0F1F4400 		.p2align 3
 836      00
 837              	.L334:
 838 09e8 488DB424 		leaq	128(%rsp), %rsi
 838      80000000 
 839 09f0 498D7E20 		leaq	32(%r14), %rdi
 840 09f4 31D2     		xorl	%edx, %edx
 841              	.LEHB6:
 842 09f6 E8000000 		call	_ZNSt7__cxx1112basic_stringIcSt11char_traitsIcESaIcEE9_M_createERmm@PLT
 842      00
 843              	.LEHE6:
 844 09fb 49894620 		movq	%rax, 32(%r14)
 845 09ff 4889C7   		movq	%rax, %rdi
 846 0a02 488B8424 		movq	128(%rsp), %rax
 846      80000000 
 847 0a0a 49894630 		movq	%rax, 48(%r14)
 848              	.L71:
 849 0a0e 4C89E2   		movq	%r12, %rdx
 850 0a11 4889EE   		movq	%rbp, %rsi
 851 0a14 E8000000 		call	memcpy@PLT
 851      00
 852 0a19 4C8BA424 		movq	128(%rsp), %r12
 852      80000000 
 853 0a21 498B4620 		movq	32(%r14), %rax
 854 0a25 E9D3F9FF 		jmp	.L73
 854      FF
 855 0a2a 660F1F44 		.p2align 4,,10
 855      0000
 856              		.p2align 3
 857              	.L336:
 858 0a30 488DB424 		leaq	128(%rsp), %rsi
 858      80000000 
 859 0a38 498D7E40 		leaq	64(%r14), %rdi
 860 0a3c 31D2     		xorl	%edx, %edx
 861              	.LEHB7:
 862 0a3e E8000000 		call	_ZNSt7__cxx1112basic_stringIcSt11char_traitsIcESaIcEE9_M_createERmm@PLT
 862      00
 863              	.LEHE7:
 864 0a43 49894640 		movq	%rax, 64(%r14)
 865 0a47 4889C7   		movq	%rax, %rdi
 866 0a4a 488B8424 		movq	128(%rsp), %rax
 866      80000000 
 867 0a52 49894650 		movq	%rax, 80(%r14)
 868              	.L76:
 869 0a56 4C89E2   		movq	%r12, %rdx
 870 0a59 4889EE   		movq	%rbp, %rsi
 871 0a5c E8000000 		call	memcpy@PLT
 871      00
 872 0a61 4C8BA424 		movq	128(%rsp), %r12
 872      80000000 
 873 0a69 498B4640 		movq	64(%r14), %rax
 874 0a6d E9E3F9FF 		jmp	.L78
 874      FF
 875              		.p2align 4,,10
 876 0a72 660F1F44 		.p2align 3
 876      0000
 877              	.L332:
 878 0a78 488DB424 		leaq	128(%rsp), %rsi
 878      80000000 
 879 0a80 31D2     		xorl	%edx, %edx
 880 0a82 4C89F7   		movq	%r14, %rdi
 881              	.LEHB8:
 882 0a85 E8000000 		call	_ZNSt7__cxx1112basic_stringIcSt11char_traitsIcESaIcEE9_M_createERmm@PLT
 882      00
 883              	.LEHE8:
 884 0a8a 498906   		movq	%rax, (%r14)
 885 0a8d 4889C7   		movq	%rax, %rdi
 886 0a90 488B8424 		movq	128(%rsp), %rax
 886      80000000 
 887 0a98 49894610 		movq	%rax, 16(%r14)
 888              	.L66:
 889 0a9c 4C89E2   		movq	%r12, %rdx
 890 0a9f 4889EE   		movq	%rbp, %rsi
 891 0aa2 E8000000 		call	memcpy@PLT
 891      00
 892 0aa7 4C8BA424 		movq	128(%rsp), %r12
 892      80000000 
 893 0aaf 498B06   		movq	(%r14), %rax
 894 0ab2 E9EEF8FF 		jmp	.L68
 894      FF
 895 0ab7 660F1F84 		.p2align 4,,10
 895      00000000 
 895      00
 896              		.p2align 3
 897              	.L161:
 898 0ac0 4883EB80 		subq	$-128, %rbx
 899 0ac4 483B5C24 		cmpq	48(%rsp), %rbx
 899      30
 900 0ac9 0F85C1FD 		jne	.L146
 900      FFFF
 901 0acf E944FEFF 		jmp	.L163
 901      FF
 902              		.p2align 4,,10
 903 0ad4 0F1F4000 		.p2align 3
 904              	.L186:
 905 0ad8 48C74424 		movq	$0, 32(%rsp)
 905      20000000 
 905      00
 906 0ae1 31DB     		xorl	%ebx, %ebx
 907 0ae3 E967FCFF 		jmp	.L123
 907      FF
 908 0ae8 0F1F8400 		.p2align 4,,10
 908      00000000 
 909              		.p2align 3
 910              	.L121:
 911 0af0 4D85E4   		testq	%r12, %r12
 912 0af3 0F850C03 		jne	.L355
 912      0000
 913 0af9 488B4424 		movq	40(%rsp), %rax
 913      28
 914 0afe E9E9FBFF 		jmp	.L122
 914      FF
 915              		.p2align 4,,10
 916 0b03 0F1F4400 		.p2align 3
 916      00
 917              	.L116:
 918 0b08 4D85E4   		testq	%r12, %r12
 919 0b0b 0F85FE02 		jne	.L356
 919      0000
 920 0b11 488B4424 		movq	56(%rsp), %rax
 920      38
 921 0b16 E974FBFF 		jmp	.L117
 921      FF
 922 0b1b 0F1F4400 		.p2align 4,,10
 922      00
 923              		.p2align 3
 924              	.L111:
 925 0b20 4D85E4   		testq	%r12, %r12
 926 0b23 0F851403 		jne	.L357
 926      0000
 927 0b29 488B4424 		movq	64(%rsp), %rax
 927      40
 928 0b2e E9FFFAFF 		jmp	.L112
 928      FF
 929              		.p2align 4,,10
 930 0b33 0F1F4400 		.p2align 3
 930      00
 931              	.L342:
 932 0b38 488DB424 		leaq	128(%rsp), %rsi
 932      80000000 
 933 0b40 31D2     		xorl	%edx, %edx
 934 0b42 4C89F7   		movq	%r14, %rdi
 935              	.LEHB9:
 936 0b45 E8000000 		call	_ZNSt7__cxx1112basic_stringIcSt11char_traitsIcESaIcEE9_M_createERmm@PLT
 936      00
 937              	.LEHE9:
 938 0b4a 498906   		movq	%rax, (%r14)
 939 0b4d 4889C7   		movq	%rax, %rdi
 940 0b50 488B8424 		movq	128(%rsp), %rax
 940      80000000 
 941 0b58 49894610 		movq	%rax, 16(%r14)
 942              	.L110:
 943 0b5c 4C89E2   		movq	%r12, %rdx
 944 0b5f 4889EE   		movq	%rbp, %rsi
 945 0b62 E8000000 		call	memcpy@PLT
 945      00
 946 0b67 4C8BA424 		movq	128(%rsp), %r12
 946      80000000 
 947 0b6f 498B06   		movq	(%r14), %rax
 948 0b72 E9BBFAFF 		jmp	.L112
 948      FF
 949 0b77 660F1F84 		.p2align 4,,10
 949      00000000 
 949      00
 950              		.p2align 3
 951              	.L346:
 952 0b80 488DB424 		leaq	128(%rsp), %rsi
 952      80000000 
 953 0b88 498D7E40 		leaq	64(%r14), %rdi
 954 0b8c 31D2     		xorl	%edx, %edx
 955              	.LEHB10:
 956 0b8e E8000000 		call	_ZNSt7__cxx1112basic_stringIcSt11char_traitsIcESaIcEE9_M_createERmm@PLT
 956      00
 957              	.LEHE10:
 958 0b93 49894640 		movq	%rax, 64(%r14)
 959 0b97 4889C7   		movq	%rax, %rdi
 960 0b9a 488B8424 		movq	128(%rsp), %rax
 960      80000000 
 961 0ba2 49894650 		movq	%rax, 80(%r14)
 962              	.L120:
 963 0ba6 4C89E2   		movq	%r12, %rdx
 964 0ba9 4889EE   		movq	%rbp, %rsi
 965 0bac E8000000 		call	memcpy@PLT
 965      00
 966 0bb1 4C8BA424 		movq	128(%rsp), %r12
 966      80000000 
 967 0bb9 498B4640 		movq	64(%r14), %rax
 968 0bbd E92AFBFF 		jmp	.L122
 968      FF
 969              		.p2align 4,,10
 970 0bc2 660F1F44 		.p2align 3
 970      0000
 971              	.L344:
 972 0bc8 488DB424 		leaq	128(%rsp), %rsi
 972      80000000 
 973 0bd0 498D7E20 		leaq	32(%r14), %rdi
 974 0bd4 31D2     		xorl	%edx, %edx
 975              	.LEHB11:
 976 0bd6 E8000000 		call	_ZNSt7__cxx1112basic_stringIcSt11char_traitsIcESaIcEE9_M_createERmm@PLT
 976      00
 977              	.LEHE11:
 978 0bdb 49894620 		movq	%rax, 32(%r14)
 979 0bdf 4889C7   		movq	%rax, %rdi
 980 0be2 488B8424 		movq	128(%rsp), %rax
 980      80000000 
 981 0bea 49894630 		movq	%rax, 48(%r14)
 982              	.L115:
 983 0bee 4C89E2   		movq	%r12, %rdx
 984 0bf1 4889EE   		movq	%rbp, %rsi
 985 0bf4 E8000000 		call	memcpy@PLT
 985      00
 986 0bf9 4C8BA424 		movq	128(%rsp), %r12
 986      80000000 
 987 0c01 498B4620 		movq	32(%r14), %rax
 988 0c05 E985FAFF 		jmp	.L117
 988      FF
 989 0c0a 660F1F44 		.p2align 4,,10
 989      0000
 990              		.p2align 3
 991              	.L174:
 992 0c10 48C74424 		movq	$0, 32(%rsp)
 992      20000000 
 992      00
 993 0c19 31DB     		xorl	%ebx, %ebx
 994 0c1b E9FCF5FF 		jmp	.L39
 994      FF
 995              	.L170:
 996 0c20 48B880FF 		movabsq	$9223372036854775680, %rax
 996      FFFFFFFF 
 996      FF7F
 997 0c2a 48894424 		movq	%rax, 112(%rsp)
 997      70
 998 0c2f 4889C7   		movq	%rax, %rdi
 999              	.L22:
 1000              	.LEHB12:
 1001 0c32 E8000000 		call	_Znwm@PLT
 1001      00
 1002              	.LEHE12:
 1003 0c37 48894424 		movq	%rax, 96(%rsp)
 1003      60
 1004 0c3c E961F4FF 		jmp	.L168
 1004      FF
 1005              	.L37:
 1006 0c41 4D85E4   		testq	%r12, %r12
 1007 0c44 0F85FD01 		jne	.L358
 1007      0000
 1008 0c4a 488B4424 		movq	72(%rsp), %rax
 1008      48
 1009 0c4f E96BF5FF 		jmp	.L38
 1009      FF
 1010              	.L32:
 1011 0c54 4D85E4   		testq	%r12, %r12
 1012 0c57 0F85F401 		jne	.L359
 1012      0000
 1013 0c5d 488B4424 		movq	64(%rsp), %rax
 1013      40
 1014 0c62 E9F7F4FF 		jmp	.L33
 1014      FF
 1015              	.L327:
 1016 0c67 488B5C24 		movq	56(%rsp), %rbx
 1016      38
 1017 0c6c 488DB424 		leaq	128(%rsp), %rsi
 1017      80000000 
 1018 0c74 31D2     		xorl	%edx, %edx
 1019 0c76 488D7B40 		leaq	64(%rbx), %rdi
 1020              	.LEHB13:
 1021 0c7a E8000000 		call	_ZNSt7__cxx1112basic_stringIcSt11char_traitsIcESaIcEE9_M_createERmm@PLT
 1021      00
 1022              	.LEHE13:
 1023 0c7f 48894340 		movq	%rax, 64(%rbx)
 1024 0c83 4889C7   		movq	%rax, %rdi
 1025 0c86 488B8424 		movq	128(%rsp), %rax
 1025      80000000 
 1026 0c8e 48894350 		movq	%rax, 80(%rbx)
 1027              	.L36:
 1028 0c92 4C89E2   		movq	%r12, %rdx
 1029 0c95 4889EE   		movq	%rbp, %rsi
 1030 0c98 E8000000 		call	memcpy@PLT
 1030      00
 1031 0c9d 488B4424 		movq	56(%rsp), %rax
 1031      38
 1032 0ca2 4C8BA424 		movq	128(%rsp), %r12
 1032      80000000 
 1033 0caa 488B4040 		movq	64(%rax), %rax
 1034 0cae E90CF5FF 		jmp	.L38
 1034      FF
 1035              	.L325:
 1036 0cb3 488B5C24 		movq	56(%rsp), %rbx
 1036      38
 1037 0cb8 488DB424 		leaq	128(%rsp), %rsi
 1037      80000000 
 1038 0cc0 31D2     		xorl	%edx, %edx
 1039 0cc2 488D7B20 		leaq	32(%rbx), %rdi
 1040              	.LEHB14:
 1041 0cc6 E8000000 		call	_ZNSt7__cxx1112basic_stringIcSt11char_traitsIcESaIcEE9_M_createERmm@PLT
 1041      00
 1042              	.LEHE14:
 1043 0ccb 48894320 		movq	%rax, 32(%rbx)
 1044 0ccf 4889C7   		movq	%rax, %rdi
 1045 0cd2 488B8424 		movq	128(%rsp), %rax
 1045      80000000 
 1046 0cda 48894330 		movq	%rax, 48(%rbx)
 1047              	.L31:
 1048 0cde 4C89E2   		movq	%r12, %rdx
 1049 0ce1 4889EE   		movq	%rbp, %rsi
 1050 0ce4 E8000000 		call	memcpy@PLT
 1050      00
 1051 0ce9 488B4424 		movq	56(%rsp), %rax
 1051      38
 1052 0cee 4C8BA424 		movq	128(%rsp), %r12
 1052      80000000 
 1053 0cf6 488B4020 		movq	32(%rax), %rax
 1054 0cfa E95FF4FF 		jmp	.L33
 1054      FF
 1055              	.L323:
 1056 0cff 488B5C24 		movq	56(%rsp), %rbx
 1056      38
 1057 0d04 488DB424 		leaq	128(%rsp), %rsi
 1057      80000000 
 1058 0d0c 31D2     		xorl	%edx, %edx
 1059 0d0e 4889DF   		movq	%rbx, %rdi
 1060              	.LEHB15:
 1061 0d11 E8000000 		call	_ZNSt7__cxx1112basic_stringIcSt11char_traitsIcESaIcEE9_M_createERmm@PLT
 1061      00
 1062              	.LEHE15:
 1063 0d16 488903   		movq	%rax, (%rbx)
 1064 0d19 4889C7   		movq	%rax, %rdi
 1065 0d1c 488B8424 		movq	128(%rsp), %rax
 1065      80000000 
 1066 0d24 48894310 		movq	%rax, 16(%rbx)
 1067              	.L26:
 1068 0d28 4C89E2   		movq	%r12, %rdx
 1069 0d2b 4889EE   		movq	%rbp, %rsi
 1070 0d2e E8000000 		call	memcpy@PLT
 1070      00
 1071 0d33 488B4424 		movq	56(%rsp), %rax
 1071      38
 1072 0d38 4C8BA424 		movq	128(%rsp), %r12
 1072      80000000 
 1073 0d40 488B00   		movq	(%rax), %rax
 1074 0d43 E9B5F3FF 		jmp	.L28
 1074      FF
 1075              	.L337:
 1076 0d48 4885C0   		testq	%rax, %rax
 1077 0d4b 7905     		jns	.L81
 1078              	.LEHB16:
 1079 0d4d E8000000 		call	_ZSt28__throw_bad_array_new_lengthv@PLT
 1079      00
 1080              	.L81:
 1081 0d52 E8000000 		call	_ZSt17__throw_bad_allocv@PLT
 1081      00
 1082              	.LEHE16:
 1083              	.L347:
 1084 0d57 4885C0   		testq	%rax, %rax
 1085 0d5a 7905     		jns	.L125
 1086              	.LEHB17:
 1087 0d5c E8000000 		call	_ZSt28__throw_bad_array_new_lengthv@PLT
 1087      00
 1088              	.L125:
 1089 0d61 E8000000 		call	_ZSt17__throw_bad_allocv@PLT
 1089      00
 1090              	.LEHE17:
 1091              	.L328:
 1092 0d66 4885C0   		testq	%rax, %rax
 1093 0d69 7905     		jns	.L41
 1094              	.LEHB18:
 1095 0d6b E8000000 		call	_ZSt28__throw_bad_array_new_lengthv@PLT
 1095      00
 1096              	.L41:
 1097 0d70 E8000000 		call	_ZSt17__throw_bad_allocv@PLT
 1097      00
 1098              	.LEHE18:
 1099              	.L23:
 1100 0d75 4889C2   		movq	%rax, %rdx
 1101 0d78 48B8FFFF 		movabsq	$72057594037927935, %rax
 1101      FFFFFFFF 
 1101      FF00
 1102 0d82 4839C2   		cmpq	%rax, %rdx
 1103 0d85 480F46C2 		cmovbe	%rdx, %rax
 1104 0d89 48C1E007 		salq	$7, %rax
 1105 0d8d 48894424 		movq	%rax, 112(%rsp)
 1105      70
 1106 0d92 4889C7   		movq	%rax, %rdi
 1107 0d95 E998FEFF 		jmp	.L22
 1107      FF
 1108              	.L338:
 1109 0d9a 488D3D00 		leaq	.LC1(%rip), %rdi
 1109      000000
 1110              	.LEHB19:
 1111 0da1 E8000000 		call	_ZSt19__throw_logic_errorPKc@PLT
 1111      00
 1112              	.LEHE19:
 1113              	.L348:
 1114 0da6 488D3D00 		leaq	.LC1(%rip), %rdi
 1114      000000
 1115              	.LEHB20:
 1116 0dad E8000000 		call	_ZSt19__throw_logic_errorPKc@PLT
 1116      00
 1117              	.LEHE20:
 1118              	.L326:
 1119 0db2 488D3D00 		leaq	.LC1(%rip), %rdi
 1119      000000
 1120              	.LEHB21:
 1121 0db9 E8000000 		call	_ZSt19__throw_logic_errorPKc@PLT
 1121      00
 1122              	.LEHE21:
 1123              	.L351:
 1124 0dbe E8000000 		call	__stack_chk_fail@PLT
 1124      00
 1125              	.L322:
 1126 0dc3 488D3D00 		leaq	.LC1(%rip), %rdi
 1126      000000
 1127              	.LEHB22:
 1128 0dca E8000000 		call	_ZSt19__throw_logic_errorPKc@PLT
 1128      00
 1129              	.LEHE22:
 1130              	.L324:
 1131 0dcf 488D3D00 		leaq	.LC1(%rip), %rdi
 1131      000000
 1132              	.LEHB23:
 1133 0dd6 E8000000 		call	_ZSt19__throw_logic_errorPKc@PLT
 1133      00
 1134              	.LEHE23:
 1135              	.L321:
 1136 0ddb 488D3D00 		leaq	.LC0(%rip), %rdi
 1136      000000
 1137              	.LEHB24:
 1138 0de2 E8000000 		call	_ZSt20__throw_length_errorPKc@PLT
 1138      00
 1139              	.LEHE24:
 1140              	.L352:
 1141 0de7 488B7C24 		movq	80(%rsp), %rdi
 1141      50
 1142 0dec E965FCFF 		jmp	.L76
 1142      FF
 1143              	.L353:
 1144 0df1 488B7C24 		movq	72(%rsp), %rdi
 1144      48
 1145 0df6 E9A1FCFF 		jmp	.L66
 1145      FF
 1146              	.L354:
 1147 0dfb 488B7C24 		movq	64(%rsp), %rdi
 1147      40
 1148 0e00 E909FCFF 		jmp	.L71
 1148      FF
 1149              	.L355:
 1150 0e05 488B7C24 		movq	40(%rsp), %rdi
 1150      28
 1151 0e0a E997FDFF 		jmp	.L120
 1151      FF
 1152              	.L356:
 1153 0e0f 488B7C24 		movq	56(%rsp), %rdi
 1153      38
 1154 0e14 E9D5FDFF 		jmp	.L115
 1154      FF
 1155              	.L341:
 1156 0e19 488D3D00 		leaq	.LC1(%rip), %rdi
 1156      000000
 1157              	.LEHB25:
 1158 0e20 E8000000 		call	_ZSt19__throw_logic_errorPKc@PLT
 1158      00
 1159              	.LEHE25:
 1160              	.L343:
 1161 0e25 488D3D00 		leaq	.LC1(%rip), %rdi
 1161      000000
 1162              	.LEHB26:
 1163 0e2c E8000000 		call	_ZSt19__throw_logic_errorPKc@PLT
 1163      00
 1164              	.LEHE26:
 1165              	.L345:
 1166 0e31 488D3D00 		leaq	.LC1(%rip), %rdi
 1166      000000
 1167              	.LEHB27:
 1168 0e38 E8000000 		call	_ZSt19__throw_logic_errorPKc@PLT
 1168      00
 1169              	.LEHE27:
 1170              	.L357:
 1171 0e3d 488B7C24 		movq	64(%rsp), %rdi
 1171      40
 1172 0e42 E915FDFF 		jmp	.L110
 1172      FF
 1173              	.L358:
 1174 0e47 488B7C24 		movq	72(%rsp), %rdi
 1174      48
 1175 0e4c E941FEFF 		jmp	.L36
 1175      FF
 1176              	.L359:
 1177 0e51 488B7C24 		movq	64(%rsp), %rdi
 1177      40
 1178 0e56 E983FEFF 		jmp	.L31
 1178      FF
 1179              	.L330:
 1180 0e5b 488B7C24 		movq	40(%rsp), %rdi
 1180      28
 1181 0e60 E9C3FEFF 		jmp	.L26
 1181      FF
 1182              	.L331:
 1183 0e65 488D3D00 		leaq	.LC1(%rip), %rdi
 1183      000000
 1184              	.LEHB28:
 1185 0e6c E8000000 		call	_ZSt19__throw_logic_errorPKc@PLT
 1185      00
 1186              	.LEHE28:
 1187              	.L333:
 1188 0e71 488D3D00 		leaq	.LC1(%rip), %rdi
 1188      000000
 1189              	.LEHB29:
 1190 0e78 E8000000 		call	_ZSt19__throw_logic_errorPKc@PLT
 1190      00
 1191              	.LEHE29:
 1192              	.L335:
 1193 0e7d 488D3D00 		leaq	.LC1(%rip), %rdi
 1193      000000
 1194              	.LEHB30:
 1195 0e84 E8000000 		call	_ZSt19__throw_logic_errorPKc@PLT
 1195      00
 1196              	.LEHE30:
 1197              	.L329:
 1198 0e89 488D3D00 		leaq	.LC1(%rip), %rdi
 1198      000000
 1199              	.LEHB31:
 1200 0e90 E8000000 		call	_ZSt19__throw_logic_errorPKc@PLT
 1200      00
 1201              	.LEHE31:
 1202              	.L192:
 1203 0e95 F30F1EFA 		endbr64
 1204 0e99 4889C3   		movq	%rax, %rbx
 1205 0e9c EB30     		jmp	.L57
 1206              	.L197:
 1207 0e9e F30F1EFA 		endbr64
 1208 0ea2 4889C3   		movq	%rax, %rbx
 1209 0ea5 E9C60000 		jmp	.L99
 1209      00
 1210              	.L198:
 1211 0eaa F30F1EFA 		endbr64
 1212 0eae 4889C3   		movq	%rax, %rbx
 1213 0eb1 E9AA0000 		jmp	.L97
 1213      00
 1214              	.L55:
 1215 0eb6 E8000000 		call	__cxa_end_catch@PLT
 1215      00
 1216 0ebb 488B4424 		movq	56(%rsp), %rax
 1216      38
 1217 0ec0 488B7860 		movq	96(%rax), %rdi
 1218 0ec4 4885FF   		testq	%rdi, %rdi
 1219 0ec7 7405     		je	.L57
 1220 0ec9 E8000000 		call	_ZdlPv@PLT
 1220      00
 1221              	.L57:
 1222 0ece 488B4424 		movq	56(%rsp), %rax
 1222      38
 1223 0ed3 488B7840 		movq	64(%rax), %rdi
 1224 0ed7 48397C24 		cmpq	%rdi, 72(%rsp)
 1224      48
 1225 0edc 7405     		je	.L59
 1226 0ede E8000000 		call	_ZdlPv@PLT
 1226      00
 1227              	.L59:
 1228 0ee3 488B4424 		movq	56(%rsp), %rax
 1228      38
 1229 0ee8 488B7820 		movq	32(%rax), %rdi
 1230 0eec 48397C24 		cmpq	%rdi, 64(%rsp)
 1230      40
 1231 0ef1 7405     		je	.L61
 1232 0ef3 E8000000 		call	_ZdlPv@PLT
 1232      00
 1233              	.L61:
 1234 0ef8 488B4424 		movq	56(%rsp), %rax
 1234      38
 1235 0efd 488B38   		movq	(%rax), %rdi
 1236 0f00 48397C24 		cmpq	%rdi, 40(%rsp)
 1236      28
 1237 0f05 7405     		je	.L62
 1238 0f07 E8000000 		call	_ZdlPv@PLT
 1238      00
 1239              	.L62:
 1240 0f0c 4889DF   		movq	%rbx, %rdi
 1241              	.L63:
 1242 0f0f E8000000 		call	__cxa_begin_catch@PLT
 1242      00
 1243 0f14 48837C24 		cmpq	$0, 96(%rsp)
 1243      6000
 1244 0f1a 7512     		jne	.L318
 1245              	.L107:
 1246 0f1c 488B7C24 		movq	56(%rsp), %rdi
 1246      38
 1247 0f21 E8000000 		call	_ZN8UnitTest18DeferredTestResultD1Ev@PLT
 1247      00
 1248              	.L164:
 1249 0f26 48837C24 		cmpq	$0, 96(%rsp)
 1249      6000
 1250 0f2c 740A     		je	.L166
 1251              	.L318:
 1252 0f2e 488B7C24 		movq	96(%rsp), %rdi
 1252      60
 1253 0f33 E8000000 		call	_ZdlPv@PLT
 1253      00
 1254              	.L166:
 1255              	.LEHB32:
 1256 0f38 E8000000 		call	__cxa_rethrow@PLT
 1256      00
 1257              	.LEHE32:
 1258              	.L93:
 1259 0f3d E8000000 		call	__cxa_end_catch@PLT
 1259      00
 1260 0f42 498B7E60 		movq	96(%r14), %rdi
 1261 0f46 4885FF   		testq	%rdi, %rdi
 1262 0f49 7405     		je	.L95
 1263 0f4b E8000000 		call	_ZdlPv@PLT
 1263      00
 1264              	.L95:
 1265 0f50 498B7E40 		movq	64(%r14), %rdi
 1266 0f54 483B7C24 		cmpq	80(%rsp), %rdi
 1266      50
 1267 0f59 7405     		je	.L97
 1268 0f5b E8000000 		call	_ZdlPv@PLT
 1268      00
 1269              	.L97:
 1270 0f60 498B7E20 		movq	32(%r14), %rdi
 1271 0f64 483B7C24 		cmpq	64(%rsp), %rdi
 1271      40
 1272 0f69 7405     		je	.L99
 1273 0f6b E8000000 		call	_ZdlPv@PLT
 1273      00
 1274              	.L99:
 1275 0f70 498B3E   		movq	(%r14), %rdi
 1276 0f73 483B7C24 		cmpq	72(%rsp), %rdi
 1276      48
 1277 0f78 7405     		je	.L100
 1278 0f7a E8000000 		call	_ZdlPv@PLT
 1278      00
 1279              	.L100:
 1280 0f7f 4889DF   		movq	%rbx, %rdi
 1281              	.L101:
 1282 0f82 E8000000 		call	__cxa_begin_catch@PLT
 1282      00
 1283 0f87 488B5C24 		movq	96(%rsp), %rbx
 1283      60
 1284              	.L104:
 1285 0f8c 4939DE   		cmpq	%rbx, %r14
 1286 0f8f 0F84E001 		je	.L360
 1286      0000
 1287 0f95 4889DF   		movq	%rbx, %rdi
 1288 0f98 4883EB80 		subq	$-128, %rbx
 1289 0f9c E8000000 		call	_ZN8UnitTest18DeferredTestResultD1Ev@PLT
 1289      00
 1290 0fa1 EBE9     		jmp	.L104
 1291              	.L201:
 1292 0fa3 F30F1EFA 		endbr64
 1293 0fa7 4889C7   		movq	%rax, %rdi
 1294 0faa E9370100 		jmp	.L89
 1294      00
 1295              	.L196:
 1296 0faf F30F1EFA 		endbr64
 1297 0fb3 4889C7   		movq	%rax, %rdi
 1298 0fb6 EBCA     		jmp	.L101
 1299              	.L199:
 1300 0fb8 F30F1EFA 		endbr64
 1301 0fbc 4889C3   		movq	%rax, %rbx
 1302 0fbf EB8F     		jmp	.L95
 1303              	.L205:
 1304 0fc1 F30F1EFA 		endbr64
 1305 0fc5 4889C3   		movq	%rax, %rbx
 1306 0fc8 EB23     		jmp	.L141
 1307              	.L137:
 1308 0fca E8000000 		call	__cxa_end_catch@PLT
 1308      00
 1309 0fcf 498B7E60 		movq	96(%r14), %rdi
 1310 0fd3 4885FF   		testq	%rdi, %rdi
 1311 0fd6 7405     		je	.L139
 1312 0fd8 E8000000 		call	_ZdlPv@PLT
 1312      00
 1313              	.L139:
 1314 0fdd 498B7E40 		movq	64(%r14), %rdi
 1315 0fe1 483B7C24 		cmpq	40(%rsp), %rdi
 1315      28
 1316 0fe6 7405     		je	.L141
 1317 0fe8 E8000000 		call	_ZdlPv@PLT
 1317      00
 1318              	.L141:
 1319 0fed 498B7E20 		movq	32(%r14), %rdi
 1320 0ff1 483B7C24 		cmpq	56(%rsp), %rdi
 1320      38
 1321 0ff6 7405     		je	.L143
 1322 0ff8 E8000000 		call	_ZdlPv@PLT
 1322      00
 1323              	.L143:
 1324 0ffd 498B3E   		movq	(%r14), %rdi
 1325 1000 483B7C24 		cmpq	64(%rsp), %rdi
 1325      40
 1326 1005 7405     		je	.L144
 1327 1007 E8000000 		call	_ZdlPv@PLT
 1327      00
 1328              	.L144:
 1329 100c 4889DF   		movq	%rbx, %rdi
 1330              	.L145:
 1331 100f E8000000 		call	__cxa_begin_catch@PLT
 1331      00
 1332 1014 488B5C24 		movq	72(%rsp), %rbx
 1332      48
 1333              	.L149:
 1334 1019 4939DE   		cmpq	%rbx, %r14
 1335 101c 0F841C01 		je	.L361
 1335      0000
 1336 1022 4889DF   		movq	%rbx, %rdi
 1337 1025 4883EB80 		subq	$-128, %rbx
 1338 1029 E8000000 		call	_ZN8UnitTest18DeferredTestResultD1Ev@PLT
 1338      00
 1339 102e EBE9     		jmp	.L149
 1340              	.L204:
 1341 1030 F30F1EFA 		endbr64
 1342 1034 4889C3   		movq	%rax, %rbx
 1343 1037 EBC4     		jmp	.L143
 1344              	.L203:
 1345 1039 F30F1EFA 		endbr64
 1346 103d 4889C7   		movq	%rax, %rdi
 1347 1040 EBCD     		jmp	.L145
 1348              	.L190:
 1349 1042 F30F1EFA 		endbr64
 1350 1046 4889C3   		movq	%rax, %rbx
 1351 1049 E9AAFEFF 		jmp	.L61
 1351      FF
 1352              	.L194:
 1353 104e F30F1EFA 		endbr64
 1354 1052 4889C7   		movq	%rax, %rdi
 1355              	.L51:
 1356 1055 E8000000 		call	__cxa_begin_catch@PLT
 1356      00
 1357 105a 488B6C24 		movq	32(%rsp), %rbp
 1357      20
 1358              	.L52:
 1359 105f 4839EB   		cmpq	%rbp, %rbx
 1360 1062 7418     		je	.L362
 1361 1064 488B7D08 		movq	8(%rbp), %rdi
 1362 1068 488D4518 		leaq	24(%rbp), %rax
 1363 106c 4839C7   		cmpq	%rax, %rdi
 1364 106f 7405     		je	.L53
 1365 1071 E8000000 		call	_ZdlPv@PLT
 1365      00
 1366              	.L53:
 1367 1076 4883C528 		addq	$40, %rbp
 1368 107a EBE3     		jmp	.L52
 1369              	.L362:
 1370              	.LEHB33:
 1371 107c E8000000 		call	__cxa_rethrow@PLT
 1371      00
 1372              	.LEHE33:
 1373              	.L193:
 1374 1081 F30F1EFA 		endbr64
 1375 1085 4889C3   		movq	%rax, %rbx
 1376 1088 E929FEFF 		jmp	.L55
 1376      FF
 1377              	.L208:
 1378 108d F30F1EFA 		endbr64
 1379 1091 4889C7   		movq	%rax, %rdi
 1380 1094 EB0C     		jmp	.L133
 1381              	.L206:
 1382 1096 F30F1EFA 		endbr64
 1383 109a 4889C3   		movq	%rax, %rbx
 1384 109d E93BFFFF 		jmp	.L139
 1384      FF
 1385              	.L133:
 1386 10a2 E8000000 		call	__cxa_begin_catch@PLT
 1386      00
 1387 10a7 488B6C24 		movq	32(%rsp), %rbp
 1387      20
 1388              	.L134:
 1389 10ac 4839EB   		cmpq	%rbp, %rbx
 1390 10af 7418     		je	.L363
 1391 10b1 488B7D08 		movq	8(%rbp), %rdi
 1392 10b5 488D4518 		leaq	24(%rbp), %rax
 1393 10b9 4839C7   		cmpq	%rax, %rdi
 1394 10bc 7405     		je	.L135
 1395 10be E8000000 		call	_ZdlPv@PLT
 1395      00
 1396              	.L135:
 1397 10c3 4883C528 		addq	$40, %rbp
 1398 10c7 EBE3     		jmp	.L134
 1399              	.L363:
 1400              	.LEHB34:
 1401 10c9 E8000000 		call	__cxa_rethrow@PLT
 1401      00
 1402              	.LEHE34:
 1403              	.L207:
 1404 10ce F30F1EFA 		endbr64
 1405 10d2 4889C3   		movq	%rax, %rbx
 1406 10d5 E9F0FEFF 		jmp	.L137
 1406      FF
 1407              	.L209:
 1408 10da F30F1EFA 		endbr64
 1409 10de 4889C7   		movq	%rax, %rdi
 1410 10e1 E929FEFF 		jmp	.L63
 1410      FF
 1411              	.L89:
 1412 10e6 E8000000 		call	__cxa_begin_catch@PLT
 1412      00
 1413 10eb 488B6C24 		movq	40(%rsp), %rbp
 1413      28
 1414              	.L90:
 1415 10f0 4839EB   		cmpq	%rbp, %rbx
 1416 10f3 7418     		je	.L364
 1417 10f5 488B7D08 		movq	8(%rbp), %rdi
 1418 10f9 488D4518 		leaq	24(%rbp), %rax
 1419 10fd 4839C7   		cmpq	%rax, %rdi
 1420 1100 7405     		je	.L91
 1421 1102 E8000000 		call	_ZdlPv@PLT
 1421      00
 1422              	.L91:
 1423 1107 4883C528 		addq	$40, %rbp
 1424 110b EBE3     		jmp	.L90
 1425              	.L364:
 1426              	.LEHB35:
 1427 110d E8000000 		call	__cxa_rethrow@PLT
 1427      00
 1428              	.LEHE35:
 1429              	.L200:
 1430 1112 F30F1EFA 		endbr64
 1431 1116 4889C3   		movq	%rax, %rbx
 1432 1119 E91FFEFF 		jmp	.L93
 1432      FF
 1433              	.L191:
 1434 111e F30F1EFA 		endbr64
 1435 1122 4889C3   		movq	%rax, %rbx
 1436 1125 E9B9FDFF 		jmp	.L59
 1436      FF
 1437              	.L189:
 1438 112a F30F1EFA 		endbr64
 1439 112e 4889C5   		movq	%rax, %rbp
 1440              	.L167:
 1441 1131 E8000000 		call	__cxa_end_catch@PLT
 1441      00
 1442 1136 4889EF   		movq	%rbp, %rdi
 1443              	.LEHB36:
 1444 1139 E8000000 		call	_Unwind_Resume@PLT
 1444      00
 1445              	.LEHE36:
 1446              	.L361:
 1447              	.LEHB37:
 1448 113e E8000000 		call	__cxa_rethrow@PLT
 1448      00
 1449              	.LEHE37:
 1450              	.L202:
 1451 1143 F30F1EFA 		endbr64
 1452 1147 4889C5   		movq	%rax, %rbp
 1453              	.L151:
 1454 114a E8000000 		call	__cxa_end_catch@PLT
 1454      00
 1455 114f 4889EF   		movq	%rbp, %rdi
 1456 1152 E8000000 		call	__cxa_begin_catch@PLT
 1456      00
 1457 1157 488B5C24 		movq	96(%rsp), %rbx
 1457      60
 1458              	.L152:
 1459 115c 48395C24 		cmpq	%rbx, 72(%rsp)
 1459      48
 1460 1161 0F84BFFD 		je	.L164
 1460      FFFF
 1461 1167 4889DF   		movq	%rbx, %rdi
 1462 116a 4883EB80 		subq	$-128, %rbx
 1463 116e E8000000 		call	_ZN8UnitTest18DeferredTestResultD1Ev@PLT
 1463      00
 1464 1173 EBE7     		jmp	.L152
 1465              	.L360:
 1466              	.LEHB38:
 1467 1175 E8000000 		call	__cxa_rethrow@PLT
 1467      00
 1468              	.LEHE38:
 1469              	.L195:
 1470 117a F30F1EFA 		endbr64
 1471 117e 4889C5   		movq	%rax, %rbp
 1472              	.L106:
 1473 1181 E8000000 		call	__cxa_end_catch@PLT
 1473      00
 1474 1186 4889EF   		movq	%rbp, %rdi
 1475 1189 E8000000 		call	__cxa_begin_catch@PLT
 1475      00
 1476 118e E989FDFF 		jmp	.L107
 1476      FF
 1477              		.cfi_endproc
 1478              	.LFE1000:
 1479              		.globl	__gxx_personality_v0
 1480              		.section	.gcc_except_table._ZNSt6vectorIN8UnitTest18DeferredTestResultESaIS1_EE17_M_realloc_insert
 1481              		.align 4
 1482              	.LLSDA1000:
 1483 0000 FF       		.byte	0xff
 1484 0001 9B       		.byte	0x9b
 1485 0002 F401     		.uleb128 .LLSDATT1000-.LLSDATTD1000
 1486              	.LLSDATTD1000:
 1487 0004 01       		.byte	0x1
 1488 0005 E701     		.uleb128 .LLSDACSE1000-.LLSDACSB1000
 1489              	.LLSDACSB1000:
 1490 0007 8A04     		.uleb128 .LEHB0-.LFB1000
 1491 0009 05       		.uleb128 .LEHE0-.LEHB0
 1492 000a 951D     		.uleb128 .L192-.LFB1000
 1493 000c 03       		.uleb128 0x3
 1494 000d C205     		.uleb128 .LEHB1-.LFB1000
 1495 000f 05       		.uleb128 .LEHE1-.LEHB1
 1496 0010 CE20     		.uleb128 .L194-.LFB1000
 1497 0012 01       		.uleb128 0x1
 1498 0013 9609     		.uleb128 .LEHB2-.LFB1000
 1499 0015 05       		.uleb128 .LEHE2-.LEHB2
 1500 0016 B81F     		.uleb128 .L199-.LFB1000
 1501 0018 03       		.uleb128 0x3
 1502 0019 DB0A     		.uleb128 .LEHB3-.LFB1000
 1503 001b 05       		.uleb128 .LEHE3-.LEHB3
 1504 001c A31F     		.uleb128 .L201-.LFB1000
 1505 001e 01       		.uleb128 0x1
 1506 001f B80E     		.uleb128 .LEHB4-.LFB1000
 1507 0021 05       		.uleb128 .LEHE4-.LEHB4
 1508 0022 9621     		.uleb128 .L206-.LFB1000
 1509 0024 03       		.uleb128 0x3
 1510 0025 FA0F     		.uleb128 .LEHB5-.LFB1000
 1511 0027 05       		.uleb128 .LEHE5-.LEHB5
 1512 0028 8D21     		.uleb128 .L208-.LFB1000
 1513 002a 01       		.uleb128 0x1
 1514 002b F613     		.uleb128 .LEHB6-.LFB1000
 1515 002d 05       		.uleb128 .LEHE6-.LEHB6
 1516 002e 9E1D     		.uleb128 .L197-.LFB1000
 1517 0030 03       		.uleb128 0x3
 1518 0031 BE14     		.uleb128 .LEHB7-.LFB1000
 1519 0033 05       		.uleb128 .LEHE7-.LEHB7
 1520 0034 AA1D     		.uleb128 .L198-.LFB1000
 1521 0036 03       		.uleb128 0x3
 1522 0037 8515     		.uleb128 .LEHB8-.LFB1000
 1523 0039 05       		.uleb128 .LEHE8-.LEHB8
 1524 003a AF1F     		.uleb128 .L196-.LFB1000
 1525 003c 01       		.uleb128 0x1
 1526 003d C516     		.uleb128 .LEHB9-.LFB1000
 1527 003f 05       		.uleb128 .LEHE9-.LEHB9
 1528 0040 B920     		.uleb128 .L203-.LFB1000
 1529 0042 01       		.uleb128 0x1
 1530 0043 8E17     		.uleb128 .LEHB10-.LFB1000
 1531 0045 05       		.uleb128 .LEHE10-.LEHB10
 1532 0046 C11F     		.uleb128 .L205-.LFB1000
 1533 0048 03       		.uleb128 0x3
 1534 0049 D617     		.uleb128 .LEHB11-.LFB1000
 1535 004b 05       		.uleb128 .LEHE11-.LEHB11
 1536 004c B020     		.uleb128 .L204-.LFB1000
 1537 004e 03       		.uleb128 0x3
 1538 004f B218     		.uleb128 .LEHB12-.LFB1000
 1539 0051 05       		.uleb128 .LEHE12-.LEHB12
 1540 0052 00       		.uleb128 0
 1541 0053 00       		.uleb128 0
 1542 0054 FA18     		.uleb128 .LEHB13-.LFB1000
 1543 0056 05       		.uleb128 .LEHE13-.LEHB13
 1544 0057 9E22     		.uleb128 .L191-.LFB1000
 1545 0059 03       		.uleb128 0x3
 1546 005a C619     		.uleb128 .LEHB14-.LFB1000
 1547 005c 05       		.uleb128 .LEHE14-.LEHB14
 1548 005d C220     		.uleb128 .L190-.LFB1000
 1549 005f 03       		.uleb128 0x3
 1550 0060 911A     		.uleb128 .LEHB15-.LFB1000
 1551 0062 05       		.uleb128 .LEHE15-.LEHB15
 1552 0063 DA21     		.uleb128 .L209-.LFB1000
 1553 0065 01       		.uleb128 0x1
 1554 0066 CD1A     		.uleb128 .LEHB16-.LFB1000
 1555 0068 0A       		.uleb128 .LEHE16-.LEHB16
 1556 0069 B81F     		.uleb128 .L199-.LFB1000
 1557 006b 03       		.uleb128 0x3
 1558 006c DC1A     		.uleb128 .LEHB17-.LFB1000
 1559 006e 0A       		.uleb128 .LEHE17-.LEHB17
 1560 006f 9621     		.uleb128 .L206-.LFB1000
 1561 0071 03       		.uleb128 0x3
 1562 0072 EB1A     		.uleb128 .LEHB18-.LFB1000
 1563 0074 0A       		.uleb128 .LEHE18-.LEHB18
 1564 0075 951D     		.uleb128 .L192-.LFB1000
 1565 0077 03       		.uleb128 0x3
 1566 0078 A11B     		.uleb128 .LEHB19-.LFB1000
 1567 007a 05       		.uleb128 .LEHE19-.LEHB19
 1568 007b A31F     		.uleb128 .L201-.LFB1000
 1569 007d 01       		.uleb128 0x1
 1570 007e AD1B     		.uleb128 .LEHB20-.LFB1000
 1571 0080 05       		.uleb128 .LEHE20-.LEHB20
 1572 0081 8D21     		.uleb128 .L208-.LFB1000
 1573 0083 01       		.uleb128 0x1
 1574 0084 B91B     		.uleb128 .LEHB21-.LFB1000
 1575 0086 05       		.uleb128 .LEHE21-.LEHB21
 1576 0087 9E22     		.uleb128 .L191-.LFB1000
 1577 0089 03       		.uleb128 0x3
 1578 008a CA1B     		.uleb128 .LEHB22-.LFB1000
 1579 008c 05       		.uleb128 .LEHE22-.LEHB22
 1580 008d DA21     		.uleb128 .L209-.LFB1000
 1581 008f 01       		.uleb128 0x1
 1582 0090 D61B     		.uleb128 .LEHB23-.LFB1000
 1583 0092 05       		.uleb128 .LEHE23-.LEHB23
 1584 0093 C220     		.uleb128 .L190-.LFB1000
 1585 0095 03       		.uleb128 0x3
 1586 0096 E21B     		.uleb128 .LEHB24-.LFB1000
 1587 0098 05       		.uleb128 .LEHE24-.LEHB24
 1588 0099 00       		.uleb128 0
 1589 009a 00       		.uleb128 0
 1590 009b A01C     		.uleb128 .LEHB25-.LFB1000
 1591 009d 05       		.uleb128 .LEHE25-.LEHB25
 1592 009e B920     		.uleb128 .L203-.LFB1000
 1593 00a0 01       		.uleb128 0x1
 1594 00a1 AC1C     		.uleb128 .LEHB26-.LFB1000
 1595 00a3 05       		.uleb128 .LEHE26-.LEHB26
 1596 00a4 B020     		.uleb128 .L204-.LFB1000
 1597 00a6 03       		.uleb128 0x3
 1598 00a7 B81C     		.uleb128 .LEHB27-.LFB1000
 1599 00a9 05       		.uleb128 .LEHE27-.LEHB27
 1600 00aa C11F     		.uleb128 .L205-.LFB1000
 1601 00ac 03       		.uleb128 0x3
 1602 00ad EC1C     		.uleb128 .LEHB28-.LFB1000
 1603 00af 05       		.uleb128 .LEHE28-.LEHB28
 1604 00b0 AF1F     		.uleb128 .L196-.LFB1000
 1605 00b2 01       		.uleb128 0x1
 1606 00b3 F81C     		.uleb128 .LEHB29-.LFB1000
 1607 00b5 05       		.uleb128 .LEHE29-.LEHB29
 1608 00b6 9E1D     		.uleb128 .L197-.LFB1000
 1609 00b8 03       		.uleb128 0x3
 1610 00b9 841D     		.uleb128 .LEHB30-.LFB1000
 1611 00bb 05       		.uleb128 .LEHE30-.LEHB30
 1612 00bc AA1D     		.uleb128 .L198-.LFB1000
 1613 00be 03       		.uleb128 0x3
 1614 00bf 901D     		.uleb128 .LEHB31-.LFB1000
 1615 00c1 05       		.uleb128 .LEHE31-.LEHB31
 1616 00c2 CE20     		.uleb128 .L194-.LFB1000
 1617 00c4 01       		.uleb128 0x1
 1618 00c5 B81E     		.uleb128 .LEHB32-.LFB1000
 1619 00c7 05       		.uleb128 .LEHE32-.LEHB32
 1620 00c8 AA22     		.uleb128 .L189-.LFB1000
 1621 00ca 00       		.uleb128 0
 1622 00cb FC20     		.uleb128 .LEHB33-.LFB1000
 1623 00cd 05       		.uleb128 .LEHE33-.LEHB33
 1624 00ce 8121     		.uleb128 .L193-.LFB1000
 1625 00d0 03       		.uleb128 0x3
 1626 00d1 C921     		.uleb128 .LEHB34-.LFB1000
 1627 00d3 05       		.uleb128 .LEHE34-.LEHB34
 1628 00d4 CE21     		.uleb128 .L207-.LFB1000
 1629 00d6 03       		.uleb128 0x3
 1630 00d7 8D22     		.uleb128 .LEHB35-.LFB1000
 1631 00d9 05       		.uleb128 .LEHE35-.LEHB35
 1632 00da 9222     		.uleb128 .L200-.LFB1000
 1633 00dc 03       		.uleb128 0x3
 1634 00dd B922     		.uleb128 .LEHB36-.LFB1000
 1635 00df 05       		.uleb128 .LEHE36-.LEHB36
 1636 00e0 00       		.uleb128 0
 1637 00e1 00       		.uleb128 0
 1638 00e2 BE22     		.uleb128 .LEHB37-.LFB1000
 1639 00e4 05       		.uleb128 .LEHE37-.LEHB37
 1640 00e5 C322     		.uleb128 .L202-.LFB1000
 1641 00e7 03       		.uleb128 0x3
 1642 00e8 F522     		.uleb128 .LEHB38-.LFB1000
 1643 00ea 05       		.uleb128 .LEHE38-.LEHB38
 1644 00eb FA22     		.uleb128 .L195-.LFB1000
 1645 00ed 03       		.uleb128 0x3
 1646              	.LLSDACSE1000:
 1647 00ee 01       		.byte	0x1
 1648 00ef 00       		.byte	0
 1649 00f0 00       		.byte	0
 1650 00f1 7D       		.byte	0x7d
 1651 00f2 0000     		.align 4
 1652 00f4 00000000 		.long	0
 1653              	
 1654              	.LLSDATT1000:
 1655              		.section	.text._ZNSt6vectorIN8UnitTest18DeferredTestResultESaIS1_EE17_M_realloc_insertEN9__gnu_cxx
 1657              		.section	.text.unlikely,"ax",@progbits
 1658              		.align 2
 1659              	.LCOLDB2:
 1660              		.text
 1661              	.LHOTB2:
 1662 0019 90       		.align 2
 1663 001a 660F1F44 		.p2align 4
 1663      0000
 1664              		.globl	_ZN8UnitTest20DeferredTestReporter15ReportTestStartERKNS_11TestDetailsE
 1666              	_ZN8UnitTest20DeferredTestReporter15ReportTestStartERKNS_11TestDetailsE:
 1667              	.LFB955:
 1668              		.cfi_startproc
 1669              		.cfi_personality 0x9b,DW.ref.__gxx_personality_v0
 1670              		.cfi_lsda 0x1b,.LLSDA955
 1671 0020 F30F1EFA 		endbr64
 1672 0024 4157     		pushq	%r15
 1673              		.cfi_def_cfa_offset 16
 1674              		.cfi_offset 15, -16
 1675 0026 4156     		pushq	%r14
 1676              		.cfi_def_cfa_offset 24
 1677              		.cfi_offset 14, -24
 1678 0028 4155     		pushq	%r13
 1679              		.cfi_def_cfa_offset 32
 1680              		.cfi_offset 13, -32
 1681 002a 4154     		pushq	%r12
 1682              		.cfi_def_cfa_offset 40
 1683              		.cfi_offset 12, -40
 1684 002c 55       		pushq	%rbp
 1685              		.cfi_def_cfa_offset 48
 1686              		.cfi_offset 6, -48
 1687 002d 53       		pushq	%rbx
 1688              		.cfi_def_cfa_offset 56
 1689              		.cfi_offset 3, -56
 1690 002e 4889FB   		movq	%rdi, %rbx
 1691 0031 4881ECE8 		subq	$232, %rsp
 1691      000000
 1692              		.cfi_def_cfa_offset 288
 1693 0038 488B5608 		movq	8(%rsi), %rdx
 1694 003c 488B36   		movq	(%rsi), %rsi
 1695 003f 48897C24 		movq	%rdi, 16(%rsp)
 1695      10
 1696 0044 64488B04 		movq	%fs:40, %rax
 1696      25280000 
 1696      00
 1697 004d 48898424 		movq	%rax, 216(%rsp)
 1697      D8000000 
 1698 0055 31C0     		xorl	%eax, %eax
 1699 0057 488D4424 		leaq	80(%rsp), %rax
 1699      50
 1700 005c 4889C7   		movq	%rax, %rdi
 1701 005f 48894424 		movq	%rax, 32(%rsp)
 1701      20
 1702              	.LEHB39:
 1703 0064 E8000000 		call	_ZN8UnitTest18DeferredTestResultC1EPKcS2_@PLT
 1703      00
 1704              	.LEHE39:
 1705 0069 4C8B7310 		movq	16(%rbx), %r14
 1706 006d 4C3B7318 		cmpq	24(%rbx), %r14
 1707 0071 0F848903 		je	.L366
 1707      0000
 1708 0077 498D4610 		leaq	16(%r14), %rax
 1709 007b 4C8B6424 		movq	88(%rsp), %r12
 1709      58
 1710 0080 498906   		movq	%rax, (%r14)
 1711 0083 488B6C24 		movq	80(%rsp), %rbp
 1711      50
 1712 0088 48894424 		movq	%rax, 40(%rsp)
 1712      28
 1713 008d 4889E8   		movq	%rbp, %rax
 1714 0090 4C01E0   		addq	%r12, %rax
 1715 0093 7409     		je	.L367
 1716 0095 4885ED   		testq	%rbp, %rbp
 1717 0098 0F849E04 		je	.L462
 1717      0000
 1718              	.L367:
 1719 009e 4C896424 		movq	%r12, 72(%rsp)
 1719      48
 1720 00a3 4983FC0F 		cmpq	$15, %r12
 1721 00a7 0F87C301 		ja	.L463
 1721      0000
 1722 00ad 4983FC01 		cmpq	$1, %r12
 1723 00b1 0F857103 		jne	.L370
 1723      0000
 1724 00b7 0FB64500 		movzbl	0(%rbp), %eax
 1725 00bb 41884610 		movb	%al, 16(%r14)
 1726 00bf 488B4424 		movq	40(%rsp), %rax
 1726      28
 1727              	.L371:
 1728 00c4 4D896608 		movq	%r12, 8(%r14)
 1729 00c8 42C60420 		movb	$0, (%rax,%r12)
 1729      00
 1730 00cd 498D4630 		leaq	48(%r14), %rax
 1731 00d1 4C8B6424 		movq	120(%rsp), %r12
 1731      78
 1732 00d6 49894620 		movq	%rax, 32(%r14)
 1733 00da 488B6C24 		movq	112(%rsp), %rbp
 1733      70
 1734 00df 48894424 		movq	%rax, 48(%rsp)
 1734      30
 1735 00e4 4889E8   		movq	%rbp, %rax
 1736 00e7 4C01E0   		addq	%r12, %rax
 1737 00ea 7409     		je	.L372
 1738 00ec 4885ED   		testq	%rbp, %rbp
 1739 00ef 0F840F04 		je	.L464
 1739      0000
 1740              	.L372:
 1741 00f5 4C896424 		movq	%r12, 72(%rsp)
 1741      48
 1742 00fa 4983FC0F 		cmpq	$15, %r12
 1743 00fe 0F87AC03 		ja	.L465
 1743      0000
 1744 0104 4983FC01 		cmpq	$1, %r12
 1745 0108 0F854A03 		jne	.L375
 1745      0000
 1746 010e 0FB64500 		movzbl	0(%rbp), %eax
 1747 0112 41884630 		movb	%al, 48(%r14)
 1748 0116 488B4424 		movq	48(%rsp), %rax
 1748      30
 1749              	.L376:
 1750 011b 4D896628 		movq	%r12, 40(%r14)
 1751 011f 42C60420 		movb	$0, (%rax,%r12)
 1751      00
 1752 0124 498D4650 		leaq	80(%r14), %rax
 1753 0128 4C8BA424 		movq	152(%rsp), %r12
 1753      98000000 
 1754 0130 49894640 		movq	%rax, 64(%r14)
 1755 0134 488BAC24 		movq	144(%rsp), %rbp
 1755      90000000 
 1756 013c 48894424 		movq	%rax, 56(%rsp)
 1756      38
 1757 0141 4889E8   		movq	%rbp, %rax
 1758 0144 4C01E0   		addq	%r12, %rax
 1759 0147 7409     		je	.L377
 1760 0149 4885ED   		testq	%rbp, %rbp
 1761 014c 0F84BE03 		je	.L466
 1761      0000
 1762              	.L377:
 1763 0152 4C896424 		movq	%r12, 72(%rsp)
 1763      48
 1764 0157 4983FC0F 		cmpq	$15, %r12
 1765 015b 0F870F03 		ja	.L467
 1765      0000
 1766 0161 4983FC01 		cmpq	$1, %r12
 1767 0165 0F85D502 		jne	.L380
 1767      0000
 1768 016b 0FB64500 		movzbl	0(%rbp), %eax
 1769 016f 41884650 		movb	%al, 80(%r14)
 1770 0173 488B4424 		movq	56(%rsp), %rax
 1770      38
 1771              	.L381:
 1772 0178 4D896648 		movq	%r12, 72(%r14)
 1773 017c 660FEFC0 		pxor	%xmm0, %xmm0
 1774 0180 42C60420 		movb	$0, (%rax,%r12)
 1774      00
 1775 0185 488B8424 		movq	184(%rsp), %rax
 1775      B8000000 
 1776 018d 482B8424 		subq	176(%rsp), %rax
 1776      B0000000 
 1777 0195 49C74670 		movq	$0, 112(%r14)
 1777      00000000 
 1778 019d 410F1146 		movups	%xmm0, 96(%r14)
 1778      60
 1779 01a2 0F844802 		je	.L419
 1779      0000
 1780 01a8 48BAF8FF 		movabsq	$9223372036854775800, %rdx
 1780      FFFFFFFF 
 1780      FF7F
 1781 01b2 4889C3   		movq	%rax, %rbx
 1782 01b5 4839D0   		cmpq	%rdx, %rax
 1783 01b8 0F872B03 		ja	.L468
 1783      0000
 1784 01be 4889C7   		movq	%rax, %rdi
 1785              	.LEHB40:
 1786 01c1 E8000000 		call	_Znwm@PLT
 1786      00
 1787              	.LEHE40:
 1788 01c6 48894424 		movq	%rax, 24(%rsp)
 1788      18
 1789              	.L382:
 1790 01cb 488B6C24 		movq	24(%rsp), %rbp
 1790      18
 1791 01d0 66480F6E 		movq	%rbp, %xmm0
 1791      C5
 1792 01d5 4801EB   		addq	%rbp, %rbx
 1793 01d8 660F6CC0 		punpcklqdq	%xmm0, %xmm0
 1794 01dc 49895E70 		movq	%rbx, 112(%r14)
 1795 01e0 410F1146 		movups	%xmm0, 96(%r14)
 1795      60
 1796 01e5 4C8BBC24 		movq	184(%rsp), %r15
 1796      B8000000 
 1797 01ed 488B9C24 		movq	176(%rsp), %rbx
 1797      B0000000 
 1798 01f5 4939DF   		cmpq	%rbx, %r15
 1799 01f8 0F84FA00 		je	.L385
 1799      0000
 1800 01fe 488D4424 		leaq	72(%rsp), %rax
 1800      48
 1801 0203 48894424 		movq	%rax, 8(%rsp)
 1801      08
 1802 0208 EB28     		jmp	.L391
 1803 020a 660F1F44 		.p2align 4,,10
 1803      0000
 1804              		.p2align 3
 1805              	.L472:
 1806 0210 410FB645 		movzbl	0(%r13), %eax
 1806      00
 1807 0215 884518   		movb	%al, 24(%rbp)
 1808              	.L390:
 1809 0218 4883C328 		addq	$40, %rbx
 1810 021c 4C896510 		movq	%r12, 16(%rbp)
 1811 0220 4883C528 		addq	$40, %rbp
 1812 0224 42C60427 		movb	$0, (%rdi,%r12)
 1812      00
 1813 0229 4939DF   		cmpq	%rbx, %r15
 1814 022c 0F84BE00 		je	.L469
 1814      0000
 1815              	.L391:
 1816 0232 488D7D18 		leaq	24(%rbp), %rdi
 1817 0236 8B03     		movl	(%rbx), %eax
 1818 0238 4C8B6310 		movq	16(%rbx), %r12
 1819 023c 48897D08 		movq	%rdi, 8(%rbp)
 1820 0240 4C8B6B08 		movq	8(%rbx), %r13
 1821 0244 894500   		movl	%eax, 0(%rbp)
 1822 0247 4C89E8   		movq	%r13, %rax
 1823 024a 4C01E0   		addq	%r12, %rax
 1824 024d 7409     		je	.L386
 1825 024f 4D85ED   		testq	%r13, %r13
 1826 0252 0F84A002 		je	.L470
 1826      0000
 1827              	.L386:
 1828 0258 4C896424 		movq	%r12, 72(%rsp)
 1828      48
 1829 025d 4983FC0F 		cmpq	$15, %r12
 1830 0261 774D     		ja	.L471
 1831 0263 4983FC01 		cmpq	$1, %r12
 1832 0267 74A7     		je	.L472
 1833 0269 4D85E4   		testq	%r12, %r12
 1834 026c 74AA     		je	.L390
 1835 026e EB60     		jmp	.L388
 1836              		.p2align 4,,10
 1837              		.p2align 3
 1838              	.L463:
 1839 0270 488D7424 		leaq	72(%rsp), %rsi
 1839      48
 1840 0275 31D2     		xorl	%edx, %edx
 1841 0277 4C89F7   		movq	%r14, %rdi
 1842              	.LEHB41:
 1843 027a E8000000 		call	_ZNSt7__cxx1112basic_stringIcSt11char_traitsIcESaIcEE9_M_createERmm@PLT
 1843      00
 1844              	.LEHE41:
 1845 027f 498906   		movq	%rax, (%r14)
 1846 0282 4889C7   		movq	%rax, %rdi
 1847 0285 488B4424 		movq	72(%rsp), %rax
 1847      48
 1848 028a 49894610 		movq	%rax, 16(%r14)
 1849              	.L369:
 1850 028e 4C89E2   		movq	%r12, %rdx
 1851 0291 4889EE   		movq	%rbp, %rsi
 1852 0294 E8000000 		call	memcpy@PLT
 1852      00
 1853 0299 4C8B6424 		movq	72(%rsp), %r12
 1853      48
 1854 029e 498B06   		movq	(%r14), %rax
 1855 02a1 E91EFEFF 		jmp	.L371
 1855      FF
 1856 02a6 662E0F1F 		.p2align 4,,10
 1856      84000000 
 1856      0000
 1857              		.p2align 3
 1858              	.L471:
 1859 02b0 488B7424 		movq	8(%rsp), %rsi
 1859      08
 1860 02b5 488D7D08 		leaq	8(%rbp), %rdi
 1861 02b9 31D2     		xorl	%edx, %edx
 1862              	.LEHB42:
 1863 02bb E8000000 		call	_ZNSt7__cxx1112basic_stringIcSt11char_traitsIcESaIcEE9_M_createERmm@PLT
 1863      00
 1864              	.LEHE42:
 1865 02c0 48894508 		movq	%rax, 8(%rbp)
 1866 02c4 4889C7   		movq	%rax, %rdi
 1867 02c7 488B4424 		movq	72(%rsp), %rax
 1867      48
 1868 02cc 48894518 		movq	%rax, 24(%rbp)
 1869              	.L388:
 1870 02d0 4C89E2   		movq	%r12, %rdx
 1871 02d3 4C89EE   		movq	%r13, %rsi
 1872 02d6 E8000000 		call	memcpy@PLT
 1872      00
 1873 02db 4C8B6424 		movq	72(%rsp), %r12
 1873      48
 1874 02e0 488B7D08 		movq	8(%rbp), %rdi
 1875 02e4 E92FFFFF 		jmp	.L390
 1875      FF
 1876 02e9 0F1F8000 		.p2align 4,,10
 1876      000000
 1877              		.p2align 3
 1878              	.L469:
 1879 02f0 488B9C24 		movq	176(%rsp), %rbx
 1879      B0000000 
 1880              	.L385:
 1881 02f8 0FB68424 		movzbl	204(%rsp), %eax
 1881      CC000000 
 1882 0300 49896E68 		movq	%rbp, 104(%r14)
 1883 0304 F30F1084 		movss	200(%rsp), %xmm0
 1883      24C80000 
 1883      00
 1884 030d 4188467C 		movb	%al, 124(%r14)
 1885 0311 488B4424 		movq	16(%rsp), %rax
 1885      10
 1886 0316 F3410F11 		movss	%xmm0, 120(%r14)
 1886      4678
 1887 031c 48836810 		subq	$-128, 16(%rax)
 1887      80
 1888              	.L392:
 1889 0321 488BAC24 		movq	184(%rsp), %rbp
 1889      B8000000 
 1890 0329 4839EB   		cmpq	%rbp, %rbx
 1891 032c 7429     		je	.L406
 1892 032e 6690     		.p2align 4,,10
 1893              		.p2align 3
 1894              	.L410:
 1895 0330 488B7B08 		movq	8(%rbx), %rdi
 1896 0334 488D4318 		leaq	24(%rbx), %rax
 1897 0338 4839C7   		cmpq	%rax, %rdi
 1898 033b 0F849700 		je	.L407
 1898      0000
 1899 0341 E8000000 		call	_ZdlPv@PLT
 1899      00
 1900 0346 4883C328 		addq	$40, %rbx
 1901 034a 4839DD   		cmpq	%rbx, %rbp
 1902 034d 75E1     		jne	.L410
 1903              	.L409:
 1904 034f 488BAC24 		movq	176(%rsp), %rbp
 1904      B0000000 
 1905              	.L406:
 1906 0357 4885ED   		testq	%rbp, %rbp
 1907 035a 7408     		je	.L411
 1908 035c 4889EF   		movq	%rbp, %rdi
 1909 035f E8000000 		call	_ZdlPv@PLT
 1909      00
 1910              	.L411:
 1911 0364 488BBC24 		movq	144(%rsp), %rdi
 1911      90000000 
 1912 036c 488D8424 		leaq	160(%rsp), %rax
 1912      A0000000 
 1913 0374 4839C7   		cmpq	%rax, %rdi
 1914 0377 7405     		je	.L412
 1915 0379 E8000000 		call	_ZdlPv@PLT
 1915      00
 1916              	.L412:
 1917 037e 488B7C24 		movq	112(%rsp), %rdi
 1917      70
 1918 0383 488D8424 		leaq	128(%rsp), %rax
 1918      80000000 
 1919 038b 4839C7   		cmpq	%rax, %rdi
 1920 038e 7405     		je	.L413
 1921 0390 E8000000 		call	_ZdlPv@PLT
 1921      00
 1922              	.L413:
 1923 0395 488B7C24 		movq	80(%rsp), %rdi
 1923      50
 1924 039a 488D4424 		leaq	96(%rsp), %rax
 1924      60
 1925 039f 4839C7   		cmpq	%rax, %rdi
 1926 03a2 7405     		je	.L365
 1927 03a4 E8000000 		call	_ZdlPv@PLT
 1927      00
 1928              	.L365:
 1929 03a9 488B8424 		movq	216(%rsp), %rax
 1929      D8000000 
 1930 03b1 64482B04 		subq	%fs:40, %rax
 1930      25280000 
 1930      00
 1931 03ba 0F856301 		jne	.L473
 1931      0000
 1932 03c0 4881C4E8 		addq	$232, %rsp
 1932      000000
 1933              		.cfi_remember_state
 1934              		.cfi_def_cfa_offset 56
 1935 03c7 5B       		popq	%rbx
 1936              		.cfi_def_cfa_offset 48
 1937 03c8 5D       		popq	%rbp
 1938              		.cfi_def_cfa_offset 40
 1939 03c9 415C     		popq	%r12
 1940              		.cfi_def_cfa_offset 32
 1941 03cb 415D     		popq	%r13
 1942              		.cfi_def_cfa_offset 24
 1943 03cd 415E     		popq	%r14
 1944              		.cfi_def_cfa_offset 16
 1945 03cf 415F     		popq	%r15
 1946              		.cfi_def_cfa_offset 8
 1947 03d1 C3       		ret
 1948              		.p2align 4,,10
 1949 03d2 660F1F44 		.p2align 3
 1949      0000
 1950              	.L407:
 1951              		.cfi_restore_state
 1952 03d8 4883C328 		addq	$40, %rbx
 1953 03dc 4839DD   		cmpq	%rbx, %rbp
 1954 03df 0F854BFF 		jne	.L410
 1954      FFFF
 1955 03e5 E965FFFF 		jmp	.L409
 1955      FF
 1956 03ea 660F1F44 		.p2align 4,,10
 1956      0000
 1957              		.p2align 3
 1958              	.L419:
 1959 03f0 48C74424 		movq	$0, 24(%rsp)
 1959      18000000 
 1959      00
 1960 03f9 31DB     		xorl	%ebx, %ebx
 1961 03fb E9CBFDFF 		jmp	.L382
 1961      FF
 1962              		.p2align 4,,10
 1963              		.p2align 3
 1964              	.L366:
 1965 0400 488B7C24 		movq	16(%rsp), %rdi
 1965      10
 1966 0405 488B5424 		movq	32(%rsp), %rdx
 1966      20
 1967 040a 4C89F6   		movq	%r14, %rsi
 1968 040d 4883C708 		addq	$8, %rdi
 1969              	.LEHB43:
 1970 0411 E8000000 		call	_ZNSt6vectorIN8UnitTest18DeferredTestResultESaIS1_EE17_M_realloc_insertEN9__gnu_cxx17__normal
 1970      00
 1971              	.LEHE43:
 1972 0416 488B9C24 		movq	176(%rsp), %rbx
 1972      B0000000 
 1973 041e E9FEFEFF 		jmp	.L392
 1973      FF
 1974              		.p2align 4,,10
 1975 0423 0F1F4400 		.p2align 3
 1975      00
 1976              	.L370:
 1977 0428 4D85E4   		testq	%r12, %r12
 1978 042b 0F85F700 		jne	.L474
 1978      0000
 1979 0431 488B4424 		movq	40(%rsp), %rax
 1979      28
 1980 0436 E989FCFF 		jmp	.L371
 1980      FF
 1981 043b 0F1F4400 		.p2align 4,,10
 1981      00
 1982              		.p2align 3
 1983              	.L380:
 1984 0440 4D85E4   		testq	%r12, %r12
 1985 0443 0F85E900 		jne	.L475
 1985      0000
 1986 0449 488B4424 		movq	56(%rsp), %rax
 1986      38
 1987 044e E925FDFF 		jmp	.L381
 1987      FF
 1988              		.p2align 4,,10
 1989 0453 0F1F4400 		.p2align 3
 1989      00
 1990              	.L375:
 1991 0458 4D85E4   		testq	%r12, %r12
 1992 045b 0F85BB00 		jne	.L476
 1992      0000
 1993 0461 488B4424 		movq	48(%rsp), %rax
 1993      30
 1994 0466 E9B0FCFF 		jmp	.L376
 1994      FF
 1995 046b 0F1F4400 		.p2align 4,,10
 1995      00
 1996              		.p2align 3
 1997              	.L467:
 1998 0470 488D7424 		leaq	72(%rsp), %rsi
 1998      48
 1999 0475 498D7E40 		leaq	64(%r14), %rdi
 2000 0479 31D2     		xorl	%edx, %edx
 2001              	.LEHB44:
 2002 047b E8000000 		call	_ZNSt7__cxx1112basic_stringIcSt11char_traitsIcESaIcEE9_M_createERmm@PLT
 2002      00
 2003              	.LEHE44:
 2004 0480 49894640 		movq	%rax, 64(%r14)
 2005 0484 4889C7   		movq	%rax, %rdi
 2006 0487 488B4424 		movq	72(%rsp), %rax
 2006      48
 2007 048c 49894650 		movq	%rax, 80(%r14)
 2008              	.L379:
 2009 0490 4C89E2   		movq	%r12, %rdx
 2010 0493 4889EE   		movq	%rbp, %rsi
 2011 0496 E8000000 		call	memcpy@PLT
 2011      00
 2012 049b 4C8B6424 		movq	72(%rsp), %r12
 2012      48
 2013 04a0 498B4640 		movq	64(%r14), %rax
 2014 04a4 E9CFFCFF 		jmp	.L381
 2014      FF
 2015 04a9 0F1F8000 		.p2align 4,,10
 2015      000000
 2016              		.p2align 3
 2017              	.L465:
 2018 04b0 488D7424 		leaq	72(%rsp), %rsi
 2018      48
 2019 04b5 498D7E20 		leaq	32(%r14), %rdi
 2020 04b9 31D2     		xorl	%edx, %edx
 2021              	.LEHB45:
 2022 04bb E8000000 		call	_ZNSt7__cxx1112basic_stringIcSt11char_traitsIcESaIcEE9_M_createERmm@PLT
 2022      00
 2023              	.LEHE45:
 2024 04c0 49894620 		movq	%rax, 32(%r14)
 2025 04c4 4889C7   		movq	%rax, %rdi
 2026 04c7 488B4424 		movq	72(%rsp), %rax
 2026      48
 2027 04cc 49894630 		movq	%rax, 48(%r14)
 2028              	.L374:
 2029 04d0 4C89E2   		movq	%r12, %rdx
 2030 04d3 4889EE   		movq	%rbp, %rsi
 2031 04d6 E8000000 		call	memcpy@PLT
 2031      00
 2032 04db 4C8B6424 		movq	72(%rsp), %r12
 2032      48
 2033 04e0 498B4620 		movq	32(%r14), %rax
 2034 04e4 E932FCFF 		jmp	.L376
 2034      FF
 2035              	.L468:
 2036 04e9 4885C0   		testq	%rax, %rax
 2037 04ec 7905     		jns	.L384
 2038              	.LEHB46:
 2039 04ee E8000000 		call	_ZSt28__throw_bad_array_new_lengthv@PLT
 2039      00
 2040              	.L384:
 2041 04f3 E8000000 		call	_ZSt17__throw_bad_allocv@PLT
 2041      00
 2042              	.LEHE46:
 2043              	.L470:
 2044 04f8 488D3D00 		leaq	.LC1(%rip), %rdi
 2044      000000
 2045              	.LEHB47:
 2046 04ff E8000000 		call	_ZSt19__throw_logic_errorPKc@PLT
 2046      00
 2047              	.LEHE47:
 2048              	.L464:
 2049 0504 488D3D00 		leaq	.LC1(%rip), %rdi
 2049      000000
 2050              	.LEHB48:
 2051 050b E8000000 		call	_ZSt19__throw_logic_errorPKc@PLT
 2051      00
 2052              	.LEHE48:
 2053              	.L466:
 2054 0510 488D3D00 		leaq	.LC1(%rip), %rdi
 2054      000000
 2055              	.LEHB49:
 2056 0517 E8000000 		call	_ZSt19__throw_logic_errorPKc@PLT
 2056      00
 2057              	.LEHE49:
 2058              	.L476:
 2059 051c 488B7C24 		movq	48(%rsp), %rdi
 2059      30
 2060 0521 EBAD     		jmp	.L374
 2061              	.L473:
 2062 0523 E8000000 		call	__stack_chk_fail@PLT
 2062      00
 2063              	.L474:
 2064 0528 488B7C24 		movq	40(%rsp), %rdi
 2064      28
 2065 052d E95CFDFF 		jmp	.L369
 2065      FF
 2066              	.L475:
 2067 0532 488B7C24 		movq	56(%rsp), %rdi
 2067      38
 2068 0537 E954FFFF 		jmp	.L379
 2068      FF
 2069              	.L462:
 2070 053c 488D3D00 		leaq	.LC1(%rip), %rdi
 2070      000000
 2071              	.LEHB50:
 2072 0543 E8000000 		call	_ZSt19__throw_logic_errorPKc@PLT
 2072      00
 2073              	.LEHE50:
 2074              	.L423:
 2075 0548 F30F1EFA 		endbr64
 2076 054c 4889C3   		movq	%rax, %rbx
 2077 054f E9000000 		jmp	.L401
 2077      00
 2078              	.L422:
 2079 0554 F30F1EFA 		endbr64
 2080 0558 4889C3   		movq	%rax, %rbx
 2081 055b E9000000 		jmp	.L403
 2081      00
 2082              	.L424:
 2083 0560 F30F1EFA 		endbr64
 2084 0564 4889C3   		movq	%rax, %rbx
 2085 0567 E9000000 		jmp	.L399
 2085      00
 2086              	.L421:
 2087 056c F30F1EFA 		endbr64
 2088 0570 4889C3   		movq	%rax, %rbx
 2089 0573 E9000000 		jmp	.L405
 2089      00
 2090              	.L426:
 2091 0578 F30F1EFA 		endbr64
 2092 057c 4889C7   		movq	%rax, %rdi
 2093 057f E9000000 		jmp	.L393
 2093      00
 2094              		.section	.gcc_except_table,"a",@progbits
 2095              		.align 4
 2096              	.LLSDA955:
 2097 0000 FF       		.byte	0xff
 2098 0001 9B       		.byte	0x9b
 2099 0002 51       		.uleb128 .LLSDATT955-.LLSDATTD955
 2100              	.LLSDATTD955:
 2101 0003 01       		.byte	0x1
 2102 0004 46       		.uleb128 .LLSDACSE955-.LLSDACSB955
 2103              	.LLSDACSB955:
 2104 0005 44       		.uleb128 .LEHB39-.LFB955
 2105 0006 05       		.uleb128 .LEHE39-.LEHB39
 2106 0007 00       		.uleb128 0
 2107 0008 00       		.uleb128 0
 2108 0009 A103     		.uleb128 .LEHB40-.LFB955
 2109 000b 05       		.uleb128 .LEHE40-.LEHB40
 2110 000c C00A     		.uleb128 .L424-.LFB955
 2111 000e 00       		.uleb128 0
 2112 000f DA04     		.uleb128 .LEHB41-.LFB955
 2113 0011 05       		.uleb128 .LEHE41-.LEHB41
 2114 0012 CC0A     		.uleb128 .L421-.LFB955
 2115 0014 00       		.uleb128 0
 2116 0015 9B05     		.uleb128 .LEHB42-.LFB955
 2117 0017 05       		.uleb128 .LEHE42-.LEHB42
 2118 0018 D80A     		.uleb128 .L426-.LFB955
 2119 001a 01       		.uleb128 0x1
 2120 001b F107     		.uleb128 .LEHB43-.LFB955
 2121 001d 05       		.uleb128 .LEHE43-.LEHB43
 2122 001e CC0A     		.uleb128 .L421-.LFB955
 2123 0020 00       		.uleb128 0
 2124 0021 DB08     		.uleb128 .LEHB44-.LFB955
 2125 0023 05       		.uleb128 .LEHE44-.LEHB44
 2126 0024 A80A     		.uleb128 .L423-.LFB955
 2127 0026 00       		.uleb128 0
 2128 0027 9B09     		.uleb128 .LEHB45-.LFB955
 2129 0029 05       		.uleb128 .LEHE45-.LEHB45
 2130 002a B40A     		.uleb128 .L422-.LFB955
 2131 002c 00       		.uleb128 0
 2132 002d CE09     		.uleb128 .LEHB46-.LFB955
 2133 002f 0A       		.uleb128 .LEHE46-.LEHB46
 2134 0030 C00A     		.uleb128 .L424-.LFB955
 2135 0032 00       		.uleb128 0
 2136 0033 DF09     		.uleb128 .LEHB47-.LFB955
 2137 0035 05       		.uleb128 .LEHE47-.LEHB47
 2138 0036 D80A     		.uleb128 .L426-.LFB955
 2139 0038 01       		.uleb128 0x1
 2140 0039 EB09     		.uleb128 .LEHB48-.LFB955
 2141 003b 05       		.uleb128 .LEHE48-.LEHB48
 2142 003c B40A     		.uleb128 .L422-.LFB955
 2143 003e 00       		.uleb128 0
 2144 003f F709     		.uleb128 .LEHB49-.LFB955
 2145 0041 05       		.uleb128 .LEHE49-.LEHB49
 2146 0042 A80A     		.uleb128 .L423-.LFB955
 2147 0044 00       		.uleb128 0
 2148 0045 A30A     		.uleb128 .LEHB50-.LFB955
 2149 0047 05       		.uleb128 .LEHE50-.LEHB50
 2150 0048 CC0A     		.uleb128 .L421-.LFB955
 2151 004a 00       		.uleb128 0
 2152              	.LLSDACSE955:
 2153 004b 01       		.byte	0x1
 2154 004c 00       		.byte	0
 2155 004d 000000   		.align 4
 2156 0050 00000000 		.long	0
 2157              	
 2158              	.LLSDATT955:
 2159              		.text
 2160              		.cfi_endproc
 2161              		.section	.text.unlikely
 2162              		.cfi_startproc
 2163              		.cfi_personality 0x9b,DW.ref.__gxx_personality_v0
 2164              		.cfi_lsda 0x1b,.LLSDAC955
 2166              	_ZN8UnitTest20DeferredTestReporter15ReportTestStartERKNS_11TestDetailsE.cold:
 2167              	.LFSB955:
 2168 0000 90       		nop
 2169              	.L425:
 2170              		.cfi_def_cfa_offset 288
 2171              		.cfi_offset 3, -56
 2172              		.cfi_offset 6, -48
 2173              		.cfi_offset 12, -40
 2174              		.cfi_offset 13, -32
 2175              		.cfi_offset 14, -24
 2176              		.cfi_offset 15, -16
 2177 0001 F30F1EFA 		endbr64
 2178 0005 4889C3   		movq	%rax, %rbx
 2179 0008 E8000000 		call	__cxa_end_catch@PLT
 2179      00
 2180 000d 498B7E60 		movq	96(%r14), %rdi
 2181 0011 4885FF   		testq	%rdi, %rdi
 2182 0014 7405     		je	.L399
 2183 0016 E8000000 		call	_ZdlPv@PLT
 2183      00
 2184              	.L399:
 2185 001b 498B7E40 		movq	64(%r14), %rdi
 2186 001f 48397C24 		cmpq	%rdi, 56(%rsp)
 2186      38
 2187 0024 7405     		je	.L401
 2188 0026 E8000000 		call	_ZdlPv@PLT
 2188      00
 2189              	.L401:
 2190 002b 498B7E20 		movq	32(%r14), %rdi
 2191 002f 48397C24 		cmpq	%rdi, 48(%rsp)
 2191      30
 2192 0034 7405     		je	.L403
 2193 0036 E8000000 		call	_ZdlPv@PLT
 2193      00
 2194              	.L403:
 2195 003b 498B3E   		movq	(%r14), %rdi
 2196 003e 48397C24 		cmpq	%rdi, 40(%rsp)
 2196      28
 2197 0043 7405     		je	.L405
 2198 0045 E8000000 		call	_ZdlPv@PLT
 2198      00
 2199              	.L405:
 2200 004a 488B7C24 		movq	32(%rsp), %rdi
 2200      20
 2201 004f E8000000 		call	_ZN8UnitTest18DeferredTestResultD1Ev@PLT
 2201      00
 2202 0054 4889DF   		movq	%rbx, %rdi
 2203              	.LEHB51:
 2204 0057 E8000000 		call	_Unwind_Resume@PLT
 2204      00
 2205              	.LEHE51:
 2206              	.L393:
 2207 005c E8000000 		call	__cxa_begin_catch@PLT
 2207      00
 2208 0061 488B5C24 		movq	24(%rsp), %rbx
 2208      18
 2209              	.L394:
 2210 0066 4839DD   		cmpq	%rbx, %rbp
 2211 0069 7418     		je	.L477
 2212 006b 488B7B08 		movq	8(%rbx), %rdi
 2213 006f 488D4318 		leaq	24(%rbx), %rax
 2214 0073 4839C7   		cmpq	%rax, %rdi
 2215 0076 7405     		je	.L395
 2216 0078 E8000000 		call	_ZdlPv@PLT
 2216      00
 2217              	.L395:
 2218 007d 4883C328 		addq	$40, %rbx
 2219 0081 EBE3     		jmp	.L394
 2220              	.L477:
 2221              	.LEHB52:
 2222 0083 E8000000 		call	__cxa_rethrow@PLT
 2222      00
 2223              	.LEHE52:
 2224              		.cfi_endproc
 2225              	.LFE955:
 2226              		.section	.gcc_except_table
 2227              		.align 4
 2228              	.LLSDAC955:
 2229 0054 FF       		.byte	0xff
 2230 0055 9B       		.byte	0x9b
 2231 0056 11       		.uleb128 .LLSDATTC955-.LLSDATTDC955
 2232              	.LLSDATTDC955:
 2233 0057 01       		.byte	0x1
 2234 0058 09       		.uleb128 .LLSDACSEC955-.LLSDACSBC955
 2235              	.LLSDACSBC955:
 2236 0059 57       		.uleb128 .LEHB51-.LCOLDB2
 2237 005a 05       		.uleb128 .LEHE51-.LEHB51
 2238 005b 00       		.uleb128 0
 2239 005c 00       		.uleb128 0
 2240 005d 8301     		.uleb128 .LEHB52-.LCOLDB2
 2241 005f 05       		.uleb128 .LEHE52-.LEHB52
 2242 0060 01       		.uleb128 .L425-.LCOLDB2
 2243 0061 00       		.uleb128 0
 2244              	.LLSDACSEC955:
 2245 0062 01       		.byte	0x1
 2246 0063 00       		.byte	0
 2247              		.align 4
 2248 0064 00000000 		.long	0
 2249              	
 2250              	.LLSDATTC955:
 2251              		.section	.text.unlikely
 2252              		.text
 2254              		.section	.text.unlikely
 2256              	.LCOLDE2:
 2257              		.text
 2258              	.LHOTE2:
 2259              		.section	.text._ZNSt6vectorISt4pairIiNSt7__cxx1112basic_stringIcSt11char_traitsIcESaIcEEEESaIS7_EE
 2260              		.align 2
 2261              		.p2align 4
 2262              		.weak	_ZNSt6vectorISt4pairIiNSt7__cxx1112basic_stringIcSt11char_traitsIcESaIcEEEESaIS7_EE17_M_real
 2264              	_ZNSt6vectorISt4pairIiNSt7__cxx1112basic_stringIcSt11char_traitsIcESaIcEEEESaIS7_EE17_M_realloc_ins
 2265              	.LFB1019:
 2266              		.cfi_startproc
 2267              		.cfi_personality 0x9b,DW.ref.__gxx_personality_v0
 2268              		.cfi_lsda 0x1b,.LLSDA1019
 2269 0000 F30F1EFA 		endbr64
 2270 0004 4157     		pushq	%r15
 2271              		.cfi_def_cfa_offset 16
 2272              		.cfi_offset 15, -16
 2273 0006 4156     		pushq	%r14
 2274              		.cfi_def_cfa_offset 24
 2275              		.cfi_offset 14, -24
 2276 0008 4155     		pushq	%r13
 2277              		.cfi_def_cfa_offset 32
 2278              		.cfi_offset 13, -32
 2279 000a 4154     		pushq	%r12
 2280              		.cfi_def_cfa_offset 40
 2281              		.cfi_offset 12, -40
 2282 000c 55       		pushq	%rbp
 2283              		.cfi_def_cfa_offset 48
 2284              		.cfi_offset 6, -48
 2285 000d 53       		pushq	%rbx
 2286              		.cfi_def_cfa_offset 56
 2287              		.cfi_offset 3, -56
 2288 000e 4889D3   		movq	%rdx, %rbx
 2289 0011 48BACDCC 		movabsq	$-3689348814741910323, %rdx
 2289      CCCCCCCC 
 2289      CCCC
 2290 001b 4883EC68 		subq	$104, %rsp
 2291              		.cfi_def_cfa_offset 160
 2292 001f 4C8B7708 		movq	8(%rdi), %r14
 2293 0023 488B0F   		movq	(%rdi), %rcx
 2294 0026 48897C24 		movq	%rdi, 64(%rsp)
 2294      40
 2295 002b 48893424 		movq	%rsi, (%rsp)
 2296 002f 64488B04 		movq	%fs:40, %rax
 2296      25280000 
 2296      00
 2297 0038 48894424 		movq	%rax, 88(%rsp)
 2297      58
 2298 003d 31C0     		xorl	%eax, %eax
 2299 003f 4C89F0   		movq	%r14, %rax
 2300 0042 48894C24 		movq	%rcx, 24(%rsp)
 2300      18
 2301 0047 4829C8   		subq	%rcx, %rax
 2302 004a 48C1F803 		sarq	$3, %rax
 2303 004e 480FAFC2 		imulq	%rdx, %rax
 2304 0052 48BA3333 		movabsq	$230584300921369395, %rdx
 2304      33333333 
 2304      3303
 2305 005c 4839D0   		cmpq	%rdx, %rax
 2306 005f 0F84BC03 		je	.L579
 2306      0000
 2307 0065 4885C0   		testq	%rax, %rax
 2308 0068 BA010000 		movl	$1, %edx
 2308      00
 2309 006d 4989F4   		movq	%rsi, %r12
 2310 0070 4889F5   		movq	%rsi, %rbp
 2311 0073 480F45D0 		cmovne	%rax, %rdx
 2312 0077 4801D0   		addq	%rdx, %rax
 2313 007a 0F92C2   		setc	%dl
 2314 007d 48894424 		movq	%rax, 56(%rsp)
 2314      38
 2315 0082 4C2B6424 		subq	24(%rsp), %r12
 2315      18
 2316 0087 0FB6D2   		movzbl	%dl, %edx
 2317 008a 4885D2   		testq	%rdx, %rdx
 2318 008d 0F85CD02 		jne	.L530
 2318      0000
 2319 0093 4885C0   		testq	%rax, %rax
 2320 0096 0F852F03 		jne	.L483
 2320      0000
 2321 009c 48C74424 		movq	$0, 32(%rsp)
 2321      20000000 
 2321      00
 2322              	.L527:
 2323 00a5 4C036424 		addq	32(%rsp), %r12
 2323      20
 2324 00aa 8B03     		movl	(%rbx), %eax
 2325 00ac 498D4C24 		leaq	24(%r12), %rcx
 2325      18
 2326 00b1 4C8B6B08 		movq	8(%rbx), %r13
 2327 00b5 4C896424 		movq	%r12, 48(%rsp)
 2327      30
 2328 00ba 41890424 		movl	%eax, (%r12)
 2329 00be 49894C24 		movq	%rcx, 8(%r12)
 2329      08
 2330 00c3 4C8B6310 		movq	16(%rbx), %r12
 2331 00c7 4C89E8   		movq	%r13, %rax
 2332 00ca 48894C24 		movq	%rcx, 72(%rsp)
 2332      48
 2333 00cf 4C01E0   		addq	%r12, %rax
 2334 00d2 7409     		je	.L484
 2335 00d4 4D85ED   		testq	%r13, %r13
 2336 00d7 0F842C03 		je	.L580
 2336      0000
 2337              	.L484:
 2338 00dd 4C896424 		movq	%r12, 80(%rsp)
 2338      50
 2339 00e2 4983FC0F 		cmpq	$15, %r12
 2340 00e6 0F879C02 		ja	.L581
 2340      0000
 2341 00ec 4983FC01 		cmpq	$1, %r12
 2342 00f0 0F85B200 		jne	.L487
 2342      0000
 2343 00f6 410FB645 		movzbl	0(%r13), %eax
 2343      00
 2344 00fb 488B4C24 		movq	48(%rsp), %rcx
 2344      30
 2345 0100 884118   		movb	%al, 24(%rcx)
 2346 0103 488B4424 		movq	72(%rsp), %rax
 2346      48
 2347              	.L488:
 2348 0108 488B7424 		movq	48(%rsp), %rsi
 2348      30
 2349 010d 4C8B6C24 		movq	24(%rsp), %r13
 2349      18
 2350 0112 488B5C24 		movq	32(%rsp), %rbx
 2350      20
 2351 0117 4C896610 		movq	%r12, 16(%rsi)
 2352 011b 42C60420 		movb	$0, (%rax,%r12)
 2352      00
 2353 0120 4C392C24 		cmpq	%r13, (%rsp)
 2354 0124 0F84D600 		je	.L489
 2354      0000
 2355 012a 488D4424 		leaq	80(%rsp), %rax
 2355      50
 2356 012f 48894424 		movq	%rax, 40(%rsp)
 2356      28
 2357 0134 EB2C     		jmp	.L495
 2358 0136 662E0F1F 		.p2align 4,,10
 2358      84000000 
 2358      0000
 2359              		.p2align 3
 2360              	.L584:
 2361 0140 410FB607 		movzbl	(%r15), %eax
 2362 0144 884318   		movb	%al, 24(%rbx)
 2363              	.L494:
 2364 0147 4C896310 		movq	%r12, 16(%rbx)
 2365 014b 4983C528 		addq	$40, %r13
 2366 014f 4883C328 		addq	$40, %rbx
 2367 0153 42C60427 		movb	$0, (%rdi,%r12)
 2367      00
 2368 0158 4C392C24 		cmpq	%r13, (%rsp)
 2369 015c 0F849E00 		je	.L489
 2369      0000
 2370              	.L495:
 2371 0162 488D7B18 		leaq	24(%rbx), %rdi
 2372 0166 418B4500 		movl	0(%r13), %eax
 2373 016a 4D8B6510 		movq	16(%r13), %r12
 2374 016e 48897B08 		movq	%rdi, 8(%rbx)
 2375 0172 4D8B7D08 		movq	8(%r13), %r15
 2376 0176 8903     		movl	%eax, (%rbx)
 2377 0178 4C89F8   		movq	%r15, %rax
 2378 017b 4C01E0   		addq	%r12, %rax
 2379 017e 7409     		je	.L490
 2380 0180 4D85FF   		testq	%r15, %r15
 2381 0183 0F846802 		je	.L582
 2381      0000
 2382              	.L490:
 2383 0189 4C896424 		movq	%r12, 80(%rsp)
 2383      50
 2384 018e 4983FC0F 		cmpq	$15, %r12
 2385 0192 772C     		ja	.L583
 2386 0194 4983FC01 		cmpq	$1, %r12
 2387 0198 74A6     		je	.L584
 2388 019a 4D85E4   		testq	%r12, %r12
 2389 019d 74A8     		je	.L494
 2390 019f EB3F     		jmp	.L492
 2391              		.p2align 4,,10
 2392 01a1 0F1F8000 		.p2align 3
 2392      000000
 2393              	.L487:
 2394 01a8 4D85E4   		testq	%r12, %r12
 2395 01ab 0F856402 		jne	.L585
 2395      0000
 2396 01b1 488B4424 		movq	72(%rsp), %rax
 2396      48
 2397 01b6 E94DFFFF 		jmp	.L488
 2397      FF
 2398 01bb 0F1F4400 		.p2align 4,,10
 2398      00
 2399              		.p2align 3
 2400              	.L583:
 2401 01c0 488B7424 		movq	40(%rsp), %rsi
 2401      28
 2402 01c5 488D7B08 		leaq	8(%rbx), %rdi
 2403 01c9 31D2     		xorl	%edx, %edx
 2404              	.LEHB53:
 2405 01cb E8000000 		call	_ZNSt7__cxx1112basic_stringIcSt11char_traitsIcESaIcEE9_M_createERmm@PLT
 2405      00
 2406              	.LEHE53:
 2407 01d0 48894308 		movq	%rax, 8(%rbx)
 2408 01d4 4889C7   		movq	%rax, %rdi
 2409 01d7 488B4424 		movq	80(%rsp), %rax
 2409      50
 2410 01dc 48894318 		movq	%rax, 24(%rbx)
 2411              	.L492:
 2412 01e0 4C89E2   		movq	%r12, %rdx
 2413 01e3 4C89FE   		movq	%r15, %rsi
 2414 01e6 E8000000 		call	memcpy@PLT
 2414      00
 2415 01eb 4C8B6424 		movq	80(%rsp), %r12
 2415      50
 2416 01f0 488B7B08 		movq	8(%rbx), %rdi
 2417 01f4 E94EFFFF 		jmp	.L494
 2417      FF
 2418 01f9 0F1F8000 		.p2align 4,,10
 2418      000000
 2419              		.p2align 3
 2420              	.L489:
 2421 0200 488D4328 		leaq	40(%rbx), %rax
 2422 0204 4C8D7C24 		leaq	80(%rsp), %r15
 2422      50
 2423 0209 48894424 		movq	%rax, 40(%rsp)
 2423      28
 2424 020e 4889C3   		movq	%rax, %rbx
 2425 0211 4C393424 		cmpq	%r14, (%rsp)
 2426 0215 752B     		jne	.L496
 2427 0217 E9A40000 		jmp	.L497
 2427      00
 2428 021c 0F1F4000 		.p2align 4,,10
 2429              		.p2align 3
 2430              	.L588:
 2431 0220 410FB645 		movzbl	0(%r13), %eax
 2431      00
 2432 0225 884318   		movb	%al, 24(%rbx)
 2433              	.L508:
 2434 0228 4883C528 		addq	$40, %rbp
 2435 022c 4C896310 		movq	%r12, 16(%rbx)
 2436 0230 4883C328 		addq	$40, %rbx
 2437 0234 42C60427 		movb	$0, (%rdi,%r12)
 2437      00
 2438 0239 4939EE   		cmpq	%rbp, %r14
 2439 023c 0F847E00 		je	.L497
 2439      0000
 2440              	.L496:
 2441 0242 8B4500   		movl	0(%rbp), %eax
 2442 0245 4C8B6D08 		movq	8(%rbp), %r13
 2443 0249 488D7B18 		leaq	24(%rbx), %rdi
 2444 024d 4C8B6510 		movq	16(%rbp), %r12
 2445 0251 48897B08 		movq	%rdi, 8(%rbx)
 2446 0255 8903     		movl	%eax, (%rbx)
 2447 0257 4C89E8   		movq	%r13, %rax
 2448 025a 4C01E0   		addq	%r12, %rax
 2449 025d 7409     		je	.L504
 2450 025f 4D85ED   		testq	%r13, %r13
 2451 0262 0F849501 		je	.L586
 2451      0000
 2452              	.L504:
 2453 0268 4C896424 		movq	%r12, 80(%rsp)
 2453      50
 2454 026d 4983FC0F 		cmpq	$15, %r12
 2455 0271 770D     		ja	.L587
 2456 0273 4983FC01 		cmpq	$1, %r12
 2457 0277 74A7     		je	.L588
 2458 0279 4D85E4   		testq	%r12, %r12
 2459 027c 74AA     		je	.L508
 2460 027e EB1E     		jmp	.L506
 2461              		.p2align 4,,10
 2462              		.p2align 3
 2463              	.L587:
 2464 0280 488D7B08 		leaq	8(%rbx), %rdi
 2465 0284 31D2     		xorl	%edx, %edx
 2466 0286 4C89FE   		movq	%r15, %rsi
 2467              	.LEHB54:
 2468 0289 E8000000 		call	_ZNSt7__cxx1112basic_stringIcSt11char_traitsIcESaIcEE9_M_createERmm@PLT
 2468      00
 2469              	.LEHE54:
 2470 028e 48894308 		movq	%rax, 8(%rbx)
 2471 0292 4889C7   		movq	%rax, %rdi
 2472 0295 488B4424 		movq	80(%rsp), %rax
 2472      50
 2473 029a 48894318 		movq	%rax, 24(%rbx)
 2474              	.L506:
 2475 029e 4C89E2   		movq	%r12, %rdx
 2476 02a1 4C89EE   		movq	%r13, %rsi
 2477 02a4 E8000000 		call	memcpy@PLT
 2477      00
 2478 02a9 4C8B6424 		movq	80(%rsp), %r12
 2478      50
 2479 02ae 488B7B08 		movq	8(%rbx), %rdi
 2480 02b2 E971FFFF 		jmp	.L508
 2480      FF
 2481 02b7 660F1F84 		.p2align 4,,10
 2481      00000000 
 2481      00
 2482              		.p2align 3
 2483              	.L497:
 2484 02c0 F30F7E44 		movq	32(%rsp), %xmm0
 2484      2420
 2485 02c6 66480F6E 		movq	%rbx, %xmm1
 2485      CB
 2486 02cb 488B4424 		movq	24(%rsp), %rax
 2486      18
 2487 02d0 660F6CC1 		punpcklqdq	%xmm1, %xmm0
 2488 02d4 4889C3   		movq	%rax, %rbx
 2489 02d7 0F290424 		movaps	%xmm0, (%rsp)
 2490 02db 4C39F0   		cmpq	%r14, %rax
 2491 02de 741B     		je	.L520
 2492              		.p2align 4,,10
 2493              		.p2align 3
 2494              	.L509:
 2495 02e0 488B7B08 		movq	8(%rbx), %rdi
 2496 02e4 488D4318 		leaq	24(%rbx), %rax
 2497 02e8 4839C7   		cmpq	%rax, %rdi
 2498 02eb 7463     		je	.L518
 2499 02ed E8000000 		call	_ZdlPv@PLT
 2499      00
 2500 02f2 4883C328 		addq	$40, %rbx
 2501 02f6 4939DE   		cmpq	%rbx, %r14
 2502 02f9 75E5     		jne	.L509
 2503              	.L520:
 2504 02fb 48837C24 		cmpq	$0, 24(%rsp)
 2504      1800
 2505 0301 740A     		je	.L511
 2506 0303 488B7C24 		movq	24(%rsp), %rdi
 2506      18
 2507 0308 E8000000 		call	_ZdlPv@PLT
 2507      00
 2508              	.L511:
 2509 030d 488B4C24 		movq	64(%rsp), %rcx
 2509      40
 2510 0312 488B4424 		movq	32(%rsp), %rax
 2510      20
 2511 0317 48034424 		addq	56(%rsp), %rax
 2511      38
 2512 031c 660F6F14 		movdqa	(%rsp), %xmm2
 2512      24
 2513 0321 48894110 		movq	%rax, 16(%rcx)
 2514 0325 0F1111   		movups	%xmm2, (%rcx)
 2515 0328 488B4424 		movq	88(%rsp), %rax
 2515      58
 2516 032d 64482B04 		subq	%fs:40, %rax
 2516      25280000 
 2516      00
 2517 0336 0F85E000 		jne	.L589
 2517      0000
 2518 033c 4883C468 		addq	$104, %rsp
 2519              		.cfi_remember_state
 2520              		.cfi_def_cfa_offset 56
 2521 0340 5B       		popq	%rbx
 2522              		.cfi_def_cfa_offset 48
 2523 0341 5D       		popq	%rbp
 2524              		.cfi_def_cfa_offset 40
 2525 0342 415C     		popq	%r12
 2526              		.cfi_def_cfa_offset 32
 2527 0344 415D     		popq	%r13
 2528              		.cfi_def_cfa_offset 24
 2529 0346 415E     		popq	%r14
 2530              		.cfi_def_cfa_offset 16
 2531 0348 415F     		popq	%r15
 2532              		.cfi_def_cfa_offset 8
 2533 034a C3       		ret
 2534 034b 0F1F4400 		.p2align 4,,10
 2534      00
 2535              		.p2align 3
 2536              	.L518:
 2537              		.cfi_restore_state
 2538 0350 4883C328 		addq	$40, %rbx
 2539 0354 4C39F3   		cmpq	%r14, %rbx
 2540 0357 7587     		jne	.L509
 2541 0359 EBA0     		jmp	.L520
 2542 035b 0F1F4400 		.p2align 4,,10
 2542      00
 2543              		.p2align 3
 2544              	.L530:
 2545 0360 48B8F8FF 		movabsq	$9223372036854775800, %rax
 2545      FFFFFFFF 
 2545      FF7F
 2546 036a 48894424 		movq	%rax, 56(%rsp)
 2546      38
 2547 036f 4889C7   		movq	%rax, %rdi
 2548              	.L482:
 2549              	.LEHB55:
 2550 0372 E8000000 		call	_Znwm@PLT
 2550      00
 2551              	.LEHE55:
 2552 0377 48894424 		movq	%rax, 32(%rsp)
 2552      20
 2553 037c E924FDFF 		jmp	.L527
 2553      FF
 2554              		.p2align 4,,10
 2555 0381 0F1F8000 		.p2align 3
 2555      000000
 2556              	.L581:
 2557 0388 488B5C24 		movq	48(%rsp), %rbx
 2557      30
 2558 038d 488D7424 		leaq	80(%rsp), %rsi
 2558      50
 2559 0392 31D2     		xorl	%edx, %edx
 2560 0394 488D7B08 		leaq	8(%rbx), %rdi
 2561              	.LEHB56:
 2562 0398 E8000000 		call	_ZNSt7__cxx1112basic_stringIcSt11char_traitsIcESaIcEE9_M_createERmm@PLT
 2562      00
 2563              	.LEHE56:
 2564 039d 48894308 		movq	%rax, 8(%rbx)
 2565 03a1 4889C7   		movq	%rax, %rdi
 2566 03a4 488B4424 		movq	80(%rsp), %rax
 2566      50
 2567 03a9 48894318 		movq	%rax, 24(%rbx)
 2568              	.L486:
 2569 03ad 4C89E2   		movq	%r12, %rdx
 2570 03b0 4C89EE   		movq	%r13, %rsi
 2571 03b3 E8000000 		call	memcpy@PLT
 2571      00
 2572 03b8 488B4424 		movq	48(%rsp), %rax
 2572      30
 2573 03bd 4C8B6424 		movq	80(%rsp), %r12
 2573      50
 2574 03c2 488B4008 		movq	8(%rax), %rax
 2575 03c6 E93DFDFF 		jmp	.L488
 2575      FF
 2576              	.L483:
 2577 03cb 4889C1   		movq	%rax, %rcx
 2578 03ce 48B83333 		movabsq	$230584300921369395, %rax
 2578      33333333 
 2578      3303
 2579 03d8 4839C1   		cmpq	%rax, %rcx
 2580 03db 480F46C1 		cmovbe	%rcx, %rax
 2581 03df 488D0480 		leaq	(%rax,%rax,4), %rax
 2582 03e3 48C1E003 		salq	$3, %rax
 2583 03e7 48894424 		movq	%rax, 56(%rsp)
 2583      38
 2584 03ec 4889C7   		movq	%rax, %rdi
 2585 03ef EB81     		jmp	.L482
 2586              	.L582:
 2587 03f1 488D3D00 		leaq	.LC1(%rip), %rdi
 2587      000000
 2588              	.LEHB57:
 2589 03f8 E8000000 		call	_ZSt19__throw_logic_errorPKc@PLT
 2589      00
 2590              	.LEHE57:
 2591              	.L586:
 2592 03fd 488D3D00 		leaq	.LC1(%rip), %rdi
 2592      000000
 2593              	.LEHB58:
 2594 0404 E8000000 		call	_ZSt19__throw_logic_errorPKc@PLT
 2594      00
 2595              	.LEHE58:
 2596              	.L580:
 2597 0409 488D3D00 		leaq	.LC1(%rip), %rdi
 2597      000000
 2598              	.LEHB59:
 2599 0410 E8000000 		call	_ZSt19__throw_logic_errorPKc@PLT
 2599      00
 2600              	.LEHE59:
 2601              	.L585:
 2602 0415 488B7C24 		movq	72(%rsp), %rdi
 2602      48
 2603 041a EB91     		jmp	.L486
 2604              	.L589:
 2605 041c E8000000 		call	__stack_chk_fail@PLT
 2605      00
 2606              	.L579:
 2607 0421 488D3D00 		leaq	.LC0(%rip), %rdi
 2607      000000
 2608              	.LEHB60:
 2609 0428 E8000000 		call	_ZSt20__throw_length_errorPKc@PLT
 2609      00
 2610              	.LEHE60:
 2611              	.L537:
 2612 042d F30F1EFA 		endbr64
 2613 0431 4889C7   		movq	%rax, %rdi
 2614 0434 EB12     		jmp	.L498
 2615              	.L540:
 2616 0436 F30F1EFA 		endbr64
 2617 043a 4889C7   		movq	%rax, %rdi
 2618 043d EB30     		jmp	.L528
 2619              	.L539:
 2620 043f F30F1EFA 		endbr64
 2621 0443 4889C7   		movq	%rax, %rdi
 2622 0446 EB43     		jmp	.L512
 2623              	.L498:
 2624 0448 E8000000 		call	__cxa_begin_catch@PLT
 2624      00
 2625 044d 488B6C24 		movq	32(%rsp), %rbp
 2625      20
 2626              	.L499:
 2627 0452 4839EB   		cmpq	%rbp, %rbx
 2628 0455 745B     		je	.L590
 2629 0457 488B7D08 		movq	8(%rbp), %rdi
 2630 045b 488D4518 		leaq	24(%rbp), %rax
 2631 045f 4839C7   		cmpq	%rax, %rdi
 2632 0462 7405     		je	.L500
 2633 0464 E8000000 		call	_ZdlPv@PLT
 2633      00
 2634              	.L500:
 2635 0469 4883C528 		addq	$40, %rbp
 2636 046d EBE3     		jmp	.L499
 2637              	.L528:
 2638 046f E8000000 		call	__cxa_begin_catch@PLT
 2638      00
 2639 0474 48837C24 		cmpq	$0, 32(%rsp)
 2639      2000
 2640 047a 744F     		je	.L503
 2641              	.L576:
 2642 047c 488B7C24 		movq	32(%rsp), %rdi
 2642      20
 2643 0481 E8000000 		call	_ZdlPv@PLT
 2643      00
 2644              	.L525:
 2645              	.LEHB61:
 2646 0486 E8000000 		call	__cxa_rethrow@PLT
 2646      00
 2647              	.LEHE61:
 2648              	.L512:
 2649 048b E8000000 		call	__cxa_begin_catch@PLT
 2649      00
 2650 0490 488B6C24 		movq	40(%rsp), %rbp
 2650      28
 2651              	.L513:
 2652 0495 4839DD   		cmpq	%rbx, %rbp
 2653 0498 7450     		je	.L591
 2654 049a 488B7D08 		movq	8(%rbp), %rdi
 2655 049e 488D4518 		leaq	24(%rbp), %rax
 2656 04a2 4839C7   		cmpq	%rax, %rdi
 2657 04a5 7405     		je	.L514
 2658 04a7 E8000000 		call	_ZdlPv@PLT
 2658      00
 2659              	.L514:
 2660 04ac 4883C528 		addq	$40, %rbp
 2661 04b0 EBE3     		jmp	.L513
 2662              	.L590:
 2663              	.LEHB62:
 2664 04b2 E8000000 		call	__cxa_rethrow@PLT
 2664      00
 2665              	.LEHE62:
 2666              	.L536:
 2667 04b7 F30F1EFA 		endbr64
 2668 04bb 4889C5   		movq	%rax, %rbp
 2669              	.L502:
 2670 04be E8000000 		call	__cxa_end_catch@PLT
 2670      00
 2671 04c3 4889EF   		movq	%rbp, %rdi
 2672 04c6 E8000000 		call	__cxa_begin_catch@PLT
 2672      00
 2673              	.L503:
 2674 04cb 488B4424 		movq	48(%rsp), %rax
 2674      30
 2675 04d0 488B7808 		movq	8(%rax), %rdi
 2676 04d4 48397C24 		cmpq	%rdi, 72(%rsp)
 2676      48
 2677 04d9 7405     		je	.L522
 2678 04db E8000000 		call	_ZdlPv@PLT
 2678      00
 2679              	.L522:
 2680 04e0 48837C24 		cmpq	$0, 32(%rsp)
 2680      2000
 2681 04e6 7594     		jne	.L576
 2682 04e8 EB9C     		jmp	.L525
 2683              	.L591:
 2684              	.LEHB63:
 2685 04ea E8000000 		call	__cxa_rethrow@PLT
 2685      00
 2686              	.LEHE63:
 2687              	.L535:
 2688 04ef F30F1EFA 		endbr64
 2689 04f3 4889C5   		movq	%rax, %rbp
 2690 04f6 EB09     		jmp	.L526
 2691              	.L538:
 2692 04f8 F30F1EFA 		endbr64
 2693 04fc 4889C5   		movq	%rax, %rbp
 2694 04ff EB0D     		jmp	.L516
 2695              	.L526:
 2696 0501 E8000000 		call	__cxa_end_catch@PLT
 2696      00
 2697 0506 4889EF   		movq	%rbp, %rdi
 2698              	.LEHB64:
 2699 0509 E8000000 		call	_Unwind_Resume@PLT
 2699      00
 2700              	.LEHE64:
 2701              	.L516:
 2702 050e E8000000 		call	__cxa_end_catch@PLT
 2702      00
 2703 0513 4889EF   		movq	%rbp, %rdi
 2704 0516 E8000000 		call	__cxa_begin_catch@PLT
 2704      00
 2705 051b 488B5C24 		movq	32(%rsp), %rbx
 2705      20
 2706              	.L517:
 2707 0520 48395C24 		cmpq	%rbx, 40(%rsp)
 2707      28
 2708 0525 74B9     		je	.L522
 2709 0527 488B7B08 		movq	8(%rbx), %rdi
 2710 052b 488D4318 		leaq	24(%rbx), %rax
 2711 052f 4839C7   		cmpq	%rax, %rdi
 2712 0532 7405     		je	.L523
 2713 0534 E8000000 		call	_ZdlPv@PLT
 2713      00
 2714              	.L523:
 2715 0539 4883C328 		addq	$40, %rbx
 2716 053d EBE1     		jmp	.L517
 2717              		.cfi_endproc
 2718              	.LFE1019:
 2719              		.section	.gcc_except_table
 2720              		.align 4
 2721              	.LLSDA1019:
 2722 0068 FF       		.byte	0xff
 2723 0069 9B       		.byte	0x9b
 2724 006a 51       		.uleb128 .LLSDATT1019-.LLSDATTD1019
 2725              	.LLSDATTD1019:
 2726 006b 01       		.byte	0x1
 2727 006c 45       		.uleb128 .LLSDACSE1019-.LLSDACSB1019
 2728              	.LLSDACSB1019:
 2729 006d CB03     		.uleb128 .LEHB53-.LFB1019
 2730 006f 05       		.uleb128 .LEHE53-.LEHB53
 2731 0070 AD08     		.uleb128 .L537-.LFB1019
 2732 0072 01       		.uleb128 0x1
 2733 0073 8905     		.uleb128 .LEHB54-.LFB1019
 2734 0075 05       		.uleb128 .LEHE54-.LEHB54
 2735 0076 BF08     		.uleb128 .L539-.LFB1019
 2736 0078 01       		.uleb128 0x1
 2737 0079 F206     		.uleb128 .LEHB55-.LFB1019
 2738 007b 05       		.uleb128 .LEHE55-.LEHB55
 2739 007c 00       		.uleb128 0
 2740 007d 00       		.uleb128 0
 2741 007e 9807     		.uleb128 .LEHB56-.LFB1019
 2742 0080 05       		.uleb128 .LEHE56-.LEHB56
 2743 0081 B608     		.uleb128 .L540-.LFB1019
 2744 0083 01       		.uleb128 0x1
 2745 0084 F807     		.uleb128 .LEHB57-.LFB1019
 2746 0086 05       		.uleb128 .LEHE57-.LEHB57
 2747 0087 AD08     		.uleb128 .L537-.LFB1019
 2748 0089 01       		.uleb128 0x1
 2749 008a 8408     		.uleb128 .LEHB58-.LFB1019
 2750 008c 05       		.uleb128 .LEHE58-.LEHB58
 2751 008d BF08     		.uleb128 .L539-.LFB1019
 2752 008f 01       		.uleb128 0x1
 2753 0090 9008     		.uleb128 .LEHB59-.LFB1019
 2754 0092 05       		.uleb128 .LEHE59-.LEHB59
 2755 0093 B608     		.uleb128 .L540-.LFB1019
 2756 0095 01       		.uleb128 0x1
 2757 0096 A808     		.uleb128 .LEHB60-.LFB1019
 2758 0098 05       		.uleb128 .LEHE60-.LEHB60
 2759 0099 00       		.uleb128 0
 2760 009a 00       		.uleb128 0
 2761 009b 8609     		.uleb128 .LEHB61-.LFB1019
 2762 009d 05       		.uleb128 .LEHE61-.LEHB61
 2763 009e EF09     		.uleb128 .L535-.LFB1019
 2764 00a0 00       		.uleb128 0
 2765 00a1 B209     		.uleb128 .LEHB62-.LFB1019
 2766 00a3 05       		.uleb128 .LEHE62-.LEHB62
 2767 00a4 B709     		.uleb128 .L536-.LFB1019
 2768 00a6 03       		.uleb128 0x3
 2769 00a7 EA09     		.uleb128 .LEHB63-.LFB1019
 2770 00a9 05       		.uleb128 .LEHE63-.LEHB63
 2771 00aa F809     		.uleb128 .L538-.LFB1019
 2772 00ac 03       		.uleb128 0x3
 2773 00ad 890A     		.uleb128 .LEHB64-.LFB1019
 2774 00af 05       		.uleb128 .LEHE64-.LEHB64
 2775 00b0 00       		.uleb128 0
 2776 00b1 00       		.uleb128 0
 2777              	.LLSDACSE1019:
 2778 00b2 01       		.byte	0x1
 2779 00b3 00       		.byte	0
 2780 00b4 00       		.byte	0
 2781 00b5 7D       		.byte	0x7d
 2782 00b6 0000     		.align 4
 2783 00b8 00000000 		.long	0
 2784              	
 2785              	.LLSDATT1019:
 2786              		.section	.text._ZNSt6vectorISt4pairIiNSt7__cxx1112basic_stringIcSt11char_traitsIcESaIcEEEESaIS7_EE
 2788              		.section	.text.unlikely
 2789              		.align 2
 2790              	.LCOLDB3:
 2791              		.text
 2792              	.LHOTB3:
 2793              		.align 2
 2794 0584 66662E0F 		.p2align 4
 2794      1F840000 
 2794      00000090 
 2795              		.globl	_ZN8UnitTest20DeferredTestReporter13ReportFailureERKNS_11TestDetailsEPKc
 2797              	_ZN8UnitTest20DeferredTestReporter13ReportFailureERKNS_11TestDetailsEPKc:
 2798              	.LFB959:
 2799              		.cfi_startproc
 2800              		.cfi_personality 0x9b,DW.ref.__gxx_personality_v0
 2801              		.cfi_lsda 0x1b,.LLSDA959
 2802 0590 F30F1EFA 		endbr64
 2803 0594 4157     		pushq	%r15
 2804              		.cfi_def_cfa_offset 16
 2805              		.cfi_offset 15, -16
 2806 0596 4156     		pushq	%r14
 2807              		.cfi_def_cfa_offset 24
 2808              		.cfi_offset 14, -24
 2809 0598 4155     		pushq	%r13
 2810              		.cfi_def_cfa_offset 32
 2811              		.cfi_offset 13, -32
 2812 059a 4154     		pushq	%r12
 2813              		.cfi_def_cfa_offset 40
 2814              		.cfi_offset 12, -40
 2815 059c 55       		pushq	%rbp
 2816              		.cfi_def_cfa_offset 48
 2817              		.cfi_offset 6, -48
 2818 059d 53       		pushq	%rbx
 2819              		.cfi_def_cfa_offset 56
 2820              		.cfi_offset 3, -56
 2821 059e 4883EC78 		subq	$120, %rsp
 2822              		.cfi_def_cfa_offset 176
 2823 05a2 488B5F10 		movq	16(%rdi), %rbx
 2824 05a6 64488B04 		movq	%fs:40, %rax
 2824      25280000 
 2824      00
 2825 05af 48894424 		movq	%rax, 104(%rsp)
 2825      68
 2826 05b4 31C0     		xorl	%eax, %eax
 2827 05b6 4C8D7424 		leaq	48(%rsp), %r14
 2827      30
 2828 05bb C643FC01 		movb	$1, -4(%rbx)
 2829 05bf 4C897424 		movq	%r14, 32(%rsp)
 2829      20
 2830 05c4 4885D2   		testq	%rdx, %rdx
 2831 05c7 0F849302 		je	.L593
 2831      0000
 2832 05cd 4889D7   		movq	%rdx, %rdi
 2833 05d0 4989F5   		movq	%rsi, %r13
 2834 05d3 4989D4   		movq	%rdx, %r12
 2835 05d6 E8000000 		call	strlen@PLT
 2835      00
 2836 05db 48894424 		movq	%rax, 24(%rsp)
 2836      18
 2837 05e0 4989C7   		movq	%rax, %r15
 2838 05e3 4883F80F 		cmpq	$15, %rax
 2839 05e7 0F878301 		ja	.L640
 2839      0000
 2840 05ed 4883F801 		cmpq	$1, %rax
 2841 05f1 0F854901 		jne	.L597
 2841      0000
 2842 05f7 410FB614 		movzbl	(%r12), %edx
 2842      24
 2843 05fc 88542430 		movb	%dl, 48(%rsp)
 2844 0600 4C89F2   		movq	%r14, %rdx
 2845              	.L598:
 2846 0603 48894424 		movq	%rax, 40(%rsp)
 2846      28
 2847 0608 4C8D7C24 		leaq	88(%rsp), %r15
 2847      58
 2848 060d C6040200 		movb	$0, (%rdx,%rax)
 2849 0611 418B4518 		movl	24(%r13), %eax
 2850 0615 488B6C24 		movq	32(%rsp), %rbp
 2850      20
 2851 061a 4C8B6424 		movq	40(%rsp), %r12
 2851      28
 2852 061f 4C897C24 		movq	%r15, 72(%rsp)
 2852      48
 2853 0624 89442440 		movl	%eax, 64(%rsp)
 2854 0628 4889E8   		movq	%rbp, %rax
 2855 062b 4C01E0   		addq	%r12, %rax
 2856 062e 7409     		je	.L599
 2857 0630 4885ED   		testq	%rbp, %rbp
 2858 0633 0F843302 		je	.L641
 2858      0000
 2859              	.L599:
 2860 0639 4C896424 		movq	%r12, 24(%rsp)
 2860      18
 2861 063e 4983FC0F 		cmpq	$15, %r12
 2862 0642 0F876801 		ja	.L642
 2862      0000
 2863 0648 4983FC01 		cmpq	$1, %r12
 2864 064c 0F850601 		jne	.L602
 2864      0000
 2865 0652 0FB64500 		movzbl	0(%rbp), %eax
 2866 0656 88442458 		movb	%al, 88(%rsp)
 2867 065a 4C89F8   		movq	%r15, %rax
 2868              	.L603:
 2869 065d 4C896424 		movq	%r12, 80(%rsp)
 2869      50
 2870 0662 42C60420 		movb	$0, (%rax,%r12)
 2870      00
 2871 0667 488B6BE8 		movq	-24(%rbx), %rbp
 2872 066b 483B6BF0 		cmpq	-16(%rbx), %rbp
 2873 066f 0F847B01 		je	.L604
 2873      0000
 2874 0675 8B442440 		movl	64(%rsp), %eax
 2875 0679 488D7D18 		leaq	24(%rbp), %rdi
 2876 067d 4C8B6424 		movq	80(%rsp), %r12
 2876      50
 2877 0682 48897D08 		movq	%rdi, 8(%rbp)
 2878 0686 894500   		movl	%eax, 0(%rbp)
 2879 0689 488B4424 		movq	72(%rsp), %rax
 2879      48
 2880 068e 4889C1   		movq	%rax, %rcx
 2881 0691 48894424 		movq	%rax, 8(%rsp)
 2881      08
 2882 0696 4C01E1   		addq	%r12, %rcx
 2883 0699 7409     		je	.L605
 2884 069b 4885C0   		testq	%rax, %rax
 2885 069e 0F84D401 		je	.L643
 2885      0000
 2886              	.L605:
 2887 06a4 4C896424 		movq	%r12, 24(%rsp)
 2887      18
 2888 06a9 4983FC0F 		cmpq	$15, %r12
 2889 06ad 0F876D01 		ja	.L644
 2889      0000
 2890 06b3 4983FC01 		cmpq	$1, %r12
 2891 06b7 0F855301 		jne	.L608
 2891      0000
 2892 06bd 488B4424 		movq	8(%rsp), %rax
 2892      08
 2893 06c2 0FB600   		movzbl	(%rax), %eax
 2894 06c5 884518   		movb	%al, 24(%rbp)
 2895              	.L609:
 2896 06c8 4C896510 		movq	%r12, 16(%rbp)
 2897 06cc 42C60427 		movb	$0, (%rdi,%r12)
 2897      00
 2898 06d1 488343E8 		addq	$40, -24(%rbx)
 2898      28
 2899              	.L610:
 2900 06d6 488B7C24 		movq	72(%rsp), %rdi
 2900      48
 2901 06db 4C39FF   		cmpq	%r15, %rdi
 2902 06de 7405     		je	.L611
 2903 06e0 E8000000 		call	_ZdlPv@PLT
 2903      00
 2904              	.L611:
 2905 06e5 488B7C24 		movq	32(%rsp), %rdi
 2905      20
 2906 06ea 4C39F7   		cmpq	%r14, %rdi
 2907 06ed 7405     		je	.L612
 2908 06ef E8000000 		call	_ZdlPv@PLT
 2908      00
 2909              	.L612:
 2910 06f4 4D8B6510 		movq	16(%r13), %r12
 2911 06f8 4C89E7   		movq	%r12, %rdi
 2912 06fb E8000000 		call	strlen@PLT
 2912      00
 2913 0700 4989C0   		movq	%rax, %r8
 2914 0703 488B4424 		movq	104(%rsp), %rax
 2914      68
 2915 0708 64482B04 		subq	%fs:40, %rax
 2915      25280000 
 2915      00
 2916 0711 0F854401 		jne	.L645
 2916      0000
 2917 0717 488B53C8 		movq	-56(%rbx), %rdx
 2918 071b 4883C478 		addq	$120, %rsp
 2919              		.cfi_remember_state
 2920              		.cfi_def_cfa_offset 56
 2921 071f 488D7BC0 		leaq	-64(%rbx), %rdi
 2922 0723 4C89E1   		movq	%r12, %rcx
 2923 0726 5B       		popq	%rbx
 2924              		.cfi_def_cfa_offset 48
 2925 0727 31F6     		xorl	%esi, %esi
 2926 0729 5D       		popq	%rbp
 2927              		.cfi_def_cfa_offset 40
 2928 072a 415C     		popq	%r12
 2929              		.cfi_def_cfa_offset 32
 2930 072c 415D     		popq	%r13
 2931              		.cfi_def_cfa_offset 24
 2932 072e 415E     		popq	%r14
 2933              		.cfi_def_cfa_offset 16
 2934 0730 415F     		popq	%r15
 2935              		.cfi_def_cfa_offset 8
 2936              	.LEHB65:
 2937 0732 E9000000 		jmp	_ZNSt7__cxx1112basic_stringIcSt11char_traitsIcESaIcEE10_M_replaceEmmPKcm@PLT
 2937      00
 2938 0737 660F1F84 		.p2align 4,,10
 2938      00000000 
 2938      00
 2939              		.p2align 3
 2940              	.L597:
 2941              		.cfi_restore_state
 2942 0740 4885C0   		testq	%rax, %rax
 2943 0743 0F853B01 		jne	.L646
 2943      0000
 2944 0749 4C89F2   		movq	%r14, %rdx
 2945 074c E9B2FEFF 		jmp	.L598
 2945      FF
 2946              		.p2align 4,,10
 2947 0751 0F1F8000 		.p2align 3
 2947      000000
 2948              	.L602:
 2949 0758 4D85E4   		testq	%r12, %r12
 2950 075b 0F852B01 		jne	.L647
 2950      0000
 2951 0761 4C89F8   		movq	%r15, %rax
 2952 0764 E9F4FEFF 		jmp	.L603
 2952      FF
 2953 0769 0F1F8000 		.p2align 4,,10
 2953      000000
 2954              		.p2align 3
 2955              	.L640:
 2956 0770 488D6C24 		leaq	32(%rsp), %rbp
 2956      20
 2957 0775 488D7424 		leaq	24(%rsp), %rsi
 2957      18
 2958 077a 31D2     		xorl	%edx, %edx
 2959 077c 4889EF   		movq	%rbp, %rdi
 2960 077f E8000000 		call	_ZNSt7__cxx1112basic_stringIcSt11char_traitsIcESaIcEE9_M_createERmm@PLT
 2960      00
 2961              	.LEHE65:
 2962 0784 48894424 		movq	%rax, 32(%rsp)
 2962      20
 2963 0789 4889C7   		movq	%rax, %rdi
 2964 078c 488B4424 		movq	24(%rsp), %rax
 2964      18
 2965 0791 48894424 		movq	%rax, 48(%rsp)
 2965      30
 2966              	.L596:
 2967 0796 4C89FA   		movq	%r15, %rdx
 2968 0799 4C89E6   		movq	%r12, %rsi
 2969 079c E8000000 		call	memcpy@PLT
 2969      00
 2970 07a1 488B4424 		movq	24(%rsp), %rax
 2970      18
 2971 07a6 488B5424 		movq	32(%rsp), %rdx
 2971      20
 2972 07ab E953FEFF 		jmp	.L598
 2972      FF
 2973              		.p2align 4,,10
 2974              		.p2align 3
 2975              	.L642:
 2976 07b0 488D7424 		leaq	24(%rsp), %rsi
 2976      18
 2977 07b5 488D7C24 		leaq	72(%rsp), %rdi
 2977      48
 2978 07ba 31D2     		xorl	%edx, %edx
 2979              	.LEHB66:
 2980 07bc E8000000 		call	_ZNSt7__cxx1112basic_stringIcSt11char_traitsIcESaIcEE9_M_createERmm@PLT
 2980      00
 2981              	.LEHE66:
 2982 07c1 48894424 		movq	%rax, 72(%rsp)
 2982      48
 2983 07c6 4889C7   		movq	%rax, %rdi
 2984 07c9 488B4424 		movq	24(%rsp), %rax
 2984      18
 2985 07ce 48894424 		movq	%rax, 88(%rsp)
 2985      58
 2986              	.L601:
 2987 07d3 4C89E2   		movq	%r12, %rdx
 2988 07d6 4889EE   		movq	%rbp, %rsi
 2989 07d9 E8000000 		call	memcpy@PLT
 2989      00
 2990 07de 4C8B6424 		movq	24(%rsp), %r12
 2990      18
 2991 07e3 488B4424 		movq	72(%rsp), %rax
 2991      48
 2992 07e8 E970FEFF 		jmp	.L603
 2992      FF
 2993 07ed 0F1F00   		.p2align 4,,10
 2994              		.p2align 3
 2995              	.L604:
 2996 07f0 488D5424 		leaq	64(%rsp), %rdx
 2996      40
 2997 07f5 488D7BE0 		leaq	-32(%rbx), %rdi
 2998 07f9 4889EE   		movq	%rbp, %rsi
 2999              	.LEHB67:
 3000 07fc E8000000 		call	_ZNSt6vectorISt4pairIiNSt7__cxx1112basic_stringIcSt11char_traitsIcESaIcEEEESaIS7_EE17_M_reall
 3000      00
 3001 0801 E9D0FEFF 		jmp	.L610
 3001      FF
 3002 0806 662E0F1F 		.p2align 4,,10
 3002      84000000 
 3002      0000
 3003              		.p2align 3
 3004              	.L608:
 3005 0810 4D85E4   		testq	%r12, %r12
 3006 0813 0F84AFFE 		je	.L609
 3006      FFFF
 3007 0819 EB25     		jmp	.L607
 3008 081b 0F1F4400 		.p2align 4,,10
 3008      00
 3009              		.p2align 3
 3010              	.L644:
 3011 0820 488D7424 		leaq	24(%rsp), %rsi
 3011      18
 3012 0825 488D7D08 		leaq	8(%rbp), %rdi
 3013 0829 31D2     		xorl	%edx, %edx
 3014 082b E8000000 		call	_ZNSt7__cxx1112basic_stringIcSt11char_traitsIcESaIcEE9_M_createERmm@PLT
 3014      00
 3015              	.LEHE67:
 3016 0830 48894508 		movq	%rax, 8(%rbp)
 3017 0834 4889C7   		movq	%rax, %rdi
 3018 0837 488B4424 		movq	24(%rsp), %rax
 3018      18
 3019 083c 48894518 		movq	%rax, 24(%rbp)
 3020              	.L607:
 3021 0840 488B7424 		movq	8(%rsp), %rsi
 3021      08
 3022 0845 4C89E2   		movq	%r12, %rdx
 3023 0848 E8000000 		call	memcpy@PLT
 3023      00
 3024 084d 4C8B6424 		movq	24(%rsp), %r12
 3024      18
 3025 0852 488B7D08 		movq	8(%rbp), %rdi
 3026 0856 E96DFEFF 		jmp	.L609
 3026      FF
 3027              	.L645:
 3028 085b E8000000 		call	__stack_chk_fail@PLT
 3028      00
 3029              	.L593:
 3030 0860 488D3D00 		leaq	.LC1(%rip), %rdi
 3030      000000
 3031              	.LEHB68:
 3032 0867 E8000000 		call	_ZSt19__throw_logic_errorPKc@PLT
 3032      00
 3033              	.LEHE68:
 3034              	.L641:
 3035 086c 488D3D00 		leaq	.LC1(%rip), %rdi
 3035      000000
 3036              	.LEHB69:
 3037 0873 E8000000 		call	_ZSt19__throw_logic_errorPKc@PLT
 3037      00
 3038              	.LEHE69:
 3039              	.L643:
 3040 0878 488D3D00 		leaq	.LC1(%rip), %rdi
 3040      000000
 3041              	.LEHB70:
 3042 087f E8000000 		call	_ZSt19__throw_logic_errorPKc@PLT
 3042      00
 3043              	.LEHE70:
 3044              	.L646:
 3045 0884 4C89F7   		movq	%r14, %rdi
 3046 0887 E90AFFFF 		jmp	.L596
 3046      FF
 3047              	.L647:
 3048 088c 4C89FF   		movq	%r15, %rdi
 3049 088f E93FFFFF 		jmp	.L601
 3049      FF
 3050              	.L622:
 3051 0894 F30F1EFA 		endbr64
 3052 0898 4889C5   		movq	%rax, %rbp
 3053 089b E9000000 		jmp	.L614
 3053      00
 3054              	.L621:
 3055 08a0 F30F1EFA 		endbr64
 3056 08a4 4889C5   		movq	%rax, %rbp
 3057 08a7 E9000000 		jmp	.L616
 3057      00
 3058              		.section	.gcc_except_table
 3059              	.LLSDA959:
 3060 00bc FF       		.byte	0xff
 3061 00bd FF       		.byte	0xff
 3062 00be 01       		.byte	0x1
 3063 00bf 22       		.uleb128 .LLSDACSE959-.LLSDACSB959
 3064              	.LLSDACSB959:
 3065 00c0 A203     		.uleb128 .LEHB65-.LFB959
 3066 00c2 52       		.uleb128 .LEHE65-.LEHB65
 3067 00c3 00       		.uleb128 0
 3068 00c4 00       		.uleb128 0
 3069 00c5 AC04     		.uleb128 .LEHB66-.LFB959
 3070 00c7 05       		.uleb128 .LEHE66-.LEHB66
 3071 00c8 9006     		.uleb128 .L621-.LFB959
 3072 00ca 00       		.uleb128 0
 3073 00cb EC04     		.uleb128 .LEHB67-.LFB959
 3074 00cd 34       		.uleb128 .LEHE67-.LEHB67
 3075 00ce 8406     		.uleb128 .L622-.LFB959
 3076 00d0 00       		.uleb128 0
 3077 00d1 D705     		.uleb128 .LEHB68-.LFB959
 3078 00d3 05       		.uleb128 .LEHE68-.LEHB68
 3079 00d4 00       		.uleb128 0
 3080 00d5 00       		.uleb128 0
 3081 00d6 E305     		.uleb128 .LEHB69-.LFB959
 3082 00d8 05       		.uleb128 .LEHE69-.LEHB69
 3083 00d9 9006     		.uleb128 .L621-.LFB959
 3084 00db 00       		.uleb128 0
 3085 00dc EF05     		.uleb128 .LEHB70-.LFB959
 3086 00de 05       		.uleb128 .LEHE70-.LEHB70
 3087 00df 8406     		.uleb128 .L622-.LFB959
 3088 00e1 00       		.uleb128 0
 3089              	.LLSDACSE959:
 3090              		.text
 3091              		.cfi_endproc
 3092              		.section	.text.unlikely
 3093              		.cfi_startproc
 3094              		.cfi_personality 0x9b,DW.ref.__gxx_personality_v0
 3095              		.cfi_lsda 0x1b,.LLSDAC959
 3097              	_ZN8UnitTest20DeferredTestReporter13ReportFailureERKNS_11TestDetailsEPKc.cold:
 3098              	.LFSB959:
 3099              	.L614:
 3100              		.cfi_def_cfa_offset 176
 3101              		.cfi_offset 3, -56
 3102              		.cfi_offset 6, -48
 3103              		.cfi_offset 12, -40
 3104              		.cfi_offset 13, -32
 3105              		.cfi_offset 14, -24
 3106              		.cfi_offset 15, -16
 3107 0088 488B7C24 		movq	72(%rsp), %rdi
 3107      48
 3108 008d 4C39FF   		cmpq	%r15, %rdi
 3109 0090 7405     		je	.L616
 3110 0092 E8000000 		call	_ZdlPv@PLT
 3110      00
 3111              	.L616:
 3112 0097 488B7C24 		movq	32(%rsp), %rdi
 3112      20
 3113 009c 4C39F7   		cmpq	%r14, %rdi
 3114 009f 7405     		je	.L617
 3115 00a1 E8000000 		call	_ZdlPv@PLT
 3115      00
 3116              	.L617:
 3117 00a6 4889EF   		movq	%rbp, %rdi
 3118              	.LEHB71:
 3119 00a9 E8000000 		call	_Unwind_Resume@PLT
 3119      00
 3120              	.LEHE71:
 3121              		.cfi_endproc
 3122              	.LFE959:
 3123              		.section	.gcc_except_table
 3124              	.LLSDAC959:
 3125 00e2 FF       		.byte	0xff
 3126 00e3 FF       		.byte	0xff
 3127 00e4 01       		.byte	0x1
 3128 00e5 04       		.uleb128 .LLSDACSEC959-.LLSDACSBC959
 3129              	.LLSDACSBC959:
 3130 00e6 21       		.uleb128 .LEHB71-.LCOLDB3
 3131 00e7 05       		.uleb128 .LEHE71-.LEHB71
 3132 00e8 00       		.uleb128 0
 3133 00e9 00       		.uleb128 0
 3134              	.LLSDACSEC959:
 3135              		.section	.text.unlikely
 3136              		.text
 3138              		.section	.text.unlikely
 3140              	.LCOLDE3:
 3141              		.text
 3142              	.LHOTE3:
 3143              		.weak	_ZTSN8UnitTest20DeferredTestReporterE
 3144              		.section	.rodata._ZTSN8UnitTest20DeferredTestReporterE,"aG",@progbits,_ZTSN8UnitTest20DeferredTest
 3145              		.align 32
 3148              	_ZTSN8UnitTest20DeferredTestReporterE:
 3149 0000 4E38556E 		.string	"N8UnitTest20DeferredTestReporterE"
 3149      69745465 
 3149      73743230 
 3149      44656665 
 3149      72726564 
 3150              		.weak	_ZTIN8UnitTest20DeferredTestReporterE
 3151              		.section	.data.rel.ro._ZTIN8UnitTest20DeferredTestReporterE,"awG",@progbits,_ZTIN8UnitTest20Deferr
 3152              		.align 8
 3155              	_ZTIN8UnitTest20DeferredTestReporterE:
 3156 0000 00000000 		.quad	_ZTVN10__cxxabiv120__si_class_type_infoE+16
 3156      00000000 
 3157 0008 00000000 		.quad	_ZTSN8UnitTest20DeferredTestReporterE
 3157      00000000 
 3158 0010 00000000 		.quad	_ZTIN8UnitTest12TestReporterE
 3158      00000000 
 3159              		.weak	_ZTVN8UnitTest20DeferredTestReporterE
 3160              		.section	.data.rel.ro._ZTVN8UnitTest20DeferredTestReporterE,"awG",@progbits,_ZTVN8UnitTest20Deferr
 3161              		.align 8
 3164              	_ZTVN8UnitTest20DeferredTestReporterE:
 3165 0000 00000000 		.quad	0
 3165      00000000 
 3166 0008 00000000 		.quad	_ZTIN8UnitTest20DeferredTestReporterE
 3166      00000000 
 3167 0010 00000000 		.quad	0
 3167      00000000 
 3168 0018 00000000 		.quad	0
 3168      00000000 
 3169 0020 00000000 		.quad	_ZN8UnitTest20DeferredTestReporter15ReportTestStartERKNS_11TestDetailsE
 3169      00000000 
 3170 0028 00000000 		.quad	_ZN8UnitTest20DeferredTestReporter13ReportFailureERKNS_11TestDetailsEPKc
 3170      00000000 
 3171 0030 00000000 		.quad	_ZN8UnitTest20DeferredTestReporter16ReportTestFinishERKNS_11TestDetailsEf
 3171      00000000 
 3172 0038 00000000 		.quad	__cxa_pure_virtual
 3172      00000000 
 3173              		.weak	__cxa_pure_virtual
 3174              		.hidden	DW.ref.__gxx_personality_v0
 3175              		.weak	DW.ref.__gxx_personality_v0
 3176              		.section	.data.rel.local.DW.ref.__gxx_personality_v0,"awG",@progbits,DW.ref.__gxx_personality_v0,c
 3177              		.align 8
 3180              	DW.ref.__gxx_personality_v0:
 3181 0000 00000000 		.quad	__gxx_personality_v0
 3181      00000000 
 3182              		.ident	"GCC: (Ubuntu 11.3.0-1ubuntu1~22.04) 11.3.0"
 3183              		.section	.note.GNU-stack,"",@progbits
 3184              		.section	.note.gnu.property,"a"
 3185              		.align 8
 3186 0000 04000000 		.long	1f - 0f
 3187 0004 10000000 		.long	4f - 1f
 3188 0008 05000000 		.long	5
 3189              	0:
 3190 000c 474E5500 		.string	"GNU"
 3191              	1:
 3192              		.align 8
 3193 0010 020000C0 		.long	0xc0000002
 3194 0014 04000000 		.long	3f - 2f
 3195              	2:
 3196 0018 03000000 		.long	0x3
 3197              	3:
 3198 001c 00000000 		.align 8
 3199              	4: