   1              		.file	"XmlTestReporter.cpp"
   2              		.text
   3              		.section	.text._ZN8UnitTest15XmlTestReporterD0Ev,"axG",@progbits,_ZN8UnitTest15XmlTestReporterD5Ev
   4              		.align 2
   5              		.p2align 4
   6              		.weak	_ZN8UnitTest15XmlTestReporterD0Ev
   8              	_ZN8UnitTest15XmlTestReporterD0Ev:
   9              	.LFB1668:
  10              		.cfi_startproc
  11              		.cfi_personality 0x9b,DW.ref.__gxx_personality_v0
  12              		.cfi_lsda 0x1b,.LLSDA1668
  13 0000 F30F1EFA 		endbr64
  14 0004 488B0500 		movq	_ZTVN8UnitTest20DeferredTestReporterE@GOTPCREL(%rip), %rax
  14      000000
  15 000b 4156     		pushq	%r14
  16              		.cfi_def_cfa_offset 16
  17              		.cfi_offset 14, -16
  18 000d 4989FE   		movq	%rdi, %r14
  19 0010 4155     		pushq	%r13
  20              		.cfi_def_cfa_offset 24
  21              		.cfi_offset 13, -24
  22 0012 4154     		pushq	%r12
  23              		.cfi_def_cfa_offset 32
  24              		.cfi_offset 12, -32
  25 0014 4883C010 		addq	$16, %rax
  26 0018 55       		pushq	%rbp
  27              		.cfi_def_cfa_offset 40
  28              		.cfi_offset 6, -40
  29 0019 53       		pushq	%rbx
  30              		.cfi_def_cfa_offset 48
  31              		.cfi_offset 3, -48
  32 001a 4C8B6F10 		movq	16(%rdi), %r13
  33 001e 4C8B6708 		movq	8(%rdi), %r12
  34 0022 488907   		movq	%rax, (%rdi)
  35 0025 4D39E5   		cmpq	%r12, %r13
  36 0028 0F848F00 		je	.L2
  36      0000
  37 002e 6690     		.p2align 4,,10
  38              		.p2align 3
  39              	.L14:
  40 0030 498B5C24 		movq	104(%r12), %rbx
  40      68
  41 0035 498B6C24 		movq	96(%r12), %rbp
  41      60
  42 003a 4839EB   		cmpq	%rbp, %rbx
  43 003d 7425     		je	.L3
  44 003f 90       		.p2align 4,,10
  45              		.p2align 3
  46              	.L7:
  47 0040 488B7D08 		movq	8(%rbp), %rdi
  48 0044 488D4518 		leaq	24(%rbp), %rax
  49 0048 4839C7   		cmpq	%rax, %rdi
  50 004b 0F849700 		je	.L4
  50      0000
  51 0051 E8000000 		call	_ZdlPv@PLT
  51      00
  52 0056 4883C528 		addq	$40, %rbp
  53 005a 4839DD   		cmpq	%rbx, %rbp
  54 005d 75E1     		jne	.L7
  55              	.L6:
  56 005f 498B6C24 		movq	96(%r12), %rbp
  56      60
  57              	.L3:
  58 0064 4885ED   		testq	%rbp, %rbp
  59 0067 7408     		je	.L8
  60 0069 4889EF   		movq	%rbp, %rdi
  61 006c E8000000 		call	_ZdlPv@PLT
  61      00
  62              	.L8:
  63 0071 498B7C24 		movq	64(%r12), %rdi
  63      40
  64 0076 498D4424 		leaq	80(%r12), %rax
  64      50
  65 007b 4839C7   		cmpq	%rax, %rdi
  66 007e 7405     		je	.L9
  67 0080 E8000000 		call	_ZdlPv@PLT
  67      00
  68              	.L9:
  69 0085 498B7C24 		movq	32(%r12), %rdi
  69      20
  70 008a 498D4424 		leaq	48(%r12), %rax
  70      30
  71 008f 4839C7   		cmpq	%rax, %rdi
  72 0092 7405     		je	.L10
  73 0094 E8000000 		call	_ZdlPv@PLT
  73      00
  74              	.L10:
  75 0099 498B3C24 		movq	(%r12), %rdi
  76 009d 498D4424 		leaq	16(%r12), %rax
  76      10
  77 00a2 4839C7   		cmpq	%rax, %rdi
  78 00a5 7459     		je	.L11
  79 00a7 E8000000 		call	_ZdlPv@PLT
  79      00
  80 00ac 4983EC80 		subq	$-128, %r12
  81 00b0 4D39E5   		cmpq	%r12, %r13
  82 00b3 0F8577FF 		jne	.L14
  82      FFFF
  83              	.L13:
  84 00b9 4D8B6608 		movq	8(%r14), %r12
  85              	.L2:
  86 00bd 4D85E4   		testq	%r12, %r12
  87 00c0 7408     		je	.L15
  88 00c2 4C89E7   		movq	%r12, %rdi
  89 00c5 E8000000 		call	_ZdlPv@PLT
  89      00
  90              	.L15:
  91 00ca 4C89F7   		movq	%r14, %rdi
  92              	.LEHB0:
  93 00cd E8000000 		call	_ZN8UnitTest12TestReporterD2Ev@PLT
  93      00
  94              	.LEHE0:
  95 00d2 5B       		popq	%rbx
  96              		.cfi_remember_state
  97              		.cfi_def_cfa_offset 40
  98 00d3 4C89F7   		movq	%r14, %rdi
  99 00d6 5D       		popq	%rbp
 100              		.cfi_def_cfa_offset 32
 101 00d7 415C     		popq	%r12
 102              		.cfi_def_cfa_offset 24
 103 00d9 415D     		popq	%r13
 104              		.cfi_def_cfa_offset 16
 105 00db 415E     		popq	%r14
 106              		.cfi_def_cfa_offset 8
 107 00dd E9000000 		jmp	_ZdlPv@PLT
 107      00
 108              		.p2align 4,,10
 109 00e2 660F1F44 		.p2align 3
 109      0000
 110              	.L4:
 111              		.cfi_restore_state
 112 00e8 4883C528 		addq	$40, %rbp
 113 00ec 4839EB   		cmpq	%rbp, %rbx
 114 00ef 0F854BFF 		jne	.L7
 114      FFFF
 115 00f5 E965FFFF 		jmp	.L6
 115      FF
 116 00fa 660F1F44 		.p2align 4,,10
 116      0000
 117              		.p2align 3
 118              	.L11:
 119 0100 4983EC80 		subq	$-128, %r12
 120 0104 4D39E5   		cmpq	%r12, %r13
 121 0107 0F8523FF 		jne	.L14
 121      FFFF
 122 010d EBAA     		jmp	.L13
 123              	.L17:
 124 010f F30F1EFA 		endbr64
 125 0113 4889C5   		movq	%rax, %rbp
 126              	.L16:
 127 0116 4C89F7   		movq	%r14, %rdi
 128 0119 E8000000 		call	_ZdlPv@PLT
 128      00
 129 011e 4889EF   		movq	%rbp, %rdi
 130              	.LEHB1:
 131 0121 E8000000 		call	_Unwind_Resume@PLT
 131      00
 132              	.LEHE1:
 133              		.cfi_endproc
 134              	.LFE1668:
 135              		.globl	__gxx_personality_v0
 136              		.section	.gcc_except_table._ZN8UnitTest15XmlTestReporterD0Ev,"aG",@progbits,_ZN8UnitTest15XmlTestR
 137              	.LLSDA1668:
 138 0000 FF       		.byte	0xff
 139 0001 FF       		.byte	0xff
 140 0002 01       		.byte	0x1
 141 0003 0B       		.uleb128 .LLSDACSE1668-.LLSDACSB1668
 142              	.LLSDACSB1668:
 143 0004 CD01     		.uleb128 .LEHB0-.LFB1668
 144 0006 05       		.uleb128 .LEHE0-.LEHB0
 145 0007 8F02     		.uleb128 .L17-.LFB1668
 146 0009 00       		.uleb128 0
 147 000a A102     		.uleb128 .LEHB1-.LFB1668
 148 000c 05       		.uleb128 .LEHE1-.LEHB1
 149 000d 00       		.uleb128 0
 150 000e 00       		.uleb128 0
 151              	.LLSDACSE1668:
 152              		.section	.text._ZN8UnitTest15XmlTestReporterD0Ev,"axG",@progbits,_ZN8UnitTest15XmlTestReporterD5Ev
 154              		.section	.text._ZN8UnitTest15XmlTestReporterD2Ev,"axG",@progbits,_ZN8UnitTest15XmlTestReporterD5Ev
 155              		.align 2
 156              		.p2align 4
 157              		.weak	_ZN8UnitTest15XmlTestReporterD2Ev
 159              	_ZN8UnitTest15XmlTestReporterD2Ev:
 160              	.LFB1666:
 161              		.cfi_startproc
 162 0000 F30F1EFA 		endbr64
 163 0004 488B0500 		movq	_ZTVN8UnitTest20DeferredTestReporterE@GOTPCREL(%rip), %rax
 163      000000
 164 000b 4156     		pushq	%r14
 165              		.cfi_def_cfa_offset 16
 166              		.cfi_offset 14, -16
 167 000d 4989FE   		movq	%rdi, %r14
 168 0010 4155     		pushq	%r13
 169              		.cfi_def_cfa_offset 24
 170              		.cfi_offset 13, -24
 171 0012 4154     		pushq	%r12
 172              		.cfi_def_cfa_offset 32
 173              		.cfi_offset 12, -32
 174 0014 4883C010 		addq	$16, %rax
 175 0018 55       		pushq	%rbp
 176              		.cfi_def_cfa_offset 40
 177              		.cfi_offset 6, -40
 178 0019 53       		pushq	%rbx
 179              		.cfi_def_cfa_offset 48
 180              		.cfi_offset 3, -48
 181 001a 4C8B6F10 		movq	16(%rdi), %r13
 182 001e 4C8B6708 		movq	8(%rdi), %r12
 183 0022 488907   		movq	%rax, (%rdi)
 184 0025 4D39E5   		cmpq	%r12, %r13
 185 0028 0F848F00 		je	.L27
 185      0000
 186 002e 6690     		.p2align 4,,10
 187              		.p2align 3
 188              	.L39:
 189 0030 498B5C24 		movq	104(%r12), %rbx
 189      68
 190 0035 498B6C24 		movq	96(%r12), %rbp
 190      60
 191 003a 4839EB   		cmpq	%rbp, %rbx
 192 003d 7425     		je	.L28
 193 003f 90       		.p2align 4,,10
 194              		.p2align 3
 195              	.L32:
 196 0040 488B7D08 		movq	8(%rbp), %rdi
 197 0044 488D4518 		leaq	24(%rbp), %rax
 198 0048 4839C7   		cmpq	%rax, %rdi
 199 004b 0F848F00 		je	.L29
 199      0000
 200 0051 E8000000 		call	_ZdlPv@PLT
 200      00
 201 0056 4883C528 		addq	$40, %rbp
 202 005a 4839DD   		cmpq	%rbx, %rbp
 203 005d 75E1     		jne	.L32
 204              	.L31:
 205 005f 498B6C24 		movq	96(%r12), %rbp
 205      60
 206              	.L28:
 207 0064 4885ED   		testq	%rbp, %rbp
 208 0067 7408     		je	.L33
 209 0069 4889EF   		movq	%rbp, %rdi
 210 006c E8000000 		call	_ZdlPv@PLT
 210      00
 211              	.L33:
 212 0071 498B7C24 		movq	64(%r12), %rdi
 212      40
 213 0076 498D4424 		leaq	80(%r12), %rax
 213      50
 214 007b 4839C7   		cmpq	%rax, %rdi
 215 007e 7405     		je	.L34
 216 0080 E8000000 		call	_ZdlPv@PLT
 216      00
 217              	.L34:
 218 0085 498B7C24 		movq	32(%r12), %rdi
 218      20
 219 008a 498D4424 		leaq	48(%r12), %rax
 219      30
 220 008f 4839C7   		cmpq	%rax, %rdi
 221 0092 7405     		je	.L35
 222 0094 E8000000 		call	_ZdlPv@PLT
 222      00
 223              	.L35:
 224 0099 498B3C24 		movq	(%r12), %rdi
 225 009d 498D4424 		leaq	16(%r12), %rax
 225      10
 226 00a2 4839C7   		cmpq	%rax, %rdi
 227 00a5 7451     		je	.L36
 228 00a7 E8000000 		call	_ZdlPv@PLT
 228      00
 229 00ac 4983EC80 		subq	$-128, %r12
 230 00b0 4D39E5   		cmpq	%r12, %r13
 231 00b3 0F8577FF 		jne	.L39
 231      FFFF
 232              	.L38:
 233 00b9 4D8B6608 		movq	8(%r14), %r12
 234              	.L27:
 235 00bd 4D85E4   		testq	%r12, %r12
 236 00c0 7408     		je	.L40
 237 00c2 4C89E7   		movq	%r12, %rdi
 238 00c5 E8000000 		call	_ZdlPv@PLT
 238      00
 239              	.L40:
 240 00ca 5B       		popq	%rbx
 241              		.cfi_remember_state
 242              		.cfi_def_cfa_offset 40
 243 00cb 4C89F7   		movq	%r14, %rdi
 244 00ce 5D       		popq	%rbp
 245              		.cfi_def_cfa_offset 32
 246 00cf 415C     		popq	%r12
 247              		.cfi_def_cfa_offset 24
 248 00d1 415D     		popq	%r13
 249              		.cfi_def_cfa_offset 16
 250 00d3 415E     		popq	%r14
 251              		.cfi_def_cfa_offset 8
 252 00d5 E9000000 		jmp	_ZN8UnitTest12TestReporterD2Ev@PLT
 252      00
 253 00da 660F1F44 		.p2align 4,,10
 253      0000
 254              		.p2align 3
 255              	.L29:
 256              		.cfi_restore_state
 257 00e0 4883C528 		addq	$40, %rbp
 258 00e4 4839EB   		cmpq	%rbp, %rbx
 259 00e7 0F8553FF 		jne	.L32
 259      FFFF
 260 00ed E96DFFFF 		jmp	.L31
 260      FF
 261              		.p2align 4,,10
 262 00f2 660F1F44 		.p2align 3
 262      0000
 263              	.L36:
 264 00f8 4983EC80 		subq	$-128, %r12
 265 00fc 4D39E5   		cmpq	%r12, %r13
 266 00ff 0F852BFF 		jne	.L39
 266      FFFF
 267 0105 EBB2     		jmp	.L38
 268              		.cfi_endproc
 269              	.LFE1666:
 271              		.weak	_ZN8UnitTest15XmlTestReporterD1Ev
 272              		.set	_ZN8UnitTest15XmlTestReporterD1Ev,_ZN8UnitTest15XmlTestReporterD2Ev
 273              		.text
 274              		.align 2
 275              		.p2align 4
 276              		.globl	_ZN8UnitTest15XmlTestReporterC2ERSo
 278              	_ZN8UnitTest15XmlTestReporterC2ERSo:
 279              	.LFB1431:
 280              		.cfi_startproc
 281 0000 F30F1EFA 		endbr64
 282 0004 488B0500 		movq	_ZTVN8UnitTest15XmlTestReporterE@GOTPCREL(%rip), %rax
 282      000000
 283 000b 48C74708 		movq	$0, 8(%rdi)
 283      00000000 
 284 0013 48C74710 		movq	$0, 16(%rdi)
 284      00000000 
 285 001b 4883C010 		addq	$16, %rax
 286 001f 48C74718 		movq	$0, 24(%rdi)
 286      00000000 
 287 0027 488907   		movq	%rax, (%rdi)
 288 002a 48897720 		movq	%rsi, 32(%rdi)
 289 002e C3       		ret
 290              		.cfi_endproc
 291              	.LFE1431:
 293              		.globl	_ZN8UnitTest15XmlTestReporterC1ERSo
 294              		.set	_ZN8UnitTest15XmlTestReporterC1ERSo,_ZN8UnitTest15XmlTestReporterC2ERSo
 295              		.section	.rodata.str1.1,"aMS",@progbits,1
 296              	.LC0:
 297 0000 3C3F786D 		.string	"<?xml version=\"1.0\""
 297      6C207665 
 297      7273696F 
 297      6E3D2231 
 297      2E302200 
 298              	.LC1:
 299 0014 20656E63 		.string	" encoding=\""
 299      6F64696E 
 299      673D2200 
 300              	.LC2:
 301 0020 2200     		.string	"\""
 302              	.LC3:
 303 0022 3F3E00   		.string	"?>"
 304              		.text
 305 002f 90       		.align 2
 306              		.p2align 4
 307              		.globl	_ZN8UnitTest15XmlTestReporter13AddXmlElementERSoPKc
 309              	_ZN8UnitTest15XmlTestReporter13AddXmlElementERSoPKc:
 310              	.LFB1434:
 311              		.cfi_startproc
 312 0030 F30F1EFA 		endbr64
 313 0034 4154     		pushq	%r12
 314              		.cfi_def_cfa_offset 16
 315              		.cfi_offset 12, -16
 316 0036 4989D4   		movq	%rdx, %r12
 317 0039 BA130000 		movl	$19, %edx
 317      00
 318 003e 55       		pushq	%rbp
 319              		.cfi_def_cfa_offset 24
 320              		.cfi_offset 6, -24
 321 003f 4889F5   		movq	%rsi, %rbp
 322 0042 488D3500 		leaq	.LC0(%rip), %rsi
 322      000000
 323 0049 4889EF   		movq	%rbp, %rdi
 324 004c 4883EC08 		subq	$8, %rsp
 325              		.cfi_def_cfa_offset 32
 326 0050 E8000000 		call	_ZSt16__ostream_insertIcSt11char_traitsIcEERSt13basic_ostreamIT_T0_ES6_PKS3_l@PLT
 326      00
 327 0055 4D85E4   		testq	%r12, %r12
 328 0058 743E     		je	.L50
 329 005a BA0B0000 		movl	$11, %edx
 329      00
 330 005f 488D3500 		leaq	.LC1(%rip), %rsi
 330      000000
 331 0066 4889EF   		movq	%rbp, %rdi
 332 0069 E8000000 		call	_ZSt16__ostream_insertIcSt11char_traitsIcEERSt13basic_ostreamIT_T0_ES6_PKS3_l@PLT
 332      00
 333 006e 4C89E7   		movq	%r12, %rdi
 334 0071 E8000000 		call	strlen@PLT
 334      00
 335 0076 4C89E6   		movq	%r12, %rsi
 336 0079 4889EF   		movq	%rbp, %rdi
 337 007c 4889C2   		movq	%rax, %rdx
 338 007f E8000000 		call	_ZSt16__ostream_insertIcSt11char_traitsIcEERSt13basic_ostreamIT_T0_ES6_PKS3_l@PLT
 338      00
 339 0084 BA010000 		movl	$1, %edx
 339      00
 340 0089 488D3500 		leaq	.LC2(%rip), %rsi
 340      000000
 341 0090 4889EF   		movq	%rbp, %rdi
 342 0093 E8000000 		call	_ZSt16__ostream_insertIcSt11char_traitsIcEERSt13basic_ostreamIT_T0_ES6_PKS3_l@PLT
 342      00
 343              	.L50:
 344 0098 4883C408 		addq	$8, %rsp
 345              		.cfi_def_cfa_offset 24
 346 009c 4889EF   		movq	%rbp, %rdi
 347 009f BA020000 		movl	$2, %edx
 347      00
 348 00a4 5D       		popq	%rbp
 349              		.cfi_def_cfa_offset 16
 350 00a5 488D3500 		leaq	.LC3(%rip), %rsi
 350      000000
 351 00ac 415C     		popq	%r12
 352              		.cfi_def_cfa_offset 8
 353 00ae E9000000 		jmp	_ZSt16__ostream_insertIcSt11char_traitsIcEERSt13basic_ostreamIT_T0_ES6_PKS3_l@PLT
 353      00
 354              		.cfi_endproc
 355              	.LFE1434:
 357              		.section	.rodata.str1.1
 358              	.LC4:
 359 0025 3C756E69 		.string	"<unittest-results"
 359      74746573 
 359      742D7265 
 359      73756C74 
 359      7300
 360              	.LC5:
 361 0037 20746573 		.string	" tests=\""
 361      74733D22 
 361      00
 362              	.LC6:
 363 0040 20666169 		.string	" failedtests=\""
 363      6C656474 
 363      65737473 
 363      3D2200
 364              	.LC7:
 365 004f 20666169 		.string	" failures=\""
 365      6C757265 
 365      733D2200 
 366              	.LC8:
 367 005b 2074696D 		.string	" time=\""
 367      653D2200 
 368              	.LC9:
 369 0063 3E00     		.string	">"
 370              		.text
 371 00b3 90       		.align 2
 372 00b4 66662E0F 		.p2align 4
 372      1F840000 
 372      00000090 
 373              		.globl	_ZN8UnitTest15XmlTestReporter12BeginResultsERSoiiif
 375              	_ZN8UnitTest15XmlTestReporter12BeginResultsERSoiiif:
 376              	.LFB1435:
 377              		.cfi_startproc
 378 00c0 F30F1EFA 		endbr64
 379 00c4 4156     		pushq	%r14
 380              		.cfi_def_cfa_offset 16
 381              		.cfi_offset 14, -16
 382 00c6 4189CE   		movl	%ecx, %r14d
 383 00c9 4155     		pushq	%r13
 384              		.cfi_def_cfa_offset 24
 385              		.cfi_offset 13, -24
 386 00cb 4589C5   		movl	%r8d, %r13d
 387 00ce 4154     		pushq	%r12
 388              		.cfi_def_cfa_offset 32
 389              		.cfi_offset 12, -32
 390 00d0 4189D4   		movl	%edx, %r12d
 391 00d3 BA110000 		movl	$17, %edx
 391      00
 392 00d8 55       		pushq	%rbp
 393              		.cfi_def_cfa_offset 40
 394              		.cfi_offset 6, -40
 395 00d9 4889F5   		movq	%rsi, %rbp
 396 00dc 488D3500 		leaq	.LC4(%rip), %rsi
 396      000000
 397 00e3 4889EF   		movq	%rbp, %rdi
 398 00e6 4883EC18 		subq	$24, %rsp
 399              		.cfi_def_cfa_offset 64
 400 00ea F30F1144 		movss	%xmm0, 12(%rsp)
 400      240C
 401 00f0 E8000000 		call	_ZSt16__ostream_insertIcSt11char_traitsIcEERSt13basic_ostreamIT_T0_ES6_PKS3_l@PLT
 401      00
 402 00f5 BA080000 		movl	$8, %edx
 402      00
 403 00fa 4889EF   		movq	%rbp, %rdi
 404 00fd 488D3500 		leaq	.LC5(%rip), %rsi
 404      000000
 405 0104 E8000000 		call	_ZSt16__ostream_insertIcSt11char_traitsIcEERSt13basic_ostreamIT_T0_ES6_PKS3_l@PLT
 405      00
 406 0109 4489E6   		movl	%r12d, %esi
 407 010c 4889EF   		movq	%rbp, %rdi
 408 010f 4C8D2500 		leaq	.LC2(%rip), %r12
 408      000000
 409 0116 E8000000 		call	_ZNSolsEi@PLT
 409      00
 410 011b 4C89E6   		movq	%r12, %rsi
 411 011e BA010000 		movl	$1, %edx
 411      00
 412 0123 4889C5   		movq	%rax, %rbp
 413 0126 4889C7   		movq	%rax, %rdi
 414 0129 E8000000 		call	_ZSt16__ostream_insertIcSt11char_traitsIcEERSt13basic_ostreamIT_T0_ES6_PKS3_l@PLT
 414      00
 415 012e BA0E0000 		movl	$14, %edx
 415      00
 416 0133 4889EF   		movq	%rbp, %rdi
 417 0136 488D3500 		leaq	.LC6(%rip), %rsi
 417      000000
 418 013d E8000000 		call	_ZSt16__ostream_insertIcSt11char_traitsIcEERSt13basic_ostreamIT_T0_ES6_PKS3_l@PLT
 418      00
 419 0142 4489F6   		movl	%r14d, %esi
 420 0145 4889EF   		movq	%rbp, %rdi
 421 0148 E8000000 		call	_ZNSolsEi@PLT
 421      00
 422 014d 4C89E6   		movq	%r12, %rsi
 423 0150 BA010000 		movl	$1, %edx
 423      00
 424 0155 4889C5   		movq	%rax, %rbp
 425 0158 4889C7   		movq	%rax, %rdi
 426 015b E8000000 		call	_ZSt16__ostream_insertIcSt11char_traitsIcEERSt13basic_ostreamIT_T0_ES6_PKS3_l@PLT
 426      00
 427 0160 BA0B0000 		movl	$11, %edx
 427      00
 428 0165 4889EF   		movq	%rbp, %rdi
 429 0168 488D3500 		leaq	.LC7(%rip), %rsi
 429      000000
 430 016f E8000000 		call	_ZSt16__ostream_insertIcSt11char_traitsIcEERSt13basic_ostreamIT_T0_ES6_PKS3_l@PLT
 430      00
 431 0174 4489EE   		movl	%r13d, %esi
 432 0177 4889EF   		movq	%rbp, %rdi
 433 017a E8000000 		call	_ZNSolsEi@PLT
 433      00
 434 017f 4C89E6   		movq	%r12, %rsi
 435 0182 BA010000 		movl	$1, %edx
 435      00
 436 0187 4889C5   		movq	%rax, %rbp
 437 018a 4889C7   		movq	%rax, %rdi
 438 018d E8000000 		call	_ZSt16__ostream_insertIcSt11char_traitsIcEERSt13basic_ostreamIT_T0_ES6_PKS3_l@PLT
 438      00
 439 0192 BA070000 		movl	$7, %edx
 439      00
 440 0197 488D3500 		leaq	.LC8(%rip), %rsi
 440      000000
 441 019e 4889EF   		movq	%rbp, %rdi
 442 01a1 E8000000 		call	_ZSt16__ostream_insertIcSt11char_traitsIcEERSt13basic_ostreamIT_T0_ES6_PKS3_l@PLT
 442      00
 443 01a6 F30F1044 		movss	12(%rsp), %xmm0
 443      240C
 444 01ac 4889EF   		movq	%rbp, %rdi
 445 01af F30F5AC0 		cvtss2sd	%xmm0, %xmm0
 446 01b3 E8000000 		call	_ZNSo9_M_insertIdEERSoT_@PLT
 446      00
 447 01b8 4C89E6   		movq	%r12, %rsi
 448 01bb BA010000 		movl	$1, %edx
 448      00
 449 01c0 4889C7   		movq	%rax, %rdi
 450 01c3 4889C5   		movq	%rax, %rbp
 451 01c6 E8000000 		call	_ZSt16__ostream_insertIcSt11char_traitsIcEERSt13basic_ostreamIT_T0_ES6_PKS3_l@PLT
 451      00
 452 01cb 4883C418 		addq	$24, %rsp
 453              		.cfi_def_cfa_offset 40
 454 01cf 4889EF   		movq	%rbp, %rdi
 455 01d2 BA010000 		movl	$1, %edx
 455      00
 456 01d7 5D       		popq	%rbp
 457              		.cfi_def_cfa_offset 32
 458 01d8 488D3500 		leaq	.LC9(%rip), %rsi
 458      000000
 459 01df 415C     		popq	%r12
 460              		.cfi_def_cfa_offset 24
 461 01e1 415D     		popq	%r13
 462              		.cfi_def_cfa_offset 16
 463 01e3 415E     		popq	%r14
 464              		.cfi_def_cfa_offset 8
 465 01e5 E9000000 		jmp	_ZSt16__ostream_insertIcSt11char_traitsIcEERSt13basic_ostreamIT_T0_ES6_PKS3_l@PLT
 465      00
 466              		.cfi_endproc
 467              	.LFE1435:
 469              		.section	.rodata.str1.1
 470              	.LC10:
 471 0065 3C2F756E 		.string	"</unittest-results>"
 471      69747465 
 471      73742D72 
 471      6573756C 
 471      74733E00 
 472              		.text
 473              		.align 2
 474 01ea 660F1F44 		.p2align 4
 474      0000
 475              		.globl	_ZN8UnitTest15XmlTestReporter10EndResultsERSo
 477              	_ZN8UnitTest15XmlTestReporter10EndResultsERSo:
 478              	.LFB1436:
 479              		.cfi_startproc
 480 01f0 F30F1EFA 		endbr64
 481 01f4 4889F7   		movq	%rsi, %rdi
 482 01f7 BA130000 		movl	$19, %edx
 482      00
 483 01fc 488D3500 		leaq	.LC10(%rip), %rsi
 483      000000
 484 0203 E9000000 		jmp	_ZSt16__ostream_insertIcSt11char_traitsIcEERSt13basic_ostreamIT_T0_ES6_PKS3_l@PLT
 484      00
 485              		.cfi_endproc
 486              	.LFE1436:
 488              		.section	.rodata.str1.1
 489              	.LC11:
 490 0079 3C746573 		.string	"<test"
 490      7400
 491              	.LC12:
 492 007f 20737569 		.string	" suite=\""
 492      74653D22 
 492      00
 493              	.LC13:
 494 0088 206E616D 		.string	" name=\""
 494      653D2200 
 495              		.text
 496              		.align 2
 497 0208 0F1F8400 		.p2align 4
 497      00000000 
 498              		.globl	_ZN8UnitTest15XmlTestReporter9BeginTestERSoRKNS_18DeferredTestResultE
 500              	_ZN8UnitTest15XmlTestReporter9BeginTestERSoRKNS_18DeferredTestResultE:
 501              	.LFB1437:
 502              		.cfi_startproc
 503 0210 F30F1EFA 		endbr64
 504 0214 4154     		pushq	%r12
 505              		.cfi_def_cfa_offset 16
 506              		.cfi_offset 12, -16
 507 0216 4C8D2500 		leaq	.LC2(%rip), %r12
 507      000000
 508 021d 55       		pushq	%rbp
 509              		.cfi_def_cfa_offset 24
 510              		.cfi_offset 6, -24
 511 021e 4889F5   		movq	%rsi, %rbp
 512 0221 488D3500 		leaq	.LC11(%rip), %rsi
 512      000000
 513 0228 53       		pushq	%rbx
 514              		.cfi_def_cfa_offset 32
 515              		.cfi_offset 3, -32
 516 0229 4889EF   		movq	%rbp, %rdi
 517 022c 4889D3   		movq	%rdx, %rbx
 518 022f BA050000 		movl	$5, %edx
 518      00
 519 0234 E8000000 		call	_ZSt16__ostream_insertIcSt11char_traitsIcEERSt13basic_ostreamIT_T0_ES6_PKS3_l@PLT
 519      00
 520 0239 4889EF   		movq	%rbp, %rdi
 521 023c BA080000 		movl	$8, %edx
 521      00
 522 0241 488D3500 		leaq	.LC12(%rip), %rsi
 522      000000
 523 0248 E8000000 		call	_ZSt16__ostream_insertIcSt11char_traitsIcEERSt13basic_ostreamIT_T0_ES6_PKS3_l@PLT
 523      00
 524 024d 488B5308 		movq	8(%rbx), %rdx
 525 0251 488B33   		movq	(%rbx), %rsi
 526 0254 4889EF   		movq	%rbp, %rdi
 527 0257 E8000000 		call	_ZSt16__ostream_insertIcSt11char_traitsIcEERSt13basic_ostreamIT_T0_ES6_PKS3_l@PLT
 527      00
 528 025c 4C89E6   		movq	%r12, %rsi
 529 025f BA010000 		movl	$1, %edx
 529      00
 530 0264 4889C5   		movq	%rax, %rbp
 531 0267 4889C7   		movq	%rax, %rdi
 532 026a E8000000 		call	_ZSt16__ostream_insertIcSt11char_traitsIcEERSt13basic_ostreamIT_T0_ES6_PKS3_l@PLT
 532      00
 533 026f 4889EF   		movq	%rbp, %rdi
 534 0272 BA070000 		movl	$7, %edx
 534      00
 535 0277 488D3500 		leaq	.LC13(%rip), %rsi
 535      000000
 536 027e E8000000 		call	_ZSt16__ostream_insertIcSt11char_traitsIcEERSt13basic_ostreamIT_T0_ES6_PKS3_l@PLT
 536      00
 537 0283 488B5328 		movq	40(%rbx), %rdx
 538 0287 488B7320 		movq	32(%rbx), %rsi
 539 028b 4889EF   		movq	%rbp, %rdi
 540 028e E8000000 		call	_ZSt16__ostream_insertIcSt11char_traitsIcEERSt13basic_ostreamIT_T0_ES6_PKS3_l@PLT
 540      00
 541 0293 4C89E6   		movq	%r12, %rsi
 542 0296 BA010000 		movl	$1, %edx
 542      00
 543 029b 4889C5   		movq	%rax, %rbp
 544 029e 4889C7   		movq	%rax, %rdi
 545 02a1 E8000000 		call	_ZSt16__ostream_insertIcSt11char_traitsIcEERSt13basic_ostreamIT_T0_ES6_PKS3_l@PLT
 545      00
 546 02a6 BA070000 		movl	$7, %edx
 546      00
 547 02ab 488D3500 		leaq	.LC8(%rip), %rsi
 547      000000
 548 02b2 4889EF   		movq	%rbp, %rdi
 549 02b5 E8000000 		call	_ZSt16__ostream_insertIcSt11char_traitsIcEERSt13basic_ostreamIT_T0_ES6_PKS3_l@PLT
 549      00
 550 02ba 4889EF   		movq	%rbp, %rdi
 551 02bd 660FEFC0 		pxor	%xmm0, %xmm0
 552 02c1 F30F5A43 		cvtss2sd	120(%rbx), %xmm0
 552      78
 553 02c6 E8000000 		call	_ZNSo9_M_insertIdEERSoT_@PLT
 553      00
 554 02cb 5B       		popq	%rbx
 555              		.cfi_def_cfa_offset 24
 556 02cc 5D       		popq	%rbp
 557              		.cfi_def_cfa_offset 16
 558 02cd 4C89E6   		movq	%r12, %rsi
 559 02d0 4889C7   		movq	%rax, %rdi
 560 02d3 BA010000 		movl	$1, %edx
 560      00
 561 02d8 415C     		popq	%r12
 562              		.cfi_def_cfa_offset 8
 563 02da E9000000 		jmp	_ZSt16__ostream_insertIcSt11char_traitsIcEERSt13basic_ostreamIT_T0_ES6_PKS3_l@PLT
 563      00
 564              		.cfi_endproc
 565              	.LFE1437:
 567              		.section	.rodata.str1.1
 568              	.LC14:
 569 0090 3C2F7465 		.string	"</test>"
 569      73743E00 
 570              	.LC15:
 571 0098 2F3E00   		.string	"/>"
 572              		.text
 573 02df 90       		.align 2
 574              		.p2align 4
 575              		.globl	_ZN8UnitTest15XmlTestReporter7EndTestERSoRKNS_18DeferredTestResultE
 577              	_ZN8UnitTest15XmlTestReporter7EndTestERSoRKNS_18DeferredTestResultE:
 578              	.LFB1438:
 579              		.cfi_startproc
 580 02e0 F30F1EFA 		endbr64
 581 02e4 807A7C00 		cmpb	$0, 124(%rdx)
 582 02e8 4889F7   		movq	%rsi, %rdi
 583 02eb 7413     		je	.L61
 584 02ed BA070000 		movl	$7, %edx
 584      00
 585 02f2 488D3500 		leaq	.LC14(%rip), %rsi
 585      000000
 586 02f9 E9000000 		jmp	_ZSt16__ostream_insertIcSt11char_traitsIcEERSt13basic_ostreamIT_T0_ES6_PKS3_l@PLT
 586      00
 587 02fe 6690     		.p2align 4,,10
 588              		.p2align 3
 589              	.L61:
 590 0300 BA020000 		movl	$2, %edx
 590      00
 591 0305 488D3500 		leaq	.LC15(%rip), %rsi
 591      000000
 592 030c E9000000 		jmp	_ZSt16__ostream_insertIcSt11char_traitsIcEERSt13basic_ostreamIT_T0_ES6_PKS3_l@PLT
 592      00
 593              		.cfi_endproc
 594              	.LFE1438:
 596              		.section	.rodata.str1.8,"aMS",@progbits,1
 597              		.align 8
 598              	.LC16:
 599 0000 62617369 		.string	"basic_string::_M_construct null not valid"
 599      635F7374 
 599      72696E67 
 599      3A3A5F4D 
 599      5F636F6E 
 600              		.section	.rodata.str1.1
 601              	.LC17:
 602 009b 62617369 		.string	"basic_string::replace"
 602      635F7374 
 602      72696E67 
 602      3A3A7265 
 602      706C6163 
 603              		.section	.rodata.str1.8
 604 002a 00000000 		.align 8
 604      0000
 605              	.LC18:
 606 0030 25733A20 		.string	"%s: __pos (which is %zu) > this->size() (which is %zu)"
 606      5F5F706F 
 606      73202877 
 606      68696368 
 606      20697320 
 607              		.section	.rodata.str1.1
 608              	.LC19:
 609 00b1 2800     		.string	"("
 610              	.LC20:
 611 00b3 29203A20 		.string	") : "
 611      00
 612              	.LC21:
 613 00b8 3C666169 		.string	"<failure"
 613      6C757265 
 613      00
 614              	.LC22:
 615 00c1 206D6573 		.string	" message=\""
 615      73616765 
 615      3D2200
 616              		.section	.text.unlikely,"ax",@progbits
 617              		.align 2
 618              	.LCOLDB23:
 619              		.text
 620              	.LHOTB23:
 621 0311 90       		.align 2
 622 0312 66662E0F 		.p2align 4
 622      1F840000 
 622      0000000F 
 622      1F00
 623              		.globl	_ZN8UnitTest15XmlTestReporter10AddFailureERSoRKNS_18DeferredTestResultE
 625              	_ZN8UnitTest15XmlTestReporter10AddFailureERSoRKNS_18DeferredTestResultE:
 626              	.LFB1439:
 627              		.cfi_startproc
 628              		.cfi_personality 0x9b,DW.ref.__gxx_personality_v0
 629              		.cfi_lsda 0x1b,.LLSDA1439
 630 0320 F30F1EFA 		endbr64
 631 0324 4157     		pushq	%r15
 632              		.cfi_def_cfa_offset 16
 633              		.cfi_offset 15, -16
 634 0326 4989F7   		movq	%rsi, %r15
 635 0329 488D3500 		leaq	.LC9(%rip), %rsi
 635      000000
 636 0330 4156     		pushq	%r14
 637              		.cfi_def_cfa_offset 24
 638              		.cfi_offset 14, -24
 639 0332 4C89FF   		movq	%r15, %rdi
 640 0335 4989D6   		movq	%rdx, %r14
 641 0338 BA010000 		movl	$1, %edx
 641      00
 642 033d 4155     		pushq	%r13
 643              		.cfi_def_cfa_offset 32
 644              		.cfi_offset 13, -32
 645 033f 4154     		pushq	%r12
 646              		.cfi_def_cfa_offset 40
 647              		.cfi_offset 12, -40
 648 0341 55       		pushq	%rbp
 649              		.cfi_def_cfa_offset 48
 650              		.cfi_offset 6, -48
 651 0342 53       		pushq	%rbx
 652              		.cfi_def_cfa_offset 56
 653              		.cfi_offset 3, -56
 654 0343 4881EC18 		subq	$536, %rsp
 654      020000
 655              		.cfi_def_cfa_offset 592
 656 034a 64488B04 		movq	%fs:40, %rax
 656      25280000 
 656      00
 657 0353 48898424 		movq	%rax, 520(%rsp)
 657      08020000 
 658 035b 31C0     		xorl	%eax, %eax
 659              	.LEHB2:
 660 035d E8000000 		call	_ZSt16__ostream_insertIcSt11char_traitsIcEERSt13basic_ostreamIT_T0_ES6_PKS3_l@PLT
 660      00
 661              	.LEHE2:
 662 0362 488D4424 		leaq	96(%rsp), %rax
 662      60
 663 0367 498B5E60 		movq	96(%r14), %rbx
 664 036b 48894424 		movq	%rax, 8(%rsp)
 664      08
 665 0370 493B5E68 		cmpq	104(%r14), %rbx
 666 0374 0F84FC06 		je	.L62
 666      0000
 667 037a 660F1F44 		.p2align 4,,10
 667      0000
 668              		.p2align 3
 669              	.L123:
 670 0380 488B4424 		movq	8(%rsp), %rax
 670      08
 671 0385 4C8B6310 		movq	16(%rbx), %r12
 672 0389 48894424 		movq	%rax, 80(%rsp)
 672      50
 673 038e 4C8B6B08 		movq	8(%rbx), %r13
 674 0392 4C89E8   		movq	%r13, %rax
 675 0395 4C01E0   		addq	%r12, %rax
 676 0398 7409     		je	.L64
 677 039a 4D85ED   		testq	%r13, %r13
 678 039d 0F840708 		je	.L170
 678      0000
 679              	.L64:
 680 03a3 4C896424 		movq	%r12, 72(%rsp)
 680      48
 681 03a8 4983FC0F 		cmpq	$15, %r12
 682 03ac 0F872E07 		ja	.L171
 682      0000
 683 03b2 4983FC01 		cmpq	$1, %r12
 684 03b6 0F850407 		jne	.L67
 684      0000
 685 03bc 410FB645 		movzbl	0(%r13), %eax
 685      00
 686 03c1 488D6C24 		leaq	80(%rsp), %rbp
 686      50
 687 03c6 88442460 		movb	%al, 96(%rsp)
 688 03ca 488B4424 		movq	8(%rsp), %rax
 688      08
 689              	.L68:
 690 03cf 4C896424 		movq	%r12, 88(%rsp)
 690      58
 691 03d4 31D2     		xorl	%edx, %edx
 692 03d6 BE260000 		movl	$38, %esi
 692      00
 693 03db 4889EF   		movq	%rbp, %rdi
 694 03de 42C60420 		movb	$0, (%rax,%r12)
 694      00
 695 03e3 4C8DAC24 		leaq	160(%rsp), %r13
 695      A0000000 
 696 03eb 4C89AC24 		movq	%r13, 144(%rsp)
 696      90000000 
 697 03f3 C78424A0 		movl	$1886216486, 160(%rsp)
 697      00000026 
 697      616D70
 698 03fe C68424A4 		movb	$59, 164(%rsp)
 698      0000003B 
 699 0406 48C78424 		movq	$5, 152(%rsp)
 699      98000000 
 699      05000000 
 700 0412 C68424A5 		movb	$0, 165(%rsp)
 700      00000000 
 701              	.LEHB3:
 702 041a E8000000 		call	_ZNKSt7__cxx1112basic_stringIcSt11char_traitsIcESaIcEE4findEcm@PLT
 702      00
 703 041f EB50     		jmp	.L155
 704              		.p2align 4,,10
 705 0421 0F1F8000 		.p2align 3
 705      000000
 706              	.L71:
 707 0428 488B4C24 		movq	88(%rsp), %rcx
 707      58
 708 042d B8010000 		movl	$1, %eax
 708      00
 709 0432 4C8B8424 		movq	152(%rsp), %r8
 709      98000000 
 710 043a 4889CA   		movq	%rcx, %rdx
 711 043d 4C29E2   		subq	%r12, %rdx
 712 0440 4883FA00 		cmpq	$0, %rdx
 713 0444 480F47D0 		cmova	%rax, %rdx
 714 0448 4939CC   		cmpq	%rcx, %r12
 715 044b 0F87E106 		ja	.L172
 715      0000
 716 0451 4C89C9   		movq	%r9, %rcx
 717 0454 4C89E6   		movq	%r12, %rsi
 718 0457 4889EF   		movq	%rbp, %rdi
 719 045a E8000000 		call	_ZNSt7__cxx1112basic_stringIcSt11char_traitsIcESaIcEE10_M_replaceEmmPKcm@PLT
 719      00
 720 045f 498D5424 		leaq	1(%r12), %rdx
 720      01
 721 0464 BE260000 		movl	$38, %esi
 721      00
 722 0469 4889EF   		movq	%rbp, %rdi
 723 046c E8000000 		call	_ZNKSt7__cxx1112basic_stringIcSt11char_traitsIcESaIcEE4findEcm@PLT
 723      00
 724              	.LEHE3:
 725              	.L155:
 726 0471 4C8B8C24 		movq	144(%rsp), %r9
 726      90000000 
 727 0479 4989C4   		movq	%rax, %r12
 728 047c 4883F8FF 		cmpq	$-1, %rax
 729 0480 75A6     		jne	.L71
 730 0482 4D39E9   		cmpq	%r13, %r9
 731 0485 7408     		je	.L72
 732 0487 4C89CF   		movq	%r9, %rdi
 733 048a E8000000 		call	_ZdlPv@PLT
 733      00
 734              	.L72:
 735 048f 31D2     		xorl	%edx, %edx
 736 0491 BE3C0000 		movl	$60, %esi
 736      00
 737 0496 4889EF   		movq	%rbp, %rdi
 738 0499 4C89AC24 		movq	%r13, 144(%rsp)
 738      90000000 
 739 04a1 C78424A0 		movl	$997485606, 160(%rsp)
 739      00000026 
 739      6C743B
 740 04ac 48C78424 		movq	$4, 152(%rsp)
 740      98000000 
 740      04000000 
 741 04b8 C68424A4 		movb	$0, 164(%rsp)
 741      00000000 
 742              	.LEHB4:
 743 04c0 E8000000 		call	_ZNKSt7__cxx1112basic_stringIcSt11char_traitsIcESaIcEE4findEcm@PLT
 743      00
 744 04c5 EB52     		jmp	.L156
 745 04c7 660F1F84 		.p2align 4,,10
 745      00000000 
 745      00
 746              		.p2align 3
 747              	.L75:
 748 04d0 488B4C24 		movq	88(%rsp), %rcx
 748      58
 749 04d5 B8010000 		movl	$1, %eax
 749      00
 750 04da 4C8B8424 		movq	152(%rsp), %r8
 750      98000000 
 751 04e2 4889CA   		movq	%rcx, %rdx
 752 04e5 4C29E2   		subq	%r12, %rdx
 753 04e8 4883FA00 		cmpq	$0, %rdx
 754 04ec 480F47D0 		cmova	%rax, %rdx
 755 04f0 4939CC   		cmpq	%rcx, %r12
 756 04f3 0F879906 		ja	.L173
 756      0000
 757 04f9 4C89C9   		movq	%r9, %rcx
 758 04fc 4C89E6   		movq	%r12, %rsi
 759 04ff 4889EF   		movq	%rbp, %rdi
 760 0502 E8000000 		call	_ZNSt7__cxx1112basic_stringIcSt11char_traitsIcESaIcEE10_M_replaceEmmPKcm@PLT
 760      00
 761 0507 498D5424 		leaq	1(%r12), %rdx
 761      01
 762 050c BE3C0000 		movl	$60, %esi
 762      00
 763 0511 4889EF   		movq	%rbp, %rdi
 764 0514 E8000000 		call	_ZNKSt7__cxx1112basic_stringIcSt11char_traitsIcESaIcEE4findEcm@PLT
 764      00
 765              	.LEHE4:
 766              	.L156:
 767 0519 4C8B8C24 		movq	144(%rsp), %r9
 767      90000000 
 768 0521 4989C4   		movq	%rax, %r12
 769 0524 4883F8FF 		cmpq	$-1, %rax
 770 0528 75A6     		jne	.L75
 771 052a 4D39E9   		cmpq	%r13, %r9
 772 052d 7408     		je	.L76
 773 052f 4C89CF   		movq	%r9, %rdi
 774 0532 E8000000 		call	_ZdlPv@PLT
 774      00
 775              	.L76:
 776 0537 31D2     		xorl	%edx, %edx
 777 0539 BE3E0000 		movl	$62, %esi
 777      00
 778 053e 4889EF   		movq	%rbp, %rdi
 779 0541 4C89AC24 		movq	%r13, 144(%rsp)
 779      90000000 
 780 0549 C78424A0 		movl	$997484326, 160(%rsp)
 780      00000026 
 780      67743B
 781 0554 48C78424 		movq	$4, 152(%rsp)
 781      98000000 
 781      04000000 
 782 0560 C68424A4 		movb	$0, 164(%rsp)
 782      00000000 
 783              	.LEHB5:
 784 0568 E8000000 		call	_ZNKSt7__cxx1112basic_stringIcSt11char_traitsIcESaIcEE4findEcm@PLT
 784      00
 785 056d EB4A     		jmp	.L157
 786 056f 90       		.p2align 4,,10
 787              		.p2align 3
 788              	.L79:
 789 0570 488B4C24 		movq	88(%rsp), %rcx
 789      58
 790 0575 B8010000 		movl	$1, %eax
 790      00
 791 057a 4C8B8424 		movq	152(%rsp), %r8
 791      98000000 
 792 0582 4889CA   		movq	%rcx, %rdx
 793 0585 4C29E2   		subq	%r12, %rdx
 794 0588 4883FA00 		cmpq	$0, %rdx
 795 058c 480F47D0 		cmova	%rax, %rdx
 796 0590 4939CC   		cmpq	%rcx, %r12
 797 0593 0F87E105 		ja	.L174
 797      0000
 798 0599 4C89C9   		movq	%r9, %rcx
 799 059c 4C89E6   		movq	%r12, %rsi
 800 059f 4889EF   		movq	%rbp, %rdi
 801 05a2 E8000000 		call	_ZNSt7__cxx1112basic_stringIcSt11char_traitsIcESaIcEE10_M_replaceEmmPKcm@PLT
 801      00
 802 05a7 498D5424 		leaq	1(%r12), %rdx
 802      01
 803 05ac BE3E0000 		movl	$62, %esi
 803      00
 804 05b1 4889EF   		movq	%rbp, %rdi
 805 05b4 E8000000 		call	_ZNKSt7__cxx1112basic_stringIcSt11char_traitsIcESaIcEE4findEcm@PLT
 805      00
 806              	.LEHE5:
 807              	.L157:
 808 05b9 4C8B8C24 		movq	144(%rsp), %r9
 808      90000000 
 809 05c1 4989C4   		movq	%rax, %r12
 810 05c4 4883F8FF 		cmpq	$-1, %rax
 811 05c8 75A6     		jne	.L79
 812 05ca 4D39E9   		cmpq	%r13, %r9
 813 05cd 7408     		je	.L80
 814 05cf 4C89CF   		movq	%r9, %rdi
 815 05d2 E8000000 		call	_ZdlPv@PLT
 815      00
 816              	.L80:
 817 05d7 B9733B00 		movl	$15219, %ecx
 817      00
 818 05dc 31D2     		xorl	%edx, %edx
 819 05de BE270000 		movl	$39, %esi
 819      00
 820 05e3 4889EF   		movq	%rbp, %rdi
 821 05e6 4C89AC24 		movq	%r13, 144(%rsp)
 821      90000000 
 822 05ee C78424A0 		movl	$1869635878, 160(%rsp)
 822      00000026 
 822      61706F
 823 05f9 66898C24 		movw	%cx, 164(%rsp)
 823      A4000000 
 824 0601 48C78424 		movq	$6, 152(%rsp)
 824      98000000 
 824      06000000 
 825 060d C68424A6 		movb	$0, 166(%rsp)
 825      00000000 
 826              	.LEHB6:
 827 0615 E8000000 		call	_ZNKSt7__cxx1112basic_stringIcSt11char_traitsIcESaIcEE4findEcm@PLT
 827      00
 828 061a EB4D     		jmp	.L158
 829 061c 0F1F4000 		.p2align 4,,10
 830              		.p2align 3
 831              	.L83:
 832 0620 488B4C24 		movq	88(%rsp), %rcx
 832      58
 833 0625 B8010000 		movl	$1, %eax
 833      00
 834 062a 4C8B8424 		movq	152(%rsp), %r8
 834      98000000 
 835 0632 4889CA   		movq	%rcx, %rdx
 836 0635 4C29E2   		subq	%r12, %rdx
 837 0638 4883FA00 		cmpq	$0, %rdx
 838 063c 480F47D0 		cmova	%rax, %rdx
 839 0640 4939CC   		cmpq	%rcx, %r12
 840 0643 0F871905 		ja	.L175
 840      0000
 841 0649 4C89C9   		movq	%r9, %rcx
 842 064c 4C89E6   		movq	%r12, %rsi
 843 064f 4889EF   		movq	%rbp, %rdi
 844 0652 E8000000 		call	_ZNSt7__cxx1112basic_stringIcSt11char_traitsIcESaIcEE10_M_replaceEmmPKcm@PLT
 844      00
 845 0657 498D5424 		leaq	1(%r12), %rdx
 845      01
 846 065c BE270000 		movl	$39, %esi
 846      00
 847 0661 4889EF   		movq	%rbp, %rdi
 848 0664 E8000000 		call	_ZNKSt7__cxx1112basic_stringIcSt11char_traitsIcESaIcEE4findEcm@PLT
 848      00
 849              	.LEHE6:
 850              	.L158:
 851 0669 4C8B8C24 		movq	144(%rsp), %r9
 851      90000000 
 852 0671 4989C4   		movq	%rax, %r12
 853 0674 4883F8FF 		cmpq	$-1, %rax
 854 0678 75A6     		jne	.L83
 855 067a 4D39E9   		cmpq	%r13, %r9
 856 067d 7408     		je	.L84
 857 067f 4C89CF   		movq	%r9, %rdi
 858 0682 E8000000 		call	_ZdlPv@PLT
 858      00
 859              	.L84:
 860 0687 BA743B00 		movl	$15220, %edx
 860      00
 861 068c BE220000 		movl	$34, %esi
 861      00
 862 0691 4889EF   		movq	%rbp, %rdi
 863 0694 4C89AC24 		movq	%r13, 144(%rsp)
 863      90000000 
 864 069c 66899424 		movw	%dx, 164(%rsp)
 864      A4000000 
 865 06a4 31D2     		xorl	%edx, %edx
 866 06a6 C78424A0 		movl	$1869967654, 160(%rsp)
 866      00000026 
 866      71756F
 867 06b1 48C78424 		movq	$6, 152(%rsp)
 867      98000000 
 867      06000000 
 868 06bd C68424A6 		movb	$0, 166(%rsp)
 868      00000000 
 869              	.LEHB7:
 870 06c5 E8000000 		call	_ZNKSt7__cxx1112basic_stringIcSt11char_traitsIcESaIcEE4findEcm@PLT
 870      00
 871 06ca EB4D     		jmp	.L159
 872 06cc 0F1F4000 		.p2align 4,,10
 873              		.p2align 3
 874              	.L87:
 875 06d0 488B4C24 		movq	88(%rsp), %rcx
 875      58
 876 06d5 B8010000 		movl	$1, %eax
 876      00
 877 06da 4C8B8424 		movq	152(%rsp), %r8
 877      98000000 
 878 06e2 4889CA   		movq	%rcx, %rdx
 879 06e5 4C29E2   		subq	%r12, %rdx
 880 06e8 4883FA00 		cmpq	$0, %rdx
 881 06ec 480F47D0 		cmova	%rax, %rdx
 882 06f0 4939CC   		cmpq	%rcx, %r12
 883 06f3 0F875104 		ja	.L176
 883      0000
 884 06f9 4C89C9   		movq	%r9, %rcx
 885 06fc 4C89E6   		movq	%r12, %rsi
 886 06ff 4889EF   		movq	%rbp, %rdi
 887 0702 E8000000 		call	_ZNSt7__cxx1112basic_stringIcSt11char_traitsIcESaIcEE10_M_replaceEmmPKcm@PLT
 887      00
 888 0707 498D5424 		leaq	1(%r12), %rdx
 888      01
 889 070c BE220000 		movl	$34, %esi
 889      00
 890 0711 4889EF   		movq	%rbp, %rdi
 891 0714 E8000000 		call	_ZNKSt7__cxx1112basic_stringIcSt11char_traitsIcESaIcEE4findEcm@PLT
 891      00
 892              	.LEHE7:
 893              	.L159:
 894 0719 4C8B8C24 		movq	144(%rsp), %r9
 894      90000000 
 895 0721 4989C4   		movq	%rax, %r12
 896 0724 4883F8FF 		cmpq	$-1, %rax
 897 0728 75A6     		jne	.L87
 898 072a 4D39E9   		cmpq	%r13, %r9
 899 072d 7408     		je	.L88
 900 072f 4C89CF   		movq	%r9, %rdi
 901 0732 E8000000 		call	_ZdlPv@PLT
 901      00
 902              	.L88:
 903 0737 8B03     		movl	(%rbx), %eax
 904 0739 4C8DAC24 		leaq	256(%rsp), %r13
 904      00010000 
 905 0741 4C8DA424 		leaq	144(%rsp), %r12
 905      90000000 
 906 0749 4C89EF   		movq	%r13, %rdi
 907 074c 4C896424 		movq	%r12, 40(%rsp)
 907      28
 908 0751 89442434 		movl	%eax, 52(%rsp)
 909 0755 E8000000 		call	_ZNSt8ios_baseC2Ev@PLT
 909      00
 910 075a 488B0500 		movq	_ZTVSt9basic_iosIcSt11char_traitsIcEE@GOTPCREL(%rip), %rax
 910      000000
 911 0761 660FEFC0 		pxor	%xmm0, %xmm0
 912 0765 31F6     		xorl	%esi, %esi
 913 0767 0F118424 		movups	%xmm0, 488(%rsp)
 913      E8010000 
 914 076f 4883C010 		addq	$16, %rax
 915 0773 0F118424 		movups	%xmm0, 504(%rsp)
 915      F8010000 
 916 077b 48898424 		movq	%rax, 256(%rsp)
 916      00010000 
 917 0783 31C0     		xorl	%eax, %eax
 918 0785 66898424 		movw	%ax, 480(%rsp)
 918      E0010000 
 919 078d 488B0500 		movq	_ZTTNSt7__cxx1119basic_ostringstreamIcSt11char_traitsIcESaIcEEE@GOTPCREL(%rip), %rax
 919      000000
 920 0794 48C78424 		movq	$0, 472(%rsp)
 920      D8010000 
 920      00000000 
 921 07a0 488B6808 		movq	8(%rax), %rbp
 922 07a4 488B4010 		movq	16(%rax), %rax
 923 07a8 488B7DE8 		movq	-24(%rbp), %rdi
 924 07ac 4889AC24 		movq	%rbp, 144(%rsp)
 924      90000000 
 925 07b4 48894424 		movq	%rax, 16(%rsp)
 925      10
 926 07b9 4C01E7   		addq	%r12, %rdi
 927 07bc 488907   		movq	%rax, (%rdi)
 928              	.LEHB8:
 929 07bf E8000000 		call	_ZNSt9basic_iosIcSt11char_traitsIcEE4initEPSt15basic_streambufIcS1_E@PLT
 929      00
 930              	.LEHE8:
 931 07c4 488B0500 		movq	_ZTVNSt7__cxx1119basic_ostringstreamIcSt11char_traitsIcESaIcEEE@GOTPCREL(%rip), %rax
 931      000000
 932 07cb 488D7018 		leaq	24(%rax), %rsi
 933 07cf 4883C040 		addq	$64, %rax
 934 07d3 48898424 		movq	%rax, 256(%rsp)
 934      00010000 
 935 07db 488B0500 		movq	_ZTVSt15basic_streambufIcSt11char_traitsIcEE@GOTPCREL(%rip), %rax
 935      000000
 936 07e2 66480F6E 		movq	%rsi, %xmm0
 936      C6
 937 07e7 48897424 		movq	%rsi, 56(%rsp)
 937      38
 938 07ec 4883C010 		addq	$16, %rax
 939 07f0 66480F6E 		movq	%rax, %xmm1
 939      C8
 940 07f5 488D8424 		leaq	208(%rsp), %rax
 940      D0000000 
 941 07fd 660F6CC1 		punpcklqdq	%xmm1, %xmm0
 942 0801 4889C7   		movq	%rax, %rdi
 943 0804 48894424 		movq	%rax, 24(%rsp)
 943      18
 944 0809 0F298424 		movaps	%xmm0, 144(%rsp)
 944      90000000 
 945 0811 660FEFC0 		pxor	%xmm0, %xmm0
 946 0815 0F298424 		movaps	%xmm0, 160(%rsp)
 946      A0000000 
 947 081d 0F298424 		movaps	%xmm0, 176(%rsp)
 947      B0000000 
 948 0825 0F298424 		movaps	%xmm0, 192(%rsp)
 948      C0000000 
 949 082d E8000000 		call	_ZNSt6localeC1Ev@PLT
 949      00
 950 0832 488B0500 		movq	_ZTVNSt7__cxx1115basic_stringbufIcSt11char_traitsIcESaIcEEE@GOTPCREL(%rip), %rax
 950      000000
 951 0839 4C89EF   		movq	%r13, %rdi
 952 083c 488DB424 		leaq	152(%rsp), %rsi
 952      98000000 
 953 0844 C78424D8 		movl	$16, 216(%rsp)
 953      00000010 
 953      000000
 954 084f 4883C010 		addq	$16, %rax
 955 0853 C68424F0 		movb	$0, 240(%rsp)
 955      00000000 
 956 085b 48898424 		movq	%rax, 152(%rsp)
 956      98000000 
 957 0863 488D8424 		leaq	240(%rsp), %rax
 957      F0000000 
 958 086b 48894424 		movq	%rax, 32(%rsp)
 958      20
 959 0870 48898424 		movq	%rax, 224(%rsp)
 959      E0000000 
 960 0878 48C78424 		movq	$0, 232(%rsp)
 960      E8000000 
 960      00000000 
 961              	.LEHB9:
 962 0884 E8000000 		call	_ZNSt9basic_iosIcSt11char_traitsIcEE4initEPSt15basic_streambufIcS1_E@PLT
 962      00
 963              	.LEHE9:
 964 0889 498B5648 		movq	72(%r14), %rdx
 965 088d 498B7640 		movq	64(%r14), %rsi
 966 0891 488B7C24 		movq	40(%rsp), %rdi
 966      28
 967              	.LEHB10:
 968 0896 E8000000 		call	_ZSt16__ostream_insertIcSt11char_traitsIcEERSt13basic_ostreamIT_T0_ES6_PKS3_l@PLT
 968      00
 969 089b BA010000 		movl	$1, %edx
 969      00
 970 08a0 488D3500 		leaq	.LC19(%rip), %rsi
 970      000000
 971 08a7 4889C7   		movq	%rax, %rdi
 972 08aa 4989C4   		movq	%rax, %r12
 973 08ad E8000000 		call	_ZSt16__ostream_insertIcSt11char_traitsIcEERSt13basic_ostreamIT_T0_ES6_PKS3_l@PLT
 973      00
 974 08b2 8B742434 		movl	52(%rsp), %esi
 975 08b6 4C89E7   		movq	%r12, %rdi
 976 08b9 E8000000 		call	_ZNSolsEi@PLT
 976      00
 977 08be BA040000 		movl	$4, %edx
 977      00
 978 08c3 488D3500 		leaq	.LC20(%rip), %rsi
 978      000000
 979 08ca 4889C7   		movq	%rax, %rdi
 980 08cd 4989C4   		movq	%rax, %r12
 981 08d0 E8000000 		call	_ZSt16__ostream_insertIcSt11char_traitsIcEERSt13basic_ostreamIT_T0_ES6_PKS3_l@PLT
 981      00
 982 08d5 488B5424 		movq	88(%rsp), %rdx
 982      58
 983 08da 488B7424 		movq	80(%rsp), %rsi
 983      50
 984 08df 4C89E7   		movq	%r12, %rdi
 985 08e2 E8000000 		call	_ZSt16__ostream_insertIcSt11char_traitsIcEERSt13basic_ostreamIT_T0_ES6_PKS3_l@PLT
 985      00
 986              	.LEHE10:
 987 08e7 488B8424 		movq	192(%rsp), %rax
 987      C0000000 
 988 08ef 4C8DA424 		leaq	128(%rsp), %r12
 988      80000000 
 989 08f7 48C74424 		movq	$0, 120(%rsp)
 989      78000000 
 989      00
 990 0900 488D7C24 		leaq	112(%rsp), %rdi
 990      70
 991 0905 4C896424 		movq	%r12, 112(%rsp)
 991      70
 992 090a C6842480 		movb	$0, 128(%rsp)
 992      00000000 
 993 0912 4885C0   		testq	%rax, %rax
 994 0915 0F840502 		je	.L107
 994      0000
 995 091b 4C8B8424 		movq	176(%rsp), %r8
 995      B0000000 
 996 0923 4D85C0   		testq	%r8, %r8
 997 0926 0F848401 		je	.L140
 997      0000
 998 092c 4C39C0   		cmpq	%r8, %rax
 999 092f 0F877B01 		ja	.L140
 999      0000
 1000              	.L108:
 1001 0935 488B8C24 		movq	184(%rsp), %rcx
 1001      B8000000 
 1002 093d 31D2     		xorl	%edx, %edx
 1003 093f 31F6     		xorl	%esi, %esi
 1004 0941 4929C8   		subq	%rcx, %r8
 1005              	.LEHB11:
 1006 0944 E8000000 		call	_ZNSt7__cxx1112basic_stringIcSt11char_traitsIcESaIcEE10_M_replaceEmmPKcm@PLT
 1006      00
 1007              	.LEHE11:
 1008              	.L110:
 1009 0949 488B0500 		movq	_ZTVNSt7__cxx1119basic_ostringstreamIcSt11char_traitsIcESaIcEEE@GOTPCREL(%rip), %rax
 1009      000000
 1010 0950 F30F7E44 		movq	56(%rsp), %xmm0
 1010      2438
 1011 0956 488BBC24 		movq	224(%rsp), %rdi
 1011      E0000000 
 1012 095e 4883C040 		addq	$64, %rax
 1013 0962 48898424 		movq	%rax, 256(%rsp)
 1013      00010000 
 1014 096a 488B0500 		movq	_ZTVNSt7__cxx1115basic_stringbufIcSt11char_traitsIcESaIcEEE@GOTPCREL(%rip), %rax
 1014      000000
 1015 0971 4883C010 		addq	$16, %rax
 1016 0975 66480F6E 		movq	%rax, %xmm2
 1016      D0
 1017 097a 660F6CC2 		punpcklqdq	%xmm2, %xmm0
 1018 097e 0F298424 		movaps	%xmm0, 144(%rsp)
 1018      90000000 
 1019 0986 483B7C24 		cmpq	32(%rsp), %rdi
 1019      20
 1020 098b 7405     		je	.L112
 1021 098d E8000000 		call	_ZdlPv@PLT
 1021      00
 1022              	.L112:
 1023 0992 488B0500 		movq	_ZTVSt15basic_streambufIcSt11char_traitsIcEE@GOTPCREL(%rip), %rax
 1023      000000
 1024 0999 488B7C24 		movq	24(%rsp), %rdi
 1024      18
 1025 099e 4883C010 		addq	$16, %rax
 1026 09a2 48898424 		movq	%rax, 152(%rsp)
 1026      98000000 
 1027 09aa E8000000 		call	_ZNSt6localeD1Ev@PLT
 1027      00
 1028 09af 488B45E8 		movq	-24(%rbp), %rax
 1029 09b3 488B7424 		movq	16(%rsp), %rsi
 1029      10
 1030 09b8 4C89EF   		movq	%r13, %rdi
 1031 09bb 4889AC24 		movq	%rbp, 144(%rsp)
 1031      90000000 
 1032 09c3 4889B404 		movq	%rsi, 144(%rsp,%rax)
 1032      90000000 
 1033 09cb 488B0500 		movq	_ZTVSt9basic_iosIcSt11char_traitsIcEE@GOTPCREL(%rip), %rax
 1033      000000
 1034 09d2 4883C010 		addq	$16, %rax
 1035 09d6 48898424 		movq	%rax, 256(%rsp)
 1035      00010000 
 1036              	.LEHB12:
 1037 09de E8000000 		call	_ZNSt8ios_baseD2Ev@PLT
 1037      00
 1038              	.LEHE12:
 1039 09e3 BA080000 		movl	$8, %edx
 1039      00
 1040 09e8 488D3500 		leaq	.LC21(%rip), %rsi
 1040      000000
 1041 09ef 4C89FF   		movq	%r15, %rdi
 1042              	.LEHB13:
 1043 09f2 E8000000 		call	_ZSt16__ostream_insertIcSt11char_traitsIcEERSt13basic_ostreamIT_T0_ES6_PKS3_l@PLT
 1043      00
 1044 09f7 BA0A0000 		movl	$10, %edx
 1044      00
 1045 09fc 488D3500 		leaq	.LC22(%rip), %rsi
 1045      000000
 1046 0a03 4C89FF   		movq	%r15, %rdi
 1047 0a06 E8000000 		call	_ZSt16__ostream_insertIcSt11char_traitsIcEERSt13basic_ostreamIT_T0_ES6_PKS3_l@PLT
 1047      00
 1048 0a0b 488B5424 		movq	120(%rsp), %rdx
 1048      78
 1049 0a10 488B7424 		movq	112(%rsp), %rsi
 1049      70
 1050 0a15 4C89FF   		movq	%r15, %rdi
 1051 0a18 E8000000 		call	_ZSt16__ostream_insertIcSt11char_traitsIcEERSt13basic_ostreamIT_T0_ES6_PKS3_l@PLT
 1051      00
 1052 0a1d BA010000 		movl	$1, %edx
 1052      00
 1053 0a22 488D3500 		leaq	.LC2(%rip), %rsi
 1053      000000
 1054 0a29 4889C7   		movq	%rax, %rdi
 1055 0a2c 4889C5   		movq	%rax, %rbp
 1056 0a2f E8000000 		call	_ZSt16__ostream_insertIcSt11char_traitsIcEERSt13basic_ostreamIT_T0_ES6_PKS3_l@PLT
 1056      00
 1057 0a34 BA020000 		movl	$2, %edx
 1057      00
 1058 0a39 488D3500 		leaq	.LC15(%rip), %rsi
 1058      000000
 1059 0a40 4889EF   		movq	%rbp, %rdi
 1060 0a43 E8000000 		call	_ZSt16__ostream_insertIcSt11char_traitsIcEERSt13basic_ostreamIT_T0_ES6_PKS3_l@PLT
 1060      00
 1061              	.LEHE13:
 1062 0a48 488B7C24 		movq	112(%rsp), %rdi
 1062      70
 1063 0a4d 4C39E7   		cmpq	%r12, %rdi
 1064 0a50 7405     		je	.L119
 1065 0a52 E8000000 		call	_ZdlPv@PLT
 1065      00
 1066              	.L119:
 1067 0a57 488B7C24 		movq	80(%rsp), %rdi
 1067      50
 1068 0a5c 483B7C24 		cmpq	8(%rsp), %rdi
 1068      08
 1069 0a61 743D     		je	.L120
 1070 0a63 E8000000 		call	_ZdlPv@PLT
 1070      00
 1071 0a68 4883C328 		addq	$40, %rbx
 1072 0a6c 49395E68 		cmpq	%rbx, 104(%r14)
 1073 0a70 0F850AF9 		jne	.L123
 1073      FFFF
 1074              	.L62:
 1075 0a76 488B8424 		movq	520(%rsp), %rax
 1075      08020000 
 1076 0a7e 64482B04 		subq	%fs:40, %rax
 1076      25280000 
 1076      00
 1077 0a87 0F853801 		jne	.L177
 1077      0000
 1078 0a8d 4881C418 		addq	$536, %rsp
 1078      020000
 1079              		.cfi_remember_state
 1080              		.cfi_def_cfa_offset 56
 1081 0a94 5B       		popq	%rbx
 1082              		.cfi_def_cfa_offset 48
 1083 0a95 5D       		popq	%rbp
 1084              		.cfi_def_cfa_offset 40
 1085 0a96 415C     		popq	%r12
 1086              		.cfi_def_cfa_offset 32
 1087 0a98 415D     		popq	%r13
 1088              		.cfi_def_cfa_offset 24
 1089 0a9a 415E     		popq	%r14
 1090              		.cfi_def_cfa_offset 16
 1091 0a9c 415F     		popq	%r15
 1092              		.cfi_def_cfa_offset 8
 1093 0a9e C3       		ret
 1094 0a9f 90       		.p2align 4,,10
 1095              		.p2align 3
 1096              	.L120:
 1097              		.cfi_restore_state
 1098 0aa0 4883C328 		addq	$40, %rbx
 1099 0aa4 49395E68 		cmpq	%rbx, 104(%r14)
 1100 0aa8 0F85D2F8 		jne	.L123
 1100      FFFF
 1101 0aae EBC6     		jmp	.L62
 1102              		.p2align 4,,10
 1103              		.p2align 3
 1104              	.L140:
 1105 0ab0 4989C0   		movq	%rax, %r8
 1106 0ab3 E97DFEFF 		jmp	.L108
 1106      FF
 1107 0ab8 0F1F8400 		.p2align 4,,10
 1107      00000000 
 1108              		.p2align 3
 1109              	.L67:
 1110 0ac0 4D85E4   		testq	%r12, %r12
 1111 0ac3 0F85ED00 		jne	.L178
 1111      0000
 1112 0ac9 488B4424 		movq	8(%rsp), %rax
 1112      08
 1113 0ace 488D6C24 		leaq	80(%rsp), %rbp
 1113      50
 1114 0ad3 E9F7F8FF 		jmp	.L68
 1114      FF
 1115 0ad8 0F1F8400 		.p2align 4,,10
 1115      00000000 
 1116              		.p2align 3
 1117              	.L171:
 1118 0ae0 488D6C24 		leaq	80(%rsp), %rbp
 1118      50
 1119 0ae5 488D7424 		leaq	72(%rsp), %rsi
 1119      48
 1120 0aea 31D2     		xorl	%edx, %edx
 1121 0aec 4889EF   		movq	%rbp, %rdi
 1122              	.LEHB14:
 1123 0aef E8000000 		call	_ZNSt7__cxx1112basic_stringIcSt11char_traitsIcESaIcEE9_M_createERmm@PLT
 1123      00
 1124              	.LEHE14:
 1125 0af4 48894424 		movq	%rax, 80(%rsp)
 1125      50
 1126 0af9 4889C7   		movq	%rax, %rdi
 1127 0afc 488B4424 		movq	72(%rsp), %rax
 1127      48
 1128 0b01 48894424 		movq	%rax, 96(%rsp)
 1128      60
 1129              	.L66:
 1130 0b06 4C89E2   		movq	%r12, %rdx
 1131 0b09 4C89EE   		movq	%r13, %rsi
 1132 0b0c E8000000 		call	memcpy@PLT
 1132      00
 1133 0b11 4C8B6424 		movq	72(%rsp), %r12
 1133      48
 1134 0b16 488B4424 		movq	80(%rsp), %rax
 1134      50
 1135 0b1b E9AFF8FF 		jmp	.L68
 1135      FF
 1136              		.p2align 4,,10
 1137              		.p2align 3
 1138              	.L107:
 1139 0b20 488DB424 		leaq	224(%rsp), %rsi
 1139      E0000000 
 1140              	.LEHB15:
 1141 0b28 E8000000 		call	_ZNSt7__cxx1112basic_stringIcSt11char_traitsIcESaIcEE9_M_assignERKS4_@PLT
 1141      00
 1142              	.LEHE15:
 1143 0b2d E917FEFF 		jmp	.L110
 1143      FF
 1144              	.L172:
 1145 0b32 4C89E2   		movq	%r12, %rdx
 1146 0b35 488D3500 		leaq	.LC17(%rip), %rsi
 1146      000000
 1147 0b3c 488D3D00 		leaq	.LC18(%rip), %rdi
 1147      000000
 1148 0b43 31C0     		xorl	%eax, %eax
 1149              	.LEHB16:
 1150 0b45 E8000000 		call	_ZSt24__throw_out_of_range_fmtPKcz@PLT
 1150      00
 1151              	.LEHE16:
 1152              	.L176:
 1153 0b4a 4C89E2   		movq	%r12, %rdx
 1154 0b4d 488D3500 		leaq	.LC17(%rip), %rsi
 1154      000000
 1155 0b54 488D3D00 		leaq	.LC18(%rip), %rdi
 1155      000000
 1156 0b5b 31C0     		xorl	%eax, %eax
 1157              	.LEHB17:
 1158 0b5d E8000000 		call	_ZSt24__throw_out_of_range_fmtPKcz@PLT
 1158      00
 1159              	.LEHE17:
 1160              	.L175:
 1161 0b62 4C89E2   		movq	%r12, %rdx
 1162 0b65 488D3500 		leaq	.LC17(%rip), %rsi
 1162      000000
 1163 0b6c 488D3D00 		leaq	.LC18(%rip), %rdi
 1163      000000
 1164 0b73 31C0     		xorl	%eax, %eax
 1165              	.LEHB18:
 1166 0b75 E8000000 		call	_ZSt24__throw_out_of_range_fmtPKcz@PLT
 1166      00
 1167              	.LEHE18:
 1168              	.L174:
 1169 0b7a 4C89E2   		movq	%r12, %rdx
 1170 0b7d 488D3500 		leaq	.LC17(%rip), %rsi
 1170      000000
 1171 0b84 488D3D00 		leaq	.LC18(%rip), %rdi
 1171      000000
 1172 0b8b 31C0     		xorl	%eax, %eax
 1173              	.LEHB19:
 1174 0b8d E8000000 		call	_ZSt24__throw_out_of_range_fmtPKcz@PLT
 1174      00
 1175              	.LEHE19:
 1176              	.L173:
 1177 0b92 4C89E2   		movq	%r12, %rdx
 1178 0b95 488D3500 		leaq	.LC17(%rip), %rsi
 1178      000000
 1179 0b9c 488D3D00 		leaq	.LC18(%rip), %rdi
 1179      000000
 1180 0ba3 31C0     		xorl	%eax, %eax
 1181              	.LEHB20:
 1182 0ba5 E8000000 		call	_ZSt24__throw_out_of_range_fmtPKcz@PLT
 1182      00
 1183              	.LEHE20:
 1184              	.L170:
 1185 0baa 488D3D00 		leaq	.LC16(%rip), %rdi
 1185      000000
 1186              	.LEHB21:
 1187 0bb1 E8000000 		call	_ZSt19__throw_logic_errorPKc@PLT
 1187      00
 1188              	.LEHE21:
 1189              	.L178:
 1190 0bb6 488B7C24 		movq	8(%rsp), %rdi
 1190      08
 1191 0bbb 488D6C24 		leaq	80(%rsp), %rbp
 1191      50
 1192 0bc0 E941FFFF 		jmp	.L66
 1192      FF
 1193              	.L177:
 1194 0bc5 E8000000 		call	__stack_chk_fail@PLT
 1194      00
 1195              	.L134:
 1196 0bca F30F1EFA 		endbr64
 1197 0bce 4889C5   		movq	%rax, %rbp
 1198 0bd1 E9000000 		jmp	.L99
 1198      00
 1199              	.L129:
 1200 0bd6 F30F1EFA 		endbr64
 1201 0bda 4889C5   		movq	%rax, %rbp
 1202 0bdd E9000000 		jmp	.L124
 1202      00
 1203              	.L135:
 1204 0be2 F30F1EFA 		endbr64
 1205 0be6 4889C5   		movq	%rax, %rbp
 1206 0be9 E9000000 		jmp	.L124
 1206      00
 1207              	.L132:
 1208 0bee F30F1EFA 		endbr64
 1209 0bf2 4889C5   		movq	%rax, %rbp
 1210 0bf5 E9000000 		jmp	.L99
 1210      00
 1211              	.L133:
 1212 0bfa F30F1EFA 		endbr64
 1213 0bfe 4889C5   		movq	%rax, %rbp
 1214 0c01 E9000000 		jmp	.L99
 1214      00
 1215              	.L130:
 1216 0c06 F30F1EFA 		endbr64
 1217 0c0a 4889C5   		movq	%rax, %rbp
 1218 0c0d E9000000 		jmp	.L99
 1218      00
 1219              	.L131:
 1220 0c12 F30F1EFA 		endbr64
 1221 0c16 4889C5   		movq	%rax, %rbp
 1222 0c19 E9000000 		jmp	.L99
 1222      00
 1223              	.L139:
 1224 0c1e F30F1EFA 		endbr64
 1225 0c22 4889C5   		movq	%rax, %rbp
 1226 0c25 E9000000 		jmp	.L113
 1226      00
 1227              	.L136:
 1228 0c2a F30F1EFA 		endbr64
 1229 0c2e 4889C5   		movq	%rax, %rbp
 1230 0c31 E9000000 		jmp	.L115
 1230      00
 1231              	.L138:
 1232 0c36 F30F1EFA 		endbr64
 1233 0c3a 4889C3   		movq	%rax, %rbx
 1234 0c3d E9000000 		jmp	.L103
 1234      00
 1235              	.L137:
 1236 0c42 F30F1EFA 		endbr64
 1237 0c46 4889C3   		movq	%rax, %rbx
 1238 0c49 E9000000 		jmp	.L105
 1238      00
 1239              		.section	.gcc_except_table,"a",@progbits
 1240              	.LLSDA1439:
 1241 0000 FF       		.byte	0xff
 1242 0001 FF       		.byte	0xff
 1243 0002 01       		.byte	0x1
 1244 0003 74       		.uleb128 .LLSDACSE1439-.LLSDACSB1439
 1245              	.LLSDACSB1439:
 1246 0004 3D       		.uleb128 .LEHB2-.LFB1439
 1247 0005 05       		.uleb128 .LEHE2-.LEHB2
 1248 0006 00       		.uleb128 0
 1249 0007 00       		.uleb128 0
 1250 0008 FA01     		.uleb128 .LEHB3-.LFB1439
 1251 000a 57       		.uleb128 .LEHE3-.LEHB3
 1252 000b AA11     		.uleb128 .L134-.LFB1439
 1253 000d 00       		.uleb128 0
 1254 000e A003     		.uleb128 .LEHB4-.LFB1439
 1255 0010 59       		.uleb128 .LEHE4-.LEHB4
 1256 0011 DA11     		.uleb128 .L133-.LFB1439
 1257 0013 00       		.uleb128 0
 1258 0014 C804     		.uleb128 .LEHB5-.LFB1439
 1259 0016 51       		.uleb128 .LEHE5-.LEHB5
 1260 0017 CE11     		.uleb128 .L132-.LFB1439
 1261 0019 00       		.uleb128 0
 1262 001a F505     		.uleb128 .LEHB6-.LFB1439
 1263 001c 54       		.uleb128 .LEHE6-.LEHB6
 1264 001d F211     		.uleb128 .L131-.LFB1439
 1265 001f 00       		.uleb128 0
 1266 0020 A507     		.uleb128 .LEHB7-.LFB1439
 1267 0022 54       		.uleb128 .LEHE7-.LEHB7
 1268 0023 E611     		.uleb128 .L130-.LFB1439
 1269 0025 00       		.uleb128 0
 1270 0026 9F09     		.uleb128 .LEHB8-.LFB1439
 1271 0028 05       		.uleb128 .LEHE8-.LEHB8
 1272 0029 A212     		.uleb128 .L137-.LFB1439
 1273 002b 00       		.uleb128 0
 1274 002c E40A     		.uleb128 .LEHB9-.LFB1439
 1275 002e 05       		.uleb128 .LEHE9-.LEHB9
 1276 002f 9612     		.uleb128 .L138-.LFB1439
 1277 0031 00       		.uleb128 0
 1278 0032 F60A     		.uleb128 .LEHB10-.LFB1439
 1279 0034 51       		.uleb128 .LEHE10-.LEHB10
 1280 0035 8A12     		.uleb128 .L136-.LFB1439
 1281 0037 00       		.uleb128 0
 1282 0038 A40C     		.uleb128 .LEHB11-.LFB1439
 1283 003a 05       		.uleb128 .LEHE11-.LEHB11
 1284 003b FE11     		.uleb128 .L139-.LFB1439
 1285 003d 00       		.uleb128 0
 1286 003e BE0D     		.uleb128 .LEHB12-.LFB1439
 1287 0040 05       		.uleb128 .LEHE12-.LEHB12
 1288 0041 C211     		.uleb128 .L135-.LFB1439
 1289 0043 00       		.uleb128 0
 1290 0044 D20D     		.uleb128 .LEHB13-.LFB1439
 1291 0046 56       		.uleb128 .LEHE13-.LEHB13
 1292 0047 B611     		.uleb128 .L129-.LFB1439
 1293 0049 00       		.uleb128 0
 1294 004a CF0F     		.uleb128 .LEHB14-.LFB1439
 1295 004c 05       		.uleb128 .LEHE14-.LEHB14
 1296 004d 00       		.uleb128 0
 1297 004e 00       		.uleb128 0
 1298 004f 8810     		.uleb128 .LEHB15-.LFB1439
 1299 0051 05       		.uleb128 .LEHE15-.LEHB15
 1300 0052 FE11     		.uleb128 .L139-.LFB1439
 1301 0054 00       		.uleb128 0
 1302 0055 A510     		.uleb128 .LEHB16-.LFB1439
 1303 0057 05       		.uleb128 .LEHE16-.LEHB16
 1304 0058 AA11     		.uleb128 .L134-.LFB1439
 1305 005a 00       		.uleb128 0
 1306 005b BD10     		.uleb128 .LEHB17-.LFB1439
 1307 005d 05       		.uleb128 .LEHE17-.LEHB17
 1308 005e E611     		.uleb128 .L130-.LFB1439
 1309 0060 00       		.uleb128 0
 1310 0061 D510     		.uleb128 .LEHB18-.LFB1439
 1311 0063 05       		.uleb128 .LEHE18-.LEHB18
 1312 0064 F211     		.uleb128 .L131-.LFB1439
 1313 0066 00       		.uleb128 0
 1314 0067 ED10     		.uleb128 .LEHB19-.LFB1439
 1315 0069 05       		.uleb128 .LEHE19-.LEHB19
 1316 006a CE11     		.uleb128 .L132-.LFB1439
 1317 006c 00       		.uleb128 0
 1318 006d 8511     		.uleb128 .LEHB20-.LFB1439
 1319 006f 05       		.uleb128 .LEHE20-.LEHB20
 1320 0070 DA11     		.uleb128 .L133-.LFB1439
 1321 0072 00       		.uleb128 0
 1322 0073 9111     		.uleb128 .LEHB21-.LFB1439
 1323 0075 05       		.uleb128 .LEHE21-.LEHB21
 1324 0076 00       		.uleb128 0
 1325 0077 00       		.uleb128 0
 1326              	.LLSDACSE1439:
 1327              		.text
 1328              		.cfi_endproc
 1329              		.section	.text.unlikely
 1330              		.cfi_startproc
 1331              		.cfi_personality 0x9b,DW.ref.__gxx_personality_v0
 1332              		.cfi_lsda 0x1b,.LLSDAC1439
 1334              	_ZN8UnitTest15XmlTestReporter10AddFailureERSoRKNS_18DeferredTestResultE.cold:
 1335              	.LFSB1439:
 1336              	.L99:
 1337              		.cfi_def_cfa_offset 592
 1338              		.cfi_offset 3, -56
 1339              		.cfi_offset 6, -48
 1340              		.cfi_offset 12, -40
 1341              		.cfi_offset 13, -32
 1342              		.cfi_offset 14, -24
 1343              		.cfi_offset 15, -16
 1344 0000 488BBC24 		movq	144(%rsp), %rdi
 1344      90000000 
 1345 0008 4C39EF   		cmpq	%r13, %rdi
 1346 000b 7405     		je	.L106
 1347              	.L169:
 1348 000d E8000000 		call	_ZdlPv@PLT
 1348      00
 1349              	.L106:
 1350 0012 488B7C24 		movq	80(%rsp), %rdi
 1350      50
 1351 0017 483B7C24 		cmpq	8(%rsp), %rdi
 1351      08
 1352 001c 7405     		je	.L126
 1353 001e E8000000 		call	_ZdlPv@PLT
 1353      00
 1354              	.L126:
 1355 0023 4889EF   		movq	%rbp, %rdi
 1356              	.LEHB22:
 1357 0026 E8000000 		call	_Unwind_Resume@PLT
 1357      00
 1358              	.LEHE22:
 1359              	.L124:
 1360 002b 488B7C24 		movq	112(%rsp), %rdi
 1360      70
 1361 0030 4C39E7   		cmpq	%r12, %rdi
 1362 0033 75D8     		jne	.L169
 1363 0035 EBDB     		jmp	.L106
 1364              	.L113:
 1365 0037 488B7C24 		movq	112(%rsp), %rdi
 1365      70
 1366 003c 4C39E7   		cmpq	%r12, %rdi
 1367 003f 7405     		je	.L115
 1368 0041 E8000000 		call	_ZdlPv@PLT
 1368      00
 1369              	.L115:
 1370 0046 488B7C24 		movq	40(%rsp), %rdi
 1370      28
 1371 004b E8000000 		call	_ZNSt7__cxx1119basic_ostringstreamIcSt11char_traitsIcESaIcEED1Ev@PLT
 1371      00
 1372 0050 EBC0     		jmp	.L106
 1373              	.L103:
 1374 0052 488B0500 		movq	_ZTVNSt7__cxx1115basic_stringbufIcSt11char_traitsIcESaIcEEE@GOTPCREL(%rip), %rax
 1374      000000
 1375 0059 488BBC24 		movq	224(%rsp), %rdi
 1375      E0000000 
 1376 0061 4883C010 		addq	$16, %rax
 1377 0065 48898424 		movq	%rax, 152(%rsp)
 1377      98000000 
 1378 006d 483B7C24 		cmpq	32(%rsp), %rdi
 1378      20
 1379 0072 7405     		je	.L104
 1380 0074 E8000000 		call	_ZdlPv@PLT
 1380      00
 1381              	.L104:
 1382 0079 488B0500 		movq	_ZTVSt15basic_streambufIcSt11char_traitsIcEE@GOTPCREL(%rip), %rax
 1382      000000
 1383 0080 488B7C24 		movq	24(%rsp), %rdi
 1383      18
 1384 0085 4883C010 		addq	$16, %rax
 1385 0089 48898424 		movq	%rax, 152(%rsp)
 1385      98000000 
 1386 0091 E8000000 		call	_ZNSt6localeD1Ev@PLT
 1386      00
 1387 0096 488B45E8 		movq	-24(%rbp), %rax
 1388 009a 488B7424 		movq	16(%rsp), %rsi
 1388      10
 1389 009f 4889AC24 		movq	%rbp, 144(%rsp)
 1389      90000000 
 1390 00a7 4889B404 		movq	%rsi, 144(%rsp,%rax)
 1390      90000000 
 1391              	.L105:
 1392 00af 488B0500 		movq	_ZTVSt9basic_iosIcSt11char_traitsIcEE@GOTPCREL(%rip), %rax
 1392      000000
 1393 00b6 4C89EF   		movq	%r13, %rdi
 1394 00b9 4889DD   		movq	%rbx, %rbp
 1395 00bc 4883C010 		addq	$16, %rax
 1396 00c0 48898424 		movq	%rax, 256(%rsp)
 1396      00010000 
 1397 00c8 E8000000 		call	_ZNSt8ios_baseD2Ev@PLT
 1397      00
 1398 00cd E940FFFF 		jmp	.L106
 1398      FF
 1399              		.cfi_endproc
 1400              	.LFE1439:
 1401              		.section	.gcc_except_table
 1402              	.LLSDAC1439:
 1403 0078 FF       		.byte	0xff
 1404 0079 FF       		.byte	0xff
 1405 007a 01       		.byte	0x1
 1406 007b 04       		.uleb128 .LLSDACSEC1439-.LLSDACSBC1439
 1407              	.LLSDACSBC1439:
 1408 007c 26       		.uleb128 .LEHB22-.LCOLDB23
 1409 007d 05       		.uleb128 .LEHE22-.LEHB22
 1410 007e 00       		.uleb128 0
 1411 007f 00       		.uleb128 0
 1412              	.LLSDACSEC1439:
 1413              		.section	.text.unlikely
 1414              		.text
 1416              		.section	.text.unlikely
 1418              	.LCOLDE23:
 1419              		.text
 1420              	.LHOTE23:
 1421              		.align 2
 1422 0c4e 6690     		.p2align 4
 1423              		.globl	_ZN8UnitTest15XmlTestReporter13ReportSummaryEiiif
 1425              	_ZN8UnitTest15XmlTestReporter13ReportSummaryEiiif:
 1426              	.LFB1433:
 1427              		.cfi_startproc
 1428 0c50 F30F1EFA 		endbr64
 1429 0c54 4155     		pushq	%r13
 1430              		.cfi_def_cfa_offset 16
 1431              		.cfi_offset 13, -16
 1432 0c56 4189D5   		movl	%edx, %r13d
 1433 0c59 31D2     		xorl	%edx, %edx
 1434 0c5b 4154     		pushq	%r12
 1435              		.cfi_def_cfa_offset 24
 1436              		.cfi_offset 12, -24
 1437 0c5d 4189F4   		movl	%esi, %r12d
 1438 0c60 55       		pushq	%rbp
 1439              		.cfi_def_cfa_offset 32
 1440              		.cfi_offset 6, -32
 1441 0c61 4889FD   		movq	%rdi, %rbp
 1442 0c64 53       		pushq	%rbx
 1443              		.cfi_def_cfa_offset 40
 1444              		.cfi_offset 3, -40
 1445 0c65 89CB     		movl	%ecx, %ebx
 1446 0c67 4883EC18 		subq	$24, %rsp
 1447              		.cfi_def_cfa_offset 64
 1448 0c6b 488B7720 		movq	32(%rdi), %rsi
 1449 0c6f F30F1144 		movss	%xmm0, 12(%rsp)
 1449      240C
 1450 0c75 E8000000 		call	_ZN8UnitTest15XmlTestReporter13AddXmlElementERSoPKc@PLT
 1450      00
 1451 0c7a 488B7520 		movq	32(%rbp), %rsi
 1452 0c7e 4189D8   		movl	%ebx, %r8d
 1453 0c81 4489E2   		movl	%r12d, %edx
 1454 0c84 F30F1044 		movss	12(%rsp), %xmm0
 1454      240C
 1455 0c8a 4489E9   		movl	%r13d, %ecx
 1456 0c8d 4889EF   		movq	%rbp, %rdi
 1457 0c90 E8000000 		call	_ZN8UnitTest15XmlTestReporter12BeginResultsERSoiiif@PLT
 1457      00
 1458 0c95 4889EF   		movq	%rbp, %rdi
 1459 0c98 E8000000 		call	_ZN8UnitTest20DeferredTestReporter10GetResultsEv@PLT
 1459      00
 1460 0c9d 488B18   		movq	(%rax), %rbx
 1461 0ca0 4989C4   		movq	%rax, %r12
 1462 0ca3 483B5808 		cmpq	8(%rax), %rbx
 1463 0ca7 7521     		jne	.L183
 1464 0ca9 EB45     		jmp	.L180
 1465 0cab 0F1F4400 		.p2align 4,,10
 1465      00
 1466              		.p2align 3
 1467              	.L181:
 1468 0cb0 488B7520 		movq	32(%rbp), %rsi
 1469 0cb4 4889DA   		movq	%rbx, %rdx
 1470 0cb7 4889EF   		movq	%rbp, %rdi
 1471 0cba 4883EB80 		subq	$-128, %rbx
 1472 0cbe E8000000 		call	_ZN8UnitTest15XmlTestReporter7EndTestERSoRKNS_18DeferredTestResultE@PLT
 1472      00
 1473 0cc3 49395C24 		cmpq	%rbx, 8(%r12)
 1473      08
 1474 0cc8 7426     		je	.L180
 1475              	.L183:
 1476 0cca 488B7520 		movq	32(%rbp), %rsi
 1477 0cce 4889DA   		movq	%rbx, %rdx
 1478 0cd1 4889EF   		movq	%rbp, %rdi
 1479 0cd4 E8000000 		call	_ZN8UnitTest15XmlTestReporter9BeginTestERSoRKNS_18DeferredTestResultE@PLT
 1479      00
 1480 0cd9 807B7C00 		cmpb	$0, 124(%rbx)
 1481 0cdd 74D1     		je	.L181
 1482 0cdf 488B7520 		movq	32(%rbp), %rsi
 1483 0ce3 4889DA   		movq	%rbx, %rdx
 1484 0ce6 4889EF   		movq	%rbp, %rdi
 1485 0ce9 E8000000 		call	_ZN8UnitTest15XmlTestReporter10AddFailureERSoRKNS_18DeferredTestResultE@PLT
 1485      00
 1486 0cee EBC0     		jmp	.L181
 1487              		.p2align 4,,10
 1488              		.p2align 3
 1489              	.L180:
 1490 0cf0 488B7520 		movq	32(%rbp), %rsi
 1491 0cf4 4883C418 		addq	$24, %rsp
 1492              		.cfi_def_cfa_offset 40
 1493 0cf8 4889EF   		movq	%rbp, %rdi
 1494 0cfb 5B       		popq	%rbx
 1495              		.cfi_def_cfa_offset 32
 1496 0cfc 5D       		popq	%rbp
 1497              		.cfi_def_cfa_offset 24
 1498 0cfd 415C     		popq	%r12
 1499              		.cfi_def_cfa_offset 16
 1500 0cff 415D     		popq	%r13
 1501              		.cfi_def_cfa_offset 8
 1502 0d01 E9000000 		jmp	_ZN8UnitTest15XmlTestReporter10EndResultsERSo@PLT
 1502      00
 1503              		.cfi_endproc
 1504              	.LFE1433:
 1506              		.section	.text.startup,"ax",@progbits
 1507              		.p2align 4
 1509              	_GLOBAL__sub_I_XmlTestReporter.cpp:
 1510              	.LFB1670:
 1511              		.cfi_startproc
 1512 0000 F30F1EFA 		endbr64
 1513 0004 55       		pushq	%rbp
 1514              		.cfi_def_cfa_offset 16
 1515              		.cfi_offset 6, -16
 1516 0005 488D2D00 		leaq	_ZStL8__ioinit(%rip), %rbp
 1516      000000
 1517 000c 4889EF   		movq	%rbp, %rdi
 1518 000f E8000000 		call	_ZNSt8ios_base4InitC1Ev@PLT
 1518      00
 1519 0014 488B3D00 		movq	_ZNSt8ios_base4InitD1Ev@GOTPCREL(%rip), %rdi
 1519      000000
 1520 001b 4889EE   		movq	%rbp, %rsi
 1521 001e 5D       		popq	%rbp
 1522              		.cfi_def_cfa_offset 8
 1523 001f 488D1500 		leaq	__dso_handle(%rip), %rdx
 1523      000000
 1524 0026 E9000000 		jmp	__cxa_atexit@PLT
 1524      00
 1525              		.cfi_endproc
 1526              	.LFE1670:
 1528              		.section	.init_array,"aw"
 1529              		.align 8
 1530 0000 00000000 		.quad	_GLOBAL__sub_I_XmlTestReporter.cpp
 1530      00000000 
 1531              		.weak	_ZTSN8UnitTest15XmlTestReporterE
 1532              		.section	.rodata._ZTSN8UnitTest15XmlTestReporterE,"aG",@progbits,_ZTSN8UnitTest15XmlTestReporterE,
 1533              		.align 16
 1536              	_ZTSN8UnitTest15XmlTestReporterE:
 1537 0000 4E38556E 		.string	"N8UnitTest15XmlTestReporterE"
 1537      69745465 
 1537      73743135 
 1537      586D6C54 
 1537      65737452 
 1538              		.weak	_ZTIN8UnitTest15XmlTestReporterE
 1539              		.section	.data.rel.ro._ZTIN8UnitTest15XmlTestReporterE,"awG",@progbits,_ZTIN8UnitTest15XmlTestRepo
 1540              		.align 8
 1543              	_ZTIN8UnitTest15XmlTestReporterE:
 1544 0000 00000000 		.quad	_ZTVN10__cxxabiv120__si_class_type_infoE+16
 1544      00000000 
 1545 0008 00000000 		.quad	_ZTSN8UnitTest15XmlTestReporterE
 1545      00000000 
 1546 0010 00000000 		.quad	_ZTIN8UnitTest20DeferredTestReporterE
 1546      00000000 
 1547              		.weak	_ZTVN8UnitTest15XmlTestReporterE
 1548              		.section	.data.rel.ro._ZTVN8UnitTest15XmlTestReporterE,"awG",@progbits,_ZTVN8UnitTest15XmlTestRepo
 1549              		.align 8
 1552              	_ZTVN8UnitTest15XmlTestReporterE:
 1553 0000 00000000 		.quad	0
 1553      00000000 
 1554 0008 00000000 		.quad	_ZTIN8UnitTest15XmlTestReporterE
 1554      00000000 
 1555 0010 00000000 		.quad	_ZN8UnitTest15XmlTestReporterD1Ev
 1555      00000000 
 1556 0018 00000000 		.quad	_ZN8UnitTest15XmlTestReporterD0Ev
 1556      00000000 
 1557 0020 00000000 		.quad	_ZN8UnitTest20DeferredTestReporter15ReportTestStartERKNS_11TestDetailsE
 1557      00000000 
 1558 0028 00000000 		.quad	_ZN8UnitTest20DeferredTestReporter13ReportFailureERKNS_11TestDetailsEPKc
 1558      00000000 
 1559 0030 00000000 		.quad	_ZN8UnitTest20DeferredTestReporter16ReportTestFinishERKNS_11TestDetailsEf
 1559      00000000 
 1560 0038 00000000 		.quad	_ZN8UnitTest15XmlTestReporter13ReportSummaryEiiif
 1560      00000000 
 1561              		.local	_ZStL8__ioinit
 1562              		.comm	_ZStL8__ioinit,1,1
 1563              		.hidden	DW.ref.__gxx_personality_v0
 1564              		.weak	DW.ref.__gxx_personality_v0
 1565              		.section	.data.rel.local.DW.ref.__gxx_personality_v0,"awG",@progbits,DW.ref.__gxx_personality_v0,c
 1566              		.align 8
 1569              	DW.ref.__gxx_personality_v0:
 1570 0000 00000000 		.quad	__gxx_personality_v0
 1570      00000000 
 1571              		.hidden	__dso_handle
 1572              		.ident	"GCC: (Ubuntu 11.3.0-1ubuntu1~22.04) 11.3.0"
 1573              		.section	.note.GNU-stack,"",@progbits
 1574              		.section	.note.gnu.property,"a"
 1575              		.align 8
 1576 0000 04000000 		.long	1f - 0f
 1577 0004 10000000 		.long	4f - 1f
 1578 0008 05000000 		.long	5
 1579              	0:
 1580 000c 474E5500 		.string	"GNU"
 1581              	1:
 1582              		.align 8
 1583 0010 020000C0 		.long	0xc0000002
 1584 0014 04000000 		.long	3f - 2f
 1585              	2:
 1586 0018 03000000 		.long	0x3
 1587              	3:
 1588 001c 00000000 		.align 8
 1589              	4: