   1              		.file	"testCore.cpp"
   2              		.text
   3              		.p2align 4
   4              		.globl	createInt
   6              	createInt:
   7              	.LFB1240:
   8              		.cfi_startproc
   9 0000 F30F1EFA 		endbr64
  10 0004 53       		pushq	%rbx
  11              		.cfi_def_cfa_offset 16
  12              		.cfi_offset 3, -16
  13 0005 8B1D0000 		movl	_ZL7m_count(%rip), %ebx
  13      0000
  14 000b 31C0     		xorl	%eax, %eax
  15 000d 83FB08   		cmpl	$8, %ebx
  16 0010 7721     		ja	.L1
  17 0012 BF040000 		movl	$4, %edi
  17      00
  18 0017 E8000000 		call	malloc@PLT
  18      00
  19 001c 4885C0   		testq	%rax, %rax
  20 001f 740B     		je	.L3
  21 0021 8D5301   		leal	1(%rbx), %edx
  22 0024 8918     		movl	%ebx, (%rax)
  23 0026 89150000 		movl	%edx, _ZL7m_count(%rip)
  23      0000
  24              	.L3:
  25 002c 83050000 		addl	$1, _ZL11m_allocFree(%rip)
  25      000001
  26              	.L1:
  27 0033 5B       		popq	%rbx
  28              		.cfi_def_cfa_offset 8
  29 0034 C3       		ret
  30              		.cfi_endproc
  31              	.LFE1240:
  33              		.section	.text._ZN31TestQueue_testAllocFreeMatchingD2Ev,"axG",@progbits,_ZN31TestQueue_testAllocFr
  34              		.align 2
  35              		.p2align 4
  36              		.weak	_ZN31TestQueue_testAllocFreeMatchingD2Ev
  38              	_ZN31TestQueue_testAllocFreeMatchingD2Ev:
  39              	.LFB1366:
  40              		.cfi_startproc
  41 0000 F30F1EFA 		endbr64
  42 0004 488D0500 		leaq	16+_ZTV31TestQueue_testAllocFreeMatching(%rip), %rax
  42      000000
  43 000b 488907   		movq	%rax, (%rdi)
  44 000e E9000000 		jmp	_ZN8UnitTest4TestD2Ev@PLT
  44      00
  45              		.cfi_endproc
  46              	.LFE1366:
  48              		.weak	_ZN31TestQueue_testAllocFreeMatchingD1Ev
  49              		.set	_ZN31TestQueue_testAllocFreeMatchingD1Ev,_ZN31TestQueue_testAllocFreeMatchingD2Ev
  50              		.section	.text._ZN31TestQueue_testAllocFreeMatchingD0Ev,"axG",@progbits,_ZN31TestQueue_testAllocFr
  51              		.align 2
  52              		.p2align 4
  53              		.weak	_ZN31TestQueue_testAllocFreeMatchingD0Ev
  55              	_ZN31TestQueue_testAllocFreeMatchingD0Ev:
  56              	.LFB1368:
  57              		.cfi_startproc
  58              		.cfi_personality 0x9b,DW.ref.__gxx_personality_v0
  59              		.cfi_lsda 0x1b,.LLSDA1368
  60 0000 F30F1EFA 		endbr64
  61 0004 4154     		pushq	%r12
  62              		.cfi_def_cfa_offset 16
  63              		.cfi_offset 12, -16
  64 0006 488D0500 		leaq	16+_ZTV31TestQueue_testAllocFreeMatching(%rip), %rax
  64      000000
  65 000d 55       		pushq	%rbp
  66              		.cfi_def_cfa_offset 24
  67              		.cfi_offset 6, -24
  68 000e 4889FD   		movq	%rdi, %rbp
  69 0011 4883EC08 		subq	$8, %rsp
  70              		.cfi_def_cfa_offset 32
  71 0015 488907   		movq	%rax, (%rdi)
  72              	.LEHB0:
  73 0018 E8000000 		call	_ZN8UnitTest4TestD2Ev@PLT
  73      00
  74              	.LEHE0:
  75 001d 4883C408 		addq	$8, %rsp
  76              		.cfi_remember_state
  77              		.cfi_def_cfa_offset 24
  78 0021 4889EF   		movq	%rbp, %rdi
  79 0024 5D       		popq	%rbp
  80              		.cfi_def_cfa_offset 16
  81 0025 415C     		popq	%r12
  82              		.cfi_def_cfa_offset 8
  83 0027 E9000000 		jmp	_ZdlPv@PLT
  83      00
  84              	.L14:
  85              		.cfi_restore_state
  86 002c F30F1EFA 		endbr64
  87 0030 4989C4   		movq	%rax, %r12
  88              	.L13:
  89 0033 4889EF   		movq	%rbp, %rdi
  90 0036 E8000000 		call	_ZdlPv@PLT
  90      00
  91 003b 4C89E7   		movq	%r12, %rdi
  92              	.LEHB1:
  93 003e E8000000 		call	_Unwind_Resume@PLT
  93      00
  94              	.LEHE1:
  95              		.cfi_endproc
  96              	.LFE1368:
  97              		.globl	__gxx_personality_v0
  98              		.section	.gcc_except_table._ZN31TestQueue_testAllocFreeMatchingD0Ev,"aG",@progbits,_ZN31TestQueue_
  99              	.LLSDA1368:
 100 0000 FF       		.byte	0xff
 101 0001 FF       		.byte	0xff
 102 0002 01       		.byte	0x1
 103 0003 08       		.uleb128 .LLSDACSE1368-.LLSDACSB1368
 104              	.LLSDACSB1368:
 105 0004 18       		.uleb128 .LEHB0-.LFB1368
 106 0005 05       		.uleb128 .LEHE0-.LEHB0
 107 0006 2C       		.uleb128 .L14-.LFB1368
 108 0007 00       		.uleb128 0
 109 0008 3E       		.uleb128 .LEHB1-.LFB1368
 110 0009 05       		.uleb128 .LEHE1-.LEHB1
 111 000a 00       		.uleb128 0
 112 000b 00       		.uleb128 0
 113              	.LLSDACSE1368:
 114              		.section	.text._ZN31TestQueue_testAllocFreeMatchingD0Ev,"axG",@progbits,_ZN31TestQueue_testAllocFr
 116              		.section	.text._ZN24TestQueue_testReallocOOMD2Ev,"axG",@progbits,_ZN24TestQueue_testReallocOOMD5Ev
 117              		.align 2
 118              		.p2align 4
 119              		.weak	_ZN24TestQueue_testReallocOOMD2Ev
 121              	_ZN24TestQueue_testReallocOOMD2Ev:
 122              	.LFB1370:
 123              		.cfi_startproc
 124 0000 F30F1EFA 		endbr64
 125 0004 488D0500 		leaq	16+_ZTV24TestQueue_testReallocOOM(%rip), %rax
 125      000000
 126 000b 488907   		movq	%rax, (%rdi)
 127 000e E9000000 		jmp	_ZN8UnitTest4TestD2Ev@PLT
 127      00
 128              		.cfi_endproc
 129              	.LFE1370:
 131              		.weak	_ZN24TestQueue_testReallocOOMD1Ev
 132              		.set	_ZN24TestQueue_testReallocOOMD1Ev,_ZN24TestQueue_testReallocOOMD2Ev
 133              		.section	.text._ZN24TestQueue_testReallocOOMD0Ev,"axG",@progbits,_ZN24TestQueue_testReallocOOMD5Ev
 134              		.align 2
 135              		.p2align 4
 136              		.weak	_ZN24TestQueue_testReallocOOMD0Ev
 138              	_ZN24TestQueue_testReallocOOMD0Ev:
 139              	.LFB1372:
 140              		.cfi_startproc
 141              		.cfi_personality 0x9b,DW.ref.__gxx_personality_v0
 142              		.cfi_lsda 0x1b,.LLSDA1372
 143 0000 F30F1EFA 		endbr64
 144 0004 4154     		pushq	%r12
 145              		.cfi_def_cfa_offset 16
 146              		.cfi_offset 12, -16
 147 0006 488D0500 		leaq	16+_ZTV24TestQueue_testReallocOOM(%rip), %rax
 147      000000
 148 000d 55       		pushq	%rbp
 149              		.cfi_def_cfa_offset 24
 150              		.cfi_offset 6, -24
 151 000e 4889FD   		movq	%rdi, %rbp
 152 0011 4883EC08 		subq	$8, %rsp
 153              		.cfi_def_cfa_offset 32
 154 0015 488907   		movq	%rax, (%rdi)
 155              	.LEHB2:
 156 0018 E8000000 		call	_ZN8UnitTest4TestD2Ev@PLT
 156      00
 157              	.LEHE2:
 158 001d 4883C408 		addq	$8, %rsp
 159              		.cfi_remember_state
 160              		.cfi_def_cfa_offset 24
 161 0021 4889EF   		movq	%rbp, %rdi
 162 0024 5D       		popq	%rbp
 163              		.cfi_def_cfa_offset 16
 164 0025 415C     		popq	%r12
 165              		.cfi_def_cfa_offset 8
 166 0027 E9000000 		jmp	_ZdlPv@PLT
 166      00
 167              	.L19:
 168              		.cfi_restore_state
 169 002c F30F1EFA 		endbr64
 170 0030 4989C4   		movq	%rax, %r12
 171              	.L18:
 172 0033 4889EF   		movq	%rbp, %rdi
 173 0036 E8000000 		call	_ZdlPv@PLT
 173      00
 174 003b 4C89E7   		movq	%r12, %rdi
 175              	.LEHB3:
 176 003e E8000000 		call	_Unwind_Resume@PLT
 176      00
 177              	.LEHE3:
 178              		.cfi_endproc
 179              	.LFE1372:
 180              		.section	.gcc_except_table._ZN24TestQueue_testReallocOOMD0Ev,"aG",@progbits,_ZN24TestQueue_testRea
 181              	.LLSDA1372:
 182 0000 FF       		.byte	0xff
 183 0001 FF       		.byte	0xff
 184 0002 01       		.byte	0x1
 185 0003 08       		.uleb128 .LLSDACSE1372-.LLSDACSB1372
 186              	.LLSDACSB1372:
 187 0004 18       		.uleb128 .LEHB2-.LFB1372
 188 0005 05       		.uleb128 .LEHE2-.LEHB2
 189 0006 2C       		.uleb128 .L19-.LFB1372
 190 0007 00       		.uleb128 0
 191 0008 3E       		.uleb128 .LEHB3-.LFB1372
 192 0009 05       		.uleb128 .LEHE3-.LEHB3
 193 000a 00       		.uleb128 0
 194 000b 00       		.uleb128 0
 195              	.LLSDACSE1372:
 196              		.section	.text._ZN24TestQueue_testReallocOOMD0Ev,"axG",@progbits,_ZN24TestQueue_testReallocOOMD5Ev
 198              		.section	.text._ZN22TestQueue_testAllocOOMD2Ev,"axG",@progbits,_ZN22TestQueue_testAllocOOMD5Ev,com
 199              		.align 2
 200              		.p2align 4
 201              		.weak	_ZN22TestQueue_testAllocOOMD2Ev
 203              	_ZN22TestQueue_testAllocOOMD2Ev:
 204              	.LFB1374:
 205              		.cfi_startproc
 206 0000 F30F1EFA 		endbr64
 207 0004 488D0500 		leaq	16+_ZTV22TestQueue_testAllocOOM(%rip), %rax
 207      000000
 208 000b 488907   		movq	%rax, (%rdi)
 209 000e E9000000 		jmp	_ZN8UnitTest4TestD2Ev@PLT
 209      00
 210              		.cfi_endproc
 211              	.LFE1374:
 213              		.weak	_ZN22TestQueue_testAllocOOMD1Ev
 214              		.set	_ZN22TestQueue_testAllocOOMD1Ev,_ZN22TestQueue_testAllocOOMD2Ev
 215              		.section	.text._ZN22TestQueue_testAllocOOMD0Ev,"axG",@progbits,_ZN22TestQueue_testAllocOOMD5Ev,com
 216              		.align 2
 217              		.p2align 4
 218              		.weak	_ZN22TestQueue_testAllocOOMD0Ev
 220              	_ZN22TestQueue_testAllocOOMD0Ev:
 221              	.LFB1376:
 222              		.cfi_startproc
 223              		.cfi_personality 0x9b,DW.ref.__gxx_personality_v0
 224              		.cfi_lsda 0x1b,.LLSDA1376
 225 0000 F30F1EFA 		endbr64
 226 0004 4154     		pushq	%r12
 227              		.cfi_def_cfa_offset 16
 228              		.cfi_offset 12, -16
 229 0006 488D0500 		leaq	16+_ZTV22TestQueue_testAllocOOM(%rip), %rax
 229      000000
 230 000d 55       		pushq	%rbp
 231              		.cfi_def_cfa_offset 24
 232              		.cfi_offset 6, -24
 233 000e 4889FD   		movq	%rdi, %rbp
 234 0011 4883EC08 		subq	$8, %rsp
 235              		.cfi_def_cfa_offset 32
 236 0015 488907   		movq	%rax, (%rdi)
 237              	.LEHB4:
 238 0018 E8000000 		call	_ZN8UnitTest4TestD2Ev@PLT
 238      00
 239              	.LEHE4:
 240 001d 4883C408 		addq	$8, %rsp
 241              		.cfi_remember_state
 242              		.cfi_def_cfa_offset 24
 243 0021 4889EF   		movq	%rbp, %rdi
 244 0024 5D       		popq	%rbp
 245              		.cfi_def_cfa_offset 16
 246 0025 415C     		popq	%r12
 247              		.cfi_def_cfa_offset 8
 248 0027 E9000000 		jmp	_ZdlPv@PLT
 248      00
 249              	.L24:
 250              		.cfi_restore_state
 251 002c F30F1EFA 		endbr64
 252 0030 4989C4   		movq	%rax, %r12
 253              	.L23:
 254 0033 4889EF   		movq	%rbp, %rdi
 255 0036 E8000000 		call	_ZdlPv@PLT
 255      00
 256 003b 4C89E7   		movq	%r12, %rdi
 257              	.LEHB5:
 258 003e E8000000 		call	_Unwind_Resume@PLT
 258      00
 259              	.LEHE5:
 260              		.cfi_endproc
 261              	.LFE1376:
 262              		.section	.gcc_except_table._ZN22TestQueue_testAllocOOMD0Ev,"aG",@progbits,_ZN22TestQueue_testAlloc
 263              	.LLSDA1376:
 264 0000 FF       		.byte	0xff
 265 0001 FF       		.byte	0xff
 266 0002 01       		.byte	0x1
 267 0003 08       		.uleb128 .LLSDACSE1376-.LLSDACSB1376
 268              	.LLSDACSB1376:
 269 0004 18       		.uleb128 .LEHB4-.LFB1376
 270 0005 05       		.uleb128 .LEHE4-.LEHB4
 271 0006 2C       		.uleb128 .L24-.LFB1376
 272 0007 00       		.uleb128 0
 273 0008 3E       		.uleb128 .LEHB5-.LFB1376
 274 0009 05       		.uleb128 .LEHE5-.LEHB5
 275 000a 00       		.uleb128 0
 276 000b 00       		.uleb128 0
 277              	.LLSDACSE1376:
 278              		.section	.text._ZN22TestQueue_testAllocOOMD0Ev,"axG",@progbits,_ZN22TestQueue_testAllocOOMD5Ev,com
 280              		.section	.text._ZN21TestQueue_testReallocD2Ev,"axG",@progbits,_ZN21TestQueue_testReallocD5Ev,comda
 281              		.align 2
 282              		.p2align 4
 283              		.weak	_ZN21TestQueue_testReallocD2Ev
 285              	_ZN21TestQueue_testReallocD2Ev:
 286              	.LFB1378:
 287              		.cfi_startproc
 288 0000 F30F1EFA 		endbr64
 289 0004 488D0500 		leaq	16+_ZTV21TestQueue_testRealloc(%rip), %rax
 289      000000
 290 000b 488907   		movq	%rax, (%rdi)
 291 000e E9000000 		jmp	_ZN8UnitTest4TestD2Ev@PLT
 291      00
 292              		.cfi_endproc
 293              	.LFE1378:
 295              		.weak	_ZN21TestQueue_testReallocD1Ev
 296              		.set	_ZN21TestQueue_testReallocD1Ev,_ZN21TestQueue_testReallocD2Ev
 297              		.section	.text._ZN21TestQueue_testReallocD0Ev,"axG",@progbits,_ZN21TestQueue_testReallocD5Ev,comda
 298              		.align 2
 299              		.p2align 4
 300              		.weak	_ZN21TestQueue_testReallocD0Ev
 302              	_ZN21TestQueue_testReallocD0Ev:
 303              	.LFB1380:
 304              		.cfi_startproc
 305              		.cfi_personality 0x9b,DW.ref.__gxx_personality_v0
 306              		.cfi_lsda 0x1b,.LLSDA1380
 307 0000 F30F1EFA 		endbr64
 308 0004 4154     		pushq	%r12
 309              		.cfi_def_cfa_offset 16
 310              		.cfi_offset 12, -16
 311 0006 488D0500 		leaq	16+_ZTV21TestQueue_testRealloc(%rip), %rax
 311      000000
 312 000d 55       		pushq	%rbp
 313              		.cfi_def_cfa_offset 24
 314              		.cfi_offset 6, -24
 315 000e 4889FD   		movq	%rdi, %rbp
 316 0011 4883EC08 		subq	$8, %rsp
 317              		.cfi_def_cfa_offset 32
 318 0015 488907   		movq	%rax, (%rdi)
 319              	.LEHB6:
 320 0018 E8000000 		call	_ZN8UnitTest4TestD2Ev@PLT
 320      00
 321              	.LEHE6:
 322 001d 4883C408 		addq	$8, %rsp
 323              		.cfi_remember_state
 324              		.cfi_def_cfa_offset 24
 325 0021 4889EF   		movq	%rbp, %rdi
 326 0024 5D       		popq	%rbp
 327              		.cfi_def_cfa_offset 16
 328 0025 415C     		popq	%r12
 329              		.cfi_def_cfa_offset 8
 330 0027 E9000000 		jmp	_ZdlPv@PLT
 330      00
 331              	.L29:
 332              		.cfi_restore_state
 333 002c F30F1EFA 		endbr64
 334 0030 4989C4   		movq	%rax, %r12
 335              	.L28:
 336 0033 4889EF   		movq	%rbp, %rdi
 337 0036 E8000000 		call	_ZdlPv@PLT
 337      00
 338 003b 4C89E7   		movq	%r12, %rdi
 339              	.LEHB7:
 340 003e E8000000 		call	_Unwind_Resume@PLT
 340      00
 341              	.LEHE7:
 342              		.cfi_endproc
 343              	.LFE1380:
 344              		.section	.gcc_except_table._ZN21TestQueue_testReallocD0Ev,"aG",@progbits,_ZN21TestQueue_testReallo
 345              	.LLSDA1380:
 346 0000 FF       		.byte	0xff
 347 0001 FF       		.byte	0xff
 348 0002 01       		.byte	0x1
 349 0003 08       		.uleb128 .LLSDACSE1380-.LLSDACSB1380
 350              	.LLSDACSB1380:
 351 0004 18       		.uleb128 .LEHB6-.LFB1380
 352 0005 05       		.uleb128 .LEHE6-.LEHB6
 353 0006 2C       		.uleb128 .L29-.LFB1380
 354 0007 00       		.uleb128 0
 355 0008 3E       		.uleb128 .LEHB7-.LFB1380
 356 0009 05       		.uleb128 .LEHE7-.LEHB7
 357 000a 00       		.uleb128 0
 358 000b 00       		.uleb128 0
 359              	.LLSDACSE1380:
 360              		.section	.text._ZN21TestQueue_testReallocD0Ev,"axG",@progbits,_ZN21TestQueue_testReallocD5Ev,comda
 362              		.section	.text._ZN21TestQueue_testPutTakeD2Ev,"axG",@progbits,_ZN21TestQueue_testPutTakeD5Ev,comda
 363              		.align 2
 364              		.p2align 4
 365              		.weak	_ZN21TestQueue_testPutTakeD2Ev
 367              	_ZN21TestQueue_testPutTakeD2Ev:
 368              	.LFB1382:
 369              		.cfi_startproc
 370 0000 F30F1EFA 		endbr64
 371 0004 488D0500 		leaq	16+_ZTV21TestQueue_testPutTake(%rip), %rax
 371      000000
 372 000b 488907   		movq	%rax, (%rdi)
 373 000e E9000000 		jmp	_ZN8UnitTest4TestD2Ev@PLT
 373      00
 374              		.cfi_endproc
 375              	.LFE1382:
 377              		.weak	_ZN21TestQueue_testPutTakeD1Ev
 378              		.set	_ZN21TestQueue_testPutTakeD1Ev,_ZN21TestQueue_testPutTakeD2Ev
 379              		.section	.text._ZN21TestQueue_testPutTakeD0Ev,"axG",@progbits,_ZN21TestQueue_testPutTakeD5Ev,comda
 380              		.align 2
 381              		.p2align 4
 382              		.weak	_ZN21TestQueue_testPutTakeD0Ev
 384              	_ZN21TestQueue_testPutTakeD0Ev:
 385              	.LFB1384:
 386              		.cfi_startproc
 387              		.cfi_personality 0x9b,DW.ref.__gxx_personality_v0
 388              		.cfi_lsda 0x1b,.LLSDA1384
 389 0000 F30F1EFA 		endbr64
 390 0004 4154     		pushq	%r12
 391              		.cfi_def_cfa_offset 16
 392              		.cfi_offset 12, -16
 393 0006 488D0500 		leaq	16+_ZTV21TestQueue_testPutTake(%rip), %rax
 393      000000
 394 000d 55       		pushq	%rbp
 395              		.cfi_def_cfa_offset 24
 396              		.cfi_offset 6, -24
 397 000e 4889FD   		movq	%rdi, %rbp
 398 0011 4883EC08 		subq	$8, %rsp
 399              		.cfi_def_cfa_offset 32
 400 0015 488907   		movq	%rax, (%rdi)
 401              	.LEHB8:
 402 0018 E8000000 		call	_ZN8UnitTest4TestD2Ev@PLT
 402      00
 403              	.LEHE8:
 404 001d 4883C408 		addq	$8, %rsp
 405              		.cfi_remember_state
 406              		.cfi_def_cfa_offset 24
 407 0021 4889EF   		movq	%rbp, %rdi
 408 0024 5D       		popq	%rbp
 409              		.cfi_def_cfa_offset 16
 410 0025 415C     		popq	%r12
 411              		.cfi_def_cfa_offset 8
 412 0027 E9000000 		jmp	_ZdlPv@PLT
 412      00
 413              	.L34:
 414              		.cfi_restore_state
 415 002c F30F1EFA 		endbr64
 416 0030 4989C4   		movq	%rax, %r12
 417              	.L33:
 418 0033 4889EF   		movq	%rbp, %rdi
 419 0036 E8000000 		call	_ZdlPv@PLT
 419      00
 420 003b 4C89E7   		movq	%r12, %rdi
 421              	.LEHB9:
 422 003e E8000000 		call	_Unwind_Resume@PLT
 422      00
 423              	.LEHE9:
 424              		.cfi_endproc
 425              	.LFE1384:
 426              		.section	.gcc_except_table._ZN21TestQueue_testPutTakeD0Ev,"aG",@progbits,_ZN21TestQueue_testPutTak
 427              	.LLSDA1384:
 428 0000 FF       		.byte	0xff
 429 0001 FF       		.byte	0xff
 430 0002 01       		.byte	0x1
 431 0003 08       		.uleb128 .LLSDACSE1384-.LLSDACSB1384
 432              	.LLSDACSB1384:
 433 0004 18       		.uleb128 .LEHB8-.LFB1384
 434 0005 05       		.uleb128 .LEHE8-.LEHB8
 435 0006 2C       		.uleb128 .L34-.LFB1384
 436 0007 00       		.uleb128 0
 437 0008 3E       		.uleb128 .LEHB9-.LFB1384
 438 0009 05       		.uleb128 .LEHE9-.LEHB9
 439 000a 00       		.uleb128 0
 440 000b 00       		.uleb128 0
 441              	.LLSDACSE1384:
 442              		.section	.text._ZN21TestQueue_testPutTakeD0Ev,"axG",@progbits,_ZN21TestQueue_testPutTakeD5Ev,comda
 444              		.section	.text._ZN21TestQueue_testPutWrapD2Ev,"axG",@progbits,_ZN21TestQueue_testPutWrapD5Ev,comda
 445              		.align 2
 446              		.p2align 4
 447              		.weak	_ZN21TestQueue_testPutWrapD2Ev
 449              	_ZN21TestQueue_testPutWrapD2Ev:
 450              	.LFB1386:
 451              		.cfi_startproc
 452 0000 F30F1EFA 		endbr64
 453 0004 488D0500 		leaq	16+_ZTV21TestQueue_testPutWrap(%rip), %rax
 453      000000
 454 000b 488907   		movq	%rax, (%rdi)
 455 000e E9000000 		jmp	_ZN8UnitTest4TestD2Ev@PLT
 455      00
 456              		.cfi_endproc
 457              	.LFE1386:
 459              		.weak	_ZN21TestQueue_testPutWrapD1Ev
 460              		.set	_ZN21TestQueue_testPutWrapD1Ev,_ZN21TestQueue_testPutWrapD2Ev
 461              		.section	.text._ZN21TestQueue_testPutWrapD0Ev,"axG",@progbits,_ZN21TestQueue_testPutWrapD5Ev,comda
 462              		.align 2
 463              		.p2align 4
 464              		.weak	_ZN21TestQueue_testPutWrapD0Ev
 466              	_ZN21TestQueue_testPutWrapD0Ev:
 467              	.LFB1388:
 468              		.cfi_startproc
 469              		.cfi_personality 0x9b,DW.ref.__gxx_personality_v0
 470              		.cfi_lsda 0x1b,.LLSDA1388
 471 0000 F30F1EFA 		endbr64
 472 0004 4154     		pushq	%r12
 473              		.cfi_def_cfa_offset 16
 474              		.cfi_offset 12, -16
 475 0006 488D0500 		leaq	16+_ZTV21TestQueue_testPutWrap(%rip), %rax
 475      000000
 476 000d 55       		pushq	%rbp
 477              		.cfi_def_cfa_offset 24
 478              		.cfi_offset 6, -24
 479 000e 4889FD   		movq	%rdi, %rbp
 480 0011 4883EC08 		subq	$8, %rsp
 481              		.cfi_def_cfa_offset 32
 482 0015 488907   		movq	%rax, (%rdi)
 483              	.LEHB10:
 484 0018 E8000000 		call	_ZN8UnitTest4TestD2Ev@PLT
 484      00
 485              	.LEHE10:
 486 001d 4883C408 		addq	$8, %rsp
 487              		.cfi_remember_state
 488              		.cfi_def_cfa_offset 24
 489 0021 4889EF   		movq	%rbp, %rdi
 490 0024 5D       		popq	%rbp
 491              		.cfi_def_cfa_offset 16
 492 0025 415C     		popq	%r12
 493              		.cfi_def_cfa_offset 8
 494 0027 E9000000 		jmp	_ZdlPv@PLT
 494      00
 495              	.L39:
 496              		.cfi_restore_state
 497 002c F30F1EFA 		endbr64
 498 0030 4989C4   		movq	%rax, %r12
 499              	.L38:
 500 0033 4889EF   		movq	%rbp, %rdi
 501 0036 E8000000 		call	_ZdlPv@PLT
 501      00
 502 003b 4C89E7   		movq	%r12, %rdi
 503              	.LEHB11:
 504 003e E8000000 		call	_Unwind_Resume@PLT
 504      00
 505              	.LEHE11:
 506              		.cfi_endproc
 507              	.LFE1388:
 508              		.section	.gcc_except_table._ZN21TestQueue_testPutWrapD0Ev,"aG",@progbits,_ZN21TestQueue_testPutWra
 509              	.LLSDA1388:
 510 0000 FF       		.byte	0xff
 511 0001 FF       		.byte	0xff
 512 0002 01       		.byte	0x1
 513 0003 08       		.uleb128 .LLSDACSE1388-.LLSDACSB1388
 514              	.LLSDACSB1388:
 515 0004 18       		.uleb128 .LEHB10-.LFB1388
 516 0005 05       		.uleb128 .LEHE10-.LEHB10
 517 0006 2C       		.uleb128 .L39-.LFB1388
 518 0007 00       		.uleb128 0
 519 0008 3E       		.uleb128 .LEHB11-.LFB1388
 520 0009 05       		.uleb128 .LEHE11-.LEHB11
 521 000a 00       		.uleb128 0
 522 000b 00       		.uleb128 0
 523              	.LLSDACSE1388:
 524              		.section	.text._ZN21TestQueue_testPutWrapD0Ev,"axG",@progbits,_ZN21TestQueue_testPutWrapD5Ev,comda
 526              		.section	.text._ZN23TestQueue_testPutNoWrapD2Ev,"axG",@progbits,_ZN23TestQueue_testPutNoWrapD5Ev,c
 527              		.align 2
 528              		.p2align 4
 529              		.weak	_ZN23TestQueue_testPutNoWrapD2Ev
 531              	_ZN23TestQueue_testPutNoWrapD2Ev:
 532              	.LFB1390:
 533              		.cfi_startproc
 534 0000 F30F1EFA 		endbr64
 535 0004 488D0500 		leaq	16+_ZTV23TestQueue_testPutNoWrap(%rip), %rax
 535      000000
 536 000b 488907   		movq	%rax, (%rdi)
 537 000e E9000000 		jmp	_ZN8UnitTest4TestD2Ev@PLT
 537      00
 538              		.cfi_endproc
 539              	.LFE1390:
 541              		.weak	_ZN23TestQueue_testPutNoWrapD1Ev
 542              		.set	_ZN23TestQueue_testPutNoWrapD1Ev,_ZN23TestQueue_testPutNoWrapD2Ev
 543              		.section	.text._ZN23TestQueue_testPutNoWrapD0Ev,"axG",@progbits,_ZN23TestQueue_testPutNoWrapD5Ev,c
 544              		.align 2
 545              		.p2align 4
 546              		.weak	_ZN23TestQueue_testPutNoWrapD0Ev
 548              	_ZN23TestQueue_testPutNoWrapD0Ev:
 549              	.LFB1392:
 550              		.cfi_startproc
 551              		.cfi_personality 0x9b,DW.ref.__gxx_personality_v0
 552              		.cfi_lsda 0x1b,.LLSDA1392
 553 0000 F30F1EFA 		endbr64
 554 0004 4154     		pushq	%r12
 555              		.cfi_def_cfa_offset 16
 556              		.cfi_offset 12, -16
 557 0006 488D0500 		leaq	16+_ZTV23TestQueue_testPutNoWrap(%rip), %rax
 557      000000
 558 000d 55       		pushq	%rbp
 559              		.cfi_def_cfa_offset 24
 560              		.cfi_offset 6, -24
 561 000e 4889FD   		movq	%rdi, %rbp
 562 0011 4883EC08 		subq	$8, %rsp
 563              		.cfi_def_cfa_offset 32
 564 0015 488907   		movq	%rax, (%rdi)
 565              	.LEHB12:
 566 0018 E8000000 		call	_ZN8UnitTest4TestD2Ev@PLT
 566      00
 567              	.LEHE12:
 568 001d 4883C408 		addq	$8, %rsp
 569              		.cfi_remember_state
 570              		.cfi_def_cfa_offset 24
 571 0021 4889EF   		movq	%rbp, %rdi
 572 0024 5D       		popq	%rbp
 573              		.cfi_def_cfa_offset 16
 574 0025 415C     		popq	%r12
 575              		.cfi_def_cfa_offset 8
 576 0027 E9000000 		jmp	_ZdlPv@PLT
 576      00
 577              	.L44:
 578              		.cfi_restore_state
 579 002c F30F1EFA 		endbr64
 580 0030 4989C4   		movq	%rax, %r12
 581              	.L43:
 582 0033 4889EF   		movq	%rbp, %rdi
 583 0036 E8000000 		call	_ZdlPv@PLT
 583      00
 584 003b 4C89E7   		movq	%r12, %rdi
 585              	.LEHB13:
 586 003e E8000000 		call	_Unwind_Resume@PLT
 586      00
 587              	.LEHE13:
 588              		.cfi_endproc
 589              	.LFE1392:
 590              		.section	.gcc_except_table._ZN23TestQueue_testPutNoWrapD0Ev,"aG",@progbits,_ZN23TestQueue_testPutN
 591              	.LLSDA1392:
 592 0000 FF       		.byte	0xff
 593 0001 FF       		.byte	0xff
 594 0002 01       		.byte	0x1
 595 0003 08       		.uleb128 .LLSDACSE1392-.LLSDACSB1392
 596              	.LLSDACSB1392:
 597 0004 18       		.uleb128 .LEHB12-.LFB1392
 598 0005 05       		.uleb128 .LEHE12-.LEHB12
 599 0006 2C       		.uleb128 .L44-.LFB1392
 600 0007 00       		.uleb128 0
 601 0008 3E       		.uleb128 .LEHB13-.LFB1392
 602 0009 05       		.uleb128 .LEHE13-.LEHB13
 603 000a 00       		.uleb128 0
 604 000b 00       		.uleb128 0
 605              	.LLSDACSE1392:
 606              		.section	.text._ZN23TestQueue_testPutNoWrapD0Ev,"axG",@progbits,_ZN23TestQueue_testPutNoWrapD5Ev,c
 608              		.section	.text._ZN18TestQueue_testInitD2Ev,"axG",@progbits,_ZN18TestQueue_testInitD5Ev,comdat
 609              		.align 2
 610              		.p2align 4
 611              		.weak	_ZN18TestQueue_testInitD2Ev
 613              	_ZN18TestQueue_testInitD2Ev:
 614              	.LFB1394:
 615              		.cfi_startproc
 616 0000 F30F1EFA 		endbr64
 617 0004 488D0500 		leaq	16+_ZTV18TestQueue_testInit(%rip), %rax
 617      000000
 618 000b 488907   		movq	%rax, (%rdi)
 619 000e E9000000 		jmp	_ZN8UnitTest4TestD2Ev@PLT
 619      00
 620              		.cfi_endproc
 621              	.LFE1394:
 623              		.weak	_ZN18TestQueue_testInitD1Ev
 624              		.set	_ZN18TestQueue_testInitD1Ev,_ZN18TestQueue_testInitD2Ev
 625              		.section	.text._ZN18TestQueue_testInitD0Ev,"axG",@progbits,_ZN18TestQueue_testInitD5Ev,comdat
 626              		.align 2
 627              		.p2align 4
 628              		.weak	_ZN18TestQueue_testInitD0Ev
 630              	_ZN18TestQueue_testInitD0Ev:
 631              	.LFB1396:
 632              		.cfi_startproc
 633              		.cfi_personality 0x9b,DW.ref.__gxx_personality_v0
 634              		.cfi_lsda 0x1b,.LLSDA1396
 635 0000 F30F1EFA 		endbr64
 636 0004 4154     		pushq	%r12
 637              		.cfi_def_cfa_offset 16
 638              		.cfi_offset 12, -16
 639 0006 488D0500 		leaq	16+_ZTV18TestQueue_testInit(%rip), %rax
 639      000000
 640 000d 55       		pushq	%rbp
 641              		.cfi_def_cfa_offset 24
 642              		.cfi_offset 6, -24
 643 000e 4889FD   		movq	%rdi, %rbp
 644 0011 4883EC08 		subq	$8, %rsp
 645              		.cfi_def_cfa_offset 32
 646 0015 488907   		movq	%rax, (%rdi)
 647              	.LEHB14:
 648 0018 E8000000 		call	_ZN8UnitTest4TestD2Ev@PLT
 648      00
 649              	.LEHE14:
 650 001d 4883C408 		addq	$8, %rsp
 651              		.cfi_remember_state
 652              		.cfi_def_cfa_offset 24
 653 0021 4889EF   		movq	%rbp, %rdi
 654 0024 5D       		popq	%rbp
 655              		.cfi_def_cfa_offset 16
 656 0025 415C     		popq	%r12
 657              		.cfi_def_cfa_offset 8
 658 0027 E9000000 		jmp	_ZdlPv@PLT
 658      00
 659              	.L49:
 660              		.cfi_restore_state
 661 002c F30F1EFA 		endbr64
 662 0030 4989C4   		movq	%rax, %r12
 663              	.L48:
 664 0033 4889EF   		movq	%rbp, %rdi
 665 0036 E8000000 		call	_ZdlPv@PLT
 665      00
 666 003b 4C89E7   		movq	%r12, %rdi
 667              	.LEHB15:
 668 003e E8000000 		call	_Unwind_Resume@PLT
 668      00
 669              	.LEHE15:
 670              		.cfi_endproc
 671              	.LFE1396:
 672              		.section	.gcc_except_table._ZN18TestQueue_testInitD0Ev,"aG",@progbits,_ZN18TestQueue_testInitD5Ev,
 673              	.LLSDA1396:
 674 0000 FF       		.byte	0xff
 675 0001 FF       		.byte	0xff
 676 0002 01       		.byte	0x1
 677 0003 08       		.uleb128 .LLSDACSE1396-.LLSDACSB1396
 678              	.LLSDACSB1396:
 679 0004 18       		.uleb128 .LEHB14-.LFB1396
 680 0005 05       		.uleb128 .LEHE14-.LEHB14
 681 0006 2C       		.uleb128 .L49-.LFB1396
 682 0007 00       		.uleb128 0
 683 0008 3E       		.uleb128 .LEHB15-.LFB1396
 684 0009 05       		.uleb128 .LEHE15-.LEHB15
 685 000a 00       		.uleb128 0
 686 000b 00       		.uleb128 0
 687              	.LLSDACSE1396:
 688              		.section	.text._ZN18TestQueue_testInitD0Ev,"axG",@progbits,_ZN18TestQueue_testInitD5Ev,comdat
 690              		.text
 691 0035 66662E0F 		.p2align 4
 691      1F840000 
 691      000000
 692              		.globl	destroyInt
 694              	destroyInt:
 695              	.LFB1241:
 696              		.cfi_startproc
 697 0040 F30F1EFA 		endbr64
 698 0044 4885FF   		testq	%rdi, %rdi
 699 0047 740F     		je	.L51
 700 0049 832D0000 		subl	$1, _ZL11m_allocFree(%rip)
 700      000001
 701 0050 E9000000 		jmp	free@PLT
 701      00
 702              		.p2align 4,,10
 703 0055 0F1F00   		.p2align 3
 704              	.L51:
 705 0058 C3       		ret
 706              		.cfi_endproc
 707              	.LFE1241:
 709              		.section	.text._ZN8UnitTest15MemoryOutStreamD1Ev,"axG",@progbits,_ZN8UnitTest15MemoryOutStreamD1Ev
 710              		.align 2
 711              		.p2align 4
 712              		.weak	_ZN8UnitTest15MemoryOutStreamD1Ev
 714              	_ZN8UnitTest15MemoryOutStreamD1Ev:
 715              	.LFB1306:
 716              		.cfi_startproc
 717 0000 F30F1EFA 		endbr64
 718 0004 55       		pushq	%rbp
 719              		.cfi_def_cfa_offset 16
 720              		.cfi_offset 6, -16
 721 0005 488D0500 		leaq	24+_ZTVN8UnitTest15MemoryOutStreamE(%rip), %rax
 721      000000
 722 000c 53       		pushq	%rbx
 723              		.cfi_def_cfa_offset 24
 724              		.cfi_offset 3, -24
 725 000d 4889FB   		movq	%rdi, %rbx
 726 0010 4883EC08 		subq	$8, %rsp
 727              		.cfi_def_cfa_offset 32
 728 0014 488907   		movq	%rax, (%rdi)
 729 0017 4883C028 		addq	$40, %rax
 730 001b 48898790 		movq	%rax, 144(%rdi)
 730      000000
 731 0022 488B7F70 		movq	112(%rdi), %rdi
 732 0026 488D8380 		leaq	128(%rbx), %rax
 732      000000
 733 002d 4839C7   		cmpq	%rax, %rdi
 734 0030 7405     		je	.L54
 735 0032 E8000000 		call	_ZdlPv@PLT
 735      00
 736              	.L54:
 737 0037 488D0500 		leaq	64+_ZTCN8UnitTest15MemoryOutStreamE0_NSt7__cxx1119basic_ostringstreamIcSt11char_traitsIcESaIc
 737      000000
 738 003e 488D1500 		leaq	24+_ZTCN8UnitTest15MemoryOutStreamE0_NSt7__cxx1119basic_ostringstreamIcSt11char_traitsIcESaIc
 738      000000
 739 0045 488B7B50 		movq	80(%rbx), %rdi
 740 0049 48898390 		movq	%rax, 144(%rbx)
 740      000000
 741 0050 488D0500 		leaq	16+_ZTVNSt7__cxx1115basic_stringbufIcSt11char_traitsIcESaIcEEE(%rip), %rax
 741      000000
 742 0057 66480F6E 		movq	%rdx, %xmm0
 742      C2
 743 005c 488DAB90 		leaq	144(%rbx), %rbp
 743      000000
 744 0063 66480F6E 		movq	%rax, %xmm1
 744      C8
 745 0068 488D4360 		leaq	96(%rbx), %rax
 746 006c 660F6CC1 		punpcklqdq	%xmm1, %xmm0
 747 0070 0F1103   		movups	%xmm0, (%rbx)
 748 0073 4839C7   		cmpq	%rax, %rdi
 749 0076 7405     		je	.L55
 750 0078 E8000000 		call	_ZdlPv@PLT
 750      00
 751              	.L55:
 752 007d 488D0500 		leaq	16+_ZTVSt15basic_streambufIcSt11char_traitsIcEE(%rip), %rax
 752      000000
 753 0084 488D7B40 		leaq	64(%rbx), %rdi
 754 0088 48894308 		movq	%rax, 8(%rbx)
 755 008c E8000000 		call	_ZNSt6localeD1Ev@PLT
 755      00
 756 0091 488D0500 		leaq	24+_ZTCN8UnitTest15MemoryOutStreamE0_So(%rip), %rax
 756      000000
 757 0098 4889EF   		movq	%rbp, %rdi
 758 009b 488903   		movq	%rax, (%rbx)
 759 009e 488D0500 		leaq	16+_ZTVSt9basic_iosIcSt11char_traitsIcEE(%rip), %rax
 759      000000
 760 00a5 48898390 		movq	%rax, 144(%rbx)
 760      000000
 761 00ac 4883C408 		addq	$8, %rsp
 762              		.cfi_def_cfa_offset 24
 763 00b0 5B       		popq	%rbx
 764              		.cfi_def_cfa_offset 16
 765 00b1 5D       		popq	%rbp
 766              		.cfi_def_cfa_offset 8
 767 00b2 E9000000 		jmp	_ZNSt8ios_baseD2Ev@PLT
 767      00
 768              		.cfi_endproc
 769              	.LFE1306:
 771 00b7 660F1F84 		.p2align 4
 771      00000000 
 771      00
 772              		.weak	_ZTv0_n24_N8UnitTest15MemoryOutStreamD1Ev
 774              	_ZTv0_n24_N8UnitTest15MemoryOutStreamD1Ev:
 775              	.LFB1402:
 776              		.cfi_startproc
 777 00c0 F30F1EFA 		endbr64
 778 00c4 55       		pushq	%rbp
 779              		.cfi_def_cfa_offset 16
 780              		.cfi_offset 6, -16
 781 00c5 53       		pushq	%rbx
 782              		.cfi_def_cfa_offset 24
 783              		.cfi_offset 3, -24
 784 00c6 4889FB   		movq	%rdi, %rbx
 785 00c9 4883EC08 		subq	$8, %rsp
 786              		.cfi_def_cfa_offset 32
 787 00cd 488B07   		movq	(%rdi), %rax
 788 00d0 480358E8 		addq	-24(%rax), %rbx
 789 00d4 488D0500 		leaq	24+_ZTVN8UnitTest15MemoryOutStreamE(%rip), %rax
 789      000000
 790 00db 488903   		movq	%rax, (%rbx)
 791 00de 488B7B70 		movq	112(%rbx), %rdi
 792 00e2 4883C028 		addq	$40, %rax
 793 00e6 48898390 		movq	%rax, 144(%rbx)
 793      000000
 794 00ed 488D8380 		leaq	128(%rbx), %rax
 794      000000
 795 00f4 4839C7   		cmpq	%rax, %rdi
 796 00f7 7405     		je	.L58
 797 00f9 E8000000 		call	_ZdlPv@PLT
 797      00
 798              	.L58:
 799 00fe 488D0500 		leaq	64+_ZTCN8UnitTest15MemoryOutStreamE0_NSt7__cxx1119basic_ostringstreamIcSt11char_traitsIcESaIc
 799      000000
 800 0105 488D1500 		leaq	24+_ZTCN8UnitTest15MemoryOutStreamE0_NSt7__cxx1119basic_ostringstreamIcSt11char_traitsIcESaIc
 800      000000
 801 010c 488B7B50 		movq	80(%rbx), %rdi
 802 0110 48898390 		movq	%rax, 144(%rbx)
 802      000000
 803 0117 488D0500 		leaq	16+_ZTVNSt7__cxx1115basic_stringbufIcSt11char_traitsIcESaIcEEE(%rip), %rax
 803      000000
 804 011e 66480F6E 		movq	%rdx, %xmm0
 804      C2
 805 0123 488DAB90 		leaq	144(%rbx), %rbp
 805      000000
 806 012a 66480F6E 		movq	%rax, %xmm1
 806      C8
 807 012f 488D4360 		leaq	96(%rbx), %rax
 808 0133 660F6CC1 		punpcklqdq	%xmm1, %xmm0
 809 0137 0F1103   		movups	%xmm0, (%rbx)
 810 013a 4839C7   		cmpq	%rax, %rdi
 811 013d 7405     		je	.L59
 812 013f E8000000 		call	_ZdlPv@PLT
 812      00
 813              	.L59:
 814 0144 488D0500 		leaq	16+_ZTVSt15basic_streambufIcSt11char_traitsIcEE(%rip), %rax
 814      000000
 815 014b 488D7B40 		leaq	64(%rbx), %rdi
 816 014f 48894308 		movq	%rax, 8(%rbx)
 817 0153 E8000000 		call	_ZNSt6localeD1Ev@PLT
 817      00
 818 0158 488D0500 		leaq	24+_ZTCN8UnitTest15MemoryOutStreamE0_So(%rip), %rax
 818      000000
 819 015f 4889EF   		movq	%rbp, %rdi
 820 0162 488903   		movq	%rax, (%rbx)
 821 0165 488D0500 		leaq	16+_ZTVSt9basic_iosIcSt11char_traitsIcEE(%rip), %rax
 821      000000
 822 016c 48898390 		movq	%rax, 144(%rbx)
 822      000000
 823 0173 4883C408 		addq	$8, %rsp
 824              		.cfi_def_cfa_offset 24
 825 0177 5B       		popq	%rbx
 826              		.cfi_def_cfa_offset 16
 827 0178 5D       		popq	%rbp
 828              		.cfi_def_cfa_offset 8
 829 0179 E9000000 		jmp	_ZNSt8ios_baseD2Ev@PLT
 829      00
 830              		.cfi_endproc
 831              	.LFE1402:
 833              		.section	.text._ZN8UnitTest15MemoryOutStreamD0Ev,"axG",@progbits,_ZN8UnitTest15MemoryOutStreamD0Ev
 834              		.align 2
 835              		.p2align 4
 836              		.weak	_ZN8UnitTest15MemoryOutStreamD0Ev
 838              	_ZN8UnitTest15MemoryOutStreamD0Ev:
 839              	.LFB1307:
 840              		.cfi_startproc
 841              		.cfi_personality 0x9b,DW.ref.__gxx_personality_v0
 842              		.cfi_lsda 0x1b,.LLSDA1307
 843 0000 F30F1EFA 		endbr64
 844 0004 4154     		pushq	%r12
 845              		.cfi_def_cfa_offset 16
 846              		.cfi_offset 12, -16
 847 0006 488D0500 		leaq	24+_ZTVN8UnitTest15MemoryOutStreamE(%rip), %rax
 847      000000
 848 000d 55       		pushq	%rbp
 849              		.cfi_def_cfa_offset 24
 850              		.cfi_offset 6, -24
 851 000e 4889FD   		movq	%rdi, %rbp
 852 0011 4883EC08 		subq	$8, %rsp
 853              		.cfi_def_cfa_offset 32
 854 0015 488907   		movq	%rax, (%rdi)
 855 0018 4883C028 		addq	$40, %rax
 856 001c 48898790 		movq	%rax, 144(%rdi)
 856      000000
 857 0023 488B7F70 		movq	112(%rdi), %rdi
 858 0027 488D8580 		leaq	128(%rbp), %rax
 858      000000
 859 002e 4839C7   		cmpq	%rax, %rdi
 860 0031 7405     		je	.L62
 861 0033 E8000000 		call	_ZdlPv@PLT
 861      00
 862              	.L62:
 863 0038 488D0500 		leaq	64+_ZTCN8UnitTest15MemoryOutStreamE0_NSt7__cxx1119basic_ostringstreamIcSt11char_traitsIcESaIc
 863      000000
 864 003f 488D1500 		leaq	24+_ZTCN8UnitTest15MemoryOutStreamE0_NSt7__cxx1119basic_ostringstreamIcSt11char_traitsIcESaIc
 864      000000
 865 0046 488B7D50 		movq	80(%rbp), %rdi
 866 004a 48898590 		movq	%rax, 144(%rbp)
 866      000000
 867 0051 488D0500 		leaq	16+_ZTVNSt7__cxx1115basic_stringbufIcSt11char_traitsIcESaIcEEE(%rip), %rax
 867      000000
 868 0058 66480F6E 		movq	%rdx, %xmm0
 868      C2
 869 005d 4C8DA590 		leaq	144(%rbp), %r12
 869      000000
 870 0064 66480F6E 		movq	%rax, %xmm1
 870      C8
 871 0069 488D4560 		leaq	96(%rbp), %rax
 872 006d 660F6CC1 		punpcklqdq	%xmm1, %xmm0
 873 0071 0F114500 		movups	%xmm0, 0(%rbp)
 874 0075 4839C7   		cmpq	%rax, %rdi
 875 0078 7405     		je	.L63
 876 007a E8000000 		call	_ZdlPv@PLT
 876      00
 877              	.L63:
 878 007f 488D0500 		leaq	16+_ZTVSt15basic_streambufIcSt11char_traitsIcEE(%rip), %rax
 878      000000
 879 0086 488D7D40 		leaq	64(%rbp), %rdi
 880 008a 48894508 		movq	%rax, 8(%rbp)
 881 008e E8000000 		call	_ZNSt6localeD1Ev@PLT
 881      00
 882 0093 488D0500 		leaq	24+_ZTCN8UnitTest15MemoryOutStreamE0_So(%rip), %rax
 882      000000
 883 009a 4C89E7   		movq	%r12, %rdi
 884 009d 48894500 		movq	%rax, 0(%rbp)
 885 00a1 488D0500 		leaq	16+_ZTVSt9basic_iosIcSt11char_traitsIcEE(%rip), %rax
 885      000000
 886 00a8 48898590 		movq	%rax, 144(%rbp)
 886      000000
 887              	.LEHB16:
 888 00af E8000000 		call	_ZNSt8ios_baseD2Ev@PLT
 888      00
 889              	.LEHE16:
 890 00b4 4883C408 		addq	$8, %rsp
 891              		.cfi_remember_state
 892              		.cfi_def_cfa_offset 24
 893 00b8 4889EF   		movq	%rbp, %rdi
 894 00bb 5D       		popq	%rbp
 895              		.cfi_def_cfa_offset 16
 896 00bc 415C     		popq	%r12
 897              		.cfi_def_cfa_offset 8
 898 00be E9000000 		jmp	_ZdlPv@PLT
 898      00
 899              	.L65:
 900              		.cfi_restore_state
 901 00c3 F30F1EFA 		endbr64
 902 00c7 4989C4   		movq	%rax, %r12
 903              	.L64:
 904 00ca 4889EF   		movq	%rbp, %rdi
 905 00cd E8000000 		call	_ZdlPv@PLT
 905      00
 906 00d2 4C89E7   		movq	%r12, %rdi
 907              	.LEHB17:
 908 00d5 E8000000 		call	_Unwind_Resume@PLT
 908      00
 909              	.LEHE17:
 910              		.cfi_endproc
 911              	.LFE1307:
 912              		.section	.gcc_except_table._ZN8UnitTest15MemoryOutStreamD0Ev,"aG",@progbits,_ZN8UnitTest15MemoryOu
 913              	.LLSDA1307:
 914 0000 FF       		.byte	0xff
 915 0001 FF       		.byte	0xff
 916 0002 01       		.byte	0x1
 917 0003 0B       		.uleb128 .LLSDACSE1307-.LLSDACSB1307
 918              	.LLSDACSB1307:
 919 0004 AF01     		.uleb128 .LEHB16-.LFB1307
 920 0006 05       		.uleb128 .LEHE16-.LEHB16
 921 0007 C301     		.uleb128 .L65-.LFB1307
 922 0009 00       		.uleb128 0
 923 000a D501     		.uleb128 .LEHB17-.LFB1307
 924 000c 05       		.uleb128 .LEHE17-.LEHB17
 925 000d 00       		.uleb128 0
 926 000e 00       		.uleb128 0
 927              	.LLSDACSE1307:
 928              		.section	.text._ZN8UnitTest15MemoryOutStreamD0Ev,"axG",@progbits,_ZN8UnitTest15MemoryOutStreamD0Ev
 930 00da 660F1F44 		.p2align 4
 930      0000
 931              		.weak	_ZTv0_n24_N8UnitTest15MemoryOutStreamD0Ev
 933              	_ZTv0_n24_N8UnitTest15MemoryOutStreamD0Ev:
 934              	.LFB1401:
 935              		.cfi_startproc
 936              		.cfi_personality 0x9b,DW.ref.__gxx_personality_v0
 937              		.cfi_lsda 0x1b,.LLSDA1401
 938 00e0 F30F1EFA 		endbr64
 939 00e4 4154     		pushq	%r12
 940              		.cfi_def_cfa_offset 16
 941              		.cfi_offset 12, -16
 942 00e6 55       		pushq	%rbp
 943              		.cfi_def_cfa_offset 24
 944              		.cfi_offset 6, -24
 945 00e7 4889FD   		movq	%rdi, %rbp
 946 00ea 4883EC08 		subq	$8, %rsp
 947              		.cfi_def_cfa_offset 32
 948 00ee 488B07   		movq	(%rdi), %rax
 949 00f1 480368E8 		addq	-24(%rax), %rbp
 950 00f5 488D0500 		leaq	24+_ZTVN8UnitTest15MemoryOutStreamE(%rip), %rax
 950      000000
 951 00fc 48894500 		movq	%rax, 0(%rbp)
 952 0100 488B7D70 		movq	112(%rbp), %rdi
 953 0104 4883C028 		addq	$40, %rax
 954 0108 48898590 		movq	%rax, 144(%rbp)
 954      000000
 955 010f 488D8580 		leaq	128(%rbp), %rax
 955      000000
 956 0116 4839C7   		cmpq	%rax, %rdi
 957 0119 7405     		je	.L68
 958 011b E8000000 		call	_ZdlPv@PLT
 958      00
 959              	.L68:
 960 0120 488D0500 		leaq	64+_ZTCN8UnitTest15MemoryOutStreamE0_NSt7__cxx1119basic_ostringstreamIcSt11char_traitsIcESaIc
 960      000000
 961 0127 488D1500 		leaq	24+_ZTCN8UnitTest15MemoryOutStreamE0_NSt7__cxx1119basic_ostringstreamIcSt11char_traitsIcESaIc
 961      000000
 962 012e 488B7D50 		movq	80(%rbp), %rdi
 963 0132 48898590 		movq	%rax, 144(%rbp)
 963      000000
 964 0139 488D0500 		leaq	16+_ZTVNSt7__cxx1115basic_stringbufIcSt11char_traitsIcESaIcEEE(%rip), %rax
 964      000000
 965 0140 66480F6E 		movq	%rdx, %xmm0
 965      C2
 966 0145 4C8DA590 		leaq	144(%rbp), %r12
 966      000000
 967 014c 66480F6E 		movq	%rax, %xmm1
 967      C8
 968 0151 488D4560 		leaq	96(%rbp), %rax
 969 0155 660F6CC1 		punpcklqdq	%xmm1, %xmm0
 970 0159 0F114500 		movups	%xmm0, 0(%rbp)
 971 015d 4839C7   		cmpq	%rax, %rdi
 972 0160 7405     		je	.L69
 973 0162 E8000000 		call	_ZdlPv@PLT
 973      00
 974              	.L69:
 975 0167 488D0500 		leaq	16+_ZTVSt15basic_streambufIcSt11char_traitsIcEE(%rip), %rax
 975      000000
 976 016e 488D7D40 		leaq	64(%rbp), %rdi
 977 0172 48894508 		movq	%rax, 8(%rbp)
 978 0176 E8000000 		call	_ZNSt6localeD1Ev@PLT
 978      00
 979 017b 488D0500 		leaq	24+_ZTCN8UnitTest15MemoryOutStreamE0_So(%rip), %rax
 979      000000
 980 0182 4C89E7   		movq	%r12, %rdi
 981 0185 48894500 		movq	%rax, 0(%rbp)
 982 0189 488D0500 		leaq	16+_ZTVSt9basic_iosIcSt11char_traitsIcEE(%rip), %rax
 982      000000
 983 0190 48898590 		movq	%rax, 144(%rbp)
 983      000000
 984              	.LEHB18:
 985 0197 E8000000 		call	_ZNSt8ios_baseD2Ev@PLT
 985      00
 986              	.LEHE18:
 987 019c 4883C408 		addq	$8, %rsp
 988              		.cfi_remember_state
 989              		.cfi_def_cfa_offset 24
 990 01a0 4889EF   		movq	%rbp, %rdi
 991 01a3 5D       		popq	%rbp
 992              		.cfi_def_cfa_offset 16
 993 01a4 415C     		popq	%r12
 994              		.cfi_def_cfa_offset 8
 995 01a6 E9000000 		jmp	_ZdlPv@PLT
 995      00
 996              	.L71:
 997              		.cfi_restore_state
 998 01ab F30F1EFA 		endbr64
 999 01af 4989C4   		movq	%rax, %r12
 1000              	.L70:
 1001 01b2 4889EF   		movq	%rbp, %rdi
 1002 01b5 E8000000 		call	_ZdlPv@PLT
 1002      00
 1003 01ba 4C89E7   		movq	%r12, %rdi
 1004              	.LEHB19:
 1005 01bd E8000000 		call	_Unwind_Resume@PLT
 1005      00
 1006              	.LEHE19:
 1007              		.cfi_endproc
 1008              	.LFE1401:
 1009              		.section	.gcc_except_table._ZTv0_n24_N8UnitTest15MemoryOutStreamD0Ev,"aG",@progbits,_ZN8UnitTest15
 1010              	.LLSDA1401:
 1011 0000 FF       		.byte	0xff
 1012 0001 FF       		.byte	0xff
 1013 0002 01       		.byte	0x1
 1014 0003 0B       		.uleb128 .LLSDACSE1401-.LLSDACSB1401
 1015              	.LLSDACSB1401:
 1016 0004 B701     		.uleb128 .LEHB18-.LFB1401
 1017 0006 05       		.uleb128 .LEHE18-.LEHB18
 1018 0007 CB01     		.uleb128 .L71-.LFB1401
 1019 0009 00       		.uleb128 0
 1020 000a DD01     		.uleb128 .LEHB19-.LFB1401
 1021 000c 05       		.uleb128 .LEHE19-.LEHB19
 1022 000d 00       		.uleb128 0
 1023 000e 00       		.uleb128 0
 1024              	.LLSDACSE1401:
 1025              		.section	.text._ZN8UnitTest15MemoryOutStreamD0Ev,"axG",@progbits,_ZN8UnitTest15MemoryOutStreamD0Ev
 1027              		.section	.text._ZNSt7__cxx1115basic_stringbufIcSt11char_traitsIcESaIcEED2Ev,"axG",@progbits,_ZNSt7
 1028              		.align 2
 1029              		.p2align 4
 1030              		.weak	_ZNSt7__cxx1115basic_stringbufIcSt11char_traitsIcESaIcEED2Ev
 1032              	_ZNSt7__cxx1115basic_stringbufIcSt11char_traitsIcESaIcEED2Ev:
 1033              	.LFB1285:
 1034              		.cfi_startproc
 1035 0000 F30F1EFA 		endbr64
 1036 0004 488D0500 		leaq	16+_ZTVNSt7__cxx1115basic_stringbufIcSt11char_traitsIcESaIcEEE(%rip), %rax
 1036      000000
 1037 000b 53       		pushq	%rbx
 1038              		.cfi_def_cfa_offset 16
 1039              		.cfi_offset 3, -16
 1040 000c 4889FB   		movq	%rdi, %rbx
 1041 000f 488907   		movq	%rax, (%rdi)
 1042 0012 488B7F48 		movq	72(%rdi), %rdi
 1043 0016 488D4358 		leaq	88(%rbx), %rax
 1044 001a 4839C7   		cmpq	%rax, %rdi
 1045 001d 7405     		je	.L74
 1046 001f E8000000 		call	_ZdlPv@PLT
 1046      00
 1047              	.L74:
 1048 0024 488D0500 		leaq	16+_ZTVSt15basic_streambufIcSt11char_traitsIcEE(%rip), %rax
 1048      000000
 1049 002b 488D7B38 		leaq	56(%rbx), %rdi
 1050 002f 488903   		movq	%rax, (%rbx)
 1051 0032 5B       		popq	%rbx
 1052              		.cfi_def_cfa_offset 8
 1053 0033 E9000000 		jmp	_ZNSt6localeD1Ev@PLT
 1053      00
 1054              		.cfi_endproc
 1055              	.LFE1285:
 1057              		.weak	_ZNSt7__cxx1115basic_stringbufIcSt11char_traitsIcESaIcEED1Ev
 1058              		.set	_ZNSt7__cxx1115basic_stringbufIcSt11char_traitsIcESaIcEED1Ev,_ZNSt7__cxx1115basic_stringbufIc
 1059              		.section	.rodata.str1.1,"aMS",@progbits,1
 1060              	.LC0:
 1061 0000 45787065 		.string	"Expected "
 1061      63746564 
 1061      2000
 1062              	.LC1:
 1063 000a 20627574 		.string	" but was "
 1063      20776173 
 1063      2000
 1064              		.section	.rodata.str1.8,"aMS",@progbits,1
 1065              		.align 8
 1066              	.LC2:
 1067 0000 556E6861 		.string	"Unhandled exception in CHECK_EQUAL(0, m_allocFree)"
 1067      6E646C65 
 1067      64206578 
 1067      63657074 
 1067      696F6E20 
 1068              		.section	.text.unlikely,"ax",@progbits
 1069              		.align 2
 1070              	.LCOLDB6:
 1071              		.text
 1072              	.LHOTB6:
 1073 0059 90       		.align 2
 1074 005a 660F1F44 		.p2align 4
 1074      0000
 1075              		.globl	_ZNK31TestQueue_testAllocFreeMatching7RunImplEv
 1077              	_ZNK31TestQueue_testAllocFreeMatching7RunImplEv:
 1078              	.LFB1275:
 1079              		.cfi_startproc
 1080              		.cfi_personality 0x9b,DW.ref.__gxx_personality_v0
 1081              		.cfi_lsda 0x1b,.LLSDA1275
 1082 0060 F30F1EFA 		endbr64
 1083 0064 4157     		pushq	%r15
 1084              		.cfi_def_cfa_offset 16
 1085              		.cfi_offset 15, -16
 1086 0066 4156     		pushq	%r14
 1087              		.cfi_def_cfa_offset 24
 1088              		.cfi_offset 14, -24
 1089 0068 4155     		pushq	%r13
 1090              		.cfi_def_cfa_offset 32
 1091              		.cfi_offset 13, -32
 1092 006a 4154     		pushq	%r12
 1093              		.cfi_def_cfa_offset 40
 1094              		.cfi_offset 12, -40
 1095 006c 55       		pushq	%rbp
 1096              		.cfi_def_cfa_offset 48
 1097              		.cfi_offset 6, -48
 1098 006d 53       		pushq	%rbx
 1099              		.cfi_def_cfa_offset 56
 1100              		.cfi_offset 3, -56
 1101 006e 4881ECE8 		subq	$488, %rsp
 1101      010000
 1102              		.cfi_def_cfa_offset 544
 1103 0075 64488B04 		movq	%fs:40, %rax
 1103      25280000 
 1103      00
 1104 007e 48898424 		movq	%rax, 472(%rsp)
 1104      D8010000 
 1105 0086 31C0     		xorl	%eax, %eax
 1106              	.LEHB20:
 1107 0088 E8000000 		call	_ZN8UnitTest11CurrentTest7DetailsEv@PLT
 1107      00
 1108 008d 488D6C24 		leaq	32(%rsp), %rbp
 1108      20
 1109 0092 488B30   		movq	(%rax), %rsi
 1110 0095 BA810100 		movl	$385, %edx
 1110      00
 1111 009a 4889EF   		movq	%rbp, %rdi
 1112 009d E8000000 		call	_ZN8UnitTest11TestDetailsC1ERKS0_i@PLT
 1112      00
 1113 00a2 E8000000 		call	_ZN8UnitTest11CurrentTest7ResultsEv@PLT
 1113      00
 1114              	.LEHE20:
 1115 00a7 F30F7E0D 		movq	.LC3(%rip), %xmm1
 1115      00000000 
 1116 00af 8B150000 		movl	_ZL11m_allocFree(%rip), %edx
 1116      0000
 1117 00b5 4C8B38   		movq	(%rax), %r15
 1118 00b8 0F160D00 		movhps	.LC4(%rip), %xmm1
 1118      000000
 1119 00bf 0F290C24 		movaps	%xmm1, (%rsp)
 1120 00c3 85D2     		testl	%edx, %edx
 1121 00c5 7529     		jne	.L98
 1122              	.L76:
 1123 00c7 488B8424 		movq	472(%rsp), %rax
 1123      D8010000 
 1124 00cf 64482B04 		subq	%fs:40, %rax
 1124      25280000 
 1124      00
 1125 00d8 0F854A02 		jne	.L99
 1125      0000
 1126 00de 4881C4E8 		addq	$488, %rsp
 1126      010000
 1127              		.cfi_remember_state
 1128              		.cfi_def_cfa_offset 56
 1129 00e5 5B       		popq	%rbx
 1130              		.cfi_def_cfa_offset 48
 1131 00e6 5D       		popq	%rbp
 1132              		.cfi_def_cfa_offset 40
 1133 00e7 415C     		popq	%r12
 1134              		.cfi_def_cfa_offset 32
 1135 00e9 415D     		popq	%r13
 1136              		.cfi_def_cfa_offset 24
 1137 00eb 415E     		popq	%r14
 1138              		.cfi_def_cfa_offset 16
 1139 00ed 415F     		popq	%r15
 1140              		.cfi_def_cfa_offset 8
 1141 00ef C3       		ret
 1142              		.p2align 4,,10
 1143              		.p2align 3
 1144              	.L98:
 1145              		.cfi_restore_state
 1146 00f0 4C8DB424 		leaq	208(%rsp), %r14
 1146      D0000000 
 1147 00f8 4C89F7   		movq	%r14, %rdi
 1148 00fb E8000000 		call	_ZNSt8ios_baseC2Ev@PLT
 1148      00
 1149 0100 31C0     		xorl	%eax, %eax
 1150 0102 660FEFC0 		pxor	%xmm0, %xmm0
 1151 0106 31F6     		xorl	%esi, %esi
 1152 0108 66898424 		movw	%ax, 432(%rsp)
 1152      B0010000 
 1153 0110 488D0500 		leaq	24+_ZTCN8UnitTest15MemoryOutStreamE0_So(%rip), %rax
 1153      000000
 1154 0117 4C89F7   		movq	%r14, %rdi
 1155 011a 48894424 		movq	%rax, 64(%rsp)
 1155      40
 1156 011f 4883C028 		addq	$40, %rax
 1157 0123 48C78424 		movq	$0, 424(%rsp)
 1157      A8010000 
 1157      00000000 
 1158 012f 48898424 		movq	%rax, 208(%rsp)
 1158      D0000000 
 1159 0137 0F118424 		movups	%xmm0, 440(%rsp)
 1159      B8010000 
 1160 013f 0F118424 		movups	%xmm0, 456(%rsp)
 1160      C8010000 
 1161              	.LEHB21:
 1162 0147 E8000000 		call	_ZNSt9basic_iosIcSt11char_traitsIcEE4initEPSt15basic_streambufIcS1_E@PLT
 1162      00
 1163              	.LEHE21:
 1164 014c 660F6F0C 		movdqa	(%rsp), %xmm1
 1164      24
 1165 0151 660FEFC0 		pxor	%xmm0, %xmm0
 1166 0155 488D9C24 		leaq	128(%rsp), %rbx
 1166      80000000 
 1167 015d 488D0500 		leaq	64+_ZTCN8UnitTest15MemoryOutStreamE0_NSt7__cxx1119basic_ostringstreamIcSt11char_traitsIcESaIc
 1167      000000
 1168 0164 4889DF   		movq	%rbx, %rdi
 1169 0167 0F294424 		movaps	%xmm0, 80(%rsp)
 1169      50
 1170 016c 4C8D6424 		leaq	64(%rsp), %r12
 1170      40
 1171 0171 4C8D6C24 		leaq	72(%rsp), %r13
 1171      48
 1172 0176 48898424 		movq	%rax, 208(%rsp)
 1172      D0000000 
 1173 017e 0F294C24 		movaps	%xmm1, 64(%rsp)
 1173      40
 1174 0183 0F294424 		movaps	%xmm0, 96(%rsp)
 1174      60
 1175 0188 0F294424 		movaps	%xmm0, 112(%rsp)
 1175      70
 1176 018d E8000000 		call	_ZNSt6localeC1Ev@PLT
 1176      00
 1177 0192 488D0500 		leaq	16+_ZTVNSt7__cxx1115basic_stringbufIcSt11char_traitsIcESaIcEEE(%rip), %rax
 1177      000000
 1178 0199 C68424A0 		movb	$0, 160(%rsp)
 1178      00000000 
 1179 01a1 4C89EE   		movq	%r13, %rsi
 1180 01a4 48894424 		movq	%rax, 72(%rsp)
 1180      48
 1181 01a9 488D8424 		leaq	160(%rsp), %rax
 1181      A0000000 
 1182 01b1 48890424 		movq	%rax, (%rsp)
 1183 01b5 48898424 		movq	%rax, 144(%rsp)
 1183      90000000 
 1184 01bd 488B4424 		movq	64(%rsp), %rax
 1184      40
 1185 01c2 48C78424 		movq	$0, 152(%rsp)
 1185      98000000 
 1185      00000000 
 1186 01ce C7842488 		movl	$16, 136(%rsp)
 1186      00000010 
 1186      000000
 1187 01d9 488B78E8 		movq	-24(%rax), %rdi
 1188 01dd 4C01E7   		addq	%r12, %rdi
 1189              	.LEHB22:
 1190 01e0 E8000000 		call	_ZNSt9basic_iosIcSt11char_traitsIcEE4initEPSt15basic_streambufIcS1_E@PLT
 1190      00
 1191              	.LEHE22:
 1192 01e5 488D0500 		leaq	24+_ZTVN8UnitTest15MemoryOutStreamE(%rip), %rax
 1192      000000
 1193 01ec BA090000 		movl	$9, %edx
 1193      00
 1194 01f1 4C89E7   		movq	%r12, %rdi
 1195 01f4 48C78424 		movq	$0, 184(%rsp)
 1195      B8000000 
 1195      00000000 
 1196 0200 48894424 		movq	%rax, 64(%rsp)
 1196      40
 1197 0205 4883C028 		addq	$40, %rax
 1198 0209 488D3500 		leaq	.LC0(%rip), %rsi
 1198      000000
 1199 0210 48898424 		movq	%rax, 208(%rsp)
 1199      D0000000 
 1200 0218 488D8424 		leaq	192(%rsp), %rax
 1200      C0000000 
 1201 0220 48894424 		movq	%rax, 16(%rsp)
 1201      10
 1202 0225 48898424 		movq	%rax, 176(%rsp)
 1202      B0000000 
 1203 022d C68424C0 		movb	$0, 192(%rsp)
 1203      00000000 
 1204              	.LEHB23:
 1205 0235 E8000000 		call	_ZSt16__ostream_insertIcSt11char_traitsIcEERSt13basic_ostreamIT_T0_ES6_PKS3_l@PLT
 1205      00
 1206 023a 31F6     		xorl	%esi, %esi
 1207 023c 4C89E7   		movq	%r12, %rdi
 1208 023f E8000000 		call	_ZNSolsEi@PLT
 1208      00
 1209 0244 BA090000 		movl	$9, %edx
 1209      00
 1210 0249 488D3500 		leaq	.LC1(%rip), %rsi
 1210      000000
 1211 0250 4889C7   		movq	%rax, %rdi
 1212 0253 4989C5   		movq	%rax, %r13
 1213 0256 E8000000 		call	_ZSt16__ostream_insertIcSt11char_traitsIcEERSt13basic_ostreamIT_T0_ES6_PKS3_l@PLT
 1213      00
 1214 025b 8B350000 		movl	_ZL11m_allocFree(%rip), %esi
 1214      0000
 1215 0261 4C89EF   		movq	%r13, %rdi
 1216 0264 E8000000 		call	_ZNSolsEi@PLT
 1216      00
 1217 0269 4C89E7   		movq	%r12, %rdi
 1218 026c E8000000 		call	_ZNK8UnitTest15MemoryOutStream7GetTextEv@PLT
 1218      00
 1219 0271 4889C2   		movq	%rax, %rdx
 1220 0274 4889EE   		movq	%rbp, %rsi
 1221 0277 4C89FF   		movq	%r15, %rdi
 1222 027a E8000000 		call	_ZN8UnitTest11TestResults13OnTestFailureERKNS_11TestDetailsEPKc@PLT
 1222      00
 1223              	.LEHE23:
 1224 027f 488D0500 		leaq	24+_ZTVN8UnitTest15MemoryOutStreamE(%rip), %rax
 1224      000000
 1225 0286 488BBC24 		movq	176(%rsp), %rdi
 1225      B0000000 
 1226 028e F30F7E05 		movq	.LC3(%rip), %xmm0
 1226      00000000 
 1227 0296 48894424 		movq	%rax, 64(%rsp)
 1227      40
 1228 029b 4883C028 		addq	$40, %rax
 1229 029f 48898424 		movq	%rax, 208(%rsp)
 1229      D0000000 
 1230 02a7 0F160500 		movhps	.LC5(%rip), %xmm0
 1230      000000
 1231 02ae 483B7C24 		cmpq	16(%rsp), %rdi
 1231      10
 1232 02b3 7410     		je	.L83
 1233 02b5 0F294424 		movaps	%xmm0, 16(%rsp)
 1233      10
 1234 02ba E8000000 		call	_ZdlPv@PLT
 1234      00
 1235 02bf 660F6F44 		movdqa	16(%rsp), %xmm0
 1235      2410
 1236              	.L83:
 1237 02c5 488D0500 		leaq	64+_ZTCN8UnitTest15MemoryOutStreamE0_NSt7__cxx1119basic_ostringstreamIcSt11char_traitsIcESaIc
 1237      000000
 1238 02cc 488BBC24 		movq	144(%rsp), %rdi
 1238      90000000 
 1239 02d4 0F294424 		movaps	%xmm0, 64(%rsp)
 1239      40
 1240 02d9 48898424 		movq	%rax, 208(%rsp)
 1240      D0000000 
 1241 02e1 483B3C24 		cmpq	(%rsp), %rdi
 1242 02e5 7405     		je	.L84
 1243 02e7 E8000000 		call	_ZdlPv@PLT
 1243      00
 1244              	.L84:
 1245 02ec 488D0500 		leaq	16+_ZTVSt15basic_streambufIcSt11char_traitsIcEE(%rip), %rax
 1245      000000
 1246 02f3 4889DF   		movq	%rbx, %rdi
 1247 02f6 48894424 		movq	%rax, 72(%rsp)
 1247      48
 1248 02fb E8000000 		call	_ZNSt6localeD1Ev@PLT
 1248      00
 1249 0300 488D0500 		leaq	24+_ZTCN8UnitTest15MemoryOutStreamE0_So(%rip), %rax
 1249      000000
 1250 0307 4C89F7   		movq	%r14, %rdi
 1251 030a 48894424 		movq	%rax, 64(%rsp)
 1251      40
 1252 030f 488D0500 		leaq	16+_ZTVSt9basic_iosIcSt11char_traitsIcEE(%rip), %rax
 1252      000000
 1253 0316 48898424 		movq	%rax, 208(%rsp)
 1253      D0000000 
 1254              	.LEHB24:
 1255 031e E8000000 		call	_ZNSt8ios_baseD2Ev@PLT
 1255      00
 1256              	.LEHE24:
 1257 0323 E99FFDFF 		jmp	.L76
 1257      FF
 1258              	.L99:
 1259 0328 E8000000 		call	__stack_chk_fail@PLT
 1259      00
 1260              	.L90:
 1261 032d F30F1EFA 		endbr64
 1262 0331 4889C7   		movq	%rax, %rdi
 1263 0334 E9000000 		jmp	.L82
 1263      00
 1264              	.L93:
 1265 0339 F30F1EFA 		endbr64
 1266 033d 4889C3   		movq	%rax, %rbx
 1267 0340 E9000000 		jmp	.L80
 1267      00
 1268              	.L94:
 1269 0345 F30F1EFA 		endbr64
 1270 0349 4889C3   		movq	%rax, %rbx
 1271 034c E9000000 		jmp	.L79
 1271      00
 1272              	.L92:
 1273 0351 F30F1EFA 		endbr64
 1274 0355 4889C3   		movq	%rax, %rbx
 1275 0358 E9000000 		jmp	.L86
 1275      00
 1276              		.section	.gcc_except_table,"a",@progbits
 1277              		.align 4
 1278              	.LLSDA1275:
 1279 0000 FF       		.byte	0xff
 1280 0001 9B       		.byte	0x9b
 1281 0002 29       		.uleb128 .LLSDATT1275-.LLSDATTD1275
 1282              	.LLSDATTD1275:
 1283 0003 01       		.byte	0x1
 1284 0004 1D       		.uleb128 .LLSDACSE1275-.LLSDACSB1275
 1285              	.LLSDACSB1275:
 1286 0005 28       		.uleb128 .LEHB20-.LFB1275
 1287 0006 1F       		.uleb128 .LEHE20-.LEHB20
 1288 0007 CD05     		.uleb128 .L90-.LFB1275
 1289 0009 01       		.uleb128 0x1
 1290 000a E701     		.uleb128 .LEHB21-.LFB1275
 1291 000c 05       		.uleb128 .LEHE21-.LEHB21
 1292 000d D905     		.uleb128 .L93-.LFB1275
 1293 000f 03       		.uleb128 0x3
 1294 0010 8003     		.uleb128 .LEHB22-.LFB1275
 1295 0012 05       		.uleb128 .LEHE22-.LEHB22
 1296 0013 E505     		.uleb128 .L94-.LFB1275
 1297 0015 03       		.uleb128 0x3
 1298 0016 D503     		.uleb128 .LEHB23-.LFB1275
 1299 0018 4A       		.uleb128 .LEHE23-.LEHB23
 1300 0019 F105     		.uleb128 .L92-.LFB1275
 1301 001b 03       		.uleb128 0x3
 1302 001c BE05     		.uleb128 .LEHB24-.LFB1275
 1303 001e 05       		.uleb128 .LEHE24-.LEHB24
 1304 001f CD05     		.uleb128 .L90-.LFB1275
 1305 0021 01       		.uleb128 0x1
 1306              	.LLSDACSE1275:
 1307 0022 01       		.byte	0x1
 1308 0023 00       		.byte	0
 1309 0024 00       		.byte	0
 1310 0025 7D       		.byte	0x7d
 1311 0026 0000     		.align 4
 1312 0028 00000000 		.long	0
 1313              	
 1314              	.LLSDATT1275:
 1315              		.text
 1316              		.cfi_endproc
 1317              		.section	.text.unlikely
 1318              		.cfi_startproc
 1319              		.cfi_personality 0x9b,DW.ref.__gxx_personality_v0
 1320              		.cfi_lsda 0x1b,.LLSDAC1275
 1322              	_ZNK31TestQueue_testAllocFreeMatching7RunImplEv.cold:
 1323              	.LFSB1275:
 1324              	.L79:
 1325              		.cfi_def_cfa_offset 544
 1326              		.cfi_offset 3, -56
 1327              		.cfi_offset 6, -48
 1328              		.cfi_offset 12, -40
 1329              		.cfi_offset 13, -32
 1330              		.cfi_offset 14, -24
 1331              		.cfi_offset 15, -16
 1332 0000 4C89EF   		movq	%r13, %rdi
 1333 0003 E8000000 		call	_ZNSt7__cxx1115basic_stringbufIcSt11char_traitsIcESaIcEED1Ev
 1333      00
 1334 0008 488D0500 		leaq	24+_ZTCN8UnitTest15MemoryOutStreamE0_So(%rip), %rax
 1334      000000
 1335 000f 48894424 		movq	%rax, 64(%rsp)
 1335      40
 1336              	.L80:
 1337 0014 488D0500 		leaq	16+_ZTVSt9basic_iosIcSt11char_traitsIcEE(%rip), %rax
 1337      000000
 1338 001b 4C89F7   		movq	%r14, %rdi
 1339 001e 48898424 		movq	%rax, 208(%rsp)
 1339      D0000000 
 1340 0026 E8000000 		call	_ZNSt8ios_baseD2Ev@PLT
 1340      00
 1341 002b 4889DF   		movq	%rbx, %rdi
 1342              	.L82:
 1343 002e E8000000 		call	__cxa_begin_catch@PLT
 1343      00
 1344              	.LEHB25:
 1345 0033 E8000000 		call	_ZN8UnitTest11CurrentTest7ResultsEv@PLT
 1345      00
 1346 0038 4C8B20   		movq	(%rax), %r12
 1347 003b E8000000 		call	_ZN8UnitTest11CurrentTest7DetailsEv@PLT
 1347      00
 1348 0040 488D6C24 		leaq	32(%rsp), %rbp
 1348      20
 1349 0045 488B30   		movq	(%rax), %rsi
 1350 0048 BA810100 		movl	$385, %edx
 1350      00
 1351 004d 4889EF   		movq	%rbp, %rdi
 1352 0050 E8000000 		call	_ZN8UnitTest11TestDetailsC1ERKS0_i@PLT
 1352      00
 1353 0055 488D1500 		leaq	.LC2(%rip), %rdx
 1353      000000
 1354 005c 4889EE   		movq	%rbp, %rsi
 1355 005f 4C89E7   		movq	%r12, %rdi
 1356 0062 E8000000 		call	_ZN8UnitTest11TestResults13OnTestFailureERKNS_11TestDetailsEPKc@PLT
 1356      00
 1357              	.LEHE25:
 1358 0067 488B8424 		movq	472(%rsp), %rax
 1358      D8010000 
 1359 006f 64482B04 		subq	%fs:40, %rax
 1359      25280000 
 1359      00
 1360 0078 7516     		jne	.L100
 1361 007a 4881C4E8 		addq	$488, %rsp
 1361      010000
 1362              		.cfi_remember_state
 1363              		.cfi_def_cfa_offset 56
 1364 0081 5B       		popq	%rbx
 1365              		.cfi_def_cfa_offset 48
 1366 0082 5D       		popq	%rbp
 1367              		.cfi_def_cfa_offset 40
 1368 0083 415C     		popq	%r12
 1369              		.cfi_def_cfa_offset 32
 1370 0085 415D     		popq	%r13
 1371              		.cfi_def_cfa_offset 24
 1372 0087 415E     		popq	%r14
 1373              		.cfi_def_cfa_offset 16
 1374 0089 415F     		popq	%r15
 1375              		.cfi_def_cfa_offset 8
 1376              	.LEHB26:
 1377 008b E9000000 		jmp	__cxa_end_catch@PLT
 1377      00
 1378              	.LEHE26:
 1379              	.L100:
 1380              		.cfi_restore_state
 1381 0090 E8000000 		call	__stack_chk_fail@PLT
 1381      00
 1382              	.L91:
 1383 0095 F30F1EFA 		endbr64
 1384 0099 4889C5   		movq	%rax, %rbp
 1385 009c E8000000 		call	__cxa_end_catch@PLT
 1385      00
 1386 00a1 4889EF   		movq	%rbp, %rdi
 1387              	.LEHB27:
 1388 00a4 E8000000 		call	_Unwind_Resume@PLT
 1388      00
 1389              	.LEHE27:
 1390              	.L86:
 1391 00a9 4C89E7   		movq	%r12, %rdi
 1392 00ac E8000000 		call	_ZN8UnitTest15MemoryOutStreamD1Ev
 1392      00
 1393 00b1 4889DF   		movq	%rbx, %rdi
 1394 00b4 E975FFFF 		jmp	.L82
 1394      FF
 1395              		.cfi_endproc
 1396              	.LFE1275:
 1397              		.section	.gcc_except_table
 1398              		.align 4
 1399              	.LLSDAC1275:
 1400 002c FF       		.byte	0xff
 1401 002d 9B       		.byte	0x9b
 1402 002e 19       		.uleb128 .LLSDATTC1275-.LLSDATTDC1275
 1403              	.LLSDATTDC1275:
 1404 002f 01       		.byte	0x1
 1405 0030 0F       		.uleb128 .LLSDACSEC1275-.LLSDACSBC1275
 1406              	.LLSDACSBC1275:
 1407 0031 33       		.uleb128 .LEHB25-.LCOLDB6
 1408 0032 34       		.uleb128 .LEHE25-.LEHB25
 1409 0033 9501     		.uleb128 .L91-.LCOLDB6
 1410 0035 00       		.uleb128 0
 1411 0036 8B01     		.uleb128 .LEHB26-.LCOLDB6
 1412 0038 05       		.uleb128 .LEHE26-.LEHB26
 1413 0039 00       		.uleb128 0
 1414 003a 00       		.uleb128 0
 1415 003b A401     		.uleb128 .LEHB27-.LCOLDB6
 1416 003d 05       		.uleb128 .LEHE27-.LEHB27
 1417 003e 00       		.uleb128 0
 1418 003f 00       		.uleb128 0
 1419              	.LLSDACSEC1275:
 1420 0040 01       		.byte	0x1
 1421 0041 00       		.byte	0
 1422 0042 00       		.byte	0
 1423 0043 7D       		.byte	0x7d
 1424              		.align 4
 1425 0044 00000000 		.long	0
 1426              	
 1427              	.LLSDATTC1275:
 1428              		.section	.text.unlikely
 1429              		.text
 1431              		.section	.text.unlikely
 1433              	.LCOLDE6:
 1434              		.text
 1435              	.LHOTE6:
 1436              		.section	.text.unlikely
 1437              	.LCOLDB7:
 1438              		.text
 1439              	.LHOTB7:
 1440 035d 0F1F00   		.p2align 4
 1442              	_ZN8UnitTest10CheckEqualI9USBStatusS1_EEvRNS_11TestResultsERKT_RKT0_RKNS_11TestDetailsE.constprop.0
 1443              	.LFB1406:
 1444              		.cfi_startproc
 1445              		.cfi_personality 0x9b,DW.ref.__gxx_personality_v0
 1446              		.cfi_lsda 0x1b,.LLSDA1406
 1447 0360 4157     		pushq	%r15
 1448              		.cfi_def_cfa_offset 16
 1449              		.cfi_offset 15, -16
 1450 0362 4156     		pushq	%r14
 1451              		.cfi_def_cfa_offset 24
 1452              		.cfi_offset 14, -24
 1453 0364 4155     		pushq	%r13
 1454              		.cfi_def_cfa_offset 32
 1455              		.cfi_offset 13, -32
 1456 0366 4154     		pushq	%r12
 1457              		.cfi_def_cfa_offset 40
 1458              		.cfi_offset 12, -40
 1459 0368 55       		pushq	%rbp
 1460              		.cfi_def_cfa_offset 48
 1461              		.cfi_offset 6, -48
 1462 0369 53       		pushq	%rbx
 1463              		.cfi_def_cfa_offset 56
 1464              		.cfi_offset 3, -56
 1465 036a 4881ECD8 		subq	$472, %rsp
 1465      010000
 1466              		.cfi_def_cfa_offset 528
 1467 0371 F30F7E0D 		movq	.LC3(%rip), %xmm1
 1467      00000000 
 1468 0379 48894C24 		movq	%rcx, 32(%rsp)
 1468      20
 1469 037e 8B0A     		movl	(%rdx), %ecx
 1470 0380 48897C24 		movq	%rdi, 16(%rsp)
 1470      10
 1471 0385 0F160D00 		movhps	.LC4(%rip), %xmm1
 1471      000000
 1472 038c 64488B04 		movq	%fs:40, %rax
 1472      25280000 
 1472      00
 1473 0395 48898424 		movq	%rax, 456(%rsp)
 1473      C8010000 
 1474 039d 31C0     		xorl	%eax, %eax
 1475 039f 0F290C24 		movaps	%xmm1, (%rsp)
 1476 03a3 85C9     		testl	%ecx, %ecx
 1477 03a5 7529     		jne	.L117
 1478              	.L101:
 1479 03a7 488B8424 		movq	456(%rsp), %rax
 1479      C8010000 
 1480 03af 64482B04 		subq	%fs:40, %rax
 1480      25280000 
 1480      00
 1481 03b8 0F854702 		jne	.L118
 1481      0000
 1482 03be 4881C4D8 		addq	$472, %rsp
 1482      010000
 1483              		.cfi_remember_state
 1484              		.cfi_def_cfa_offset 56
 1485 03c5 5B       		popq	%rbx
 1486              		.cfi_def_cfa_offset 48
 1487 03c6 5D       		popq	%rbp
 1488              		.cfi_def_cfa_offset 40
 1489 03c7 415C     		popq	%r12
 1490              		.cfi_def_cfa_offset 32
 1491 03c9 415D     		popq	%r13
 1492              		.cfi_def_cfa_offset 24
 1493 03cb 415E     		popq	%r14
 1494              		.cfi_def_cfa_offset 16
 1495 03cd 415F     		popq	%r15
 1496              		.cfi_def_cfa_offset 8
 1497 03cf C3       		ret
 1498              		.p2align 4,,10
 1499              		.p2align 3
 1500              	.L117:
 1501              		.cfi_restore_state
 1502 03d0 4C8DAC24 		leaq	192(%rsp), %r13
 1502      C0000000 
 1503 03d8 4889F5   		movq	%rsi, %rbp
 1504 03db 4889D3   		movq	%rdx, %rbx
 1505 03de 4C89EF   		movq	%r13, %rdi
 1506 03e1 E8000000 		call	_ZNSt8ios_baseC2Ev@PLT
 1506      00
 1507 03e6 31C0     		xorl	%eax, %eax
 1508 03e8 660FEFC0 		pxor	%xmm0, %xmm0
 1509 03ec 31F6     		xorl	%esi, %esi
 1510 03ee 66898424 		movw	%ax, 416(%rsp)
 1510      A0010000 
 1511 03f6 488D0500 		leaq	24+_ZTCN8UnitTest15MemoryOutStreamE0_So(%rip), %rax
 1511      000000
 1512 03fd 4C89EF   		movq	%r13, %rdi
 1513 0400 48894424 		movq	%rax, 48(%rsp)
 1513      30
 1514 0405 4883C028 		addq	$40, %rax
 1515 0409 48C78424 		movq	$0, 408(%rsp)
 1515      98010000 
 1515      00000000 
 1516 0415 48898424 		movq	%rax, 192(%rsp)
 1516      C0000000 
 1517 041d 0F118424 		movups	%xmm0, 424(%rsp)
 1517      A8010000 
 1518 0425 0F118424 		movups	%xmm0, 440(%rsp)
 1518      B8010000 
 1519              	.LEHB28:
 1520 042d E8000000 		call	_ZNSt9basic_iosIcSt11char_traitsIcEE4initEPSt15basic_streambufIcS1_E@PLT
 1520      00
 1521              	.LEHE28:
 1522 0432 660F6F0C 		movdqa	(%rsp), %xmm1
 1522      24
 1523 0437 4C8D7424 		leaq	112(%rsp), %r14
 1523      70
 1524 043c 660FEFC0 		pxor	%xmm0, %xmm0
 1525 0440 488D0500 		leaq	64+_ZTCN8UnitTest15MemoryOutStreamE0_NSt7__cxx1119basic_ostringstreamIcSt11char_traitsIcESaIc
 1525      000000
 1526 0447 4C89F7   		movq	%r14, %rdi
 1527 044a 0F294424 		movaps	%xmm0, 64(%rsp)
 1527      40
 1528 044f 4C8D6424 		leaq	48(%rsp), %r12
 1528      30
 1529 0454 4C8D7C24 		leaq	56(%rsp), %r15
 1529      38
 1530 0459 48898424 		movq	%rax, 192(%rsp)
 1530      C0000000 
 1531 0461 0F294C24 		movaps	%xmm1, 48(%rsp)
 1531      30
 1532 0466 0F294424 		movaps	%xmm0, 80(%rsp)
 1532      50
 1533 046b 0F294424 		movaps	%xmm0, 96(%rsp)
 1533      60
 1534 0470 E8000000 		call	_ZNSt6localeC1Ev@PLT
 1534      00
 1535 0475 488D0500 		leaq	16+_ZTVNSt7__cxx1115basic_stringbufIcSt11char_traitsIcESaIcEEE(%rip), %rax
 1535      000000
 1536 047c 4C89FE   		movq	%r15, %rsi
 1537 047f 48C78424 		movq	$0, 136(%rsp)
 1537      88000000 
 1537      00000000 
 1538 048b 48894424 		movq	%rax, 56(%rsp)
 1538      38
 1539 0490 488D8424 		leaq	144(%rsp), %rax
 1539      90000000 
 1540 0498 48890424 		movq	%rax, (%rsp)
 1541 049c 48898424 		movq	%rax, 128(%rsp)
 1541      80000000 
 1542 04a4 488B4424 		movq	48(%rsp), %rax
 1542      30
 1543 04a9 C6842490 		movb	$0, 144(%rsp)
 1543      00000000 
 1544 04b1 488B78E8 		movq	-24(%rax), %rdi
 1545 04b5 C7442478 		movl	$16, 120(%rsp)
 1545      10000000 
 1546 04bd 4C01E7   		addq	%r12, %rdi
 1547              	.LEHB29:
 1548 04c0 E8000000 		call	_ZNSt9basic_iosIcSt11char_traitsIcEE4initEPSt15basic_streambufIcS1_E@PLT
 1548      00
 1549              	.LEHE29:
 1550 04c5 4C8D3D00 		leaq	24+_ZTVN8UnitTest15MemoryOutStreamE(%rip), %r15
 1550      000000
 1551 04cc BA090000 		movl	$9, %edx
 1551      00
 1552 04d1 4C89E7   		movq	%r12, %rdi
 1553 04d4 48C78424 		movq	$0, 168(%rsp)
 1553      A8000000 
 1553      00000000 
 1554 04e0 498D4728 		leaq	40(%r15), %rax
 1555 04e4 488D3500 		leaq	.LC0(%rip), %rsi
 1555      000000
 1556 04eb 4C897C24 		movq	%r15, 48(%rsp)
 1556      30
 1557 04f0 48898424 		movq	%rax, 192(%rsp)
 1557      C0000000 
 1558 04f8 488D8424 		leaq	176(%rsp), %rax
 1558      B0000000 
 1559 0500 48894424 		movq	%rax, 40(%rsp)
 1559      28
 1560 0505 48898424 		movq	%rax, 160(%rsp)
 1560      A0000000 
 1561 050d C68424B0 		movb	$0, 176(%rsp)
 1561      00000000 
 1562              	.LEHB30:
 1563 0515 E8000000 		call	_ZSt16__ostream_insertIcSt11char_traitsIcEERSt13basic_ostreamIT_T0_ES6_PKS3_l@PLT
 1563      00
 1564 051a 8B7500   		movl	0(%rbp), %esi
 1565 051d 4C89E7   		movq	%r12, %rdi
 1566 0520 E8000000 		call	_ZNSolsEi@PLT
 1566      00
 1567 0525 BA090000 		movl	$9, %edx
 1567      00
 1568 052a 488D3500 		leaq	.LC1(%rip), %rsi
 1568      000000
 1569 0531 4889C7   		movq	%rax, %rdi
 1570 0534 4889C5   		movq	%rax, %rbp
 1571 0537 E8000000 		call	_ZSt16__ostream_insertIcSt11char_traitsIcEERSt13basic_ostreamIT_T0_ES6_PKS3_l@PLT
 1571      00
 1572 053c 8B33     		movl	(%rbx), %esi
 1573 053e 4889EF   		movq	%rbp, %rdi
 1574 0541 E8000000 		call	_ZNSolsEi@PLT
 1574      00
 1575 0546 4C89E7   		movq	%r12, %rdi
 1576 0549 E8000000 		call	_ZNK8UnitTest15MemoryOutStream7GetTextEv@PLT
 1576      00
 1577 054e 488B7424 		movq	32(%rsp), %rsi
 1577      20
 1578 0553 488B7C24 		movq	16(%rsp), %rdi
 1578      10
 1579 0558 4889C2   		movq	%rax, %rdx
 1580 055b E8000000 		call	_ZN8UnitTest11TestResults13OnTestFailureERKNS_11TestDetailsEPKc@PLT
 1580      00
 1581              	.LEHE30:
 1582 0560 F30F7E05 		movq	.LC3(%rip), %xmm0
 1582      00000000 
 1583 0568 488D0500 		leaq	64+_ZTVN8UnitTest15MemoryOutStreamE(%rip), %rax
 1583      000000
 1584 056f 4C897C24 		movq	%r15, 48(%rsp)
 1584      30
 1585 0574 48898424 		movq	%rax, 192(%rsp)
 1585      C0000000 
 1586 057c 488BBC24 		movq	160(%rsp), %rdi
 1586      A0000000 
 1587 0584 0F160500 		movhps	.LC5(%rip), %xmm0
 1587      000000
 1588 058b 483B7C24 		cmpq	40(%rsp), %rdi
 1588      28
 1589 0590 7410     		je	.L107
 1590 0592 0F294424 		movaps	%xmm0, 16(%rsp)
 1590      10
 1591 0597 E8000000 		call	_ZdlPv@PLT
 1591      00
 1592 059c 660F6F44 		movdqa	16(%rsp), %xmm0
 1592      2410
 1593              	.L107:
 1594 05a2 488D0500 		leaq	64+_ZTCN8UnitTest15MemoryOutStreamE0_NSt7__cxx1119basic_ostringstreamIcSt11char_traitsIcESaIc
 1594      000000
 1595 05a9 488BBC24 		movq	128(%rsp), %rdi
 1595      80000000 
 1596 05b1 0F294424 		movaps	%xmm0, 48(%rsp)
 1596      30
 1597 05b6 48898424 		movq	%rax, 192(%rsp)
 1597      C0000000 
 1598 05be 483B3C24 		cmpq	(%rsp), %rdi
 1599 05c2 7405     		je	.L108
 1600 05c4 E8000000 		call	_ZdlPv@PLT
 1600      00
 1601              	.L108:
 1602 05c9 488D0500 		leaq	16+_ZTVSt15basic_streambufIcSt11char_traitsIcEE(%rip), %rax
 1602      000000
 1603 05d0 4C89F7   		movq	%r14, %rdi
 1604 05d3 48894424 		movq	%rax, 56(%rsp)
 1604      38
 1605 05d8 E8000000 		call	_ZNSt6localeD1Ev@PLT
 1605      00
 1606 05dd 488D0500 		leaq	24+_ZTCN8UnitTest15MemoryOutStreamE0_So(%rip), %rax
 1606      000000
 1607 05e4 4C89EF   		movq	%r13, %rdi
 1608 05e7 48894424 		movq	%rax, 48(%rsp)
 1608      30
 1609 05ec 488D0500 		leaq	16+_ZTVSt9basic_iosIcSt11char_traitsIcEE(%rip), %rax
 1609      000000
 1610 05f3 48898424 		movq	%rax, 192(%rsp)
 1610      C0000000 
 1611              	.LEHB31:
 1612 05fb E8000000 		call	_ZNSt8ios_baseD2Ev@PLT
 1612      00
 1613              	.LEHE31:
 1614 0600 E9A2FDFF 		jmp	.L101
 1614      FF
 1615              	.L118:
 1616 0605 E8000000 		call	__stack_chk_fail@PLT
 1616      00
 1617              	.L112:
 1618 060a F30F1EFA 		endbr64
 1619 060e 4889C5   		movq	%rax, %rbp
 1620 0611 E9000000 		jmp	.L105
 1620      00
 1621              	.L113:
 1622 0616 F30F1EFA 		endbr64
 1623 061a 4889C5   		movq	%rax, %rbp
 1624 061d E9000000 		jmp	.L104
 1624      00
 1625              	.L111:
 1626 0622 F30F1EFA 		endbr64
 1627 0626 4889C5   		movq	%rax, %rbp
 1628 0629 E9000000 		jmp	.L109
 1628      00
 1629              		.section	.gcc_except_table
 1630              	.LLSDA1406:
 1631 0048 FF       		.byte	0xff
 1632 0049 FF       		.byte	0xff
 1633 004a 01       		.byte	0x1
 1634 004b 17       		.uleb128 .LLSDACSE1406-.LLSDACSB1406
 1635              	.LLSDACSB1406:
 1636 004c CD01     		.uleb128 .LEHB28-.LFB1406
 1637 004e 05       		.uleb128 .LEHE28-.LEHB28
 1638 004f AA05     		.uleb128 .L112-.LFB1406
 1639 0051 00       		.uleb128 0
 1640 0052 E002     		.uleb128 .LEHB29-.LFB1406
 1641 0054 05       		.uleb128 .LEHE29-.LEHB29
 1642 0055 B605     		.uleb128 .L113-.LFB1406
 1643 0057 00       		.uleb128 0
 1644 0058 B503     		.uleb128 .LEHB30-.LFB1406
 1645 005a 4B       		.uleb128 .LEHE30-.LEHB30
 1646 005b C205     		.uleb128 .L111-.LFB1406
 1647 005d 00       		.uleb128 0
 1648 005e 9B05     		.uleb128 .LEHB31-.LFB1406
 1649 0060 05       		.uleb128 .LEHE31-.LEHB31
 1650 0061 00       		.uleb128 0
 1651 0062 00       		.uleb128 0
 1652              	.LLSDACSE1406:
 1653              		.text
 1654              		.cfi_endproc
 1655              		.section	.text.unlikely
 1656              		.cfi_startproc
 1657              		.cfi_personality 0x9b,DW.ref.__gxx_personality_v0
 1658              		.cfi_lsda 0x1b,.LLSDAC1406
 1660              	_ZN8UnitTest10CheckEqualI9USBStatusS1_EEvRNS_11TestResultsERKT_RKT0_RKNS_11TestDetailsE.constprop.0
 1661              	.LFSB1406:
 1662              	.L104:
 1663              		.cfi_def_cfa_offset 528
 1664              		.cfi_offset 3, -56
 1665              		.cfi_offset 6, -48
 1666              		.cfi_offset 12, -40
 1667              		.cfi_offset 13, -32
 1668              		.cfi_offset 14, -24
 1669              		.cfi_offset 15, -16
 1670 00b9 4C89FF   		movq	%r15, %rdi
 1671 00bc E8000000 		call	_ZNSt7__cxx1115basic_stringbufIcSt11char_traitsIcESaIcEED1Ev
 1671      00
 1672 00c1 488D0500 		leaq	24+_ZTCN8UnitTest15MemoryOutStreamE0_So(%rip), %rax
 1672      000000
 1673 00c8 48894424 		movq	%rax, 48(%rsp)
 1673      30
 1674              	.L105:
 1675 00cd 488D0500 		leaq	16+_ZTVSt9basic_iosIcSt11char_traitsIcEE(%rip), %rax
 1675      000000
 1676 00d4 4C89EF   		movq	%r13, %rdi
 1677 00d7 48898424 		movq	%rax, 192(%rsp)
 1677      C0000000 
 1678 00df E8000000 		call	_ZNSt8ios_baseD2Ev@PLT
 1678      00
 1679 00e4 4889EF   		movq	%rbp, %rdi
 1680              	.LEHB32:
 1681 00e7 E8000000 		call	_Unwind_Resume@PLT
 1681      00
 1682              	.LEHE32:
 1683              	.L109:
 1684 00ec 4C89E7   		movq	%r12, %rdi
 1685 00ef E8000000 		call	_ZN8UnitTest15MemoryOutStreamD1Ev
 1685      00
 1686 00f4 4889EF   		movq	%rbp, %rdi
 1687              	.LEHB33:
 1688 00f7 E8000000 		call	_Unwind_Resume@PLT
 1688      00
 1689              	.LEHE33:
 1690              		.cfi_endproc
 1691              	.LFE1406:
 1692              		.section	.gcc_except_table
 1693              	.LLSDAC1406:
 1694 0063 FF       		.byte	0xff
 1695 0064 FF       		.byte	0xff
 1696 0065 01       		.byte	0x1
 1697 0066 08       		.uleb128 .LLSDACSEC1406-.LLSDACSBC1406
 1698              	.LLSDACSBC1406:
 1699 0067 2E       		.uleb128 .LEHB32-.LCOLDB7
 1700 0068 05       		.uleb128 .LEHE32-.LEHB32
 1701 0069 00       		.uleb128 0
 1702 006a 00       		.uleb128 0
 1703 006b 3E       		.uleb128 .LEHB33-.LCOLDB7
 1704 006c 05       		.uleb128 .LEHE33-.LEHB33
 1705 006d 00       		.uleb128 0
 1706 006e 00       		.uleb128 0
 1707              	.LLSDACSEC1406:
 1708              		.section	.text.unlikely
 1709              		.text
 1711              		.section	.text.unlikely
 1713              	.LCOLDE7:
 1714              		.text
 1715              	.LHOTE7:
 1716              		.section	.text._ZNSt7__cxx1115basic_stringbufIcSt11char_traitsIcESaIcEED0Ev,"axG",@progbits,_ZNSt7
 1717              		.align 2
 1718              		.p2align 4
 1719              		.weak	_ZNSt7__cxx1115basic_stringbufIcSt11char_traitsIcESaIcEED0Ev
 1721              	_ZNSt7__cxx1115basic_stringbufIcSt11char_traitsIcESaIcEED0Ev:
 1722              	.LFB1287:
 1723              		.cfi_startproc
 1724 0000 F30F1EFA 		endbr64
 1725 0004 488D0500 		leaq	16+_ZTVNSt7__cxx1115basic_stringbufIcSt11char_traitsIcESaIcEEE(%rip), %rax
 1725      000000
 1726 000b 55       		pushq	%rbp
 1727              		.cfi_def_cfa_offset 16
 1728              		.cfi_offset 6, -16
 1729 000c 4889FD   		movq	%rdi, %rbp
 1730 000f 488907   		movq	%rax, (%rdi)
 1731 0012 488B7F48 		movq	72(%rdi), %rdi
 1732 0016 488D4558 		leaq	88(%rbp), %rax
 1733 001a 4839C7   		cmpq	%rax, %rdi
 1734 001d 7405     		je	.L120
 1735 001f E8000000 		call	_ZdlPv@PLT
 1735      00
 1736              	.L120:
 1737 0024 488D0500 		leaq	16+_ZTVSt15basic_streambufIcSt11char_traitsIcEE(%rip), %rax
 1737      000000
 1738 002b 488D7D38 		leaq	56(%rbp), %rdi
 1739 002f 48894500 		movq	%rax, 0(%rbp)
 1740 0033 E8000000 		call	_ZNSt6localeD1Ev@PLT
 1740      00
 1741 0038 4889EF   		movq	%rbp, %rdi
 1742 003b 5D       		popq	%rbp
 1743              		.cfi_def_cfa_offset 8
 1744 003c E9000000 		jmp	_ZdlPv@PLT
 1744      00
 1745              		.cfi_endproc
 1746              	.LFE1287:
 1748              		.section	.text._ZN8UnitTest10CheckEqualI9USBStatusS1_EEvRNS_11TestResultsERKT_RKT0_RKNS_11TestDeta
 1749              		.p2align 4
 1750              		.weak	_ZN8UnitTest10CheckEqualI9USBStatusS1_EEvRNS_11TestResultsERKT_RKT0_RKNS_11TestDetailsE
 1752              	_ZN8UnitTest10CheckEqualI9USBStatusS1_EEvRNS_11TestResultsERKT_RKT0_RKNS_11TestDetailsE:
 1753              	.LFB1303:
 1754              		.cfi_startproc
 1755              		.cfi_personality 0x9b,DW.ref.__gxx_personality_v0
 1756              		.cfi_lsda 0x1b,.LLSDA1303
 1757 0000 F30F1EFA 		endbr64
 1758 0004 4157     		pushq	%r15
 1759              		.cfi_def_cfa_offset 16
 1760              		.cfi_offset 15, -16
 1761 0006 4156     		pushq	%r14
 1762              		.cfi_def_cfa_offset 24
 1763              		.cfi_offset 14, -24
 1764 0008 4155     		pushq	%r13
 1765              		.cfi_def_cfa_offset 32
 1766              		.cfi_offset 13, -32
 1767 000a 4154     		pushq	%r12
 1768              		.cfi_def_cfa_offset 40
 1769              		.cfi_offset 12, -40
 1770 000c 55       		pushq	%rbp
 1771              		.cfi_def_cfa_offset 48
 1772              		.cfi_offset 6, -48
 1773 000d 53       		pushq	%rbx
 1774              		.cfi_def_cfa_offset 56
 1775              		.cfi_offset 3, -56
 1776 000e 4881ECD8 		subq	$472, %rsp
 1776      010000
 1777              		.cfi_def_cfa_offset 528
 1778 0015 F30F7E0D 		movq	.LC3(%rip), %xmm1
 1778      00000000 
 1779 001d 48897C24 		movq	%rdi, 16(%rsp)
 1779      10
 1780 0022 48894C24 		movq	%rcx, 24(%rsp)
 1780      18
 1781 0027 0F160D00 		movhps	.LC4(%rip), %xmm1
 1781      000000
 1782 002e 64488B04 		movq	%fs:40, %rax
 1782      25280000 
 1782      00
 1783 0037 48898424 		movq	%rax, 456(%rsp)
 1783      C8010000 
 1784 003f 31C0     		xorl	%eax, %eax
 1785 0041 8B02     		movl	(%rdx), %eax
 1786 0043 0F290C24 		movaps	%xmm1, (%rsp)
 1787 0047 3906     		cmpl	%eax, (%rsi)
 1788 0049 752D     		jne	.L138
 1789              	.L122:
 1790 004b 488B8424 		movq	456(%rsp), %rax
 1790      C8010000 
 1791 0053 64482B04 		subq	%fs:40, %rax
 1791      25280000 
 1791      00
 1792 005c 0F854B02 		jne	.L139
 1792      0000
 1793 0062 4881C4D8 		addq	$472, %rsp
 1793      010000
 1794              		.cfi_remember_state
 1795              		.cfi_def_cfa_offset 56
 1796 0069 5B       		popq	%rbx
 1797              		.cfi_def_cfa_offset 48
 1798 006a 5D       		popq	%rbp
 1799              		.cfi_def_cfa_offset 40
 1800 006b 415C     		popq	%r12
 1801              		.cfi_def_cfa_offset 32
 1802 006d 415D     		popq	%r13
 1803              		.cfi_def_cfa_offset 24
 1804 006f 415E     		popq	%r14
 1805              		.cfi_def_cfa_offset 16
 1806 0071 415F     		popq	%r15
 1807              		.cfi_def_cfa_offset 8
 1808 0073 C3       		ret
 1809              		.p2align 4,,10
 1810 0074 0F1F4000 		.p2align 3
 1811              	.L138:
 1812              		.cfi_restore_state
 1813 0078 4C8DAC24 		leaq	192(%rsp), %r13
 1813      C0000000 
 1814 0080 4889F5   		movq	%rsi, %rbp
 1815 0083 4889D3   		movq	%rdx, %rbx
 1816 0086 4C89EF   		movq	%r13, %rdi
 1817 0089 E8000000 		call	_ZNSt8ios_baseC2Ev@PLT
 1817      00
 1818 008e 31C0     		xorl	%eax, %eax
 1819 0090 660FEFC0 		pxor	%xmm0, %xmm0
 1820 0094 31F6     		xorl	%esi, %esi
 1821 0096 66898424 		movw	%ax, 416(%rsp)
 1821      A0010000 
 1822 009e 488D0500 		leaq	24+_ZTCN8UnitTest15MemoryOutStreamE0_So(%rip), %rax
 1822      000000
 1823 00a5 4C89EF   		movq	%r13, %rdi
 1824 00a8 48894424 		movq	%rax, 48(%rsp)
 1824      30
 1825 00ad 4883C028 		addq	$40, %rax
 1826 00b1 48C78424 		movq	$0, 408(%rsp)
 1826      98010000 
 1826      00000000 
 1827 00bd 48898424 		movq	%rax, 192(%rsp)
 1827      C0000000 
 1828 00c5 0F118424 		movups	%xmm0, 424(%rsp)
 1828      A8010000 
 1829 00cd 0F118424 		movups	%xmm0, 440(%rsp)
 1829      B8010000 
 1830              	.LEHB34:
 1831 00d5 E8000000 		call	_ZNSt9basic_iosIcSt11char_traitsIcEE4initEPSt15basic_streambufIcS1_E@PLT
 1831      00
 1832              	.LEHE34:
 1833 00da 660F6F0C 		movdqa	(%rsp), %xmm1
 1833      24
 1834 00df 4C8D7424 		leaq	112(%rsp), %r14
 1834      70
 1835 00e4 660FEFC0 		pxor	%xmm0, %xmm0
 1836 00e8 488D0500 		leaq	64+_ZTCN8UnitTest15MemoryOutStreamE0_NSt7__cxx1119basic_ostringstreamIcSt11char_traitsIcESaIc
 1836      000000
 1837 00ef 4C89F7   		movq	%r14, %rdi
 1838 00f2 0F294424 		movaps	%xmm0, 64(%rsp)
 1838      40
 1839 00f7 4C8D6424 		leaq	48(%rsp), %r12
 1839      30
 1840 00fc 4C8D7C24 		leaq	56(%rsp), %r15
 1840      38
 1841 0101 48898424 		movq	%rax, 192(%rsp)
 1841      C0000000 
 1842 0109 0F294C24 		movaps	%xmm1, 48(%rsp)
 1842      30
 1843 010e 0F294424 		movaps	%xmm0, 80(%rsp)
 1843      50
 1844 0113 0F294424 		movaps	%xmm0, 96(%rsp)
 1844      60
 1845 0118 E8000000 		call	_ZNSt6localeC1Ev@PLT
 1845      00
 1846 011d 488D0500 		leaq	16+_ZTVNSt7__cxx1115basic_stringbufIcSt11char_traitsIcESaIcEEE(%rip), %rax
 1846      000000
 1847 0124 4C89FE   		movq	%r15, %rsi
 1848 0127 48C78424 		movq	$0, 136(%rsp)
 1848      88000000 
 1848      00000000 
 1849 0133 48894424 		movq	%rax, 56(%rsp)
 1849      38
 1850 0138 488D8424 		leaq	144(%rsp), %rax
 1850      90000000 
 1851 0140 48894424 		movq	%rax, 32(%rsp)
 1851      20
 1852 0145 48898424 		movq	%rax, 128(%rsp)
 1852      80000000 
 1853 014d 488B4424 		movq	48(%rsp), %rax
 1853      30
 1854 0152 C6842490 		movb	$0, 144(%rsp)
 1854      00000000 
 1855 015a 488B78E8 		movq	-24(%rax), %rdi
 1856 015e C7442478 		movl	$16, 120(%rsp)
 1856      10000000 
 1857 0166 4C01E7   		addq	%r12, %rdi
 1858              	.LEHB35:
 1859 0169 E8000000 		call	_ZNSt9basic_iosIcSt11char_traitsIcEE4initEPSt15basic_streambufIcS1_E@PLT
 1859      00
 1860              	.LEHE35:
 1861 016e 4C8D3D00 		leaq	24+_ZTVN8UnitTest15MemoryOutStreamE(%rip), %r15
 1861      000000
 1862 0175 BA090000 		movl	$9, %edx
 1862      00
 1863 017a 4C89E7   		movq	%r12, %rdi
 1864 017d 48C78424 		movq	$0, 168(%rsp)
 1864      A8000000 
 1864      00000000 
 1865 0189 498D4728 		leaq	40(%r15), %rax
 1866 018d 488D3500 		leaq	.LC0(%rip), %rsi
 1866      000000
 1867 0194 4C897C24 		movq	%r15, 48(%rsp)
 1867      30
 1868 0199 48898424 		movq	%rax, 192(%rsp)
 1868      C0000000 
 1869 01a1 488D8424 		leaq	176(%rsp), %rax
 1869      B0000000 
 1870 01a9 48894424 		movq	%rax, 40(%rsp)
 1870      28
 1871 01ae 48898424 		movq	%rax, 160(%rsp)
 1871      A0000000 
 1872 01b6 C68424B0 		movb	$0, 176(%rsp)
 1872      00000000 
 1873              	.LEHB36:
 1874 01be E8000000 		call	_ZSt16__ostream_insertIcSt11char_traitsIcEERSt13basic_ostreamIT_T0_ES6_PKS3_l@PLT
 1874      00
 1875 01c3 8B7500   		movl	0(%rbp), %esi
 1876 01c6 4C89E7   		movq	%r12, %rdi
 1877 01c9 E8000000 		call	_ZNSolsEi@PLT
 1877      00
 1878 01ce BA090000 		movl	$9, %edx
 1878      00
 1879 01d3 488D3500 		leaq	.LC1(%rip), %rsi
 1879      000000
 1880 01da 4889C7   		movq	%rax, %rdi
 1881 01dd 4889C5   		movq	%rax, %rbp
 1882 01e0 E8000000 		call	_ZSt16__ostream_insertIcSt11char_traitsIcEERSt13basic_ostreamIT_T0_ES6_PKS3_l@PLT
 1882      00
 1883 01e5 8B33     		movl	(%rbx), %esi
 1884 01e7 4889EF   		movq	%rbp, %rdi
 1885 01ea E8000000 		call	_ZNSolsEi@PLT
 1885      00
 1886 01ef 4C89E7   		movq	%r12, %rdi
 1887 01f2 E8000000 		call	_ZNK8UnitTest15MemoryOutStream7GetTextEv@PLT
 1887      00
 1888 01f7 488B7424 		movq	24(%rsp), %rsi
 1888      18
 1889 01fc 488B7C24 		movq	16(%rsp), %rdi
 1889      10
 1890 0201 4889C2   		movq	%rax, %rdx
 1891 0204 F30F7E15 		movq	.LC3(%rip), %xmm2
 1891      00000000 
 1892 020c 0F161500 		movhps	.LC5(%rip), %xmm2
 1892      000000
 1893 0213 0F291424 		movaps	%xmm2, (%rsp)
 1894 0217 E8000000 		call	_ZN8UnitTest11TestResults13OnTestFailureERKNS_11TestDetailsEPKc@PLT
 1894      00
 1895              	.LEHE36:
 1896 021c 488D0500 		leaq	64+_ZTVN8UnitTest15MemoryOutStreamE(%rip), %rax
 1896      000000
 1897 0223 4C897C24 		movq	%r15, 48(%rsp)
 1897      30
 1898 0228 488BBC24 		movq	160(%rsp), %rdi
 1898      A0000000 
 1899 0230 48898424 		movq	%rax, 192(%rsp)
 1899      C0000000 
 1900 0238 483B7C24 		cmpq	40(%rsp), %rdi
 1900      28
 1901 023d 7405     		je	.L128
 1902 023f E8000000 		call	_ZdlPv@PLT
 1902      00
 1903              	.L128:
 1904 0244 660F6F1C 		movdqa	(%rsp), %xmm3
 1904      24
 1905 0249 488D0500 		leaq	64+_ZTCN8UnitTest15MemoryOutStreamE0_NSt7__cxx1119basic_ostringstreamIcSt11char_traitsIcESaIc
 1905      000000
 1906 0250 488BBC24 		movq	128(%rsp), %rdi
 1906      80000000 
 1907 0258 48898424 		movq	%rax, 192(%rsp)
 1907      C0000000 
 1908 0260 0F295C24 		movaps	%xmm3, 48(%rsp)
 1908      30
 1909 0265 483B7C24 		cmpq	32(%rsp), %rdi
 1909      20
 1910 026a 7405     		je	.L129
 1911 026c E8000000 		call	_ZdlPv@PLT
 1911      00
 1912              	.L129:
 1913 0271 488D0500 		leaq	16+_ZTVSt15basic_streambufIcSt11char_traitsIcEE(%rip), %rax
 1913      000000
 1914 0278 4C89F7   		movq	%r14, %rdi
 1915 027b 48894424 		movq	%rax, 56(%rsp)
 1915      38
 1916 0280 E8000000 		call	_ZNSt6localeD1Ev@PLT
 1916      00
 1917 0285 488D0500 		leaq	24+_ZTCN8UnitTest15MemoryOutStreamE0_So(%rip), %rax
 1917      000000
 1918 028c 4C89EF   		movq	%r13, %rdi
 1919 028f 48894424 		movq	%rax, 48(%rsp)
 1919      30
 1920 0294 488D0500 		leaq	16+_ZTVSt9basic_iosIcSt11char_traitsIcEE(%rip), %rax
 1920      000000
 1921 029b 48898424 		movq	%rax, 192(%rsp)
 1921      C0000000 
 1922              	.LEHB37:
 1923 02a3 E8000000 		call	_ZNSt8ios_baseD2Ev@PLT
 1923      00
 1924              	.LEHE37:
 1925 02a8 E99EFDFF 		jmp	.L122
 1925      FF
 1926              	.L139:
 1927 02ad E8000000 		call	__stack_chk_fail@PLT
 1927      00
 1928              	.L133:
 1929 02b2 F30F1EFA 		endbr64
 1930 02b6 4889C5   		movq	%rax, %rbp
 1931 02b9 EB26     		jmp	.L126
 1932              	.L134:
 1933 02bb F30F1EFA 		endbr64
 1934 02bf 4889C5   		movq	%rax, %rbp
 1935 02c2 EB09     		jmp	.L125
 1936              	.L132:
 1937 02c4 F30F1EFA 		endbr64
 1938 02c8 4889C5   		movq	%rax, %rbp
 1939 02cb EB33     		jmp	.L130
 1940              	.L125:
 1941 02cd 4C89FF   		movq	%r15, %rdi
 1942 02d0 E8000000 		call	_ZNSt7__cxx1115basic_stringbufIcSt11char_traitsIcESaIcEED1Ev
 1942      00
 1943 02d5 488D0500 		leaq	24+_ZTCN8UnitTest15MemoryOutStreamE0_So(%rip), %rax
 1943      000000
 1944 02dc 48894424 		movq	%rax, 48(%rsp)
 1944      30
 1945              	.L126:
 1946 02e1 488D0500 		leaq	16+_ZTVSt9basic_iosIcSt11char_traitsIcEE(%rip), %rax
 1946      000000
 1947 02e8 4C89EF   		movq	%r13, %rdi
 1948 02eb 48898424 		movq	%rax, 192(%rsp)
 1948      C0000000 
 1949 02f3 E8000000 		call	_ZNSt8ios_baseD2Ev@PLT
 1949      00
 1950 02f8 4889EF   		movq	%rbp, %rdi
 1951              	.LEHB38:
 1952 02fb E8000000 		call	_Unwind_Resume@PLT
 1952      00
 1953              	.LEHE38:
 1954              	.L130:
 1955 0300 4C89E7   		movq	%r12, %rdi
 1956 0303 E8000000 		call	_ZN8UnitTest15MemoryOutStreamD1Ev
 1956      00
 1957 0308 4889EF   		movq	%rbp, %rdi
 1958              	.LEHB39:
 1959 030b E8000000 		call	_Unwind_Resume@PLT
 1959      00
 1960              	.LEHE39:
 1961              		.cfi_endproc
 1962              	.LFE1303:
 1963              		.section	.gcc_except_table
 1964              	.LLSDA1303:
 1965 006f FF       		.byte	0xff
 1966 0070 FF       		.byte	0xff
 1967 0071 01       		.byte	0x1
 1968 0072 21       		.uleb128 .LLSDACSE1303-.LLSDACSB1303
 1969              	.LLSDACSB1303:
 1970 0073 D501     		.uleb128 .LEHB34-.LFB1303
 1971 0075 05       		.uleb128 .LEHE34-.LEHB34
 1972 0076 B205     		.uleb128 .L133-.LFB1303
 1973 0078 00       		.uleb128 0
 1974 0079 E902     		.uleb128 .LEHB35-.LFB1303
 1975 007b 05       		.uleb128 .LEHE35-.LEHB35
 1976 007c BB05     		.uleb128 .L134-.LFB1303
 1977 007e 00       		.uleb128 0
 1978 007f BE03     		.uleb128 .LEHB36-.LFB1303
 1979 0081 5E       		.uleb128 .LEHE36-.LEHB36
 1980 0082 C405     		.uleb128 .L132-.LFB1303
 1981 0084 00       		.uleb128 0
 1982 0085 A305     		.uleb128 .LEHB37-.LFB1303
 1983 0087 05       		.uleb128 .LEHE37-.LEHB37
 1984 0088 00       		.uleb128 0
 1985 0089 00       		.uleb128 0
 1986 008a FB05     		.uleb128 .LEHB38-.LFB1303
 1987 008c 05       		.uleb128 .LEHE38-.LEHB38
 1988 008d 00       		.uleb128 0
 1989 008e 00       		.uleb128 0
 1990 008f 8B06     		.uleb128 .LEHB39-.LFB1303
 1991 0091 05       		.uleb128 .LEHE39-.LEHB39
 1992 0092 00       		.uleb128 0
 1993 0093 00       		.uleb128 0
 1994              	.LLSDACSE1303:
 1995              		.section	.text._ZN8UnitTest10CheckEqualI9USBStatusS1_EEvRNS_11TestResultsERKT_RKT0_RKNS_11TestDeta
 1997              		.section	.rodata.str1.8
 1998 0033 00000000 		.align 8
 1998      00
 1999              	.LC8:
 2000 0038 556E6861 		.string	"Unhandled exception in CHECK_EQUAL(USB_ALLOC_ERR, status)"
 2000      6E646C65 
 2000      64206578 
 2000      63657074 
 2000      696F6E20 
 2001              		.section	.text.unlikely
 2002              		.align 2
 2003              	.LCOLDB9:
 2004              		.text
 2005              	.LHOTB9:
 2006              		.align 2
 2007 062e 6690     		.p2align 4
 2008              		.globl	_ZNK22TestQueue_testAllocOOM7RunImplEv
 2010              	_ZNK22TestQueue_testAllocOOM7RunImplEv:
 2011              	.LFB1267:
 2012              		.cfi_startproc
 2013              		.cfi_personality 0x9b,DW.ref.__gxx_personality_v0
 2014              		.cfi_lsda 0x1b,.LLSDA1267
 2015 0630 F30F1EFA 		endbr64
 2016 0634 4155     		pushq	%r13
 2017              		.cfi_def_cfa_offset 16
 2018              		.cfi_offset 13, -16
 2019 0636 488D0D00 		leaq	destroyInt(%rip), %rcx
 2019      000000
 2020 063d BE090000 		movl	$9, %esi
 2020      00
 2021 0642 488D1500 		leaq	createInt(%rip), %rdx
 2021      000000
 2022 0649 4154     		pushq	%r12
 2023              		.cfi_def_cfa_offset 24
 2024              		.cfi_offset 12, -24
 2025 064b 55       		pushq	%rbp
 2026              		.cfi_def_cfa_offset 32
 2027              		.cfi_offset 6, -32
 2028 064c 4883EC70 		subq	$112, %rsp
 2029              		.cfi_def_cfa_offset 144
 2030 0650 64488B04 		movq	%fs:40, %rax
 2030      25280000 
 2030      00
 2031 0659 48894424 		movq	%rax, 104(%rsp)
 2031      68
 2032 065e 31C0     		xorl	%eax, %eax
 2033 0660 488D6C24 		leaq	48(%rsp), %rbp
 2033      30
 2034 0665 C7050000 		movl	$1, _ZL7m_count(%rip)
 2034      00000100 
 2034      0000
 2035 066f 4889EF   		movq	%rbp, %rdi
 2036              	.LEHB40:
 2037 0672 E8000000 		call	queueInit@PLT
 2037      00
 2038              	.LEHE40:
 2039 0677 89442408 		movl	%eax, 8(%rsp)
 2040              	.LEHB41:
 2041 067b E8000000 		call	_ZN8UnitTest11CurrentTest7DetailsEv@PLT
 2041      00
 2042 0680 4C8D6424 		leaq	16(%rsp), %r12
 2042      10
 2043 0685 488B30   		movq	(%rax), %rsi
 2044 0688 BA510100 		movl	$337, %edx
 2044      00
 2045 068d 4C89E7   		movq	%r12, %rdi
 2046 0690 E8000000 		call	_ZN8UnitTest11TestDetailsC1ERKS0_i@PLT
 2046      00
 2047 0695 C744240C 		movl	$12, 12(%rsp)
 2047      0C000000 
 2048 069d E8000000 		call	_ZN8UnitTest11CurrentTest7ResultsEv@PLT
 2048      00
 2049 06a2 488B38   		movq	(%rax), %rdi
 2050 06a5 488D5424 		leaq	8(%rsp), %rdx
 2050      08
 2051 06aa 488D7424 		leaq	12(%rsp), %rsi
 2051      0C
 2052 06af 4C89E1   		movq	%r12, %rcx
 2053 06b2 E8000000 		call	_ZN8UnitTest10CheckEqualI9USBStatusS1_EEvRNS_11TestResultsERKT_RKT0_RKNS_11TestDetailsE
 2053      00
 2054              	.LEHE41:
 2055              	.L142:
 2056 06b7 4889EF   		movq	%rbp, %rdi
 2057              	.LEHB42:
 2058 06ba E8000000 		call	queueDestroy@PLT
 2058      00
 2059              	.LEHE42:
 2060 06bf 488B4424 		movq	104(%rsp), %rax
 2060      68
 2061 06c4 64482B04 		subq	%fs:40, %rax
 2061      25280000 
 2061      00
 2062 06cd 750A     		jne	.L149
 2063 06cf 4883C470 		addq	$112, %rsp
 2064              		.cfi_remember_state
 2065              		.cfi_def_cfa_offset 32
 2066 06d3 5D       		popq	%rbp
 2067              		.cfi_def_cfa_offset 24
 2068 06d4 415C     		popq	%r12
 2069              		.cfi_def_cfa_offset 16
 2070 06d6 415D     		popq	%r13
 2071              		.cfi_def_cfa_offset 8
 2072 06d8 C3       		ret
 2073              	.L149:
 2074              		.cfi_restore_state
 2075 06d9 E8000000 		call	__stack_chk_fail@PLT
 2075      00
 2076              	.L145:
 2077 06de F30F1EFA 		endbr64
 2078 06e2 4889C7   		movq	%rax, %rdi
 2079 06e5 E9000000 		jmp	.L141
 2079      00
 2080              		.section	.gcc_except_table
 2081              		.align 4
 2082              	.LLSDA1267:
 2083 0094 FF       		.byte	0xff
 2084 0095 9B       		.byte	0x9b
 2085 0096 19       		.uleb128 .LLSDATT1267-.LLSDATTD1267
 2086              	.LLSDATTD1267:
 2087 0097 01       		.byte	0x1
 2088 0098 0E       		.uleb128 .LLSDACSE1267-.LLSDACSB1267
 2089              	.LLSDACSB1267:
 2090 0099 42       		.uleb128 .LEHB40-.LFB1267
 2091 009a 05       		.uleb128 .LEHE40-.LEHB40
 2092 009b 00       		.uleb128 0
 2093 009c 00       		.uleb128 0
 2094 009d 4B       		.uleb128 .LEHB41-.LFB1267
 2095 009e 3C       		.uleb128 .LEHE41-.LEHB41
 2096 009f AE01     		.uleb128 .L145-.LFB1267
 2097 00a1 01       		.uleb128 0x1
 2098 00a2 8A01     		.uleb128 .LEHB42-.LFB1267
 2099 00a4 05       		.uleb128 .LEHE42-.LEHB42
 2100 00a5 00       		.uleb128 0
 2101 00a6 00       		.uleb128 0
 2102              	.LLSDACSE1267:
 2103 00a7 01       		.byte	0x1
 2104 00a8 00       		.byte	0
 2105 00a9 000000   		.align 4
 2106 00ac 00000000 		.long	0
 2107              	
 2108              	.LLSDATT1267:
 2109              		.text
 2110              		.cfi_endproc
 2111              		.section	.text.unlikely
 2112              		.cfi_startproc
 2113              		.cfi_personality 0x9b,DW.ref.__gxx_personality_v0
 2114              		.cfi_lsda 0x1b,.LLSDAC1267
 2116              	_ZNK22TestQueue_testAllocOOM7RunImplEv.cold:
 2117              	.LFSB1267:
 2118              	.L141:
 2119              		.cfi_def_cfa_offset 144
 2120              		.cfi_offset 6, -32
 2121              		.cfi_offset 12, -24
 2122              		.cfi_offset 13, -16
 2123 00fc E8000000 		call	__cxa_begin_catch@PLT
 2123      00
 2124              	.LEHB43:
 2125 0101 E8000000 		call	_ZN8UnitTest11CurrentTest7ResultsEv@PLT
 2125      00
 2126 0106 4C8B28   		movq	(%rax), %r13
 2127 0109 E8000000 		call	_ZN8UnitTest11CurrentTest7DetailsEv@PLT
 2127      00
 2128 010e 4C8D6424 		leaq	16(%rsp), %r12
 2128      10
 2129 0113 488B30   		movq	(%rax), %rsi
 2130 0116 BA510100 		movl	$337, %edx
 2130      00
 2131 011b 4C89E7   		movq	%r12, %rdi
 2132 011e E8000000 		call	_ZN8UnitTest11TestDetailsC1ERKS0_i@PLT
 2132      00
 2133 0123 488D1500 		leaq	.LC8(%rip), %rdx
 2133      000000
 2134 012a 4C89E6   		movq	%r12, %rsi
 2135 012d 4C89EF   		movq	%r13, %rdi
 2136 0130 E8000000 		call	_ZN8UnitTest11TestResults13OnTestFailureERKNS_11TestDetailsEPKc@PLT
 2136      00
 2137              	.LEHE43:
 2138              	.LEHB44:
 2139 0135 E8000000 		call	__cxa_end_catch@PLT
 2139      00
 2140              	.LEHE44:
 2141 013a E9000000 		jmp	.L142
 2141      00
 2142              	.L146:
 2143 013f F30F1EFA 		endbr64
 2144 0143 4889C5   		movq	%rax, %rbp
 2145 0146 E8000000 		call	__cxa_end_catch@PLT
 2145      00
 2146 014b 4889EF   		movq	%rbp, %rdi
 2147              	.LEHB45:
 2148 014e E8000000 		call	_Unwind_Resume@PLT
 2148      00
 2149              	.LEHE45:
 2150              		.cfi_endproc
 2151              	.LFE1267:
 2152              		.section	.gcc_except_table
 2153              		.align 4
 2154              	.LLSDAC1267:
 2155 00b0 FF       		.byte	0xff
 2156 00b1 9B       		.byte	0x9b
 2157 00b2 15       		.uleb128 .LLSDATTC1267-.LLSDATTDC1267
 2158              	.LLSDATTDC1267:
 2159 00b3 01       		.byte	0x1
 2160 00b4 0C       		.uleb128 .LLSDACSEC1267-.LLSDACSBC1267
 2161              	.LLSDACSBC1267:
 2162 00b5 05       		.uleb128 .LEHB43-.LCOLDB9
 2163 00b6 34       		.uleb128 .LEHE43-.LEHB43
 2164 00b7 43       		.uleb128 .L146-.LCOLDB9
 2165 00b8 00       		.uleb128 0
 2166 00b9 39       		.uleb128 .LEHB44-.LCOLDB9
 2167 00ba 05       		.uleb128 .LEHE44-.LEHB44
 2168 00bb 00       		.uleb128 0
 2169 00bc 00       		.uleb128 0
 2170 00bd 52       		.uleb128 .LEHB45-.LCOLDB9
 2171 00be 05       		.uleb128 .LEHE45-.LEHB45
 2172 00bf 00       		.uleb128 0
 2173 00c0 00       		.uleb128 0
 2174              	.LLSDACSEC1267:
 2175 00c1 01       		.byte	0x1
 2176 00c2 00       		.byte	0
 2177 00c3 00       		.align 4
 2178 00c4 00000000 		.long	0
 2179              	
 2180              	.LLSDATTC1267:
 2181              		.section	.text.unlikely
 2182              		.text
 2184              		.section	.text.unlikely
 2186              	.LCOLDE9:
 2187              		.text
 2188              	.LHOTE9:
 2189              		.section	.rodata.str1.8
 2190 0072 00000000 		.align 8
 2190      0000
 2191              	.LC10:
 2192 0078 556E6861 		.string	"Unhandled exception in CHECK_EQUAL(USB_SUCCESS, status)"
 2192      6E646C65 
 2192      64206578 
 2192      63657074 
 2192      696F6E20 
 2193              		.section	.text.unlikely
 2194 0153 90       		.align 2
 2195              	.LCOLDB11:
 2196              		.text
 2197              	.LHOTB11:
 2198              		.align 2
 2199 06ea 660F1F44 		.p2align 4
 2199      0000
 2200              		.globl	_ZNK24TestQueue_testReallocOOM7RunImplEv
 2202              	_ZNK24TestQueue_testReallocOOM7RunImplEv:
 2203              	.LFB1271:
 2204              		.cfi_startproc
 2205              		.cfi_personality 0x9b,DW.ref.__gxx_personality_v0
 2206              		.cfi_lsda 0x1b,.LLSDA1271
 2207 06f0 F30F1EFA 		endbr64
 2208 06f4 4156     		pushq	%r14
 2209              		.cfi_def_cfa_offset 16
 2210              		.cfi_offset 14, -16
 2211 06f6 488D0D00 		leaq	destroyInt(%rip), %rcx
 2211      000000
 2212 06fd BE080000 		movl	$8, %esi
 2212      00
 2213 0702 488D1500 		leaq	createInt(%rip), %rdx
 2213      000000
 2214 0709 4155     		pushq	%r13
 2215              		.cfi_def_cfa_offset 24
 2216              		.cfi_offset 13, -24
 2217 070b 4154     		pushq	%r12
 2218              		.cfi_def_cfa_offset 32
 2219              		.cfi_offset 12, -32
 2220 070d 55       		pushq	%rbp
 2221              		.cfi_def_cfa_offset 40
 2222              		.cfi_offset 6, -40
 2223 070e 4883EC78 		subq	$120, %rsp
 2224              		.cfi_def_cfa_offset 160
 2225 0712 64488B04 		movq	%fs:40, %rax
 2225      25280000 
 2225      00
 2226 071b 48894424 		movq	%rax, 104(%rsp)
 2226      68
 2227 0720 31C0     		xorl	%eax, %eax
 2228 0722 4C8D6424 		leaq	48(%rsp), %r12
 2228      30
 2229 0727 C7050000 		movl	$1, _ZL7m_count(%rip)
 2229      00000100 
 2229      0000
 2230 0731 4C89E7   		movq	%r12, %rdi
 2231              	.LEHB46:
 2232 0734 E8000000 		call	queueInit@PLT
 2232      00
 2233              	.LEHE46:
 2234 0739 890424   		movl	%eax, (%rsp)
 2235              	.LEHB47:
 2236 073c E8000000 		call	_ZN8UnitTest11CurrentTest7DetailsEv@PLT
 2236      00
 2237 0741 488D6C24 		leaq	16(%rsp), %rbp
 2237      10
 2238 0746 488B30   		movq	(%rax), %rsi
 2239 0749 BA5D0100 		movl	$349, %edx
 2239      00
 2240 074e 4889EF   		movq	%rbp, %rdi
 2241 0751 E8000000 		call	_ZN8UnitTest11TestDetailsC1ERKS0_i@PLT
 2241      00
 2242 0756 C7442408 		movl	$0, 8(%rsp)
 2242      00000000 
 2243 075e E8000000 		call	_ZN8UnitTest11CurrentTest7ResultsEv@PLT
 2243      00
 2244 0763 4C8D6C24 		leaq	8(%rsp), %r13
 2244      08
 2245 0768 488B38   		movq	(%rax), %rdi
 2246 076b 4889E2   		movq	%rsp, %rdx
 2247 076e 4889E9   		movq	%rbp, %rcx
 2248 0771 4C89EE   		movq	%r13, %rsi
 2249 0774 E8E7FBFF 		call	_ZN8UnitTest10CheckEqualI9USBStatusS1_EEvRNS_11TestResultsERKT_RKT0_RKNS_11TestDetailsE.const
 2249      FF
 2250              	.LEHE47:
 2251              	.L152:
 2252 0779 4C89EE   		movq	%r13, %rsi
 2253 077c 4C89E7   		movq	%r12, %rdi
 2254              	.LEHB48:
 2255 077f E8000000 		call	queuePut@PLT
 2255      00
 2256              	.LEHE48:
 2257 0784 890424   		movl	%eax, (%rsp)
 2258              	.LEHB49:
 2259 0787 E8000000 		call	_ZN8UnitTest11CurrentTest7DetailsEv@PLT
 2259      00
 2260 078c 488B30   		movq	(%rax), %rsi
 2261 078f BA610100 		movl	$353, %edx
 2261      00
 2262 0794 4889EF   		movq	%rbp, %rdi
 2263 0797 E8000000 		call	_ZN8UnitTest11TestDetailsC1ERKS0_i@PLT
 2263      00
 2264 079c C7442404 		movl	$0, 4(%rsp)
 2264      00000000 
 2265 07a4 E8000000 		call	_ZN8UnitTest11CurrentTest7ResultsEv@PLT
 2265      00
 2266 07a9 488B38   		movq	(%rax), %rdi
 2267 07ac 4889E2   		movq	%rsp, %rdx
 2268 07af 488D7424 		leaq	4(%rsp), %rsi
 2268      04
 2269 07b4 4889E9   		movq	%rbp, %rcx
 2270 07b7 E8A4FBFF 		call	_ZN8UnitTest10CheckEqualI9USBStatusS1_EEvRNS_11TestResultsERKT_RKT0_RKNS_11TestDetailsE.const
 2270      FF
 2271              	.LEHE49:
 2272              	.L155:
 2273 07bc 4C89E7   		movq	%r12, %rdi
 2274              	.LEHB50:
 2275 07bf E8000000 		call	queueCommitPut@PLT
 2275      00
 2276 07c4 4C89EE   		movq	%r13, %rsi
 2277 07c7 4C89E7   		movq	%r12, %rdi
 2278 07ca E8000000 		call	queuePut@PLT
 2278      00
 2279              	.LEHE50:
 2280 07cf 890424   		movl	%eax, (%rsp)
 2281              	.LEHB51:
 2282 07d2 E8000000 		call	_ZN8UnitTest11CurrentTest7DetailsEv@PLT
 2282      00
 2283 07d7 488B30   		movq	(%rax), %rsi
 2284 07da BA640100 		movl	$356, %edx
 2284      00
 2285 07df 4889EF   		movq	%rbp, %rdi
 2286 07e2 E8000000 		call	_ZN8UnitTest11TestDetailsC1ERKS0_i@PLT
 2286      00
 2287 07e7 C7442404 		movl	$0, 4(%rsp)
 2287      00000000 
 2288 07ef E8000000 		call	_ZN8UnitTest11CurrentTest7ResultsEv@PLT
 2288      00
 2289 07f4 488B38   		movq	(%rax), %rdi
 2290 07f7 4889E2   		movq	%rsp, %rdx
 2291 07fa 488D7424 		leaq	4(%rsp), %rsi
 2291      04
 2292 07ff 4889E9   		movq	%rbp, %rcx
 2293 0802 E859FBFF 		call	_ZN8UnitTest10CheckEqualI9USBStatusS1_EEvRNS_11TestResultsERKT_RKT0_RKNS_11TestDetailsE.const
 2293      FF
 2294              	.LEHE51:
 2295              	.L158:
 2296 0807 4C89E7   		movq	%r12, %rdi
 2297              	.LEHB52:
 2298 080a E8000000 		call	queueCommitPut@PLT
 2298      00
 2299 080f 4C89EE   		movq	%r13, %rsi
 2300 0812 4C89E7   		movq	%r12, %rdi
 2301 0815 E8000000 		call	queuePut@PLT
 2301      00
 2302              	.LEHE52:
 2303 081a 890424   		movl	%eax, (%rsp)
 2304              	.LEHB53:
 2305 081d E8000000 		call	_ZN8UnitTest11CurrentTest7DetailsEv@PLT
 2305      00
 2306 0822 488B30   		movq	(%rax), %rsi
 2307 0825 BA670100 		movl	$359, %edx
 2307      00
 2308 082a 4889EF   		movq	%rbp, %rdi
 2309 082d E8000000 		call	_ZN8UnitTest11TestDetailsC1ERKS0_i@PLT
 2309      00
 2310 0832 C7442404 		movl	$0, 4(%rsp)
 2310      00000000 
 2311 083a E8000000 		call	_ZN8UnitTest11CurrentTest7ResultsEv@PLT
 2311      00
 2312 083f 488B38   		movq	(%rax), %rdi
 2313 0842 4889E2   		movq	%rsp, %rdx
 2314 0845 488D7424 		leaq	4(%rsp), %rsi
 2314      04
 2315 084a 4889E9   		movq	%rbp, %rcx
 2316 084d E80EFBFF 		call	_ZN8UnitTest10CheckEqualI9USBStatusS1_EEvRNS_11TestResultsERKT_RKT0_RKNS_11TestDetailsE.const
 2316      FF
 2317              	.LEHE53:
 2318              	.L161:
 2319 0852 4C89E7   		movq	%r12, %rdi
 2320              	.LEHB54:
 2321 0855 E8000000 		call	queueCommitPut@PLT
 2321      00
 2322 085a 4C89EE   		movq	%r13, %rsi
 2323 085d 4C89E7   		movq	%r12, %rdi
 2324 0860 E8000000 		call	queuePut@PLT
 2324      00
 2325              	.LEHE54:
 2326 0865 890424   		movl	%eax, (%rsp)
 2327              	.LEHB55:
 2328 0868 E8000000 		call	_ZN8UnitTest11CurrentTest7DetailsEv@PLT
 2328      00
 2329 086d 488B30   		movq	(%rax), %rsi
 2330 0870 BA6A0100 		movl	$362, %edx
 2330      00
 2331 0875 4889EF   		movq	%rbp, %rdi
 2332 0878 E8000000 		call	_ZN8UnitTest11TestDetailsC1ERKS0_i@PLT
 2332      00
 2333 087d C7442404 		movl	$0, 4(%rsp)
 2333      00000000 
 2334 0885 E8000000 		call	_ZN8UnitTest11CurrentTest7ResultsEv@PLT
 2334      00
 2335 088a 488B38   		movq	(%rax), %rdi
 2336 088d 4889E2   		movq	%rsp, %rdx
 2337 0890 488D7424 		leaq	4(%rsp), %rsi
 2337      04
 2338 0895 4889E9   		movq	%rbp, %rcx
 2339 0898 E8C3FAFF 		call	_ZN8UnitTest10CheckEqualI9USBStatusS1_EEvRNS_11TestResultsERKT_RKT0_RKNS_11TestDetailsE.const
 2339      FF
 2340              	.LEHE55:
 2341              	.L164:
 2342 089d 4C89E7   		movq	%r12, %rdi
 2343              	.LEHB56:
 2344 08a0 E8000000 		call	queueCommitPut@PLT
 2344      00
 2345 08a5 4C89EE   		movq	%r13, %rsi
 2346 08a8 4C89E7   		movq	%r12, %rdi
 2347 08ab E8000000 		call	queuePut@PLT
 2347      00
 2348              	.LEHE56:
 2349 08b0 890424   		movl	%eax, (%rsp)
 2350              	.LEHB57:
 2351 08b3 E8000000 		call	_ZN8UnitTest11CurrentTest7DetailsEv@PLT
 2351      00
 2352 08b8 488B30   		movq	(%rax), %rsi
 2353 08bb BA6D0100 		movl	$365, %edx
 2353      00
 2354 08c0 4889EF   		movq	%rbp, %rdi
 2355 08c3 E8000000 		call	_ZN8UnitTest11TestDetailsC1ERKS0_i@PLT
 2355      00
 2356 08c8 C7442404 		movl	$0, 4(%rsp)
 2356      00000000 
 2357 08d0 E8000000 		call	_ZN8UnitTest11CurrentTest7ResultsEv@PLT
 2357      00
 2358 08d5 488B38   		movq	(%rax), %rdi
 2359 08d8 4889E2   		movq	%rsp, %rdx
 2360 08db 488D7424 		leaq	4(%rsp), %rsi
 2360      04
 2361 08e0 4889E9   		movq	%rbp, %rcx
 2362 08e3 E878FAFF 		call	_ZN8UnitTest10CheckEqualI9USBStatusS1_EEvRNS_11TestResultsERKT_RKT0_RKNS_11TestDetailsE.const
 2362      FF
 2363              	.LEHE57:
 2364              	.L167:
 2365 08e8 4C89E7   		movq	%r12, %rdi
 2366              	.LEHB58:
 2367 08eb E8000000 		call	queueCommitPut@PLT
 2367      00
 2368 08f0 4C89EE   		movq	%r13, %rsi
 2369 08f3 4C89E7   		movq	%r12, %rdi
 2370 08f6 E8000000 		call	queuePut@PLT
 2370      00
 2371              	.LEHE58:
 2372 08fb 890424   		movl	%eax, (%rsp)
 2373              	.LEHB59:
 2374 08fe E8000000 		call	_ZN8UnitTest11CurrentTest7DetailsEv@PLT
 2374      00
 2375 0903 488B30   		movq	(%rax), %rsi
 2376 0906 BA700100 		movl	$368, %edx
 2376      00
 2377 090b 4889EF   		movq	%rbp, %rdi
 2378 090e E8000000 		call	_ZN8UnitTest11TestDetailsC1ERKS0_i@PLT
 2378      00
 2379 0913 C7442404 		movl	$0, 4(%rsp)
 2379      00000000 
 2380 091b E8000000 		call	_ZN8UnitTest11CurrentTest7ResultsEv@PLT
 2380      00
 2381 0920 488B38   		movq	(%rax), %rdi
 2382 0923 4889E2   		movq	%rsp, %rdx
 2383 0926 488D7424 		leaq	4(%rsp), %rsi
 2383      04
 2384 092b 4889E9   		movq	%rbp, %rcx
 2385 092e E82DFAFF 		call	_ZN8UnitTest10CheckEqualI9USBStatusS1_EEvRNS_11TestResultsERKT_RKT0_RKNS_11TestDetailsE.const
 2385      FF
 2386              	.LEHE59:
 2387              	.L170:
 2388 0933 4C89E7   		movq	%r12, %rdi
 2389              	.LEHB60:
 2390 0936 E8000000 		call	queueCommitPut@PLT
 2390      00
 2391 093b 4C89EE   		movq	%r13, %rsi
 2392 093e 4C89E7   		movq	%r12, %rdi
 2393 0941 E8000000 		call	queuePut@PLT
 2393      00
 2394              	.LEHE60:
 2395 0946 890424   		movl	%eax, (%rsp)
 2396              	.LEHB61:
 2397 0949 E8000000 		call	_ZN8UnitTest11CurrentTest7DetailsEv@PLT
 2397      00
 2398 094e 488B30   		movq	(%rax), %rsi
 2399 0951 BA730100 		movl	$371, %edx
 2399      00
 2400 0956 4889EF   		movq	%rbp, %rdi
 2401 0959 E8000000 		call	_ZN8UnitTest11TestDetailsC1ERKS0_i@PLT
 2401      00
 2402 095e C7442404 		movl	$0, 4(%rsp)
 2402      00000000 
 2403 0966 E8000000 		call	_ZN8UnitTest11CurrentTest7ResultsEv@PLT
 2403      00
 2404 096b 488B38   		movq	(%rax), %rdi
 2405 096e 4889E2   		movq	%rsp, %rdx
 2406 0971 488D7424 		leaq	4(%rsp), %rsi
 2406      04
 2407 0976 4889E9   		movq	%rbp, %rcx
 2408 0979 E8E2F9FF 		call	_ZN8UnitTest10CheckEqualI9USBStatusS1_EEvRNS_11TestResultsERKT_RKT0_RKNS_11TestDetailsE.const
 2408      FF
 2409              	.LEHE61:
 2410              	.L173:
 2411 097e 4C89E7   		movq	%r12, %rdi
 2412              	.LEHB62:
 2413 0981 E8000000 		call	queueCommitPut@PLT
 2413      00
 2414 0986 4C89EE   		movq	%r13, %rsi
 2415 0989 4C89E7   		movq	%r12, %rdi
 2416 098c E8000000 		call	queuePut@PLT
 2416      00
 2417              	.LEHE62:
 2418 0991 890424   		movl	%eax, (%rsp)
 2419              	.LEHB63:
 2420 0994 E8000000 		call	_ZN8UnitTest11CurrentTest7DetailsEv@PLT
 2420      00
 2421 0999 488B30   		movq	(%rax), %rsi
 2422 099c BA760100 		movl	$374, %edx
 2422      00
 2423 09a1 4889EF   		movq	%rbp, %rdi
 2424 09a4 E8000000 		call	_ZN8UnitTest11TestDetailsC1ERKS0_i@PLT
 2424      00
 2425 09a9 C7442404 		movl	$0, 4(%rsp)
 2425      00000000 
 2426 09b1 E8000000 		call	_ZN8UnitTest11CurrentTest7ResultsEv@PLT
 2426      00
 2427 09b6 488B38   		movq	(%rax), %rdi
 2428 09b9 4889E2   		movq	%rsp, %rdx
 2429 09bc 488D7424 		leaq	4(%rsp), %rsi
 2429      04
 2430 09c1 4889E9   		movq	%rbp, %rcx
 2431 09c4 E897F9FF 		call	_ZN8UnitTest10CheckEqualI9USBStatusS1_EEvRNS_11TestResultsERKT_RKT0_RKNS_11TestDetailsE.const
 2431      FF
 2432              	.LEHE63:
 2433              	.L176:
 2434 09c9 4C89E7   		movq	%r12, %rdi
 2435              	.LEHB64:
 2436 09cc E8000000 		call	queueCommitPut@PLT
 2436      00
 2437 09d1 4C89EE   		movq	%r13, %rsi
 2438 09d4 4C89E7   		movq	%r12, %rdi
 2439 09d7 E8000000 		call	queuePut@PLT
 2439      00
 2440              	.LEHE64:
 2441 09dc 890424   		movl	%eax, (%rsp)
 2442              	.LEHB65:
 2443 09df E8000000 		call	_ZN8UnitTest11CurrentTest7DetailsEv@PLT
 2443      00
 2444 09e4 488B30   		movq	(%rax), %rsi
 2445 09e7 BA7B0100 		movl	$379, %edx
 2445      00
 2446 09ec 4889EF   		movq	%rbp, %rdi
 2447 09ef E8000000 		call	_ZN8UnitTest11TestDetailsC1ERKS0_i@PLT
 2447      00
 2448 09f4 C7442404 		movl	$12, 4(%rsp)
 2448      0C000000 
 2449 09fc E8000000 		call	_ZN8UnitTest11CurrentTest7ResultsEv@PLT
 2449      00
 2450 0a01 488B38   		movq	(%rax), %rdi
 2451 0a04 4889E2   		movq	%rsp, %rdx
 2452 0a07 488D7424 		leaq	4(%rsp), %rsi
 2452      04
 2453 0a0c 4889E9   		movq	%rbp, %rcx
 2454 0a0f E8000000 		call	_ZN8UnitTest10CheckEqualI9USBStatusS1_EEvRNS_11TestResultsERKT_RKT0_RKNS_11TestDetailsE
 2454      00
 2455              	.LEHE65:
 2456              	.L179:
 2457 0a14 4C89E7   		movq	%r12, %rdi
 2458              	.LEHB66:
 2459 0a17 E8000000 		call	queueDestroy@PLT
 2459      00
 2460              	.LEHE66:
 2461 0a1c 488B4424 		movq	104(%rsp), %rax
 2461      68
 2462 0a21 64482B04 		subq	%fs:40, %rax
 2462      25280000 
 2462      00
 2463 0a2a 750C     		jne	.L204
 2464 0a2c 4883C478 		addq	$120, %rsp
 2465              		.cfi_remember_state
 2466              		.cfi_def_cfa_offset 40
 2467 0a30 5D       		popq	%rbp
 2468              		.cfi_def_cfa_offset 32
 2469 0a31 415C     		popq	%r12
 2470              		.cfi_def_cfa_offset 24
 2471 0a33 415D     		popq	%r13
 2472              		.cfi_def_cfa_offset 16
 2473 0a35 415E     		popq	%r14
 2474              		.cfi_def_cfa_offset 8
 2475 0a37 C3       		ret
 2476              	.L204:
 2477              		.cfi_restore_state
 2478 0a38 E8000000 		call	__stack_chk_fail@PLT
 2478      00
 2479              	.L200:
 2480 0a3d F30F1EFA 		endbr64
 2481 0a41 4889C7   		movq	%rax, %rdi
 2482 0a44 E9000000 		jmp	.L178
 2482      00
 2483              	.L198:
 2484 0a49 F30F1EFA 		endbr64
 2485 0a4d 4889C7   		movq	%rax, %rdi
 2486 0a50 E9000000 		jmp	.L175
 2486      00
 2487              	.L196:
 2488 0a55 F30F1EFA 		endbr64
 2489 0a59 4889C7   		movq	%rax, %rdi
 2490 0a5c E9000000 		jmp	.L172
 2490      00
 2491              	.L194:
 2492 0a61 F30F1EFA 		endbr64
 2493 0a65 4889C7   		movq	%rax, %rdi
 2494 0a68 E9000000 		jmp	.L169
 2494      00
 2495              	.L192:
 2496 0a6d F30F1EFA 		endbr64
 2497 0a71 4889C7   		movq	%rax, %rdi
 2498 0a74 E9000000 		jmp	.L166
 2498      00
 2499              	.L190:
 2500 0a79 F30F1EFA 		endbr64
 2501 0a7d 4889C7   		movq	%rax, %rdi
 2502 0a80 E9000000 		jmp	.L163
 2502      00
 2503              	.L188:
 2504 0a85 F30F1EFA 		endbr64
 2505 0a89 4889C7   		movq	%rax, %rdi
 2506 0a8c E9000000 		jmp	.L160
 2506      00
 2507              	.L186:
 2508 0a91 F30F1EFA 		endbr64
 2509 0a95 4889C7   		movq	%rax, %rdi
 2510 0a98 E9000000 		jmp	.L157
 2510      00
 2511              	.L184:
 2512 0a9d F30F1EFA 		endbr64
 2513 0aa1 4889C7   		movq	%rax, %rdi
 2514 0aa4 E9000000 		jmp	.L154
 2514      00
 2515              	.L182:
 2516 0aa9 F30F1EFA 		endbr64
 2517 0aad 4889C7   		movq	%rax, %rdi
 2518 0ab0 E9000000 		jmp	.L151
 2518      00
 2519              		.section	.gcc_except_table
 2520              		.align 4
 2521              	.LLSDA1271:
 2522 00c8 FF       		.byte	0xff
 2523 00c9 9B       		.byte	0x9b
 2524 00ca 79       		.uleb128 .LLSDATT1271-.LLSDATTD1271
 2525              	.LLSDATTD1271:
 2526 00cb 01       		.byte	0x1
 2527 00cc 71       		.uleb128 .LLSDACSE1271-.LLSDACSB1271
 2528              	.LLSDACSB1271:
 2529 00cd 44       		.uleb128 .LEHB46-.LFB1271
 2530 00ce 05       		.uleb128 .LEHE46-.LEHB46
 2531 00cf 00       		.uleb128 0
 2532 00d0 00       		.uleb128 0
 2533 00d1 4C       		.uleb128 .LEHB47-.LFB1271
 2534 00d2 3D       		.uleb128 .LEHE47-.LEHB47
 2535 00d3 B907     		.uleb128 .L182-.LFB1271
 2536 00d5 01       		.uleb128 0x1
 2537 00d6 8F01     		.uleb128 .LEHB48-.LFB1271
 2538 00d8 05       		.uleb128 .LEHE48-.LEHB48
 2539 00d9 00       		.uleb128 0
 2540 00da 00       		.uleb128 0
 2541 00db 9701     		.uleb128 .LEHB49-.LFB1271
 2542 00dd 35       		.uleb128 .LEHE49-.LEHB49
 2543 00de AD07     		.uleb128 .L184-.LFB1271
 2544 00e0 01       		.uleb128 0x1
 2545 00e1 CF01     		.uleb128 .LEHB50-.LFB1271
 2546 00e3 10       		.uleb128 .LEHE50-.LEHB50
 2547 00e4 00       		.uleb128 0
 2548 00e5 00       		.uleb128 0
 2549 00e6 E201     		.uleb128 .LEHB51-.LFB1271
 2550 00e8 35       		.uleb128 .LEHE51-.LEHB51
 2551 00e9 A107     		.uleb128 .L186-.LFB1271
 2552 00eb 01       		.uleb128 0x1
 2553 00ec 9A02     		.uleb128 .LEHB52-.LFB1271
 2554 00ee 10       		.uleb128 .LEHE52-.LEHB52
 2555 00ef 00       		.uleb128 0
 2556 00f0 00       		.uleb128 0
 2557 00f1 AD02     		.uleb128 .LEHB53-.LFB1271
 2558 00f3 35       		.uleb128 .LEHE53-.LEHB53
 2559 00f4 9507     		.uleb128 .L188-.LFB1271
 2560 00f6 01       		.uleb128 0x1
 2561 00f7 E502     		.uleb128 .LEHB54-.LFB1271
 2562 00f9 10       		.uleb128 .LEHE54-.LEHB54
 2563 00fa 00       		.uleb128 0
 2564 00fb 00       		.uleb128 0
 2565 00fc F802     		.uleb128 .LEHB55-.LFB1271
 2566 00fe 35       		.uleb128 .LEHE55-.LEHB55
 2567 00ff 8907     		.uleb128 .L190-.LFB1271
 2568 0101 01       		.uleb128 0x1
 2569 0102 B003     		.uleb128 .LEHB56-.LFB1271
 2570 0104 10       		.uleb128 .LEHE56-.LEHB56
 2571 0105 00       		.uleb128 0
 2572 0106 00       		.uleb128 0
 2573 0107 C303     		.uleb128 .LEHB57-.LFB1271
 2574 0109 35       		.uleb128 .LEHE57-.LEHB57
 2575 010a FD06     		.uleb128 .L192-.LFB1271
 2576 010c 01       		.uleb128 0x1
 2577 010d FB03     		.uleb128 .LEHB58-.LFB1271
 2578 010f 10       		.uleb128 .LEHE58-.LEHB58
 2579 0110 00       		.uleb128 0
 2580 0111 00       		.uleb128 0
 2581 0112 8E04     		.uleb128 .LEHB59-.LFB1271
 2582 0114 35       		.uleb128 .LEHE59-.LEHB59
 2583 0115 F106     		.uleb128 .L194-.LFB1271
 2584 0117 01       		.uleb128 0x1
 2585 0118 C604     		.uleb128 .LEHB60-.LFB1271
 2586 011a 10       		.uleb128 .LEHE60-.LEHB60
 2587 011b 00       		.uleb128 0
 2588 011c 00       		.uleb128 0
 2589 011d D904     		.uleb128 .LEHB61-.LFB1271
 2590 011f 35       		.uleb128 .LEHE61-.LEHB61
 2591 0120 E506     		.uleb128 .L196-.LFB1271
 2592 0122 01       		.uleb128 0x1
 2593 0123 9105     		.uleb128 .LEHB62-.LFB1271
 2594 0125 10       		.uleb128 .LEHE62-.LEHB62
 2595 0126 00       		.uleb128 0
 2596 0127 00       		.uleb128 0
 2597 0128 A405     		.uleb128 .LEHB63-.LFB1271
 2598 012a 35       		.uleb128 .LEHE63-.LEHB63
 2599 012b D906     		.uleb128 .L198-.LFB1271
 2600 012d 01       		.uleb128 0x1
 2601 012e DC05     		.uleb128 .LEHB64-.LFB1271
 2602 0130 10       		.uleb128 .LEHE64-.LEHB64
 2603 0131 00       		.uleb128 0
 2604 0132 00       		.uleb128 0
 2605 0133 EF05     		.uleb128 .LEHB65-.LFB1271
 2606 0135 35       		.uleb128 .LEHE65-.LEHB65
 2607 0136 CD06     		.uleb128 .L200-.LFB1271
 2608 0138 01       		.uleb128 0x1
 2609 0139 A706     		.uleb128 .LEHB66-.LFB1271
 2610 013b 05       		.uleb128 .LEHE66-.LEHB66
 2611 013c 00       		.uleb128 0
 2612 013d 00       		.uleb128 0
 2613              	.LLSDACSE1271:
 2614 013e 01       		.byte	0x1
 2615 013f 00       		.byte	0
 2616              		.align 4
 2617 0140 00000000 		.long	0
 2618              	
 2619              	.LLSDATT1271:
 2620              		.text
 2621              		.cfi_endproc
 2622              		.section	.text.unlikely
 2623              		.cfi_startproc
 2624              		.cfi_personality 0x9b,DW.ref.__gxx_personality_v0
 2625              		.cfi_lsda 0x1b,.LLSDAC1271
 2627              	_ZNK24TestQueue_testReallocOOM7RunImplEv.cold:
 2628              	.LFSB1271:
 2629              	.L178:
 2630              		.cfi_def_cfa_offset 160
 2631              		.cfi_offset 6, -40
 2632              		.cfi_offset 12, -32
 2633              		.cfi_offset 13, -24
 2634              		.cfi_offset 14, -16
 2635 0154 E8000000 		call	__cxa_begin_catch@PLT
 2635      00
 2636              	.LEHB67:
 2637 0159 E8000000 		call	_ZN8UnitTest11CurrentTest7ResultsEv@PLT
 2637      00
 2638 015e 4C8B28   		movq	(%rax), %r13
 2639 0161 E8000000 		call	_ZN8UnitTest11CurrentTest7DetailsEv@PLT
 2639      00
 2640 0166 488B30   		movq	(%rax), %rsi
 2641 0169 BA7B0100 		movl	$379, %edx
 2641      00
 2642 016e 4889EF   		movq	%rbp, %rdi
 2643 0171 E8000000 		call	_ZN8UnitTest11TestDetailsC1ERKS0_i@PLT
 2643      00
 2644 0176 488D1500 		leaq	.LC8(%rip), %rdx
 2644      000000
 2645 017d 4889EE   		movq	%rbp, %rsi
 2646 0180 4C89EF   		movq	%r13, %rdi
 2647 0183 E8000000 		call	_ZN8UnitTest11TestResults13OnTestFailureERKNS_11TestDetailsEPKc@PLT
 2647      00
 2648              	.LEHE67:
 2649              	.LEHB68:
 2650 0188 E8000000 		call	__cxa_end_catch@PLT
 2650      00
 2651              	.LEHE68:
 2652 018d E9000000 		jmp	.L179
 2652      00
 2653              	.L175:
 2654 0192 E8000000 		call	__cxa_begin_catch@PLT
 2654      00
 2655              	.LEHB69:
 2656 0197 E8000000 		call	_ZN8UnitTest11CurrentTest7ResultsEv@PLT
 2656      00
 2657 019c 4C8B30   		movq	(%rax), %r14
 2658 019f E8000000 		call	_ZN8UnitTest11CurrentTest7DetailsEv@PLT
 2658      00
 2659 01a4 488B30   		movq	(%rax), %rsi
 2660 01a7 BA760100 		movl	$374, %edx
 2660      00
 2661 01ac 4889EF   		movq	%rbp, %rdi
 2662 01af E8000000 		call	_ZN8UnitTest11TestDetailsC1ERKS0_i@PLT
 2662      00
 2663 01b4 488D1500 		leaq	.LC10(%rip), %rdx
 2663      000000
 2664 01bb 4889EE   		movq	%rbp, %rsi
 2665 01be 4C89F7   		movq	%r14, %rdi
 2666 01c1 E8000000 		call	_ZN8UnitTest11TestResults13OnTestFailureERKNS_11TestDetailsEPKc@PLT
 2666      00
 2667              	.LEHE69:
 2668              	.LEHB70:
 2669 01c6 E8000000 		call	__cxa_end_catch@PLT
 2669      00
 2670              	.LEHE70:
 2671 01cb E9000000 		jmp	.L176
 2671      00
 2672              	.L201:
 2673 01d0 F30F1EFA 		endbr64
 2674 01d4 4889C5   		movq	%rax, %rbp
 2675 01d7 E8000000 		call	__cxa_end_catch@PLT
 2675      00
 2676 01dc 4889EF   		movq	%rbp, %rdi
 2677              	.LEHB71:
 2678 01df E8000000 		call	_Unwind_Resume@PLT
 2678      00
 2679              	.LEHE71:
 2680              	.L199:
 2681 01e4 F30F1EFA 		endbr64
 2682 01e8 4889C5   		movq	%rax, %rbp
 2683 01eb E8000000 		call	__cxa_end_catch@PLT
 2683      00
 2684 01f0 4889EF   		movq	%rbp, %rdi
 2685              	.LEHB72:
 2686 01f3 E8000000 		call	_Unwind_Resume@PLT
 2686      00
 2687              	.LEHE72:
 2688              	.L172:
 2689 01f8 E8000000 		call	__cxa_begin_catch@PLT
 2689      00
 2690              	.LEHB73:
 2691 01fd E8000000 		call	_ZN8UnitTest11CurrentTest7ResultsEv@PLT
 2691      00
 2692 0202 4C8B30   		movq	(%rax), %r14
 2693 0205 E8000000 		call	_ZN8UnitTest11CurrentTest7DetailsEv@PLT
 2693      00
 2694 020a 488B30   		movq	(%rax), %rsi
 2695 020d BA730100 		movl	$371, %edx
 2695      00
 2696 0212 4889EF   		movq	%rbp, %rdi
 2697 0215 E8000000 		call	_ZN8UnitTest11TestDetailsC1ERKS0_i@PLT
 2697      00
 2698 021a 488D1500 		leaq	.LC10(%rip), %rdx
 2698      000000
 2699 0221 4889EE   		movq	%rbp, %rsi
 2700 0224 4C89F7   		movq	%r14, %rdi
 2701 0227 E8000000 		call	_ZN8UnitTest11TestResults13OnTestFailureERKNS_11TestDetailsEPKc@PLT
 2701      00
 2702              	.LEHE73:
 2703              	.LEHB74:
 2704 022c E8000000 		call	__cxa_end_catch@PLT
 2704      00
 2705              	.LEHE74:
 2706 0231 E9000000 		jmp	.L173
 2706      00
 2707              	.L169:
 2708 0236 E8000000 		call	__cxa_begin_catch@PLT
 2708      00
 2709              	.LEHB75:
 2710 023b E8000000 		call	_ZN8UnitTest11CurrentTest7ResultsEv@PLT
 2710      00
 2711 0240 4C8B30   		movq	(%rax), %r14
 2712 0243 E8000000 		call	_ZN8UnitTest11CurrentTest7DetailsEv@PLT
 2712      00
 2713 0248 488B30   		movq	(%rax), %rsi
 2714 024b BA700100 		movl	$368, %edx
 2714      00
 2715 0250 4889EF   		movq	%rbp, %rdi
 2716 0253 E8000000 		call	_ZN8UnitTest11TestDetailsC1ERKS0_i@PLT
 2716      00
 2717 0258 488D1500 		leaq	.LC10(%rip), %rdx
 2717      000000
 2718 025f 4889EE   		movq	%rbp, %rsi
 2719 0262 4C89F7   		movq	%r14, %rdi
 2720 0265 E8000000 		call	_ZN8UnitTest11TestResults13OnTestFailureERKNS_11TestDetailsEPKc@PLT
 2720      00
 2721              	.LEHE75:
 2722              	.LEHB76:
 2723 026a E8000000 		call	__cxa_end_catch@PLT
 2723      00
 2724              	.LEHE76:
 2725 026f E9000000 		jmp	.L170
 2725      00
 2726              	.L197:
 2727 0274 F30F1EFA 		endbr64
 2728 0278 4889C5   		movq	%rax, %rbp
 2729 027b E8000000 		call	__cxa_end_catch@PLT
 2729      00
 2730 0280 4889EF   		movq	%rbp, %rdi
 2731              	.LEHB77:
 2732 0283 E8000000 		call	_Unwind_Resume@PLT
 2732      00
 2733              	.LEHE77:
 2734              	.L195:
 2735 0288 F30F1EFA 		endbr64
 2736 028c 4889C5   		movq	%rax, %rbp
 2737 028f E8000000 		call	__cxa_end_catch@PLT
 2737      00
 2738 0294 4889EF   		movq	%rbp, %rdi
 2739              	.LEHB78:
 2740 0297 E8000000 		call	_Unwind_Resume@PLT
 2740      00
 2741              	.LEHE78:
 2742              	.L166:
 2743 029c E8000000 		call	__cxa_begin_catch@PLT
 2743      00
 2744              	.LEHB79:
 2745 02a1 E8000000 		call	_ZN8UnitTest11CurrentTest7ResultsEv@PLT
 2745      00
 2746 02a6 4C8B30   		movq	(%rax), %r14
 2747 02a9 E8000000 		call	_ZN8UnitTest11CurrentTest7DetailsEv@PLT
 2747      00
 2748 02ae 488B30   		movq	(%rax), %rsi
 2749 02b1 BA6D0100 		movl	$365, %edx
 2749      00
 2750 02b6 4889EF   		movq	%rbp, %rdi
 2751 02b9 E8000000 		call	_ZN8UnitTest11TestDetailsC1ERKS0_i@PLT
 2751      00
 2752 02be 488D1500 		leaq	.LC10(%rip), %rdx
 2752      000000
 2753 02c5 4889EE   		movq	%rbp, %rsi
 2754 02c8 4C89F7   		movq	%r14, %rdi
 2755 02cb E8000000 		call	_ZN8UnitTest11TestResults13OnTestFailureERKNS_11TestDetailsEPKc@PLT
 2755      00
 2756              	.LEHE79:
 2757              	.LEHB80:
 2758 02d0 E8000000 		call	__cxa_end_catch@PLT
 2758      00
 2759              	.LEHE80:
 2760 02d5 E9000000 		jmp	.L167
 2760      00
 2761              	.L163:
 2762 02da E8000000 		call	__cxa_begin_catch@PLT
 2762      00
 2763              	.LEHB81:
 2764 02df E8000000 		call	_ZN8UnitTest11CurrentTest7ResultsEv@PLT
 2764      00
 2765 02e4 4C8B30   		movq	(%rax), %r14
 2766 02e7 E8000000 		call	_ZN8UnitTest11CurrentTest7DetailsEv@PLT
 2766      00
 2767 02ec 488B30   		movq	(%rax), %rsi
 2768 02ef BA6A0100 		movl	$362, %edx
 2768      00
 2769 02f4 4889EF   		movq	%rbp, %rdi
 2770 02f7 E8000000 		call	_ZN8UnitTest11TestDetailsC1ERKS0_i@PLT
 2770      00
 2771 02fc 488D1500 		leaq	.LC10(%rip), %rdx
 2771      000000
 2772 0303 4889EE   		movq	%rbp, %rsi
 2773 0306 4C89F7   		movq	%r14, %rdi
 2774 0309 E8000000 		call	_ZN8UnitTest11TestResults13OnTestFailureERKNS_11TestDetailsEPKc@PLT
 2774      00
 2775              	.LEHE81:
 2776              	.LEHB82:
 2777 030e E8000000 		call	__cxa_end_catch@PLT
 2777      00
 2778              	.LEHE82:
 2779 0313 E9000000 		jmp	.L164
 2779      00
 2780              	.L193:
 2781 0318 F30F1EFA 		endbr64
 2782 031c 4889C5   		movq	%rax, %rbp
 2783 031f E8000000 		call	__cxa_end_catch@PLT
 2783      00
 2784 0324 4889EF   		movq	%rbp, %rdi
 2785              	.LEHB83:
 2786 0327 E8000000 		call	_Unwind_Resume@PLT
 2786      00
 2787              	.LEHE83:
 2788              	.L191:
 2789 032c F30F1EFA 		endbr64
 2790 0330 4889C5   		movq	%rax, %rbp
 2791 0333 E8000000 		call	__cxa_end_catch@PLT
 2791      00
 2792 0338 4889EF   		movq	%rbp, %rdi
 2793              	.LEHB84:
 2794 033b E8000000 		call	_Unwind_Resume@PLT
 2794      00
 2795              	.LEHE84:
 2796              	.L160:
 2797 0340 E8000000 		call	__cxa_begin_catch@PLT
 2797      00
 2798              	.LEHB85:
 2799 0345 E8000000 		call	_ZN8UnitTest11CurrentTest7ResultsEv@PLT
 2799      00
 2800 034a 4C8B30   		movq	(%rax), %r14
 2801 034d E8000000 		call	_ZN8UnitTest11CurrentTest7DetailsEv@PLT
 2801      00
 2802 0352 488B30   		movq	(%rax), %rsi
 2803 0355 BA670100 		movl	$359, %edx
 2803      00
 2804 035a 4889EF   		movq	%rbp, %rdi
 2805 035d E8000000 		call	_ZN8UnitTest11TestDetailsC1ERKS0_i@PLT
 2805      00
 2806 0362 488D1500 		leaq	.LC10(%rip), %rdx
 2806      000000
 2807 0369 4889EE   		movq	%rbp, %rsi
 2808 036c 4C89F7   		movq	%r14, %rdi
 2809 036f E8000000 		call	_ZN8UnitTest11TestResults13OnTestFailureERKNS_11TestDetailsEPKc@PLT
 2809      00
 2810              	.LEHE85:
 2811              	.LEHB86:
 2812 0374 E8000000 		call	__cxa_end_catch@PLT
 2812      00
 2813              	.LEHE86:
 2814 0379 E9000000 		jmp	.L161
 2814      00
 2815              	.L157:
 2816 037e E8000000 		call	__cxa_begin_catch@PLT
 2816      00
 2817              	.LEHB87:
 2818 0383 E8000000 		call	_ZN8UnitTest11CurrentTest7ResultsEv@PLT
 2818      00
 2819 0388 4C8B30   		movq	(%rax), %r14
 2820 038b E8000000 		call	_ZN8UnitTest11CurrentTest7DetailsEv@PLT
 2820      00
 2821 0390 488B30   		movq	(%rax), %rsi
 2822 0393 BA640100 		movl	$356, %edx
 2822      00
 2823 0398 4889EF   		movq	%rbp, %rdi
 2824 039b E8000000 		call	_ZN8UnitTest11TestDetailsC1ERKS0_i@PLT
 2824      00
 2825 03a0 488D1500 		leaq	.LC10(%rip), %rdx
 2825      000000
 2826 03a7 4889EE   		movq	%rbp, %rsi
 2827 03aa 4C89F7   		movq	%r14, %rdi
 2828 03ad E8000000 		call	_ZN8UnitTest11TestResults13OnTestFailureERKNS_11TestDetailsEPKc@PLT
 2828      00
 2829              	.LEHE87:
 2830              	.LEHB88:
 2831 03b2 E8000000 		call	__cxa_end_catch@PLT
 2831      00
 2832              	.LEHE88:
 2833 03b7 E9000000 		jmp	.L158
 2833      00
 2834              	.L189:
 2835 03bc F30F1EFA 		endbr64
 2836 03c0 4889C5   		movq	%rax, %rbp
 2837 03c3 E8000000 		call	__cxa_end_catch@PLT
 2837      00
 2838 03c8 4889EF   		movq	%rbp, %rdi
 2839              	.LEHB89:
 2840 03cb E8000000 		call	_Unwind_Resume@PLT
 2840      00
 2841              	.LEHE89:
 2842              	.L187:
 2843 03d0 F30F1EFA 		endbr64
 2844 03d4 4889C5   		movq	%rax, %rbp
 2845 03d7 E8000000 		call	__cxa_end_catch@PLT
 2845      00
 2846 03dc 4889EF   		movq	%rbp, %rdi
 2847              	.LEHB90:
 2848 03df E8000000 		call	_Unwind_Resume@PLT
 2848      00
 2849              	.LEHE90:
 2850              	.L154:
 2851 03e4 E8000000 		call	__cxa_begin_catch@PLT
 2851      00
 2852              	.LEHB91:
 2853 03e9 E8000000 		call	_ZN8UnitTest11CurrentTest7ResultsEv@PLT
 2853      00
 2854 03ee 4C8B30   		movq	(%rax), %r14
 2855 03f1 E8000000 		call	_ZN8UnitTest11CurrentTest7DetailsEv@PLT
 2855      00
 2856 03f6 488B30   		movq	(%rax), %rsi
 2857 03f9 BA610100 		movl	$353, %edx
 2857      00
 2858 03fe 4889EF   		movq	%rbp, %rdi
 2859 0401 E8000000 		call	_ZN8UnitTest11TestDetailsC1ERKS0_i@PLT
 2859      00
 2860 0406 488D1500 		leaq	.LC10(%rip), %rdx
 2860      000000
 2861 040d 4889EE   		movq	%rbp, %rsi
 2862 0410 4C89F7   		movq	%r14, %rdi
 2863 0413 E8000000 		call	_ZN8UnitTest11TestResults13OnTestFailureERKNS_11TestDetailsEPKc@PLT
 2863      00
 2864              	.LEHE91:
 2865              	.LEHB92:
 2866 0418 E8000000 		call	__cxa_end_catch@PLT
 2866      00
 2867              	.LEHE92:
 2868 041d E9000000 		jmp	.L155
 2868      00
 2869              	.L151:
 2870 0422 E8000000 		call	__cxa_begin_catch@PLT
 2870      00
 2871              	.LEHB93:
 2872 0427 E8000000 		call	_ZN8UnitTest11CurrentTest7ResultsEv@PLT
 2872      00
 2873 042c 4C8B28   		movq	(%rax), %r13
 2874 042f E8000000 		call	_ZN8UnitTest11CurrentTest7DetailsEv@PLT
 2874      00
 2875 0434 488D6C24 		leaq	16(%rsp), %rbp
 2875      10
 2876 0439 488B30   		movq	(%rax), %rsi
 2877 043c BA5D0100 		movl	$349, %edx
 2877      00
 2878 0441 4889EF   		movq	%rbp, %rdi
 2879 0444 E8000000 		call	_ZN8UnitTest11TestDetailsC1ERKS0_i@PLT
 2879      00
 2880 0449 488D1500 		leaq	.LC10(%rip), %rdx
 2880      000000
 2881 0450 4889EE   		movq	%rbp, %rsi
 2882 0453 4C89EF   		movq	%r13, %rdi
 2883 0456 E8000000 		call	_ZN8UnitTest11TestResults13OnTestFailureERKNS_11TestDetailsEPKc@PLT
 2883      00
 2884              	.LEHE93:
 2885              	.LEHB94:
 2886 045b E8000000 		call	__cxa_end_catch@PLT
 2886      00
 2887              	.LEHE94:
 2888 0460 4C8D6C24 		leaq	8(%rsp), %r13
 2888      08
 2889 0465 E9000000 		jmp	.L152
 2889      00
 2890              	.L185:
 2891 046a F30F1EFA 		endbr64
 2892 046e 4889C5   		movq	%rax, %rbp
 2893 0471 E8000000 		call	__cxa_end_catch@PLT
 2893      00
 2894 0476 4889EF   		movq	%rbp, %rdi
 2895              	.LEHB95:
 2896 0479 E8000000 		call	_Unwind_Resume@PLT
 2896      00
 2897              	.LEHE95:
 2898              	.L183:
 2899 047e F30F1EFA 		endbr64
 2900 0482 4889C5   		movq	%rax, %rbp
 2901 0485 E8000000 		call	__cxa_end_catch@PLT
 2901      00
 2902 048a 4889EF   		movq	%rbp, %rdi
 2903              	.LEHB96:
 2904 048d E8000000 		call	_Unwind_Resume@PLT
 2904      00
 2905              	.LEHE96:
 2906              		.cfi_endproc
 2907              	.LFE1271:
 2908              		.section	.gcc_except_table
 2909              		.align 4
 2910              	.LLSDAC1271:
 2911 0144 FF       		.byte	0xff
 2912 0145 9B       		.byte	0x9b
 2913 0146 A401     		.uleb128 .LLSDATTC1271-.LLSDATTDC1271
 2914              	.LLSDATTDC1271:
 2915 0148 01       		.byte	0x1
 2916 0149 9B01     		.uleb128 .LLSDACSEC1271-.LLSDACSBC1271
 2917              	.LLSDACSBC1271:
 2918 014b 05       		.uleb128 .LEHB67-.LCOLDB11
 2919 014c 2F       		.uleb128 .LEHE67-.LEHB67
 2920 014d 7C       		.uleb128 .L201-.LCOLDB11
 2921 014e 00       		.uleb128 0
 2922 014f 34       		.uleb128 .LEHB68-.LCOLDB11
 2923 0150 05       		.uleb128 .LEHE68-.LEHB68
 2924 0151 00       		.uleb128 0
 2925 0152 00       		.uleb128 0
 2926 0153 43       		.uleb128 .LEHB69-.LCOLDB11
 2927 0154 2F       		.uleb128 .LEHE69-.LEHB69
 2928 0155 9001     		.uleb128 .L199-.LCOLDB11
 2929 0157 00       		.uleb128 0
 2930 0158 72       		.uleb128 .LEHB70-.LCOLDB11
 2931 0159 05       		.uleb128 .LEHE70-.LEHB70
 2932 015a 00       		.uleb128 0
 2933 015b 00       		.uleb128 0
 2934 015c 8B01     		.uleb128 .LEHB71-.LCOLDB11
 2935 015e 05       		.uleb128 .LEHE71-.LEHB71
 2936 015f 00       		.uleb128 0
 2937 0160 00       		.uleb128 0
 2938 0161 9F01     		.uleb128 .LEHB72-.LCOLDB11
 2939 0163 05       		.uleb128 .LEHE72-.LEHB72
 2940 0164 00       		.uleb128 0
 2941 0165 00       		.uleb128 0
 2942 0166 A901     		.uleb128 .LEHB73-.LCOLDB11
 2943 0168 2F       		.uleb128 .LEHE73-.LEHB73
 2944 0169 A002     		.uleb128 .L197-.LCOLDB11
 2945 016b 00       		.uleb128 0
 2946 016c D801     		.uleb128 .LEHB74-.LCOLDB11
 2947 016e 05       		.uleb128 .LEHE74-.LEHB74
 2948 016f 00       		.uleb128 0
 2949 0170 00       		.uleb128 0
 2950 0171 E701     		.uleb128 .LEHB75-.LCOLDB11
 2951 0173 2F       		.uleb128 .LEHE75-.LEHB75
 2952 0174 B402     		.uleb128 .L195-.LCOLDB11
 2953 0176 00       		.uleb128 0
 2954 0177 9602     		.uleb128 .LEHB76-.LCOLDB11
 2955 0179 05       		.uleb128 .LEHE76-.LEHB76
 2956 017a 00       		.uleb128 0
 2957 017b 00       		.uleb128 0
 2958 017c AF02     		.uleb128 .LEHB77-.LCOLDB11
 2959 017e 05       		.uleb128 .LEHE77-.LEHB77
 2960 017f 00       		.uleb128 0
 2961 0180 00       		.uleb128 0
 2962 0181 C302     		.uleb128 .LEHB78-.LCOLDB11
 2963 0183 05       		.uleb128 .LEHE78-.LEHB78
 2964 0184 00       		.uleb128 0
 2965 0185 00       		.uleb128 0
 2966 0186 CD02     		.uleb128 .LEHB79-.LCOLDB11
 2967 0188 2F       		.uleb128 .LEHE79-.LEHB79
 2968 0189 C403     		.uleb128 .L193-.LCOLDB11
 2969 018b 00       		.uleb128 0
 2970 018c FC02     		.uleb128 .LEHB80-.LCOLDB11
 2971 018e 05       		.uleb128 .LEHE80-.LEHB80
 2972 018f 00       		.uleb128 0
 2973 0190 00       		.uleb128 0
 2974 0191 8B03     		.uleb128 .LEHB81-.LCOLDB11
 2975 0193 2F       		.uleb128 .LEHE81-.LEHB81
 2976 0194 D803     		.uleb128 .L191-.LCOLDB11
 2977 0196 00       		.uleb128 0
 2978 0197 BA03     		.uleb128 .LEHB82-.LCOLDB11
 2979 0199 05       		.uleb128 .LEHE82-.LEHB82
 2980 019a 00       		.uleb128 0
 2981 019b 00       		.uleb128 0
 2982 019c D303     		.uleb128 .LEHB83-.LCOLDB11
 2983 019e 05       		.uleb128 .LEHE83-.LEHB83
 2984 019f 00       		.uleb128 0
 2985 01a0 00       		.uleb128 0
 2986 01a1 E703     		.uleb128 .LEHB84-.LCOLDB11
 2987 01a3 05       		.uleb128 .LEHE84-.LEHB84
 2988 01a4 00       		.uleb128 0
 2989 01a5 00       		.uleb128 0
 2990 01a6 F103     		.uleb128 .LEHB85-.LCOLDB11
 2991 01a8 2F       		.uleb128 .LEHE85-.LEHB85
 2992 01a9 E804     		.uleb128 .L189-.LCOLDB11
 2993 01ab 00       		.uleb128 0
 2994 01ac A004     		.uleb128 .LEHB86-.LCOLDB11
 2995 01ae 05       		.uleb128 .LEHE86-.LEHB86
 2996 01af 00       		.uleb128 0
 2997 01b0 00       		.uleb128 0
 2998 01b1 AF04     		.uleb128 .LEHB87-.LCOLDB11
 2999 01b3 2F       		.uleb128 .LEHE87-.LEHB87
 3000 01b4 FC04     		.uleb128 .L187-.LCOLDB11
 3001 01b6 00       		.uleb128 0
 3002 01b7 DE04     		.uleb128 .LEHB88-.LCOLDB11
 3003 01b9 05       		.uleb128 .LEHE88-.LEHB88
 3004 01ba 00       		.uleb128 0
 3005 01bb 00       		.uleb128 0
 3006 01bc F704     		.uleb128 .LEHB89-.LCOLDB11
 3007 01be 05       		.uleb128 .LEHE89-.LEHB89
 3008 01bf 00       		.uleb128 0
 3009 01c0 00       		.uleb128 0
 3010 01c1 8B05     		.uleb128 .LEHB90-.LCOLDB11
 3011 01c3 05       		.uleb128 .LEHE90-.LEHB90
 3012 01c4 00       		.uleb128 0
 3013 01c5 00       		.uleb128 0
 3014 01c6 9505     		.uleb128 .LEHB91-.LCOLDB11
 3015 01c8 2F       		.uleb128 .LEHE91-.LEHB91
 3016 01c9 9606     		.uleb128 .L185-.LCOLDB11
 3017 01cb 00       		.uleb128 0
 3018 01cc C405     		.uleb128 .LEHB92-.LCOLDB11
 3019 01ce 05       		.uleb128 .LEHE92-.LEHB92
 3020 01cf 00       		.uleb128 0
 3021 01d0 00       		.uleb128 0
 3022 01d1 D305     		.uleb128 .LEHB93-.LCOLDB11
 3023 01d3 34       		.uleb128 .LEHE93-.LEHB93
 3024 01d4 AA06     		.uleb128 .L183-.LCOLDB11
 3025 01d6 00       		.uleb128 0
 3026 01d7 8706     		.uleb128 .LEHB94-.LCOLDB11
 3027 01d9 05       		.uleb128 .LEHE94-.LEHB94
 3028 01da 00       		.uleb128 0
 3029 01db 00       		.uleb128 0
 3030 01dc A506     		.uleb128 .LEHB95-.LCOLDB11
 3031 01de 05       		.uleb128 .LEHE95-.LEHB95
 3032 01df 00       		.uleb128 0
 3033 01e0 00       		.uleb128 0
 3034 01e1 B906     		.uleb128 .LEHB96-.LCOLDB11
 3035 01e3 05       		.uleb128 .LEHE96-.LEHB96
 3036 01e4 00       		.uleb128 0
 3037 01e5 00       		.uleb128 0
 3038              	.LLSDACSEC1271:
 3039 01e6 01       		.byte	0x1
 3040 01e7 00       		.byte	0
 3041              		.align 4
 3042 01e8 00000000 		.long	0
 3043              	
 3044              	.LLSDATTC1271:
 3045              		.section	.text.unlikely
 3046              		.text
 3048              		.section	.text.unlikely
 3050              	.LCOLDE11:
 3051              		.text
 3052              	.LHOTE11:
 3053              		.section	.text._ZN8UnitTest10CheckEqualImmEEvRNS_11TestResultsERKT_RKT0_RKNS_11TestDetailsE,"axG",
 3054              		.p2align 4
 3055              		.weak	_ZN8UnitTest10CheckEqualImmEEvRNS_11TestResultsERKT_RKT0_RKNS_11TestDetailsE
 3057              	_ZN8UnitTest10CheckEqualImmEEvRNS_11TestResultsERKT_RKT0_RKNS_11TestDetailsE:
 3058              	.LFB1308:
 3059              		.cfi_startproc
 3060              		.cfi_personality 0x9b,DW.ref.__gxx_personality_v0
 3061              		.cfi_lsda 0x1b,.LLSDA1308
 3062 0000 F30F1EFA 		endbr64
 3063 0004 4157     		pushq	%r15
 3064              		.cfi_def_cfa_offset 16
 3065              		.cfi_offset 15, -16
 3066 0006 4156     		pushq	%r14
 3067              		.cfi_def_cfa_offset 24
 3068              		.cfi_offset 14, -24
 3069 0008 4155     		pushq	%r13
 3070              		.cfi_def_cfa_offset 32
 3071              		.cfi_offset 13, -32
 3072 000a 4154     		pushq	%r12
 3073              		.cfi_def_cfa_offset 40
 3074              		.cfi_offset 12, -40
 3075 000c 55       		pushq	%rbp
 3076              		.cfi_def_cfa_offset 48
 3077              		.cfi_offset 6, -48
 3078 000d 53       		pushq	%rbx
 3079              		.cfi_def_cfa_offset 56
 3080              		.cfi_offset 3, -56
 3081 000e 4881ECD8 		subq	$472, %rsp
 3081      010000
 3082              		.cfi_def_cfa_offset 528
 3083 0015 F30F7E0D 		movq	.LC3(%rip), %xmm1
 3083      00000000 
 3084 001d 48897C24 		movq	%rdi, 16(%rsp)
 3084      10
 3085 0022 48894C24 		movq	%rcx, 24(%rsp)
 3085      18
 3086 0027 0F160D00 		movhps	.LC4(%rip), %xmm1
 3086      000000
 3087 002e 64488B04 		movq	%fs:40, %rax
 3087      25280000 
 3087      00
 3088 0037 48898424 		movq	%rax, 456(%rsp)
 3088      C8010000 
 3089 003f 31C0     		xorl	%eax, %eax
 3090 0041 488B02   		movq	(%rdx), %rax
 3091 0044 0F290C24 		movaps	%xmm1, (%rsp)
 3092 0048 483906   		cmpq	%rax, (%rsi)
 3093 004b 7533     		jne	.L221
 3094              	.L205:
 3095 004d 488B8424 		movq	456(%rsp), %rax
 3095      C8010000 
 3096 0055 64482B04 		subq	%fs:40, %rax
 3096      25280000 
 3096      00
 3097 005e 0F855302 		jne	.L222
 3097      0000
 3098 0064 4881C4D8 		addq	$472, %rsp
 3098      010000
 3099              		.cfi_remember_state
 3100              		.cfi_def_cfa_offset 56
 3101 006b 5B       		popq	%rbx
 3102              		.cfi_def_cfa_offset 48
 3103 006c 5D       		popq	%rbp
 3104              		.cfi_def_cfa_offset 40
 3105 006d 415C     		popq	%r12
 3106              		.cfi_def_cfa_offset 32
 3107 006f 415D     		popq	%r13
 3108              		.cfi_def_cfa_offset 24
 3109 0071 415E     		popq	%r14
 3110              		.cfi_def_cfa_offset 16
 3111 0073 415F     		popq	%r15
 3112              		.cfi_def_cfa_offset 8
 3113 0075 C3       		ret
 3114 0076 662E0F1F 		.p2align 4,,10
 3114      84000000 
 3114      0000
 3115              		.p2align 3
 3116              	.L221:
 3117              		.cfi_restore_state
 3118 0080 4C8DAC24 		leaq	192(%rsp), %r13
 3118      C0000000 
 3119 0088 4889F5   		movq	%rsi, %rbp
 3120 008b 4889D3   		movq	%rdx, %rbx
 3121 008e 4C89EF   		movq	%r13, %rdi
 3122 0091 E8000000 		call	_ZNSt8ios_baseC2Ev@PLT
 3122      00
 3123 0096 31C0     		xorl	%eax, %eax
 3124 0098 660FEFC0 		pxor	%xmm0, %xmm0
 3125 009c 31F6     		xorl	%esi, %esi
 3126 009e 66898424 		movw	%ax, 416(%rsp)
 3126      A0010000 
 3127 00a6 488D0500 		leaq	24+_ZTCN8UnitTest15MemoryOutStreamE0_So(%rip), %rax
 3127      000000
 3128 00ad 4C89EF   		movq	%r13, %rdi
 3129 00b0 48894424 		movq	%rax, 48(%rsp)
 3129      30
 3130 00b5 4883C028 		addq	$40, %rax
 3131 00b9 48C78424 		movq	$0, 408(%rsp)
 3131      98010000 
 3131      00000000 
 3132 00c5 48898424 		movq	%rax, 192(%rsp)
 3132      C0000000 
 3133 00cd 0F118424 		movups	%xmm0, 424(%rsp)
 3133      A8010000 
 3134 00d5 0F118424 		movups	%xmm0, 440(%rsp)
 3134      B8010000 
 3135              	.LEHB97:
 3136 00dd E8000000 		call	_ZNSt9basic_iosIcSt11char_traitsIcEE4initEPSt15basic_streambufIcS1_E@PLT
 3136      00
 3137              	.LEHE97:
 3138 00e2 660F6F0C 		movdqa	(%rsp), %xmm1
 3138      24
 3139 00e7 4C8D7424 		leaq	112(%rsp), %r14
 3139      70
 3140 00ec 660FEFC0 		pxor	%xmm0, %xmm0
 3141 00f0 488D0500 		leaq	64+_ZTCN8UnitTest15MemoryOutStreamE0_NSt7__cxx1119basic_ostringstreamIcSt11char_traitsIcESaIc
 3141      000000
 3142 00f7 4C89F7   		movq	%r14, %rdi
 3143 00fa 0F294424 		movaps	%xmm0, 64(%rsp)
 3143      40
 3144 00ff 4C8D6424 		leaq	48(%rsp), %r12
 3144      30
 3145 0104 4C8D7C24 		leaq	56(%rsp), %r15
 3145      38
 3146 0109 48898424 		movq	%rax, 192(%rsp)
 3146      C0000000 
 3147 0111 0F294C24 		movaps	%xmm1, 48(%rsp)
 3147      30
 3148 0116 0F294424 		movaps	%xmm0, 80(%rsp)
 3148      50
 3149 011b 0F294424 		movaps	%xmm0, 96(%rsp)
 3149      60
 3150 0120 E8000000 		call	_ZNSt6localeC1Ev@PLT
 3150      00
 3151 0125 488D0500 		leaq	16+_ZTVNSt7__cxx1115basic_stringbufIcSt11char_traitsIcESaIcEEE(%rip), %rax
 3151      000000
 3152 012c 4C89FE   		movq	%r15, %rsi
 3153 012f 48C78424 		movq	$0, 136(%rsp)
 3153      88000000 
 3153      00000000 
 3154 013b 48894424 		movq	%rax, 56(%rsp)
 3154      38
 3155 0140 488D8424 		leaq	144(%rsp), %rax
 3155      90000000 
 3156 0148 48894424 		movq	%rax, 32(%rsp)
 3156      20
 3157 014d 48898424 		movq	%rax, 128(%rsp)
 3157      80000000 
 3158 0155 488B4424 		movq	48(%rsp), %rax
 3158      30
 3159 015a C6842490 		movb	$0, 144(%rsp)
 3159      00000000 
 3160 0162 488B78E8 		movq	-24(%rax), %rdi
 3161 0166 C7442478 		movl	$16, 120(%rsp)
 3161      10000000 
 3162 016e 4C01E7   		addq	%r12, %rdi
 3163              	.LEHB98:
 3164 0171 E8000000 		call	_ZNSt9basic_iosIcSt11char_traitsIcEE4initEPSt15basic_streambufIcS1_E@PLT
 3164      00
 3165              	.LEHE98:
 3166 0176 4C8D3D00 		leaq	24+_ZTVN8UnitTest15MemoryOutStreamE(%rip), %r15
 3166      000000
 3167 017d BA090000 		movl	$9, %edx
 3167      00
 3168 0182 4C89E7   		movq	%r12, %rdi
 3169 0185 48C78424 		movq	$0, 168(%rsp)
 3169      A8000000 
 3169      00000000 
 3170 0191 498D4728 		leaq	40(%r15), %rax
 3171 0195 488D3500 		leaq	.LC0(%rip), %rsi
 3171      000000
 3172 019c 4C897C24 		movq	%r15, 48(%rsp)
 3172      30
 3173 01a1 48898424 		movq	%rax, 192(%rsp)
 3173      C0000000 
 3174 01a9 488D8424 		leaq	176(%rsp), %rax
 3174      B0000000 
 3175 01b1 48894424 		movq	%rax, 40(%rsp)
 3175      28
 3176 01b6 48898424 		movq	%rax, 160(%rsp)
 3176      A0000000 
 3177 01be C68424B0 		movb	$0, 176(%rsp)
 3177      00000000 
 3178              	.LEHB99:
 3179 01c6 E8000000 		call	_ZSt16__ostream_insertIcSt11char_traitsIcEERSt13basic_ostreamIT_T0_ES6_PKS3_l@PLT
 3179      00
 3180 01cb 488B7500 		movq	0(%rbp), %rsi
 3181 01cf 4C89E7   		movq	%r12, %rdi
 3182 01d2 E8000000 		call	_ZNSo9_M_insertImEERSoT_@PLT
 3182      00
 3183 01d7 BA090000 		movl	$9, %edx
 3183      00
 3184 01dc 488D3500 		leaq	.LC1(%rip), %rsi
 3184      000000
 3185 01e3 4889C7   		movq	%rax, %rdi
 3186 01e6 4889C5   		movq	%rax, %rbp
 3187 01e9 E8000000 		call	_ZSt16__ostream_insertIcSt11char_traitsIcEERSt13basic_ostreamIT_T0_ES6_PKS3_l@PLT
 3187      00
 3188 01ee 488B33   		movq	(%rbx), %rsi
 3189 01f1 4889EF   		movq	%rbp, %rdi
 3190 01f4 E8000000 		call	_ZNSo9_M_insertImEERSoT_@PLT
 3190      00
 3191 01f9 4C89E7   		movq	%r12, %rdi
 3192 01fc E8000000 		call	_ZNK8UnitTest15MemoryOutStream7GetTextEv@PLT
 3192      00
 3193 0201 488B7424 		movq	24(%rsp), %rsi
 3193      18
 3194 0206 488B7C24 		movq	16(%rsp), %rdi
 3194      10
 3195 020b 4889C2   		movq	%rax, %rdx
 3196 020e F30F7E15 		movq	.LC3(%rip), %xmm2
 3196      00000000 
 3197 0216 0F161500 		movhps	.LC5(%rip), %xmm2
 3197      000000
 3198 021d 0F291424 		movaps	%xmm2, (%rsp)
 3199 0221 E8000000 		call	_ZN8UnitTest11TestResults13OnTestFailureERKNS_11TestDetailsEPKc@PLT
 3199      00
 3200              	.LEHE99:
 3201 0226 488D0500 		leaq	64+_ZTVN8UnitTest15MemoryOutStreamE(%rip), %rax
 3201      000000
 3202 022d 4C897C24 		movq	%r15, 48(%rsp)
 3202      30
 3203 0232 488BBC24 		movq	160(%rsp), %rdi
 3203      A0000000 
 3204 023a 48898424 		movq	%rax, 192(%rsp)
 3204      C0000000 
 3205 0242 483B7C24 		cmpq	40(%rsp), %rdi
 3205      28
 3206 0247 7405     		je	.L211
 3207 0249 E8000000 		call	_ZdlPv@PLT
 3207      00
 3208              	.L211:
 3209 024e 660F6F1C 		movdqa	(%rsp), %xmm3
 3209      24
 3210 0253 488D0500 		leaq	64+_ZTCN8UnitTest15MemoryOutStreamE0_NSt7__cxx1119basic_ostringstreamIcSt11char_traitsIcESaIc
 3210      000000
 3211 025a 488BBC24 		movq	128(%rsp), %rdi
 3211      80000000 
 3212 0262 48898424 		movq	%rax, 192(%rsp)
 3212      C0000000 
 3213 026a 0F295C24 		movaps	%xmm3, 48(%rsp)
 3213      30
 3214 026f 483B7C24 		cmpq	32(%rsp), %rdi
 3214      20
 3215 0274 7405     		je	.L212
 3216 0276 E8000000 		call	_ZdlPv@PLT
 3216      00
 3217              	.L212:
 3218 027b 488D0500 		leaq	16+_ZTVSt15basic_streambufIcSt11char_traitsIcEE(%rip), %rax
 3218      000000
 3219 0282 4C89F7   		movq	%r14, %rdi
 3220 0285 48894424 		movq	%rax, 56(%rsp)
 3220      38
 3221 028a E8000000 		call	_ZNSt6localeD1Ev@PLT
 3221      00
 3222 028f 488D0500 		leaq	24+_ZTCN8UnitTest15MemoryOutStreamE0_So(%rip), %rax
 3222      000000
 3223 0296 4C89EF   		movq	%r13, %rdi
 3224 0299 48894424 		movq	%rax, 48(%rsp)
 3224      30
 3225 029e 488D0500 		leaq	16+_ZTVSt9basic_iosIcSt11char_traitsIcEE(%rip), %rax
 3225      000000
 3226 02a5 48898424 		movq	%rax, 192(%rsp)
 3226      C0000000 
 3227              	.LEHB100:
 3228 02ad E8000000 		call	_ZNSt8ios_baseD2Ev@PLT
 3228      00
 3229              	.LEHE100:
 3230 02b2 E996FDFF 		jmp	.L205
 3230      FF
 3231              	.L222:
 3232 02b7 E8000000 		call	__stack_chk_fail@PLT
 3232      00
 3233              	.L216:
 3234 02bc F30F1EFA 		endbr64
 3235 02c0 4889C5   		movq	%rax, %rbp
 3236 02c3 EB26     		jmp	.L209
 3237              	.L217:
 3238 02c5 F30F1EFA 		endbr64
 3239 02c9 4889C5   		movq	%rax, %rbp
 3240 02cc EB09     		jmp	.L208
 3241              	.L215:
 3242 02ce F30F1EFA 		endbr64
 3243 02d2 4889C5   		movq	%rax, %rbp
 3244 02d5 EB33     		jmp	.L213
 3245              	.L208:
 3246 02d7 4C89FF   		movq	%r15, %rdi
 3247 02da E8000000 		call	_ZNSt7__cxx1115basic_stringbufIcSt11char_traitsIcESaIcEED1Ev
 3247      00
 3248 02df 488D0500 		leaq	24+_ZTCN8UnitTest15MemoryOutStreamE0_So(%rip), %rax
 3248      000000
 3249 02e6 48894424 		movq	%rax, 48(%rsp)
 3249      30
 3250              	.L209:
 3251 02eb 488D0500 		leaq	16+_ZTVSt9basic_iosIcSt11char_traitsIcEE(%rip), %rax
 3251      000000
 3252 02f2 4C89EF   		movq	%r13, %rdi
 3253 02f5 48898424 		movq	%rax, 192(%rsp)
 3253      C0000000 
 3254 02fd E8000000 		call	_ZNSt8ios_baseD2Ev@PLT
 3254      00
 3255 0302 4889EF   		movq	%rbp, %rdi
 3256              	.LEHB101:
 3257 0305 E8000000 		call	_Unwind_Resume@PLT
 3257      00
 3258              	.LEHE101:
 3259              	.L213:
 3260 030a 4C89E7   		movq	%r12, %rdi
 3261 030d E8000000 		call	_ZN8UnitTest15MemoryOutStreamD1Ev
 3261      00
 3262 0312 4889EF   		movq	%rbp, %rdi
 3263              	.LEHB102:
 3264 0315 E8000000 		call	_Unwind_Resume@PLT
 3264      00
 3265              	.LEHE102:
 3266              		.cfi_endproc
 3267              	.LFE1308:
 3268              		.section	.gcc_except_table
 3269              	.LLSDA1308:
 3270 01ec FF       		.byte	0xff
 3271 01ed FF       		.byte	0xff
 3272 01ee 01       		.byte	0x1
 3273 01ef 21       		.uleb128 .LLSDACSE1308-.LLSDACSB1308
 3274              	.LLSDACSB1308:
 3275 01f0 DD01     		.uleb128 .LEHB97-.LFB1308
 3276 01f2 05       		.uleb128 .LEHE97-.LEHB97
 3277 01f3 BC05     		.uleb128 .L216-.LFB1308
 3278 01f5 00       		.uleb128 0
 3279 01f6 F102     		.uleb128 .LEHB98-.LFB1308
 3280 01f8 05       		.uleb128 .LEHE98-.LEHB98
 3281 01f9 C505     		.uleb128 .L217-.LFB1308
 3282 01fb 00       		.uleb128 0
 3283 01fc C603     		.uleb128 .LEHB99-.LFB1308
 3284 01fe 60       		.uleb128 .LEHE99-.LEHB99
 3285 01ff CE05     		.uleb128 .L215-.LFB1308
 3286 0201 00       		.uleb128 0
 3287 0202 AD05     		.uleb128 .LEHB100-.LFB1308
 3288 0204 05       		.uleb128 .LEHE100-.LEHB100
 3289 0205 00       		.uleb128 0
 3290 0206 00       		.uleb128 0
 3291 0207 8506     		.uleb128 .LEHB101-.LFB1308
 3292 0209 05       		.uleb128 .LEHE101-.LEHB101
 3293 020a 00       		.uleb128 0
 3294 020b 00       		.uleb128 0
 3295 020c 9506     		.uleb128 .LEHB102-.LFB1308
 3296 020e 05       		.uleb128 .LEHE102-.LEHB102
 3297 020f 00       		.uleb128 0
 3298 0210 00       		.uleb128 0
 3299              	.LLSDACSE1308:
 3300              		.section	.text._ZN8UnitTest10CheckEqualImmEEvRNS_11TestResultsERKT_RKT0_RKNS_11TestDetailsE,"axG",
 3302              		.section	.text._ZN8UnitTest10CheckEqualImjEEvRNS_11TestResultsERKT_RKT0_RKNS_11TestDetailsE,"axG",
 3303              		.p2align 4
 3304              		.weak	_ZN8UnitTest10CheckEqualImjEEvRNS_11TestResultsERKT_RKT0_RKNS_11TestDetailsE
 3306              	_ZN8UnitTest10CheckEqualImjEEvRNS_11TestResultsERKT_RKT0_RKNS_11TestDetailsE:
 3307              	.LFB1309:
 3308              		.cfi_startproc
 3309              		.cfi_personality 0x9b,DW.ref.__gxx_personality_v0
 3310              		.cfi_lsda 0x1b,.LLSDA1309
 3311 0000 F30F1EFA 		endbr64
 3312 0004 4157     		pushq	%r15
 3313              		.cfi_def_cfa_offset 16
 3314              		.cfi_offset 15, -16
 3315 0006 4156     		pushq	%r14
 3316              		.cfi_def_cfa_offset 24
 3317              		.cfi_offset 14, -24
 3318 0008 4155     		pushq	%r13
 3319              		.cfi_def_cfa_offset 32
 3320              		.cfi_offset 13, -32
 3321 000a 4154     		pushq	%r12
 3322              		.cfi_def_cfa_offset 40
 3323              		.cfi_offset 12, -40
 3324 000c 55       		pushq	%rbp
 3325              		.cfi_def_cfa_offset 48
 3326              		.cfi_offset 6, -48
 3327 000d 53       		pushq	%rbx
 3328              		.cfi_def_cfa_offset 56
 3329              		.cfi_offset 3, -56
 3330 000e 4881ECD8 		subq	$472, %rsp
 3330      010000
 3331              		.cfi_def_cfa_offset 528
 3332 0015 F30F7E0D 		movq	.LC3(%rip), %xmm1
 3332      00000000 
 3333 001d 48897C24 		movq	%rdi, 16(%rsp)
 3333      10
 3334 0022 48894C24 		movq	%rcx, 24(%rsp)
 3334      18
 3335 0027 0F160D00 		movhps	.LC4(%rip), %xmm1
 3335      000000
 3336 002e 64488B04 		movq	%fs:40, %rax
 3336      25280000 
 3336      00
 3337 0037 48898424 		movq	%rax, 456(%rsp)
 3337      C8010000 
 3338 003f 31C0     		xorl	%eax, %eax
 3339 0041 8B02     		movl	(%rdx), %eax
 3340 0043 0F290C24 		movaps	%xmm1, (%rsp)
 3341 0047 483906   		cmpq	%rax, (%rsi)
 3342 004a 752C     		jne	.L239
 3343              	.L223:
 3344 004c 488B8424 		movq	456(%rsp), %rax
 3344      C8010000 
 3345 0054 64482B04 		subq	%fs:40, %rax
 3345      25280000 
 3345      00
 3346 005d 0F854B02 		jne	.L240
 3346      0000
 3347 0063 4881C4D8 		addq	$472, %rsp
 3347      010000
 3348              		.cfi_remember_state
 3349              		.cfi_def_cfa_offset 56
 3350 006a 5B       		popq	%rbx
 3351              		.cfi_def_cfa_offset 48
 3352 006b 5D       		popq	%rbp
 3353              		.cfi_def_cfa_offset 40
 3354 006c 415C     		popq	%r12
 3355              		.cfi_def_cfa_offset 32
 3356 006e 415D     		popq	%r13
 3357              		.cfi_def_cfa_offset 24
 3358 0070 415E     		popq	%r14
 3359              		.cfi_def_cfa_offset 16
 3360 0072 415F     		popq	%r15
 3361              		.cfi_def_cfa_offset 8
 3362 0074 C3       		ret
 3363              		.p2align 4,,10
 3364 0075 0F1F00   		.p2align 3
 3365              	.L239:
 3366              		.cfi_restore_state
 3367 0078 4C8DAC24 		leaq	192(%rsp), %r13
 3367      C0000000 
 3368 0080 4889F5   		movq	%rsi, %rbp
 3369 0083 4889D3   		movq	%rdx, %rbx
 3370 0086 4C89EF   		movq	%r13, %rdi
 3371 0089 E8000000 		call	_ZNSt8ios_baseC2Ev@PLT
 3371      00
 3372 008e 31C0     		xorl	%eax, %eax
 3373 0090 660FEFC0 		pxor	%xmm0, %xmm0
 3374 0094 31F6     		xorl	%esi, %esi
 3375 0096 66898424 		movw	%ax, 416(%rsp)
 3375      A0010000 
 3376 009e 488D0500 		leaq	24+_ZTCN8UnitTest15MemoryOutStreamE0_So(%rip), %rax
 3376      000000
 3377 00a5 4C89EF   		movq	%r13, %rdi
 3378 00a8 48894424 		movq	%rax, 48(%rsp)
 3378      30
 3379 00ad 4883C028 		addq	$40, %rax
 3380 00b1 48C78424 		movq	$0, 408(%rsp)
 3380      98010000 
 3380      00000000 
 3381 00bd 48898424 		movq	%rax, 192(%rsp)
 3381      C0000000 
 3382 00c5 0F118424 		movups	%xmm0, 424(%rsp)
 3382      A8010000 
 3383 00cd 0F118424 		movups	%xmm0, 440(%rsp)
 3383      B8010000 
 3384              	.LEHB103:
 3385 00d5 E8000000 		call	_ZNSt9basic_iosIcSt11char_traitsIcEE4initEPSt15basic_streambufIcS1_E@PLT
 3385      00
 3386              	.LEHE103:
 3387 00da 660F6F0C 		movdqa	(%rsp), %xmm1
 3387      24
 3388 00df 4C8D7424 		leaq	112(%rsp), %r14
 3388      70
 3389 00e4 660FEFC0 		pxor	%xmm0, %xmm0
 3390 00e8 488D0500 		leaq	64+_ZTCN8UnitTest15MemoryOutStreamE0_NSt7__cxx1119basic_ostringstreamIcSt11char_traitsIcESaIc
 3390      000000
 3391 00ef 4C89F7   		movq	%r14, %rdi
 3392 00f2 0F294424 		movaps	%xmm0, 64(%rsp)
 3392      40
 3393 00f7 4C8D6424 		leaq	48(%rsp), %r12
 3393      30
 3394 00fc 4C8D7C24 		leaq	56(%rsp), %r15
 3394      38
 3395 0101 48898424 		movq	%rax, 192(%rsp)
 3395      C0000000 
 3396 0109 0F294C24 		movaps	%xmm1, 48(%rsp)
 3396      30
 3397 010e 0F294424 		movaps	%xmm0, 80(%rsp)
 3397      50
 3398 0113 0F294424 		movaps	%xmm0, 96(%rsp)
 3398      60
 3399 0118 E8000000 		call	_ZNSt6localeC1Ev@PLT
 3399      00
 3400 011d 488D0500 		leaq	16+_ZTVNSt7__cxx1115basic_stringbufIcSt11char_traitsIcESaIcEEE(%rip), %rax
 3400      000000
 3401 0124 4C89FE   		movq	%r15, %rsi
 3402 0127 48C78424 		movq	$0, 136(%rsp)
 3402      88000000 
 3402      00000000 
 3403 0133 48894424 		movq	%rax, 56(%rsp)
 3403      38
 3404 0138 488D8424 		leaq	144(%rsp), %rax
 3404      90000000 
 3405 0140 48894424 		movq	%rax, 32(%rsp)
 3405      20
 3406 0145 48898424 		movq	%rax, 128(%rsp)
 3406      80000000 
 3407 014d 488B4424 		movq	48(%rsp), %rax
 3407      30
 3408 0152 C6842490 		movb	$0, 144(%rsp)
 3408      00000000 
 3409 015a 488B78E8 		movq	-24(%rax), %rdi
 3410 015e C7442478 		movl	$16, 120(%rsp)
 3410      10000000 
 3411 0166 4C01E7   		addq	%r12, %rdi
 3412              	.LEHB104:
 3413 0169 E8000000 		call	_ZNSt9basic_iosIcSt11char_traitsIcEE4initEPSt15basic_streambufIcS1_E@PLT
 3413      00
 3414              	.LEHE104:
 3415 016e 4C8D3D00 		leaq	24+_ZTVN8UnitTest15MemoryOutStreamE(%rip), %r15
 3415      000000
 3416 0175 BA090000 		movl	$9, %edx
 3416      00
 3417 017a 4C89E7   		movq	%r12, %rdi
 3418 017d 48C78424 		movq	$0, 168(%rsp)
 3418      A8000000 
 3418      00000000 
 3419 0189 498D4728 		leaq	40(%r15), %rax
 3420 018d 488D3500 		leaq	.LC0(%rip), %rsi
 3420      000000
 3421 0194 4C897C24 		movq	%r15, 48(%rsp)
 3421      30
 3422 0199 48898424 		movq	%rax, 192(%rsp)
 3422      C0000000 
 3423 01a1 488D8424 		leaq	176(%rsp), %rax
 3423      B0000000 
 3424 01a9 48894424 		movq	%rax, 40(%rsp)
 3424      28
 3425 01ae 48898424 		movq	%rax, 160(%rsp)
 3425      A0000000 
 3426 01b6 C68424B0 		movb	$0, 176(%rsp)
 3426      00000000 
 3427              	.LEHB105:
 3428 01be E8000000 		call	_ZSt16__ostream_insertIcSt11char_traitsIcEERSt13basic_ostreamIT_T0_ES6_PKS3_l@PLT
 3428      00
 3429 01c3 488B7500 		movq	0(%rbp), %rsi
 3430 01c7 4C89E7   		movq	%r12, %rdi
 3431 01ca E8000000 		call	_ZNSo9_M_insertImEERSoT_@PLT
 3431      00
 3432 01cf BA090000 		movl	$9, %edx
 3432      00
 3433 01d4 488D3500 		leaq	.LC1(%rip), %rsi
 3433      000000
 3434 01db 4889C7   		movq	%rax, %rdi
 3435 01de 4889C5   		movq	%rax, %rbp
 3436 01e1 E8000000 		call	_ZSt16__ostream_insertIcSt11char_traitsIcEERSt13basic_ostreamIT_T0_ES6_PKS3_l@PLT
 3436      00
 3437 01e6 8B33     		movl	(%rbx), %esi
 3438 01e8 4889EF   		movq	%rbp, %rdi
 3439 01eb E8000000 		call	_ZNSo9_M_insertImEERSoT_@PLT
 3439      00
 3440 01f0 4C89E7   		movq	%r12, %rdi
 3441 01f3 E8000000 		call	_ZNK8UnitTest15MemoryOutStream7GetTextEv@PLT
 3441      00
 3442 01f8 488B7424 		movq	24(%rsp), %rsi
 3442      18
 3443 01fd 488B7C24 		movq	16(%rsp), %rdi
 3443      10
 3444 0202 4889C2   		movq	%rax, %rdx
 3445 0205 F30F7E15 		movq	.LC3(%rip), %xmm2
 3445      00000000 
 3446 020d 0F161500 		movhps	.LC5(%rip), %xmm2
 3446      000000
 3447 0214 0F291424 		movaps	%xmm2, (%rsp)
 3448 0218 E8000000 		call	_ZN8UnitTest11TestResults13OnTestFailureERKNS_11TestDetailsEPKc@PLT
 3448      00
 3449              	.LEHE105:
 3450 021d 488D0500 		leaq	64+_ZTVN8UnitTest15MemoryOutStreamE(%rip), %rax
 3450      000000
 3451 0224 4C897C24 		movq	%r15, 48(%rsp)
 3451      30
 3452 0229 488BBC24 		movq	160(%rsp), %rdi
 3452      A0000000 
 3453 0231 48898424 		movq	%rax, 192(%rsp)
 3453      C0000000 
 3454 0239 483B7C24 		cmpq	40(%rsp), %rdi
 3454      28
 3455 023e 7405     		je	.L229
 3456 0240 E8000000 		call	_ZdlPv@PLT
 3456      00
 3457              	.L229:
 3458 0245 660F6F1C 		movdqa	(%rsp), %xmm3
 3458      24
 3459 024a 488D0500 		leaq	64+_ZTCN8UnitTest15MemoryOutStreamE0_NSt7__cxx1119basic_ostringstreamIcSt11char_traitsIcESaIc
 3459      000000
 3460 0251 488BBC24 		movq	128(%rsp), %rdi
 3460      80000000 
 3461 0259 48898424 		movq	%rax, 192(%rsp)
 3461      C0000000 
 3462 0261 0F295C24 		movaps	%xmm3, 48(%rsp)
 3462      30
 3463 0266 483B7C24 		cmpq	32(%rsp), %rdi
 3463      20
 3464 026b 7405     		je	.L230
 3465 026d E8000000 		call	_ZdlPv@PLT
 3465      00
 3466              	.L230:
 3467 0272 488D0500 		leaq	16+_ZTVSt15basic_streambufIcSt11char_traitsIcEE(%rip), %rax
 3467      000000
 3468 0279 4C89F7   		movq	%r14, %rdi
 3469 027c 48894424 		movq	%rax, 56(%rsp)
 3469      38
 3470 0281 E8000000 		call	_ZNSt6localeD1Ev@PLT
 3470      00
 3471 0286 488D0500 		leaq	24+_ZTCN8UnitTest15MemoryOutStreamE0_So(%rip), %rax
 3471      000000
 3472 028d 4C89EF   		movq	%r13, %rdi
 3473 0290 48894424 		movq	%rax, 48(%rsp)
 3473      30
 3474 0295 488D0500 		leaq	16+_ZTVSt9basic_iosIcSt11char_traitsIcEE(%rip), %rax
 3474      000000
 3475 029c 48898424 		movq	%rax, 192(%rsp)
 3475      C0000000 
 3476              	.LEHB106:
 3477 02a4 E8000000 		call	_ZNSt8ios_baseD2Ev@PLT
 3477      00
 3478              	.LEHE106:
 3479 02a9 E99EFDFF 		jmp	.L223
 3479      FF
 3480              	.L240:
 3481 02ae E8000000 		call	__stack_chk_fail@PLT
 3481      00
 3482              	.L234:
 3483 02b3 F30F1EFA 		endbr64
 3484 02b7 4889C5   		movq	%rax, %rbp
 3485 02ba EB26     		jmp	.L227
 3486              	.L235:
 3487 02bc F30F1EFA 		endbr64
 3488 02c0 4889C5   		movq	%rax, %rbp
 3489 02c3 EB09     		jmp	.L226
 3490              	.L233:
 3491 02c5 F30F1EFA 		endbr64
 3492 02c9 4889C5   		movq	%rax, %rbp
 3493 02cc EB33     		jmp	.L231
 3494              	.L226:
 3495 02ce 4C89FF   		movq	%r15, %rdi
 3496 02d1 E8000000 		call	_ZNSt7__cxx1115basic_stringbufIcSt11char_traitsIcESaIcEED1Ev
 3496      00
 3497 02d6 488D0500 		leaq	24+_ZTCN8UnitTest15MemoryOutStreamE0_So(%rip), %rax
 3497      000000
 3498 02dd 48894424 		movq	%rax, 48(%rsp)
 3498      30
 3499              	.L227:
 3500 02e2 488D0500 		leaq	16+_ZTVSt9basic_iosIcSt11char_traitsIcEE(%rip), %rax
 3500      000000
 3501 02e9 4C89EF   		movq	%r13, %rdi
 3502 02ec 48898424 		movq	%rax, 192(%rsp)
 3502      C0000000 
 3503 02f4 E8000000 		call	_ZNSt8ios_baseD2Ev@PLT
 3503      00
 3504 02f9 4889EF   		movq	%rbp, %rdi
 3505              	.LEHB107:
 3506 02fc E8000000 		call	_Unwind_Resume@PLT
 3506      00
 3507              	.LEHE107:
 3508              	.L231:
 3509 0301 4C89E7   		movq	%r12, %rdi
 3510 0304 E8000000 		call	_ZN8UnitTest15MemoryOutStreamD1Ev
 3510      00
 3511 0309 4889EF   		movq	%rbp, %rdi
 3512              	.LEHB108:
 3513 030c E8000000 		call	_Unwind_Resume@PLT
 3513      00
 3514              	.LEHE108:
 3515              		.cfi_endproc
 3516              	.LFE1309:
 3517              		.section	.gcc_except_table
 3518              	.LLSDA1309:
 3519 0211 FF       		.byte	0xff
 3520 0212 FF       		.byte	0xff
 3521 0213 01       		.byte	0x1
 3522 0214 21       		.uleb128 .LLSDACSE1309-.LLSDACSB1309
 3523              	.LLSDACSB1309:
 3524 0215 D501     		.uleb128 .LEHB103-.LFB1309
 3525 0217 05       		.uleb128 .LEHE103-.LEHB103
 3526 0218 B305     		.uleb128 .L234-.LFB1309
 3527 021a 00       		.uleb128 0
 3528 021b E902     		.uleb128 .LEHB104-.LFB1309
 3529 021d 05       		.uleb128 .LEHE104-.LEHB104
 3530 021e BC05     		.uleb128 .L235-.LFB1309
 3531 0220 00       		.uleb128 0
 3532 0221 BE03     		.uleb128 .LEHB105-.LFB1309
 3533 0223 5F       		.uleb128 .LEHE105-.LEHB105
 3534 0224 C505     		.uleb128 .L233-.LFB1309
 3535 0226 00       		.uleb128 0
 3536 0227 A405     		.uleb128 .LEHB106-.LFB1309
 3537 0229 05       		.uleb128 .LEHE106-.LEHB106
 3538 022a 00       		.uleb128 0
 3539 022b 00       		.uleb128 0
 3540 022c FC05     		.uleb128 .LEHB107-.LFB1309
 3541 022e 05       		.uleb128 .LEHE107-.LEHB107
 3542 022f 00       		.uleb128 0
 3543 0230 00       		.uleb128 0
 3544 0231 8C06     		.uleb128 .LEHB108-.LFB1309
 3545 0233 05       		.uleb128 .LEHE108-.LEHB108
 3546 0234 00       		.uleb128 0
 3547 0235 00       		.uleb128 0
 3548              	.LLSDACSE1309:
 3549              		.section	.text._ZN8UnitTest10CheckEqualImjEEvRNS_11TestResultsERKT_RKT0_RKNS_11TestDetailsE,"axG",
 3551              		.section	.rodata.str1.8
 3552              		.align 8
 3553              	.LC12:
 3554 00b0 556E6861 		.string	"Unhandled exception in CHECK_EQUAL(4UL, queue.capacity)"
 3554      6E646C65 
 3554      64206578 
 3554      63657074 
 3554      696F6E20 
 3555              		.align 8
 3556              	.LC13:
 3557 00e8 556E6861 		.string	"Unhandled exception in CHECK_EQUAL(0UL, queue.putIndex)"
 3557      6E646C65 
 3557      64206578 
 3557      63657074 
 3557      696F6E20 
 3558              		.align 8
 3559              	.LC14:
 3560 0120 556E6861 		.string	"Unhandled exception in CHECK_EQUAL(0UL, queue.takeIndex)"
 3560      6E646C65 
 3560      64206578 
 3560      63657074 
 3560      696F6E20 
 3561 0159 00000000 		.align 8
 3561      000000
 3562              	.LC15:
 3563 0160 556E6861 		.string	"Unhandled exception in CHECK_EQUAL(0UL, queue.numItems)"
 3563      6E646C65 
 3563      64206578 
 3563      63657074 
 3563      696F6E20 
 3564              		.align 8
 3565              	.LC16:
 3566 0198 556E6861 		.string	"Unhandled exception in CHECK_EQUAL(1UL, deref(queue.itemArray[0]))"
 3566      6E646C65 
 3566      64206578 
 3566      63657074 
 3566      696F6E20 
 3567 01db 00000000 		.align 8
 3567      00
 3568              	.LC17:
 3569 01e0 556E6861 		.string	"Unhandled exception in CHECK_EQUAL(2UL, deref(queue.itemArray[1]))"
 3569      6E646C65 
 3569      64206578 
 3569      63657074 
 3569      696F6E20 
 3570 0223 00000000 		.align 8
 3570      00
 3571              	.LC18:
 3572 0228 556E6861 		.string	"Unhandled exception in CHECK_EQUAL(3UL, deref(queue.itemArray[2]))"
 3572      6E646C65 
 3572      64206578 
 3572      63657074 
 3572      696F6E20 
 3573 026b 00000000 		.align 8
 3573      00
 3574              	.LC19:
 3575 0270 556E6861 		.string	"Unhandled exception in CHECK_EQUAL(4UL, deref(queue.itemArray[3]))"
 3575      6E646C65 
 3575      64206578 
 3575      63657074 
 3575      696F6E20 
 3576              		.section	.text.unlikely
 3577              		.align 2
 3578              	.LCOLDB20:
 3579              		.text
 3580              	.LHOTB20:
 3581 0ab5 90       		.align 2
 3582 0ab6 662E0F1F 		.p2align 4
 3582      84000000 
 3582      0000
 3583              		.globl	_ZNK18TestQueue_testInit7RunImplEv
 3585              	_ZNK18TestQueue_testInit7RunImplEv:
 3586              	.LFB1246:
 3587              		.cfi_startproc
 3588              		.cfi_personality 0x9b,DW.ref.__gxx_personality_v0
 3589              		.cfi_lsda 0x1b,.LLSDA1246
 3590 0ac0 F30F1EFA 		endbr64
 3591 0ac4 4155     		pushq	%r13
 3592              		.cfi_def_cfa_offset 16
 3593              		.cfi_offset 13, -16
 3594 0ac6 488D0D00 		leaq	destroyInt(%rip), %rcx
 3594      000000
 3595 0acd BE040000 		movl	$4, %esi
 3595      00
 3596 0ad2 488D1500 		leaq	createInt(%rip), %rdx
 3596      000000
 3597 0ad9 4154     		pushq	%r12
 3598              		.cfi_def_cfa_offset 24
 3599              		.cfi_offset 12, -24
 3600 0adb 55       		pushq	%rbp
 3601              		.cfi_def_cfa_offset 32
 3602              		.cfi_offset 6, -32
 3603 0adc 4883EC70 		subq	$112, %rsp
 3604              		.cfi_def_cfa_offset 144
 3605 0ae0 64488B04 		movq	%fs:40, %rax
 3605      25280000 
 3605      00
 3606 0ae9 48894424 		movq	%rax, 104(%rsp)
 3606      68
 3607 0aee 31C0     		xorl	%eax, %eax
 3608 0af0 4C8D6424 		leaq	48(%rsp), %r12
 3608      30
 3609 0af5 C7050000 		movl	$1, _ZL7m_count(%rip)
 3609      00000100 
 3609      0000
 3610 0aff 4C89E7   		movq	%r12, %rdi
 3611              	.LEHB109:
 3612 0b02 E8000000 		call	queueInit@PLT
 3612      00
 3613              	.LEHE109:
 3614 0b07 890424   		movl	%eax, (%rsp)
 3615              	.LEHB110:
 3616 0b0a E8000000 		call	_ZN8UnitTest11CurrentTest7DetailsEv@PLT
 3616      00
 3617 0b0f 488D6C24 		leaq	16(%rsp), %rbp
 3617      10
 3618 0b14 488B30   		movq	(%rax), %rsi
 3619 0b17 BA3B0000 		movl	$59, %edx
 3619      00
 3620 0b1c 4889EF   		movq	%rbp, %rdi
 3621 0b1f E8000000 		call	_ZN8UnitTest11TestDetailsC1ERKS0_i@PLT
 3621      00
 3622 0b24 C7442408 		movl	$0, 8(%rsp)
 3622      00000000 
 3623 0b2c E8000000 		call	_ZN8UnitTest11CurrentTest7ResultsEv@PLT
 3623      00
 3624 0b31 488B38   		movq	(%rax), %rdi
 3625 0b34 4889E2   		movq	%rsp, %rdx
 3626 0b37 488D7424 		leaq	8(%rsp), %rsi
 3626      08
 3627 0b3c 4889E9   		movq	%rbp, %rcx
 3628 0b3f E81CF8FF 		call	_ZN8UnitTest10CheckEqualI9USBStatusS1_EEvRNS_11TestResultsERKT_RKT0_RKNS_11TestDetailsE.const
 3628      FF
 3629              	.LEHE110:
 3630              	.L243:
 3631              	.LEHB111:
 3632 0b44 E8000000 		call	_ZN8UnitTest11CurrentTest7DetailsEv@PLT
 3632      00
 3633 0b49 488B30   		movq	(%rax), %rsi
 3634 0b4c BA3E0000 		movl	$62, %edx
 3634      00
 3635 0b51 4889EF   		movq	%rbp, %rdi
 3636 0b54 E8000000 		call	_ZN8UnitTest11TestDetailsC1ERKS0_i@PLT
 3636      00
 3637 0b59 48C74424 		movq	$4, 8(%rsp)
 3637      08040000 
 3637      00
 3638 0b62 E8000000 		call	_ZN8UnitTest11CurrentTest7ResultsEv@PLT
 3638      00
 3639 0b67 488B38   		movq	(%rax), %rdi
 3640 0b6a 488D5424 		leaq	56(%rsp), %rdx
 3640      38
 3641 0b6f 488D7424 		leaq	8(%rsp), %rsi
 3641      08
 3642 0b74 4889E9   		movq	%rbp, %rcx
 3643 0b77 E8000000 		call	_ZN8UnitTest10CheckEqualImmEEvRNS_11TestResultsERKT_RKT0_RKNS_11TestDetailsE
 3643      00
 3644              	.LEHE111:
 3645              	.L246:
 3646              	.LEHB112:
 3647 0b7c E8000000 		call	_ZN8UnitTest11CurrentTest7DetailsEv@PLT
 3647      00
 3648 0b81 488B30   		movq	(%rax), %rsi
 3649 0b84 BA3F0000 		movl	$63, %edx
 3649      00
 3650 0b89 4889EF   		movq	%rbp, %rdi
 3651 0b8c E8000000 		call	_ZN8UnitTest11TestDetailsC1ERKS0_i@PLT
 3651      00
 3652 0b91 48C74424 		movq	$0, 8(%rsp)
 3652      08000000 
 3652      00
 3653 0b9a E8000000 		call	_ZN8UnitTest11CurrentTest7ResultsEv@PLT
 3653      00
 3654 0b9f 488B38   		movq	(%rax), %rdi
 3655 0ba2 488D5424 		leaq	64(%rsp), %rdx
 3655      40
 3656 0ba7 488D7424 		leaq	8(%rsp), %rsi
 3656      08
 3657 0bac 4889E9   		movq	%rbp, %rcx
 3658 0baf E8000000 		call	_ZN8UnitTest10CheckEqualImmEEvRNS_11TestResultsERKT_RKT0_RKNS_11TestDetailsE
 3658      00
 3659              	.LEHE112:
 3660              	.L249:
 3661              	.LEHB113:
 3662 0bb4 E8000000 		call	_ZN8UnitTest11CurrentTest7DetailsEv@PLT
 3662      00
 3663 0bb9 488B30   		movq	(%rax), %rsi
 3664 0bbc BA400000 		movl	$64, %edx
 3664      00
 3665 0bc1 4889EF   		movq	%rbp, %rdi
 3666 0bc4 E8000000 		call	_ZN8UnitTest11TestDetailsC1ERKS0_i@PLT
 3666      00
 3667 0bc9 48C74424 		movq	$0, 8(%rsp)
 3667      08000000 
 3667      00
 3668 0bd2 E8000000 		call	_ZN8UnitTest11CurrentTest7ResultsEv@PLT
 3668      00
 3669 0bd7 488B38   		movq	(%rax), %rdi
 3670 0bda 488D5424 		leaq	72(%rsp), %rdx
 3670      48
 3671 0bdf 488D7424 		leaq	8(%rsp), %rsi
 3671      08
 3672 0be4 4889E9   		movq	%rbp, %rcx
 3673 0be7 E8000000 		call	_ZN8UnitTest10CheckEqualImmEEvRNS_11TestResultsERKT_RKT0_RKNS_11TestDetailsE
 3673      00
 3674              	.LEHE113:
 3675              	.L252:
 3676              	.LEHB114:
 3677 0bec E8000000 		call	_ZN8UnitTest11CurrentTest7DetailsEv@PLT
 3677      00
 3678 0bf1 488B30   		movq	(%rax), %rsi
 3679 0bf4 BA410000 		movl	$65, %edx
 3679      00
 3680 0bf9 4889EF   		movq	%rbp, %rdi
 3681 0bfc E8000000 		call	_ZN8UnitTest11TestDetailsC1ERKS0_i@PLT
 3681      00
 3682 0c01 48C74424 		movq	$0, 8(%rsp)
 3682      08000000 
 3682      00
 3683 0c0a E8000000 		call	_ZN8UnitTest11CurrentTest7ResultsEv@PLT
 3683      00
 3684 0c0f 488B38   		movq	(%rax), %rdi
 3685 0c12 488D5424 		leaq	80(%rsp), %rdx
 3685      50
 3686 0c17 488D7424 		leaq	8(%rsp), %rsi
 3686      08
 3687 0c1c 4889E9   		movq	%rbp, %rcx
 3688 0c1f E8000000 		call	_ZN8UnitTest10CheckEqualImmEEvRNS_11TestResultsERKT_RKT0_RKNS_11TestDetailsE
 3688      00
 3689              	.LEHE114:
 3690              	.L255:
 3691              	.LEHB115:
 3692 0c24 E8000000 		call	_ZN8UnitTest11CurrentTest7DetailsEv@PLT
 3692      00
 3693 0c29 488B30   		movq	(%rax), %rsi
 3694 0c2c BA440000 		movl	$68, %edx
 3694      00
 3695 0c31 4889EF   		movq	%rbp, %rdi
 3696 0c34 E8000000 		call	_ZN8UnitTest11TestDetailsC1ERKS0_i@PLT
 3696      00
 3697 0c39 48C74424 		movq	$1, 8(%rsp)
 3697      08010000 
 3697      00
 3698 0c42 488B4424 		movq	48(%rsp), %rax
 3698      30
 3699 0c47 488B00   		movq	(%rax), %rax
 3700 0c4a 8B00     		movl	(%rax), %eax
 3701 0c4c 89442404 		movl	%eax, 4(%rsp)
 3702 0c50 E8000000 		call	_ZN8UnitTest11CurrentTest7ResultsEv@PLT
 3702      00
 3703 0c55 488B38   		movq	(%rax), %rdi
 3704 0c58 488D5424 		leaq	4(%rsp), %rdx
 3704      04
 3705 0c5d 488D7424 		leaq	8(%rsp), %rsi
 3705      08
 3706 0c62 4889E9   		movq	%rbp, %rcx
 3707 0c65 E8000000 		call	_ZN8UnitTest10CheckEqualImjEEvRNS_11TestResultsERKT_RKT0_RKNS_11TestDetailsE
 3707      00
 3708              	.LEHE115:
 3709              	.L258:
 3710              	.LEHB116:
 3711 0c6a E8000000 		call	_ZN8UnitTest11CurrentTest7DetailsEv@PLT
 3711      00
 3712 0c6f 488B30   		movq	(%rax), %rsi
 3713 0c72 BA450000 		movl	$69, %edx
 3713      00
 3714 0c77 4889EF   		movq	%rbp, %rdi
 3715 0c7a E8000000 		call	_ZN8UnitTest11TestDetailsC1ERKS0_i@PLT
 3715      00
 3716 0c7f 48C74424 		movq	$2, 8(%rsp)
 3716      08020000 
 3716      00
 3717 0c88 488B4424 		movq	48(%rsp), %rax
 3717      30
 3718 0c8d 488B4008 		movq	8(%rax), %rax
 3719 0c91 8B00     		movl	(%rax), %eax
 3720 0c93 89442404 		movl	%eax, 4(%rsp)
 3721 0c97 E8000000 		call	_ZN8UnitTest11CurrentTest7ResultsEv@PLT
 3721      00
 3722 0c9c 488B38   		movq	(%rax), %rdi
 3723 0c9f 488D5424 		leaq	4(%rsp), %rdx
 3723      04
 3724 0ca4 488D7424 		leaq	8(%rsp), %rsi
 3724      08
 3725 0ca9 4889E9   		movq	%rbp, %rcx
 3726 0cac E8000000 		call	_ZN8UnitTest10CheckEqualImjEEvRNS_11TestResultsERKT_RKT0_RKNS_11TestDetailsE
 3726      00
 3727              	.LEHE116:
 3728              	.L261:
 3729              	.LEHB117:
 3730 0cb1 E8000000 		call	_ZN8UnitTest11CurrentTest7DetailsEv@PLT
 3730      00
 3731 0cb6 488B30   		movq	(%rax), %rsi
 3732 0cb9 BA460000 		movl	$70, %edx
 3732      00
 3733 0cbe 4889EF   		movq	%rbp, %rdi
 3734 0cc1 E8000000 		call	_ZN8UnitTest11TestDetailsC1ERKS0_i@PLT
 3734      00
 3735 0cc6 48C74424 		movq	$3, 8(%rsp)
 3735      08030000 
 3735      00
 3736 0ccf 488B4424 		movq	48(%rsp), %rax
 3736      30
 3737 0cd4 488B4010 		movq	16(%rax), %rax
 3738 0cd8 8B00     		movl	(%rax), %eax
 3739 0cda 89442404 		movl	%eax, 4(%rsp)
 3740 0cde E8000000 		call	_ZN8UnitTest11CurrentTest7ResultsEv@PLT
 3740      00
 3741 0ce3 488B38   		movq	(%rax), %rdi
 3742 0ce6 488D5424 		leaq	4(%rsp), %rdx
 3742      04
 3743 0ceb 488D7424 		leaq	8(%rsp), %rsi
 3743      08
 3744 0cf0 4889E9   		movq	%rbp, %rcx
 3745 0cf3 E8000000 		call	_ZN8UnitTest10CheckEqualImjEEvRNS_11TestResultsERKT_RKT0_RKNS_11TestDetailsE
 3745      00
 3746              	.LEHE117:
 3747              	.L264:
 3748              	.LEHB118:
 3749 0cf8 E8000000 		call	_ZN8UnitTest11CurrentTest7DetailsEv@PLT
 3749      00
 3750 0cfd 488B30   		movq	(%rax), %rsi
 3751 0d00 BA470000 		movl	$71, %edx
 3751      00
 3752 0d05 4889EF   		movq	%rbp, %rdi
 3753 0d08 E8000000 		call	_ZN8UnitTest11TestDetailsC1ERKS0_i@PLT
 3753      00
 3754 0d0d 48C74424 		movq	$4, 8(%rsp)
 3754      08040000 
 3754      00
 3755 0d16 488B4424 		movq	48(%rsp), %rax
 3755      30
 3756 0d1b 488B4018 		movq	24(%rax), %rax
 3757 0d1f 8B00     		movl	(%rax), %eax
 3758 0d21 89442404 		movl	%eax, 4(%rsp)
 3759 0d25 E8000000 		call	_ZN8UnitTest11CurrentTest7ResultsEv@PLT
 3759      00
 3760 0d2a 488B38   		movq	(%rax), %rdi
 3761 0d2d 488D5424 		leaq	4(%rsp), %rdx
 3761      04
 3762 0d32 488D7424 		leaq	8(%rsp), %rsi
 3762      08
 3763 0d37 4889E9   		movq	%rbp, %rcx
 3764 0d3a E8000000 		call	_ZN8UnitTest10CheckEqualImjEEvRNS_11TestResultsERKT_RKT0_RKNS_11TestDetailsE
 3764      00
 3765              	.LEHE118:
 3766              	.L267:
 3767 0d3f 4C89E7   		movq	%r12, %rdi
 3768              	.LEHB119:
 3769 0d42 E8000000 		call	queueDestroy@PLT
 3769      00
 3770              	.LEHE119:
 3771 0d47 488B4424 		movq	104(%rsp), %rax
 3771      68
 3772 0d4c 64482B04 		subq	%fs:40, %rax
 3772      25280000 
 3772      00
 3773 0d55 750A     		jne	.L290
 3774 0d57 4883C470 		addq	$112, %rsp
 3775              		.cfi_remember_state
 3776              		.cfi_def_cfa_offset 32
 3777 0d5b 5D       		popq	%rbp
 3778              		.cfi_def_cfa_offset 24
 3779 0d5c 415C     		popq	%r12
 3780              		.cfi_def_cfa_offset 16
 3781 0d5e 415D     		popq	%r13
 3782              		.cfi_def_cfa_offset 8
 3783 0d60 C3       		ret
 3784              	.L290:
 3785              		.cfi_restore_state
 3786 0d61 E8000000 		call	__stack_chk_fail@PLT
 3786      00
 3787              	.L286:
 3788 0d66 F30F1EFA 		endbr64
 3789 0d6a 4889C7   		movq	%rax, %rdi
 3790 0d6d E9000000 		jmp	.L266
 3790      00
 3791              	.L284:
 3792 0d72 F30F1EFA 		endbr64
 3793 0d76 4889C7   		movq	%rax, %rdi
 3794 0d79 E9000000 		jmp	.L263
 3794      00
 3795              	.L276:
 3796 0d7e F30F1EFA 		endbr64
 3797 0d82 4889C7   		movq	%rax, %rdi
 3798 0d85 E9000000 		jmp	.L251
 3798      00
 3799              	.L280:
 3800 0d8a F30F1EFA 		endbr64
 3801 0d8e 4889C7   		movq	%rax, %rdi
 3802 0d91 E9000000 		jmp	.L257
 3802      00
 3803              	.L272:
 3804 0d96 F30F1EFA 		endbr64
 3805 0d9a 4889C7   		movq	%rax, %rdi
 3806 0d9d E9000000 		jmp	.L245
 3806      00
 3807              	.L282:
 3808 0da2 F30F1EFA 		endbr64
 3809 0da6 4889C7   		movq	%rax, %rdi
 3810 0da9 E9000000 		jmp	.L260
 3810      00
 3811              	.L274:
 3812 0dae F30F1EFA 		endbr64
 3813 0db2 4889C7   		movq	%rax, %rdi
 3814 0db5 E9000000 		jmp	.L248
 3814      00
 3815              	.L278:
 3816 0dba F30F1EFA 		endbr64
 3817 0dbe 4889C7   		movq	%rax, %rdi
 3818 0dc1 E9000000 		jmp	.L254
 3818      00
 3819              	.L270:
 3820 0dc6 F30F1EFA 		endbr64
 3821 0dca 4889C7   		movq	%rax, %rdi
 3822 0dcd E9000000 		jmp	.L242
 3822      00
 3823              		.section	.gcc_except_table
 3824 0236 0000     		.align 4
 3825              	.LLSDA1246:
 3826 0238 FF       		.byte	0xff
 3827 0239 9B       		.byte	0x9b
 3828 023a 49       		.uleb128 .LLSDATT1246-.LLSDATTD1246
 3829              	.LLSDATTD1246:
 3830 023b 01       		.byte	0x1
 3831 023c 3E       		.uleb128 .LLSDACSE1246-.LLSDACSB1246
 3832              	.LLSDACSB1246:
 3833 023d 42       		.uleb128 .LEHB109-.LFB1246
 3834 023e 05       		.uleb128 .LEHE109-.LEHB109
 3835 023f 00       		.uleb128 0
 3836 0240 00       		.uleb128 0
 3837 0241 4A       		.uleb128 .LEHB110-.LFB1246
 3838 0242 3A       		.uleb128 .LEHE110-.LEHB110
 3839 0243 8606     		.uleb128 .L270-.LFB1246
 3840 0245 01       		.uleb128 0x1
 3841 0246 8401     		.uleb128 .LEHB111-.LFB1246
 3842 0248 38       		.uleb128 .LEHE111-.LEHB111
 3843 0249 D605     		.uleb128 .L272-.LFB1246
 3844 024b 01       		.uleb128 0x1
 3845 024c BC01     		.uleb128 .LEHB112-.LFB1246
 3846 024e 38       		.uleb128 .LEHE112-.LEHB112
 3847 024f EE05     		.uleb128 .L274-.LFB1246
 3848 0251 01       		.uleb128 0x1
 3849 0252 F401     		.uleb128 .LEHB113-.LFB1246
 3850 0254 38       		.uleb128 .LEHE113-.LEHB113
 3851 0255 BE05     		.uleb128 .L276-.LFB1246
 3852 0257 01       		.uleb128 0x1
 3853 0258 AC02     		.uleb128 .LEHB114-.LFB1246
 3854 025a 38       		.uleb128 .LEHE114-.LEHB114
 3855 025b FA05     		.uleb128 .L278-.LFB1246
 3856 025d 01       		.uleb128 0x1
 3857 025e E402     		.uleb128 .LEHB115-.LFB1246
 3858 0260 46       		.uleb128 .LEHE115-.LEHB115
 3859 0261 CA05     		.uleb128 .L280-.LFB1246
 3860 0263 01       		.uleb128 0x1
 3861 0264 AA03     		.uleb128 .LEHB116-.LFB1246
 3862 0266 47       		.uleb128 .LEHE116-.LEHB116
 3863 0267 E205     		.uleb128 .L282-.LFB1246
 3864 0269 01       		.uleb128 0x1
 3865 026a F103     		.uleb128 .LEHB117-.LFB1246
 3866 026c 47       		.uleb128 .LEHE117-.LEHB117
 3867 026d B205     		.uleb128 .L284-.LFB1246
 3868 026f 01       		.uleb128 0x1
 3869 0270 B804     		.uleb128 .LEHB118-.LFB1246
 3870 0272 47       		.uleb128 .LEHE118-.LEHB118
 3871 0273 A605     		.uleb128 .L286-.LFB1246
 3872 0275 01       		.uleb128 0x1
 3873 0276 8205     		.uleb128 .LEHB119-.LFB1246
 3874 0278 05       		.uleb128 .LEHE119-.LEHB119
 3875 0279 00       		.uleb128 0
 3876 027a 00       		.uleb128 0
 3877              	.LLSDACSE1246:
 3878 027b 01       		.byte	0x1
 3879 027c 00       		.byte	0
 3880 027d 000000   		.align 4
 3881 0280 00000000 		.long	0
 3882              	
 3883              	.LLSDATT1246:
 3884              		.text
 3885              		.cfi_endproc
 3886              		.section	.text.unlikely
 3887              		.cfi_startproc
 3888              		.cfi_personality 0x9b,DW.ref.__gxx_personality_v0
 3889              		.cfi_lsda 0x1b,.LLSDAC1246
 3891              	_ZNK18TestQueue_testInit7RunImplEv.cold:
 3892              	.LFSB1246:
 3893              	.L266:
 3894              		.cfi_def_cfa_offset 144
 3895              		.cfi_offset 6, -32
 3896              		.cfi_offset 12, -24
 3897              		.cfi_offset 13, -16
 3898 0492 E8000000 		call	__cxa_begin_catch@PLT
 3898      00
 3899              	.LEHB120:
 3900 0497 E8000000 		call	_ZN8UnitTest11CurrentTest7ResultsEv@PLT
 3900      00
 3901 049c 4C8B28   		movq	(%rax), %r13
 3902 049f E8000000 		call	_ZN8UnitTest11CurrentTest7DetailsEv@PLT
 3902      00
 3903 04a4 488B30   		movq	(%rax), %rsi
 3904 04a7 BA470000 		movl	$71, %edx
 3904      00
 3905 04ac 4889EF   		movq	%rbp, %rdi
 3906 04af E8000000 		call	_ZN8UnitTest11TestDetailsC1ERKS0_i@PLT
 3906      00
 3907 04b4 488D1500 		leaq	.LC19(%rip), %rdx
 3907      000000
 3908 04bb 4889EE   		movq	%rbp, %rsi
 3909 04be 4C89EF   		movq	%r13, %rdi
 3910 04c1 E8000000 		call	_ZN8UnitTest11TestResults13OnTestFailureERKNS_11TestDetailsEPKc@PLT
 3910      00
 3911              	.LEHE120:
 3912              	.LEHB121:
 3913 04c6 E8000000 		call	__cxa_end_catch@PLT
 3913      00
 3914              	.LEHE121:
 3915 04cb E9000000 		jmp	.L267
 3915      00
 3916              	.L263:
 3917 04d0 E8000000 		call	__cxa_begin_catch@PLT
 3917      00
 3918              	.LEHB122:
 3919 04d5 E8000000 		call	_ZN8UnitTest11CurrentTest7ResultsEv@PLT
 3919      00
 3920 04da 4C8B28   		movq	(%rax), %r13
 3921 04dd E8000000 		call	_ZN8UnitTest11CurrentTest7DetailsEv@PLT
 3921      00
 3922 04e2 488B30   		movq	(%rax), %rsi
 3923 04e5 BA460000 		movl	$70, %edx
 3923      00
 3924 04ea 4889EF   		movq	%rbp, %rdi
 3925 04ed E8000000 		call	_ZN8UnitTest11TestDetailsC1ERKS0_i@PLT
 3925      00
 3926 04f2 488D1500 		leaq	.LC18(%rip), %rdx
 3926      000000
 3927 04f9 4889EE   		movq	%rbp, %rsi
 3928 04fc 4C89EF   		movq	%r13, %rdi
 3929 04ff E8000000 		call	_ZN8UnitTest11TestResults13OnTestFailureERKNS_11TestDetailsEPKc@PLT
 3929      00
 3930              	.LEHE122:
 3931              	.LEHB123:
 3932 0504 E8000000 		call	__cxa_end_catch@PLT
 3932      00
 3933              	.LEHE123:
 3934 0509 E9000000 		jmp	.L264
 3934      00
 3935              	.L251:
 3936 050e E8000000 		call	__cxa_begin_catch@PLT
 3936      00
 3937              	.LEHB124:
 3938 0513 E8000000 		call	_ZN8UnitTest11CurrentTest7ResultsEv@PLT
 3938      00
 3939 0518 4C8B28   		movq	(%rax), %r13
 3940 051b E8000000 		call	_ZN8UnitTest11CurrentTest7DetailsEv@PLT
 3940      00
 3941 0520 488B30   		movq	(%rax), %rsi
 3942 0523 BA400000 		movl	$64, %edx
 3942      00
 3943 0528 4889EF   		movq	%rbp, %rdi
 3944 052b E8000000 		call	_ZN8UnitTest11TestDetailsC1ERKS0_i@PLT
 3944      00
 3945 0530 488D1500 		leaq	.LC14(%rip), %rdx
 3945      000000
 3946 0537 4889EE   		movq	%rbp, %rsi
 3947 053a 4C89EF   		movq	%r13, %rdi
 3948 053d E8000000 		call	_ZN8UnitTest11TestResults13OnTestFailureERKNS_11TestDetailsEPKc@PLT
 3948      00
 3949              	.LEHE124:
 3950              	.LEHB125:
 3951 0542 E8000000 		call	__cxa_end_catch@PLT
 3951      00
 3952              	.LEHE125:
 3953 0547 E9000000 		jmp	.L252
 3953      00
 3954              	.L257:
 3955 054c E8000000 		call	__cxa_begin_catch@PLT
 3955      00
 3956              	.LEHB126:
 3957 0551 E8000000 		call	_ZN8UnitTest11CurrentTest7ResultsEv@PLT
 3957      00
 3958 0556 4C8B28   		movq	(%rax), %r13
 3959 0559 E8000000 		call	_ZN8UnitTest11CurrentTest7DetailsEv@PLT
 3959      00
 3960 055e 488B30   		movq	(%rax), %rsi
 3961 0561 BA440000 		movl	$68, %edx
 3961      00
 3962 0566 4889EF   		movq	%rbp, %rdi
 3963 0569 E8000000 		call	_ZN8UnitTest11TestDetailsC1ERKS0_i@PLT
 3963      00
 3964 056e 488D1500 		leaq	.LC16(%rip), %rdx
 3964      000000
 3965 0575 4889EE   		movq	%rbp, %rsi
 3966 0578 4C89EF   		movq	%r13, %rdi
 3967 057b E8000000 		call	_ZN8UnitTest11TestResults13OnTestFailureERKNS_11TestDetailsEPKc@PLT
 3967      00
 3968              	.LEHE126:
 3969              	.LEHB127:
 3970 0580 E8000000 		call	__cxa_end_catch@PLT
 3970      00
 3971              	.LEHE127:
 3972 0585 E9000000 		jmp	.L258
 3972      00
 3973              	.L245:
 3974 058a E8000000 		call	__cxa_begin_catch@PLT
 3974      00
 3975              	.LEHB128:
 3976 058f E8000000 		call	_ZN8UnitTest11CurrentTest7ResultsEv@PLT
 3976      00
 3977 0594 4C8B28   		movq	(%rax), %r13
 3978 0597 E8000000 		call	_ZN8UnitTest11CurrentTest7DetailsEv@PLT
 3978      00
 3979 059c 488B30   		movq	(%rax), %rsi
 3980 059f BA3E0000 		movl	$62, %edx
 3980      00
 3981 05a4 4889EF   		movq	%rbp, %rdi
 3982 05a7 E8000000 		call	_ZN8UnitTest11TestDetailsC1ERKS0_i@PLT
 3982      00
 3983 05ac 488D1500 		leaq	.LC12(%rip), %rdx
 3983      000000
 3984 05b3 4889EE   		movq	%rbp, %rsi
 3985 05b6 4C89EF   		movq	%r13, %rdi
 3986 05b9 E8000000 		call	_ZN8UnitTest11TestResults13OnTestFailureERKNS_11TestDetailsEPKc@PLT
 3986      00
 3987              	.LEHE128:
 3988              	.LEHB129:
 3989 05be E8000000 		call	__cxa_end_catch@PLT
 3989      00
 3990              	.LEHE129:
 3991 05c3 E9000000 		jmp	.L246
 3991      00
 3992              	.L260:
 3993 05c8 E8000000 		call	__cxa_begin_catch@PLT
 3993      00
 3994              	.LEHB130:
 3995 05cd E8000000 		call	_ZN8UnitTest11CurrentTest7ResultsEv@PLT
 3995      00
 3996 05d2 4C8B28   		movq	(%rax), %r13
 3997 05d5 E8000000 		call	_ZN8UnitTest11CurrentTest7DetailsEv@PLT
 3997      00
 3998 05da 488B30   		movq	(%rax), %rsi
 3999 05dd BA450000 		movl	$69, %edx
 3999      00
 4000 05e2 4889EF   		movq	%rbp, %rdi
 4001 05e5 E8000000 		call	_ZN8UnitTest11TestDetailsC1ERKS0_i@PLT
 4001      00
 4002 05ea 488D1500 		leaq	.LC17(%rip), %rdx
 4002      000000
 4003 05f1 4889EE   		movq	%rbp, %rsi
 4004 05f4 4C89EF   		movq	%r13, %rdi
 4005 05f7 E8000000 		call	_ZN8UnitTest11TestResults13OnTestFailureERKNS_11TestDetailsEPKc@PLT
 4005      00
 4006              	.LEHE130:
 4007              	.LEHB131:
 4008 05fc E8000000 		call	__cxa_end_catch@PLT
 4008      00
 4009              	.LEHE131:
 4010 0601 E9000000 		jmp	.L261
 4010      00
 4011              	.L248:
 4012 0606 E8000000 		call	__cxa_begin_catch@PLT
 4012      00
 4013              	.LEHB132:
 4014 060b E8000000 		call	_ZN8UnitTest11CurrentTest7ResultsEv@PLT
 4014      00
 4015 0610 4C8B28   		movq	(%rax), %r13
 4016 0613 E8000000 		call	_ZN8UnitTest11CurrentTest7DetailsEv@PLT
 4016      00
 4017 0618 488B30   		movq	(%rax), %rsi
 4018 061b BA3F0000 		movl	$63, %edx
 4018      00
 4019 0620 4889EF   		movq	%rbp, %rdi
 4020 0623 E8000000 		call	_ZN8UnitTest11TestDetailsC1ERKS0_i@PLT
 4020      00
 4021 0628 488D1500 		leaq	.LC13(%rip), %rdx
 4021      000000
 4022 062f 4889EE   		movq	%rbp, %rsi
 4023 0632 4C89EF   		movq	%r13, %rdi
 4024 0635 E8000000 		call	_ZN8UnitTest11TestResults13OnTestFailureERKNS_11TestDetailsEPKc@PLT
 4024      00
 4025              	.LEHE132:
 4026              	.LEHB133:
 4027 063a E8000000 		call	__cxa_end_catch@PLT
 4027      00
 4028              	.LEHE133:
 4029 063f E9000000 		jmp	.L249
 4029      00
 4030              	.L254:
 4031 0644 E8000000 		call	__cxa_begin_catch@PLT
 4031      00
 4032              	.LEHB134:
 4033 0649 E8000000 		call	_ZN8UnitTest11CurrentTest7ResultsEv@PLT
 4033      00
 4034 064e 4C8B28   		movq	(%rax), %r13
 4035 0651 E8000000 		call	_ZN8UnitTest11CurrentTest7DetailsEv@PLT
 4035      00
 4036 0656 488B30   		movq	(%rax), %rsi
 4037 0659 BA410000 		movl	$65, %edx
 4037      00
 4038 065e 4889EF   		movq	%rbp, %rdi
 4039 0661 E8000000 		call	_ZN8UnitTest11TestDetailsC1ERKS0_i@PLT
 4039      00
 4040 0666 488D1500 		leaq	.LC15(%rip), %rdx
 4040      000000
 4041 066d 4889EE   		movq	%rbp, %rsi
 4042 0670 4C89EF   		movq	%r13, %rdi
 4043 0673 E8000000 		call	_ZN8UnitTest11TestResults13OnTestFailureERKNS_11TestDetailsEPKc@PLT
 4043      00
 4044              	.LEHE134:
 4045              	.LEHB135:
 4046 0678 E8000000 		call	__cxa_end_catch@PLT
 4046      00
 4047              	.LEHE135:
 4048 067d E9000000 		jmp	.L255
 4048      00
 4049              	.L242:
 4050 0682 E8000000 		call	__cxa_begin_catch@PLT
 4050      00
 4051              	.LEHB136:
 4052 0687 E8000000 		call	_ZN8UnitTest11CurrentTest7ResultsEv@PLT
 4052      00
 4053 068c 4C8B28   		movq	(%rax), %r13
 4054 068f E8000000 		call	_ZN8UnitTest11CurrentTest7DetailsEv@PLT
 4054      00
 4055 0694 488D6C24 		leaq	16(%rsp), %rbp
 4055      10
 4056 0699 488B30   		movq	(%rax), %rsi
 4057 069c BA3B0000 		movl	$59, %edx
 4057      00
 4058 06a1 4889EF   		movq	%rbp, %rdi
 4059 06a4 E8000000 		call	_ZN8UnitTest11TestDetailsC1ERKS0_i@PLT
 4059      00
 4060 06a9 488D1500 		leaq	.LC10(%rip), %rdx
 4060      000000
 4061 06b0 4889EE   		movq	%rbp, %rsi
 4062 06b3 4C89EF   		movq	%r13, %rdi
 4063 06b6 E8000000 		call	_ZN8UnitTest11TestResults13OnTestFailureERKNS_11TestDetailsEPKc@PLT
 4063      00
 4064              	.LEHE136:
 4065              	.LEHB137:
 4066 06bb E8000000 		call	__cxa_end_catch@PLT
 4066      00
 4067              	.LEHE137:
 4068 06c0 E9000000 		jmp	.L243
 4068      00
 4069              	.L287:
 4070 06c5 F30F1EFA 		endbr64
 4071 06c9 4889C5   		movq	%rax, %rbp
 4072 06cc E8000000 		call	__cxa_end_catch@PLT
 4072      00
 4073 06d1 4889EF   		movq	%rbp, %rdi
 4074              	.LEHB138:
 4075 06d4 E8000000 		call	_Unwind_Resume@PLT
 4075      00
 4076              	.LEHE138:
 4077              	.L285:
 4078 06d9 F30F1EFA 		endbr64
 4079 06dd 4889C5   		movq	%rax, %rbp
 4080 06e0 E8000000 		call	__cxa_end_catch@PLT
 4080      00
 4081 06e5 4889EF   		movq	%rbp, %rdi
 4082              	.LEHB139:
 4083 06e8 E8000000 		call	_Unwind_Resume@PLT
 4083      00
 4084              	.LEHE139:
 4085              	.L283:
 4086 06ed F30F1EFA 		endbr64
 4087 06f1 4889C5   		movq	%rax, %rbp
 4088 06f4 E8000000 		call	__cxa_end_catch@PLT
 4088      00
 4089 06f9 4889EF   		movq	%rbp, %rdi
 4090              	.LEHB140:
 4091 06fc E8000000 		call	_Unwind_Resume@PLT
 4091      00
 4092              	.LEHE140:
 4093              	.L281:
 4094 0701 F30F1EFA 		endbr64
 4095 0705 4889C5   		movq	%rax, %rbp
 4096 0708 E8000000 		call	__cxa_end_catch@PLT
 4096      00
 4097 070d 4889EF   		movq	%rbp, %rdi
 4098              	.LEHB141:
 4099 0710 E8000000 		call	_Unwind_Resume@PLT
 4099      00
 4100              	.LEHE141:
 4101              	.L279:
 4102 0715 F30F1EFA 		endbr64
 4103 0719 4889C5   		movq	%rax, %rbp
 4104 071c E8000000 		call	__cxa_end_catch@PLT
 4104      00
 4105 0721 4889EF   		movq	%rbp, %rdi
 4106              	.LEHB142:
 4107 0724 E8000000 		call	_Unwind_Resume@PLT
 4107      00
 4108              	.LEHE142:
 4109              	.L277:
 4110 0729 F30F1EFA 		endbr64
 4111 072d 4889C5   		movq	%rax, %rbp
 4112 0730 E8000000 		call	__cxa_end_catch@PLT
 4112      00
 4113 0735 4889EF   		movq	%rbp, %rdi
 4114              	.LEHB143:
 4115 0738 E8000000 		call	_Unwind_Resume@PLT
 4115      00
 4116              	.LEHE143:
 4117              	.L275:
 4118 073d F30F1EFA 		endbr64
 4119 0741 4889C5   		movq	%rax, %rbp
 4120 0744 E8000000 		call	__cxa_end_catch@PLT
 4120      00
 4121 0749 4889EF   		movq	%rbp, %rdi
 4122              	.LEHB144:
 4123 074c E8000000 		call	_Unwind_Resume@PLT
 4123      00
 4124              	.LEHE144:
 4125              	.L273:
 4126 0751 F30F1EFA 		endbr64
 4127 0755 4889C5   		movq	%rax, %rbp
 4128 0758 E8000000 		call	__cxa_end_catch@PLT
 4128      00
 4129 075d 4889EF   		movq	%rbp, %rdi
 4130              	.LEHB145:
 4131 0760 E8000000 		call	_Unwind_Resume@PLT
 4131      00
 4132              	.LEHE145:
 4133              	.L271:
 4134 0765 F30F1EFA 		endbr64
 4135 0769 4889C5   		movq	%rax, %rbp
 4136 076c E8000000 		call	__cxa_end_catch@PLT
 4136      00
 4137 0771 4889EF   		movq	%rbp, %rdi
 4138              	.LEHB146:
 4139 0774 E8000000 		call	_Unwind_Resume@PLT
 4139      00
 4140              	.LEHE146:
 4141              		.cfi_endproc
 4142              	.LFE1246:
 4143              		.section	.gcc_except_table
 4144              		.align 4
 4145              	.LLSDAC1246:
 4146 0284 FF       		.byte	0xff
 4147 0285 9B       		.byte	0x9b
 4148 0286 9801     		.uleb128 .LLSDATTC1246-.LLSDATTDC1246
 4149              	.LLSDATTDC1246:
 4150 0288 01       		.byte	0x1
 4151 0289 8C01     		.uleb128 .LLSDACSEC1246-.LLSDACSBC1246
 4152              	.LLSDACSBC1246:
 4153 028b 05       		.uleb128 .LEHB120-.LCOLDB20
 4154 028c 2F       		.uleb128 .LEHE120-.LEHB120
 4155 028d B304     		.uleb128 .L287-.LCOLDB20
 4156 028f 00       		.uleb128 0
 4157 0290 34       		.uleb128 .LEHB121-.LCOLDB20
 4158 0291 05       		.uleb128 .LEHE121-.LEHB121
 4159 0292 00       		.uleb128 0
 4160 0293 00       		.uleb128 0
 4161 0294 43       		.uleb128 .LEHB122-.LCOLDB20
 4162 0295 2F       		.uleb128 .LEHE122-.LEHB122
 4163 0296 C704     		.uleb128 .L285-.LCOLDB20
 4164 0298 00       		.uleb128 0
 4165 0299 72       		.uleb128 .LEHB123-.LCOLDB20
 4166 029a 05       		.uleb128 .LEHE123-.LEHB123
 4167 029b 00       		.uleb128 0
 4168 029c 00       		.uleb128 0
 4169 029d 8101     		.uleb128 .LEHB124-.LCOLDB20
 4170 029f 2F       		.uleb128 .LEHE124-.LEHB124
 4171 02a0 9705     		.uleb128 .L277-.LCOLDB20
 4172 02a2 00       		.uleb128 0
 4173 02a3 B001     		.uleb128 .LEHB125-.LCOLDB20
 4174 02a5 05       		.uleb128 .LEHE125-.LEHB125
 4175 02a6 00       		.uleb128 0
 4176 02a7 00       		.uleb128 0
 4177 02a8 BF01     		.uleb128 .LEHB126-.LCOLDB20
 4178 02aa 2F       		.uleb128 .LEHE126-.LEHB126
 4179 02ab EF04     		.uleb128 .L281-.LCOLDB20
 4180 02ad 00       		.uleb128 0
 4181 02ae EE01     		.uleb128 .LEHB127-.LCOLDB20
 4182 02b0 05       		.uleb128 .LEHE127-.LEHB127
 4183 02b1 00       		.uleb128 0
 4184 02b2 00       		.uleb128 0
 4185 02b3 FD01     		.uleb128 .LEHB128-.LCOLDB20
 4186 02b5 2F       		.uleb128 .LEHE128-.LEHB128
 4187 02b6 BF05     		.uleb128 .L273-.LCOLDB20
 4188 02b8 00       		.uleb128 0
 4189 02b9 AC02     		.uleb128 .LEHB129-.LCOLDB20
 4190 02bb 05       		.uleb128 .LEHE129-.LEHB129
 4191 02bc 00       		.uleb128 0
 4192 02bd 00       		.uleb128 0
 4193 02be BB02     		.uleb128 .LEHB130-.LCOLDB20
 4194 02c0 2F       		.uleb128 .LEHE130-.LEHB130
 4195 02c1 DB04     		.uleb128 .L283-.LCOLDB20
 4196 02c3 00       		.uleb128 0
 4197 02c4 EA02     		.uleb128 .LEHB131-.LCOLDB20
 4198 02c6 05       		.uleb128 .LEHE131-.LEHB131
 4199 02c7 00       		.uleb128 0
 4200 02c8 00       		.uleb128 0
 4201 02c9 F902     		.uleb128 .LEHB132-.LCOLDB20
 4202 02cb 2F       		.uleb128 .LEHE132-.LEHB132
 4203 02cc AB05     		.uleb128 .L275-.LCOLDB20
 4204 02ce 00       		.uleb128 0
 4205 02cf A803     		.uleb128 .LEHB133-.LCOLDB20
 4206 02d1 05       		.uleb128 .LEHE133-.LEHB133
 4207 02d2 00       		.uleb128 0
 4208 02d3 00       		.uleb128 0
 4209 02d4 B703     		.uleb128 .LEHB134-.LCOLDB20
 4210 02d6 2F       		.uleb128 .LEHE134-.LEHB134
 4211 02d7 8305     		.uleb128 .L279-.LCOLDB20
 4212 02d9 00       		.uleb128 0
 4213 02da E603     		.uleb128 .LEHB135-.LCOLDB20
 4214 02dc 05       		.uleb128 .LEHE135-.LEHB135
 4215 02dd 00       		.uleb128 0
 4216 02de 00       		.uleb128 0
 4217 02df F503     		.uleb128 .LEHB136-.LCOLDB20
 4218 02e1 34       		.uleb128 .LEHE136-.LEHB136
 4219 02e2 D305     		.uleb128 .L271-.LCOLDB20
 4220 02e4 00       		.uleb128 0
 4221 02e5 A904     		.uleb128 .LEHB137-.LCOLDB20
 4222 02e7 05       		.uleb128 .LEHE137-.LEHB137
 4223 02e8 00       		.uleb128 0
 4224 02e9 00       		.uleb128 0
 4225 02ea C204     		.uleb128 .LEHB138-.LCOLDB20
 4226 02ec 05       		.uleb128 .LEHE138-.LEHB138
 4227 02ed 00       		.uleb128 0
 4228 02ee 00       		.uleb128 0
 4229 02ef D604     		.uleb128 .LEHB139-.LCOLDB20
 4230 02f1 05       		.uleb128 .LEHE139-.LEHB139
 4231 02f2 00       		.uleb128 0
 4232 02f3 00       		.uleb128 0
 4233 02f4 EA04     		.uleb128 .LEHB140-.LCOLDB20
 4234 02f6 05       		.uleb128 .LEHE140-.LEHB140
 4235 02f7 00       		.uleb128 0
 4236 02f8 00       		.uleb128 0
 4237 02f9 FE04     		.uleb128 .LEHB141-.LCOLDB20
 4238 02fb 05       		.uleb128 .LEHE141-.LEHB141
 4239 02fc 00       		.uleb128 0
 4240 02fd 00       		.uleb128 0
 4241 02fe 9205     		.uleb128 .LEHB142-.LCOLDB20
 4242 0300 05       		.uleb128 .LEHE142-.LEHB142
 4243 0301 00       		.uleb128 0
 4244 0302 00       		.uleb128 0
 4245 0303 A605     		.uleb128 .LEHB143-.LCOLDB20
 4246 0305 05       		.uleb128 .LEHE143-.LEHB143
 4247 0306 00       		.uleb128 0
 4248 0307 00       		.uleb128 0
 4249 0308 BA05     		.uleb128 .LEHB144-.LCOLDB20
 4250 030a 05       		.uleb128 .LEHE144-.LEHB144
 4251 030b 00       		.uleb128 0
 4252 030c 00       		.uleb128 0
 4253 030d CE05     		.uleb128 .LEHB145-.LCOLDB20
 4254 030f 05       		.uleb128 .LEHE145-.LEHB145
 4255 0310 00       		.uleb128 0
 4256 0311 00       		.uleb128 0
 4257 0312 E205     		.uleb128 .LEHB146-.LCOLDB20
 4258 0314 05       		.uleb128 .LEHE146-.LEHB146
 4259 0315 00       		.uleb128 0
 4260 0316 00       		.uleb128 0
 4261              	.LLSDACSEC1246:
 4262 0317 01       		.byte	0x1
 4263 0318 00       		.byte	0
 4264 0319 000000   		.align 4
 4265 031c 00000000 		.long	0
 4266              	
 4267              	.LLSDATTC1246:
 4268              		.section	.text.unlikely
 4269              		.text
 4271              		.section	.text.unlikely
 4273              	.LCOLDE20:
 4274              		.text
 4275              	.LHOTE20:
 4276              		.section	.rodata.str1.8
 4277 02b3 00000000 		.align 8
 4277      00
 4278              	.LC21:
 4279 02b8 556E6861 		.string	"Unhandled exception in CHECK_EQUAL(1UL, *item)"
 4279      6E646C65 
 4279      64206578 
 4279      63657074 
 4279      696F6E20 
 4280 02e7 00       		.align 8
 4281              	.LC22:
 4282 02e8 556E6861 		.string	"Unhandled exception in CHECK_EQUAL(2UL, *item)"
 4282      6E646C65 
 4282      64206578 
 4282      63657074 
 4282      696F6E20 
 4283 0317 00       		.align 8
 4284              	.LC23:
 4285 0318 556E6861 		.string	"Unhandled exception in CHECK_EQUAL(3UL, *item)"
 4285      6E646C65 
 4285      64206578 
 4285      63657074 
 4285      696F6E20 
 4286 0347 00       		.align 8
 4287              	.LC24:
 4288 0348 556E6861 		.string	"Unhandled exception in CHECK_EQUAL(3UL, queue.putIndex)"
 4288      6E646C65 
 4288      64206578 
 4288      63657074 
 4288      696F6E20 
 4289              		.align 8
 4290              	.LC25:
 4291 0380 556E6861 		.string	"Unhandled exception in CHECK_EQUAL(3UL, queue.numItems)"
 4291      6E646C65 
 4291      64206578 
 4291      63657074 
 4291      696F6E20 
 4292              		.align 8
 4293              	.LC26:
 4294 03b8 556E6861 		.string	"Unhandled exception in CHECK_EQUAL(5UL, deref(queue.itemArray[0]))"
 4294      6E646C65 
 4294      64206578 
 4294      63657074 
 4294      696F6E20 
 4295 03fb 00000000 		.align 8
 4295      00
 4296              	.LC27:
 4297 0400 556E6861 		.string	"Unhandled exception in CHECK_EQUAL(6UL, deref(queue.itemArray[1]))"
 4297      6E646C65 
 4297      64206578 
 4297      63657074 
 4297      696F6E20 
 4298 0443 00000000 		.align 8
 4298      00
 4299              	.LC28:
 4300 0448 556E6861 		.string	"Unhandled exception in CHECK_EQUAL(7UL, deref(queue.itemArray[2]))"
 4300      6E646C65 
 4300      64206578 
 4300      63657074 
 4300      696F6E20 
 4301              		.section	.text.unlikely
 4302 0779 90       		.align 2
 4303              	.LCOLDB29:
 4304              		.text
 4305              	.LHOTB29:
 4306              		.align 2
 4307 0dd2 66662E0F 		.p2align 4
 4307      1F840000 
 4307      0000000F 
 4307      1F00
 4308              		.globl	_ZNK23TestQueue_testPutNoWrap7RunImplEv
 4310              	_ZNK23TestQueue_testPutNoWrap7RunImplEv:
 4311              	.LFB1250:
 4312              		.cfi_startproc
 4313              		.cfi_personality 0x9b,DW.ref.__gxx_personality_v0
 4314              		.cfi_lsda 0x1b,.LLSDA1250
 4315 0de0 F30F1EFA 		endbr64
 4316 0de4 4156     		pushq	%r14
 4317              		.cfi_def_cfa_offset 16
 4318              		.cfi_offset 14, -16
 4319 0de6 488D0D00 		leaq	destroyInt(%rip), %rcx
 4319      000000
 4320 0ded BE040000 		movl	$4, %esi
 4320      00
 4321 0df2 488D1500 		leaq	createInt(%rip), %rdx
 4321      000000
 4322 0df9 4155     		pushq	%r13
 4323              		.cfi_def_cfa_offset 24
 4324              		.cfi_offset 13, -24
 4325 0dfb 4154     		pushq	%r12
 4326              		.cfi_def_cfa_offset 32
 4327              		.cfi_offset 12, -32
 4328 0dfd 55       		pushq	%rbp
 4329              		.cfi_def_cfa_offset 40
 4330              		.cfi_offset 6, -40
 4331 0dfe 4881EC88 		subq	$136, %rsp
 4331      000000
 4332              		.cfi_def_cfa_offset 176
 4333 0e05 64488B04 		movq	%fs:40, %rax
 4333      25280000 
 4333      00
 4334 0e0e 48894424 		movq	%rax, 120(%rsp)
 4334      78
 4335 0e13 31C0     		xorl	%eax, %eax
 4336 0e15 4C8D6424 		leaq	64(%rsp), %r12
 4336      40
 4337 0e1a C7050000 		movl	$1, _ZL7m_count(%rip)
 4337      00000100 
 4337      0000
 4338 0e24 4C89E7   		movq	%r12, %rdi
 4339              	.LEHB147:
 4340 0e27 E8000000 		call	queueInit@PLT
 4340      00
 4341              	.LEHE147:
 4342 0e2c 89442408 		movl	%eax, 8(%rsp)
 4343              	.LEHB148:
 4344 0e30 E8000000 		call	_ZN8UnitTest11CurrentTest7DetailsEv@PLT
 4344      00
 4345 0e35 488D6C24 		leaq	32(%rsp), %rbp
 4345      20
 4346 0e3a 488B30   		movq	(%rax), %rsi
 4347 0e3d BA540000 		movl	$84, %edx
 4347      00
 4348 0e42 4889EF   		movq	%rbp, %rdi
 4349 0e45 E8000000 		call	_ZN8UnitTest11TestDetailsC1ERKS0_i@PLT
 4349      00
 4350 0e4a C7442418 		movl	$0, 24(%rsp)
 4350      00000000 
 4351 0e52 E8000000 		call	_ZN8UnitTest11CurrentTest7ResultsEv@PLT
 4351      00
 4352 0e57 488B38   		movq	(%rax), %rdi
 4353 0e5a 488D5424 		leaq	8(%rsp), %rdx
 4353      08
 4354 0e5f 488D7424 		leaq	24(%rsp), %rsi
 4354      18
 4355 0e64 4889E9   		movq	%rbp, %rcx
 4356 0e67 E8F4F4FF 		call	_ZN8UnitTest10CheckEqualI9USBStatusS1_EEvRNS_11TestResultsERKT_RKT0_RKNS_11TestDetailsE.const
 4356      FF
 4357              	.LEHE148:
 4358              	.L293:
 4359 0e6c 4C8D6C24 		leaq	16(%rsp), %r13
 4359      10
 4360 0e71 4C89E7   		movq	%r12, %rdi
 4361 0e74 4C89EE   		movq	%r13, %rsi
 4362              	.LEHB149:
 4363 0e77 E8000000 		call	queuePut@PLT
 4363      00
 4364              	.LEHE149:
 4365 0e7c 89442408 		movl	%eax, 8(%rsp)
 4366              	.LEHB150:
 4367 0e80 E8000000 		call	_ZN8UnitTest11CurrentTest7DetailsEv@PLT
 4367      00
 4368 0e85 488B30   		movq	(%rax), %rsi
 4369 0e88 BA580000 		movl	$88, %edx
 4369      00
 4370 0e8d 4889EF   		movq	%rbp, %rdi
 4371 0e90 E8000000 		call	_ZN8UnitTest11TestDetailsC1ERKS0_i@PLT
 4371      00
 4372 0e95 C7442418 		movl	$0, 24(%rsp)
 4372      00000000 
 4373 0e9d E8000000 		call	_ZN8UnitTest11CurrentTest7ResultsEv@PLT
 4373      00
 4374 0ea2 488B38   		movq	(%rax), %rdi
 4375 0ea5 488D5424 		leaq	8(%rsp), %rdx
 4375      08
 4376 0eaa 488D7424 		leaq	24(%rsp), %rsi
 4376      18
 4377 0eaf 4889E9   		movq	%rbp, %rcx
 4378 0eb2 E8A9F4FF 		call	_ZN8UnitTest10CheckEqualI9USBStatusS1_EEvRNS_11TestResultsERKT_RKT0_RKNS_11TestDetailsE.const
 4378      FF
 4379              	.LEHE150:
 4380              	.L296:
 4381              	.LEHB151:
 4382 0eb7 E8000000 		call	_ZN8UnitTest11CurrentTest7DetailsEv@PLT
 4382      00
 4383 0ebc 488B30   		movq	(%rax), %rsi
 4384 0ebf BA590000 		movl	$89, %edx
 4384      00
 4385 0ec4 4889EF   		movq	%rbp, %rdi
 4386 0ec7 E8000000 		call	_ZN8UnitTest11TestDetailsC1ERKS0_i@PLT
 4386      00
 4387 0ecc 48C74424 		movq	$1, 24(%rsp)
 4387      18010000 
 4387      00
 4388 0ed5 4C8B7424 		movq	16(%rsp), %r14
 4388      10
 4389 0eda E8000000 		call	_ZN8UnitTest11CurrentTest7ResultsEv@PLT
 4389      00
 4390 0edf 488B38   		movq	(%rax), %rdi
 4391 0ee2 488D7424 		leaq	24(%rsp), %rsi
 4391      18
 4392 0ee7 4889E9   		movq	%rbp, %rcx
 4393 0eea 4C89F2   		movq	%r14, %rdx
 4394 0eed E8000000 		call	_ZN8UnitTest10CheckEqualImjEEvRNS_11TestResultsERKT_RKT0_RKNS_11TestDetailsE
 4394      00
 4395              	.LEHE151:
 4396              	.L299:
 4397 0ef2 488B4424 		movq	16(%rsp), %rax
 4397      10
 4398 0ef7 4C89E7   		movq	%r12, %rdi
 4399 0efa C7000500 		movl	$5, (%rax)
 4399      0000
 4400              	.LEHB152:
 4401 0f00 E8000000 		call	queueCommitPut@PLT
 4401      00
 4402 0f05 4C89EE   		movq	%r13, %rsi
 4403 0f08 4C89E7   		movq	%r12, %rdi
 4404 0f0b E8000000 		call	queuePut@PLT
 4404      00
 4405              	.LEHE152:
 4406 0f10 89442408 		movl	%eax, 8(%rsp)
 4407              	.LEHB153:
 4408 0f14 E8000000 		call	_ZN8UnitTest11CurrentTest7DetailsEv@PLT
 4408      00
 4409 0f19 488B30   		movq	(%rax), %rsi
 4410 0f1c BA5D0000 		movl	$93, %edx
 4410      00
 4411 0f21 4889EF   		movq	%rbp, %rdi
 4412 0f24 E8000000 		call	_ZN8UnitTest11TestDetailsC1ERKS0_i@PLT
 4412      00
 4413 0f29 C7442418 		movl	$0, 24(%rsp)
 4413      00000000 
 4414 0f31 E8000000 		call	_ZN8UnitTest11CurrentTest7ResultsEv@PLT
 4414      00
 4415 0f36 488B38   		movq	(%rax), %rdi
 4416 0f39 488D5424 		leaq	8(%rsp), %rdx
 4416      08
 4417 0f3e 488D7424 		leaq	24(%rsp), %rsi
 4417      18
 4418 0f43 4889E9   		movq	%rbp, %rcx
 4419 0f46 E815F4FF 		call	_ZN8UnitTest10CheckEqualI9USBStatusS1_EEvRNS_11TestResultsERKT_RKT0_RKNS_11TestDetailsE.const
 4419      FF
 4420              	.LEHE153:
 4421              	.L302:
 4422              	.LEHB154:
 4423 0f4b E8000000 		call	_ZN8UnitTest11CurrentTest7DetailsEv@PLT
 4423      00
 4424 0f50 488B30   		movq	(%rax), %rsi
 4425 0f53 BA5E0000 		movl	$94, %edx
 4425      00
 4426 0f58 4889EF   		movq	%rbp, %rdi
 4427 0f5b E8000000 		call	_ZN8UnitTest11TestDetailsC1ERKS0_i@PLT
 4427      00
 4428 0f60 48C74424 		movq	$2, 24(%rsp)
 4428      18020000 
 4428      00
 4429 0f69 4C8B7424 		movq	16(%rsp), %r14
 4429      10
 4430 0f6e E8000000 		call	_ZN8UnitTest11CurrentTest7ResultsEv@PLT
 4430      00
 4431 0f73 488B38   		movq	(%rax), %rdi
 4432 0f76 488D7424 		leaq	24(%rsp), %rsi
 4432      18
 4433 0f7b 4889E9   		movq	%rbp, %rcx
 4434 0f7e 4C89F2   		movq	%r14, %rdx
 4435 0f81 E8000000 		call	_ZN8UnitTest10CheckEqualImjEEvRNS_11TestResultsERKT_RKT0_RKNS_11TestDetailsE
 4435      00
 4436              	.LEHE154:
 4437              	.L305:
 4438 0f86 488B4424 		movq	16(%rsp), %rax
 4438      10
 4439 0f8b 4C89E7   		movq	%r12, %rdi
 4440 0f8e C7000600 		movl	$6, (%rax)
 4440      0000
 4441              	.LEHB155:
 4442 0f94 E8000000 		call	queueCommitPut@PLT
 4442      00
 4443 0f99 4C89EE   		movq	%r13, %rsi
 4444 0f9c 4C89E7   		movq	%r12, %rdi
 4445 0f9f E8000000 		call	queuePut@PLT
 4445      00
 4446              	.LEHE155:
 4447 0fa4 89442408 		movl	%eax, 8(%rsp)
 4448              	.LEHB156:
 4449 0fa8 E8000000 		call	_ZN8UnitTest11CurrentTest7DetailsEv@PLT
 4449      00
 4450 0fad 488B30   		movq	(%rax), %rsi
 4451 0fb0 BA620000 		movl	$98, %edx
 4451      00
 4452 0fb5 4889EF   		movq	%rbp, %rdi
 4453 0fb8 E8000000 		call	_ZN8UnitTest11TestDetailsC1ERKS0_i@PLT
 4453      00
 4454 0fbd C7442418 		movl	$0, 24(%rsp)
 4454      00000000 
 4455 0fc5 E8000000 		call	_ZN8UnitTest11CurrentTest7ResultsEv@PLT
 4455      00
 4456 0fca 488B38   		movq	(%rax), %rdi
 4457 0fcd 488D5424 		leaq	8(%rsp), %rdx
 4457      08
 4458 0fd2 488D7424 		leaq	24(%rsp), %rsi
 4458      18
 4459 0fd7 4889E9   		movq	%rbp, %rcx
 4460 0fda E881F3FF 		call	_ZN8UnitTest10CheckEqualI9USBStatusS1_EEvRNS_11TestResultsERKT_RKT0_RKNS_11TestDetailsE.const
 4460      FF
 4461              	.LEHE156:
 4462              	.L308:
 4463              	.LEHB157:
 4464 0fdf E8000000 		call	_ZN8UnitTest11CurrentTest7DetailsEv@PLT
 4464      00
 4465 0fe4 488B30   		movq	(%rax), %rsi
 4466 0fe7 BA630000 		movl	$99, %edx
 4466      00
 4467 0fec 4889EF   		movq	%rbp, %rdi
 4468 0fef E8000000 		call	_ZN8UnitTest11TestDetailsC1ERKS0_i@PLT
 4468      00
 4469 0ff4 48C74424 		movq	$3, 24(%rsp)
 4469      18030000 
 4469      00
 4470 0ffd 4C8B6C24 		movq	16(%rsp), %r13
 4470      10
 4471 1002 E8000000 		call	_ZN8UnitTest11CurrentTest7ResultsEv@PLT
 4471      00
 4472 1007 488B38   		movq	(%rax), %rdi
 4473 100a 488D7424 		leaq	24(%rsp), %rsi
 4473      18
 4474 100f 4889E9   		movq	%rbp, %rcx
 4475 1012 4C89EA   		movq	%r13, %rdx
 4476 1015 E8000000 		call	_ZN8UnitTest10CheckEqualImjEEvRNS_11TestResultsERKT_RKT0_RKNS_11TestDetailsE
 4476      00
 4477              	.LEHE157:
 4478              	.L311:
 4479 101a 488B4424 		movq	16(%rsp), %rax
 4479      10
 4480 101f 4C89E7   		movq	%r12, %rdi
 4481 1022 C7000700 		movl	$7, (%rax)
 4481      0000
 4482              	.LEHB158:
 4483 1028 E8000000 		call	queueCommitPut@PLT
 4483      00
 4484              	.LEHE158:
 4485              	.LEHB159:
 4486 102d E8000000 		call	_ZN8UnitTest11CurrentTest7DetailsEv@PLT
 4486      00
 4487 1032 488B30   		movq	(%rax), %rsi
 4488 1035 BA680000 		movl	$104, %edx
 4488      00
 4489 103a 4889EF   		movq	%rbp, %rdi
 4490 103d E8000000 		call	_ZN8UnitTest11TestDetailsC1ERKS0_i@PLT
 4490      00
 4491 1042 48C74424 		movq	$4, 24(%rsp)
 4491      18040000 
 4491      00
 4492 104b E8000000 		call	_ZN8UnitTest11CurrentTest7ResultsEv@PLT
 4492      00
 4493 1050 488B38   		movq	(%rax), %rdi
 4494 1053 488D5424 		leaq	72(%rsp), %rdx
 4494      48
 4495 1058 488D7424 		leaq	24(%rsp), %rsi
 4495      18
 4496 105d 4889E9   		movq	%rbp, %rcx
 4497 1060 E8000000 		call	_ZN8UnitTest10CheckEqualImmEEvRNS_11TestResultsERKT_RKT0_RKNS_11TestDetailsE
 4497      00
 4498              	.LEHE159:
 4499              	.L314:
 4500              	.LEHB160:
 4501 1065 E8000000 		call	_ZN8UnitTest11CurrentTest7DetailsEv@PLT
 4501      00
 4502 106a 488B30   		movq	(%rax), %rsi
 4503 106d BA690000 		movl	$105, %edx
 4503      00
 4504 1072 4889EF   		movq	%rbp, %rdi
 4505 1075 E8000000 		call	_ZN8UnitTest11TestDetailsC1ERKS0_i@PLT
 4505      00
 4506 107a 48C74424 		movq	$3, 24(%rsp)
 4506      18030000 
 4506      00
 4507 1083 E8000000 		call	_ZN8UnitTest11CurrentTest7ResultsEv@PLT
 4507      00
 4508 1088 488B38   		movq	(%rax), %rdi
 4509 108b 488D5424 		leaq	80(%rsp), %rdx
 4509      50
 4510 1090 488D7424 		leaq	24(%rsp), %rsi
 4510      18
 4511 1095 4889E9   		movq	%rbp, %rcx
 4512 1098 E8000000 		call	_ZN8UnitTest10CheckEqualImmEEvRNS_11TestResultsERKT_RKT0_RKNS_11TestDetailsE
 4512      00
 4513              	.LEHE160:
 4514              	.L317:
 4515              	.LEHB161:
 4516 109d E8000000 		call	_ZN8UnitTest11CurrentTest7DetailsEv@PLT
 4516      00
 4517 10a2 488B30   		movq	(%rax), %rsi
 4518 10a5 BA6A0000 		movl	$106, %edx
 4518      00
 4519 10aa 4889EF   		movq	%rbp, %rdi
 4520 10ad E8000000 		call	_ZN8UnitTest11TestDetailsC1ERKS0_i@PLT
 4520      00
 4521 10b2 48C74424 		movq	$0, 24(%rsp)
 4521      18000000 
 4521      00
 4522 10bb E8000000 		call	_ZN8UnitTest11CurrentTest7ResultsEv@PLT
 4522      00
 4523 10c0 488B38   		movq	(%rax), %rdi
 4524 10c3 488D5424 		leaq	88(%rsp), %rdx
 4524      58
 4525 10c8 488D7424 		leaq	24(%rsp), %rsi
 4525      18
 4526 10cd 4889E9   		movq	%rbp, %rcx
 4527 10d0 E8000000 		call	_ZN8UnitTest10CheckEqualImmEEvRNS_11TestResultsERKT_RKT0_RKNS_11TestDetailsE
 4527      00
 4528              	.LEHE161:
 4529              	.L320:
 4530              	.LEHB162:
 4531 10d5 E8000000 		call	_ZN8UnitTest11CurrentTest7DetailsEv@PLT
 4531      00
 4532 10da 488B30   		movq	(%rax), %rsi
 4533 10dd BA6B0000 		movl	$107, %edx
 4533      00
 4534 10e2 4889EF   		movq	%rbp, %rdi
 4535 10e5 E8000000 		call	_ZN8UnitTest11TestDetailsC1ERKS0_i@PLT
 4535      00
 4536 10ea 48C74424 		movq	$3, 24(%rsp)
 4536      18030000 
 4536      00
 4537 10f3 E8000000 		call	_ZN8UnitTest11CurrentTest7ResultsEv@PLT
 4537      00
 4538 10f8 488B38   		movq	(%rax), %rdi
 4539 10fb 488D5424 		leaq	96(%rsp), %rdx
 4539      60
 4540 1100 488D7424 		leaq	24(%rsp), %rsi
 4540      18
 4541 1105 4889E9   		movq	%rbp, %rcx
 4542 1108 E8000000 		call	_ZN8UnitTest10CheckEqualImmEEvRNS_11TestResultsERKT_RKT0_RKNS_11TestDetailsE
 4542      00
 4543              	.LEHE162:
 4544              	.L323:
 4545              	.LEHB163:
 4546 110d E8000000 		call	_ZN8UnitTest11CurrentTest7DetailsEv@PLT
 4546      00
 4547 1112 488B30   		movq	(%rax), %rsi
 4548 1115 BA6E0000 		movl	$110, %edx
 4548      00
 4549 111a 4889EF   		movq	%rbp, %rdi
 4550 111d E8000000 		call	_ZN8UnitTest11TestDetailsC1ERKS0_i@PLT
 4550      00
 4551 1122 48C74424 		movq	$5, 24(%rsp)
 4551      18050000 
 4551      00
 4552 112b 488B4424 		movq	64(%rsp), %rax
 4552      40
 4553 1130 488B00   		movq	(%rax), %rax
 4554 1133 8B00     		movl	(%rax), %eax
 4555 1135 8944240C 		movl	%eax, 12(%rsp)
 4556 1139 E8000000 		call	_ZN8UnitTest11CurrentTest7ResultsEv@PLT
 4556      00
 4557 113e 488B38   		movq	(%rax), %rdi
 4558 1141 488D5424 		leaq	12(%rsp), %rdx
 4558      0C
 4559 1146 488D7424 		leaq	24(%rsp), %rsi
 4559      18
 4560 114b 4889E9   		movq	%rbp, %rcx
 4561 114e E8000000 		call	_ZN8UnitTest10CheckEqualImjEEvRNS_11TestResultsERKT_RKT0_RKNS_11TestDetailsE
 4561      00
 4562              	.LEHE163:
 4563              	.L326:
 4564              	.LEHB164:
 4565 1153 E8000000 		call	_ZN8UnitTest11CurrentTest7DetailsEv@PLT
 4565      00
 4566 1158 488B30   		movq	(%rax), %rsi
 4567 115b BA6F0000 		movl	$111, %edx
 4567      00
 4568 1160 4889EF   		movq	%rbp, %rdi
 4569 1163 E8000000 		call	_ZN8UnitTest11TestDetailsC1ERKS0_i@PLT
 4569      00
 4570 1168 48C74424 		movq	$6, 24(%rsp)
 4570      18060000 
 4570      00
 4571 1171 488B4424 		movq	64(%rsp), %rax
 4571      40
 4572 1176 488B4008 		movq	8(%rax), %rax
 4573 117a 8B00     		movl	(%rax), %eax
 4574 117c 8944240C 		movl	%eax, 12(%rsp)
 4575 1180 E8000000 		call	_ZN8UnitTest11CurrentTest7ResultsEv@PLT
 4575      00
 4576 1185 488B38   		movq	(%rax), %rdi
 4577 1188 488D5424 		leaq	12(%rsp), %rdx
 4577      0C
 4578 118d 488D7424 		leaq	24(%rsp), %rsi
 4578      18
 4579 1192 4889E9   		movq	%rbp, %rcx
 4580 1195 E8000000 		call	_ZN8UnitTest10CheckEqualImjEEvRNS_11TestResultsERKT_RKT0_RKNS_11TestDetailsE
 4580      00
 4581              	.LEHE164:
 4582              	.L329:
 4583              	.LEHB165:
 4584 119a E8000000 		call	_ZN8UnitTest11CurrentTest7DetailsEv@PLT
 4584      00
 4585 119f 488B30   		movq	(%rax), %rsi
 4586 11a2 BA700000 		movl	$112, %edx
 4586      00
 4587 11a7 4889EF   		movq	%rbp, %rdi
 4588 11aa E8000000 		call	_ZN8UnitTest11TestDetailsC1ERKS0_i@PLT
 4588      00
 4589 11af 48C74424 		movq	$7, 24(%rsp)
 4589      18070000 
 4589      00
 4590 11b8 488B4424 		movq	64(%rsp), %rax
 4590      40
 4591 11bd 488B4010 		movq	16(%rax), %rax
 4592 11c1 8B00     		movl	(%rax), %eax
 4593 11c3 8944240C 		movl	%eax, 12(%rsp)
 4594 11c7 E8000000 		call	_ZN8UnitTest11CurrentTest7ResultsEv@PLT
 4594      00
 4595 11cc 488B38   		movq	(%rax), %rdi
 4596 11cf 488D5424 		leaq	12(%rsp), %rdx
 4596      0C
 4597 11d4 488D7424 		leaq	24(%rsp), %rsi
 4597      18
 4598 11d9 4889E9   		movq	%rbp, %rcx
 4599 11dc E8000000 		call	_ZN8UnitTest10CheckEqualImjEEvRNS_11TestResultsERKT_RKT0_RKNS_11TestDetailsE
 4599      00
 4600              	.LEHE165:
 4601              	.L332:
 4602              	.LEHB166:
 4603 11e1 E8000000 		call	_ZN8UnitTest11CurrentTest7DetailsEv@PLT
 4603      00
 4604 11e6 488B30   		movq	(%rax), %rsi
 4605 11e9 BA710000 		movl	$113, %edx
 4605      00
 4606 11ee 4889EF   		movq	%rbp, %rdi
 4607 11f1 E8000000 		call	_ZN8UnitTest11TestDetailsC1ERKS0_i@PLT
 4607      00
 4608 11f6 48C74424 		movq	$4, 24(%rsp)
 4608      18040000 
 4608      00
 4609 11ff 488B4424 		movq	64(%rsp), %rax
 4609      40
 4610 1204 488B4018 		movq	24(%rax), %rax
 4611 1208 8B00     		movl	(%rax), %eax
 4612 120a 8944240C 		movl	%eax, 12(%rsp)
 4613 120e E8000000 		call	_ZN8UnitTest11CurrentTest7ResultsEv@PLT
 4613      00
 4614 1213 488B38   		movq	(%rax), %rdi
 4615 1216 488D5424 		leaq	12(%rsp), %rdx
 4615      0C
 4616 121b 488D7424 		leaq	24(%rsp), %rsi
 4616      18
 4617 1220 4889E9   		movq	%rbp, %rcx
 4618 1223 E8000000 		call	_ZN8UnitTest10CheckEqualImjEEvRNS_11TestResultsERKT_RKT0_RKNS_11TestDetailsE
 4618      00
 4619              	.LEHE166:
 4620              	.L335:
 4621 1228 4C89E7   		movq	%r12, %rdi
 4622              	.LEHB167:
 4623 122b E8000000 		call	queueDestroy@PLT
 4623      00
 4624              	.LEHE167:
 4625 1230 488B4424 		movq	120(%rsp), %rax
 4625      78
 4626 1235 64482B04 		subq	%fs:40, %rax
 4626      25280000 
 4626      00
 4627 123e 750F     		jne	.L370
 4628 1240 4881C488 		addq	$136, %rsp
 4628      000000
 4629              		.cfi_remember_state
 4630              		.cfi_def_cfa_offset 40
 4631 1247 5D       		popq	%rbp
 4632              		.cfi_def_cfa_offset 32
 4633 1248 415C     		popq	%r12
 4634              		.cfi_def_cfa_offset 24
 4635 124a 415D     		popq	%r13
 4636              		.cfi_def_cfa_offset 16
 4637 124c 415E     		popq	%r14
 4638              		.cfi_def_cfa_offset 8
 4639 124e C3       		ret
 4640              	.L370:
 4641              		.cfi_restore_state
 4642 124f E8000000 		call	__stack_chk_fail@PLT
 4642      00
 4643              	.L366:
 4644 1254 F30F1EFA 		endbr64
 4645 1258 4889C7   		movq	%rax, %rdi
 4646 125b E9000000 		jmp	.L334
 4646      00
 4647              	.L364:
 4648 1260 F30F1EFA 		endbr64
 4649 1264 4889C7   		movq	%rax, %rdi
 4650 1267 E9000000 		jmp	.L331
 4650      00
 4651              	.L362:
 4652 126c F30F1EFA 		endbr64
 4653 1270 4889C7   		movq	%rax, %rdi
 4654 1273 E9000000 		jmp	.L328
 4654      00
 4655              	.L360:
 4656 1278 F30F1EFA 		endbr64
 4657 127c 4889C7   		movq	%rax, %rdi
 4658 127f E9000000 		jmp	.L325
 4658      00
 4659              	.L358:
 4660 1284 F30F1EFA 		endbr64
 4661 1288 4889C7   		movq	%rax, %rdi
 4662 128b E9000000 		jmp	.L322
 4662      00
 4663              	.L356:
 4664 1290 F30F1EFA 		endbr64
 4665 1294 4889C7   		movq	%rax, %rdi
 4666 1297 E9000000 		jmp	.L319
 4666      00
 4667              	.L354:
 4668 129c F30F1EFA 		endbr64
 4669 12a0 4889C7   		movq	%rax, %rdi
 4670 12a3 E9000000 		jmp	.L316
 4670      00
 4671              	.L352:
 4672 12a8 F30F1EFA 		endbr64
 4673 12ac 4889C7   		movq	%rax, %rdi
 4674 12af E9000000 		jmp	.L313
 4674      00
 4675              	.L350:
 4676 12b4 F30F1EFA 		endbr64
 4677 12b8 4889C7   		movq	%rax, %rdi
 4678 12bb E9000000 		jmp	.L310
 4678      00
 4679              	.L348:
 4680 12c0 F30F1EFA 		endbr64
 4681 12c4 4889C7   		movq	%rax, %rdi
 4682 12c7 E9000000 		jmp	.L307
 4682      00
 4683              	.L346:
 4684 12cc F30F1EFA 		endbr64
 4685 12d0 4889C7   		movq	%rax, %rdi
 4686 12d3 E9000000 		jmp	.L304
 4686      00
 4687              	.L344:
 4688 12d8 F30F1EFA 		endbr64
 4689 12dc 4889C7   		movq	%rax, %rdi
 4690 12df E9000000 		jmp	.L301
 4690      00
 4691              	.L342:
 4692 12e4 F30F1EFA 		endbr64
 4693 12e8 4889C7   		movq	%rax, %rdi
 4694 12eb E9000000 		jmp	.L298
 4694      00
 4695              	.L340:
 4696 12f0 F30F1EFA 		endbr64
 4697 12f4 4889C7   		movq	%rax, %rdi
 4698 12f7 E9000000 		jmp	.L295
 4698      00
 4699              	.L338:
 4700 12fc F30F1EFA 		endbr64
 4701 1300 4889C7   		movq	%rax, %rdi
 4702 1303 E9000000 		jmp	.L292
 4702      00
 4703              		.section	.gcc_except_table
 4704              		.align 4
 4705              	.LLSDA1250:
 4706 0320 FF       		.byte	0xff
 4707 0321 9B       		.byte	0x9b
 4708 0322 8001     		.uleb128 .LLSDATT1250-.LLSDATTD1250
 4709              	.LLSDATTD1250:
 4710 0324 01       		.byte	0x1
 4711 0325 76       		.uleb128 .LLSDACSE1250-.LLSDACSB1250
 4712              	.LLSDACSB1250:
 4713 0326 47       		.uleb128 .LEHB147-.LFB1250
 4714 0327 05       		.uleb128 .LEHE147-.LEHB147
 4715 0328 00       		.uleb128 0
 4716 0329 00       		.uleb128 0
 4717 032a 50       		.uleb128 .LEHB148-.LFB1250
 4718 032b 3C       		.uleb128 .LEHE148-.LEHB148
 4719 032c 9C0A     		.uleb128 .L338-.LFB1250
 4720 032e 01       		.uleb128 0x1
 4721 032f 9701     		.uleb128 .LEHB149-.LFB1250
 4722 0331 05       		.uleb128 .LEHE149-.LEHB149
 4723 0332 00       		.uleb128 0
 4724 0333 00       		.uleb128 0
 4725 0334 A001     		.uleb128 .LEHB150-.LFB1250
 4726 0336 37       		.uleb128 .LEHE150-.LEHB150
 4727 0337 900A     		.uleb128 .L340-.LFB1250
 4728 0339 01       		.uleb128 0x1
 4729 033a D701     		.uleb128 .LEHB151-.LFB1250
 4730 033c 3B       		.uleb128 .LEHE151-.LEHB151
 4731 033d 840A     		.uleb128 .L342-.LFB1250
 4732 033f 01       		.uleb128 0x1
 4733 0340 A002     		.uleb128 .LEHB152-.LFB1250
 4734 0342 10       		.uleb128 .LEHE152-.LEHB152
 4735 0343 00       		.uleb128 0
 4736 0344 00       		.uleb128 0
 4737 0345 B402     		.uleb128 .LEHB153-.LFB1250
 4738 0347 37       		.uleb128 .LEHE153-.LEHB153
 4739 0348 F809     		.uleb128 .L344-.LFB1250
 4740 034a 01       		.uleb128 0x1
 4741 034b EB02     		.uleb128 .LEHB154-.LFB1250
 4742 034d 3B       		.uleb128 .LEHE154-.LEHB154
 4743 034e EC09     		.uleb128 .L346-.LFB1250
 4744 0350 01       		.uleb128 0x1
 4745 0351 B403     		.uleb128 .LEHB155-.LFB1250
 4746 0353 10       		.uleb128 .LEHE155-.LEHB155
 4747 0354 00       		.uleb128 0
 4748 0355 00       		.uleb128 0
 4749 0356 C803     		.uleb128 .LEHB156-.LFB1250
 4750 0358 37       		.uleb128 .LEHE156-.LEHB156
 4751 0359 E009     		.uleb128 .L348-.LFB1250
 4752 035b 01       		.uleb128 0x1
 4753 035c FF03     		.uleb128 .LEHB157-.LFB1250
 4754 035e 3B       		.uleb128 .LEHE157-.LEHB157
 4755 035f D409     		.uleb128 .L350-.LFB1250
 4756 0361 01       		.uleb128 0x1
 4757 0362 C804     		.uleb128 .LEHB158-.LFB1250
 4758 0364 05       		.uleb128 .LEHE158-.LEHB158
 4759 0365 00       		.uleb128 0
 4760 0366 00       		.uleb128 0
 4761 0367 CD04     		.uleb128 .LEHB159-.LFB1250
 4762 0369 38       		.uleb128 .LEHE159-.LEHB159
 4763 036a C809     		.uleb128 .L352-.LFB1250
 4764 036c 01       		.uleb128 0x1
 4765 036d 8505     		.uleb128 .LEHB160-.LFB1250
 4766 036f 38       		.uleb128 .LEHE160-.LEHB160
 4767 0370 BC09     		.uleb128 .L354-.LFB1250
 4768 0372 01       		.uleb128 0x1
 4769 0373 BD05     		.uleb128 .LEHB161-.LFB1250
 4770 0375 38       		.uleb128 .LEHE161-.LEHB161
 4771 0376 B009     		.uleb128 .L356-.LFB1250
 4772 0378 01       		.uleb128 0x1
 4773 0379 F505     		.uleb128 .LEHB162-.LFB1250
 4774 037b 38       		.uleb128 .LEHE162-.LEHB162
 4775 037c A409     		.uleb128 .L358-.LFB1250
 4776 037e 01       		.uleb128 0x1
 4777 037f AD06     		.uleb128 .LEHB163-.LFB1250
 4778 0381 46       		.uleb128 .LEHE163-.LEHB163
 4779 0382 9809     		.uleb128 .L360-.LFB1250
 4780 0384 01       		.uleb128 0x1
 4781 0385 F306     		.uleb128 .LEHB164-.LFB1250
 4782 0387 47       		.uleb128 .LEHE164-.LEHB164
 4783 0388 8C09     		.uleb128 .L362-.LFB1250
 4784 038a 01       		.uleb128 0x1
 4785 038b BA07     		.uleb128 .LEHB165-.LFB1250
 4786 038d 47       		.uleb128 .LEHE165-.LEHB165
 4787 038e 8009     		.uleb128 .L364-.LFB1250
 4788 0390 01       		.uleb128 0x1
 4789 0391 8108     		.uleb128 .LEHB166-.LFB1250
 4790 0393 47       		.uleb128 .LEHE166-.LEHB166
 4791 0394 F408     		.uleb128 .L366-.LFB1250
 4792 0396 01       		.uleb128 0x1
 4793 0397 CB08     		.uleb128 .LEHB167-.LFB1250
 4794 0399 05       		.uleb128 .LEHE167-.LEHB167
 4795 039a 00       		.uleb128 0
 4796 039b 00       		.uleb128 0
 4797              	.LLSDACSE1250:
 4798 039c 01       		.byte	0x1
 4799 039d 00       		.byte	0
 4800 039e 0000     		.align 4
 4801 03a0 00000000 		.long	0
 4802              	
 4803              	.LLSDATT1250:
 4804              		.text
 4805              		.cfi_endproc
 4806              		.section	.text.unlikely
 4807              		.cfi_startproc
 4808              		.cfi_personality 0x9b,DW.ref.__gxx_personality_v0
 4809              		.cfi_lsda 0x1b,.LLSDAC1250
 4811              	_ZNK23TestQueue_testPutNoWrap7RunImplEv.cold:
 4812              	.LFSB1250:
 4813              	.L334:
 4814              		.cfi_def_cfa_offset 176
 4815              		.cfi_offset 6, -40
 4816              		.cfi_offset 12, -32
 4817              		.cfi_offset 13, -24
 4818              		.cfi_offset 14, -16
 4819 077a E8000000 		call	__cxa_begin_catch@PLT
 4819      00
 4820              	.LEHB168:
 4821 077f E8000000 		call	_ZN8UnitTest11CurrentTest7ResultsEv@PLT
 4821      00
 4822 0784 4C8B28   		movq	(%rax), %r13
 4823 0787 E8000000 		call	_ZN8UnitTest11CurrentTest7DetailsEv@PLT
 4823      00
 4824 078c 488B30   		movq	(%rax), %rsi
 4825 078f BA710000 		movl	$113, %edx
 4825      00
 4826 0794 4889EF   		movq	%rbp, %rdi
 4827 0797 E8000000 		call	_ZN8UnitTest11TestDetailsC1ERKS0_i@PLT
 4827      00
 4828 079c 488D1500 		leaq	.LC19(%rip), %rdx
 4828      000000
 4829 07a3 4889EE   		movq	%rbp, %rsi
 4830 07a6 4C89EF   		movq	%r13, %rdi
 4831 07a9 E8000000 		call	_ZN8UnitTest11TestResults13OnTestFailureERKNS_11TestDetailsEPKc@PLT
 4831      00
 4832              	.LEHE168:
 4833              	.LEHB169:
 4834 07ae E8000000 		call	__cxa_end_catch@PLT
 4834      00
 4835              	.LEHE169:
 4836 07b3 E9000000 		jmp	.L335
 4836      00
 4837              	.L331:
 4838 07b8 E8000000 		call	__cxa_begin_catch@PLT
 4838      00
 4839              	.LEHB170:
 4840 07bd E8000000 		call	_ZN8UnitTest11CurrentTest7ResultsEv@PLT
 4840      00
 4841 07c2 4C8B28   		movq	(%rax), %r13
 4842 07c5 E8000000 		call	_ZN8UnitTest11CurrentTest7DetailsEv@PLT
 4842      00
 4843 07ca 488B30   		movq	(%rax), %rsi
 4844 07cd BA700000 		movl	$112, %edx
 4844      00
 4845 07d2 4889EF   		movq	%rbp, %rdi
 4846 07d5 E8000000 		call	_ZN8UnitTest11TestDetailsC1ERKS0_i@PLT
 4846      00
 4847 07da 488D1500 		leaq	.LC28(%rip), %rdx
 4847      000000
 4848 07e1 4889EE   		movq	%rbp, %rsi
 4849 07e4 4C89EF   		movq	%r13, %rdi
 4850 07e7 E8000000 		call	_ZN8UnitTest11TestResults13OnTestFailureERKNS_11TestDetailsEPKc@PLT
 4850      00
 4851              	.LEHE170:
 4852              	.LEHB171:
 4853 07ec E8000000 		call	__cxa_end_catch@PLT
 4853      00
 4854              	.LEHE171:
 4855 07f1 E9000000 		jmp	.L332
 4855      00
 4856              	.L328:
 4857 07f6 E8000000 		call	__cxa_begin_catch@PLT
 4857      00
 4858              	.LEHB172:
 4859 07fb E8000000 		call	_ZN8UnitTest11CurrentTest7ResultsEv@PLT
 4859      00
 4860 0800 4C8B28   		movq	(%rax), %r13
 4861 0803 E8000000 		call	_ZN8UnitTest11CurrentTest7DetailsEv@PLT
 4861      00
 4862 0808 488B30   		movq	(%rax), %rsi
 4863 080b BA6F0000 		movl	$111, %edx
 4863      00
 4864 0810 4889EF   		movq	%rbp, %rdi
 4865 0813 E8000000 		call	_ZN8UnitTest11TestDetailsC1ERKS0_i@PLT
 4865      00
 4866 0818 488D1500 		leaq	.LC27(%rip), %rdx
 4866      000000
 4867 081f 4889EE   		movq	%rbp, %rsi
 4868 0822 4C89EF   		movq	%r13, %rdi
 4869 0825 E8000000 		call	_ZN8UnitTest11TestResults13OnTestFailureERKNS_11TestDetailsEPKc@PLT
 4869      00
 4870              	.LEHE172:
 4871              	.LEHB173:
 4872 082a E8000000 		call	__cxa_end_catch@PLT
 4872      00
 4873              	.LEHE173:
 4874 082f E9000000 		jmp	.L329
 4874      00
 4875              	.L367:
 4876 0834 F30F1EFA 		endbr64
 4877 0838 4889C5   		movq	%rax, %rbp
 4878 083b E8000000 		call	__cxa_end_catch@PLT
 4878      00
 4879 0840 4889EF   		movq	%rbp, %rdi
 4880              	.LEHB174:
 4881 0843 E8000000 		call	_Unwind_Resume@PLT
 4881      00
 4882              	.LEHE174:
 4883              	.L365:
 4884 0848 F30F1EFA 		endbr64
 4885 084c 4889C5   		movq	%rax, %rbp
 4886 084f E8000000 		call	__cxa_end_catch@PLT
 4886      00
 4887 0854 4889EF   		movq	%rbp, %rdi
 4888              	.LEHB175:
 4889 0857 E8000000 		call	_Unwind_Resume@PLT
 4889      00
 4890              	.LEHE175:
 4891              	.L363:
 4892 085c F30F1EFA 		endbr64
 4893 0860 4889C5   		movq	%rax, %rbp
 4894 0863 E8000000 		call	__cxa_end_catch@PLT
 4894      00
 4895 0868 4889EF   		movq	%rbp, %rdi
 4896              	.LEHB176:
 4897 086b E8000000 		call	_Unwind_Resume@PLT
 4897      00
 4898              	.LEHE176:
 4899              	.L325:
 4900 0870 E8000000 		call	__cxa_begin_catch@PLT
 4900      00
 4901              	.LEHB177:
 4902 0875 E8000000 		call	_ZN8UnitTest11CurrentTest7ResultsEv@PLT
 4902      00
 4903 087a 4C8B28   		movq	(%rax), %r13
 4904 087d E8000000 		call	_ZN8UnitTest11CurrentTest7DetailsEv@PLT
 4904      00
 4905 0882 488B30   		movq	(%rax), %rsi
 4906 0885 BA6E0000 		movl	$110, %edx
 4906      00
 4907 088a 4889EF   		movq	%rbp, %rdi
 4908 088d E8000000 		call	_ZN8UnitTest11TestDetailsC1ERKS0_i@PLT
 4908      00
 4909 0892 488D1500 		leaq	.LC26(%rip), %rdx
 4909      000000
 4910 0899 4889EE   		movq	%rbp, %rsi
 4911 089c 4C89EF   		movq	%r13, %rdi
 4912 089f E8000000 		call	_ZN8UnitTest11TestResults13OnTestFailureERKNS_11TestDetailsEPKc@PLT
 4912      00
 4913              	.LEHE177:
 4914              	.LEHB178:
 4915 08a4 E8000000 		call	__cxa_end_catch@PLT
 4915      00
 4916              	.LEHE178:
 4917 08a9 E9000000 		jmp	.L326
 4917      00
 4918              	.L322:
 4919 08ae E8000000 		call	__cxa_begin_catch@PLT
 4919      00
 4920              	.LEHB179:
 4921 08b3 E8000000 		call	_ZN8UnitTest11CurrentTest7ResultsEv@PLT
 4921      00
 4922 08b8 4C8B28   		movq	(%rax), %r13
 4923 08bb E8000000 		call	_ZN8UnitTest11CurrentTest7DetailsEv@PLT
 4923      00
 4924 08c0 488B30   		movq	(%rax), %rsi
 4925 08c3 BA6B0000 		movl	$107, %edx
 4925      00
 4926 08c8 4889EF   		movq	%rbp, %rdi
 4927 08cb E8000000 		call	_ZN8UnitTest11TestDetailsC1ERKS0_i@PLT
 4927      00
 4928 08d0 488D1500 		leaq	.LC25(%rip), %rdx
 4928      000000
 4929 08d7 4889EE   		movq	%rbp, %rsi
 4930 08da 4C89EF   		movq	%r13, %rdi
 4931 08dd E8000000 		call	_ZN8UnitTest11TestResults13OnTestFailureERKNS_11TestDetailsEPKc@PLT
 4931      00
 4932              	.LEHE179:
 4933              	.LEHB180:
 4934 08e2 E8000000 		call	__cxa_end_catch@PLT
 4934      00
 4935              	.LEHE180:
 4936 08e7 E9000000 		jmp	.L323
 4936      00
 4937              	.L361:
 4938 08ec F30F1EFA 		endbr64
 4939 08f0 4889C5   		movq	%rax, %rbp
 4940 08f3 E8000000 		call	__cxa_end_catch@PLT
 4940      00
 4941 08f8 4889EF   		movq	%rbp, %rdi
 4942              	.LEHB181:
 4943 08fb E8000000 		call	_Unwind_Resume@PLT
 4943      00
 4944              	.LEHE181:
 4945              	.L359:
 4946 0900 F30F1EFA 		endbr64
 4947 0904 4889C5   		movq	%rax, %rbp
 4948 0907 E8000000 		call	__cxa_end_catch@PLT
 4948      00
 4949 090c 4889EF   		movq	%rbp, %rdi
 4950              	.LEHB182:
 4951 090f E8000000 		call	_Unwind_Resume@PLT
 4951      00
 4952              	.LEHE182:
 4953              	.L319:
 4954 0914 E8000000 		call	__cxa_begin_catch@PLT
 4954      00
 4955              	.LEHB183:
 4956 0919 E8000000 		call	_ZN8UnitTest11CurrentTest7ResultsEv@PLT
 4956      00
 4957 091e 4C8B28   		movq	(%rax), %r13
 4958 0921 E8000000 		call	_ZN8UnitTest11CurrentTest7DetailsEv@PLT
 4958      00
 4959 0926 488B30   		movq	(%rax), %rsi
 4960 0929 BA6A0000 		movl	$106, %edx
 4960      00
 4961 092e 4889EF   		movq	%rbp, %rdi
 4962 0931 E8000000 		call	_ZN8UnitTest11TestDetailsC1ERKS0_i@PLT
 4962      00
 4963 0936 488D1500 		leaq	.LC14(%rip), %rdx
 4963      000000
 4964 093d 4889EE   		movq	%rbp, %rsi
 4965 0940 4C89EF   		movq	%r13, %rdi
 4966 0943 E8000000 		call	_ZN8UnitTest11TestResults13OnTestFailureERKNS_11TestDetailsEPKc@PLT
 4966      00
 4967              	.LEHE183:
 4968              	.LEHB184:
 4969 0948 E8000000 		call	__cxa_end_catch@PLT
 4969      00
 4970              	.LEHE184:
 4971 094d E9000000 		jmp	.L320
 4971      00
 4972              	.L316:
 4973 0952 E8000000 		call	__cxa_begin_catch@PLT
 4973      00
 4974              	.LEHB185:
 4975 0957 E8000000 		call	_ZN8UnitTest11CurrentTest7ResultsEv@PLT
 4975      00
 4976 095c 4C8B28   		movq	(%rax), %r13
 4977 095f E8000000 		call	_ZN8UnitTest11CurrentTest7DetailsEv@PLT
 4977      00
 4978 0964 488B30   		movq	(%rax), %rsi
 4979 0967 BA690000 		movl	$105, %edx
 4979      00
 4980 096c 4889EF   		movq	%rbp, %rdi
 4981 096f E8000000 		call	_ZN8UnitTest11TestDetailsC1ERKS0_i@PLT
 4981      00
 4982 0974 488D1500 		leaq	.LC24(%rip), %rdx
 4982      000000
 4983 097b 4889EE   		movq	%rbp, %rsi
 4984 097e 4C89EF   		movq	%r13, %rdi
 4985 0981 E8000000 		call	_ZN8UnitTest11TestResults13OnTestFailureERKNS_11TestDetailsEPKc@PLT
 4985      00
 4986              	.LEHE185:
 4987              	.LEHB186:
 4988 0986 E8000000 		call	__cxa_end_catch@PLT
 4988      00
 4989              	.LEHE186:
 4990 098b E9000000 		jmp	.L317
 4990      00
 4991              	.L357:
 4992 0990 F30F1EFA 		endbr64
 4993 0994 4889C5   		movq	%rax, %rbp
 4994 0997 E8000000 		call	__cxa_end_catch@PLT
 4994      00
 4995 099c 4889EF   		movq	%rbp, %rdi
 4996              	.LEHB187:
 4997 099f E8000000 		call	_Unwind_Resume@PLT
 4997      00
 4998              	.LEHE187:
 4999              	.L355:
 5000 09a4 F30F1EFA 		endbr64
 5001 09a8 4889C5   		movq	%rax, %rbp
 5002 09ab E8000000 		call	__cxa_end_catch@PLT
 5002      00
 5003 09b0 4889EF   		movq	%rbp, %rdi
 5004              	.LEHB188:
 5005 09b3 E8000000 		call	_Unwind_Resume@PLT
 5005      00
 5006              	.LEHE188:
 5007              	.L313:
 5008 09b8 E8000000 		call	__cxa_begin_catch@PLT
 5008      00
 5009              	.LEHB189:
 5010 09bd E8000000 		call	_ZN8UnitTest11CurrentTest7ResultsEv@PLT
 5010      00
 5011 09c2 4C8B28   		movq	(%rax), %r13
 5012 09c5 E8000000 		call	_ZN8UnitTest11CurrentTest7DetailsEv@PLT
 5012      00
 5013 09ca 488B30   		movq	(%rax), %rsi
 5014 09cd BA680000 		movl	$104, %edx
 5014      00
 5015 09d2 4889EF   		movq	%rbp, %rdi
 5016 09d5 E8000000 		call	_ZN8UnitTest11TestDetailsC1ERKS0_i@PLT
 5016      00
 5017 09da 488D1500 		leaq	.LC12(%rip), %rdx
 5017      000000
 5018 09e1 4889EE   		movq	%rbp, %rsi
 5019 09e4 4C89EF   		movq	%r13, %rdi
 5020 09e7 E8000000 		call	_ZN8UnitTest11TestResults13OnTestFailureERKNS_11TestDetailsEPKc@PLT
 5020      00
 5021              	.LEHE189:
 5022              	.LEHB190:
 5023 09ec E8000000 		call	__cxa_end_catch@PLT
 5023      00
 5024              	.LEHE190:
 5025 09f1 E9000000 		jmp	.L314
 5025      00
 5026              	.L310:
 5027 09f6 E8000000 		call	__cxa_begin_catch@PLT
 5027      00
 5028              	.LEHB191:
 5029 09fb E8000000 		call	_ZN8UnitTest11CurrentTest7ResultsEv@PLT
 5029      00
 5030 0a00 4C8B28   		movq	(%rax), %r13
 5031 0a03 E8000000 		call	_ZN8UnitTest11CurrentTest7DetailsEv@PLT
 5031      00
 5032 0a08 488B30   		movq	(%rax), %rsi
 5033 0a0b BA630000 		movl	$99, %edx
 5033      00
 5034 0a10 4889EF   		movq	%rbp, %rdi
 5035 0a13 E8000000 		call	_ZN8UnitTest11TestDetailsC1ERKS0_i@PLT
 5035      00
 5036 0a18 488D1500 		leaq	.LC23(%rip), %rdx
 5036      000000
 5037 0a1f 4889EE   		movq	%rbp, %rsi
 5038 0a22 4C89EF   		movq	%r13, %rdi
 5039 0a25 E8000000 		call	_ZN8UnitTest11TestResults13OnTestFailureERKNS_11TestDetailsEPKc@PLT
 5039      00
 5040              	.LEHE191:
 5041              	.LEHB192:
 5042 0a2a E8000000 		call	__cxa_end_catch@PLT
 5042      00
 5043              	.LEHE192:
 5044 0a2f E9000000 		jmp	.L311
 5044      00
 5045              	.L353:
 5046 0a34 F30F1EFA 		endbr64
 5047 0a38 4889C5   		movq	%rax, %rbp
 5048 0a3b E8000000 		call	__cxa_end_catch@PLT
 5048      00
 5049 0a40 4889EF   		movq	%rbp, %rdi
 5050              	.LEHB193:
 5051 0a43 E8000000 		call	_Unwind_Resume@PLT
 5051      00
 5052              	.LEHE193:
 5053              	.L351:
 5054 0a48 F30F1EFA 		endbr64
 5055 0a4c 4889C5   		movq	%rax, %rbp
 5056 0a4f E8000000 		call	__cxa_end_catch@PLT
 5056      00
 5057 0a54 4889EF   		movq	%rbp, %rdi
 5058              	.LEHB194:
 5059 0a57 E8000000 		call	_Unwind_Resume@PLT
 5059      00
 5060              	.LEHE194:
 5061              	.L307:
 5062 0a5c E8000000 		call	__cxa_begin_catch@PLT
 5062      00
 5063              	.LEHB195:
 5064 0a61 E8000000 		call	_ZN8UnitTest11CurrentTest7ResultsEv@PLT
 5064      00
 5065 0a66 4C8B28   		movq	(%rax), %r13
 5066 0a69 E8000000 		call	_ZN8UnitTest11CurrentTest7DetailsEv@PLT
 5066      00
 5067 0a6e 488B30   		movq	(%rax), %rsi
 5068 0a71 BA620000 		movl	$98, %edx
 5068      00
 5069 0a76 4889EF   		movq	%rbp, %rdi
 5070 0a79 E8000000 		call	_ZN8UnitTest11TestDetailsC1ERKS0_i@PLT
 5070      00
 5071 0a7e 488D1500 		leaq	.LC10(%rip), %rdx
 5071      000000
 5072 0a85 4889EE   		movq	%rbp, %rsi
 5073 0a88 4C89EF   		movq	%r13, %rdi
 5074 0a8b E8000000 		call	_ZN8UnitTest11TestResults13OnTestFailureERKNS_11TestDetailsEPKc@PLT
 5074      00
 5075              	.LEHE195:
 5076              	.LEHB196:
 5077 0a90 E8000000 		call	__cxa_end_catch@PLT
 5077      00
 5078              	.LEHE196:
 5079 0a95 E9000000 		jmp	.L308
 5079      00
 5080              	.L304:
 5081 0a9a E8000000 		call	__cxa_begin_catch@PLT
 5081      00
 5082              	.LEHB197:
 5083 0a9f E8000000 		call	_ZN8UnitTest11CurrentTest7ResultsEv@PLT
 5083      00
 5084 0aa4 4C8B30   		movq	(%rax), %r14
 5085 0aa7 E8000000 		call	_ZN8UnitTest11CurrentTest7DetailsEv@PLT
 5085      00
 5086 0aac 488B30   		movq	(%rax), %rsi
 5087 0aaf BA5E0000 		movl	$94, %edx
 5087      00
 5088 0ab4 4889EF   		movq	%rbp, %rdi
 5089 0ab7 E8000000 		call	_ZN8UnitTest11TestDetailsC1ERKS0_i@PLT
 5089      00
 5090 0abc 488D1500 		leaq	.LC22(%rip), %rdx
 5090      000000
 5091 0ac3 4889EE   		movq	%rbp, %rsi
 5092 0ac6 4C89F7   		movq	%r14, %rdi
 5093 0ac9 E8000000 		call	_ZN8UnitTest11TestResults13OnTestFailureERKNS_11TestDetailsEPKc@PLT
 5093      00
 5094              	.LEHE197:
 5095              	.LEHB198:
 5096 0ace E8000000 		call	__cxa_end_catch@PLT
 5096      00
 5097              	.LEHE198:
 5098 0ad3 E9000000 		jmp	.L305
 5098      00
 5099              	.L349:
 5100 0ad8 F30F1EFA 		endbr64
 5101 0adc 4889C5   		movq	%rax, %rbp
 5102 0adf E8000000 		call	__cxa_end_catch@PLT
 5102      00
 5103 0ae4 4889EF   		movq	%rbp, %rdi
 5104              	.LEHB199:
 5105 0ae7 E8000000 		call	_Unwind_Resume@PLT
 5105      00
 5106              	.LEHE199:
 5107              	.L347:
 5108 0aec F30F1EFA 		endbr64
 5109 0af0 4889C5   		movq	%rax, %rbp
 5110 0af3 E8000000 		call	__cxa_end_catch@PLT
 5110      00
 5111 0af8 4889EF   		movq	%rbp, %rdi
 5112              	.LEHB200:
 5113 0afb E8000000 		call	_Unwind_Resume@PLT
 5113      00
 5114              	.LEHE200:
 5115              	.L301:
 5116 0b00 E8000000 		call	__cxa_begin_catch@PLT
 5116      00
 5117              	.LEHB201:
 5118 0b05 E8000000 		call	_ZN8UnitTest11CurrentTest7ResultsEv@PLT
 5118      00
 5119 0b0a 4C8B30   		movq	(%rax), %r14
 5120 0b0d E8000000 		call	_ZN8UnitTest11CurrentTest7DetailsEv@PLT
 5120      00
 5121 0b12 488B30   		movq	(%rax), %rsi
 5122 0b15 BA5D0000 		movl	$93, %edx
 5122      00
 5123 0b1a 4889EF   		movq	%rbp, %rdi
 5124 0b1d E8000000 		call	_ZN8UnitTest11TestDetailsC1ERKS0_i@PLT
 5124      00
 5125 0b22 488D1500 		leaq	.LC10(%rip), %rdx
 5125      000000
 5126 0b29 4889EE   		movq	%rbp, %rsi
 5127 0b2c 4C89F7   		movq	%r14, %rdi
 5128 0b2f E8000000 		call	_ZN8UnitTest11TestResults13OnTestFailureERKNS_11TestDetailsEPKc@PLT
 5128      00
 5129              	.LEHE201:
 5130              	.LEHB202:
 5131 0b34 E8000000 		call	__cxa_end_catch@PLT
 5131      00
 5132              	.LEHE202:
 5133 0b39 E9000000 		jmp	.L302
 5133      00
 5134              	.L298:
 5135 0b3e E8000000 		call	__cxa_begin_catch@PLT
 5135      00
 5136              	.LEHB203:
 5137 0b43 E8000000 		call	_ZN8UnitTest11CurrentTest7ResultsEv@PLT
 5137      00
 5138 0b48 4C8B30   		movq	(%rax), %r14
 5139 0b4b E8000000 		call	_ZN8UnitTest11CurrentTest7DetailsEv@PLT
 5139      00
 5140 0b50 488B30   		movq	(%rax), %rsi
 5141 0b53 BA590000 		movl	$89, %edx
 5141      00
 5142 0b58 4889EF   		movq	%rbp, %rdi
 5143 0b5b E8000000 		call	_ZN8UnitTest11TestDetailsC1ERKS0_i@PLT
 5143      00
 5144 0b60 488D1500 		leaq	.LC21(%rip), %rdx
 5144      000000
 5145 0b67 4889EE   		movq	%rbp, %rsi
 5146 0b6a 4C89F7   		movq	%r14, %rdi
 5147 0b6d E8000000 		call	_ZN8UnitTest11TestResults13OnTestFailureERKNS_11TestDetailsEPKc@PLT
 5147      00
 5148              	.LEHE203:
 5149              	.LEHB204:
 5150 0b72 E8000000 		call	__cxa_end_catch@PLT
 5150      00
 5151              	.LEHE204:
 5152 0b77 E9000000 		jmp	.L299
 5152      00
 5153              	.L345:
 5154 0b7c F30F1EFA 		endbr64
 5155 0b80 4889C5   		movq	%rax, %rbp
 5156 0b83 E8000000 		call	__cxa_end_catch@PLT
 5156      00
 5157 0b88 4889EF   		movq	%rbp, %rdi
 5158              	.LEHB205:
 5159 0b8b E8000000 		call	_Unwind_Resume@PLT
 5159      00
 5160              	.LEHE205:
 5161              	.L343:
 5162 0b90 F30F1EFA 		endbr64
 5163 0b94 4889C5   		movq	%rax, %rbp
 5164 0b97 E8000000 		call	__cxa_end_catch@PLT
 5164      00
 5165 0b9c 4889EF   		movq	%rbp, %rdi
 5166              	.LEHB206:
 5167 0b9f E8000000 		call	_Unwind_Resume@PLT
 5167      00
 5168              	.LEHE206:
 5169              	.L295:
 5170 0ba4 E8000000 		call	__cxa_begin_catch@PLT
 5170      00
 5171              	.LEHB207:
 5172 0ba9 E8000000 		call	_ZN8UnitTest11CurrentTest7ResultsEv@PLT
 5172      00
 5173 0bae 4C8B30   		movq	(%rax), %r14
 5174 0bb1 E8000000 		call	_ZN8UnitTest11CurrentTest7DetailsEv@PLT
 5174      00
 5175 0bb6 488B30   		movq	(%rax), %rsi
 5176 0bb9 BA580000 		movl	$88, %edx
 5176      00
 5177 0bbe 4889EF   		movq	%rbp, %rdi
 5178 0bc1 E8000000 		call	_ZN8UnitTest11TestDetailsC1ERKS0_i@PLT
 5178      00
 5179 0bc6 488D1500 		leaq	.LC10(%rip), %rdx
 5179      000000
 5180 0bcd 4889EE   		movq	%rbp, %rsi
 5181 0bd0 4C89F7   		movq	%r14, %rdi
 5182 0bd3 E8000000 		call	_ZN8UnitTest11TestResults13OnTestFailureERKNS_11TestDetailsEPKc@PLT
 5182      00
 5183              	.LEHE207:
 5184              	.LEHB208:
 5185 0bd8 E8000000 		call	__cxa_end_catch@PLT
 5185      00
 5186              	.LEHE208:
 5187 0bdd E9000000 		jmp	.L296
 5187      00
 5188              	.L292:
 5189 0be2 E8000000 		call	__cxa_begin_catch@PLT
 5189      00
 5190              	.LEHB209:
 5191 0be7 E8000000 		call	_ZN8UnitTest11CurrentTest7ResultsEv@PLT
 5191      00
 5192 0bec 4C8B28   		movq	(%rax), %r13
 5193 0bef E8000000 		call	_ZN8UnitTest11CurrentTest7DetailsEv@PLT
 5193      00
 5194 0bf4 488D6C24 		leaq	32(%rsp), %rbp
 5194      20
 5195 0bf9 488B30   		movq	(%rax), %rsi
 5196 0bfc BA540000 		movl	$84, %edx
 5196      00
 5197 0c01 4889EF   		movq	%rbp, %rdi
 5198 0c04 E8000000 		call	_ZN8UnitTest11TestDetailsC1ERKS0_i@PLT
 5198      00
 5199 0c09 488D1500 		leaq	.LC10(%rip), %rdx
 5199      000000
 5200 0c10 4889EE   		movq	%rbp, %rsi
 5201 0c13 4C89EF   		movq	%r13, %rdi
 5202 0c16 E8000000 		call	_ZN8UnitTest11TestResults13OnTestFailureERKNS_11TestDetailsEPKc@PLT
 5202      00
 5203              	.LEHE209:
 5204              	.LEHB210:
 5205 0c1b E8000000 		call	__cxa_end_catch@PLT
 5205      00
 5206              	.LEHE210:
 5207 0c20 E9000000 		jmp	.L293
 5207      00
 5208              	.L341:
 5209 0c25 F30F1EFA 		endbr64
 5210 0c29 4889C5   		movq	%rax, %rbp
 5211 0c2c E8000000 		call	__cxa_end_catch@PLT
 5211      00
 5212 0c31 4889EF   		movq	%rbp, %rdi
 5213              	.LEHB211:
 5214 0c34 E8000000 		call	_Unwind_Resume@PLT
 5214      00
 5215              	.LEHE211:
 5216              	.L339:
 5217 0c39 F30F1EFA 		endbr64
 5218 0c3d 4889C5   		movq	%rax, %rbp
 5219 0c40 E8000000 		call	__cxa_end_catch@PLT
 5219      00
 5220 0c45 4889EF   		movq	%rbp, %rdi
 5221              	.LEHB212:
 5222 0c48 E8000000 		call	_Unwind_Resume@PLT
 5222      00
 5223              	.LEHE212:
 5224              		.cfi_endproc
 5225              	.LFE1250:
 5226              		.section	.gcc_except_table
 5227              		.align 4
 5228              	.LLSDAC1250:
 5229 03a4 FF       		.byte	0xff
 5230 03a5 9B       		.byte	0x9b
 5231 03a6 F801     		.uleb128 .LLSDATTC1250-.LLSDATTDC1250
 5232              	.LLSDATTDC1250:
 5233 03a8 01       		.byte	0x1
 5234 03a9 EC01     		.uleb128 .LLSDACSEC1250-.LLSDACSBC1250
 5235              	.LLSDACSBC1250:
 5236 03ab 05       		.uleb128 .LEHB168-.LCOLDB29
 5237 03ac 2F       		.uleb128 .LEHE168-.LEHB168
 5238 03ad BA01     		.uleb128 .L367-.LCOLDB29
 5239 03af 00       		.uleb128 0
 5240 03b0 34       		.uleb128 .LEHB169-.LCOLDB29
 5241 03b1 05       		.uleb128 .LEHE169-.LEHB169
 5242 03b2 00       		.uleb128 0
 5243 03b3 00       		.uleb128 0
 5244 03b4 43       		.uleb128 .LEHB170-.LCOLDB29
 5245 03b5 2F       		.uleb128 .LEHE170-.LEHB170
 5246 03b6 CE01     		.uleb128 .L365-.LCOLDB29
 5247 03b8 00       		.uleb128 0
 5248 03b9 72       		.uleb128 .LEHB171-.LCOLDB29
 5249 03ba 05       		.uleb128 .LEHE171-.LEHB171
 5250 03bb 00       		.uleb128 0
 5251 03bc 00       		.uleb128 0
 5252 03bd 8101     		.uleb128 .LEHB172-.LCOLDB29
 5253 03bf 2F       		.uleb128 .LEHE172-.LEHB172
 5254 03c0 E201     		.uleb128 .L363-.LCOLDB29
 5255 03c2 00       		.uleb128 0
 5256 03c3 B001     		.uleb128 .LEHB173-.LCOLDB29
 5257 03c5 05       		.uleb128 .LEHE173-.LEHB173
 5258 03c6 00       		.uleb128 0
 5259 03c7 00       		.uleb128 0
 5260 03c8 C901     		.uleb128 .LEHB174-.LCOLDB29
 5261 03ca 05       		.uleb128 .LEHE174-.LEHB174
 5262 03cb 00       		.uleb128 0
 5263 03cc 00       		.uleb128 0
 5264 03cd DD01     		.uleb128 .LEHB175-.LCOLDB29
 5265 03cf 05       		.uleb128 .LEHE175-.LEHB175
 5266 03d0 00       		.uleb128 0
 5267 03d1 00       		.uleb128 0
 5268 03d2 F101     		.uleb128 .LEHB176-.LCOLDB29
 5269 03d4 05       		.uleb128 .LEHE176-.LEHB176
 5270 03d5 00       		.uleb128 0
 5271 03d6 00       		.uleb128 0
 5272 03d7 FB01     		.uleb128 .LEHB177-.LCOLDB29
 5273 03d9 2F       		.uleb128 .LEHE177-.LEHB177
 5274 03da F202     		.uleb128 .L361-.LCOLDB29
 5275 03dc 00       		.uleb128 0
 5276 03dd AA02     		.uleb128 .LEHB178-.LCOLDB29
 5277 03df 05       		.uleb128 .LEHE178-.LEHB178
 5278 03e0 00       		.uleb128 0
 5279 03e1 00       		.uleb128 0
 5280 03e2 B902     		.uleb128 .LEHB179-.LCOLDB29
 5281 03e4 2F       		.uleb128 .LEHE179-.LEHB179
 5282 03e5 8603     		.uleb128 .L359-.LCOLDB29
 5283 03e7 00       		.uleb128 0
 5284 03e8 E802     		.uleb128 .LEHB180-.LCOLDB29
 5285 03ea 05       		.uleb128 .LEHE180-.LEHB180
 5286 03eb 00       		.uleb128 0
 5287 03ec 00       		.uleb128 0
 5288 03ed 8103     		.uleb128 .LEHB181-.LCOLDB29
 5289 03ef 05       		.uleb128 .LEHE181-.LEHB181
 5290 03f0 00       		.uleb128 0
 5291 03f1 00       		.uleb128 0
 5292 03f2 9503     		.uleb128 .LEHB182-.LCOLDB29
 5293 03f4 05       		.uleb128 .LEHE182-.LEHB182
 5294 03f5 00       		.uleb128 0
 5295 03f6 00       		.uleb128 0
 5296 03f7 9F03     		.uleb128 .LEHB183-.LCOLDB29
 5297 03f9 2F       		.uleb128 .LEHE183-.LEHB183
 5298 03fa 9604     		.uleb128 .L357-.LCOLDB29
 5299 03fc 00       		.uleb128 0
 5300 03fd CE03     		.uleb128 .LEHB184-.LCOLDB29
 5301 03ff 05       		.uleb128 .LEHE184-.LEHB184
 5302 0400 00       		.uleb128 0
 5303 0401 00       		.uleb128 0
 5304 0402 DD03     		.uleb128 .LEHB185-.LCOLDB29
 5305 0404 2F       		.uleb128 .LEHE185-.LEHB185
 5306 0405 AA04     		.uleb128 .L355-.LCOLDB29
 5307 0407 00       		.uleb128 0
 5308 0408 8C04     		.uleb128 .LEHB186-.LCOLDB29
 5309 040a 05       		.uleb128 .LEHE186-.LEHB186
 5310 040b 00       		.uleb128 0
 5311 040c 00       		.uleb128 0
 5312 040d A504     		.uleb128 .LEHB187-.LCOLDB29
 5313 040f 05       		.uleb128 .LEHE187-.LEHB187
 5314 0410 00       		.uleb128 0
 5315 0411 00       		.uleb128 0
 5316 0412 B904     		.uleb128 .LEHB188-.LCOLDB29
 5317 0414 05       		.uleb128 .LEHE188-.LEHB188
 5318 0415 00       		.uleb128 0
 5319 0416 00       		.uleb128 0
 5320 0417 C304     		.uleb128 .LEHB189-.LCOLDB29
 5321 0419 2F       		.uleb128 .LEHE189-.LEHB189
 5322 041a BA05     		.uleb128 .L353-.LCOLDB29
 5323 041c 00       		.uleb128 0
 5324 041d F204     		.uleb128 .LEHB190-.LCOLDB29
 5325 041f 05       		.uleb128 .LEHE190-.LEHB190
 5326 0420 00       		.uleb128 0
 5327 0421 00       		.uleb128 0
 5328 0422 8105     		.uleb128 .LEHB191-.LCOLDB29
 5329 0424 2F       		.uleb128 .LEHE191-.LEHB191
 5330 0425 CE05     		.uleb128 .L351-.LCOLDB29
 5331 0427 00       		.uleb128 0
 5332 0428 B005     		.uleb128 .LEHB192-.LCOLDB29
 5333 042a 05       		.uleb128 .LEHE192-.LEHB192
 5334 042b 00       		.uleb128 0
 5335 042c 00       		.uleb128 0
 5336 042d C905     		.uleb128 .LEHB193-.LCOLDB29
 5337 042f 05       		.uleb128 .LEHE193-.LEHB193
 5338 0430 00       		.uleb128 0
 5339 0431 00       		.uleb128 0
 5340 0432 DD05     		.uleb128 .LEHB194-.LCOLDB29
 5341 0434 05       		.uleb128 .LEHE194-.LEHB194
 5342 0435 00       		.uleb128 0
 5343 0436 00       		.uleb128 0
 5344 0437 E705     		.uleb128 .LEHB195-.LCOLDB29
 5345 0439 2F       		.uleb128 .LEHE195-.LEHB195
 5346 043a DE06     		.uleb128 .L349-.LCOLDB29
 5347 043c 00       		.uleb128 0
 5348 043d 9606     		.uleb128 .LEHB196-.LCOLDB29
 5349 043f 05       		.uleb128 .LEHE196-.LEHB196
 5350 0440 00       		.uleb128 0
 5351 0441 00       		.uleb128 0
 5352 0442 A506     		.uleb128 .LEHB197-.LCOLDB29
 5353 0444 2F       		.uleb128 .LEHE197-.LEHB197
 5354 0445 F206     		.uleb128 .L347-.LCOLDB29
 5355 0447 00       		.uleb128 0
 5356 0448 D406     		.uleb128 .LEHB198-.LCOLDB29
 5357 044a 05       		.uleb128 .LEHE198-.LEHB198
 5358 044b 00       		.uleb128 0
 5359 044c 00       		.uleb128 0
 5360 044d ED06     		.uleb128 .LEHB199-.LCOLDB29
 5361 044f 05       		.uleb128 .LEHE199-.LEHB199
 5362 0450 00       		.uleb128 0
 5363 0451 00       		.uleb128 0
 5364 0452 8107     		.uleb128 .LEHB200-.LCOLDB29
 5365 0454 05       		.uleb128 .LEHE200-.LEHB200
 5366 0455 00       		.uleb128 0
 5367 0456 00       		.uleb128 0
 5368 0457 8B07     		.uleb128 .LEHB201-.LCOLDB29
 5369 0459 2F       		.uleb128 .LEHE201-.LEHB201
 5370 045a 8208     		.uleb128 .L345-.LCOLDB29
 5371 045c 00       		.uleb128 0
 5372 045d BA07     		.uleb128 .LEHB202-.LCOLDB29
 5373 045f 05       		.uleb128 .LEHE202-.LEHB202
 5374 0460 00       		.uleb128 0
 5375 0461 00       		.uleb128 0
 5376 0462 C907     		.uleb128 .LEHB203-.LCOLDB29
 5377 0464 2F       		.uleb128 .LEHE203-.LEHB203
 5378 0465 9608     		.uleb128 .L343-.LCOLDB29
 5379 0467 00       		.uleb128 0
 5380 0468 F807     		.uleb128 .LEHB204-.LCOLDB29
 5381 046a 05       		.uleb128 .LEHE204-.LEHB204
 5382 046b 00       		.uleb128 0
 5383 046c 00       		.uleb128 0
 5384 046d 9108     		.uleb128 .LEHB205-.LCOLDB29
 5385 046f 05       		.uleb128 .LEHE205-.LEHB205
 5386 0470 00       		.uleb128 0
 5387 0471 00       		.uleb128 0
 5388 0472 A508     		.uleb128 .LEHB206-.LCOLDB29
 5389 0474 05       		.uleb128 .LEHE206-.LEHB206
 5390 0475 00       		.uleb128 0
 5391 0476 00       		.uleb128 0
 5392 0477 AF08     		.uleb128 .LEHB207-.LCOLDB29
 5393 0479 2F       		.uleb128 .LEHE207-.LEHB207
 5394 047a AB09     		.uleb128 .L341-.LCOLDB29
 5395 047c 00       		.uleb128 0
 5396 047d DE08     		.uleb128 .LEHB208-.LCOLDB29
 5397 047f 05       		.uleb128 .LEHE208-.LEHB208
 5398 0480 00       		.uleb128 0
 5399 0481 00       		.uleb128 0
 5400 0482 ED08     		.uleb128 .LEHB209-.LCOLDB29
 5401 0484 34       		.uleb128 .LEHE209-.LEHB209
 5402 0485 BF09     		.uleb128 .L339-.LCOLDB29
 5403 0487 00       		.uleb128 0
 5404 0488 A109     		.uleb128 .LEHB210-.LCOLDB29
 5405 048a 05       		.uleb128 .LEHE210-.LEHB210
 5406 048b 00       		.uleb128 0
 5407 048c 00       		.uleb128 0
 5408 048d BA09     		.uleb128 .LEHB211-.LCOLDB29
 5409 048f 05       		.uleb128 .LEHE211-.LEHB211
 5410 0490 00       		.uleb128 0
 5411 0491 00       		.uleb128 0
 5412 0492 CE09     		.uleb128 .LEHB212-.LCOLDB29
 5413 0494 05       		.uleb128 .LEHE212-.LEHB212
 5414 0495 00       		.uleb128 0
 5415 0496 00       		.uleb128 0
 5416              	.LLSDACSEC1250:
 5417 0497 01       		.byte	0x1
 5418 0498 00       		.byte	0
 5419 0499 000000   		.align 4
 5420 049c 00000000 		.long	0
 5421              	
 5422              	.LLSDATTC1250:
 5423              		.section	.text.unlikely
 5424              		.text
 5426              		.section	.text.unlikely
 5428              	.LCOLDE29:
 5429              		.text
 5430              	.LHOTE29:
 5431              		.section	.rodata.str1.8
 5432 048b 00000000 		.align 8
 5432      00
 5433              	.LC30:
 5434 0490 556E6861 		.string	"Unhandled exception in CHECK_EQUAL(4UL, *item)"
 5434      6E646C65 
 5434      64206578 
 5434      63657074 
 5434      696F6E20 
 5435 04bf 00       		.align 8
 5436              	.LC31:
 5437 04c0 556E6861 		.string	"Unhandled exception in CHECK_EQUAL(4UL, queue.numItems)"
 5437      6E646C65 
 5437      64206578 
 5437      63657074 
 5437      696F6E20 
 5438              		.align 8
 5439              	.LC32:
 5440 04f8 556E6861 		.string	"Unhandled exception in CHECK_EQUAL(8UL, deref(queue.itemArray[3]))"
 5440      6E646C65 
 5440      64206578 
 5440      63657074 
 5440      696F6E20 
 5441              		.section	.text.unlikely
 5442 0c4d 90       		.align 2
 5443              	.LCOLDB33:
 5444              		.text
 5445              	.LHOTB33:
 5446              		.align 2
 5447 1308 0F1F8400 		.p2align 4
 5447      00000000 
 5448              		.globl	_ZNK21TestQueue_testPutWrap7RunImplEv
 5450              	_ZNK21TestQueue_testPutWrap7RunImplEv:
 5451              	.LFB1254:
 5452              		.cfi_startproc
 5453              		.cfi_personality 0x9b,DW.ref.__gxx_personality_v0
 5454              		.cfi_lsda 0x1b,.LLSDA1254
 5455 1310 F30F1EFA 		endbr64
 5456 1314 4156     		pushq	%r14
 5457              		.cfi_def_cfa_offset 16
 5458              		.cfi_offset 14, -16
 5459 1316 488D0D00 		leaq	destroyInt(%rip), %rcx
 5459      000000
 5460 131d BE040000 		movl	$4, %esi
 5460      00
 5461 1322 488D1500 		leaq	createInt(%rip), %rdx
 5461      000000
 5462 1329 4155     		pushq	%r13
 5463              		.cfi_def_cfa_offset 24
 5464              		.cfi_offset 13, -24
 5465 132b 4154     		pushq	%r12
 5466              		.cfi_def_cfa_offset 32
 5467              		.cfi_offset 12, -32
 5468 132d 55       		pushq	%rbp
 5469              		.cfi_def_cfa_offset 40
 5470              		.cfi_offset 6, -40
 5471 132e 4881EC88 		subq	$136, %rsp
 5471      000000
 5472              		.cfi_def_cfa_offset 176
 5473 1335 64488B04 		movq	%fs:40, %rax
 5473      25280000 
 5473      00
 5474 133e 48894424 		movq	%rax, 120(%rsp)
 5474      78
 5475 1343 31C0     		xorl	%eax, %eax
 5476 1345 4C8D6424 		leaq	64(%rsp), %r12
 5476      40
 5477 134a C7050000 		movl	$1, _ZL7m_count(%rip)
 5477      00000100 
 5477      0000
 5478 1354 4C89E7   		movq	%r12, %rdi
 5479              	.LEHB213:
 5480 1357 E8000000 		call	queueInit@PLT
 5480      00
 5481              	.LEHE213:
 5482 135c 89442408 		movl	%eax, 8(%rsp)
 5483              	.LEHB214:
 5484 1360 E8000000 		call	_ZN8UnitTest11CurrentTest7DetailsEv@PLT
 5484      00
 5485 1365 488D6C24 		leaq	32(%rsp), %rbp
 5485      20
 5486 136a 488B30   		movq	(%rax), %rsi
 5487 136d BA7E0000 		movl	$126, %edx
 5487      00
 5488 1372 4889EF   		movq	%rbp, %rdi
 5489 1375 E8000000 		call	_ZN8UnitTest11TestDetailsC1ERKS0_i@PLT
 5489      00
 5490 137a C7442418 		movl	$0, 24(%rsp)
 5490      00000000 
 5491 1382 E8000000 		call	_ZN8UnitTest11CurrentTest7ResultsEv@PLT
 5491      00
 5492 1387 488B38   		movq	(%rax), %rdi
 5493 138a 488D5424 		leaq	8(%rsp), %rdx
 5493      08
 5494 138f 488D7424 		leaq	24(%rsp), %rsi
 5494      18
 5495 1394 4889E9   		movq	%rbp, %rcx
 5496 1397 E8C4EFFF 		call	_ZN8UnitTest10CheckEqualI9USBStatusS1_EEvRNS_11TestResultsERKT_RKT0_RKNS_11TestDetailsE.const
 5496      FF
 5497              	.LEHE214:
 5498              	.L373:
 5499 139c 4C8D6C24 		leaq	16(%rsp), %r13
 5499      10
 5500 13a1 4C89E7   		movq	%r12, %rdi
 5501 13a4 4C89EE   		movq	%r13, %rsi
 5502              	.LEHB215:
 5503 13a7 E8000000 		call	queuePut@PLT
 5503      00
 5504              	.LEHE215:
 5505 13ac 89442408 		movl	%eax, 8(%rsp)
 5506              	.LEHB216:
 5507 13b0 E8000000 		call	_ZN8UnitTest11CurrentTest7DetailsEv@PLT
 5507      00
 5508 13b5 488B30   		movq	(%rax), %rsi
 5509 13b8 BA820000 		movl	$130, %edx
 5509      00
 5510 13bd 4889EF   		movq	%rbp, %rdi
 5511 13c0 E8000000 		call	_ZN8UnitTest11TestDetailsC1ERKS0_i@PLT
 5511      00
 5512 13c5 C7442418 		movl	$0, 24(%rsp)
 5512      00000000 
 5513 13cd E8000000 		call	_ZN8UnitTest11CurrentTest7ResultsEv@PLT
 5513      00
 5514 13d2 488B38   		movq	(%rax), %rdi
 5515 13d5 488D5424 		leaq	8(%rsp), %rdx
 5515      08
 5516 13da 488D7424 		leaq	24(%rsp), %rsi
 5516      18
 5517 13df 4889E9   		movq	%rbp, %rcx
 5518 13e2 E879EFFF 		call	_ZN8UnitTest10CheckEqualI9USBStatusS1_EEvRNS_11TestResultsERKT_RKT0_RKNS_11TestDetailsE.const
 5518      FF
 5519              	.LEHE216:
 5520              	.L376:
 5521              	.LEHB217:
 5522 13e7 E8000000 		call	_ZN8UnitTest11CurrentTest7DetailsEv@PLT
 5522      00
 5523 13ec 488B30   		movq	(%rax), %rsi
 5524 13ef BA830000 		movl	$131, %edx
 5524      00
 5525 13f4 4889EF   		movq	%rbp, %rdi
 5526 13f7 E8000000 		call	_ZN8UnitTest11TestDetailsC1ERKS0_i@PLT
 5526      00
 5527 13fc 48C74424 		movq	$1, 24(%rsp)
 5527      18010000 
 5527      00
 5528 1405 4C8B7424 		movq	16(%rsp), %r14
 5528      10
 5529 140a E8000000 		call	_ZN8UnitTest11CurrentTest7ResultsEv@PLT
 5529      00
 5530 140f 488B38   		movq	(%rax), %rdi
 5531 1412 488D7424 		leaq	24(%rsp), %rsi
 5531      18
 5532 1417 4889E9   		movq	%rbp, %rcx
 5533 141a 4C89F2   		movq	%r14, %rdx
 5534 141d E8000000 		call	_ZN8UnitTest10CheckEqualImjEEvRNS_11TestResultsERKT_RKT0_RKNS_11TestDetailsE
 5534      00
 5535              	.LEHE217:
 5536              	.L379:
 5537 1422 488B4424 		movq	16(%rsp), %rax
 5537      10
 5538 1427 4C89E7   		movq	%r12, %rdi
 5539 142a C7000500 		movl	$5, (%rax)
 5539      0000
 5540              	.LEHB218:
 5541 1430 E8000000 		call	queueCommitPut@PLT
 5541      00
 5542 1435 4C89EE   		movq	%r13, %rsi
 5543 1438 4C89E7   		movq	%r12, %rdi
 5544 143b E8000000 		call	queuePut@PLT
 5544      00
 5545              	.LEHE218:
 5546 1440 89442408 		movl	%eax, 8(%rsp)
 5547              	.LEHB219:
 5548 1444 E8000000 		call	_ZN8UnitTest11CurrentTest7DetailsEv@PLT
 5548      00
 5549 1449 488B30   		movq	(%rax), %rsi
 5550 144c BA870000 		movl	$135, %edx
 5550      00
 5551 1451 4889EF   		movq	%rbp, %rdi
 5552 1454 E8000000 		call	_ZN8UnitTest11TestDetailsC1ERKS0_i@PLT
 5552      00
 5553 1459 C7442418 		movl	$0, 24(%rsp)
 5553      00000000 
 5554 1461 E8000000 		call	_ZN8UnitTest11CurrentTest7ResultsEv@PLT
 5554      00
 5555 1466 488B38   		movq	(%rax), %rdi
 5556 1469 488D5424 		leaq	8(%rsp), %rdx
 5556      08
 5557 146e 488D7424 		leaq	24(%rsp), %rsi
 5557      18
 5558 1473 4889E9   		movq	%rbp, %rcx
 5559 1476 E8E5EEFF 		call	_ZN8UnitTest10CheckEqualI9USBStatusS1_EEvRNS_11TestResultsERKT_RKT0_RKNS_11TestDetailsE.const
 5559      FF
 5560              	.LEHE219:
 5561              	.L382:
 5562              	.LEHB220:
 5563 147b E8000000 		call	_ZN8UnitTest11CurrentTest7DetailsEv@PLT
 5563      00
 5564 1480 488B30   		movq	(%rax), %rsi
 5565 1483 BA880000 		movl	$136, %edx
 5565      00
 5566 1488 4889EF   		movq	%rbp, %rdi
 5567 148b E8000000 		call	_ZN8UnitTest11TestDetailsC1ERKS0_i@PLT
 5567      00
 5568 1490 48C74424 		movq	$2, 24(%rsp)
 5568      18020000 
 5568      00
 5569 1499 4C8B7424 		movq	16(%rsp), %r14
 5569      10
 5570 149e E8000000 		call	_ZN8UnitTest11CurrentTest7ResultsEv@PLT
 5570      00
 5571 14a3 488B38   		movq	(%rax), %rdi
 5572 14a6 488D7424 		leaq	24(%rsp), %rsi
 5572      18
 5573 14ab 4889E9   		movq	%rbp, %rcx
 5574 14ae 4C89F2   		movq	%r14, %rdx
 5575 14b1 E8000000 		call	_ZN8UnitTest10CheckEqualImjEEvRNS_11TestResultsERKT_RKT0_RKNS_11TestDetailsE
 5575      00
 5576              	.LEHE220:
 5577              	.L385:
 5578 14b6 488B4424 		movq	16(%rsp), %rax
 5578      10
 5579 14bb 4C89E7   		movq	%r12, %rdi
 5580 14be C7000600 		movl	$6, (%rax)
 5580      0000
 5581              	.LEHB221:
 5582 14c4 E8000000 		call	queueCommitPut@PLT
 5582      00
 5583 14c9 4C89EE   		movq	%r13, %rsi
 5584 14cc 4C89E7   		movq	%r12, %rdi
 5585 14cf E8000000 		call	queuePut@PLT
 5585      00
 5586              	.LEHE221:
 5587 14d4 89442408 		movl	%eax, 8(%rsp)
 5588              	.LEHB222:
 5589 14d8 E8000000 		call	_ZN8UnitTest11CurrentTest7DetailsEv@PLT
 5589      00
 5590 14dd 488B30   		movq	(%rax), %rsi
 5591 14e0 BA8C0000 		movl	$140, %edx
 5591      00
 5592 14e5 4889EF   		movq	%rbp, %rdi
 5593 14e8 E8000000 		call	_ZN8UnitTest11TestDetailsC1ERKS0_i@PLT
 5593      00
 5594 14ed C7442418 		movl	$0, 24(%rsp)
 5594      00000000 
 5595 14f5 E8000000 		call	_ZN8UnitTest11CurrentTest7ResultsEv@PLT
 5595      00
 5596 14fa 488B38   		movq	(%rax), %rdi
 5597 14fd 488D5424 		leaq	8(%rsp), %rdx
 5597      08
 5598 1502 488D7424 		leaq	24(%rsp), %rsi
 5598      18
 5599 1507 4889E9   		movq	%rbp, %rcx
 5600 150a E851EEFF 		call	_ZN8UnitTest10CheckEqualI9USBStatusS1_EEvRNS_11TestResultsERKT_RKT0_RKNS_11TestDetailsE.const
 5600      FF
 5601              	.LEHE222:
 5602              	.L388:
 5603              	.LEHB223:
 5604 150f E8000000 		call	_ZN8UnitTest11CurrentTest7DetailsEv@PLT
 5604      00
 5605 1514 488B30   		movq	(%rax), %rsi
 5606 1517 BA8D0000 		movl	$141, %edx
 5606      00
 5607 151c 4889EF   		movq	%rbp, %rdi
 5608 151f E8000000 		call	_ZN8UnitTest11TestDetailsC1ERKS0_i@PLT
 5608      00
 5609 1524 48C74424 		movq	$3, 24(%rsp)
 5609      18030000 
 5609      00
 5610 152d 4C8B7424 		movq	16(%rsp), %r14
 5610      10
 5611 1532 E8000000 		call	_ZN8UnitTest11CurrentTest7ResultsEv@PLT
 5611      00
 5612 1537 488B38   		movq	(%rax), %rdi
 5613 153a 488D7424 		leaq	24(%rsp), %rsi
 5613      18
 5614 153f 4889E9   		movq	%rbp, %rcx
 5615 1542 4C89F2   		movq	%r14, %rdx
 5616 1545 E8000000 		call	_ZN8UnitTest10CheckEqualImjEEvRNS_11TestResultsERKT_RKT0_RKNS_11TestDetailsE
 5616      00
 5617              	.LEHE223:
 5618              	.L391:
 5619 154a 488B4424 		movq	16(%rsp), %rax
 5619      10
 5620 154f 4C89E7   		movq	%r12, %rdi
 5621 1552 C7000700 		movl	$7, (%rax)
 5621      0000
 5622              	.LEHB224:
 5623 1558 E8000000 		call	queueCommitPut@PLT
 5623      00
 5624 155d 4C89EE   		movq	%r13, %rsi
 5625 1560 4C89E7   		movq	%r12, %rdi
 5626 1563 E8000000 		call	queuePut@PLT
 5626      00
 5627              	.LEHE224:
 5628 1568 89442408 		movl	%eax, 8(%rsp)
 5629              	.LEHB225:
 5630 156c E8000000 		call	_ZN8UnitTest11CurrentTest7DetailsEv@PLT
 5630      00
 5631 1571 488B30   		movq	(%rax), %rsi
 5632 1574 BA910000 		movl	$145, %edx
 5632      00
 5633 1579 4889EF   		movq	%rbp, %rdi
 5634 157c E8000000 		call	_ZN8UnitTest11TestDetailsC1ERKS0_i@PLT
 5634      00
 5635 1581 C7442418 		movl	$0, 24(%rsp)
 5635      00000000 
 5636 1589 E8000000 		call	_ZN8UnitTest11CurrentTest7ResultsEv@PLT
 5636      00
 5637 158e 488B38   		movq	(%rax), %rdi
 5638 1591 488D5424 		leaq	8(%rsp), %rdx
 5638      08
 5639 1596 488D7424 		leaq	24(%rsp), %rsi
 5639      18
 5640 159b 4889E9   		movq	%rbp, %rcx
 5641 159e E8BDEDFF 		call	_ZN8UnitTest10CheckEqualI9USBStatusS1_EEvRNS_11TestResultsERKT_RKT0_RKNS_11TestDetailsE.const
 5641      FF
 5642              	.LEHE225:
 5643              	.L394:
 5644              	.LEHB226:
 5645 15a3 E8000000 		call	_ZN8UnitTest11CurrentTest7DetailsEv@PLT
 5645      00
 5646 15a8 488B30   		movq	(%rax), %rsi
 5647 15ab BA920000 		movl	$146, %edx
 5647      00
 5648 15b0 4889EF   		movq	%rbp, %rdi
 5649 15b3 E8000000 		call	_ZN8UnitTest11TestDetailsC1ERKS0_i@PLT
 5649      00
 5650 15b8 48C74424 		movq	$4, 24(%rsp)
 5650      18040000 
 5650      00
 5651 15c1 4C8B6C24 		movq	16(%rsp), %r13
 5651      10
 5652 15c6 E8000000 		call	_ZN8UnitTest11CurrentTest7ResultsEv@PLT
 5652      00
 5653 15cb 488B38   		movq	(%rax), %rdi
 5654 15ce 488D7424 		leaq	24(%rsp), %rsi
 5654      18
 5655 15d3 4889E9   		movq	%rbp, %rcx
 5656 15d6 4C89EA   		movq	%r13, %rdx
 5657 15d9 E8000000 		call	_ZN8UnitTest10CheckEqualImjEEvRNS_11TestResultsERKT_RKT0_RKNS_11TestDetailsE
 5657      00
 5658              	.LEHE226:
 5659              	.L397:
 5660 15de 488B4424 		movq	16(%rsp), %rax
 5660      10
 5661 15e3 4C89E7   		movq	%r12, %rdi
 5662 15e6 C7000800 		movl	$8, (%rax)
 5662      0000
 5663              	.LEHB227:
 5664 15ec E8000000 		call	queueCommitPut@PLT
 5664      00
 5665              	.LEHE227:
 5666              	.LEHB228:
 5667 15f1 E8000000 		call	_ZN8UnitTest11CurrentTest7DetailsEv@PLT
 5667      00
 5668 15f6 488B30   		movq	(%rax), %rsi
 5669 15f9 BA970000 		movl	$151, %edx
 5669      00
 5670 15fe 4889EF   		movq	%rbp, %rdi
 5671 1601 E8000000 		call	_ZN8UnitTest11TestDetailsC1ERKS0_i@PLT
 5671      00
 5672 1606 48C74424 		movq	$4, 24(%rsp)
 5672      18040000 
 5672      00
 5673 160f E8000000 		call	_ZN8UnitTest11CurrentTest7ResultsEv@PLT
 5673      00
 5674 1614 488B38   		movq	(%rax), %rdi
 5675 1617 488D5424 		leaq	72(%rsp), %rdx
 5675      48
 5676 161c 488D7424 		leaq	24(%rsp), %rsi
 5676      18
 5677 1621 4889E9   		movq	%rbp, %rcx
 5678 1624 E8000000 		call	_ZN8UnitTest10CheckEqualImmEEvRNS_11TestResultsERKT_RKT0_RKNS_11TestDetailsE
 5678      00
 5679              	.LEHE228:
 5680              	.L400:
 5681              	.LEHB229:
 5682 1629 E8000000 		call	_ZN8UnitTest11CurrentTest7DetailsEv@PLT
 5682      00
 5683 162e 488B30   		movq	(%rax), %rsi
 5684 1631 BA980000 		movl	$152, %edx
 5684      00
 5685 1636 4889EF   		movq	%rbp, %rdi
 5686 1639 E8000000 		call	_ZN8UnitTest11TestDetailsC1ERKS0_i@PLT
 5686      00
 5687 163e 48C74424 		movq	$0, 24(%rsp)
 5687      18000000 
 5687      00
 5688 1647 E8000000 		call	_ZN8UnitTest11CurrentTest7ResultsEv@PLT
 5688      00
 5689 164c 488B38   		movq	(%rax), %rdi
 5690 164f 488D5424 		leaq	80(%rsp), %rdx
 5690      50
 5691 1654 488D7424 		leaq	24(%rsp), %rsi
 5691      18
 5692 1659 4889E9   		movq	%rbp, %rcx
 5693 165c E8000000 		call	_ZN8UnitTest10CheckEqualImmEEvRNS_11TestResultsERKT_RKT0_RKNS_11TestDetailsE
 5693      00
 5694              	.LEHE229:
 5695              	.L403:
 5696              	.LEHB230:
 5697 1661 E8000000 		call	_ZN8UnitTest11CurrentTest7DetailsEv@PLT
 5697      00
 5698 1666 488B30   		movq	(%rax), %rsi
 5699 1669 BA990000 		movl	$153, %edx
 5699      00
 5700 166e 4889EF   		movq	%rbp, %rdi
 5701 1671 E8000000 		call	_ZN8UnitTest11TestDetailsC1ERKS0_i@PLT
 5701      00
 5702 1676 48C74424 		movq	$0, 24(%rsp)
 5702      18000000 
 5702      00
 5703 167f E8000000 		call	_ZN8UnitTest11CurrentTest7ResultsEv@PLT
 5703      00
 5704 1684 488B38   		movq	(%rax), %rdi
 5705 1687 488D5424 		leaq	88(%rsp), %rdx
 5705      58
 5706 168c 488D7424 		leaq	24(%rsp), %rsi
 5706      18
 5707 1691 4889E9   		movq	%rbp, %rcx
 5708 1694 E8000000 		call	_ZN8UnitTest10CheckEqualImmEEvRNS_11TestResultsERKT_RKT0_RKNS_11TestDetailsE
 5708      00
 5709              	.LEHE230:
 5710              	.L406:
 5711              	.LEHB231:
 5712 1699 E8000000 		call	_ZN8UnitTest11CurrentTest7DetailsEv@PLT
 5712      00
 5713 169e 488B30   		movq	(%rax), %rsi
 5714 16a1 BA9A0000 		movl	$154, %edx
 5714      00
 5715 16a6 4889EF   		movq	%rbp, %rdi
 5716 16a9 E8000000 		call	_ZN8UnitTest11TestDetailsC1ERKS0_i@PLT
 5716      00
 5717 16ae 48C74424 		movq	$4, 24(%rsp)
 5717      18040000 
 5717      00
 5718 16b7 E8000000 		call	_ZN8UnitTest11CurrentTest7ResultsEv@PLT
 5718      00
 5719 16bc 488B38   		movq	(%rax), %rdi
 5720 16bf 488D5424 		leaq	96(%rsp), %rdx
 5720      60
 5721 16c4 488D7424 		leaq	24(%rsp), %rsi
 5721      18
 5722 16c9 4889E9   		movq	%rbp, %rcx
 5723 16cc E8000000 		call	_ZN8UnitTest10CheckEqualImmEEvRNS_11TestResultsERKT_RKT0_RKNS_11TestDetailsE
 5723      00
 5724              	.LEHE231:
 5725              	.L409:
 5726              	.LEHB232:
 5727 16d1 E8000000 		call	_ZN8UnitTest11CurrentTest7DetailsEv@PLT
 5727      00
 5728 16d6 488B30   		movq	(%rax), %rsi
 5729 16d9 BA9D0000 		movl	$157, %edx
 5729      00
 5730 16de 4889EF   		movq	%rbp, %rdi
 5731 16e1 E8000000 		call	_ZN8UnitTest11TestDetailsC1ERKS0_i@PLT
 5731      00
 5732 16e6 48C74424 		movq	$5, 24(%rsp)
 5732      18050000 
 5732      00
 5733 16ef 488B4424 		movq	64(%rsp), %rax
 5733      40
 5734 16f4 488B00   		movq	(%rax), %rax
 5735 16f7 8B00     		movl	(%rax), %eax
 5736 16f9 8944240C 		movl	%eax, 12(%rsp)
 5737 16fd E8000000 		call	_ZN8UnitTest11CurrentTest7ResultsEv@PLT
 5737      00
 5738 1702 488B38   		movq	(%rax), %rdi
 5739 1705 488D5424 		leaq	12(%rsp), %rdx
 5739      0C
 5740 170a 488D7424 		leaq	24(%rsp), %rsi
 5740      18
 5741 170f 4889E9   		movq	%rbp, %rcx
 5742 1712 E8000000 		call	_ZN8UnitTest10CheckEqualImjEEvRNS_11TestResultsERKT_RKT0_RKNS_11TestDetailsE
 5742      00
 5743              	.LEHE232:
 5744              	.L412:
 5745              	.LEHB233:
 5746 1717 E8000000 		call	_ZN8UnitTest11CurrentTest7DetailsEv@PLT
 5746      00
 5747 171c 488B30   		movq	(%rax), %rsi
 5748 171f BA9E0000 		movl	$158, %edx
 5748      00
 5749 1724 4889EF   		movq	%rbp, %rdi
 5750 1727 E8000000 		call	_ZN8UnitTest11TestDetailsC1ERKS0_i@PLT
 5750      00
 5751 172c 48C74424 		movq	$6, 24(%rsp)
 5751      18060000 
 5751      00
 5752 1735 488B4424 		movq	64(%rsp), %rax
 5752      40
 5753 173a 488B4008 		movq	8(%rax), %rax
 5754 173e 8B00     		movl	(%rax), %eax
 5755 1740 8944240C 		movl	%eax, 12(%rsp)
 5756 1744 E8000000 		call	_ZN8UnitTest11CurrentTest7ResultsEv@PLT
 5756      00
 5757 1749 488B38   		movq	(%rax), %rdi
 5758 174c 488D5424 		leaq	12(%rsp), %rdx
 5758      0C
 5759 1751 488D7424 		leaq	24(%rsp), %rsi
 5759      18
 5760 1756 4889E9   		movq	%rbp, %rcx
 5761 1759 E8000000 		call	_ZN8UnitTest10CheckEqualImjEEvRNS_11TestResultsERKT_RKT0_RKNS_11TestDetailsE
 5761      00
 5762              	.LEHE233:
 5763              	.L415:
 5764              	.LEHB234:
 5765 175e E8000000 		call	_ZN8UnitTest11CurrentTest7DetailsEv@PLT
 5765      00
 5766 1763 488B30   		movq	(%rax), %rsi
 5767 1766 BA9F0000 		movl	$159, %edx
 5767      00
 5768 176b 4889EF   		movq	%rbp, %rdi
 5769 176e E8000000 		call	_ZN8UnitTest11TestDetailsC1ERKS0_i@PLT
 5769      00
 5770 1773 48C74424 		movq	$7, 24(%rsp)
 5770      18070000 
 5770      00
 5771 177c 488B4424 		movq	64(%rsp), %rax
 5771      40
 5772 1781 488B4010 		movq	16(%rax), %rax
 5773 1785 8B00     		movl	(%rax), %eax
 5774 1787 8944240C 		movl	%eax, 12(%rsp)
 5775 178b E8000000 		call	_ZN8UnitTest11CurrentTest7ResultsEv@PLT
 5775      00
 5776 1790 488B38   		movq	(%rax), %rdi
 5777 1793 488D5424 		leaq	12(%rsp), %rdx
 5777      0C
 5778 1798 488D7424 		leaq	24(%rsp), %rsi
 5778      18
 5779 179d 4889E9   		movq	%rbp, %rcx
 5780 17a0 E8000000 		call	_ZN8UnitTest10CheckEqualImjEEvRNS_11TestResultsERKT_RKT0_RKNS_11TestDetailsE
 5780      00
 5781              	.LEHE234:
 5782              	.L418:
 5783              	.LEHB235:
 5784 17a5 E8000000 		call	_ZN8UnitTest11CurrentTest7DetailsEv@PLT
 5784      00
 5785 17aa 488B30   		movq	(%rax), %rsi
 5786 17ad BAA00000 		movl	$160, %edx
 5786      00
 5787 17b2 4889EF   		movq	%rbp, %rdi
 5788 17b5 E8000000 		call	_ZN8UnitTest11TestDetailsC1ERKS0_i@PLT
 5788      00
 5789 17ba 48C74424 		movq	$8, 24(%rsp)
 5789      18080000 
 5789      00
 5790 17c3 488B4424 		movq	64(%rsp), %rax
 5790      40
 5791 17c8 488B4018 		movq	24(%rax), %rax
 5792 17cc 8B00     		movl	(%rax), %eax
 5793 17ce 8944240C 		movl	%eax, 12(%rsp)
 5794 17d2 E8000000 		call	_ZN8UnitTest11CurrentTest7ResultsEv@PLT
 5794      00
 5795 17d7 488B38   		movq	(%rax), %rdi
 5796 17da 488D5424 		leaq	12(%rsp), %rdx
 5796      0C
 5797 17df 488D7424 		leaq	24(%rsp), %rsi
 5797      18
 5798 17e4 4889E9   		movq	%rbp, %rcx
 5799 17e7 E8000000 		call	_ZN8UnitTest10CheckEqualImjEEvRNS_11TestResultsERKT_RKT0_RKNS_11TestDetailsE
 5799      00
 5800              	.LEHE235:
 5801              	.L421:
 5802 17ec 4C89E7   		movq	%r12, %rdi
 5803              	.LEHB236:
 5804 17ef E8000000 		call	queueDestroy@PLT
 5804      00
 5805              	.LEHE236:
 5806 17f4 488B4424 		movq	120(%rsp), %rax
 5806      78
 5807 17f9 64482B04 		subq	%fs:40, %rax
 5807      25280000 
 5807      00
 5808 1802 750F     		jne	.L460
 5809 1804 4881C488 		addq	$136, %rsp
 5809      000000
 5810              		.cfi_remember_state
 5811              		.cfi_def_cfa_offset 40
 5812 180b 5D       		popq	%rbp
 5813              		.cfi_def_cfa_offset 32
 5814 180c 415C     		popq	%r12
 5815              		.cfi_def_cfa_offset 24
 5816 180e 415D     		popq	%r13
 5817              		.cfi_def_cfa_offset 16
 5818 1810 415E     		popq	%r14
 5819              		.cfi_def_cfa_offset 8
 5820 1812 C3       		ret
 5821              	.L460:
 5822              		.cfi_restore_state
 5823 1813 E8000000 		call	__stack_chk_fail@PLT
 5823      00
 5824              	.L456:
 5825 1818 F30F1EFA 		endbr64
 5826 181c 4889C7   		movq	%rax, %rdi
 5827 181f E9000000 		jmp	.L420
 5827      00
 5828              	.L454:
 5829 1824 F30F1EFA 		endbr64
 5830 1828 4889C7   		movq	%rax, %rdi
 5831 182b E9000000 		jmp	.L417
 5831      00
 5832              	.L438:
 5833 1830 F30F1EFA 		endbr64
 5834 1834 4889C7   		movq	%rax, %rdi
 5835 1837 E9000000 		jmp	.L393
 5835      00
 5836              	.L446:
 5837 183c F30F1EFA 		endbr64
 5838 1840 4889C7   		movq	%rax, %rdi
 5839 1843 E9000000 		jmp	.L405
 5839      00
 5840              	.L430:
 5841 1848 F30F1EFA 		endbr64
 5842 184c 4889C7   		movq	%rax, %rdi
 5843 184f E9000000 		jmp	.L381
 5843      00
 5844              	.L450:
 5845 1854 F30F1EFA 		endbr64
 5846 1858 4889C7   		movq	%rax, %rdi
 5847 185b E9000000 		jmp	.L411
 5847      00
 5848              	.L434:
 5849 1860 F30F1EFA 		endbr64
 5850 1864 4889C7   		movq	%rax, %rdi
 5851 1867 E9000000 		jmp	.L387
 5851      00
 5852              	.L442:
 5853 186c F30F1EFA 		endbr64
 5854 1870 4889C7   		movq	%rax, %rdi
 5855 1873 E9000000 		jmp	.L399
 5855      00
 5856              	.L426:
 5857 1878 F30F1EFA 		endbr64
 5858 187c 4889C7   		movq	%rax, %rdi
 5859 187f E9000000 		jmp	.L375
 5859      00
 5860              	.L452:
 5861 1884 F30F1EFA 		endbr64
 5862 1888 4889C7   		movq	%rax, %rdi
 5863 188b E9000000 		jmp	.L414
 5863      00
 5864              	.L436:
 5865 1890 F30F1EFA 		endbr64
 5866 1894 4889C7   		movq	%rax, %rdi
 5867 1897 E9000000 		jmp	.L390
 5867      00
 5868              	.L444:
 5869 189c F30F1EFA 		endbr64
 5870 18a0 4889C7   		movq	%rax, %rdi
 5871 18a3 E9000000 		jmp	.L402
 5871      00
 5872              	.L428:
 5873 18a8 F30F1EFA 		endbr64
 5874 18ac 4889C7   		movq	%rax, %rdi
 5875 18af E9000000 		jmp	.L378
 5875      00
 5876              	.L448:
 5877 18b4 F30F1EFA 		endbr64
 5878 18b8 4889C7   		movq	%rax, %rdi
 5879 18bb E9000000 		jmp	.L408
 5879      00
 5880              	.L432:
 5881 18c0 F30F1EFA 		endbr64
 5882 18c4 4889C7   		movq	%rax, %rdi
 5883 18c7 E9000000 		jmp	.L384
 5883      00
 5884              	.L440:
 5885 18cc F30F1EFA 		endbr64
 5886 18d0 4889C7   		movq	%rax, %rdi
 5887 18d3 E9000000 		jmp	.L396
 5887      00
 5888              	.L424:
 5889 18d8 F30F1EFA 		endbr64
 5890 18dc 4889C7   		movq	%rax, %rdi
 5891 18df E9000000 		jmp	.L372
 5891      00
 5892              		.section	.gcc_except_table
 5893              		.align 4
 5894              	.LLSDA1254:
 5895 04a0 FF       		.byte	0xff
 5896 04a1 9B       		.byte	0x9b
 5897 04a2 9001     		.uleb128 .LLSDATT1254-.LLSDATTD1254
 5898              	.LLSDATTD1254:
 5899 04a4 01       		.byte	0x1
 5900 04a5 8701     		.uleb128 .LLSDACSE1254-.LLSDACSB1254
 5901              	.LLSDACSB1254:
 5902 04a7 47       		.uleb128 .LEHB213-.LFB1254
 5903 04a8 05       		.uleb128 .LEHE213-.LEHB213
 5904 04a9 00       		.uleb128 0
 5905 04aa 00       		.uleb128 0
 5906 04ab 50       		.uleb128 .LEHB214-.LFB1254
 5907 04ac 3C       		.uleb128 .LEHE214-.LEHB214
 5908 04ad C80B     		.uleb128 .L424-.LFB1254
 5909 04af 01       		.uleb128 0x1
 5910 04b0 9701     		.uleb128 .LEHB215-.LFB1254
 5911 04b2 05       		.uleb128 .LEHE215-.LEHB215
 5912 04b3 00       		.uleb128 0
 5913 04b4 00       		.uleb128 0
 5914 04b5 A001     		.uleb128 .LEHB216-.LFB1254
 5915 04b7 37       		.uleb128 .LEHE216-.LEHB216
 5916 04b8 E80A     		.uleb128 .L426-.LFB1254
 5917 04ba 01       		.uleb128 0x1
 5918 04bb D701     		.uleb128 .LEHB217-.LFB1254
 5919 04bd 3B       		.uleb128 .LEHE217-.LEHB217
 5920 04be 980B     		.uleb128 .L428-.LFB1254
 5921 04c0 01       		.uleb128 0x1
 5922 04c1 A002     		.uleb128 .LEHB218-.LFB1254
 5923 04c3 10       		.uleb128 .LEHE218-.LEHB218
 5924 04c4 00       		.uleb128 0
 5925 04c5 00       		.uleb128 0
 5926 04c6 B402     		.uleb128 .LEHB219-.LFB1254
 5927 04c8 37       		.uleb128 .LEHE219-.LEHB219
 5928 04c9 B80A     		.uleb128 .L430-.LFB1254
 5929 04cb 01       		.uleb128 0x1
 5930 04cc EB02     		.uleb128 .LEHB220-.LFB1254
 5931 04ce 3B       		.uleb128 .LEHE220-.LEHB220
 5932 04cf B00B     		.uleb128 .L432-.LFB1254
 5933 04d1 01       		.uleb128 0x1
 5934 04d2 B403     		.uleb128 .LEHB221-.LFB1254
 5935 04d4 10       		.uleb128 .LEHE221-.LEHB221
 5936 04d5 00       		.uleb128 0
 5937 04d6 00       		.uleb128 0
 5938 04d7 C803     		.uleb128 .LEHB222-.LFB1254
 5939 04d9 37       		.uleb128 .LEHE222-.LEHB222
 5940 04da D00A     		.uleb128 .L434-.LFB1254
 5941 04dc 01       		.uleb128 0x1
 5942 04dd FF03     		.uleb128 .LEHB223-.LFB1254
 5943 04df 3B       		.uleb128 .LEHE223-.LEHB223
 5944 04e0 800B     		.uleb128 .L436-.LFB1254
 5945 04e2 01       		.uleb128 0x1
 5946 04e3 C804     		.uleb128 .LEHB224-.LFB1254
 5947 04e5 10       		.uleb128 .LEHE224-.LEHB224
 5948 04e6 00       		.uleb128 0
 5949 04e7 00       		.uleb128 0
 5950 04e8 DC04     		.uleb128 .LEHB225-.LFB1254
 5951 04ea 37       		.uleb128 .LEHE225-.LEHB225
 5952 04eb A00A     		.uleb128 .L438-.LFB1254
 5953 04ed 01       		.uleb128 0x1
 5954 04ee 9305     		.uleb128 .LEHB226-.LFB1254
 5955 04f0 3B       		.uleb128 .LEHE226-.LEHB226
 5956 04f1 BC0B     		.uleb128 .L440-.LFB1254
 5957 04f3 01       		.uleb128 0x1
 5958 04f4 DC05     		.uleb128 .LEHB227-.LFB1254
 5959 04f6 05       		.uleb128 .LEHE227-.LEHB227
 5960 04f7 00       		.uleb128 0
 5961 04f8 00       		.uleb128 0
 5962 04f9 E105     		.uleb128 .LEHB228-.LFB1254
 5963 04fb 38       		.uleb128 .LEHE228-.LEHB228
 5964 04fc DC0A     		.uleb128 .L442-.LFB1254
 5965 04fe 01       		.uleb128 0x1
 5966 04ff 9906     		.uleb128 .LEHB229-.LFB1254
 5967 0501 38       		.uleb128 .LEHE229-.LEHB229
 5968 0502 8C0B     		.uleb128 .L444-.LFB1254
 5969 0504 01       		.uleb128 0x1
 5970 0505 D106     		.uleb128 .LEHB230-.LFB1254
 5971 0507 38       		.uleb128 .LEHE230-.LEHB230
 5972 0508 AC0A     		.uleb128 .L446-.LFB1254
 5973 050a 01       		.uleb128 0x1
 5974 050b 8907     		.uleb128 .LEHB231-.LFB1254
 5975 050d 38       		.uleb128 .LEHE231-.LEHB231
 5976 050e A40B     		.uleb128 .L448-.LFB1254
 5977 0510 01       		.uleb128 0x1
 5978 0511 C107     		.uleb128 .LEHB232-.LFB1254
 5979 0513 46       		.uleb128 .LEHE232-.LEHB232
 5980 0514 C40A     		.uleb128 .L450-.LFB1254
 5981 0516 01       		.uleb128 0x1
 5982 0517 8708     		.uleb128 .LEHB233-.LFB1254
 5983 0519 47       		.uleb128 .LEHE233-.LEHB233
 5984 051a F40A     		.uleb128 .L452-.LFB1254
 5985 051c 01       		.uleb128 0x1
 5986 051d CE08     		.uleb128 .LEHB234-.LFB1254
 5987 051f 47       		.uleb128 .LEHE234-.LEHB234
 5988 0520 940A     		.uleb128 .L454-.LFB1254
 5989 0522 01       		.uleb128 0x1
 5990 0523 9509     		.uleb128 .LEHB235-.LFB1254
 5991 0525 47       		.uleb128 .LEHE235-.LEHB235
 5992 0526 880A     		.uleb128 .L456-.LFB1254
 5993 0528 01       		.uleb128 0x1
 5994 0529 DF09     		.uleb128 .LEHB236-.LFB1254
 5995 052b 05       		.uleb128 .LEHE236-.LEHB236
 5996 052c 00       		.uleb128 0
 5997 052d 00       		.uleb128 0
 5998              	.LLSDACSE1254:
 5999 052e 01       		.byte	0x1
 6000 052f 00       		.byte	0
 6001              		.align 4
 6002 0530 00000000 		.long	0
 6003              	
 6004              	.LLSDATT1254:
 6005              		.text
 6006              		.cfi_endproc
 6007              		.section	.text.unlikely
 6008              		.cfi_startproc
 6009              		.cfi_personality 0x9b,DW.ref.__gxx_personality_v0
 6010              		.cfi_lsda 0x1b,.LLSDAC1254
 6012              	_ZNK21TestQueue_testPutWrap7RunImplEv.cold:
 6013              	.LFSB1254:
 6014              	.L420:
 6015              		.cfi_def_cfa_offset 176
 6016              		.cfi_offset 6, -40
 6017              		.cfi_offset 12, -32
 6018              		.cfi_offset 13, -24
 6019              		.cfi_offset 14, -16
 6020 0c4e E8000000 		call	__cxa_begin_catch@PLT
 6020      00
 6021              	.LEHB237:
 6022 0c53 E8000000 		call	_ZN8UnitTest11CurrentTest7ResultsEv@PLT
 6022      00
 6023 0c58 4C8B28   		movq	(%rax), %r13
 6024 0c5b E8000000 		call	_ZN8UnitTest11CurrentTest7DetailsEv@PLT
 6024      00
 6025 0c60 488B30   		movq	(%rax), %rsi
 6026 0c63 BAA00000 		movl	$160, %edx
 6026      00
 6027 0c68 4889EF   		movq	%rbp, %rdi
 6028 0c6b E8000000 		call	_ZN8UnitTest11TestDetailsC1ERKS0_i@PLT
 6028      00
 6029 0c70 488D1500 		leaq	.LC32(%rip), %rdx
 6029      000000
 6030 0c77 4889EE   		movq	%rbp, %rsi
 6031 0c7a 4C89EF   		movq	%r13, %rdi
 6032 0c7d E8000000 		call	_ZN8UnitTest11TestResults13OnTestFailureERKNS_11TestDetailsEPKc@PLT
 6032      00
 6033              	.LEHE237:
 6034              	.LEHB238:
 6035 0c82 E8000000 		call	__cxa_end_catch@PLT
 6035      00
 6036              	.LEHE238:
 6037 0c87 E9000000 		jmp	.L421
 6037      00
 6038              	.L417:
 6039 0c8c E8000000 		call	__cxa_begin_catch@PLT
 6039      00
 6040              	.LEHB239:
 6041 0c91 E8000000 		call	_ZN8UnitTest11CurrentTest7ResultsEv@PLT
 6041      00
 6042 0c96 4C8B28   		movq	(%rax), %r13
 6043 0c99 E8000000 		call	_ZN8UnitTest11CurrentTest7DetailsEv@PLT
 6043      00
 6044 0c9e 488B30   		movq	(%rax), %rsi
 6045 0ca1 BA9F0000 		movl	$159, %edx
 6045      00
 6046 0ca6 4889EF   		movq	%rbp, %rdi
 6047 0ca9 E8000000 		call	_ZN8UnitTest11TestDetailsC1ERKS0_i@PLT
 6047      00
 6048 0cae 488D1500 		leaq	.LC28(%rip), %rdx
 6048      000000
 6049 0cb5 4889EE   		movq	%rbp, %rsi
 6050 0cb8 4C89EF   		movq	%r13, %rdi
 6051 0cbb E8000000 		call	_ZN8UnitTest11TestResults13OnTestFailureERKNS_11TestDetailsEPKc@PLT
 6051      00
 6052              	.LEHE239:
 6053              	.LEHB240:
 6054 0cc0 E8000000 		call	__cxa_end_catch@PLT
 6054      00
 6055              	.LEHE240:
 6056 0cc5 E9000000 		jmp	.L418
 6056      00
 6057              	.L393:
 6058 0cca E8000000 		call	__cxa_begin_catch@PLT
 6058      00
 6059              	.LEHB241:
 6060 0ccf E8000000 		call	_ZN8UnitTest11CurrentTest7ResultsEv@PLT
 6060      00
 6061 0cd4 4C8B28   		movq	(%rax), %r13
 6062 0cd7 E8000000 		call	_ZN8UnitTest11CurrentTest7DetailsEv@PLT
 6062      00
 6063 0cdc 488B30   		movq	(%rax), %rsi
 6064 0cdf BA910000 		movl	$145, %edx
 6064      00
 6065 0ce4 4889EF   		movq	%rbp, %rdi
 6066 0ce7 E8000000 		call	_ZN8UnitTest11TestDetailsC1ERKS0_i@PLT
 6066      00
 6067 0cec 488D1500 		leaq	.LC10(%rip), %rdx
 6067      000000
 6068 0cf3 4889EE   		movq	%rbp, %rsi
 6069 0cf6 4C89EF   		movq	%r13, %rdi
 6070 0cf9 E8000000 		call	_ZN8UnitTest11TestResults13OnTestFailureERKNS_11TestDetailsEPKc@PLT
 6070      00
 6071              	.LEHE241:
 6072              	.LEHB242:
 6073 0cfe E8000000 		call	__cxa_end_catch@PLT
 6073      00
 6074              	.LEHE242:
 6075 0d03 E9000000 		jmp	.L394
 6075      00
 6076              	.L405:
 6077 0d08 E8000000 		call	__cxa_begin_catch@PLT
 6077      00
 6078              	.LEHB243:
 6079 0d0d E8000000 		call	_ZN8UnitTest11CurrentTest7ResultsEv@PLT
 6079      00
 6080 0d12 4C8B28   		movq	(%rax), %r13
 6081 0d15 E8000000 		call	_ZN8UnitTest11CurrentTest7DetailsEv@PLT
 6081      00
 6082 0d1a 488B30   		movq	(%rax), %rsi
 6083 0d1d BA990000 		movl	$153, %edx
 6083      00
 6084 0d22 4889EF   		movq	%rbp, %rdi
 6085 0d25 E8000000 		call	_ZN8UnitTest11TestDetailsC1ERKS0_i@PLT
 6085      00
 6086 0d2a 488D1500 		leaq	.LC14(%rip), %rdx
 6086      000000
 6087 0d31 4889EE   		movq	%rbp, %rsi
 6088 0d34 4C89EF   		movq	%r13, %rdi
 6089 0d37 E8000000 		call	_ZN8UnitTest11TestResults13OnTestFailureERKNS_11TestDetailsEPKc@PLT
 6089      00
 6090              	.LEHE243:
 6091              	.LEHB244:
 6092 0d3c E8000000 		call	__cxa_end_catch@PLT
 6092      00
 6093              	.LEHE244:
 6094 0d41 E9000000 		jmp	.L406
 6094      00
 6095              	.L381:
 6096 0d46 E8000000 		call	__cxa_begin_catch@PLT
 6096      00
 6097              	.LEHB245:
 6098 0d4b E8000000 		call	_ZN8UnitTest11CurrentTest7ResultsEv@PLT
 6098      00
 6099 0d50 4C8B30   		movq	(%rax), %r14
 6100 0d53 E8000000 		call	_ZN8UnitTest11CurrentTest7DetailsEv@PLT
 6100      00
 6101 0d58 488B30   		movq	(%rax), %rsi
 6102 0d5b BA870000 		movl	$135, %edx
 6102      00
 6103 0d60 4889EF   		movq	%rbp, %rdi
 6104 0d63 E8000000 		call	_ZN8UnitTest11TestDetailsC1ERKS0_i@PLT
 6104      00
 6105 0d68 488D1500 		leaq	.LC10(%rip), %rdx
 6105      000000
 6106 0d6f 4889EE   		movq	%rbp, %rsi
 6107 0d72 4C89F7   		movq	%r14, %rdi
 6108 0d75 E8000000 		call	_ZN8UnitTest11TestResults13OnTestFailureERKNS_11TestDetailsEPKc@PLT
 6108      00
 6109              	.LEHE245:
 6110              	.LEHB246:
 6111 0d7a E8000000 		call	__cxa_end_catch@PLT
 6111      00
 6112              	.LEHE246:
 6113 0d7f E9000000 		jmp	.L382
 6113      00
 6114              	.L411:
 6115 0d84 E8000000 		call	__cxa_begin_catch@PLT
 6115      00
 6116              	.LEHB247:
 6117 0d89 E8000000 		call	_ZN8UnitTest11CurrentTest7ResultsEv@PLT
 6117      00
 6118 0d8e 4C8B28   		movq	(%rax), %r13
 6119 0d91 E8000000 		call	_ZN8UnitTest11CurrentTest7DetailsEv@PLT
 6119      00
 6120 0d96 488B30   		movq	(%rax), %rsi
 6121 0d99 BA9D0000 		movl	$157, %edx
 6121      00
 6122 0d9e 4889EF   		movq	%rbp, %rdi
 6123 0da1 E8000000 		call	_ZN8UnitTest11TestDetailsC1ERKS0_i@PLT
 6123      00
 6124 0da6 488D1500 		leaq	.LC26(%rip), %rdx
 6124      000000
 6125 0dad 4889EE   		movq	%rbp, %rsi
 6126 0db0 4C89EF   		movq	%r13, %rdi
 6127 0db3 E8000000 		call	_ZN8UnitTest11TestResults13OnTestFailureERKNS_11TestDetailsEPKc@PLT
 6127      00
 6128              	.LEHE247:
 6129              	.LEHB248:
 6130 0db8 E8000000 		call	__cxa_end_catch@PLT
 6130      00
 6131              	.LEHE248:
 6132 0dbd E9000000 		jmp	.L412
 6132      00
 6133              	.L387:
 6134 0dc2 E8000000 		call	__cxa_begin_catch@PLT
 6134      00
 6135              	.LEHB249:
 6136 0dc7 E8000000 		call	_ZN8UnitTest11CurrentTest7ResultsEv@PLT
 6136      00
 6137 0dcc 4C8B30   		movq	(%rax), %r14
 6138 0dcf E8000000 		call	_ZN8UnitTest11CurrentTest7DetailsEv@PLT
 6138      00
 6139 0dd4 488B30   		movq	(%rax), %rsi
 6140 0dd7 BA8C0000 		movl	$140, %edx
 6140      00
 6141 0ddc 4889EF   		movq	%rbp, %rdi
 6142 0ddf E8000000 		call	_ZN8UnitTest11TestDetailsC1ERKS0_i@PLT
 6142      00
 6143 0de4 488D1500 		leaq	.LC10(%rip), %rdx
 6143      000000
 6144 0deb 4889EE   		movq	%rbp, %rsi
 6145 0dee 4C89F7   		movq	%r14, %rdi
 6146 0df1 E8000000 		call	_ZN8UnitTest11TestResults13OnTestFailureERKNS_11TestDetailsEPKc@PLT
 6146      00
 6147              	.LEHE249:
 6148              	.LEHB250:
 6149 0df6 E8000000 		call	__cxa_end_catch@PLT
 6149      00
 6150              	.LEHE250:
 6151 0dfb E9000000 		jmp	.L388
 6151      00
 6152              	.L399:
 6153 0e00 E8000000 		call	__cxa_begin_catch@PLT
 6153      00
 6154              	.LEHB251:
 6155 0e05 E8000000 		call	_ZN8UnitTest11CurrentTest7ResultsEv@PLT
 6155      00
 6156 0e0a 4C8B28   		movq	(%rax), %r13
 6157 0e0d E8000000 		call	_ZN8UnitTest11CurrentTest7DetailsEv@PLT
 6157      00
 6158 0e12 488B30   		movq	(%rax), %rsi
 6159 0e15 BA970000 		movl	$151, %edx
 6159      00
 6160 0e1a 4889EF   		movq	%rbp, %rdi
 6161 0e1d E8000000 		call	_ZN8UnitTest11TestDetailsC1ERKS0_i@PLT
 6161      00
 6162 0e22 488D1500 		leaq	.LC12(%rip), %rdx
 6162      000000
 6163 0e29 4889EE   		movq	%rbp, %rsi
 6164 0e2c 4C89EF   		movq	%r13, %rdi
 6165 0e2f E8000000 		call	_ZN8UnitTest11TestResults13OnTestFailureERKNS_11TestDetailsEPKc@PLT
 6165      00
 6166              	.LEHE251:
 6167              	.LEHB252:
 6168 0e34 E8000000 		call	__cxa_end_catch@PLT
 6168      00
 6169              	.LEHE252:
 6170 0e39 E9000000 		jmp	.L400
 6170      00
 6171              	.L375:
 6172 0e3e E8000000 		call	__cxa_begin_catch@PLT
 6172      00
 6173              	.LEHB253:
 6174 0e43 E8000000 		call	_ZN8UnitTest11CurrentTest7ResultsEv@PLT
 6174      00
 6175 0e48 4C8B30   		movq	(%rax), %r14
 6176 0e4b E8000000 		call	_ZN8UnitTest11CurrentTest7DetailsEv@PLT
 6176      00
 6177 0e50 488B30   		movq	(%rax), %rsi
 6178 0e53 BA820000 		movl	$130, %edx
 6178      00
 6179 0e58 4889EF   		movq	%rbp, %rdi
 6180 0e5b E8000000 		call	_ZN8UnitTest11TestDetailsC1ERKS0_i@PLT
 6180      00
 6181 0e60 488D1500 		leaq	.LC10(%rip), %rdx
 6181      000000
 6182 0e67 4889EE   		movq	%rbp, %rsi
 6183 0e6a 4C89F7   		movq	%r14, %rdi
 6184 0e6d E8000000 		call	_ZN8UnitTest11TestResults13OnTestFailureERKNS_11TestDetailsEPKc@PLT
 6184      00
 6185              	.LEHE253:
 6186              	.LEHB254:
 6187 0e72 E8000000 		call	__cxa_end_catch@PLT
 6187      00
 6188              	.LEHE254:
 6189 0e77 E9000000 		jmp	.L376
 6189      00
 6190              	.L414:
 6191 0e7c E8000000 		call	__cxa_begin_catch@PLT
 6191      00
 6192              	.LEHB255:
 6193 0e81 E8000000 		call	_ZN8UnitTest11CurrentTest7ResultsEv@PLT
 6193      00
 6194 0e86 4C8B28   		movq	(%rax), %r13
 6195 0e89 E8000000 		call	_ZN8UnitTest11CurrentTest7DetailsEv@PLT
 6195      00
 6196 0e8e 488B30   		movq	(%rax), %rsi
 6197 0e91 BA9E0000 		movl	$158, %edx
 6197      00
 6198 0e96 4889EF   		movq	%rbp, %rdi
 6199 0e99 E8000000 		call	_ZN8UnitTest11TestDetailsC1ERKS0_i@PLT
 6199      00
 6200 0e9e 488D1500 		leaq	.LC27(%rip), %rdx
 6200      000000
 6201 0ea5 4889EE   		movq	%rbp, %rsi
 6202 0ea8 4C89EF   		movq	%r13, %rdi
 6203 0eab E8000000 		call	_ZN8UnitTest11TestResults13OnTestFailureERKNS_11TestDetailsEPKc@PLT
 6203      00
 6204              	.LEHE255:
 6205              	.LEHB256:
 6206 0eb0 E8000000 		call	__cxa_end_catch@PLT
 6206      00
 6207              	.LEHE256:
 6208 0eb5 E9000000 		jmp	.L415
 6208      00
 6209              	.L390:
 6210 0eba E8000000 		call	__cxa_begin_catch@PLT
 6210      00
 6211              	.LEHB257:
 6212 0ebf E8000000 		call	_ZN8UnitTest11CurrentTest7ResultsEv@PLT
 6212      00
 6213 0ec4 4C8B30   		movq	(%rax), %r14
 6214 0ec7 E8000000 		call	_ZN8UnitTest11CurrentTest7DetailsEv@PLT
 6214      00
 6215 0ecc 488B30   		movq	(%rax), %rsi
 6216 0ecf BA8D0000 		movl	$141, %edx
 6216      00
 6217 0ed4 4889EF   		movq	%rbp, %rdi
 6218 0ed7 E8000000 		call	_ZN8UnitTest11TestDetailsC1ERKS0_i@PLT
 6218      00
 6219 0edc 488D1500 		leaq	.LC23(%rip), %rdx
 6219      000000
 6220 0ee3 4889EE   		movq	%rbp, %rsi
 6221 0ee6 4C89F7   		movq	%r14, %rdi
 6222 0ee9 E8000000 		call	_ZN8UnitTest11TestResults13OnTestFailureERKNS_11TestDetailsEPKc@PLT
 6222      00
 6223              	.LEHE257:
 6224              	.LEHB258:
 6225 0eee E8000000 		call	__cxa_end_catch@PLT
 6225      00
 6226              	.LEHE258:
 6227 0ef3 E9000000 		jmp	.L391
 6227      00
 6228              	.L402:
 6229 0ef8 E8000000 		call	__cxa_begin_catch@PLT
 6229      00
 6230              	.LEHB259:
 6231 0efd E8000000 		call	_ZN8UnitTest11CurrentTest7ResultsEv@PLT
 6231      00
 6232 0f02 4C8B28   		movq	(%rax), %r13
 6233 0f05 E8000000 		call	_ZN8UnitTest11CurrentTest7DetailsEv@PLT
 6233      00
 6234 0f0a 488B30   		movq	(%rax), %rsi
 6235 0f0d BA980000 		movl	$152, %edx
 6235      00
 6236 0f12 4889EF   		movq	%rbp, %rdi
 6237 0f15 E8000000 		call	_ZN8UnitTest11TestDetailsC1ERKS0_i@PLT
 6237      00
 6238 0f1a 488D1500 		leaq	.LC13(%rip), %rdx
 6238      000000
 6239 0f21 4889EE   		movq	%rbp, %rsi
 6240 0f24 4C89EF   		movq	%r13, %rdi
 6241 0f27 E8000000 		call	_ZN8UnitTest11TestResults13OnTestFailureERKNS_11TestDetailsEPKc@PLT
 6241      00
 6242              	.LEHE259:
 6243              	.LEHB260:
 6244 0f2c E8000000 		call	__cxa_end_catch@PLT
 6244      00
 6245              	.LEHE260:
 6246 0f31 E9000000 		jmp	.L403
 6246      00
 6247              	.L378:
 6248 0f36 E8000000 		call	__cxa_begin_catch@PLT
 6248      00
 6249              	.LEHB261:
 6250 0f3b E8000000 		call	_ZN8UnitTest11CurrentTest7ResultsEv@PLT
 6250      00
 6251 0f40 4C8B30   		movq	(%rax), %r14
 6252 0f43 E8000000 		call	_ZN8UnitTest11CurrentTest7DetailsEv@PLT
 6252      00
 6253 0f48 488B30   		movq	(%rax), %rsi
 6254 0f4b BA830000 		movl	$131, %edx
 6254      00
 6255 0f50 4889EF   		movq	%rbp, %rdi
 6256 0f53 E8000000 		call	_ZN8UnitTest11TestDetailsC1ERKS0_i@PLT
 6256      00
 6257 0f58 488D1500 		leaq	.LC21(%rip), %rdx
 6257      000000
 6258 0f5f 4889EE   		movq	%rbp, %rsi
 6259 0f62 4C89F7   		movq	%r14, %rdi
 6260 0f65 E8000000 		call	_ZN8UnitTest11TestResults13OnTestFailureERKNS_11TestDetailsEPKc@PLT
 6260      00
 6261              	.LEHE261:
 6262              	.LEHB262:
 6263 0f6a E8000000 		call	__cxa_end_catch@PLT
 6263      00
 6264              	.LEHE262:
 6265 0f6f E9000000 		jmp	.L379
 6265      00
 6266              	.L408:
 6267 0f74 E8000000 		call	__cxa_begin_catch@PLT
 6267      00
 6268              	.LEHB263:
 6269 0f79 E8000000 		call	_ZN8UnitTest11CurrentTest7ResultsEv@PLT
 6269      00
 6270 0f7e 4C8B28   		movq	(%rax), %r13
 6271 0f81 E8000000 		call	_ZN8UnitTest11CurrentTest7DetailsEv@PLT
 6271      00
 6272 0f86 488B30   		movq	(%rax), %rsi
 6273 0f89 BA9A0000 		movl	$154, %edx
 6273      00
 6274 0f8e 4889EF   		movq	%rbp, %rdi
 6275 0f91 E8000000 		call	_ZN8UnitTest11TestDetailsC1ERKS0_i@PLT
 6275      00
 6276 0f96 488D1500 		leaq	.LC31(%rip), %rdx
 6276      000000
 6277 0f9d 4889EE   		movq	%rbp, %rsi
 6278 0fa0 4C89EF   		movq	%r13, %rdi
 6279 0fa3 E8000000 		call	_ZN8UnitTest11TestResults13OnTestFailureERKNS_11TestDetailsEPKc@PLT
 6279      00
 6280              	.LEHE263:
 6281              	.LEHB264:
 6282 0fa8 E8000000 		call	__cxa_end_catch@PLT
 6282      00
 6283              	.LEHE264:
 6284 0fad E9000000 		jmp	.L409
 6284      00
 6285              	.L384:
 6286 0fb2 E8000000 		call	__cxa_begin_catch@PLT
 6286      00
 6287              	.LEHB265:
 6288 0fb7 E8000000 		call	_ZN8UnitTest11CurrentTest7ResultsEv@PLT
 6288      00
 6289 0fbc 4C8B30   		movq	(%rax), %r14
 6290 0fbf E8000000 		call	_ZN8UnitTest11CurrentTest7DetailsEv@PLT
 6290      00
 6291 0fc4 488B30   		movq	(%rax), %rsi
 6292 0fc7 BA880000 		movl	$136, %edx
 6292      00
 6293 0fcc 4889EF   		movq	%rbp, %rdi
 6294 0fcf E8000000 		call	_ZN8UnitTest11TestDetailsC1ERKS0_i@PLT
 6294      00
 6295 0fd4 488D1500 		leaq	.LC22(%rip), %rdx
 6295      000000
 6296 0fdb 4889EE   		movq	%rbp, %rsi
 6297 0fde 4C89F7   		movq	%r14, %rdi
 6298 0fe1 E8000000 		call	_ZN8UnitTest11TestResults13OnTestFailureERKNS_11TestDetailsEPKc@PLT
 6298      00
 6299              	.LEHE265:
 6300              	.LEHB266:
 6301 0fe6 E8000000 		call	__cxa_end_catch@PLT
 6301      00
 6302              	.LEHE266:
 6303 0feb E9000000 		jmp	.L385
 6303      00
 6304              	.L396:
 6305 0ff0 E8000000 		call	__cxa_begin_catch@PLT
 6305      00
 6306              	.LEHB267:
 6307 0ff5 E8000000 		call	_ZN8UnitTest11CurrentTest7ResultsEv@PLT
 6307      00
 6308 0ffa 4C8B28   		movq	(%rax), %r13
 6309 0ffd E8000000 		call	_ZN8UnitTest11CurrentTest7DetailsEv@PLT
 6309      00
 6310 1002 488B30   		movq	(%rax), %rsi
 6311 1005 BA920000 		movl	$146, %edx
 6311      00
 6312 100a 4889EF   		movq	%rbp, %rdi
 6313 100d E8000000 		call	_ZN8UnitTest11TestDetailsC1ERKS0_i@PLT
 6313      00
 6314 1012 488D1500 		leaq	.LC30(%rip), %rdx
 6314      000000
 6315 1019 4889EE   		movq	%rbp, %rsi
 6316 101c 4C89EF   		movq	%r13, %rdi
 6317 101f E8000000 		call	_ZN8UnitTest11TestResults13OnTestFailureERKNS_11TestDetailsEPKc@PLT
 6317      00
 6318              	.LEHE267:
 6319              	.LEHB268:
 6320 1024 E8000000 		call	__cxa_end_catch@PLT
 6320      00
 6321              	.LEHE268:
 6322 1029 E9000000 		jmp	.L397
 6322      00
 6323              	.L372:
 6324 102e E8000000 		call	__cxa_begin_catch@PLT
 6324      00
 6325              	.LEHB269:
 6326 1033 E8000000 		call	_ZN8UnitTest11CurrentTest7ResultsEv@PLT
 6326      00
 6327 1038 4C8B28   		movq	(%rax), %r13
 6328 103b E8000000 		call	_ZN8UnitTest11CurrentTest7DetailsEv@PLT
 6328      00
 6329 1040 488D6C24 		leaq	32(%rsp), %rbp
 6329      20
 6330 1045 488B30   		movq	(%rax), %rsi
 6331 1048 BA7E0000 		movl	$126, %edx
 6331      00
 6332 104d 4889EF   		movq	%rbp, %rdi
 6333 1050 E8000000 		call	_ZN8UnitTest11TestDetailsC1ERKS0_i@PLT
 6333      00
 6334 1055 488D1500 		leaq	.LC10(%rip), %rdx
 6334      000000
 6335 105c 4889EE   		movq	%rbp, %rsi
 6336 105f 4C89EF   		movq	%r13, %rdi
 6337 1062 E8000000 		call	_ZN8UnitTest11TestResults13OnTestFailureERKNS_11TestDetailsEPKc@PLT
 6337      00
 6338              	.LEHE269:
 6339              	.LEHB270:
 6340 1067 E8000000 		call	__cxa_end_catch@PLT
 6340      00
 6341              	.LEHE270:
 6342 106c E9000000 		jmp	.L373
 6342      00
 6343              	.L457:
 6344 1071 F30F1EFA 		endbr64
 6345 1075 4889C5   		movq	%rax, %rbp
 6346 1078 E8000000 		call	__cxa_end_catch@PLT
 6346      00
 6347 107d 4889EF   		movq	%rbp, %rdi
 6348              	.LEHB271:
 6349 1080 E8000000 		call	_Unwind_Resume@PLT
 6349      00
 6350              	.LEHE271:
 6351              	.L455:
 6352 1085 F30F1EFA 		endbr64
 6353 1089 4889C5   		movq	%rax, %rbp
 6354 108c E8000000 		call	__cxa_end_catch@PLT
 6354      00
 6355 1091 4889EF   		movq	%rbp, %rdi
 6356              	.LEHB272:
 6357 1094 E8000000 		call	_Unwind_Resume@PLT
 6357      00
 6358              	.LEHE272:
 6359              	.L453:
 6360 1099 F30F1EFA 		endbr64
 6361 109d 4889C5   		movq	%rax, %rbp
 6362 10a0 E8000000 		call	__cxa_end_catch@PLT
 6362      00
 6363 10a5 4889EF   		movq	%rbp, %rdi
 6364              	.LEHB273:
 6365 10a8 E8000000 		call	_Unwind_Resume@PLT
 6365      00
 6366              	.LEHE273:
 6367              	.L451:
 6368 10ad F30F1EFA 		endbr64
 6369 10b1 4889C5   		movq	%rax, %rbp
 6370 10b4 E8000000 		call	__cxa_end_catch@PLT
 6370      00
 6371 10b9 4889EF   		movq	%rbp, %rdi
 6372              	.LEHB274:
 6373 10bc E8000000 		call	_Unwind_Resume@PLT
 6373      00
 6374              	.LEHE274:
 6375              	.L449:
 6376 10c1 F30F1EFA 		endbr64
 6377 10c5 4889C5   		movq	%rax, %rbp
 6378 10c8 E8000000 		call	__cxa_end_catch@PLT
 6378      00
 6379 10cd 4889EF   		movq	%rbp, %rdi
 6380              	.LEHB275:
 6381 10d0 E8000000 		call	_Unwind_Resume@PLT
 6381      00
 6382              	.LEHE275:
 6383              	.L447:
 6384 10d5 F30F1EFA 		endbr64
 6385 10d9 4889C5   		movq	%rax, %rbp
 6386 10dc E8000000 		call	__cxa_end_catch@PLT
 6386      00
 6387 10e1 4889EF   		movq	%rbp, %rdi
 6388              	.LEHB276:
 6389 10e4 E8000000 		call	_Unwind_Resume@PLT
 6389      00
 6390              	.LEHE276:
 6391              	.L445:
 6392 10e9 F30F1EFA 		endbr64
 6393 10ed 4889C5   		movq	%rax, %rbp
 6394 10f0 E8000000 		call	__cxa_end_catch@PLT
 6394      00
 6395 10f5 4889EF   		movq	%rbp, %rdi
 6396              	.LEHB277:
 6397 10f8 E8000000 		call	_Unwind_Resume@PLT
 6397      00
 6398              	.LEHE277:
 6399              	.L443:
 6400 10fd F30F1EFA 		endbr64
 6401 1101 4889C5   		movq	%rax, %rbp
 6402 1104 E8000000 		call	__cxa_end_catch@PLT
 6402      00
 6403 1109 4889EF   		movq	%rbp, %rdi
 6404              	.LEHB278:
 6405 110c E8000000 		call	_Unwind_Resume@PLT
 6405      00
 6406              	.LEHE278:
 6407              	.L441:
 6408 1111 F30F1EFA 		endbr64
 6409 1115 4889C5   		movq	%rax, %rbp
 6410 1118 E8000000 		call	__cxa_end_catch@PLT
 6410      00
 6411 111d 4889EF   		movq	%rbp, %rdi
 6412              	.LEHB279:
 6413 1120 E8000000 		call	_Unwind_Resume@PLT
 6413      00
 6414              	.LEHE279:
 6415              	.L439:
 6416 1125 F30F1EFA 		endbr64
 6417 1129 4889C5   		movq	%rax, %rbp
 6418 112c E8000000 		call	__cxa_end_catch@PLT
 6418      00
 6419 1131 4889EF   		movq	%rbp, %rdi
 6420              	.LEHB280:
 6421 1134 E8000000 		call	_Unwind_Resume@PLT
 6421      00
 6422              	.LEHE280:
 6423              	.L437:
 6424 1139 F30F1EFA 		endbr64
 6425 113d 4889C5   		movq	%rax, %rbp
 6426 1140 E8000000 		call	__cxa_end_catch@PLT
 6426      00
 6427 1145 4889EF   		movq	%rbp, %rdi
 6428              	.LEHB281:
 6429 1148 E8000000 		call	_Unwind_Resume@PLT
 6429      00
 6430              	.LEHE281:
 6431              	.L435:
 6432 114d F30F1EFA 		endbr64
 6433 1151 4889C5   		movq	%rax, %rbp
 6434 1154 E8000000 		call	__cxa_end_catch@PLT
 6434      00
 6435 1159 4889EF   		movq	%rbp, %rdi
 6436              	.LEHB282:
 6437 115c E8000000 		call	_Unwind_Resume@PLT
 6437      00
 6438              	.LEHE282:
 6439              	.L433:
 6440 1161 F30F1EFA 		endbr64
 6441 1165 4889C5   		movq	%rax, %rbp
 6442 1168 E8000000 		call	__cxa_end_catch@PLT
 6442      00
 6443 116d 4889EF   		movq	%rbp, %rdi
 6444              	.LEHB283:
 6445 1170 E8000000 		call	_Unwind_Resume@PLT
 6445      00
 6446              	.LEHE283:
 6447              	.L431:
 6448 1175 F30F1EFA 		endbr64
 6449 1179 4889C5   		movq	%rax, %rbp
 6450 117c E8000000 		call	__cxa_end_catch@PLT
 6450      00
 6451 1181 4889EF   		movq	%rbp, %rdi
 6452              	.LEHB284:
 6453 1184 E8000000 		call	_Unwind_Resume@PLT
 6453      00
 6454              	.LEHE284:
 6455              	.L429:
 6456 1189 F30F1EFA 		endbr64
 6457 118d 4889C5   		movq	%rax, %rbp
 6458 1190 E8000000 		call	__cxa_end_catch@PLT
 6458      00
 6459 1195 4889EF   		movq	%rbp, %rdi
 6460              	.LEHB285:
 6461 1198 E8000000 		call	_Unwind_Resume@PLT
 6461      00
 6462              	.LEHE285:
 6463              	.L427:
 6464 119d F30F1EFA 		endbr64
 6465 11a1 4889C5   		movq	%rax, %rbp
 6466 11a4 E8000000 		call	__cxa_end_catch@PLT
 6466      00
 6467 11a9 4889EF   		movq	%rbp, %rdi
 6468              	.LEHB286:
 6469 11ac E8000000 		call	_Unwind_Resume@PLT
 6469      00
 6470              	.LEHE286:
 6471              	.L425:
 6472 11b1 F30F1EFA 		endbr64
 6473 11b5 4889C5   		movq	%rax, %rbp
 6474 11b8 E8000000 		call	__cxa_end_catch@PLT
 6474      00
 6475 11bd 4889EF   		movq	%rbp, %rdi
 6476              	.LEHB287:
 6477 11c0 E8000000 		call	_Unwind_Resume@PLT
 6477      00
 6478              	.LEHE287:
 6479              		.cfi_endproc
 6480              	.LFE1254:
 6481              		.section	.gcc_except_table
 6482              		.align 4
 6483              	.LLSDAC1254:
 6484 0534 FF       		.byte	0xff
 6485 0535 9B       		.byte	0x9b
 6486 0536 9802     		.uleb128 .LLSDATTC1254-.LLSDATTDC1254
 6487              	.LLSDATTDC1254:
 6488 0538 01       		.byte	0x1
 6489 0539 8C02     		.uleb128 .LLSDACSEC1254-.LLSDACSBC1254
 6490              	.LLSDACSBC1254:
 6491 053b 05       		.uleb128 .LEHB237-.LCOLDB33
 6492 053c 2F       		.uleb128 .LEHE237-.LEHB237
 6493 053d A308     		.uleb128 .L457-.LCOLDB33
 6494 053f 00       		.uleb128 0
 6495 0540 34       		.uleb128 .LEHB238-.LCOLDB33
 6496 0541 05       		.uleb128 .LEHE238-.LEHB238
 6497 0542 00       		.uleb128 0
 6498 0543 00       		.uleb128 0
 6499 0544 43       		.uleb128 .LEHB239-.LCOLDB33
 6500 0545 2F       		.uleb128 .LEHE239-.LEHB239
 6501 0546 B708     		.uleb128 .L455-.LCOLDB33
 6502 0548 00       		.uleb128 0
 6503 0549 72       		.uleb128 .LEHB240-.LCOLDB33
 6504 054a 05       		.uleb128 .LEHE240-.LEHB240
 6505 054b 00       		.uleb128 0
 6506 054c 00       		.uleb128 0
 6507 054d 8101     		.uleb128 .LEHB241-.LCOLDB33
 6508 054f 2F       		.uleb128 .LEHE241-.LEHB241
 6509 0550 D709     		.uleb128 .L439-.LCOLDB33
 6510 0552 00       		.uleb128 0
 6511 0553 B001     		.uleb128 .LEHB242-.LCOLDB33
 6512 0555 05       		.uleb128 .LEHE242-.LEHB242
 6513 0556 00       		.uleb128 0
 6514 0557 00       		.uleb128 0
 6515 0558 BF01     		.uleb128 .LEHB243-.LCOLDB33
 6516 055a 2F       		.uleb128 .LEHE243-.LEHB243
 6517 055b 8709     		.uleb128 .L447-.LCOLDB33
 6518 055d 00       		.uleb128 0
 6519 055e EE01     		.uleb128 .LEHB244-.LCOLDB33
 6520 0560 05       		.uleb128 .LEHE244-.LEHB244
 6521 0561 00       		.uleb128 0
 6522 0562 00       		.uleb128 0
 6523 0563 FD01     		.uleb128 .LEHB245-.LCOLDB33
 6524 0565 2F       		.uleb128 .LEHE245-.LEHB245
 6525 0566 A70A     		.uleb128 .L431-.LCOLDB33
 6526 0568 00       		.uleb128 0
 6527 0569 AC02     		.uleb128 .LEHB246-.LCOLDB33
 6528 056b 05       		.uleb128 .LEHE246-.LEHB246
 6529 056c 00       		.uleb128 0
 6530 056d 00       		.uleb128 0
 6531 056e BB02     		.uleb128 .LEHB247-.LCOLDB33
 6532 0570 2F       		.uleb128 .LEHE247-.LEHB247
 6533 0571 DF08     		.uleb128 .L451-.LCOLDB33
 6534 0573 00       		.uleb128 0
 6535 0574 EA02     		.uleb128 .LEHB248-.LCOLDB33
 6536 0576 05       		.uleb128 .LEHE248-.LEHB248
 6537 0577 00       		.uleb128 0
 6538 0578 00       		.uleb128 0
 6539 0579 F902     		.uleb128 .LEHB249-.LCOLDB33
 6540 057b 2F       		.uleb128 .LEHE249-.LEHB249
 6541 057c FF09     		.uleb128 .L435-.LCOLDB33
 6542 057e 00       		.uleb128 0
 6543 057f A803     		.uleb128 .LEHB250-.LCOLDB33
 6544 0581 05       		.uleb128 .LEHE250-.LEHB250
 6545 0582 00       		.uleb128 0
 6546 0583 00       		.uleb128 0
 6547 0584 B703     		.uleb128 .LEHB251-.LCOLDB33
 6548 0586 2F       		.uleb128 .LEHE251-.LEHB251
 6549 0587 AF09     		.uleb128 .L443-.LCOLDB33
 6550 0589 00       		.uleb128 0
 6551 058a E603     		.uleb128 .LEHB252-.LCOLDB33
 6552 058c 05       		.uleb128 .LEHE252-.LEHB252
 6553 058d 00       		.uleb128 0
 6554 058e 00       		.uleb128 0
 6555 058f F503     		.uleb128 .LEHB253-.LCOLDB33
 6556 0591 2F       		.uleb128 .LEHE253-.LEHB253
 6557 0592 CF0A     		.uleb128 .L427-.LCOLDB33
 6558 0594 00       		.uleb128 0
 6559 0595 A404     		.uleb128 .LEHB254-.LCOLDB33
 6560 0597 05       		.uleb128 .LEHE254-.LEHB254
 6561 0598 00       		.uleb128 0
 6562 0599 00       		.uleb128 0
 6563 059a B304     		.uleb128 .LEHB255-.LCOLDB33
 6564 059c 2F       		.uleb128 .LEHE255-.LEHB255
 6565 059d CB08     		.uleb128 .L453-.LCOLDB33
 6566 059f 00       		.uleb128 0
 6567 05a0 E204     		.uleb128 .LEHB256-.LCOLDB33
 6568 05a2 05       		.uleb128 .LEHE256-.LEHB256
 6569 05a3 00       		.uleb128 0
 6570 05a4 00       		.uleb128 0
 6571 05a5 F104     		.uleb128 .LEHB257-.LCOLDB33
 6572 05a7 2F       		.uleb128 .LEHE257-.LEHB257
 6573 05a8 EB09     		.uleb128 .L437-.LCOLDB33
 6574 05aa 00       		.uleb128 0
 6575 05ab A005     		.uleb128 .LEHB258-.LCOLDB33
 6576 05ad 05       		.uleb128 .LEHE258-.LEHB258
 6577 05ae 00       		.uleb128 0
 6578 05af 00       		.uleb128 0
 6579 05b0 AF05     		.uleb128 .LEHB259-.LCOLDB33
 6580 05b2 2F       		.uleb128 .LEHE259-.LEHB259
 6581 05b3 9B09     		.uleb128 .L445-.LCOLDB33
 6582 05b5 00       		.uleb128 0
 6583 05b6 DE05     		.uleb128 .LEHB260-.LCOLDB33
 6584 05b8 05       		.uleb128 .LEHE260-.LEHB260
 6585 05b9 00       		.uleb128 0
 6586 05ba 00       		.uleb128 0
 6587 05bb ED05     		.uleb128 .LEHB261-.LCOLDB33
 6588 05bd 2F       		.uleb128 .LEHE261-.LEHB261
 6589 05be BB0A     		.uleb128 .L429-.LCOLDB33
 6590 05c0 00       		.uleb128 0
 6591 05c1 9C06     		.uleb128 .LEHB262-.LCOLDB33
 6592 05c3 05       		.uleb128 .LEHE262-.LEHB262
 6593 05c4 00       		.uleb128 0
 6594 05c5 00       		.uleb128 0
 6595 05c6 AB06     		.uleb128 .LEHB263-.LCOLDB33
 6596 05c8 2F       		.uleb128 .LEHE263-.LEHB263
 6597 05c9 F308     		.uleb128 .L449-.LCOLDB33
 6598 05cb 00       		.uleb128 0
 6599 05cc DA06     		.uleb128 .LEHB264-.LCOLDB33
 6600 05ce 05       		.uleb128 .LEHE264-.LEHB264
 6601 05cf 00       		.uleb128 0
 6602 05d0 00       		.uleb128 0
 6603 05d1 E906     		.uleb128 .LEHB265-.LCOLDB33
 6604 05d3 2F       		.uleb128 .LEHE265-.LEHB265
 6605 05d4 930A     		.uleb128 .L433-.LCOLDB33
 6606 05d6 00       		.uleb128 0
 6607 05d7 9807     		.uleb128 .LEHB266-.LCOLDB33
 6608 05d9 05       		.uleb128 .LEHE266-.LEHB266
 6609 05da 00       		.uleb128 0
 6610 05db 00       		.uleb128 0
 6611 05dc A707     		.uleb128 .LEHB267-.LCOLDB33
 6612 05de 2F       		.uleb128 .LEHE267-.LEHB267
 6613 05df C309     		.uleb128 .L441-.LCOLDB33
 6614 05e1 00       		.uleb128 0
 6615 05e2 D607     		.uleb128 .LEHB268-.LCOLDB33
 6616 05e4 05       		.uleb128 .LEHE268-.LEHB268
 6617 05e5 00       		.uleb128 0
 6618 05e6 00       		.uleb128 0
 6619 05e7 E507     		.uleb128 .LEHB269-.LCOLDB33
 6620 05e9 34       		.uleb128 .LEHE269-.LEHB269
 6621 05ea E30A     		.uleb128 .L425-.LCOLDB33
 6622 05ec 00       		.uleb128 0
 6623 05ed 9908     		.uleb128 .LEHB270-.LCOLDB33
 6624 05ef 05       		.uleb128 .LEHE270-.LEHB270
 6625 05f0 00       		.uleb128 0
 6626 05f1 00       		.uleb128 0
 6627 05f2 B208     		.uleb128 .LEHB271-.LCOLDB33
 6628 05f4 05       		.uleb128 .LEHE271-.LEHB271
 6629 05f5 00       		.uleb128 0
 6630 05f6 00       		.uleb128 0
 6631 05f7 C608     		.uleb128 .LEHB272-.LCOLDB33
 6632 05f9 05       		.uleb128 .LEHE272-.LEHB272
 6633 05fa 00       		.uleb128 0
 6634 05fb 00       		.uleb128 0
 6635 05fc DA08     		.uleb128 .LEHB273-.LCOLDB33
 6636 05fe 05       		.uleb128 .LEHE273-.LEHB273
 6637 05ff 00       		.uleb128 0
 6638 0600 00       		.uleb128 0
 6639 0601 EE08     		.uleb128 .LEHB274-.LCOLDB33
 6640 0603 05       		.uleb128 .LEHE274-.LEHB274
 6641 0604 00       		.uleb128 0
 6642 0605 00       		.uleb128 0
 6643 0606 8209     		.uleb128 .LEHB275-.LCOLDB33
 6644 0608 05       		.uleb128 .LEHE275-.LEHB275
 6645 0609 00       		.uleb128 0
 6646 060a 00       		.uleb128 0
 6647 060b 9609     		.uleb128 .LEHB276-.LCOLDB33
 6648 060d 05       		.uleb128 .LEHE276-.LEHB276
 6649 060e 00       		.uleb128 0
 6650 060f 00       		.uleb128 0
 6651 0610 AA09     		.uleb128 .LEHB277-.LCOLDB33
 6652 0612 05       		.uleb128 .LEHE277-.LEHB277
 6653 0613 00       		.uleb128 0
 6654 0614 00       		.uleb128 0
 6655 0615 BE09     		.uleb128 .LEHB278-.LCOLDB33
 6656 0617 05       		.uleb128 .LEHE278-.LEHB278
 6657 0618 00       		.uleb128 0
 6658 0619 00       		.uleb128 0
 6659 061a D209     		.uleb128 .LEHB279-.LCOLDB33
 6660 061c 05       		.uleb128 .LEHE279-.LEHB279
 6661 061d 00       		.uleb128 0
 6662 061e 00       		.uleb128 0
 6663 061f E609     		.uleb128 .LEHB280-.LCOLDB33
 6664 0621 05       		.uleb128 .LEHE280-.LEHB280
 6665 0622 00       		.uleb128 0
 6666 0623 00       		.uleb128 0
 6667 0624 FA09     		.uleb128 .LEHB281-.LCOLDB33
 6668 0626 05       		.uleb128 .LEHE281-.LEHB281
 6669 0627 00       		.uleb128 0
 6670 0628 00       		.uleb128 0
 6671 0629 8E0A     		.uleb128 .LEHB282-.LCOLDB33
 6672 062b 05       		.uleb128 .LEHE282-.LEHB282
 6673 062c 00       		.uleb128 0
 6674 062d 00       		.uleb128 0
 6675 062e A20A     		.uleb128 .LEHB283-.LCOLDB33
 6676 0630 05       		.uleb128 .LEHE283-.LEHB283
 6677 0631 00       		.uleb128 0
 6678 0632 00       		.uleb128 0
 6679 0633 B60A     		.uleb128 .LEHB284-.LCOLDB33
 6680 0635 05       		.uleb128 .LEHE284-.LEHB284
 6681 0636 00       		.uleb128 0
 6682 0637 00       		.uleb128 0
 6683 0638 CA0A     		.uleb128 .LEHB285-.LCOLDB33
 6684 063a 05       		.uleb128 .LEHE285-.LEHB285
 6685 063b 00       		.uleb128 0
 6686 063c 00       		.uleb128 0
 6687 063d DE0A     		.uleb128 .LEHB286-.LCOLDB33
 6688 063f 05       		.uleb128 .LEHE286-.LEHB286
 6689 0640 00       		.uleb128 0
 6690 0641 00       		.uleb128 0
 6691 0642 F20A     		.uleb128 .LEHB287-.LCOLDB33
 6692 0644 05       		.uleb128 .LEHE287-.LEHB287
 6693 0645 00       		.uleb128 0
 6694 0646 00       		.uleb128 0
 6695              	.LLSDACSEC1254:
 6696 0647 01       		.byte	0x1
 6697 0648 00       		.byte	0
 6698 0649 000000   		.align 4
 6699 064c 00000000 		.long	0
 6700              	
 6701              	.LLSDATTC1254:
 6702              		.section	.text.unlikely
 6703              		.text
 6705              		.section	.text.unlikely
 6707              	.LCOLDE33:
 6708              		.text
 6709              	.LHOTE33:
 6710              		.section	.rodata.str1.8
 6711 053b 00000000 		.align 8
 6711      00
 6712              	.LC34:
 6713 0540 556E6861 		.string	"Unhandled exception in CHECK_EQUAL(5UL, *item)"
 6713      6E646C65 
 6713      64206578 
 6713      63657074 
 6713      696F6E20 
 6714 056f 00       		.align 8
 6715              	.LC35:
 6716 0570 556E6861 		.string	"Unhandled exception in CHECK_EQUAL(6UL, *item)"
 6716      6E646C65 
 6716      64206578 
 6716      63657074 
 6716      696F6E20 
 6717 059f 00       		.align 8
 6718              	.LC36:
 6719 05a0 556E6861 		.string	"Unhandled exception in CHECK_EQUAL(7UL, *item)"
 6719      6E646C65 
 6719      64206578 
 6719      63657074 
 6719      696F6E20 
 6720 05cf 00       		.align 8
 6721              	.LC37:
 6722 05d0 556E6861 		.string	"Unhandled exception in CHECK_EQUAL(8UL, *item)"
 6722      6E646C65 
 6722      64206578 
 6722      63657074 
 6722      696F6E20 
 6723              		.section	.text.unlikely
 6724 11c5 90       		.align 2
 6725              	.LCOLDB38:
 6726              		.text
 6727              	.LHOTB38:
 6728              		.align 2
 6729 18e4 66662E0F 		.p2align 4
 6729      1F840000 
 6729      00000090 
 6730              		.globl	_ZNK21TestQueue_testPutTake7RunImplEv
 6732              	_ZNK21TestQueue_testPutTake7RunImplEv:
 6733              	.LFB1258:
 6734              		.cfi_startproc
 6735              		.cfi_personality 0x9b,DW.ref.__gxx_personality_v0
 6736              		.cfi_lsda 0x1b,.LLSDA1258
 6737 18f0 F30F1EFA 		endbr64
 6738 18f4 4156     		pushq	%r14
 6739              		.cfi_def_cfa_offset 16
 6740              		.cfi_offset 14, -16
 6741 18f6 488D0D00 		leaq	destroyInt(%rip), %rcx
 6741      000000
 6742 18fd BE040000 		movl	$4, %esi
 6742      00
 6743 1902 488D1500 		leaq	createInt(%rip), %rdx
 6743      000000
 6744 1909 4155     		pushq	%r13
 6745              		.cfi_def_cfa_offset 24
 6746              		.cfi_offset 13, -24
 6747 190b 4154     		pushq	%r12
 6748              		.cfi_def_cfa_offset 32
 6749              		.cfi_offset 12, -32
 6750 190d 55       		pushq	%rbp
 6751              		.cfi_def_cfa_offset 40
 6752              		.cfi_offset 6, -40
 6753 190e 4881EC88 		subq	$136, %rsp
 6753      000000
 6754              		.cfi_def_cfa_offset 176
 6755 1915 64488B04 		movq	%fs:40, %rax
 6755      25280000 
 6755      00
 6756 191e 48894424 		movq	%rax, 120(%rsp)
 6756      78
 6757 1923 31C0     		xorl	%eax, %eax
 6758 1925 4C8D6424 		leaq	64(%rsp), %r12
 6758      40
 6759 192a C7050000 		movl	$1, _ZL7m_count(%rip)
 6759      00000100 
 6759      0000
 6760 1934 4C89E7   		movq	%r12, %rdi
 6761              	.LEHB288:
 6762 1937 E8000000 		call	queueInit@PLT
 6762      00
 6763              	.LEHE288:
 6764 193c 89442408 		movl	%eax, 8(%rsp)
 6765              	.LEHB289:
 6766 1940 E8000000 		call	_ZN8UnitTest11CurrentTest7DetailsEv@PLT
 6766      00
 6767 1945 488D6C24 		leaq	32(%rsp), %rbp
 6767      20
 6768 194a 488B30   		movq	(%rax), %rsi
 6769 194d BAAD0000 		movl	$173, %edx
 6769      00
 6770 1952 4889EF   		movq	%rbp, %rdi
 6771 1955 E8000000 		call	_ZN8UnitTest11TestDetailsC1ERKS0_i@PLT
 6771      00
 6772 195a C7442418 		movl	$0, 24(%rsp)
 6772      00000000 
 6773 1962 E8000000 		call	_ZN8UnitTest11CurrentTest7ResultsEv@PLT
 6773      00
 6774 1967 488B38   		movq	(%rax), %rdi
 6775 196a 488D5424 		leaq	8(%rsp), %rdx
 6775      08
 6776 196f 488D7424 		leaq	24(%rsp), %rsi
 6776      18
 6777 1974 4889E9   		movq	%rbp, %rcx
 6778 1977 E8E4E9FF 		call	_ZN8UnitTest10CheckEqualI9USBStatusS1_EEvRNS_11TestResultsERKT_RKT0_RKNS_11TestDetailsE.const
 6778      FF
 6779              	.LEHE289:
 6780              	.L463:
 6781 197c 4C8D6C24 		leaq	16(%rsp), %r13
 6781      10
 6782 1981 4C89E7   		movq	%r12, %rdi
 6783 1984 4C89EE   		movq	%r13, %rsi
 6784              	.LEHB290:
 6785 1987 E8000000 		call	queuePut@PLT
 6785      00
 6786              	.LEHE290:
 6787 198c 89442408 		movl	%eax, 8(%rsp)
 6788              	.LEHB291:
 6789 1990 E8000000 		call	_ZN8UnitTest11CurrentTest7DetailsEv@PLT
 6789      00
 6790 1995 488B30   		movq	(%rax), %rsi
 6791 1998 BAB10000 		movl	$177, %edx
 6791      00
 6792 199d 4889EF   		movq	%rbp, %rdi
 6793 19a0 E8000000 		call	_ZN8UnitTest11TestDetailsC1ERKS0_i@PLT
 6793      00
 6794 19a5 C7442418 		movl	$0, 24(%rsp)
 6794      00000000 
 6795 19ad E8000000 		call	_ZN8UnitTest11CurrentTest7ResultsEv@PLT
 6795      00
 6796 19b2 488B38   		movq	(%rax), %rdi
 6797 19b5 488D5424 		leaq	8(%rsp), %rdx
 6797      08
 6798 19ba 488D7424 		leaq	24(%rsp), %rsi
 6798      18
 6799 19bf 4889E9   		movq	%rbp, %rcx
 6800 19c2 E899E9FF 		call	_ZN8UnitTest10CheckEqualI9USBStatusS1_EEvRNS_11TestResultsERKT_RKT0_RKNS_11TestDetailsE.const
 6800      FF
 6801              	.LEHE291:
 6802              	.L466:
 6803              	.LEHB292:
 6804 19c7 E8000000 		call	_ZN8UnitTest11CurrentTest7DetailsEv@PLT
 6804      00
 6805 19cc 488B30   		movq	(%rax), %rsi
 6806 19cf BAB20000 		movl	$178, %edx
 6806      00
 6807 19d4 4889EF   		movq	%rbp, %rdi
 6808 19d7 E8000000 		call	_ZN8UnitTest11TestDetailsC1ERKS0_i@PLT
 6808      00
 6809 19dc 48C74424 		movq	$1, 24(%rsp)
 6809      18010000 
 6809      00
 6810 19e5 4C8B7424 		movq	16(%rsp), %r14
 6810      10
 6811 19ea E8000000 		call	_ZN8UnitTest11CurrentTest7ResultsEv@PLT
 6811      00
 6812 19ef 488B38   		movq	(%rax), %rdi
 6813 19f2 488D7424 		leaq	24(%rsp), %rsi
 6813      18
 6814 19f7 4889E9   		movq	%rbp, %rcx
 6815 19fa 4C89F2   		movq	%r14, %rdx
 6816 19fd E8000000 		call	_ZN8UnitTest10CheckEqualImjEEvRNS_11TestResultsERKT_RKT0_RKNS_11TestDetailsE
 6816      00
 6817              	.LEHE292:
 6818              	.L469:
 6819 1a02 488B4424 		movq	16(%rsp), %rax
 6819      10
 6820 1a07 4C89E7   		movq	%r12, %rdi
 6821 1a0a C7000500 		movl	$5, (%rax)
 6821      0000
 6822              	.LEHB293:
 6823 1a10 E8000000 		call	queueCommitPut@PLT
 6823      00
 6824 1a15 4C89EE   		movq	%r13, %rsi
 6825 1a18 4C89E7   		movq	%r12, %rdi
 6826 1a1b E8000000 		call	queuePut@PLT
 6826      00
 6827              	.LEHE293:
 6828 1a20 89442408 		movl	%eax, 8(%rsp)
 6829              	.LEHB294:
 6830 1a24 E8000000 		call	_ZN8UnitTest11CurrentTest7DetailsEv@PLT
 6830      00
 6831 1a29 488B30   		movq	(%rax), %rsi
 6832 1a2c BAB60000 		movl	$182, %edx
 6832      00
 6833 1a31 4889EF   		movq	%rbp, %rdi
 6834 1a34 E8000000 		call	_ZN8UnitTest11TestDetailsC1ERKS0_i@PLT
 6834      00
 6835 1a39 C7442418 		movl	$0, 24(%rsp)
 6835      00000000 
 6836 1a41 E8000000 		call	_ZN8UnitTest11CurrentTest7ResultsEv@PLT
 6836      00
 6837 1a46 488B38   		movq	(%rax), %rdi
 6838 1a49 488D5424 		leaq	8(%rsp), %rdx
 6838      08
 6839 1a4e 488D7424 		leaq	24(%rsp), %rsi
 6839      18
 6840 1a53 4889E9   		movq	%rbp, %rcx
 6841 1a56 E805E9FF 		call	_ZN8UnitTest10CheckEqualI9USBStatusS1_EEvRNS_11TestResultsERKT_RKT0_RKNS_11TestDetailsE.const
 6841      FF
 6842              	.LEHE294:
 6843              	.L472:
 6844              	.LEHB295:
 6845 1a5b E8000000 		call	_ZN8UnitTest11CurrentTest7DetailsEv@PLT
 6845      00
 6846 1a60 488B30   		movq	(%rax), %rsi
 6847 1a63 BAB70000 		movl	$183, %edx
 6847      00
 6848 1a68 4889EF   		movq	%rbp, %rdi
 6849 1a6b E8000000 		call	_ZN8UnitTest11TestDetailsC1ERKS0_i@PLT
 6849      00
 6850 1a70 48C74424 		movq	$2, 24(%rsp)
 6850      18020000 
 6850      00
 6851 1a79 4C8B7424 		movq	16(%rsp), %r14
 6851      10
 6852 1a7e E8000000 		call	_ZN8UnitTest11CurrentTest7ResultsEv@PLT
 6852      00
 6853 1a83 488B38   		movq	(%rax), %rdi
 6854 1a86 488D7424 		leaq	24(%rsp), %rsi
 6854      18
 6855 1a8b 4889E9   		movq	%rbp, %rcx
 6856 1a8e 4C89F2   		movq	%r14, %rdx
 6857 1a91 E8000000 		call	_ZN8UnitTest10CheckEqualImjEEvRNS_11TestResultsERKT_RKT0_RKNS_11TestDetailsE
 6857      00
 6858              	.LEHE295:
 6859              	.L475:
 6860 1a96 488B4424 		movq	16(%rsp), %rax
 6860      10
 6861 1a9b 4C89E7   		movq	%r12, %rdi
 6862 1a9e C7000600 		movl	$6, (%rax)
 6862      0000
 6863              	.LEHB296:
 6864 1aa4 E8000000 		call	queueCommitPut@PLT
 6864      00
 6865 1aa9 4C89EE   		movq	%r13, %rsi
 6866 1aac 4C89E7   		movq	%r12, %rdi
 6867 1aaf E8000000 		call	queuePut@PLT
 6867      00
 6868              	.LEHE296:
 6869 1ab4 89442408 		movl	%eax, 8(%rsp)
 6870              	.LEHB297:
 6871 1ab8 E8000000 		call	_ZN8UnitTest11CurrentTest7DetailsEv@PLT
 6871      00
 6872 1abd 488B30   		movq	(%rax), %rsi
 6873 1ac0 BABB0000 		movl	$187, %edx
 6873      00
 6874 1ac5 4889EF   		movq	%rbp, %rdi
 6875 1ac8 E8000000 		call	_ZN8UnitTest11TestDetailsC1ERKS0_i@PLT
 6875      00
 6876 1acd C7442418 		movl	$0, 24(%rsp)
 6876      00000000 
 6877 1ad5 E8000000 		call	_ZN8UnitTest11CurrentTest7ResultsEv@PLT
 6877      00
 6878 1ada 488B38   		movq	(%rax), %rdi
 6879 1add 488D5424 		leaq	8(%rsp), %rdx
 6879      08
 6880 1ae2 488D7424 		leaq	24(%rsp), %rsi
 6880      18
 6881 1ae7 4889E9   		movq	%rbp, %rcx
 6882 1aea E871E8FF 		call	_ZN8UnitTest10CheckEqualI9USBStatusS1_EEvRNS_11TestResultsERKT_RKT0_RKNS_11TestDetailsE.const
 6882      FF
 6883              	.LEHE297:
 6884              	.L478:
 6885              	.LEHB298:
 6886 1aef E8000000 		call	_ZN8UnitTest11CurrentTest7DetailsEv@PLT
 6886      00
 6887 1af4 488B30   		movq	(%rax), %rsi
 6888 1af7 BABC0000 		movl	$188, %edx
 6888      00
 6889 1afc 4889EF   		movq	%rbp, %rdi
 6890 1aff E8000000 		call	_ZN8UnitTest11TestDetailsC1ERKS0_i@PLT
 6890      00
 6891 1b04 48C74424 		movq	$3, 24(%rsp)
 6891      18030000 
 6891      00
 6892 1b0d 4C8B7424 		movq	16(%rsp), %r14
 6892      10
 6893 1b12 E8000000 		call	_ZN8UnitTest11CurrentTest7ResultsEv@PLT
 6893      00
 6894 1b17 488B38   		movq	(%rax), %rdi
 6895 1b1a 488D7424 		leaq	24(%rsp), %rsi
 6895      18
 6896 1b1f 4889E9   		movq	%rbp, %rcx
 6897 1b22 4C89F2   		movq	%r14, %rdx
 6898 1b25 E8000000 		call	_ZN8UnitTest10CheckEqualImjEEvRNS_11TestResultsERKT_RKT0_RKNS_11TestDetailsE
 6898      00
 6899              	.LEHE298:
 6900              	.L481:
 6901 1b2a 488B4424 		movq	16(%rsp), %rax
 6901      10
 6902 1b2f 4C89E7   		movq	%r12, %rdi
 6903 1b32 C7000700 		movl	$7, (%rax)
 6903      0000
 6904              	.LEHB299:
 6905 1b38 E8000000 		call	queueCommitPut@PLT
 6905      00
 6906 1b3d 4C89EE   		movq	%r13, %rsi
 6907 1b40 4C89E7   		movq	%r12, %rdi
 6908 1b43 E8000000 		call	queuePut@PLT
 6908      00
 6909              	.LEHE299:
 6910 1b48 89442408 		movl	%eax, 8(%rsp)
 6911              	.LEHB300:
 6912 1b4c E8000000 		call	_ZN8UnitTest11CurrentTest7DetailsEv@PLT
 6912      00
 6913 1b51 488B30   		movq	(%rax), %rsi
 6914 1b54 BAC00000 		movl	$192, %edx
 6914      00
 6915 1b59 4889EF   		movq	%rbp, %rdi
 6916 1b5c E8000000 		call	_ZN8UnitTest11TestDetailsC1ERKS0_i@PLT
 6916      00
 6917 1b61 C7442418 		movl	$0, 24(%rsp)
 6917      00000000 
 6918 1b69 E8000000 		call	_ZN8UnitTest11CurrentTest7ResultsEv@PLT
 6918      00
 6919 1b6e 488B38   		movq	(%rax), %rdi
 6920 1b71 488D5424 		leaq	8(%rsp), %rdx
 6920      08
 6921 1b76 488D7424 		leaq	24(%rsp), %rsi
 6921      18
 6922 1b7b 4889E9   		movq	%rbp, %rcx
 6923 1b7e E8DDE7FF 		call	_ZN8UnitTest10CheckEqualI9USBStatusS1_EEvRNS_11TestResultsERKT_RKT0_RKNS_11TestDetailsE.const
 6923      FF
 6924              	.LEHE300:
 6925              	.L484:
 6926              	.LEHB301:
 6927 1b83 E8000000 		call	_ZN8UnitTest11CurrentTest7DetailsEv@PLT
 6927      00
 6928 1b88 488B30   		movq	(%rax), %rsi
 6929 1b8b BAC10000 		movl	$193, %edx
 6929      00
 6930 1b90 4889EF   		movq	%rbp, %rdi
 6931 1b93 E8000000 		call	_ZN8UnitTest11TestDetailsC1ERKS0_i@PLT
 6931      00
 6932 1b98 48C74424 		movq	$4, 24(%rsp)
 6932      18040000 
 6932      00
 6933 1ba1 4C8B7424 		movq	16(%rsp), %r14
 6933      10
 6934 1ba6 E8000000 		call	_ZN8UnitTest11CurrentTest7ResultsEv@PLT
 6934      00
 6935 1bab 488B38   		movq	(%rax), %rdi
 6936 1bae 488D7424 		leaq	24(%rsp), %rsi
 6936      18
 6937 1bb3 4889E9   		movq	%rbp, %rcx
 6938 1bb6 4C89F2   		movq	%r14, %rdx
 6939 1bb9 E8000000 		call	_ZN8UnitTest10CheckEqualImjEEvRNS_11TestResultsERKT_RKT0_RKNS_11TestDetailsE
 6939      00
 6940              	.LEHE301:
 6941              	.L487:
 6942 1bbe 488B4424 		movq	16(%rsp), %rax
 6942      10
 6943 1bc3 4C89E7   		movq	%r12, %rdi
 6944 1bc6 C7000800 		movl	$8, (%rax)
 6944      0000
 6945              	.LEHB302:
 6946 1bcc E8000000 		call	queueCommitPut@PLT
 6946      00
 6947 1bd1 4C89EE   		movq	%r13, %rsi
 6948 1bd4 4C89E7   		movq	%r12, %rdi
 6949 1bd7 E8000000 		call	queueTake@PLT
 6949      00
 6950              	.LEHE302:
 6951 1bdc 89442408 		movl	%eax, 8(%rsp)
 6952              	.LEHB303:
 6953 1be0 E8000000 		call	_ZN8UnitTest11CurrentTest7DetailsEv@PLT
 6953      00
 6954 1be5 488B30   		movq	(%rax), %rsi
 6955 1be8 BAC70000 		movl	$199, %edx
 6955      00
 6956 1bed 4889EF   		movq	%rbp, %rdi
 6957 1bf0 E8000000 		call	_ZN8UnitTest11TestDetailsC1ERKS0_i@PLT
 6957      00
 6958 1bf5 C7442418 		movl	$0, 24(%rsp)
 6958      00000000 
 6959 1bfd E8000000 		call	_ZN8UnitTest11CurrentTest7ResultsEv@PLT
 6959      00
 6960 1c02 488B38   		movq	(%rax), %rdi
 6961 1c05 488D5424 		leaq	8(%rsp), %rdx
 6961      08
 6962 1c0a 488D7424 		leaq	24(%rsp), %rsi
 6962      18
 6963 1c0f 4889E9   		movq	%rbp, %rcx
 6964 1c12 E849E7FF 		call	_ZN8UnitTest10CheckEqualI9USBStatusS1_EEvRNS_11TestResultsERKT_RKT0_RKNS_11TestDetailsE.const
 6964      FF
 6965              	.LEHE303:
 6966              	.L490:
 6967              	.LEHB304:
 6968 1c17 E8000000 		call	_ZN8UnitTest11CurrentTest7DetailsEv@PLT
 6968      00
 6969 1c1c 488B30   		movq	(%rax), %rsi
 6970 1c1f BAC80000 		movl	$200, %edx
 6970      00
 6971 1c24 4889EF   		movq	%rbp, %rdi
 6972 1c27 E8000000 		call	_ZN8UnitTest11TestDetailsC1ERKS0_i@PLT
 6972      00
 6973 1c2c 48C74424 		movq	$5, 24(%rsp)
 6973      18050000 
 6973      00
 6974 1c35 4C8B7424 		movq	16(%rsp), %r14
 6974      10
 6975 1c3a E8000000 		call	_ZN8UnitTest11CurrentTest7ResultsEv@PLT
 6975      00
 6976 1c3f 488B38   		movq	(%rax), %rdi
 6977 1c42 488D7424 		leaq	24(%rsp), %rsi
 6977      18
 6978 1c47 4889E9   		movq	%rbp, %rcx
 6979 1c4a 4C89F2   		movq	%r14, %rdx
 6980 1c4d E8000000 		call	_ZN8UnitTest10CheckEqualImjEEvRNS_11TestResultsERKT_RKT0_RKNS_11TestDetailsE
 6980      00
 6981              	.LEHE304:
 6982              	.L493:
 6983 1c52 4C89E7   		movq	%r12, %rdi
 6984              	.LEHB305:
 6985 1c55 E8000000 		call	queueCommitTake@PLT
 6985      00
 6986 1c5a 4C89EE   		movq	%r13, %rsi
 6987 1c5d 4C89E7   		movq	%r12, %rdi
 6988 1c60 E8000000 		call	queueTake@PLT
 6988      00
 6989              	.LEHE305:
 6990 1c65 89442408 		movl	%eax, 8(%rsp)
 6991              	.LEHB306:
 6992 1c69 E8000000 		call	_ZN8UnitTest11CurrentTest7DetailsEv@PLT
 6992      00
 6993 1c6e 488B30   		movq	(%rax), %rsi
 6994 1c71 BACB0000 		movl	$203, %edx
 6994      00
 6995 1c76 4889EF   		movq	%rbp, %rdi
 6996 1c79 E8000000 		call	_ZN8UnitTest11TestDetailsC1ERKS0_i@PLT
 6996      00
 6997 1c7e C7442418 		movl	$0, 24(%rsp)
 6997      00000000 
 6998 1c86 E8000000 		call	_ZN8UnitTest11CurrentTest7ResultsEv@PLT
 6998      00
 6999 1c8b 488B38   		movq	(%rax), %rdi
 7000 1c8e 488D5424 		leaq	8(%rsp), %rdx
 7000      08
 7001 1c93 488D7424 		leaq	24(%rsp), %rsi
 7001      18
 7002 1c98 4889E9   		movq	%rbp, %rcx
 7003 1c9b E8C0E6FF 		call	_ZN8UnitTest10CheckEqualI9USBStatusS1_EEvRNS_11TestResultsERKT_RKT0_RKNS_11TestDetailsE.const
 7003      FF
 7004              	.LEHE306:
 7005              	.L496:
 7006              	.LEHB307:
 7007 1ca0 E8000000 		call	_ZN8UnitTest11CurrentTest7DetailsEv@PLT
 7007      00
 7008 1ca5 488B30   		movq	(%rax), %rsi
 7009 1ca8 BACC0000 		movl	$204, %edx
 7009      00
 7010 1cad 4889EF   		movq	%rbp, %rdi
 7011 1cb0 E8000000 		call	_ZN8UnitTest11TestDetailsC1ERKS0_i@PLT
 7011      00
 7012 1cb5 48C74424 		movq	$6, 24(%rsp)
 7012      18060000 
 7012      00
 7013 1cbe 4C8B7424 		movq	16(%rsp), %r14
 7013      10
 7014 1cc3 E8000000 		call	_ZN8UnitTest11CurrentTest7ResultsEv@PLT
 7014      00
 7015 1cc8 488B38   		movq	(%rax), %rdi
 7016 1ccb 488D7424 		leaq	24(%rsp), %rsi
 7016      18
 7017 1cd0 4889E9   		movq	%rbp, %rcx
 7018 1cd3 4C89F2   		movq	%r14, %rdx
 7019 1cd6 E8000000 		call	_ZN8UnitTest10CheckEqualImjEEvRNS_11TestResultsERKT_RKT0_RKNS_11TestDetailsE
 7019      00
 7020              	.LEHE307:
 7021              	.L499:
 7022 1cdb 4C89E7   		movq	%r12, %rdi
 7023              	.LEHB308:
 7024 1cde E8000000 		call	queueCommitTake@PLT
 7024      00
 7025 1ce3 4C89EE   		movq	%r13, %rsi
 7026 1ce6 4C89E7   		movq	%r12, %rdi
 7027 1ce9 E8000000 		call	queueTake@PLT
 7027      00
 7028              	.LEHE308:
 7029 1cee 89442408 		movl	%eax, 8(%rsp)
 7030              	.LEHB309:
 7031 1cf2 E8000000 		call	_ZN8UnitTest11CurrentTest7DetailsEv@PLT
 7031      00
 7032 1cf7 488B30   		movq	(%rax), %rsi
 7033 1cfa BACF0000 		movl	$207, %edx
 7033      00
 7034 1cff 4889EF   		movq	%rbp, %rdi
 7035 1d02 E8000000 		call	_ZN8UnitTest11TestDetailsC1ERKS0_i@PLT
 7035      00
 7036 1d07 C7442418 		movl	$0, 24(%rsp)
 7036      00000000 
 7037 1d0f E8000000 		call	_ZN8UnitTest11CurrentTest7ResultsEv@PLT
 7037      00
 7038 1d14 488B38   		movq	(%rax), %rdi
 7039 1d17 488D5424 		leaq	8(%rsp), %rdx
 7039      08
 7040 1d1c 488D7424 		leaq	24(%rsp), %rsi
 7040      18
 7041 1d21 4889E9   		movq	%rbp, %rcx
 7042 1d24 E837E6FF 		call	_ZN8UnitTest10CheckEqualI9USBStatusS1_EEvRNS_11TestResultsERKT_RKT0_RKNS_11TestDetailsE.const
 7042      FF
 7043              	.LEHE309:
 7044              	.L502:
 7045              	.LEHB310:
 7046 1d29 E8000000 		call	_ZN8UnitTest11CurrentTest7DetailsEv@PLT
 7046      00
 7047 1d2e 488B30   		movq	(%rax), %rsi
 7048 1d31 BAD00000 		movl	$208, %edx
 7048      00
 7049 1d36 4889EF   		movq	%rbp, %rdi
 7050 1d39 E8000000 		call	_ZN8UnitTest11TestDetailsC1ERKS0_i@PLT
 7050      00
 7051 1d3e 48C74424 		movq	$7, 24(%rsp)
 7051      18070000 
 7051      00
 7052 1d47 4C8B7424 		movq	16(%rsp), %r14
 7052      10
 7053 1d4c E8000000 		call	_ZN8UnitTest11CurrentTest7ResultsEv@PLT
 7053      00
 7054 1d51 488B38   		movq	(%rax), %rdi
 7055 1d54 488D7424 		leaq	24(%rsp), %rsi
 7055      18
 7056 1d59 4889E9   		movq	%rbp, %rcx
 7057 1d5c 4C89F2   		movq	%r14, %rdx
 7058 1d5f E8000000 		call	_ZN8UnitTest10CheckEqualImjEEvRNS_11TestResultsERKT_RKT0_RKNS_11TestDetailsE
 7058      00
 7059              	.LEHE310:
 7060              	.L505:
 7061 1d64 4C89E7   		movq	%r12, %rdi
 7062              	.LEHB311:
 7063 1d67 E8000000 		call	queueCommitTake@PLT
 7063      00
 7064 1d6c 4C89EE   		movq	%r13, %rsi
 7065 1d6f 4C89E7   		movq	%r12, %rdi
 7066 1d72 E8000000 		call	queueTake@PLT
 7066      00
 7067              	.LEHE311:
 7068 1d77 89442408 		movl	%eax, 8(%rsp)
 7069              	.LEHB312:
 7070 1d7b E8000000 		call	_ZN8UnitTest11CurrentTest7DetailsEv@PLT
 7070      00
 7071 1d80 488B30   		movq	(%rax), %rsi
 7072 1d83 BAD30000 		movl	$211, %edx
 7072      00
 7073 1d88 4889EF   		movq	%rbp, %rdi
 7074 1d8b E8000000 		call	_ZN8UnitTest11TestDetailsC1ERKS0_i@PLT
 7074      00
 7075 1d90 C7442418 		movl	$0, 24(%rsp)
 7075      00000000 
 7076 1d98 E8000000 		call	_ZN8UnitTest11CurrentTest7ResultsEv@PLT
 7076      00
 7077 1d9d 488B38   		movq	(%rax), %rdi
 7078 1da0 488D5424 		leaq	8(%rsp), %rdx
 7078      08
 7079 1da5 488D7424 		leaq	24(%rsp), %rsi
 7079      18
 7080 1daa 4889E9   		movq	%rbp, %rcx
 7081 1dad E8AEE5FF 		call	_ZN8UnitTest10CheckEqualI9USBStatusS1_EEvRNS_11TestResultsERKT_RKT0_RKNS_11TestDetailsE.const
 7081      FF
 7082              	.LEHE312:
 7083              	.L508:
 7084              	.LEHB313:
 7085 1db2 E8000000 		call	_ZN8UnitTest11CurrentTest7DetailsEv@PLT
 7085      00
 7086 1db7 488B30   		movq	(%rax), %rsi
 7087 1dba BAD40000 		movl	$212, %edx
 7087      00
 7088 1dbf 4889EF   		movq	%rbp, %rdi
 7089 1dc2 E8000000 		call	_ZN8UnitTest11TestDetailsC1ERKS0_i@PLT
 7089      00
 7090 1dc7 48C74424 		movq	$8, 24(%rsp)
 7090      18080000 
 7090      00
 7091 1dd0 4C8B6C24 		movq	16(%rsp), %r13
 7091      10
 7092 1dd5 E8000000 		call	_ZN8UnitTest11CurrentTest7ResultsEv@PLT
 7092      00
 7093 1dda 488B38   		movq	(%rax), %rdi
 7094 1ddd 488D7424 		leaq	24(%rsp), %rsi
 7094      18
 7095 1de2 4889E9   		movq	%rbp, %rcx
 7096 1de5 4C89EA   		movq	%r13, %rdx
 7097 1de8 E8000000 		call	_ZN8UnitTest10CheckEqualImjEEvRNS_11TestResultsERKT_RKT0_RKNS_11TestDetailsE
 7097      00
 7098              	.LEHE313:
 7099              	.L511:
 7100 1ded 4C89E7   		movq	%r12, %rdi
 7101              	.LEHB314:
 7102 1df0 E8000000 		call	queueCommitTake@PLT
 7102      00
 7103              	.LEHE314:
 7104              	.LEHB315:
 7105 1df5 E8000000 		call	_ZN8UnitTest11CurrentTest7DetailsEv@PLT
 7105      00
 7106 1dfa 488B30   		movq	(%rax), %rsi
 7107 1dfd BAD80000 		movl	$216, %edx
 7107      00
 7108 1e02 4889EF   		movq	%rbp, %rdi
 7109 1e05 E8000000 		call	_ZN8UnitTest11TestDetailsC1ERKS0_i@PLT
 7109      00
 7110 1e0a 48C74424 		movq	$4, 24(%rsp)
 7110      18040000 
 7110      00
 7111 1e13 E8000000 		call	_ZN8UnitTest11CurrentTest7ResultsEv@PLT
 7111      00
 7112 1e18 488B38   		movq	(%rax), %rdi
 7113 1e1b 488D5424 		leaq	72(%rsp), %rdx
 7113      48
 7114 1e20 488D7424 		leaq	24(%rsp), %rsi
 7114      18
 7115 1e25 4889E9   		movq	%rbp, %rcx
 7116 1e28 E8000000 		call	_ZN8UnitTest10CheckEqualImmEEvRNS_11TestResultsERKT_RKT0_RKNS_11TestDetailsE
 7116      00
 7117              	.LEHE315:
 7118              	.L514:
 7119              	.LEHB316:
 7120 1e2d E8000000 		call	_ZN8UnitTest11CurrentTest7DetailsEv@PLT
 7120      00
 7121 1e32 488B30   		movq	(%rax), %rsi
 7122 1e35 BAD90000 		movl	$217, %edx
 7122      00
 7123 1e3a 4889EF   		movq	%rbp, %rdi
 7124 1e3d E8000000 		call	_ZN8UnitTest11TestDetailsC1ERKS0_i@PLT
 7124      00
 7125 1e42 48C74424 		movq	$0, 24(%rsp)
 7125      18000000 
 7125      00
 7126 1e4b E8000000 		call	_ZN8UnitTest11CurrentTest7ResultsEv@PLT
 7126      00
 7127 1e50 488B38   		movq	(%rax), %rdi
 7128 1e53 488D5424 		leaq	80(%rsp), %rdx
 7128      50
 7129 1e58 488D7424 		leaq	24(%rsp), %rsi
 7129      18
 7130 1e5d 4889E9   		movq	%rbp, %rcx
 7131 1e60 E8000000 		call	_ZN8UnitTest10CheckEqualImmEEvRNS_11TestResultsERKT_RKT0_RKNS_11TestDetailsE
 7131      00
 7132              	.LEHE316:
 7133              	.L517:
 7134              	.LEHB317:
 7135 1e65 E8000000 		call	_ZN8UnitTest11CurrentTest7DetailsEv@PLT
 7135      00
 7136 1e6a 488B30   		movq	(%rax), %rsi
 7137 1e6d BADA0000 		movl	$218, %edx
 7137      00
 7138 1e72 4889EF   		movq	%rbp, %rdi
 7139 1e75 E8000000 		call	_ZN8UnitTest11TestDetailsC1ERKS0_i@PLT
 7139      00
 7140 1e7a 48C74424 		movq	$0, 24(%rsp)
 7140      18000000 
 7140      00
 7141 1e83 E8000000 		call	_ZN8UnitTest11CurrentTest7ResultsEv@PLT
 7141      00
 7142 1e88 488B38   		movq	(%rax), %rdi
 7143 1e8b 488D5424 		leaq	88(%rsp), %rdx
 7143      58
 7144 1e90 488D7424 		leaq	24(%rsp), %rsi
 7144      18
 7145 1e95 4889E9   		movq	%rbp, %rcx
 7146 1e98 E8000000 		call	_ZN8UnitTest10CheckEqualImmEEvRNS_11TestResultsERKT_RKT0_RKNS_11TestDetailsE
 7146      00
 7147              	.LEHE317:
 7148              	.L520:
 7149              	.LEHB318:
 7150 1e9d E8000000 		call	_ZN8UnitTest11CurrentTest7DetailsEv@PLT
 7150      00
 7151 1ea2 488B30   		movq	(%rax), %rsi
 7152 1ea5 BADB0000 		movl	$219, %edx
 7152      00
 7153 1eaa 4889EF   		movq	%rbp, %rdi
 7154 1ead E8000000 		call	_ZN8UnitTest11TestDetailsC1ERKS0_i@PLT
 7154      00
 7155 1eb2 48C74424 		movq	$0, 24(%rsp)
 7155      18000000 
 7155      00
 7156 1ebb E8000000 		call	_ZN8UnitTest11CurrentTest7ResultsEv@PLT
 7156      00
 7157 1ec0 488B38   		movq	(%rax), %rdi
 7158 1ec3 488D5424 		leaq	96(%rsp), %rdx
 7158      60
 7159 1ec8 488D7424 		leaq	24(%rsp), %rsi
 7159      18
 7160 1ecd 4889E9   		movq	%rbp, %rcx
 7161 1ed0 E8000000 		call	_ZN8UnitTest10CheckEqualImmEEvRNS_11TestResultsERKT_RKT0_RKNS_11TestDetailsE
 7161      00
 7162              	.LEHE318:
 7163              	.L523:
 7164              	.LEHB319:
 7165 1ed5 E8000000 		call	_ZN8UnitTest11CurrentTest7DetailsEv@PLT
 7165      00
 7166 1eda 488B30   		movq	(%rax), %rsi
 7167 1edd BADE0000 		movl	$222, %edx
 7167      00
 7168 1ee2 4889EF   		movq	%rbp, %rdi
 7169 1ee5 E8000000 		call	_ZN8UnitTest11TestDetailsC1ERKS0_i@PLT
 7169      00
 7170 1eea 48C74424 		movq	$5, 24(%rsp)
 7170      18050000 
 7170      00
 7171 1ef3 488B4424 		movq	64(%rsp), %rax
 7171      40
 7172 1ef8 488B00   		movq	(%rax), %rax
 7173 1efb 8B00     		movl	(%rax), %eax
 7174 1efd 8944240C 		movl	%eax, 12(%rsp)
 7175 1f01 E8000000 		call	_ZN8UnitTest11CurrentTest7ResultsEv@PLT
 7175      00
 7176 1f06 488B38   		movq	(%rax), %rdi
 7177 1f09 488D5424 		leaq	12(%rsp), %rdx
 7177      0C
 7178 1f0e 488D7424 		leaq	24(%rsp), %rsi
 7178      18
 7179 1f13 4889E9   		movq	%rbp, %rcx
 7180 1f16 E8000000 		call	_ZN8UnitTest10CheckEqualImjEEvRNS_11TestResultsERKT_RKT0_RKNS_11TestDetailsE
 7180      00
 7181              	.LEHE319:
 7182              	.L526:
 7183              	.LEHB320:
 7184 1f1b E8000000 		call	_ZN8UnitTest11CurrentTest7DetailsEv@PLT
 7184      00
 7185 1f20 488B30   		movq	(%rax), %rsi
 7186 1f23 BADF0000 		movl	$223, %edx
 7186      00
 7187 1f28 4889EF   		movq	%rbp, %rdi
 7188 1f2b E8000000 		call	_ZN8UnitTest11TestDetailsC1ERKS0_i@PLT
 7188      00
 7189 1f30 48C74424 		movq	$6, 24(%rsp)
 7189      18060000 
 7189      00
 7190 1f39 488B4424 		movq	64(%rsp), %rax
 7190      40
 7191 1f3e 488B4008 		movq	8(%rax), %rax
 7192 1f42 8B00     		movl	(%rax), %eax
 7193 1f44 8944240C 		movl	%eax, 12(%rsp)
 7194 1f48 E8000000 		call	_ZN8UnitTest11CurrentTest7ResultsEv@PLT
 7194      00
 7195 1f4d 488B38   		movq	(%rax), %rdi
 7196 1f50 488D5424 		leaq	12(%rsp), %rdx
 7196      0C
 7197 1f55 488D7424 		leaq	24(%rsp), %rsi
 7197      18
 7198 1f5a 4889E9   		movq	%rbp, %rcx
 7199 1f5d E8000000 		call	_ZN8UnitTest10CheckEqualImjEEvRNS_11TestResultsERKT_RKT0_RKNS_11TestDetailsE
 7199      00
 7200              	.LEHE320:
 7201              	.L529:
 7202              	.LEHB321:
 7203 1f62 E8000000 		call	_ZN8UnitTest11CurrentTest7DetailsEv@PLT
 7203      00
 7204 1f67 488B30   		movq	(%rax), %rsi
 7205 1f6a BAE00000 		movl	$224, %edx
 7205      00
 7206 1f6f 4889EF   		movq	%rbp, %rdi
 7207 1f72 E8000000 		call	_ZN8UnitTest11TestDetailsC1ERKS0_i@PLT
 7207      00
 7208 1f77 48C74424 		movq	$7, 24(%rsp)
 7208      18070000 
 7208      00
 7209 1f80 488B4424 		movq	64(%rsp), %rax
 7209      40
 7210 1f85 488B4010 		movq	16(%rax), %rax
 7211 1f89 8B00     		movl	(%rax), %eax
 7212 1f8b 8944240C 		movl	%eax, 12(%rsp)
 7213 1f8f E8000000 		call	_ZN8UnitTest11CurrentTest7ResultsEv@PLT
 7213      00
 7214 1f94 488B38   		movq	(%rax), %rdi
 7215 1f97 488D5424 		leaq	12(%rsp), %rdx
 7215      0C
 7216 1f9c 488D7424 		leaq	24(%rsp), %rsi
 7216      18
 7217 1fa1 4889E9   		movq	%rbp, %rcx
 7218 1fa4 E8000000 		call	_ZN8UnitTest10CheckEqualImjEEvRNS_11TestResultsERKT_RKT0_RKNS_11TestDetailsE
 7218      00
 7219              	.LEHE321:
 7220              	.L532:
 7221              	.LEHB322:
 7222 1fa9 E8000000 		call	_ZN8UnitTest11CurrentTest7DetailsEv@PLT
 7222      00
 7223 1fae 488B30   		movq	(%rax), %rsi
 7224 1fb1 BAE10000 		movl	$225, %edx
 7224      00
 7225 1fb6 4889EF   		movq	%rbp, %rdi
 7226 1fb9 E8000000 		call	_ZN8UnitTest11TestDetailsC1ERKS0_i@PLT
 7226      00
 7227 1fbe 48C74424 		movq	$8, 24(%rsp)
 7227      18080000 
 7227      00
 7228 1fc7 488B4424 		movq	64(%rsp), %rax
 7228      40
 7229 1fcc 488B4018 		movq	24(%rax), %rax
 7230 1fd0 8B00     		movl	(%rax), %eax
 7231 1fd2 8944240C 		movl	%eax, 12(%rsp)
 7232 1fd6 E8000000 		call	_ZN8UnitTest11CurrentTest7ResultsEv@PLT
 7232      00
 7233 1fdb 488B38   		movq	(%rax), %rdi
 7234 1fde 488D5424 		leaq	12(%rsp), %rdx
 7234      0C
 7235 1fe3 488D7424 		leaq	24(%rsp), %rsi
 7235      18
 7236 1fe8 4889E9   		movq	%rbp, %rcx
 7237 1feb E8000000 		call	_ZN8UnitTest10CheckEqualImjEEvRNS_11TestResultsERKT_RKT0_RKNS_11TestDetailsE
 7237      00
 7238              	.LEHE322:
 7239              	.L535:
 7240 1ff0 4C89E7   		movq	%r12, %rdi
 7241              	.LEHB323:
 7242 1ff3 E8000000 		call	queueDestroy@PLT
 7242      00
 7243              	.LEHE323:
 7244 1ff8 488B4424 		movq	120(%rsp), %rax
 7244      78
 7245 1ffd 64482B04 		subq	%fs:40, %rax
 7245      25280000 
 7245      00
 7246 2006 750F     		jne	.L590
 7247 2008 4881C488 		addq	$136, %rsp
 7247      000000
 7248              		.cfi_remember_state
 7249              		.cfi_def_cfa_offset 40
 7250 200f 5D       		popq	%rbp
 7251              		.cfi_def_cfa_offset 32
 7252 2010 415C     		popq	%r12
 7253              		.cfi_def_cfa_offset 24
 7254 2012 415D     		popq	%r13
 7255              		.cfi_def_cfa_offset 16
 7256 2014 415E     		popq	%r14
 7257              		.cfi_def_cfa_offset 8
 7258 2016 C3       		ret
 7259              	.L590:
 7260              		.cfi_restore_state
 7261 2017 E8000000 		call	__stack_chk_fail@PLT
 7261      00
 7262              	.L586:
 7263 201c F30F1EFA 		endbr64
 7264 2020 4889C7   		movq	%rax, %rdi
 7265 2023 E9000000 		jmp	.L534
 7265      00
 7266              	.L584:
 7267 2028 F30F1EFA 		endbr64
 7268 202c 4889C7   		movq	%rax, %rdi
 7269 202f E9000000 		jmp	.L531
 7269      00
 7270              	.L576:
 7271 2034 F30F1EFA 		endbr64
 7272 2038 4889C7   		movq	%rax, %rdi
 7273 203b E9000000 		jmp	.L519
 7273      00
 7274              	.L580:
 7275 2040 F30F1EFA 		endbr64
 7276 2044 4889C7   		movq	%rax, %rdi
 7277 2047 E9000000 		jmp	.L525
 7277      00
 7278              	.L572:
 7279 204c F30F1EFA 		endbr64
 7280 2050 4889C7   		movq	%rax, %rdi
 7281 2053 E9000000 		jmp	.L513
 7281      00
 7282              	.L582:
 7283 2058 F30F1EFA 		endbr64
 7284 205c 4889C7   		movq	%rax, %rdi
 7285 205f E9000000 		jmp	.L528
 7285      00
 7286              	.L574:
 7287 2064 F30F1EFA 		endbr64
 7288 2068 4889C7   		movq	%rax, %rdi
 7289 206b E9000000 		jmp	.L516
 7289      00
 7290              	.L578:
 7291 2070 F30F1EFA 		endbr64
 7292 2074 4889C7   		movq	%rax, %rdi
 7293 2077 E9000000 		jmp	.L522
 7293      00
 7294              	.L570:
 7295 207c F30F1EFA 		endbr64
 7296 2080 4889C7   		movq	%rax, %rdi
 7297 2083 E9000000 		jmp	.L510
 7297      00
 7298              	.L568:
 7299 2088 F30F1EFA 		endbr64
 7300 208c 4889C7   		movq	%rax, %rdi
 7301 208f E9000000 		jmp	.L507
 7301      00
 7302              	.L566:
 7303 2094 F30F1EFA 		endbr64
 7304 2098 4889C7   		movq	%rax, %rdi
 7305 209b E9000000 		jmp	.L504
 7305      00
 7306              	.L564:
 7307 20a0 F30F1EFA 		endbr64
 7308 20a4 4889C7   		movq	%rax, %rdi
 7309 20a7 E9000000 		jmp	.L501
 7309      00
 7310              	.L562:
 7311 20ac F30F1EFA 		endbr64
 7312 20b0 4889C7   		movq	%rax, %rdi
 7313 20b3 E9000000 		jmp	.L498
 7313      00
 7314              	.L560:
 7315 20b8 F30F1EFA 		endbr64
 7316 20bc 4889C7   		movq	%rax, %rdi
 7317 20bf E9000000 		jmp	.L495
 7317      00
 7318              	.L558:
 7319 20c4 F30F1EFA 		endbr64
 7320 20c8 4889C7   		movq	%rax, %rdi
 7321 20cb E9000000 		jmp	.L492
 7321      00
 7322              	.L556:
 7323 20d0 F30F1EFA 		endbr64
 7324 20d4 4889C7   		movq	%rax, %rdi
 7325 20d7 E9000000 		jmp	.L489
 7325      00
 7326              	.L554:
 7327 20dc F30F1EFA 		endbr64
 7328 20e0 4889C7   		movq	%rax, %rdi
 7329 20e3 E9000000 		jmp	.L486
 7329      00
 7330              	.L552:
 7331 20e8 F30F1EFA 		endbr64
 7332 20ec 4889C7   		movq	%rax, %rdi
 7333 20ef E9000000 		jmp	.L483
 7333      00
 7334              	.L550:
 7335 20f4 F30F1EFA 		endbr64
 7336 20f8 4889C7   		movq	%rax, %rdi
 7337 20fb E9000000 		jmp	.L480
 7337      00
 7338              	.L548:
 7339 2100 F30F1EFA 		endbr64
 7340 2104 4889C7   		movq	%rax, %rdi
 7341 2107 E9000000 		jmp	.L477
 7341      00
 7342              	.L546:
 7343 210c F30F1EFA 		endbr64
 7344 2110 4889C7   		movq	%rax, %rdi
 7345 2113 E9000000 		jmp	.L474
 7345      00
 7346              	.L544:
 7347 2118 F30F1EFA 		endbr64
 7348 211c 4889C7   		movq	%rax, %rdi
 7349 211f E9000000 		jmp	.L471
 7349      00
 7350              	.L542:
 7351 2124 F30F1EFA 		endbr64
 7352 2128 4889C7   		movq	%rax, %rdi
 7353 212b E9000000 		jmp	.L468
 7353      00
 7354              	.L540:
 7355 2130 F30F1EFA 		endbr64
 7356 2134 4889C7   		movq	%rax, %rdi
 7357 2137 E9000000 		jmp	.L465
 7357      00
 7358              	.L538:
 7359 213c F30F1EFA 		endbr64
 7360 2140 4889C7   		movq	%rax, %rdi
 7361 2143 E9000000 		jmp	.L462
 7361      00
 7362              		.section	.gcc_except_table
 7363              		.align 4
 7364              	.LLSDA1258:
 7365 0650 FF       		.byte	0xff
 7366 0651 9B       		.byte	0x9b
 7367 0652 D401     		.uleb128 .LLSDATT1258-.LLSDATTD1258
 7368              	.LLSDATTD1258:
 7369 0654 01       		.byte	0x1
 7370 0655 CB01     		.uleb128 .LLSDACSE1258-.LLSDACSB1258
 7371              	.LLSDACSB1258:
 7372 0657 47       		.uleb128 .LEHB288-.LFB1258
 7373 0658 05       		.uleb128 .LEHE288-.LEHB288
 7374 0659 00       		.uleb128 0
 7375 065a 00       		.uleb128 0
 7376 065b 50       		.uleb128 .LEHB289-.LFB1258
 7377 065c 3C       		.uleb128 .LEHE289-.LEHB289
 7378 065d CC10     		.uleb128 .L538-.LFB1258
 7379 065f 01       		.uleb128 0x1
 7380 0660 9701     		.uleb128 .LEHB290-.LFB1258
 7381 0662 05       		.uleb128 .LEHE290-.LEHB290
 7382 0663 00       		.uleb128 0
 7383 0664 00       		.uleb128 0
 7384 0665 A001     		.uleb128 .LEHB291-.LFB1258
 7385 0667 37       		.uleb128 .LEHE291-.LEHB291
 7386 0668 C010     		.uleb128 .L540-.LFB1258
 7387 066a 01       		.uleb128 0x1
 7388 066b D701     		.uleb128 .LEHB292-.LFB1258
 7389 066d 3B       		.uleb128 .LEHE292-.LEHB292
 7390 066e B410     		.uleb128 .L542-.LFB1258
 7391 0670 01       		.uleb128 0x1
 7392 0671 A002     		.uleb128 .LEHB293-.LFB1258
 7393 0673 10       		.uleb128 .LEHE293-.LEHB293
 7394 0674 00       		.uleb128 0
 7395 0675 00       		.uleb128 0
 7396 0676 B402     		.uleb128 .LEHB294-.LFB1258
 7397 0678 37       		.uleb128 .LEHE294-.LEHB294
 7398 0679 A810     		.uleb128 .L544-.LFB1258
 7399 067b 01       		.uleb128 0x1
 7400 067c EB02     		.uleb128 .LEHB295-.LFB1258
 7401 067e 3B       		.uleb128 .LEHE295-.LEHB295
 7402 067f 9C10     		.uleb128 .L546-.LFB1258
 7403 0681 01       		.uleb128 0x1
 7404 0682 B403     		.uleb128 .LEHB296-.LFB1258
 7405 0684 10       		.uleb128 .LEHE296-.LEHB296
 7406 0685 00       		.uleb128 0
 7407 0686 00       		.uleb128 0
 7408 0687 C803     		.uleb128 .LEHB297-.LFB1258
 7409 0689 37       		.uleb128 .LEHE297-.LEHB297
 7410 068a 9010     		.uleb128 .L548-.LFB1258
 7411 068c 01       		.uleb128 0x1
 7412 068d FF03     		.uleb128 .LEHB298-.LFB1258
 7413 068f 3B       		.uleb128 .LEHE298-.LEHB298
 7414 0690 8410     		.uleb128 .L550-.LFB1258
 7415 0692 01       		.uleb128 0x1
 7416 0693 C804     		.uleb128 .LEHB299-.LFB1258
 7417 0695 10       		.uleb128 .LEHE299-.LEHB299
 7418 0696 00       		.uleb128 0
 7419 0697 00       		.uleb128 0
 7420 0698 DC04     		.uleb128 .LEHB300-.LFB1258
 7421 069a 37       		.uleb128 .LEHE300-.LEHB300
 7422 069b F80F     		.uleb128 .L552-.LFB1258
 7423 069d 01       		.uleb128 0x1
 7424 069e 9305     		.uleb128 .LEHB301-.LFB1258
 7425 06a0 3B       		.uleb128 .LEHE301-.LEHB301
 7426 06a1 EC0F     		.uleb128 .L554-.LFB1258
 7427 06a3 01       		.uleb128 0x1
 7428 06a4 DC05     		.uleb128 .LEHB302-.LFB1258
 7429 06a6 10       		.uleb128 .LEHE302-.LEHB302
 7430 06a7 00       		.uleb128 0
 7431 06a8 00       		.uleb128 0
 7432 06a9 F005     		.uleb128 .LEHB303-.LFB1258
 7433 06ab 37       		.uleb128 .LEHE303-.LEHB303
 7434 06ac E00F     		.uleb128 .L556-.LFB1258
 7435 06ae 01       		.uleb128 0x1
 7436 06af A706     		.uleb128 .LEHB304-.LFB1258
 7437 06b1 3B       		.uleb128 .LEHE304-.LEHB304
 7438 06b2 D40F     		.uleb128 .L558-.LFB1258
 7439 06b4 01       		.uleb128 0x1
 7440 06b5 E506     		.uleb128 .LEHB305-.LFB1258
 7441 06b7 10       		.uleb128 .LEHE305-.LEHB305
 7442 06b8 00       		.uleb128 0
 7443 06b9 00       		.uleb128 0
 7444 06ba F906     		.uleb128 .LEHB306-.LFB1258
 7445 06bc 37       		.uleb128 .LEHE306-.LEHB306
 7446 06bd C80F     		.uleb128 .L560-.LFB1258
 7447 06bf 01       		.uleb128 0x1
 7448 06c0 B007     		.uleb128 .LEHB307-.LFB1258
 7449 06c2 3B       		.uleb128 .LEHE307-.LEHB307
 7450 06c3 BC0F     		.uleb128 .L562-.LFB1258
 7451 06c5 01       		.uleb128 0x1
 7452 06c6 EE07     		.uleb128 .LEHB308-.LFB1258
 7453 06c8 10       		.uleb128 .LEHE308-.LEHB308
 7454 06c9 00       		.uleb128 0
 7455 06ca 00       		.uleb128 0
 7456 06cb 8208     		.uleb128 .LEHB309-.LFB1258
 7457 06cd 37       		.uleb128 .LEHE309-.LEHB309
 7458 06ce B00F     		.uleb128 .L564-.LFB1258
 7459 06d0 01       		.uleb128 0x1
 7460 06d1 B908     		.uleb128 .LEHB310-.LFB1258
 7461 06d3 3B       		.uleb128 .LEHE310-.LEHB310
 7462 06d4 A40F     		.uleb128 .L566-.LFB1258
 7463 06d6 01       		.uleb128 0x1
 7464 06d7 F708     		.uleb128 .LEHB311-.LFB1258
 7465 06d9 10       		.uleb128 .LEHE311-.LEHB311
 7466 06da 00       		.uleb128 0
 7467 06db 00       		.uleb128 0
 7468 06dc 8B09     		.uleb128 .LEHB312-.LFB1258
 7469 06de 37       		.uleb128 .LEHE312-.LEHB312
 7470 06df 980F     		.uleb128 .L568-.LFB1258
 7471 06e1 01       		.uleb128 0x1
 7472 06e2 C209     		.uleb128 .LEHB313-.LFB1258
 7473 06e4 3B       		.uleb128 .LEHE313-.LEHB313
 7474 06e5 8C0F     		.uleb128 .L570-.LFB1258
 7475 06e7 01       		.uleb128 0x1
 7476 06e8 800A     		.uleb128 .LEHB314-.LFB1258
 7477 06ea 05       		.uleb128 .LEHE314-.LEHB314
 7478 06eb 00       		.uleb128 0
 7479 06ec 00       		.uleb128 0
 7480 06ed 850A     		.uleb128 .LEHB315-.LFB1258
 7481 06ef 38       		.uleb128 .LEHE315-.LEHB315
 7482 06f0 DC0E     		.uleb128 .L572-.LFB1258
 7483 06f2 01       		.uleb128 0x1
 7484 06f3 BD0A     		.uleb128 .LEHB316-.LFB1258
 7485 06f5 38       		.uleb128 .LEHE316-.LEHB316
 7486 06f6 F40E     		.uleb128 .L574-.LFB1258
 7487 06f8 01       		.uleb128 0x1
 7488 06f9 F50A     		.uleb128 .LEHB317-.LFB1258
 7489 06fb 38       		.uleb128 .LEHE317-.LEHB317
 7490 06fc C40E     		.uleb128 .L576-.LFB1258
 7491 06fe 01       		.uleb128 0x1
 7492 06ff AD0B     		.uleb128 .LEHB318-.LFB1258
 7493 0701 38       		.uleb128 .LEHE318-.LEHB318
 7494 0702 800F     		.uleb128 .L578-.LFB1258
 7495 0704 01       		.uleb128 0x1
 7496 0705 E50B     		.uleb128 .LEHB319-.LFB1258
 7497 0707 46       		.uleb128 .LEHE319-.LEHB319
 7498 0708 D00E     		.uleb128 .L580-.LFB1258
 7499 070a 01       		.uleb128 0x1
 7500 070b AB0C     		.uleb128 .LEHB320-.LFB1258
 7501 070d 47       		.uleb128 .LEHE320-.LEHB320
 7502 070e E80E     		.uleb128 .L582-.LFB1258
 7503 0710 01       		.uleb128 0x1
 7504 0711 F20C     		.uleb128 .LEHB321-.LFB1258
 7505 0713 47       		.uleb128 .LEHE321-.LEHB321
 7506 0714 B80E     		.uleb128 .L584-.LFB1258
 7507 0716 01       		.uleb128 0x1
 7508 0717 B90D     		.uleb128 .LEHB322-.LFB1258
 7509 0719 47       		.uleb128 .LEHE322-.LEHB322
 7510 071a AC0E     		.uleb128 .L586-.LFB1258
 7511 071c 01       		.uleb128 0x1
 7512 071d 830E     		.uleb128 .LEHB323-.LFB1258
 7513 071f 05       		.uleb128 .LEHE323-.LEHB323
 7514 0720 00       		.uleb128 0
 7515 0721 00       		.uleb128 0
 7516              	.LLSDACSE1258:
 7517 0722 01       		.byte	0x1
 7518 0723 00       		.byte	0
 7519              		.align 4
 7520 0724 00000000 		.long	0
 7521              	
 7522              	.LLSDATT1258:
 7523              		.text
 7524              		.cfi_endproc
 7525              		.section	.text.unlikely
 7526              		.cfi_startproc
 7527              		.cfi_personality 0x9b,DW.ref.__gxx_personality_v0
 7528              		.cfi_lsda 0x1b,.LLSDAC1258
 7530              	_ZNK21TestQueue_testPutTake7RunImplEv.cold:
 7531              	.LFSB1258:
 7532              	.L534:
 7533              		.cfi_def_cfa_offset 176
 7534              		.cfi_offset 6, -40
 7535              		.cfi_offset 12, -32
 7536              		.cfi_offset 13, -24
 7537              		.cfi_offset 14, -16
 7538 11c6 E8000000 		call	__cxa_begin_catch@PLT
 7538      00
 7539              	.LEHB324:
 7540 11cb E8000000 		call	_ZN8UnitTest11CurrentTest7ResultsEv@PLT
 7540      00
 7541 11d0 4C8B28   		movq	(%rax), %r13
 7542 11d3 E8000000 		call	_ZN8UnitTest11CurrentTest7DetailsEv@PLT
 7542      00
 7543 11d8 488B30   		movq	(%rax), %rsi
 7544 11db BAE10000 		movl	$225, %edx
 7544      00
 7545 11e0 4889EF   		movq	%rbp, %rdi
 7546 11e3 E8000000 		call	_ZN8UnitTest11TestDetailsC1ERKS0_i@PLT
 7546      00
 7547 11e8 488D1500 		leaq	.LC32(%rip), %rdx
 7547      000000
 7548 11ef 4889EE   		movq	%rbp, %rsi
 7549 11f2 4C89EF   		movq	%r13, %rdi
 7550 11f5 E8000000 		call	_ZN8UnitTest11TestResults13OnTestFailureERKNS_11TestDetailsEPKc@PLT
 7550      00
 7551              	.LEHE324:
 7552              	.LEHB325:
 7553 11fa E8000000 		call	__cxa_end_catch@PLT
 7553      00
 7554              	.LEHE325:
 7555 11ff E9000000 		jmp	.L535
 7555      00
 7556              	.L531:
 7557 1204 E8000000 		call	__cxa_begin_catch@PLT
 7557      00
 7558              	.LEHB326:
 7559 1209 E8000000 		call	_ZN8UnitTest11CurrentTest7ResultsEv@PLT
 7559      00
 7560 120e 4C8B28   		movq	(%rax), %r13
 7561 1211 E8000000 		call	_ZN8UnitTest11CurrentTest7DetailsEv@PLT
 7561      00
 7562 1216 488B30   		movq	(%rax), %rsi
 7563 1219 BAE00000 		movl	$224, %edx
 7563      00
 7564 121e 4889EF   		movq	%rbp, %rdi
 7565 1221 E8000000 		call	_ZN8UnitTest11TestDetailsC1ERKS0_i@PLT
 7565      00
 7566 1226 488D1500 		leaq	.LC28(%rip), %rdx
 7566      000000
 7567 122d 4889EE   		movq	%rbp, %rsi
 7568 1230 4C89EF   		movq	%r13, %rdi
 7569 1233 E8000000 		call	_ZN8UnitTest11TestResults13OnTestFailureERKNS_11TestDetailsEPKc@PLT
 7569      00
 7570              	.LEHE326:
 7571              	.LEHB327:
 7572 1238 E8000000 		call	__cxa_end_catch@PLT
 7572      00
 7573              	.LEHE327:
 7574 123d E9000000 		jmp	.L532
 7574      00
 7575              	.L519:
 7576 1242 E8000000 		call	__cxa_begin_catch@PLT
 7576      00
 7577              	.LEHB328:
 7578 1247 E8000000 		call	_ZN8UnitTest11CurrentTest7ResultsEv@PLT
 7578      00
 7579 124c 4C8B28   		movq	(%rax), %r13
 7580 124f E8000000 		call	_ZN8UnitTest11CurrentTest7DetailsEv@PLT
 7580      00
 7581 1254 488B30   		movq	(%rax), %rsi
 7582 1257 BADA0000 		movl	$218, %edx
 7582      00
 7583 125c 4889EF   		movq	%rbp, %rdi
 7584 125f E8000000 		call	_ZN8UnitTest11TestDetailsC1ERKS0_i@PLT
 7584      00
 7585 1264 488D1500 		leaq	.LC14(%rip), %rdx
 7585      000000
 7586 126b 4889EE   		movq	%rbp, %rsi
 7587 126e 4C89EF   		movq	%r13, %rdi
 7588 1271 E8000000 		call	_ZN8UnitTest11TestResults13OnTestFailureERKNS_11TestDetailsEPKc@PLT
 7588      00
 7589              	.LEHE328:
 7590              	.LEHB329:
 7591 1276 E8000000 		call	__cxa_end_catch@PLT
 7591      00
 7592              	.LEHE329:
 7593 127b E9000000 		jmp	.L520
 7593      00
 7594              	.L525:
 7595 1280 E8000000 		call	__cxa_begin_catch@PLT
 7595      00
 7596              	.LEHB330:
 7597 1285 E8000000 		call	_ZN8UnitTest11CurrentTest7ResultsEv@PLT
 7597      00
 7598 128a 4C8B28   		movq	(%rax), %r13
 7599 128d E8000000 		call	_ZN8UnitTest11CurrentTest7DetailsEv@PLT
 7599      00
 7600 1292 488B30   		movq	(%rax), %rsi
 7601 1295 BADE0000 		movl	$222, %edx
 7601      00
 7602 129a 4889EF   		movq	%rbp, %rdi
 7603 129d E8000000 		call	_ZN8UnitTest11TestDetailsC1ERKS0_i@PLT
 7603      00
 7604 12a2 488D1500 		leaq	.LC26(%rip), %rdx
 7604      000000
 7605 12a9 4889EE   		movq	%rbp, %rsi
 7606 12ac 4C89EF   		movq	%r13, %rdi
 7607 12af E8000000 		call	_ZN8UnitTest11TestResults13OnTestFailureERKNS_11TestDetailsEPKc@PLT
 7607      00
 7608              	.LEHE330:
 7609              	.LEHB331:
 7610 12b4 E8000000 		call	__cxa_end_catch@PLT
 7610      00
 7611              	.LEHE331:
 7612 12b9 E9000000 		jmp	.L526
 7612      00
 7613              	.L513:
 7614 12be E8000000 		call	__cxa_begin_catch@PLT
 7614      00
 7615              	.LEHB332:
 7616 12c3 E8000000 		call	_ZN8UnitTest11CurrentTest7ResultsEv@PLT
 7616      00
 7617 12c8 4C8B28   		movq	(%rax), %r13
 7618 12cb E8000000 		call	_ZN8UnitTest11CurrentTest7DetailsEv@PLT
 7618      00
 7619 12d0 488B30   		movq	(%rax), %rsi
 7620 12d3 BAD80000 		movl	$216, %edx
 7620      00
 7621 12d8 4889EF   		movq	%rbp, %rdi
 7622 12db E8000000 		call	_ZN8UnitTest11TestDetailsC1ERKS0_i@PLT
 7622      00
 7623 12e0 488D1500 		leaq	.LC12(%rip), %rdx
 7623      000000
 7624 12e7 4889EE   		movq	%rbp, %rsi
 7625 12ea 4C89EF   		movq	%r13, %rdi
 7626 12ed E8000000 		call	_ZN8UnitTest11TestResults13OnTestFailureERKNS_11TestDetailsEPKc@PLT
 7626      00
 7627              	.LEHE332:
 7628              	.LEHB333:
 7629 12f2 E8000000 		call	__cxa_end_catch@PLT
 7629      00
 7630              	.LEHE333:
 7631 12f7 E9000000 		jmp	.L514
 7631      00
 7632              	.L528:
 7633 12fc E8000000 		call	__cxa_begin_catch@PLT
 7633      00
 7634              	.LEHB334:
 7635 1301 E8000000 		call	_ZN8UnitTest11CurrentTest7ResultsEv@PLT
 7635      00
 7636 1306 4C8B28   		movq	(%rax), %r13
 7637 1309 E8000000 		call	_ZN8UnitTest11CurrentTest7DetailsEv@PLT
 7637      00
 7638 130e 488B30   		movq	(%rax), %rsi
 7639 1311 BADF0000 		movl	$223, %edx
 7639      00
 7640 1316 4889EF   		movq	%rbp, %rdi
 7641 1319 E8000000 		call	_ZN8UnitTest11TestDetailsC1ERKS0_i@PLT
 7641      00
 7642 131e 488D1500 		leaq	.LC27(%rip), %rdx
 7642      000000
 7643 1325 4889EE   		movq	%rbp, %rsi
 7644 1328 4C89EF   		movq	%r13, %rdi
 7645 132b E8000000 		call	_ZN8UnitTest11TestResults13OnTestFailureERKNS_11TestDetailsEPKc@PLT
 7645      00
 7646              	.LEHE334:
 7647              	.LEHB335:
 7648 1330 E8000000 		call	__cxa_end_catch@PLT
 7648      00
 7649              	.LEHE335:
 7650 1335 E9000000 		jmp	.L529
 7650      00
 7651              	.L516:
 7652 133a E8000000 		call	__cxa_begin_catch@PLT
 7652      00
 7653              	.LEHB336:
 7654 133f E8000000 		call	_ZN8UnitTest11CurrentTest7ResultsEv@PLT
 7654      00
 7655 1344 4C8B28   		movq	(%rax), %r13
 7656 1347 E8000000 		call	_ZN8UnitTest11CurrentTest7DetailsEv@PLT
 7656      00
 7657 134c 488B30   		movq	(%rax), %rsi
 7658 134f BAD90000 		movl	$217, %edx
 7658      00
 7659 1354 4889EF   		movq	%rbp, %rdi
 7660 1357 E8000000 		call	_ZN8UnitTest11TestDetailsC1ERKS0_i@PLT
 7660      00
 7661 135c 488D1500 		leaq	.LC13(%rip), %rdx
 7661      000000
 7662 1363 4889EE   		movq	%rbp, %rsi
 7663 1366 4C89EF   		movq	%r13, %rdi
 7664 1369 E8000000 		call	_ZN8UnitTest11TestResults13OnTestFailureERKNS_11TestDetailsEPKc@PLT
 7664      00
 7665              	.LEHE336:
 7666              	.LEHB337:
 7667 136e E8000000 		call	__cxa_end_catch@PLT
 7667      00
 7668              	.LEHE337:
 7669 1373 E9000000 		jmp	.L517
 7669      00
 7670              	.L522:
 7671 1378 E8000000 		call	__cxa_begin_catch@PLT
 7671      00
 7672              	.LEHB338:
 7673 137d E8000000 		call	_ZN8UnitTest11CurrentTest7ResultsEv@PLT
 7673      00
 7674 1382 4C8B28   		movq	(%rax), %r13
 7675 1385 E8000000 		call	_ZN8UnitTest11CurrentTest7DetailsEv@PLT
 7675      00
 7676 138a 488B30   		movq	(%rax), %rsi
 7677 138d BADB0000 		movl	$219, %edx
 7677      00
 7678 1392 4889EF   		movq	%rbp, %rdi
 7679 1395 E8000000 		call	_ZN8UnitTest11TestDetailsC1ERKS0_i@PLT
 7679      00
 7680 139a 488D1500 		leaq	.LC15(%rip), %rdx
 7680      000000
 7681 13a1 4889EE   		movq	%rbp, %rsi
 7682 13a4 4C89EF   		movq	%r13, %rdi
 7683 13a7 E8000000 		call	_ZN8UnitTest11TestResults13OnTestFailureERKNS_11TestDetailsEPKc@PLT
 7683      00
 7684              	.LEHE338:
 7685              	.LEHB339:
 7686 13ac E8000000 		call	__cxa_end_catch@PLT
 7686      00
 7687              	.LEHE339:
 7688 13b1 E9000000 		jmp	.L523
 7688      00
 7689              	.L510:
 7690 13b6 E8000000 		call	__cxa_begin_catch@PLT
 7690      00
 7691              	.LEHB340:
 7692 13bb E8000000 		call	_ZN8UnitTest11CurrentTest7ResultsEv@PLT
 7692      00
 7693 13c0 4C8B28   		movq	(%rax), %r13
 7694 13c3 E8000000 		call	_ZN8UnitTest11CurrentTest7DetailsEv@PLT
 7694      00
 7695 13c8 488B30   		movq	(%rax), %rsi
 7696 13cb BAD40000 		movl	$212, %edx
 7696      00
 7697 13d0 4889EF   		movq	%rbp, %rdi
 7698 13d3 E8000000 		call	_ZN8UnitTest11TestDetailsC1ERKS0_i@PLT
 7698      00
 7699 13d8 488D1500 		leaq	.LC37(%rip), %rdx
 7699      000000
 7700 13df 4889EE   		movq	%rbp, %rsi
 7701 13e2 4C89EF   		movq	%r13, %rdi
 7702 13e5 E8000000 		call	_ZN8UnitTest11TestResults13OnTestFailureERKNS_11TestDetailsEPKc@PLT
 7702      00
 7703              	.LEHE340:
 7704              	.LEHB341:
 7705 13ea E8000000 		call	__cxa_end_catch@PLT
 7705      00
 7706              	.LEHE341:
 7707 13ef E9000000 		jmp	.L511
 7707      00
 7708              	.L587:
 7709 13f4 F30F1EFA 		endbr64
 7710 13f8 4889C5   		movq	%rax, %rbp
 7711 13fb E8000000 		call	__cxa_end_catch@PLT
 7711      00
 7712 1400 4889EF   		movq	%rbp, %rdi
 7713              	.LEHB342:
 7714 1403 E8000000 		call	_Unwind_Resume@PLT
 7714      00
 7715              	.LEHE342:
 7716              	.L585:
 7717 1408 F30F1EFA 		endbr64
 7718 140c 4889C5   		movq	%rax, %rbp
 7719 140f E8000000 		call	__cxa_end_catch@PLT
 7719      00
 7720 1414 4889EF   		movq	%rbp, %rdi
 7721              	.LEHB343:
 7722 1417 E8000000 		call	_Unwind_Resume@PLT
 7722      00
 7723              	.LEHE343:
 7724              	.L583:
 7725 141c F30F1EFA 		endbr64
 7726 1420 4889C5   		movq	%rax, %rbp
 7727 1423 E8000000 		call	__cxa_end_catch@PLT
 7727      00
 7728 1428 4889EF   		movq	%rbp, %rdi
 7729              	.LEHB344:
 7730 142b E8000000 		call	_Unwind_Resume@PLT
 7730      00
 7731              	.LEHE344:
 7732              	.L581:
 7733 1430 F30F1EFA 		endbr64
 7734 1434 4889C5   		movq	%rax, %rbp
 7735 1437 E8000000 		call	__cxa_end_catch@PLT
 7735      00
 7736 143c 4889EF   		movq	%rbp, %rdi
 7737              	.LEHB345:
 7738 143f E8000000 		call	_Unwind_Resume@PLT
 7738      00
 7739              	.LEHE345:
 7740              	.L579:
 7741 1444 F30F1EFA 		endbr64
 7742 1448 4889C5   		movq	%rax, %rbp
 7743 144b E8000000 		call	__cxa_end_catch@PLT
 7743      00
 7744 1450 4889EF   		movq	%rbp, %rdi
 7745              	.LEHB346:
 7746 1453 E8000000 		call	_Unwind_Resume@PLT
 7746      00
 7747              	.LEHE346:
 7748              	.L577:
 7749 1458 F30F1EFA 		endbr64
 7750 145c 4889C5   		movq	%rax, %rbp
 7751 145f E8000000 		call	__cxa_end_catch@PLT
 7751      00
 7752 1464 4889EF   		movq	%rbp, %rdi
 7753              	.LEHB347:
 7754 1467 E8000000 		call	_Unwind_Resume@PLT
 7754      00
 7755              	.LEHE347:
 7756              	.L575:
 7757 146c F30F1EFA 		endbr64
 7758 1470 4889C5   		movq	%rax, %rbp
 7759 1473 E8000000 		call	__cxa_end_catch@PLT
 7759      00
 7760 1478 4889EF   		movq	%rbp, %rdi
 7761              	.LEHB348:
 7762 147b E8000000 		call	_Unwind_Resume@PLT
 7762      00
 7763              	.LEHE348:
 7764              	.L573:
 7765 1480 F30F1EFA 		endbr64
 7766 1484 4889C5   		movq	%rax, %rbp
 7767 1487 E8000000 		call	__cxa_end_catch@PLT
 7767      00
 7768 148c 4889EF   		movq	%rbp, %rdi
 7769              	.LEHB349:
 7770 148f E8000000 		call	_Unwind_Resume@PLT
 7770      00
 7771              	.LEHE349:
 7772              	.L571:
 7773 1494 F30F1EFA 		endbr64
 7774 1498 4889C5   		movq	%rax, %rbp
 7775 149b E8000000 		call	__cxa_end_catch@PLT
 7775      00
 7776 14a0 4889EF   		movq	%rbp, %rdi
 7777              	.LEHB350:
 7778 14a3 E8000000 		call	_Unwind_Resume@PLT
 7778      00
 7779              	.LEHE350:
 7780              	.L507:
 7781 14a8 E8000000 		call	__cxa_begin_catch@PLT
 7781      00
 7782              	.LEHB351:
 7783 14ad E8000000 		call	_ZN8UnitTest11CurrentTest7ResultsEv@PLT
 7783      00
 7784 14b2 4C8B28   		movq	(%rax), %r13
 7785 14b5 E8000000 		call	_ZN8UnitTest11CurrentTest7DetailsEv@PLT
 7785      00
 7786 14ba 488B30   		movq	(%rax), %rsi
 7787 14bd BAD30000 		movl	$211, %edx
 7787      00
 7788 14c2 4889EF   		movq	%rbp, %rdi
 7789 14c5 E8000000 		call	_ZN8UnitTest11TestDetailsC1ERKS0_i@PLT
 7789      00
 7790 14ca 488D1500 		leaq	.LC10(%rip), %rdx
 7790      000000
 7791 14d1 4889EE   		movq	%rbp, %rsi
 7792 14d4 4C89EF   		movq	%r13, %rdi
 7793 14d7 E8000000 		call	_ZN8UnitTest11TestResults13OnTestFailureERKNS_11TestDetailsEPKc@PLT
 7793      00
 7794              	.LEHE351:
 7795              	.LEHB352:
 7796 14dc E8000000 		call	__cxa_end_catch@PLT
 7796      00
 7797              	.LEHE352:
 7798 14e1 E9000000 		jmp	.L508
 7798      00
 7799              	.L504:
 7800 14e6 E8000000 		call	__cxa_begin_catch@PLT
 7800      00
 7801              	.LEHB353:
 7802 14eb E8000000 		call	_ZN8UnitTest11CurrentTest7ResultsEv@PLT
 7802      00
 7803 14f0 4C8B30   		movq	(%rax), %r14
 7804 14f3 E8000000 		call	_ZN8UnitTest11CurrentTest7DetailsEv@PLT
 7804      00
 7805 14f8 488B30   		movq	(%rax), %rsi
 7806 14fb BAD00000 		movl	$208, %edx
 7806      00
 7807 1500 4889EF   		movq	%rbp, %rdi
 7808 1503 E8000000 		call	_ZN8UnitTest11TestDetailsC1ERKS0_i@PLT
 7808      00
 7809 1508 488D1500 		leaq	.LC36(%rip), %rdx
 7809      000000
 7810 150f 4889EE   		movq	%rbp, %rsi
 7811 1512 4C89F7   		movq	%r14, %rdi
 7812 1515 E8000000 		call	_ZN8UnitTest11TestResults13OnTestFailureERKNS_11TestDetailsEPKc@PLT
 7812      00
 7813              	.LEHE353:
 7814              	.LEHB354:
 7815 151a E8000000 		call	__cxa_end_catch@PLT
 7815      00
 7816              	.LEHE354:
 7817 151f E9000000 		jmp	.L505
 7817      00
 7818              	.L569:
 7819 1524 F30F1EFA 		endbr64
 7820 1528 4889C5   		movq	%rax, %rbp
 7821 152b E8000000 		call	__cxa_end_catch@PLT
 7821      00
 7822 1530 4889EF   		movq	%rbp, %rdi
 7823              	.LEHB355:
 7824 1533 E8000000 		call	_Unwind_Resume@PLT
 7824      00
 7825              	.LEHE355:
 7826              	.L567:
 7827 1538 F30F1EFA 		endbr64
 7828 153c 4889C5   		movq	%rax, %rbp
 7829 153f E8000000 		call	__cxa_end_catch@PLT
 7829      00
 7830 1544 4889EF   		movq	%rbp, %rdi
 7831              	.LEHB356:
 7832 1547 E8000000 		call	_Unwind_Resume@PLT
 7832      00
 7833              	.LEHE356:
 7834              	.L501:
 7835 154c E8000000 		call	__cxa_begin_catch@PLT
 7835      00
 7836              	.LEHB357:
 7837 1551 E8000000 		call	_ZN8UnitTest11CurrentTest7ResultsEv@PLT
 7837      00
 7838 1556 4C8B30   		movq	(%rax), %r14
 7839 1559 E8000000 		call	_ZN8UnitTest11CurrentTest7DetailsEv@PLT
 7839      00
 7840 155e 488B30   		movq	(%rax), %rsi
 7841 1561 BACF0000 		movl	$207, %edx
 7841      00
 7842 1566 4889EF   		movq	%rbp, %rdi
 7843 1569 E8000000 		call	_ZN8UnitTest11TestDetailsC1ERKS0_i@PLT
 7843      00
 7844 156e 488D1500 		leaq	.LC10(%rip), %rdx
 7844      000000
 7845 1575 4889EE   		movq	%rbp, %rsi
 7846 1578 4C89F7   		movq	%r14, %rdi
 7847 157b E8000000 		call	_ZN8UnitTest11TestResults13OnTestFailureERKNS_11TestDetailsEPKc@PLT
 7847      00
 7848              	.LEHE357:
 7849              	.LEHB358:
 7850 1580 E8000000 		call	__cxa_end_catch@PLT
 7850      00
 7851              	.LEHE358:
 7852 1585 E9000000 		jmp	.L502
 7852      00
 7853              	.L498:
 7854 158a E8000000 		call	__cxa_begin_catch@PLT
 7854      00
 7855              	.LEHB359:
 7856 158f E8000000 		call	_ZN8UnitTest11CurrentTest7ResultsEv@PLT
 7856      00
 7857 1594 4C8B30   		movq	(%rax), %r14
 7858 1597 E8000000 		call	_ZN8UnitTest11CurrentTest7DetailsEv@PLT
 7858      00
 7859 159c 488B30   		movq	(%rax), %rsi
 7860 159f BACC0000 		movl	$204, %edx
 7860      00
 7861 15a4 4889EF   		movq	%rbp, %rdi
 7862 15a7 E8000000 		call	_ZN8UnitTest11TestDetailsC1ERKS0_i@PLT
 7862      00
 7863 15ac 488D1500 		leaq	.LC35(%rip), %rdx
 7863      000000
 7864 15b3 4889EE   		movq	%rbp, %rsi
 7865 15b6 4C89F7   		movq	%r14, %rdi
 7866 15b9 E8000000 		call	_ZN8UnitTest11TestResults13OnTestFailureERKNS_11TestDetailsEPKc@PLT
 7866      00
 7867              	.LEHE359:
 7868              	.LEHB360:
 7869 15be E8000000 		call	__cxa_end_catch@PLT
 7869      00
 7870              	.LEHE360:
 7871 15c3 E9000000 		jmp	.L499
 7871      00
 7872              	.L565:
 7873 15c8 F30F1EFA 		endbr64
 7874 15cc 4889C5   		movq	%rax, %rbp
 7875 15cf E8000000 		call	__cxa_end_catch@PLT
 7875      00
 7876 15d4 4889EF   		movq	%rbp, %rdi
 7877              	.LEHB361:
 7878 15d7 E8000000 		call	_Unwind_Resume@PLT
 7878      00
 7879              	.LEHE361:
 7880              	.L563:
 7881 15dc F30F1EFA 		endbr64
 7882 15e0 4889C5   		movq	%rax, %rbp
 7883 15e3 E8000000 		call	__cxa_end_catch@PLT
 7883      00
 7884 15e8 4889EF   		movq	%rbp, %rdi
 7885              	.LEHB362:
 7886 15eb E8000000 		call	_Unwind_Resume@PLT
 7886      00
 7887              	.LEHE362:
 7888              	.L495:
 7889 15f0 E8000000 		call	__cxa_begin_catch@PLT
 7889      00
 7890              	.LEHB363:
 7891 15f5 E8000000 		call	_ZN8UnitTest11CurrentTest7ResultsEv@PLT
 7891      00
 7892 15fa 4C8B30   		movq	(%rax), %r14
 7893 15fd E8000000 		call	_ZN8UnitTest11CurrentTest7DetailsEv@PLT
 7893      00
 7894 1602 488B30   		movq	(%rax), %rsi
 7895 1605 BACB0000 		movl	$203, %edx
 7895      00
 7896 160a 4889EF   		movq	%rbp, %rdi
 7897 160d E8000000 		call	_ZN8UnitTest11TestDetailsC1ERKS0_i@PLT
 7897      00
 7898 1612 488D1500 		leaq	.LC10(%rip), %rdx
 7898      000000
 7899 1619 4889EE   		movq	%rbp, %rsi
 7900 161c 4C89F7   		movq	%r14, %rdi
 7901 161f E8000000 		call	_ZN8UnitTest11TestResults13OnTestFailureERKNS_11TestDetailsEPKc@PLT
 7901      00
 7902              	.LEHE363:
 7903              	.LEHB364:
 7904 1624 E8000000 		call	__cxa_end_catch@PLT
 7904      00
 7905              	.LEHE364:
 7906 1629 E9000000 		jmp	.L496
 7906      00
 7907              	.L492:
 7908 162e E8000000 		call	__cxa_begin_catch@PLT
 7908      00
 7909              	.LEHB365:
 7910 1633 E8000000 		call	_ZN8UnitTest11CurrentTest7ResultsEv@PLT
 7910      00
 7911 1638 4C8B30   		movq	(%rax), %r14
 7912 163b E8000000 		call	_ZN8UnitTest11CurrentTest7DetailsEv@PLT
 7912      00
 7913 1640 488B30   		movq	(%rax), %rsi
 7914 1643 BAC80000 		movl	$200, %edx
 7914      00
 7915 1648 4889EF   		movq	%rbp, %rdi
 7916 164b E8000000 		call	_ZN8UnitTest11TestDetailsC1ERKS0_i@PLT
 7916      00
 7917 1650 488D1500 		leaq	.LC34(%rip), %rdx
 7917      000000
 7918 1657 4889EE   		movq	%rbp, %rsi
 7919 165a 4C89F7   		movq	%r14, %rdi
 7920 165d E8000000 		call	_ZN8UnitTest11TestResults13OnTestFailureERKNS_11TestDetailsEPKc@PLT
 7920      00
 7921              	.LEHE365:
 7922              	.LEHB366:
 7923 1662 E8000000 		call	__cxa_end_catch@PLT
 7923      00
 7924              	.LEHE366:
 7925 1667 E9000000 		jmp	.L493
 7925      00
 7926              	.L561:
 7927 166c F30F1EFA 		endbr64
 7928 1670 4889C5   		movq	%rax, %rbp
 7929 1673 E8000000 		call	__cxa_end_catch@PLT
 7929      00
 7930 1678 4889EF   		movq	%rbp, %rdi
 7931              	.LEHB367:
 7932 167b E8000000 		call	_Unwind_Resume@PLT
 7932      00
 7933              	.LEHE367:
 7934              	.L559:
 7935 1680 F30F1EFA 		endbr64
 7936 1684 4889C5   		movq	%rax, %rbp
 7937 1687 E8000000 		call	__cxa_end_catch@PLT
 7937      00
 7938 168c 4889EF   		movq	%rbp, %rdi
 7939              	.LEHB368:
 7940 168f E8000000 		call	_Unwind_Resume@PLT
 7940      00
 7941              	.LEHE368:
 7942              	.L489:
 7943 1694 E8000000 		call	__cxa_begin_catch@PLT
 7943      00
 7944              	.LEHB369:
 7945 1699 E8000000 		call	_ZN8UnitTest11CurrentTest7ResultsEv@PLT
 7945      00
 7946 169e 4C8B30   		movq	(%rax), %r14
 7947 16a1 E8000000 		call	_ZN8UnitTest11CurrentTest7DetailsEv@PLT
 7947      00
 7948 16a6 488B30   		movq	(%rax), %rsi
 7949 16a9 BAC70000 		movl	$199, %edx
 7949      00
 7950 16ae 4889EF   		movq	%rbp, %rdi
 7951 16b1 E8000000 		call	_ZN8UnitTest11TestDetailsC1ERKS0_i@PLT
 7951      00
 7952 16b6 488D1500 		leaq	.LC10(%rip), %rdx
 7952      000000
 7953 16bd 4889EE   		movq	%rbp, %rsi
 7954 16c0 4C89F7   		movq	%r14, %rdi
 7955 16c3 E8000000 		call	_ZN8UnitTest11TestResults13OnTestFailureERKNS_11TestDetailsEPKc@PLT
 7955      00
 7956              	.LEHE369:
 7957              	.LEHB370:
 7958 16c8 E8000000 		call	__cxa_end_catch@PLT
 7958      00
 7959              	.LEHE370:
 7960 16cd E9000000 		jmp	.L490
 7960      00
 7961              	.L486:
 7962 16d2 E8000000 		call	__cxa_begin_catch@PLT
 7962      00
 7963              	.LEHB371:
 7964 16d7 E8000000 		call	_ZN8UnitTest11CurrentTest7ResultsEv@PLT
 7964      00
 7965 16dc 4C8B30   		movq	(%rax), %r14
 7966 16df E8000000 		call	_ZN8UnitTest11CurrentTest7DetailsEv@PLT
 7966      00
 7967 16e4 488B30   		movq	(%rax), %rsi
 7968 16e7 BAC10000 		movl	$193, %edx
 7968      00
 7969 16ec 4889EF   		movq	%rbp, %rdi
 7970 16ef E8000000 		call	_ZN8UnitTest11TestDetailsC1ERKS0_i@PLT
 7970      00
 7971 16f4 488D1500 		leaq	.LC30(%rip), %rdx
 7971      000000
 7972 16fb 4889EE   		movq	%rbp, %rsi
 7973 16fe 4C89F7   		movq	%r14, %rdi
 7974 1701 E8000000 		call	_ZN8UnitTest11TestResults13OnTestFailureERKNS_11TestDetailsEPKc@PLT
 7974      00
 7975              	.LEHE371:
 7976              	.LEHB372:
 7977 1706 E8000000 		call	__cxa_end_catch@PLT
 7977      00
 7978              	.LEHE372:
 7979 170b E9000000 		jmp	.L487
 7979      00
 7980              	.L557:
 7981 1710 F30F1EFA 		endbr64
 7982 1714 4889C5   		movq	%rax, %rbp
 7983 1717 E8000000 		call	__cxa_end_catch@PLT
 7983      00
 7984 171c 4889EF   		movq	%rbp, %rdi
 7985              	.LEHB373:
 7986 171f E8000000 		call	_Unwind_Resume@PLT
 7986      00
 7987              	.LEHE373:
 7988              	.L555:
 7989 1724 F30F1EFA 		endbr64
 7990 1728 4889C5   		movq	%rax, %rbp
 7991 172b E8000000 		call	__cxa_end_catch@PLT
 7991      00
 7992 1730 4889EF   		movq	%rbp, %rdi
 7993              	.LEHB374:
 7994 1733 E8000000 		call	_Unwind_Resume@PLT
 7994      00
 7995              	.LEHE374:
 7996              	.L483:
 7997 1738 E8000000 		call	__cxa_begin_catch@PLT
 7997      00
 7998              	.LEHB375:
 7999 173d E8000000 		call	_ZN8UnitTest11CurrentTest7ResultsEv@PLT
 7999      00
 8000 1742 4C8B30   		movq	(%rax), %r14
 8001 1745 E8000000 		call	_ZN8UnitTest11CurrentTest7DetailsEv@PLT
 8001      00
 8002 174a 488B30   		movq	(%rax), %rsi
 8003 174d BAC00000 		movl	$192, %edx
 8003      00
 8004 1752 4889EF   		movq	%rbp, %rdi
 8005 1755 E8000000 		call	_ZN8UnitTest11TestDetailsC1ERKS0_i@PLT
 8005      00
 8006 175a 488D1500 		leaq	.LC10(%rip), %rdx
 8006      000000
 8007 1761 4889EE   		movq	%rbp, %rsi
 8008 1764 4C89F7   		movq	%r14, %rdi
 8009 1767 E8000000 		call	_ZN8UnitTest11TestResults13OnTestFailureERKNS_11TestDetailsEPKc@PLT
 8009      00
 8010              	.LEHE375:
 8011              	.LEHB376:
 8012 176c E8000000 		call	__cxa_end_catch@PLT
 8012      00
 8013              	.LEHE376:
 8014 1771 E9000000 		jmp	.L484
 8014      00
 8015              	.L480:
 8016 1776 E8000000 		call	__cxa_begin_catch@PLT
 8016      00
 8017              	.LEHB377:
 8018 177b E8000000 		call	_ZN8UnitTest11CurrentTest7ResultsEv@PLT
 8018      00
 8019 1780 4C8B30   		movq	(%rax), %r14
 8020 1783 E8000000 		call	_ZN8UnitTest11CurrentTest7DetailsEv@PLT
 8020      00
 8021 1788 488B30   		movq	(%rax), %rsi
 8022 178b BABC0000 		movl	$188, %edx
 8022      00
 8023 1790 4889EF   		movq	%rbp, %rdi
 8024 1793 E8000000 		call	_ZN8UnitTest11TestDetailsC1ERKS0_i@PLT
 8024      00
 8025 1798 488D1500 		leaq	.LC23(%rip), %rdx
 8025      000000
 8026 179f 4889EE   		movq	%rbp, %rsi
 8027 17a2 4C89F7   		movq	%r14, %rdi
 8028 17a5 E8000000 		call	_ZN8UnitTest11TestResults13OnTestFailureERKNS_11TestDetailsEPKc@PLT
 8028      00
 8029              	.LEHE377:
 8030              	.LEHB378:
 8031 17aa E8000000 		call	__cxa_end_catch@PLT
 8031      00
 8032              	.LEHE378:
 8033 17af E9000000 		jmp	.L481
 8033      00
 8034              	.L553:
 8035 17b4 F30F1EFA 		endbr64
 8036 17b8 4889C5   		movq	%rax, %rbp
 8037 17bb E8000000 		call	__cxa_end_catch@PLT
 8037      00
 8038 17c0 4889EF   		movq	%rbp, %rdi
 8039              	.LEHB379:
 8040 17c3 E8000000 		call	_Unwind_Resume@PLT
 8040      00
 8041              	.LEHE379:
 8042              	.L551:
 8043 17c8 F30F1EFA 		endbr64
 8044 17cc 4889C5   		movq	%rax, %rbp
 8045 17cf E8000000 		call	__cxa_end_catch@PLT
 8045      00
 8046 17d4 4889EF   		movq	%rbp, %rdi
 8047              	.LEHB380:
 8048 17d7 E8000000 		call	_Unwind_Resume@PLT
 8048      00
 8049              	.LEHE380:
 8050              	.L477:
 8051 17dc E8000000 		call	__cxa_begin_catch@PLT
 8051      00
 8052              	.LEHB381:
 8053 17e1 E8000000 		call	_ZN8UnitTest11CurrentTest7ResultsEv@PLT
 8053      00
 8054 17e6 4C8B30   		movq	(%rax), %r14
 8055 17e9 E8000000 		call	_ZN8UnitTest11CurrentTest7DetailsEv@PLT
 8055      00
 8056 17ee 488B30   		movq	(%rax), %rsi
 8057 17f1 BABB0000 		movl	$187, %edx
 8057      00
 8058 17f6 4889EF   		movq	%rbp, %rdi
 8059 17f9 E8000000 		call	_ZN8UnitTest11TestDetailsC1ERKS0_i@PLT
 8059      00
 8060 17fe 488D1500 		leaq	.LC10(%rip), %rdx
 8060      000000
 8061 1805 4889EE   		movq	%rbp, %rsi
 8062 1808 4C89F7   		movq	%r14, %rdi
 8063 180b E8000000 		call	_ZN8UnitTest11TestResults13OnTestFailureERKNS_11TestDetailsEPKc@PLT
 8063      00
 8064              	.LEHE381:
 8065              	.LEHB382:
 8066 1810 E8000000 		call	__cxa_end_catch@PLT
 8066      00
 8067              	.LEHE382:
 8068 1815 E9000000 		jmp	.L478
 8068      00
 8069              	.L474:
 8070 181a E8000000 		call	__cxa_begin_catch@PLT
 8070      00
 8071              	.LEHB383:
 8072 181f E8000000 		call	_ZN8UnitTest11CurrentTest7ResultsEv@PLT
 8072      00
 8073 1824 4C8B30   		movq	(%rax), %r14
 8074 1827 E8000000 		call	_ZN8UnitTest11CurrentTest7DetailsEv@PLT
 8074      00
 8075 182c 488B30   		movq	(%rax), %rsi
 8076 182f BAB70000 		movl	$183, %edx
 8076      00
 8077 1834 4889EF   		movq	%rbp, %rdi
 8078 1837 E8000000 		call	_ZN8UnitTest11TestDetailsC1ERKS0_i@PLT
 8078      00
 8079 183c 488D1500 		leaq	.LC22(%rip), %rdx
 8079      000000
 8080 1843 4889EE   		movq	%rbp, %rsi
 8081 1846 4C89F7   		movq	%r14, %rdi
 8082 1849 E8000000 		call	_ZN8UnitTest11TestResults13OnTestFailureERKNS_11TestDetailsEPKc@PLT
 8082      00
 8083              	.LEHE383:
 8084              	.LEHB384:
 8085 184e E8000000 		call	__cxa_end_catch@PLT
 8085      00
 8086              	.LEHE384:
 8087 1853 E9000000 		jmp	.L475
 8087      00
 8088              	.L549:
 8089 1858 F30F1EFA 		endbr64
 8090 185c 4889C5   		movq	%rax, %rbp
 8091 185f E8000000 		call	__cxa_end_catch@PLT
 8091      00
 8092 1864 4889EF   		movq	%rbp, %rdi
 8093              	.LEHB385:
 8094 1867 E8000000 		call	_Unwind_Resume@PLT
 8094      00
 8095              	.LEHE385:
 8096              	.L547:
 8097 186c F30F1EFA 		endbr64
 8098 1870 4889C5   		movq	%rax, %rbp
 8099 1873 E8000000 		call	__cxa_end_catch@PLT
 8099      00
 8100 1878 4889EF   		movq	%rbp, %rdi
 8101              	.LEHB386:
 8102 187b E8000000 		call	_Unwind_Resume@PLT
 8102      00
 8103              	.LEHE386:
 8104              	.L471:
 8105 1880 E8000000 		call	__cxa_begin_catch@PLT
 8105      00
 8106              	.LEHB387:
 8107 1885 E8000000 		call	_ZN8UnitTest11CurrentTest7ResultsEv@PLT
 8107      00
 8108 188a 4C8B30   		movq	(%rax), %r14
 8109 188d E8000000 		call	_ZN8UnitTest11CurrentTest7DetailsEv@PLT
 8109      00
 8110 1892 488B30   		movq	(%rax), %rsi
 8111 1895 BAB60000 		movl	$182, %edx
 8111      00
 8112 189a 4889EF   		movq	%rbp, %rdi
 8113 189d E8000000 		call	_ZN8UnitTest11TestDetailsC1ERKS0_i@PLT
 8113      00
 8114 18a2 488D1500 		leaq	.LC10(%rip), %rdx
 8114      000000
 8115 18a9 4889EE   		movq	%rbp, %rsi
 8116 18ac 4C89F7   		movq	%r14, %rdi
 8117 18af E8000000 		call	_ZN8UnitTest11TestResults13OnTestFailureERKNS_11TestDetailsEPKc@PLT
 8117      00
 8118              	.LEHE387:
 8119              	.LEHB388:
 8120 18b4 E8000000 		call	__cxa_end_catch@PLT
 8120      00
 8121              	.LEHE388:
 8122 18b9 E9000000 		jmp	.L472
 8122      00
 8123              	.L468:
 8124 18be E8000000 		call	__cxa_begin_catch@PLT
 8124      00
 8125              	.LEHB389:
 8126 18c3 E8000000 		call	_ZN8UnitTest11CurrentTest7ResultsEv@PLT
 8126      00
 8127 18c8 4C8B30   		movq	(%rax), %r14
 8128 18cb E8000000 		call	_ZN8UnitTest11CurrentTest7DetailsEv@PLT
 8128      00
 8129 18d0 488B30   		movq	(%rax), %rsi
 8130 18d3 BAB20000 		movl	$178, %edx
 8130      00
 8131 18d8 4889EF   		movq	%rbp, %rdi
 8132 18db E8000000 		call	_ZN8UnitTest11TestDetailsC1ERKS0_i@PLT
 8132      00
 8133 18e0 488D1500 		leaq	.LC21(%rip), %rdx
 8133      000000
 8134 18e7 4889EE   		movq	%rbp, %rsi
 8135 18ea 4C89F7   		movq	%r14, %rdi
 8136 18ed E8000000 		call	_ZN8UnitTest11TestResults13OnTestFailureERKNS_11TestDetailsEPKc@PLT
 8136      00
 8137              	.LEHE389:
 8138              	.LEHB390:
 8139 18f2 E8000000 		call	__cxa_end_catch@PLT
 8139      00
 8140              	.LEHE390:
 8141 18f7 E9000000 		jmp	.L469
 8141      00
 8142              	.L545:
 8143 18fc F30F1EFA 		endbr64
 8144 1900 4889C5   		movq	%rax, %rbp
 8145 1903 E8000000 		call	__cxa_end_catch@PLT
 8145      00
 8146 1908 4889EF   		movq	%rbp, %rdi
 8147              	.LEHB391:
 8148 190b E8000000 		call	_Unwind_Resume@PLT
 8148      00
 8149              	.LEHE391:
 8150              	.L543:
 8151 1910 F30F1EFA 		endbr64
 8152 1914 4889C5   		movq	%rax, %rbp
 8153 1917 E8000000 		call	__cxa_end_catch@PLT
 8153      00
 8154 191c 4889EF   		movq	%rbp, %rdi
 8155              	.LEHB392:
 8156 191f E8000000 		call	_Unwind_Resume@PLT
 8156      00
 8157              	.LEHE392:
 8158              	.L465:
 8159 1924 E8000000 		call	__cxa_begin_catch@PLT
 8159      00
 8160              	.LEHB393:
 8161 1929 E8000000 		call	_ZN8UnitTest11CurrentTest7ResultsEv@PLT
 8161      00
 8162 192e 4C8B30   		movq	(%rax), %r14
 8163 1931 E8000000 		call	_ZN8UnitTest11CurrentTest7DetailsEv@PLT
 8163      00
 8164 1936 488B30   		movq	(%rax), %rsi
 8165 1939 BAB10000 		movl	$177, %edx
 8165      00
 8166 193e 4889EF   		movq	%rbp, %rdi
 8167 1941 E8000000 		call	_ZN8UnitTest11TestDetailsC1ERKS0_i@PLT
 8167      00
 8168 1946 488D1500 		leaq	.LC10(%rip), %rdx
 8168      000000
 8169 194d 4889EE   		movq	%rbp, %rsi
 8170 1950 4C89F7   		movq	%r14, %rdi
 8171 1953 E8000000 		call	_ZN8UnitTest11TestResults13OnTestFailureERKNS_11TestDetailsEPKc@PLT
 8171      00
 8172              	.LEHE393:
 8173              	.LEHB394:
 8174 1958 E8000000 		call	__cxa_end_catch@PLT
 8174      00
 8175              	.LEHE394:
 8176 195d E9000000 		jmp	.L466
 8176      00
 8177              	.L462:
 8178 1962 E8000000 		call	__cxa_begin_catch@PLT
 8178      00
 8179              	.LEHB395:
 8180 1967 E8000000 		call	_ZN8UnitTest11CurrentTest7ResultsEv@PLT
 8180      00
 8181 196c 4C8B28   		movq	(%rax), %r13
 8182 196f E8000000 		call	_ZN8UnitTest11CurrentTest7DetailsEv@PLT
 8182      00
 8183 1974 488D6C24 		leaq	32(%rsp), %rbp
 8183      20
 8184 1979 488B30   		movq	(%rax), %rsi
 8185 197c BAAD0000 		movl	$173, %edx
 8185      00
 8186 1981 4889EF   		movq	%rbp, %rdi
 8187 1984 E8000000 		call	_ZN8UnitTest11TestDetailsC1ERKS0_i@PLT
 8187      00
 8188 1989 488D1500 		leaq	.LC10(%rip), %rdx
 8188      000000
 8189 1990 4889EE   		movq	%rbp, %rsi
 8190 1993 4C89EF   		movq	%r13, %rdi
 8191 1996 E8000000 		call	_ZN8UnitTest11TestResults13OnTestFailureERKNS_11TestDetailsEPKc@PLT
 8191      00
 8192              	.LEHE395:
 8193              	.LEHB396:
 8194 199b E8000000 		call	__cxa_end_catch@PLT
 8194      00
 8195              	.LEHE396:
 8196 19a0 E9000000 		jmp	.L463
 8196      00
 8197              	.L541:
 8198 19a5 F30F1EFA 		endbr64
 8199 19a9 4889C5   		movq	%rax, %rbp
 8200 19ac E8000000 		call	__cxa_end_catch@PLT
 8200      00
 8201 19b1 4889EF   		movq	%rbp, %rdi
 8202              	.LEHB397:
 8203 19b4 E8000000 		call	_Unwind_Resume@PLT
 8203      00
 8204              	.LEHE397:
 8205              	.L539:
 8206 19b9 F30F1EFA 		endbr64
 8207 19bd 4889C5   		movq	%rax, %rbp
 8208 19c0 E8000000 		call	__cxa_end_catch@PLT
 8208      00
 8209 19c5 4889EF   		movq	%rbp, %rdi
 8210              	.LEHB398:
 8211 19c8 E8000000 		call	_Unwind_Resume@PLT
 8211      00
 8212              	.LEHE398:
 8213              		.cfi_endproc
 8214              	.LFE1258:
 8215              		.section	.gcc_except_table
 8216              		.align 4
 8217              	.LLSDAC1258:
 8218 0728 FF       		.byte	0xff
 8219 0729 9B       		.byte	0x9b
 8220 072a 9803     		.uleb128 .LLSDATTC1258-.LLSDATTDC1258
 8221              	.LLSDATTDC1258:
 8222 072c 01       		.byte	0x1
 8223 072d 8C03     		.uleb128 .LLSDACSEC1258-.LLSDACSBC1258
 8224              	.LLSDACSBC1258:
 8225 072f 05       		.uleb128 .LEHB324-.LCOLDB38
 8226 0730 2F       		.uleb128 .LEHE324-.LEHB324
 8227 0731 AE04     		.uleb128 .L587-.LCOLDB38
 8228 0733 00       		.uleb128 0
 8229 0734 34       		.uleb128 .LEHB325-.LCOLDB38
 8230 0735 05       		.uleb128 .LEHE325-.LEHB325
 8231 0736 00       		.uleb128 0
 8232 0737 00       		.uleb128 0
 8233 0738 43       		.uleb128 .LEHB326-.LCOLDB38
 8234 0739 2F       		.uleb128 .LEHE326-.LEHB326
 8235 073a C204     		.uleb128 .L585-.LCOLDB38
 8236 073c 00       		.uleb128 0
 8237 073d 72       		.uleb128 .LEHB327-.LCOLDB38
 8238 073e 05       		.uleb128 .LEHE327-.LEHB327
 8239 073f 00       		.uleb128 0
 8240 0740 00       		.uleb128 0
 8241 0741 8101     		.uleb128 .LEHB328-.LCOLDB38
 8242 0743 2F       		.uleb128 .LEHE328-.LEHB328
 8243 0744 9205     		.uleb128 .L577-.LCOLDB38
 8244 0746 00       		.uleb128 0
 8245 0747 B001     		.uleb128 .LEHB329-.LCOLDB38
 8246 0749 05       		.uleb128 .LEHE329-.LEHB329
 8247 074a 00       		.uleb128 0
 8248 074b 00       		.uleb128 0
 8249 074c BF01     		.uleb128 .LEHB330-.LCOLDB38
 8250 074e 2F       		.uleb128 .LEHE330-.LEHB330
 8251 074f EA04     		.uleb128 .L581-.LCOLDB38
 8252 0751 00       		.uleb128 0
 8253 0752 EE01     		.uleb128 .LEHB331-.LCOLDB38
 8254 0754 05       		.uleb128 .LEHE331-.LEHB331
 8255 0755 00       		.uleb128 0
 8256 0756 00       		.uleb128 0
 8257 0757 FD01     		.uleb128 .LEHB332-.LCOLDB38
 8258 0759 2F       		.uleb128 .LEHE332-.LEHB332
 8259 075a BA05     		.uleb128 .L573-.LCOLDB38
 8260 075c 00       		.uleb128 0
 8261 075d AC02     		.uleb128 .LEHB333-.LCOLDB38
 8262 075f 05       		.uleb128 .LEHE333-.LEHB333
 8263 0760 00       		.uleb128 0
 8264 0761 00       		.uleb128 0
 8265 0762 BB02     		.uleb128 .LEHB334-.LCOLDB38
 8266 0764 2F       		.uleb128 .LEHE334-.LEHB334
 8267 0765 D604     		.uleb128 .L583-.LCOLDB38
 8268 0767 00       		.uleb128 0
 8269 0768 EA02     		.uleb128 .LEHB335-.LCOLDB38
 8270 076a 05       		.uleb128 .LEHE335-.LEHB335
 8271 076b 00       		.uleb128 0
 8272 076c 00       		.uleb128 0
 8273 076d F902     		.uleb128 .LEHB336-.LCOLDB38
 8274 076f 2F       		.uleb128 .LEHE336-.LEHB336
 8275 0770 A605     		.uleb128 .L575-.LCOLDB38
 8276 0772 00       		.uleb128 0
 8277 0773 A803     		.uleb128 .LEHB337-.LCOLDB38
 8278 0775 05       		.uleb128 .LEHE337-.LEHB337
 8279 0776 00       		.uleb128 0
 8280 0777 00       		.uleb128 0
 8281 0778 B703     		.uleb128 .LEHB338-.LCOLDB38
 8282 077a 2F       		.uleb128 .LEHE338-.LEHB338
 8283 077b FE04     		.uleb128 .L579-.LCOLDB38
 8284 077d 00       		.uleb128 0
 8285 077e E603     		.uleb128 .LEHB339-.LCOLDB38
 8286 0780 05       		.uleb128 .LEHE339-.LEHB339
 8287 0781 00       		.uleb128 0
 8288 0782 00       		.uleb128 0
 8289 0783 F503     		.uleb128 .LEHB340-.LCOLDB38
 8290 0785 2F       		.uleb128 .LEHE340-.LEHB340
 8291 0786 CE05     		.uleb128 .L571-.LCOLDB38
 8292 0788 00       		.uleb128 0
 8293 0789 A404     		.uleb128 .LEHB341-.LCOLDB38
 8294 078b 05       		.uleb128 .LEHE341-.LEHB341
 8295 078c 00       		.uleb128 0
 8296 078d 00       		.uleb128 0
 8297 078e BD04     		.uleb128 .LEHB342-.LCOLDB38
 8298 0790 05       		.uleb128 .LEHE342-.LEHB342
 8299 0791 00       		.uleb128 0
 8300 0792 00       		.uleb128 0
 8301 0793 D104     		.uleb128 .LEHB343-.LCOLDB38
 8302 0795 05       		.uleb128 .LEHE343-.LEHB343
 8303 0796 00       		.uleb128 0
 8304 0797 00       		.uleb128 0
 8305 0798 E504     		.uleb128 .LEHB344-.LCOLDB38
 8306 079a 05       		.uleb128 .LEHE344-.LEHB344
 8307 079b 00       		.uleb128 0
 8308 079c 00       		.uleb128 0
 8309 079d F904     		.uleb128 .LEHB345-.LCOLDB38
 8310 079f 05       		.uleb128 .LEHE345-.LEHB345
 8311 07a0 00       		.uleb128 0
 8312 07a1 00       		.uleb128 0
 8313 07a2 8D05     		.uleb128 .LEHB346-.LCOLDB38
 8314 07a4 05       		.uleb128 .LEHE346-.LEHB346
 8315 07a5 00       		.uleb128 0
 8316 07a6 00       		.uleb128 0
 8317 07a7 A105     		.uleb128 .LEHB347-.LCOLDB38
 8318 07a9 05       		.uleb128 .LEHE347-.LEHB347
 8319 07aa 00       		.uleb128 0
 8320 07ab 00       		.uleb128 0
 8321 07ac B505     		.uleb128 .LEHB348-.LCOLDB38
 8322 07ae 05       		.uleb128 .LEHE348-.LEHB348
 8323 07af 00       		.uleb128 0
 8324 07b0 00       		.uleb128 0
 8325 07b1 C905     		.uleb128 .LEHB349-.LCOLDB38
 8326 07b3 05       		.uleb128 .LEHE349-.LEHB349
 8327 07b4 00       		.uleb128 0
 8328 07b5 00       		.uleb128 0
 8329 07b6 DD05     		.uleb128 .LEHB350-.LCOLDB38
 8330 07b8 05       		.uleb128 .LEHE350-.LEHB350
 8331 07b9 00       		.uleb128 0
 8332 07ba 00       		.uleb128 0
 8333 07bb E705     		.uleb128 .LEHB351-.LCOLDB38
 8334 07bd 2F       		.uleb128 .LEHE351-.LEHB351
 8335 07be DE06     		.uleb128 .L569-.LCOLDB38
 8336 07c0 00       		.uleb128 0
 8337 07c1 9606     		.uleb128 .LEHB352-.LCOLDB38
 8338 07c3 05       		.uleb128 .LEHE352-.LEHB352
 8339 07c4 00       		.uleb128 0
 8340 07c5 00       		.uleb128 0
 8341 07c6 A506     		.uleb128 .LEHB353-.LCOLDB38
 8342 07c8 2F       		.uleb128 .LEHE353-.LEHB353
 8343 07c9 F206     		.uleb128 .L567-.LCOLDB38
 8344 07cb 00       		.uleb128 0
 8345 07cc D406     		.uleb128 .LEHB354-.LCOLDB38
 8346 07ce 05       		.uleb128 .LEHE354-.LEHB354
 8347 07cf 00       		.uleb128 0
 8348 07d0 00       		.uleb128 0
 8349 07d1 ED06     		.uleb128 .LEHB355-.LCOLDB38
 8350 07d3 05       		.uleb128 .LEHE355-.LEHB355
 8351 07d4 00       		.uleb128 0
 8352 07d5 00       		.uleb128 0
 8353 07d6 8107     		.uleb128 .LEHB356-.LCOLDB38
 8354 07d8 05       		.uleb128 .LEHE356-.LEHB356
 8355 07d9 00       		.uleb128 0
 8356 07da 00       		.uleb128 0
 8357 07db 8B07     		.uleb128 .LEHB357-.LCOLDB38
 8358 07dd 2F       		.uleb128 .LEHE357-.LEHB357
 8359 07de 8208     		.uleb128 .L565-.LCOLDB38
 8360 07e0 00       		.uleb128 0
 8361 07e1 BA07     		.uleb128 .LEHB358-.LCOLDB38
 8362 07e3 05       		.uleb128 .LEHE358-.LEHB358
 8363 07e4 00       		.uleb128 0
 8364 07e5 00       		.uleb128 0
 8365 07e6 C907     		.uleb128 .LEHB359-.LCOLDB38
 8366 07e8 2F       		.uleb128 .LEHE359-.LEHB359
 8367 07e9 9608     		.uleb128 .L563-.LCOLDB38
 8368 07eb 00       		.uleb128 0
 8369 07ec F807     		.uleb128 .LEHB360-.LCOLDB38
 8370 07ee 05       		.uleb128 .LEHE360-.LEHB360
 8371 07ef 00       		.uleb128 0
 8372 07f0 00       		.uleb128 0
 8373 07f1 9108     		.uleb128 .LEHB361-.LCOLDB38
 8374 07f3 05       		.uleb128 .LEHE361-.LEHB361
 8375 07f4 00       		.uleb128 0
 8376 07f5 00       		.uleb128 0
 8377 07f6 A508     		.uleb128 .LEHB362-.LCOLDB38
 8378 07f8 05       		.uleb128 .LEHE362-.LEHB362
 8379 07f9 00       		.uleb128 0
 8380 07fa 00       		.uleb128 0
 8381 07fb AF08     		.uleb128 .LEHB363-.LCOLDB38
 8382 07fd 2F       		.uleb128 .LEHE363-.LEHB363
 8383 07fe A609     		.uleb128 .L561-.LCOLDB38
 8384 0800 00       		.uleb128 0
 8385 0801 DE08     		.uleb128 .LEHB364-.LCOLDB38
 8386 0803 05       		.uleb128 .LEHE364-.LEHB364
 8387 0804 00       		.uleb128 0
 8388 0805 00       		.uleb128 0
 8389 0806 ED08     		.uleb128 .LEHB365-.LCOLDB38
 8390 0808 2F       		.uleb128 .LEHE365-.LEHB365
 8391 0809 BA09     		.uleb128 .L559-.LCOLDB38
 8392 080b 00       		.uleb128 0
 8393 080c 9C09     		.uleb128 .LEHB366-.LCOLDB38
 8394 080e 05       		.uleb128 .LEHE366-.LEHB366
 8395 080f 00       		.uleb128 0
 8396 0810 00       		.uleb128 0
 8397 0811 B509     		.uleb128 .LEHB367-.LCOLDB38
 8398 0813 05       		.uleb128 .LEHE367-.LEHB367
 8399 0814 00       		.uleb128 0
 8400 0815 00       		.uleb128 0
 8401 0816 C909     		.uleb128 .LEHB368-.LCOLDB38
 8402 0818 05       		.uleb128 .LEHE368-.LEHB368
 8403 0819 00       		.uleb128 0
 8404 081a 00       		.uleb128 0
 8405 081b D309     		.uleb128 .LEHB369-.LCOLDB38
 8406 081d 2F       		.uleb128 .LEHE369-.LEHB369
 8407 081e CA0A     		.uleb128 .L557-.LCOLDB38
 8408 0820 00       		.uleb128 0
 8409 0821 820A     		.uleb128 .LEHB370-.LCOLDB38
 8410 0823 05       		.uleb128 .LEHE370-.LEHB370
 8411 0824 00       		.uleb128 0
 8412 0825 00       		.uleb128 0
 8413 0826 910A     		.uleb128 .LEHB371-.LCOLDB38
 8414 0828 2F       		.uleb128 .LEHE371-.LEHB371
 8415 0829 DE0A     		.uleb128 .L555-.LCOLDB38
 8416 082b 00       		.uleb128 0
 8417 082c C00A     		.uleb128 .LEHB372-.LCOLDB38
 8418 082e 05       		.uleb128 .LEHE372-.LEHB372
 8419 082f 00       		.uleb128 0
 8420 0830 00       		.uleb128 0
 8421 0831 D90A     		.uleb128 .LEHB373-.LCOLDB38
 8422 0833 05       		.uleb128 .LEHE373-.LEHB373
 8423 0834 00       		.uleb128 0
 8424 0835 00       		.uleb128 0
 8425 0836 ED0A     		.uleb128 .LEHB374-.LCOLDB38
 8426 0838 05       		.uleb128 .LEHE374-.LEHB374
 8427 0839 00       		.uleb128 0
 8428 083a 00       		.uleb128 0
 8429 083b F70A     		.uleb128 .LEHB375-.LCOLDB38
 8430 083d 2F       		.uleb128 .LEHE375-.LEHB375
 8431 083e EE0B     		.uleb128 .L553-.LCOLDB38
 8432 0840 00       		.uleb128 0
 8433 0841 A60B     		.uleb128 .LEHB376-.LCOLDB38
 8434 0843 05       		.uleb128 .LEHE376-.LEHB376
 8435 0844 00       		.uleb128 0
 8436 0845 00       		.uleb128 0
 8437 0846 B50B     		.uleb128 .LEHB377-.LCOLDB38
 8438 0848 2F       		.uleb128 .LEHE377-.LEHB377
 8439 0849 820C     		.uleb128 .L551-.LCOLDB38
 8440 084b 00       		.uleb128 0
 8441 084c E40B     		.uleb128 .LEHB378-.LCOLDB38
 8442 084e 05       		.uleb128 .LEHE378-.LEHB378
 8443 084f 00       		.uleb128 0
 8444 0850 00       		.uleb128 0
 8445 0851 FD0B     		.uleb128 .LEHB379-.LCOLDB38
 8446 0853 05       		.uleb128 .LEHE379-.LEHB379
 8447 0854 00       		.uleb128 0
 8448 0855 00       		.uleb128 0
 8449 0856 910C     		.uleb128 .LEHB380-.LCOLDB38
 8450 0858 05       		.uleb128 .LEHE380-.LEHB380
 8451 0859 00       		.uleb128 0
 8452 085a 00       		.uleb128 0
 8453 085b 9B0C     		.uleb128 .LEHB381-.LCOLDB38
 8454 085d 2F       		.uleb128 .LEHE381-.LEHB381
 8455 085e 920D     		.uleb128 .L549-.LCOLDB38
 8456 0860 00       		.uleb128 0
 8457 0861 CA0C     		.uleb128 .LEHB382-.LCOLDB38
 8458 0863 05       		.uleb128 .LEHE382-.LEHB382
 8459 0864 00       		.uleb128 0
 8460 0865 00       		.uleb128 0
 8461 0866 D90C     		.uleb128 .LEHB383-.LCOLDB38
 8462 0868 2F       		.uleb128 .LEHE383-.LEHB383
 8463 0869 A60D     		.uleb128 .L547-.LCOLDB38
 8464 086b 00       		.uleb128 0
 8465 086c 880D     		.uleb128 .LEHB384-.LCOLDB38
 8466 086e 05       		.uleb128 .LEHE384-.LEHB384
 8467 086f 00       		.uleb128 0
 8468 0870 00       		.uleb128 0
 8469 0871 A10D     		.uleb128 .LEHB385-.LCOLDB38
 8470 0873 05       		.uleb128 .LEHE385-.LEHB385
 8471 0874 00       		.uleb128 0
 8472 0875 00       		.uleb128 0
 8473 0876 B50D     		.uleb128 .LEHB386-.LCOLDB38
 8474 0878 05       		.uleb128 .LEHE386-.LEHB386
 8475 0879 00       		.uleb128 0
 8476 087a 00       		.uleb128 0
 8477 087b BF0D     		.uleb128 .LEHB387-.LCOLDB38
 8478 087d 2F       		.uleb128 .LEHE387-.LEHB387
 8479 087e B60E     		.uleb128 .L545-.LCOLDB38
 8480 0880 00       		.uleb128 0
 8481 0881 EE0D     		.uleb128 .LEHB388-.LCOLDB38
 8482 0883 05       		.uleb128 .LEHE388-.LEHB388
 8483 0884 00       		.uleb128 0
 8484 0885 00       		.uleb128 0
 8485 0886 FD0D     		.uleb128 .LEHB389-.LCOLDB38
 8486 0888 2F       		.uleb128 .LEHE389-.LEHB389
 8487 0889 CA0E     		.uleb128 .L543-.LCOLDB38
 8488 088b 00       		.uleb128 0
 8489 088c AC0E     		.uleb128 .LEHB390-.LCOLDB38
 8490 088e 05       		.uleb128 .LEHE390-.LEHB390
 8491 088f 00       		.uleb128 0
 8492 0890 00       		.uleb128 0
 8493 0891 C50E     		.uleb128 .LEHB391-.LCOLDB38
 8494 0893 05       		.uleb128 .LEHE391-.LEHB391
 8495 0894 00       		.uleb128 0
 8496 0895 00       		.uleb128 0
 8497 0896 D90E     		.uleb128 .LEHB392-.LCOLDB38
 8498 0898 05       		.uleb128 .LEHE392-.LEHB392
 8499 0899 00       		.uleb128 0
 8500 089a 00       		.uleb128 0
 8501 089b E30E     		.uleb128 .LEHB393-.LCOLDB38
 8502 089d 2F       		.uleb128 .LEHE393-.LEHB393
 8503 089e DF0F     		.uleb128 .L541-.LCOLDB38
 8504 08a0 00       		.uleb128 0
 8505 08a1 920F     		.uleb128 .LEHB394-.LCOLDB38
 8506 08a3 05       		.uleb128 .LEHE394-.LEHB394
 8507 08a4 00       		.uleb128 0
 8508 08a5 00       		.uleb128 0
 8509 08a6 A10F     		.uleb128 .LEHB395-.LCOLDB38
 8510 08a8 34       		.uleb128 .LEHE395-.LEHB395
 8511 08a9 F30F     		.uleb128 .L539-.LCOLDB38
 8512 08ab 00       		.uleb128 0
 8513 08ac D50F     		.uleb128 .LEHB396-.LCOLDB38
 8514 08ae 05       		.uleb128 .LEHE396-.LEHB396
 8515 08af 00       		.uleb128 0
 8516 08b0 00       		.uleb128 0
 8517 08b1 EE0F     		.uleb128 .LEHB397-.LCOLDB38
 8518 08b3 05       		.uleb128 .LEHE397-.LEHB397
 8519 08b4 00       		.uleb128 0
 8520 08b5 00       		.uleb128 0
 8521 08b6 8210     		.uleb128 .LEHB398-.LCOLDB38
 8522 08b8 05       		.uleb128 .LEHE398-.LEHB398
 8523 08b9 00       		.uleb128 0
 8524 08ba 00       		.uleb128 0
 8525              	.LLSDACSEC1258:
 8526 08bb 01       		.byte	0x1
 8527 08bc 00       		.byte	0
 8528 08bd 000000   		.align 4
 8529 08c0 00000000 		.long	0
 8530              	
 8531              	.LLSDATTC1258:
 8532              		.section	.text.unlikely
 8533              		.text
 8535              		.section	.text.unlikely
 8537              	.LCOLDE38:
 8538              		.text
 8539              	.LHOTE38:
 8540              		.section	.rodata.str1.8
 8541 05ff 00       		.align 8
 8542              	.LC39:
 8543 0600 556E6861 		.string	"Unhandled exception in CHECK_EQUAL((offset) % 4 + 1UL, *item)"
 8543      6E646C65 
 8543      64206578 
 8543      63657074 
 8543      696F6E20 
 8544 063e 0000     		.align 8
 8545              	.LC40:
 8546 0640 556E6861 		.string	"Unhandled exception in CHECK_EQUAL((offset + 1UL) % 4 + 1UL, *item)"
 8546      6E646C65 
 8546      64206578 
 8546      63657074 
 8546      696F6E20 
 8547 0684 00000000 		.align 8
 8548              	.LC41:
 8549 0688 556E6861 		.string	"Unhandled exception in CHECK_EQUAL((offset + 2UL) % 4 + 1UL, *item)"
 8549      6E646C65 
 8549      64206578 
 8549      63657074 
 8549      696F6E20 
 8550 06cc 00000000 		.align 8
 8551              	.LC42:
 8552 06d0 556E6861 		.string	"Unhandled exception in CHECK_EQUAL((offset + 3UL) % 4 + 1UL, *item)"
 8552      6E646C65 
 8552      64206578 
 8552      63657074 
 8552      696F6E20 
 8553 0714 00000000 		.align 8
 8554              	.LC43:
 8555 0718 556E6861 		.string	"Unhandled exception in CHECK_EQUAL(offset, queue.putIndex)"
 8555      6E646C65 
 8555      64206578 
 8555      63657074 
 8555      696F6E20 
 8556 0753 00000000 		.align 8
 8556      00
 8557              	.LC44:
 8558 0758 556E6861 		.string	"Unhandled exception in CHECK_EQUAL(offset, queue.takeIndex)"
 8558      6E646C65 
 8558      64206578 
 8558      63657074 
 8558      696F6E20 
 8559 0794 00000000 		.align 8
 8560              	.LC45:
 8561 0798 556E6861 		.string	"Unhandled exception in CHECK_EQUAL(8UL, queue.capacity)"
 8561      6E646C65 
 8561      64206578 
 8561      63657074 
 8561      696F6E20 
 8562              		.align 8
 8563              	.LC46:
 8564 07d0 556E6861 		.string	"Unhandled exception in CHECK_EQUAL(5UL, queue.putIndex)"
 8564      6E646C65 
 8564      64206578 
 8564      63657074 
 8564      696F6E20 
 8565              		.align 8
 8566              	.LC47:
 8567 0808 556E6861 		.string	"Unhandled exception in CHECK_EQUAL(5UL, queue.numItems)"
 8567      6E646C65 
 8567      64206578 
 8567      63657074 
 8567      696F6E20 
 8568              		.align 8
 8569              	.LC48:
 8570 0840 556E6861 		.string	"Unhandled exception in CHECK_EQUAL(100UL, deref(queue.itemArray[0]))"
 8570      6E646C65 
 8570      64206578 
 8570      63657074 
 8570      696F6E20 
 8571 0885 000000   		.align 8
 8572              	.LC49:
 8573 0888 556E6861 		.string	"Unhandled exception in CHECK_EQUAL(101UL, deref(queue.itemArray[1]))"
 8573      6E646C65 
 8573      64206578 
 8573      63657074 
 8573      696F6E20 
 8574 08cd 000000   		.align 8
 8575              	.LC50:
 8576 08d0 556E6861 		.string	"Unhandled exception in CHECK_EQUAL(102UL, deref(queue.itemArray[2]))"
 8576      6E646C65 
 8576      64206578 
 8576      63657074 
 8576      696F6E20 
 8577 0915 000000   		.align 8
 8578              	.LC51:
 8579 0918 556E6861 		.string	"Unhandled exception in CHECK_EQUAL(103UL, deref(queue.itemArray[3]))"
 8579      6E646C65 
 8579      64206578 
 8579      63657074 
 8579      696F6E20 
 8580 095d 000000   		.align 8
 8581              	.LC52:
 8582 0960 556E6861 		.string	"Unhandled exception in CHECK_EQUAL(104UL, deref(queue.itemArray[4]))"
 8582      6E646C65 
 8582      64206578 
 8582      63657074 
 8582      696F6E20 
 8583 09a5 000000   		.align 8
 8584              	.LC53:
 8585 09a8 556E6861 		.string	"Unhandled exception in CHECK_EQUAL(6UL, deref(queue.itemArray[5]))"
 8585      6E646C65 
 8585      64206578 
 8585      63657074 
 8585      696F6E20 
 8586 09eb 00000000 		.align 8
 8586      00
 8587              	.LC54:
 8588 09f0 556E6861 		.string	"Unhandled exception in CHECK_EQUAL(7UL, deref(queue.itemArray[6]))"
 8588      6E646C65 
 8588      64206578 
 8588      63657074 
 8588      696F6E20 
 8589 0a33 00000000 		.align 8
 8589      00
 8590              	.LC55:
 8591 0a38 556E6861 		.string	"Unhandled exception in CHECK_EQUAL(8UL, deref(queue.itemArray[7]))"
 8591      6E646C65 
 8591      64206578 
 8591      63657074 
 8591      696F6E20 
 8592 0a7b 00000000 		.align 8
 8592      00
 8593              	.LC56:
 8594 0a80 556E6861 		.string	"Unhandled exception in CHECK_EQUAL(100UL, *item)"
 8594      6E646C65 
 8594      64206578 
 8594      63657074 
 8594      696F6E20 
 8595 0ab1 00000000 		.align 8
 8595      000000
 8596              	.LC57:
 8597 0ab8 556E6861 		.string	"Unhandled exception in CHECK_EQUAL(101UL, *item)"
 8597      6E646C65 
 8597      64206578 
 8597      63657074 
 8597      696F6E20 
 8598 0ae9 00000000 		.align 8
 8598      000000
 8599              	.LC58:
 8600 0af0 556E6861 		.string	"Unhandled exception in CHECK_EQUAL(102UL, *item)"
 8600      6E646C65 
 8600      64206578 
 8600      63657074 
 8600      696F6E20 
 8601 0b21 00000000 		.align 8
 8601      000000
 8602              	.LC59:
 8603 0b28 556E6861 		.string	"Unhandled exception in CHECK_EQUAL(103UL, *item)"
 8603      6E646C65 
 8603      64206578 
 8603      63657074 
 8603      696F6E20 
 8604 0b59 00000000 		.align 8
 8604      000000
 8605              	.LC60:
 8606 0b60 556E6861 		.string	"Unhandled exception in CHECK_EQUAL(104UL, *item)"
 8606      6E646C65 
 8606      64206578 
 8606      63657074 
 8606      696F6E20 
 8607 0b91 00000000 		.align 8
 8607      000000
 8608              	.LC61:
 8609 0b98 556E6861 		.string	"Unhandled exception in CHECK_EQUAL(USB_EMPTY_QUEUE, status)"
 8609      6E646C65 
 8609      64206578 
 8609      63657074 
 8609      696F6E20 
 8610              		.section	.text.unlikely
 8611              	.LCOLDB62:
 8612              		.text
 8613              	.LHOTB62:
 8614 2148 0F1F8400 		.p2align 4
 8614      00000000 
 8615              		.globl	_Z11testReallocm
 8617              	_Z11testReallocm:
 8618              	.LFB1259:
 8619              		.cfi_startproc
 8620              		.cfi_personality 0x9b,DW.ref.__gxx_personality_v0
 8621              		.cfi_lsda 0x1b,.LLSDA1259
 8622 2150 F30F1EFA 		endbr64
 8623 2154 4156     		pushq	%r14
 8624              		.cfi_def_cfa_offset 16
 8625              		.cfi_offset 14, -16
 8626 2156 488D0D00 		leaq	destroyInt(%rip), %rcx
 8626      000000
 8627 215d BE040000 		movl	$4, %esi
 8627      00
 8628 2162 488D1500 		leaq	createInt(%rip), %rdx
 8628      000000
 8629 2169 4155     		pushq	%r13
 8630              		.cfi_def_cfa_offset 24
 8631              		.cfi_offset 13, -24
 8632 216b 4154     		pushq	%r12
 8633              		.cfi_def_cfa_offset 32
 8634              		.cfi_offset 12, -32
 8635 216d 55       		pushq	%rbp
 8636              		.cfi_def_cfa_offset 40
 8637              		.cfi_offset 6, -40
 8638 216e 53       		pushq	%rbx
 8639              		.cfi_def_cfa_offset 48
 8640              		.cfi_offset 3, -48
 8641 216f 4881EC90 		subq	$144, %rsp
 8641      000000
 8642              		.cfi_def_cfa_offset 192
 8643 2176 48897C24 		movq	%rdi, 8(%rsp)
 8643      08
 8644 217b 4C8D6424 		leaq	80(%rsp), %r12
 8644      50
 8645 2180 4C89E7   		movq	%r12, %rdi
 8646 2183 64488B04 		movq	%fs:40, %rax
 8646      25280000 
 8646      00
 8647 218c 48898424 		movq	%rax, 136(%rsp)
 8647      88000000 
 8648 2194 31C0     		xorl	%eax, %eax
 8649 2196 C7050000 		movl	$1, _ZL7m_count(%rip)
 8649      00000100 
 8649      0000
 8650              	.LEHB399:
 8651 21a0 E8000000 		call	queueInit@PLT
 8651      00
 8652              	.LEHE399:
 8653 21a5 89442418 		movl	%eax, 24(%rsp)
 8654              	.LEHB400:
 8655 21a9 E8000000 		call	_ZN8UnitTest11CurrentTest7DetailsEv@PLT
 8655      00
 8656 21ae 488D6C24 		leaq	48(%rsp), %rbp
 8656      30
 8657 21b3 488B30   		movq	(%rax), %rsi
 8658 21b6 BAEE0000 		movl	$238, %edx
 8658      00
 8659 21bb 4889EF   		movq	%rbp, %rdi
 8660 21be E8000000 		call	_ZN8UnitTest11TestDetailsC1ERKS0_i@PLT
 8660      00
 8661 21c3 C7442428 		movl	$0, 40(%rsp)
 8661      00000000 
 8662 21cb E8000000 		call	_ZN8UnitTest11CurrentTest7ResultsEv@PLT
 8662      00
 8663 21d0 488B38   		movq	(%rax), %rdi
 8664 21d3 488D5424 		leaq	24(%rsp), %rdx
 8664      18
 8665 21d8 488D7424 		leaq	40(%rsp), %rsi
 8665      28
 8666 21dd 4889E9   		movq	%rbp, %rcx
 8667 21e0 E87BE1FF 		call	_ZN8UnitTest10CheckEqualI9USBStatusS1_EEvRNS_11TestResultsERKT_RKT0_RKNS_11TestDetailsE.const
 8667      FF
 8668              	.LEHE400:
 8669              	.L593:
 8670 21e5 488B5C24 		movq	8(%rsp), %rbx
 8670      08
 8671 21ea 4C8D6C24 		leaq	32(%rsp), %r13
 8671      20
 8672 21ef 4C89E7   		movq	%r12, %rdi
 8673 21f2 4C89EE   		movq	%r13, %rsi
 8674 21f5 66480F6E 		movq	%rbx, %xmm0
 8674      C3
 8675 21fa 660F6CC0 		punpcklqdq	%xmm0, %xmm0
 8676 21fe 0F294424 		movaps	%xmm0, 96(%rsp)
 8676      60
 8677              	.LEHB401:
 8678 2203 E8000000 		call	queuePut@PLT
 8678      00
 8679              	.LEHE401:
 8680 2208 89442418 		movl	%eax, 24(%rsp)
 8681              	.LEHB402:
 8682 220c E8000000 		call	_ZN8UnitTest11CurrentTest7DetailsEv@PLT
 8682      00
 8683 2211 488B30   		movq	(%rax), %rsi
 8684 2214 BAF60000 		movl	$246, %edx
 8684      00
 8685 2219 4889EF   		movq	%rbp, %rdi
 8686 221c E8000000 		call	_ZN8UnitTest11TestDetailsC1ERKS0_i@PLT
 8686      00
 8687 2221 C7442428 		movl	$0, 40(%rsp)
 8687      00000000 
 8688 2229 E8000000 		call	_ZN8UnitTest11CurrentTest7ResultsEv@PLT
 8688      00
 8689 222e 488B38   		movq	(%rax), %rdi
 8690 2231 488D5424 		leaq	24(%rsp), %rdx
 8690      18
 8691 2236 488D7424 		leaq	40(%rsp), %rsi
 8691      28
 8692 223b 4889E9   		movq	%rbp, %rcx
 8693 223e E81DE1FF 		call	_ZN8UnitTest10CheckEqualI9USBStatusS1_EEvRNS_11TestResultsERKT_RKT0_RKNS_11TestDetailsE.const
 8693      FF
 8694              	.LEHE402:
 8695              	.L596:
 8696              	.LEHB403:
 8697 2243 E8000000 		call	_ZN8UnitTest11CurrentTest7DetailsEv@PLT
 8697      00
 8698 2248 488B30   		movq	(%rax), %rsi
 8699 224b BAF70000 		movl	$247, %edx
 8699      00
 8700 2250 4889EF   		movq	%rbp, %rdi
 8701 2253 E8000000 		call	_ZN8UnitTest11TestDetailsC1ERKS0_i@PLT
 8701      00
 8702 2258 4889D8   		movq	%rbx, %rax
 8703 225b 4C8B7424 		movq	32(%rsp), %r14
 8703      20
 8704 2260 83E003   		andl	$3, %eax
 8705 2263 4883C001 		addq	$1, %rax
 8706 2267 48894424 		movq	%rax, 40(%rsp)
 8706      28
 8707 226c E8000000 		call	_ZN8UnitTest11CurrentTest7ResultsEv@PLT
 8707      00
 8708 2271 488B38   		movq	(%rax), %rdi
 8709 2274 488D7424 		leaq	40(%rsp), %rsi
 8709      28
 8710 2279 4889E9   		movq	%rbp, %rcx
 8711 227c 4C89F2   		movq	%r14, %rdx
 8712 227f E8000000 		call	_ZN8UnitTest10CheckEqualImjEEvRNS_11TestResultsERKT_RKT0_RKNS_11TestDetailsE
 8712      00
 8713              	.LEHE403:
 8714              	.L599:
 8715 2284 488B4424 		movq	32(%rsp), %rax
 8715      20
 8716 2289 4C89E7   		movq	%r12, %rdi
 8717 228c C7006400 		movl	$100, (%rax)
 8717      0000
 8718              	.LEHB404:
 8719 2292 E8000000 		call	queueCommitPut@PLT
 8719      00
 8720 2297 4C89EE   		movq	%r13, %rsi
 8721 229a 4C89E7   		movq	%r12, %rdi
 8722 229d E8000000 		call	queuePut@PLT
 8722      00
 8723              	.LEHE404:
 8724 22a2 89442418 		movl	%eax, 24(%rsp)
 8725              	.LEHB405:
 8726 22a6 E8000000 		call	_ZN8UnitTest11CurrentTest7DetailsEv@PLT
 8726      00
 8727 22ab 488B30   		movq	(%rax), %rsi
 8728 22ae BAFB0000 		movl	$251, %edx
 8728      00
 8729 22b3 4889EF   		movq	%rbp, %rdi
 8730 22b6 E8000000 		call	_ZN8UnitTest11TestDetailsC1ERKS0_i@PLT
 8730      00
 8731 22bb C7442428 		movl	$0, 40(%rsp)
 8731      00000000 
 8732 22c3 E8000000 		call	_ZN8UnitTest11CurrentTest7ResultsEv@PLT
 8732      00
 8733 22c8 488B38   		movq	(%rax), %rdi
 8734 22cb 488D5424 		leaq	24(%rsp), %rdx
 8734      18
 8735 22d0 488D7424 		leaq	40(%rsp), %rsi
 8735      28
 8736 22d5 4889E9   		movq	%rbp, %rcx
 8737 22d8 E883E0FF 		call	_ZN8UnitTest10CheckEqualI9USBStatusS1_EEvRNS_11TestResultsERKT_RKT0_RKNS_11TestDetailsE.const
 8737      FF
 8738              	.LEHE405:
 8739              	.L602:
 8740              	.LEHB406:
 8741 22dd E8000000 		call	_ZN8UnitTest11CurrentTest7DetailsEv@PLT
 8741      00
 8742 22e2 488B30   		movq	(%rax), %rsi
 8743 22e5 BAFC0000 		movl	$252, %edx
 8743      00
 8744 22ea 4889EF   		movq	%rbp, %rdi
 8745 22ed E8000000 		call	_ZN8UnitTest11TestDetailsC1ERKS0_i@PLT
 8745      00
 8746 22f2 488D4301 		leaq	1(%rbx), %rax
 8747 22f6 4C8B7424 		movq	32(%rsp), %r14
 8747      20
 8748 22fb 83E003   		andl	$3, %eax
 8749 22fe 4883C001 		addq	$1, %rax
 8750 2302 48894424 		movq	%rax, 40(%rsp)
 8750      28
 8751 2307 E8000000 		call	_ZN8UnitTest11CurrentTest7ResultsEv@PLT
 8751      00
 8752 230c 488B38   		movq	(%rax), %rdi
 8753 230f 488D7424 		leaq	40(%rsp), %rsi
 8753      28
 8754 2314 4889E9   		movq	%rbp, %rcx
 8755 2317 4C89F2   		movq	%r14, %rdx
 8756 231a E8000000 		call	_ZN8UnitTest10CheckEqualImjEEvRNS_11TestResultsERKT_RKT0_RKNS_11TestDetailsE
 8756      00
 8757              	.LEHE406:
 8758              	.L605:
 8759 231f 488B4424 		movq	32(%rsp), %rax
 8759      20
 8760 2324 4C89E7   		movq	%r12, %rdi
 8761 2327 C7006500 		movl	$101, (%rax)
 8761      0000
 8762              	.LEHB407:
 8763 232d E8000000 		call	queueCommitPut@PLT
 8763      00
 8764 2332 4C89EE   		movq	%r13, %rsi
 8765 2335 4C89E7   		movq	%r12, %rdi
 8766 2338 E8000000 		call	queuePut@PLT
 8766      00
 8767              	.LEHE407:
 8768 233d 89442418 		movl	%eax, 24(%rsp)
 8769              	.LEHB408:
 8770 2341 E8000000 		call	_ZN8UnitTest11CurrentTest7DetailsEv@PLT
 8770      00
 8771 2346 488B30   		movq	(%rax), %rsi
 8772 2349 BA000100 		movl	$256, %edx
 8772      00
 8773 234e 4889EF   		movq	%rbp, %rdi
 8774 2351 E8000000 		call	_ZN8UnitTest11TestDetailsC1ERKS0_i@PLT
 8774      00
 8775 2356 C7442428 		movl	$0, 40(%rsp)
 8775      00000000 
 8776 235e E8000000 		call	_ZN8UnitTest11CurrentTest7ResultsEv@PLT
 8776      00
 8777 2363 488B38   		movq	(%rax), %rdi
 8778 2366 488D5424 		leaq	24(%rsp), %rdx
 8778      18
 8779 236b 488D7424 		leaq	40(%rsp), %rsi
 8779      28
 8780 2370 4889E9   		movq	%rbp, %rcx
 8781 2373 E8E8DFFF 		call	_ZN8UnitTest10CheckEqualI9USBStatusS1_EEvRNS_11TestResultsERKT_RKT0_RKNS_11TestDetailsE.const
 8781      FF
 8782              	.LEHE408:
 8783              	.L608:
 8784              	.LEHB409:
 8785 2378 E8000000 		call	_ZN8UnitTest11CurrentTest7DetailsEv@PLT
 8785      00
 8786 237d 488B30   		movq	(%rax), %rsi
 8787 2380 BA010100 		movl	$257, %edx
 8787      00
 8788 2385 4889EF   		movq	%rbp, %rdi
 8789 2388 E8000000 		call	_ZN8UnitTest11TestDetailsC1ERKS0_i@PLT
 8789      00
 8790 238d 488D4302 		leaq	2(%rbx), %rax
 8791 2391 4C8B7424 		movq	32(%rsp), %r14
 8791      20
 8792 2396 83E003   		andl	$3, %eax
 8793 2399 4883C001 		addq	$1, %rax
 8794 239d 48894424 		movq	%rax, 40(%rsp)
 8794      28
 8795 23a2 E8000000 		call	_ZN8UnitTest11CurrentTest7ResultsEv@PLT
 8795      00
 8796 23a7 488B38   		movq	(%rax), %rdi
 8797 23aa 488D7424 		leaq	40(%rsp), %rsi
 8797      28
 8798 23af 4889E9   		movq	%rbp, %rcx
 8799 23b2 4C89F2   		movq	%r14, %rdx
 8800 23b5 E8000000 		call	_ZN8UnitTest10CheckEqualImjEEvRNS_11TestResultsERKT_RKT0_RKNS_11TestDetailsE
 8800      00
 8801              	.LEHE409:
 8802              	.L611:
 8803 23ba 488B4424 		movq	32(%rsp), %rax
 8803      20
 8804 23bf 4C89E7   		movq	%r12, %rdi
 8805 23c2 C7006600 		movl	$102, (%rax)
 8805      0000
 8806              	.LEHB410:
 8807 23c8 E8000000 		call	queueCommitPut@PLT
 8807      00
 8808 23cd 4C89EE   		movq	%r13, %rsi
 8809 23d0 4C89E7   		movq	%r12, %rdi
 8810 23d3 E8000000 		call	queuePut@PLT
 8810      00
 8811              	.LEHE410:
 8812 23d8 89442418 		movl	%eax, 24(%rsp)
 8813              	.LEHB411:
 8814 23dc E8000000 		call	_ZN8UnitTest11CurrentTest7DetailsEv@PLT
 8814      00
 8815 23e1 488B30   		movq	(%rax), %rsi
 8816 23e4 BA050100 		movl	$261, %edx
 8816      00
 8817 23e9 4889EF   		movq	%rbp, %rdi
 8818 23ec E8000000 		call	_ZN8UnitTest11TestDetailsC1ERKS0_i@PLT
 8818      00
 8819 23f1 C7442428 		movl	$0, 40(%rsp)
 8819      00000000 
 8820 23f9 E8000000 		call	_ZN8UnitTest11CurrentTest7ResultsEv@PLT
 8820      00
 8821 23fe 488B38   		movq	(%rax), %rdi
 8822 2401 488D5424 		leaq	24(%rsp), %rdx
 8822      18
 8823 2406 488D7424 		leaq	40(%rsp), %rsi
 8823      28
 8824 240b 4889E9   		movq	%rbp, %rcx
 8825 240e E84DDFFF 		call	_ZN8UnitTest10CheckEqualI9USBStatusS1_EEvRNS_11TestResultsERKT_RKT0_RKNS_11TestDetailsE.const
 8825      FF
 8826              	.LEHE411:
 8827              	.L614:
 8828              	.LEHB412:
 8829 2413 E8000000 		call	_ZN8UnitTest11CurrentTest7DetailsEv@PLT
 8829      00
 8830 2418 488B30   		movq	(%rax), %rsi
 8831 241b BA060100 		movl	$262, %edx
 8831      00
 8832 2420 4889EF   		movq	%rbp, %rdi
 8833 2423 E8000000 		call	_ZN8UnitTest11TestDetailsC1ERKS0_i@PLT
 8833      00
 8834 2428 4883C303 		addq	$3, %rbx
 8835 242c 4C8B7424 		movq	32(%rsp), %r14
 8835      20
 8836 2431 83E303   		andl	$3, %ebx
 8837 2434 4883C301 		addq	$1, %rbx
 8838 2438 48895C24 		movq	%rbx, 40(%rsp)
 8838      28
 8839 243d E8000000 		call	_ZN8UnitTest11CurrentTest7ResultsEv@PLT
 8839      00
 8840 2442 488B38   		movq	(%rax), %rdi
 8841 2445 488D7424 		leaq	40(%rsp), %rsi
 8841      28
 8842 244a 4889E9   		movq	%rbp, %rcx
 8843 244d 4C89F2   		movq	%r14, %rdx
 8844 2450 E8000000 		call	_ZN8UnitTest10CheckEqualImjEEvRNS_11TestResultsERKT_RKT0_RKNS_11TestDetailsE
 8844      00
 8845              	.LEHE412:
 8846              	.L617:
 8847 2455 488B4424 		movq	32(%rsp), %rax
 8847      20
 8848 245a 4C89E7   		movq	%r12, %rdi
 8849 245d C7006700 		movl	$103, (%rax)
 8849      0000
 8850              	.LEHB413:
 8851 2463 E8000000 		call	queueCommitPut@PLT
 8851      00
 8852              	.LEHE413:
 8853              	.LEHB414:
 8854 2468 E8000000 		call	_ZN8UnitTest11CurrentTest7DetailsEv@PLT
 8854      00
 8855 246d 488B30   		movq	(%rax), %rsi
 8856 2470 BA0B0100 		movl	$267, %edx
 8856      00
 8857 2475 4889EF   		movq	%rbp, %rdi
 8858 2478 E8000000 		call	_ZN8UnitTest11TestDetailsC1ERKS0_i@PLT
 8858      00
 8859 247d 48C74424 		movq	$4, 40(%rsp)
 8859      28040000 
 8859      00
 8860 2486 E8000000 		call	_ZN8UnitTest11CurrentTest7ResultsEv@PLT
 8860      00
 8861 248b 488B38   		movq	(%rax), %rdi
 8862 248e 488D5424 		leaq	88(%rsp), %rdx
 8862      58
 8863 2493 488D7424 		leaq	40(%rsp), %rsi
 8863      28
 8864 2498 4889E9   		movq	%rbp, %rcx
 8865 249b E8000000 		call	_ZN8UnitTest10CheckEqualImmEEvRNS_11TestResultsERKT_RKT0_RKNS_11TestDetailsE
 8865      00
 8866              	.LEHE414:
 8867              	.L620:
 8868              	.LEHB415:
 8869 24a0 E8000000 		call	_ZN8UnitTest11CurrentTest7DetailsEv@PLT
 8869      00
 8870 24a5 488B30   		movq	(%rax), %rsi
 8871 24a8 BA0C0100 		movl	$268, %edx
 8871      00
 8872 24ad 4889EF   		movq	%rbp, %rdi
 8873 24b0 E8000000 		call	_ZN8UnitTest11TestDetailsC1ERKS0_i@PLT
 8873      00
 8874 24b5 E8000000 		call	_ZN8UnitTest11CurrentTest7ResultsEv@PLT
 8874      00
 8875 24ba 488B38   		movq	(%rax), %rdi
 8876 24bd 488D5424 		leaq	96(%rsp), %rdx
 8876      60
 8877 24c2 488D7424 		leaq	8(%rsp), %rsi
 8877      08
 8878 24c7 4889E9   		movq	%rbp, %rcx
 8879 24ca E8000000 		call	_ZN8UnitTest10CheckEqualImmEEvRNS_11TestResultsERKT_RKT0_RKNS_11TestDetailsE
 8879      00
 8880              	.LEHE415:
 8881              	.L623:
 8882              	.LEHB416:
 8883 24cf E8000000 		call	_ZN8UnitTest11CurrentTest7DetailsEv@PLT
 8883      00
 8884 24d4 488B30   		movq	(%rax), %rsi
 8885 24d7 BA0D0100 		movl	$269, %edx
 8885      00
 8886 24dc 4889EF   		movq	%rbp, %rdi
 8887 24df E8000000 		call	_ZN8UnitTest11TestDetailsC1ERKS0_i@PLT
 8887      00
 8888 24e4 E8000000 		call	_ZN8UnitTest11CurrentTest7ResultsEv@PLT
 8888      00
 8889 24e9 488B38   		movq	(%rax), %rdi
 8890 24ec 488D5424 		leaq	104(%rsp), %rdx
 8890      68
 8891 24f1 488D7424 		leaq	8(%rsp), %rsi
 8891      08
 8892 24f6 4889E9   		movq	%rbp, %rcx
 8893 24f9 E8000000 		call	_ZN8UnitTest10CheckEqualImmEEvRNS_11TestResultsERKT_RKT0_RKNS_11TestDetailsE
 8893      00
 8894              	.LEHE416:
 8895              	.L626:
 8896              	.LEHB417:
 8897 24fe E8000000 		call	_ZN8UnitTest11CurrentTest7DetailsEv@PLT
 8897      00
 8898 2503 488B30   		movq	(%rax), %rsi
 8899 2506 BA0E0100 		movl	$270, %edx
 8899      00
 8900 250b 4889EF   		movq	%rbp, %rdi
 8901 250e E8000000 		call	_ZN8UnitTest11TestDetailsC1ERKS0_i@PLT
 8901      00
 8902 2513 48C74424 		movq	$4, 40(%rsp)
 8902      28040000 
 8902      00
 8903 251c E8000000 		call	_ZN8UnitTest11CurrentTest7ResultsEv@PLT
 8903      00
 8904 2521 488B38   		movq	(%rax), %rdi
 8905 2524 488D5424 		leaq	112(%rsp), %rdx
 8905      70
 8906 2529 488D7424 		leaq	40(%rsp), %rsi
 8906      28
 8907 252e 4889E9   		movq	%rbp, %rcx
 8908 2531 E8000000 		call	_ZN8UnitTest10CheckEqualImmEEvRNS_11TestResultsERKT_RKT0_RKNS_11TestDetailsE
 8908      00
 8909              	.LEHE417:
 8910              	.L629:
 8911 2536 4C89EE   		movq	%r13, %rsi
 8912 2539 4C89E7   		movq	%r12, %rdi
 8913              	.LEHB418:
 8914 253c E8000000 		call	queuePut@PLT
 8914      00
 8915              	.LEHE418:
 8916 2541 89442418 		movl	%eax, 24(%rsp)
 8917              	.LEHB419:
 8918 2545 E8000000 		call	_ZN8UnitTest11CurrentTest7DetailsEv@PLT
 8918      00
 8919 254a 488B30   		movq	(%rax), %rsi
 8920 254d BA120100 		movl	$274, %edx
 8920      00
 8921 2552 4889EF   		movq	%rbp, %rdi
 8922 2555 E8000000 		call	_ZN8UnitTest11TestDetailsC1ERKS0_i@PLT
 8922      00
 8923 255a C7442428 		movl	$0, 40(%rsp)
 8923      00000000 
 8924 2562 E8000000 		call	_ZN8UnitTest11CurrentTest7ResultsEv@PLT
 8924      00
 8925 2567 488B38   		movq	(%rax), %rdi
 8926 256a 488D5424 		leaq	24(%rsp), %rdx
 8926      18
 8927 256f 488D7424 		leaq	40(%rsp), %rsi
 8927      28
 8928 2574 4889E9   		movq	%rbp, %rcx
 8929 2577 E8E4DDFF 		call	_ZN8UnitTest10CheckEqualI9USBStatusS1_EEvRNS_11TestResultsERKT_RKT0_RKNS_11TestDetailsE.const
 8929      FF
 8930              	.LEHE419:
 8931              	.L632:
 8932              	.LEHB420:
 8933 257c E8000000 		call	_ZN8UnitTest11CurrentTest7DetailsEv@PLT
 8933      00
 8934 2581 488B30   		movq	(%rax), %rsi
 8935 2584 BA130100 		movl	$275, %edx
 8935      00
 8936 2589 4889EF   		movq	%rbp, %rdi
 8937 258c E8000000 		call	_ZN8UnitTest11TestDetailsC1ERKS0_i@PLT
 8937      00
 8938 2591 48C74424 		movq	$5, 40(%rsp)
 8938      28050000 
 8938      00
 8939 259a 4C8B7424 		movq	32(%rsp), %r14
 8939      20
 8940 259f E8000000 		call	_ZN8UnitTest11CurrentTest7ResultsEv@PLT
 8940      00
 8941 25a4 488B38   		movq	(%rax), %rdi
 8942 25a7 488D7424 		leaq	40(%rsp), %rsi
 8942      28
 8943 25ac 4889E9   		movq	%rbp, %rcx
 8944 25af 4C89F2   		movq	%r14, %rdx
 8945 25b2 E8000000 		call	_ZN8UnitTest10CheckEqualImjEEvRNS_11TestResultsERKT_RKT0_RKNS_11TestDetailsE
 8945      00
 8946              	.LEHE420:
 8947              	.L635:
 8948 25b7 488B4424 		movq	32(%rsp), %rax
 8948      20
 8949 25bc 4C89E7   		movq	%r12, %rdi
 8950 25bf C7006800 		movl	$104, (%rax)
 8950      0000
 8951              	.LEHB421:
 8952 25c5 E8000000 		call	queueCommitPut@PLT
 8952      00
 8953              	.LEHE421:
 8954              	.LEHB422:
 8955 25ca E8000000 		call	_ZN8UnitTest11CurrentTest7DetailsEv@PLT
 8955      00
 8956 25cf 488B30   		movq	(%rax), %rsi
 8957 25d2 BA180100 		movl	$280, %edx
 8957      00
 8958 25d7 4889EF   		movq	%rbp, %rdi
 8959 25da E8000000 		call	_ZN8UnitTest11TestDetailsC1ERKS0_i@PLT
 8959      00
 8960 25df 48C74424 		movq	$8, 40(%rsp)
 8960      28080000 
 8960      00
 8961 25e8 E8000000 		call	_ZN8UnitTest11CurrentTest7ResultsEv@PLT
 8961      00
 8962 25ed 488B38   		movq	(%rax), %rdi
 8963 25f0 488D5424 		leaq	88(%rsp), %rdx
 8963      58
 8964 25f5 488D7424 		leaq	40(%rsp), %rsi
 8964      28
 8965 25fa 4889E9   		movq	%rbp, %rcx
 8966 25fd E8000000 		call	_ZN8UnitTest10CheckEqualImmEEvRNS_11TestResultsERKT_RKT0_RKNS_11TestDetailsE
 8966      00
 8967              	.LEHE422:
 8968              	.L638:
 8969              	.LEHB423:
 8970 2602 E8000000 		call	_ZN8UnitTest11CurrentTest7DetailsEv@PLT
 8970      00
 8971 2607 488B30   		movq	(%rax), %rsi
 8972 260a BA190100 		movl	$281, %edx
 8972      00
 8973 260f 4889EF   		movq	%rbp, %rdi
 8974 2612 E8000000 		call	_ZN8UnitTest11TestDetailsC1ERKS0_i@PLT
 8974      00
 8975 2617 48C74424 		movq	$5, 40(%rsp)
 8975      28050000 
 8975      00
 8976 2620 E8000000 		call	_ZN8UnitTest11CurrentTest7ResultsEv@PLT
 8976      00
 8977 2625 488B38   		movq	(%rax), %rdi
 8978 2628 488D5424 		leaq	96(%rsp), %rdx
 8978      60
 8979 262d 488D7424 		leaq	40(%rsp), %rsi
 8979      28
 8980 2632 4889E9   		movq	%rbp, %rcx
 8981 2635 E8000000 		call	_ZN8UnitTest10CheckEqualImmEEvRNS_11TestResultsERKT_RKT0_RKNS_11TestDetailsE
 8981      00
 8982              	.LEHE423:
 8983              	.L641:
 8984              	.LEHB424:
 8985 263a E8000000 		call	_ZN8UnitTest11CurrentTest7DetailsEv@PLT
 8985      00
 8986 263f 488B30   		movq	(%rax), %rsi
 8987 2642 BA1A0100 		movl	$282, %edx
 8987      00
 8988 2647 4889EF   		movq	%rbp, %rdi
 8989 264a E8000000 		call	_ZN8UnitTest11TestDetailsC1ERKS0_i@PLT
 8989      00
 8990 264f 48C74424 		movq	$0, 40(%rsp)
 8990      28000000 
 8990      00
 8991 2658 E8000000 		call	_ZN8UnitTest11CurrentTest7ResultsEv@PLT
 8991      00
 8992 265d 488B38   		movq	(%rax), %rdi
 8993 2660 488D5424 		leaq	104(%rsp), %rdx
 8993      68
 8994 2665 488D7424 		leaq	40(%rsp), %rsi
 8994      28
 8995 266a 4889E9   		movq	%rbp, %rcx
 8996 266d E8000000 		call	_ZN8UnitTest10CheckEqualImmEEvRNS_11TestResultsERKT_RKT0_RKNS_11TestDetailsE
 8996      00
 8997              	.LEHE424:
 8998              	.L644:
 8999              	.LEHB425:
 9000 2672 E8000000 		call	_ZN8UnitTest11CurrentTest7DetailsEv@PLT
 9000      00
 9001 2677 488B30   		movq	(%rax), %rsi
 9002 267a BA1B0100 		movl	$283, %edx
 9002      00
 9003 267f 4889EF   		movq	%rbp, %rdi
 9004 2682 E8000000 		call	_ZN8UnitTest11TestDetailsC1ERKS0_i@PLT
 9004      00
 9005 2687 48C74424 		movq	$5, 40(%rsp)
 9005      28050000 
 9005      00
 9006 2690 E8000000 		call	_ZN8UnitTest11CurrentTest7ResultsEv@PLT
 9006      00
 9007 2695 488B38   		movq	(%rax), %rdi
 9008 2698 488D5424 		leaq	112(%rsp), %rdx
 9008      70
 9009 269d 488D7424 		leaq	40(%rsp), %rsi
 9009      28
 9010 26a2 4889E9   		movq	%rbp, %rcx
 9011 26a5 E8000000 		call	_ZN8UnitTest10CheckEqualImmEEvRNS_11TestResultsERKT_RKT0_RKNS_11TestDetailsE
 9011      00
 9012              	.LEHE425:
 9013              	.L647:
 9014              	.LEHB426:
 9015 26aa E8000000 		call	_ZN8UnitTest11CurrentTest7DetailsEv@PLT
 9015      00
 9016 26af 488B30   		movq	(%rax), %rsi
 9017 26b2 BA1E0100 		movl	$286, %edx
 9017      00
 9018 26b7 4889EF   		movq	%rbp, %rdi
 9019 26ba E8000000 		call	_ZN8UnitTest11TestDetailsC1ERKS0_i@PLT
 9019      00
 9020 26bf 48C74424 		movq	$100, 40(%rsp)
 9020      28640000 
 9020      00
 9021 26c8 488B4424 		movq	80(%rsp), %rax
 9021      50
 9022 26cd 488B00   		movq	(%rax), %rax
 9023 26d0 8B00     		movl	(%rax), %eax
 9024 26d2 8944241C 		movl	%eax, 28(%rsp)
 9025 26d6 E8000000 		call	_ZN8UnitTest11CurrentTest7ResultsEv@PLT
 9025      00
 9026 26db 488B38   		movq	(%rax), %rdi
 9027 26de 488D5424 		leaq	28(%rsp), %rdx
 9027      1C
 9028 26e3 488D7424 		leaq	40(%rsp), %rsi
 9028      28
 9029 26e8 4889E9   		movq	%rbp, %rcx
 9030 26eb E8000000 		call	_ZN8UnitTest10CheckEqualImjEEvRNS_11TestResultsERKT_RKT0_RKNS_11TestDetailsE
 9030      00
 9031              	.LEHE426:
 9032              	.L650:
 9033              	.LEHB427:
 9034 26f0 E8000000 		call	_ZN8UnitTest11CurrentTest7DetailsEv@PLT
 9034      00
 9035 26f5 488B30   		movq	(%rax), %rsi
 9036 26f8 BA1F0100 		movl	$287, %edx
 9036      00
 9037 26fd 4889EF   		movq	%rbp, %rdi
 9038 2700 E8000000 		call	_ZN8UnitTest11TestDetailsC1ERKS0_i@PLT
 9038      00
 9039 2705 48C74424 		movq	$101, 40(%rsp)
 9039      28650000 
 9039      00
 9040 270e 488B4424 		movq	80(%rsp), %rax
 9040      50
 9041 2713 488B4008 		movq	8(%rax), %rax
 9042 2717 8B00     		movl	(%rax), %eax
 9043 2719 8944241C 		movl	%eax, 28(%rsp)
 9044 271d E8000000 		call	_ZN8UnitTest11CurrentTest7ResultsEv@PLT
 9044      00
 9045 2722 488B38   		movq	(%rax), %rdi
 9046 2725 488D5424 		leaq	28(%rsp), %rdx
 9046      1C
 9047 272a 488D7424 		leaq	40(%rsp), %rsi
 9047      28
 9048 272f 4889E9   		movq	%rbp, %rcx
 9049 2732 E8000000 		call	_ZN8UnitTest10CheckEqualImjEEvRNS_11TestResultsERKT_RKT0_RKNS_11TestDetailsE
 9049      00
 9050              	.LEHE427:
 9051              	.L653:
 9052              	.LEHB428:
 9053 2737 E8000000 		call	_ZN8UnitTest11CurrentTest7DetailsEv@PLT
 9053      00
 9054 273c 488B30   		movq	(%rax), %rsi
 9055 273f BA200100 		movl	$288, %edx
 9055      00
 9056 2744 4889EF   		movq	%rbp, %rdi
 9057 2747 E8000000 		call	_ZN8UnitTest11TestDetailsC1ERKS0_i@PLT
 9057      00
 9058 274c 48C74424 		movq	$102, 40(%rsp)
 9058      28660000 
 9058      00
 9059 2755 488B4424 		movq	80(%rsp), %rax
 9059      50
 9060 275a 488B4010 		movq	16(%rax), %rax
 9061 275e 8B00     		movl	(%rax), %eax
 9062 2760 8944241C 		movl	%eax, 28(%rsp)
 9063 2764 E8000000 		call	_ZN8UnitTest11CurrentTest7ResultsEv@PLT
 9063      00
 9064 2769 488B38   		movq	(%rax), %rdi
 9065 276c 488D5424 		leaq	28(%rsp), %rdx
 9065      1C
 9066 2771 488D7424 		leaq	40(%rsp), %rsi
 9066      28
 9067 2776 4889E9   		movq	%rbp, %rcx
 9068 2779 E8000000 		call	_ZN8UnitTest10CheckEqualImjEEvRNS_11TestResultsERKT_RKT0_RKNS_11TestDetailsE
 9068      00
 9069              	.LEHE428:
 9070              	.L656:
 9071              	.LEHB429:
 9072 277e E8000000 		call	_ZN8UnitTest11CurrentTest7DetailsEv@PLT
 9072      00
 9073 2783 488B30   		movq	(%rax), %rsi
 9074 2786 BA210100 		movl	$289, %edx
 9074      00
 9075 278b 4889EF   		movq	%rbp, %rdi
 9076 278e E8000000 		call	_ZN8UnitTest11TestDetailsC1ERKS0_i@PLT
 9076      00
 9077 2793 48C74424 		movq	$103, 40(%rsp)
 9077      28670000 
 9077      00
 9078 279c 488B4424 		movq	80(%rsp), %rax
 9078      50
 9079 27a1 488B4018 		movq	24(%rax), %rax
 9080 27a5 8B00     		movl	(%rax), %eax
 9081 27a7 8944241C 		movl	%eax, 28(%rsp)
 9082 27ab E8000000 		call	_ZN8UnitTest11CurrentTest7ResultsEv@PLT
 9082      00
 9083 27b0 488B38   		movq	(%rax), %rdi
 9084 27b3 488D5424 		leaq	28(%rsp), %rdx
 9084      1C
 9085 27b8 488D7424 		leaq	40(%rsp), %rsi
 9085      28
 9086 27bd 4889E9   		movq	%rbp, %rcx
 9087 27c0 E8000000 		call	_ZN8UnitTest10CheckEqualImjEEvRNS_11TestResultsERKT_RKT0_RKNS_11TestDetailsE
 9087      00
 9088              	.LEHE429:
 9089              	.L659:
 9090              	.LEHB430:
 9091 27c5 E8000000 		call	_ZN8UnitTest11CurrentTest7DetailsEv@PLT
 9091      00
 9092 27ca 488B30   		movq	(%rax), %rsi
 9093 27cd BA220100 		movl	$290, %edx
 9093      00
 9094 27d2 4889EF   		movq	%rbp, %rdi
 9095 27d5 E8000000 		call	_ZN8UnitTest11TestDetailsC1ERKS0_i@PLT
 9095      00
 9096 27da 48C74424 		movq	$104, 40(%rsp)
 9096      28680000 
 9096      00
 9097 27e3 488B4424 		movq	80(%rsp), %rax
 9097      50
 9098 27e8 488B4020 		movq	32(%rax), %rax
 9099 27ec 8B00     		movl	(%rax), %eax
 9100 27ee 8944241C 		movl	%eax, 28(%rsp)
 9101 27f2 E8000000 		call	_ZN8UnitTest11CurrentTest7ResultsEv@PLT
 9101      00
 9102 27f7 488B38   		movq	(%rax), %rdi
 9103 27fa 488D5424 		leaq	28(%rsp), %rdx
 9103      1C
 9104 27ff 488D7424 		leaq	40(%rsp), %rsi
 9104      28
 9105 2804 4889E9   		movq	%rbp, %rcx
 9106 2807 E8000000 		call	_ZN8UnitTest10CheckEqualImjEEvRNS_11TestResultsERKT_RKT0_RKNS_11TestDetailsE
 9106      00
 9107              	.LEHE430:
 9108              	.L662:
 9109              	.LEHB431:
 9110 280c E8000000 		call	_ZN8UnitTest11CurrentTest7DetailsEv@PLT
 9110      00
 9111 2811 488B30   		movq	(%rax), %rsi
 9112 2814 BA230100 		movl	$291, %edx
 9112      00
 9113 2819 4889EF   		movq	%rbp, %rdi
 9114 281c E8000000 		call	_ZN8UnitTest11TestDetailsC1ERKS0_i@PLT
 9114      00
 9115 2821 48C74424 		movq	$6, 40(%rsp)
 9115      28060000 
 9115      00
 9116 282a 488B4424 		movq	80(%rsp), %rax
 9116      50
 9117 282f 488B4028 		movq	40(%rax), %rax
 9118 2833 8B00     		movl	(%rax), %eax
 9119 2835 8944241C 		movl	%eax, 28(%rsp)
 9120 2839 E8000000 		call	_ZN8UnitTest11CurrentTest7ResultsEv@PLT
 9120      00
 9121 283e 488B38   		movq	(%rax), %rdi
 9122 2841 488D5424 		leaq	28(%rsp), %rdx
 9122      1C
 9123 2846 488D7424 		leaq	40(%rsp), %rsi
 9123      28
 9124 284b 4889E9   		movq	%rbp, %rcx
 9125 284e E8000000 		call	_ZN8UnitTest10CheckEqualImjEEvRNS_11TestResultsERKT_RKT0_RKNS_11TestDetailsE
 9125      00
 9126              	.LEHE431:
 9127              	.L665:
 9128              	.LEHB432:
 9129 2853 E8000000 		call	_ZN8UnitTest11CurrentTest7DetailsEv@PLT
 9129      00
 9130 2858 488B30   		movq	(%rax), %rsi
 9131 285b BA240100 		movl	$292, %edx
 9131      00
 9132 2860 4889EF   		movq	%rbp, %rdi
 9133 2863 E8000000 		call	_ZN8UnitTest11TestDetailsC1ERKS0_i@PLT
 9133      00
 9134 2868 48C74424 		movq	$7, 40(%rsp)
 9134      28070000 
 9134      00
 9135 2871 488B4424 		movq	80(%rsp), %rax
 9135      50
 9136 2876 488B4030 		movq	48(%rax), %rax
 9137 287a 8B00     		movl	(%rax), %eax
 9138 287c 8944241C 		movl	%eax, 28(%rsp)
 9139 2880 E8000000 		call	_ZN8UnitTest11CurrentTest7ResultsEv@PLT
 9139      00
 9140 2885 488B38   		movq	(%rax), %rdi
 9141 2888 488D5424 		leaq	28(%rsp), %rdx
 9141      1C
 9142 288d 488D7424 		leaq	40(%rsp), %rsi
 9142      28
 9143 2892 4889E9   		movq	%rbp, %rcx
 9144 2895 E8000000 		call	_ZN8UnitTest10CheckEqualImjEEvRNS_11TestResultsERKT_RKT0_RKNS_11TestDetailsE
 9144      00
 9145              	.LEHE432:
 9146              	.L668:
 9147              	.LEHB433:
 9148 289a E8000000 		call	_ZN8UnitTest11CurrentTest7DetailsEv@PLT
 9148      00
 9149 289f 488B30   		movq	(%rax), %rsi
 9150 28a2 BA250100 		movl	$293, %edx
 9150      00
 9151 28a7 4889EF   		movq	%rbp, %rdi
 9152 28aa E8000000 		call	_ZN8UnitTest11TestDetailsC1ERKS0_i@PLT
 9152      00
 9153 28af 48C74424 		movq	$8, 40(%rsp)
 9153      28080000 
 9153      00
 9154 28b8 488B4424 		movq	80(%rsp), %rax
 9154      50
 9155 28bd 488B4038 		movq	56(%rax), %rax
 9156 28c1 8B00     		movl	(%rax), %eax
 9157 28c3 8944241C 		movl	%eax, 28(%rsp)
 9158 28c7 E8000000 		call	_ZN8UnitTest11CurrentTest7ResultsEv@PLT
 9158      00
 9159 28cc 488B38   		movq	(%rax), %rdi
 9160 28cf 488D5424 		leaq	28(%rsp), %rdx
 9160      1C
 9161 28d4 488D7424 		leaq	40(%rsp), %rsi
 9161      28
 9162 28d9 4889E9   		movq	%rbp, %rcx
 9163 28dc E8000000 		call	_ZN8UnitTest10CheckEqualImjEEvRNS_11TestResultsERKT_RKT0_RKNS_11TestDetailsE
 9163      00
 9164              	.LEHE433:
 9165              	.L671:
 9166 28e1 4C89EE   		movq	%r13, %rsi
 9167 28e4 4C89E7   		movq	%r12, %rdi
 9168              	.LEHB434:
 9169 28e7 E8000000 		call	queueTake@PLT
 9169      00
 9170              	.LEHE434:
 9171 28ec 89442418 		movl	%eax, 24(%rsp)
 9172              	.LEHB435:
 9173 28f0 E8000000 		call	_ZN8UnitTest11CurrentTest7DetailsEv@PLT
 9173      00
 9174 28f5 488B30   		movq	(%rax), %rsi
 9175 28f8 BA290100 		movl	$297, %edx
 9175      00
 9176 28fd 4889EF   		movq	%rbp, %rdi
 9177 2900 E8000000 		call	_ZN8UnitTest11TestDetailsC1ERKS0_i@PLT
 9177      00
 9178 2905 C7442428 		movl	$0, 40(%rsp)
 9178      00000000 
 9179 290d E8000000 		call	_ZN8UnitTest11CurrentTest7ResultsEv@PLT
 9179      00
 9180 2912 488B38   		movq	(%rax), %rdi
 9181 2915 488D5424 		leaq	24(%rsp), %rdx
 9181      18
 9182 291a 488D7424 		leaq	40(%rsp), %rsi
 9182      28
 9183 291f 4889E9   		movq	%rbp, %rcx
 9184 2922 E8000000 		call	_ZN8UnitTest10CheckEqualI9USBStatusS1_EEvRNS_11TestResultsERKT_RKT0_RKNS_11TestDetailsE
 9184      00
 9185              	.LEHE435:
 9186              	.L674:
 9187              	.LEHB436:
 9188 2927 E8000000 		call	_ZN8UnitTest11CurrentTest7DetailsEv@PLT
 9188      00
 9189 292c 488B30   		movq	(%rax), %rsi
 9190 292f BA2A0100 		movl	$298, %edx
 9190      00
 9191 2934 4889EF   		movq	%rbp, %rdi
 9192 2937 E8000000 		call	_ZN8UnitTest11TestDetailsC1ERKS0_i@PLT
 9192      00
 9193 293c 48C74424 		movq	$100, 40(%rsp)
 9193      28640000 
 9193      00
 9194 2945 4C8B7424 		movq	32(%rsp), %r14
 9194      20
 9195 294a E8000000 		call	_ZN8UnitTest11CurrentTest7ResultsEv@PLT
 9195      00
 9196 294f 488B38   		movq	(%rax), %rdi
 9197 2952 488D7424 		leaq	40(%rsp), %rsi
 9197      28
 9198 2957 4889E9   		movq	%rbp, %rcx
 9199 295a 4C89F2   		movq	%r14, %rdx
 9200 295d E8000000 		call	_ZN8UnitTest10CheckEqualImjEEvRNS_11TestResultsERKT_RKT0_RKNS_11TestDetailsE
 9200      00
 9201              	.LEHE436:
 9202              	.L677:
 9203 2962 4C89E7   		movq	%r12, %rdi
 9204              	.LEHB437:
 9205 2965 E8000000 		call	queueCommitTake@PLT
 9205      00
 9206 296a 4C89EE   		movq	%r13, %rsi
 9207 296d 4C89E7   		movq	%r12, %rdi
 9208 2970 E8000000 		call	queueTake@PLT
 9208      00
 9209              	.LEHE437:
 9210 2975 89442418 		movl	%eax, 24(%rsp)
 9211              	.LEHB438:
 9212 2979 E8000000 		call	_ZN8UnitTest11CurrentTest7DetailsEv@PLT
 9212      00
 9213 297e 488B30   		movq	(%rax), %rsi
 9214 2981 BA2D0100 		movl	$301, %edx
 9214      00
 9215 2986 4889EF   		movq	%rbp, %rdi
 9216 2989 E8000000 		call	_ZN8UnitTest11TestDetailsC1ERKS0_i@PLT
 9216      00
 9217 298e C7442428 		movl	$0, 40(%rsp)
 9217      00000000 
 9218 2996 E8000000 		call	_ZN8UnitTest11CurrentTest7ResultsEv@PLT
 9218      00
 9219 299b 488B38   		movq	(%rax), %rdi
 9220 299e 488D5424 		leaq	24(%rsp), %rdx
 9220      18
 9221 29a3 488D7424 		leaq	40(%rsp), %rsi
 9221      28
 9222 29a8 4889E9   		movq	%rbp, %rcx
 9223 29ab E8000000 		call	_ZN8UnitTest10CheckEqualI9USBStatusS1_EEvRNS_11TestResultsERKT_RKT0_RKNS_11TestDetailsE
 9223      00
 9224              	.LEHE438:
 9225              	.L680:
 9226              	.LEHB439:
 9227 29b0 E8000000 		call	_ZN8UnitTest11CurrentTest7DetailsEv@PLT
 9227      00
 9228 29b5 488B30   		movq	(%rax), %rsi
 9229 29b8 BA2E0100 		movl	$302, %edx
 9229      00
 9230 29bd 4889EF   		movq	%rbp, %rdi
 9231 29c0 E8000000 		call	_ZN8UnitTest11TestDetailsC1ERKS0_i@PLT
 9231      00
 9232 29c5 48C74424 		movq	$101, 40(%rsp)
 9232      28650000 
 9232      00
 9233 29ce 4C8B7424 		movq	32(%rsp), %r14
 9233      20
 9234 29d3 E8000000 		call	_ZN8UnitTest11CurrentTest7ResultsEv@PLT
 9234      00
 9235 29d8 488B38   		movq	(%rax), %rdi
 9236 29db 488D7424 		leaq	40(%rsp), %rsi
 9236      28
 9237 29e0 4889E9   		movq	%rbp, %rcx
 9238 29e3 4C89F2   		movq	%r14, %rdx
 9239 29e6 E8000000 		call	_ZN8UnitTest10CheckEqualImjEEvRNS_11TestResultsERKT_RKT0_RKNS_11TestDetailsE
 9239      00
 9240              	.LEHE439:
 9241              	.L683:
 9242 29eb 4C89E7   		movq	%r12, %rdi
 9243              	.LEHB440:
 9244 29ee E8000000 		call	queueCommitTake@PLT
 9244      00
 9245 29f3 4C89EE   		movq	%r13, %rsi
 9246 29f6 4C89E7   		movq	%r12, %rdi
 9247 29f9 E8000000 		call	queueTake@PLT
 9247      00
 9248              	.LEHE440:
 9249 29fe 89442418 		movl	%eax, 24(%rsp)
 9250              	.LEHB441:
 9251 2a02 E8000000 		call	_ZN8UnitTest11CurrentTest7DetailsEv@PLT
 9251      00
 9252 2a07 488B30   		movq	(%rax), %rsi
 9253 2a0a BA310100 		movl	$305, %edx
 9253      00
 9254 2a0f 4889EF   		movq	%rbp, %rdi
 9255 2a12 E8000000 		call	_ZN8UnitTest11TestDetailsC1ERKS0_i@PLT
 9255      00
 9256 2a17 C7442428 		movl	$0, 40(%rsp)
 9256      00000000 
 9257 2a1f E8000000 		call	_ZN8UnitTest11CurrentTest7ResultsEv@PLT
 9257      00
 9258 2a24 488B38   		movq	(%rax), %rdi
 9259 2a27 488D5424 		leaq	24(%rsp), %rdx
 9259      18
 9260 2a2c 488D7424 		leaq	40(%rsp), %rsi
 9260      28
 9261 2a31 4889E9   		movq	%rbp, %rcx
 9262 2a34 E8000000 		call	_ZN8UnitTest10CheckEqualI9USBStatusS1_EEvRNS_11TestResultsERKT_RKT0_RKNS_11TestDetailsE
 9262      00
 9263              	.LEHE441:
 9264              	.L686:
 9265              	.LEHB442:
 9266 2a39 E8000000 		call	_ZN8UnitTest11CurrentTest7DetailsEv@PLT
 9266      00
 9267 2a3e 488B30   		movq	(%rax), %rsi
 9268 2a41 BA320100 		movl	$306, %edx
 9268      00
 9269 2a46 4889EF   		movq	%rbp, %rdi
 9270 2a49 E8000000 		call	_ZN8UnitTest11TestDetailsC1ERKS0_i@PLT
 9270      00
 9271 2a4e 48C74424 		movq	$102, 40(%rsp)
 9271      28660000 
 9271      00
 9272 2a57 4C8B7424 		movq	32(%rsp), %r14
 9272      20
 9273 2a5c E8000000 		call	_ZN8UnitTest11CurrentTest7ResultsEv@PLT
 9273      00
 9274 2a61 488B38   		movq	(%rax), %rdi
 9275 2a64 488D7424 		leaq	40(%rsp), %rsi
 9275      28
 9276 2a69 4889E9   		movq	%rbp, %rcx
 9277 2a6c 4C89F2   		movq	%r14, %rdx
 9278 2a6f E8000000 		call	_ZN8UnitTest10CheckEqualImjEEvRNS_11TestResultsERKT_RKT0_RKNS_11TestDetailsE
 9278      00
 9279              	.LEHE442:
 9280              	.L689:
 9281 2a74 4C89E7   		movq	%r12, %rdi
 9282              	.LEHB443:
 9283 2a77 E8000000 		call	queueCommitTake@PLT
 9283      00
 9284 2a7c 4C89EE   		movq	%r13, %rsi
 9285 2a7f 4C89E7   		movq	%r12, %rdi
 9286 2a82 E8000000 		call	queueTake@PLT
 9286      00
 9287              	.LEHE443:
 9288 2a87 89442418 		movl	%eax, 24(%rsp)
 9289              	.LEHB444:
 9290 2a8b E8000000 		call	_ZN8UnitTest11CurrentTest7DetailsEv@PLT
 9290      00
 9291 2a90 488B30   		movq	(%rax), %rsi
 9292 2a93 BA350100 		movl	$309, %edx
 9292      00
 9293 2a98 4889EF   		movq	%rbp, %rdi
 9294 2a9b E8000000 		call	_ZN8UnitTest11TestDetailsC1ERKS0_i@PLT
 9294      00
 9295 2aa0 C7442428 		movl	$0, 40(%rsp)
 9295      00000000 
 9296 2aa8 E8000000 		call	_ZN8UnitTest11CurrentTest7ResultsEv@PLT
 9296      00
 9297 2aad 488B38   		movq	(%rax), %rdi
 9298 2ab0 488D5424 		leaq	24(%rsp), %rdx
 9298      18
 9299 2ab5 488D7424 		leaq	40(%rsp), %rsi
 9299      28
 9300 2aba 4889E9   		movq	%rbp, %rcx
 9301 2abd E8000000 		call	_ZN8UnitTest10CheckEqualI9USBStatusS1_EEvRNS_11TestResultsERKT_RKT0_RKNS_11TestDetailsE
 9301      00
 9302              	.LEHE444:
 9303              	.L692:
 9304              	.LEHB445:
 9305 2ac2 E8000000 		call	_ZN8UnitTest11CurrentTest7DetailsEv@PLT
 9305      00
 9306 2ac7 488B30   		movq	(%rax), %rsi
 9307 2aca BA360100 		movl	$310, %edx
 9307      00
 9308 2acf 4889EF   		movq	%rbp, %rdi
 9309 2ad2 E8000000 		call	_ZN8UnitTest11TestDetailsC1ERKS0_i@PLT
 9309      00
 9310 2ad7 48C74424 		movq	$103, 40(%rsp)
 9310      28670000 
 9310      00
 9311 2ae0 4C8B7424 		movq	32(%rsp), %r14
 9311      20
 9312 2ae5 E8000000 		call	_ZN8UnitTest11CurrentTest7ResultsEv@PLT
 9312      00
 9313 2aea 488B38   		movq	(%rax), %rdi
 9314 2aed 488D7424 		leaq	40(%rsp), %rsi
 9314      28
 9315 2af2 4889E9   		movq	%rbp, %rcx
 9316 2af5 4C89F2   		movq	%r14, %rdx
 9317 2af8 E8000000 		call	_ZN8UnitTest10CheckEqualImjEEvRNS_11TestResultsERKT_RKT0_RKNS_11TestDetailsE
 9317      00
 9318              	.LEHE445:
 9319              	.L695:
 9320 2afd 4C89E7   		movq	%r12, %rdi
 9321              	.LEHB446:
 9322 2b00 E8000000 		call	queueCommitTake@PLT
 9322      00
 9323 2b05 4C89EE   		movq	%r13, %rsi
 9324 2b08 4C89E7   		movq	%r12, %rdi
 9325 2b0b E8000000 		call	queueTake@PLT
 9325      00
 9326              	.LEHE446:
 9327 2b10 89442418 		movl	%eax, 24(%rsp)
 9328              	.LEHB447:
 9329 2b14 E8000000 		call	_ZN8UnitTest11CurrentTest7DetailsEv@PLT
 9329      00
 9330 2b19 488B30   		movq	(%rax), %rsi
 9331 2b1c BA390100 		movl	$313, %edx
 9331      00
 9332 2b21 4889EF   		movq	%rbp, %rdi
 9333 2b24 E8000000 		call	_ZN8UnitTest11TestDetailsC1ERKS0_i@PLT
 9333      00
 9334 2b29 C7442428 		movl	$0, 40(%rsp)
 9334      00000000 
 9335 2b31 E8000000 		call	_ZN8UnitTest11CurrentTest7ResultsEv@PLT
 9335      00
 9336 2b36 488B38   		movq	(%rax), %rdi
 9337 2b39 488D5424 		leaq	24(%rsp), %rdx
 9337      18
 9338 2b3e 488D7424 		leaq	40(%rsp), %rsi
 9338      28
 9339 2b43 4889E9   		movq	%rbp, %rcx
 9340 2b46 E8000000 		call	_ZN8UnitTest10CheckEqualI9USBStatusS1_EEvRNS_11TestResultsERKT_RKT0_RKNS_11TestDetailsE
 9340      00
 9341              	.LEHE447:
 9342              	.L698:
 9343              	.LEHB448:
 9344 2b4b E8000000 		call	_ZN8UnitTest11CurrentTest7DetailsEv@PLT
 9344      00
 9345 2b50 488B30   		movq	(%rax), %rsi
 9346 2b53 BA3A0100 		movl	$314, %edx
 9346      00
 9347 2b58 4889EF   		movq	%rbp, %rdi
 9348 2b5b E8000000 		call	_ZN8UnitTest11TestDetailsC1ERKS0_i@PLT
 9348      00
 9349 2b60 48C74424 		movq	$104, 40(%rsp)
 9349      28680000 
 9349      00
 9350 2b69 4C8B7424 		movq	32(%rsp), %r14
 9350      20
 9351 2b6e E8000000 		call	_ZN8UnitTest11CurrentTest7ResultsEv@PLT
 9351      00
 9352 2b73 488B38   		movq	(%rax), %rdi
 9353 2b76 488D7424 		leaq	40(%rsp), %rsi
 9353      28
 9354 2b7b 4889E9   		movq	%rbp, %rcx
 9355 2b7e 4C89F2   		movq	%r14, %rdx
 9356 2b81 E8000000 		call	_ZN8UnitTest10CheckEqualImjEEvRNS_11TestResultsERKT_RKT0_RKNS_11TestDetailsE
 9356      00
 9357              	.LEHE448:
 9358              	.L701:
 9359 2b86 4C89E7   		movq	%r12, %rdi
 9360              	.LEHB449:
 9361 2b89 E8000000 		call	queueCommitTake@PLT
 9361      00
 9362 2b8e 4C89EE   		movq	%r13, %rsi
 9363 2b91 4C89E7   		movq	%r12, %rdi
 9364 2b94 E8000000 		call	queueTake@PLT
 9364      00
 9365              	.LEHE449:
 9366 2b99 89442418 		movl	%eax, 24(%rsp)
 9367              	.LEHB450:
 9368 2b9d E8000000 		call	_ZN8UnitTest11CurrentTest7DetailsEv@PLT
 9368      00
 9369 2ba2 488B30   		movq	(%rax), %rsi
 9370 2ba5 BA3F0100 		movl	$319, %edx
 9370      00
 9371 2baa 4889EF   		movq	%rbp, %rdi
 9372 2bad E8000000 		call	_ZN8UnitTest11TestDetailsC1ERKS0_i@PLT
 9372      00
 9373 2bb2 C7442428 		movl	$13, 40(%rsp)
 9373      0D000000 
 9374 2bba E8000000 		call	_ZN8UnitTest11CurrentTest7ResultsEv@PLT
 9374      00
 9375 2bbf 488B38   		movq	(%rax), %rdi
 9376 2bc2 488D5424 		leaq	24(%rsp), %rdx
 9376      18
 9377 2bc7 488D7424 		leaq	40(%rsp), %rsi
 9377      28
 9378 2bcc 4889E9   		movq	%rbp, %rcx
 9379 2bcf E8000000 		call	_ZN8UnitTest10CheckEqualI9USBStatusS1_EEvRNS_11TestResultsERKT_RKT0_RKNS_11TestDetailsE
 9379      00
 9380              	.LEHE450:
 9381              	.L704:
 9382 2bd4 4C89E7   		movq	%r12, %rdi
 9383              	.LEHB451:
 9384 2bd7 E8000000 		call	queueDestroy@PLT
 9384      00
 9385              	.LEHE451:
 9386 2bdc 488B8424 		movq	136(%rsp), %rax
 9386      88000000 
 9387 2be4 64482B04 		subq	%fs:40, %rax
 9387      25280000 
 9387      00
 9388 2bed 7510     		jne	.L785
 9389 2bef 4881C490 		addq	$144, %rsp
 9389      000000
 9390              		.cfi_remember_state
 9391              		.cfi_def_cfa_offset 48
 9392 2bf6 5B       		popq	%rbx
 9393              		.cfi_def_cfa_offset 40
 9394 2bf7 5D       		popq	%rbp
 9395              		.cfi_def_cfa_offset 32
 9396 2bf8 415C     		popq	%r12
 9397              		.cfi_def_cfa_offset 24
 9398 2bfa 415D     		popq	%r13
 9399              		.cfi_def_cfa_offset 16
 9400 2bfc 415E     		popq	%r14
 9401              		.cfi_def_cfa_offset 8
 9402 2bfe C3       		ret
 9403              	.L785:
 9404              		.cfi_restore_state
 9405 2bff E8000000 		call	__stack_chk_fail@PLT
 9405      00
 9406              	.L781:
 9407 2c04 F30F1EFA 		endbr64
 9408 2c08 4889C7   		movq	%rax, %rdi
 9409 2c0b E9000000 		jmp	.L703
 9409      00
 9410              	.L779:
 9411 2c10 F30F1EFA 		endbr64
 9412 2c14 4889C7   		movq	%rax, %rdi
 9413 2c17 E9000000 		jmp	.L700
 9413      00
 9414              	.L777:
 9415 2c1c F30F1EFA 		endbr64
 9416 2c20 4889C7   		movq	%rax, %rdi
 9417 2c23 E9000000 		jmp	.L697
 9417      00
 9418              	.L775:
 9419 2c28 F30F1EFA 		endbr64
 9420 2c2c 4889C7   		movq	%rax, %rdi
 9421 2c2f E9000000 		jmp	.L694
 9421      00
 9422              	.L773:
 9423 2c34 F30F1EFA 		endbr64
 9424 2c38 4889C7   		movq	%rax, %rdi
 9425 2c3b E9000000 		jmp	.L691
 9425      00
 9426              	.L771:
 9427 2c40 F30F1EFA 		endbr64
 9428 2c44 4889C7   		movq	%rax, %rdi
 9429 2c47 E9000000 		jmp	.L688
 9429      00
 9430              	.L769:
 9431 2c4c F30F1EFA 		endbr64
 9432 2c50 4889C7   		movq	%rax, %rdi
 9433 2c53 E9000000 		jmp	.L685
 9433      00
 9434              	.L767:
 9435 2c58 F30F1EFA 		endbr64
 9436 2c5c 4889C7   		movq	%rax, %rdi
 9437 2c5f E9000000 		jmp	.L682
 9437      00
 9438              	.L765:
 9439 2c64 F30F1EFA 		endbr64
 9440 2c68 4889C7   		movq	%rax, %rdi
 9441 2c6b E9000000 		jmp	.L679
 9441      00
 9442              	.L763:
 9443 2c70 F30F1EFA 		endbr64
 9444 2c74 4889C7   		movq	%rax, %rdi
 9445 2c77 E9000000 		jmp	.L676
 9445      00
 9446              	.L761:
 9447 2c7c F30F1EFA 		endbr64
 9448 2c80 4889C7   		movq	%rax, %rdi
 9449 2c83 E9000000 		jmp	.L673
 9449      00
 9450              	.L759:
 9451 2c88 F30F1EFA 		endbr64
 9452 2c8c 4889C7   		movq	%rax, %rdi
 9453 2c8f E9000000 		jmp	.L670
 9453      00
 9454              	.L757:
 9455 2c94 F30F1EFA 		endbr64
 9456 2c98 4889C7   		movq	%rax, %rdi
 9457 2c9b E9000000 		jmp	.L667
 9457      00
 9458              	.L755:
 9459 2ca0 F30F1EFA 		endbr64
 9460 2ca4 4889C7   		movq	%rax, %rdi
 9461 2ca7 E9000000 		jmp	.L664
 9461      00
 9462              	.L753:
 9463 2cac F30F1EFA 		endbr64
 9464 2cb0 4889C7   		movq	%rax, %rdi
 9465 2cb3 E9000000 		jmp	.L661
 9465      00
 9466              	.L751:
 9467 2cb8 F30F1EFA 		endbr64
 9468 2cbc 4889C7   		movq	%rax, %rdi
 9469 2cbf E9000000 		jmp	.L658
 9469      00
 9470              	.L749:
 9471 2cc4 F30F1EFA 		endbr64
 9472 2cc8 4889C7   		movq	%rax, %rdi
 9473 2ccb E9000000 		jmp	.L655
 9473      00
 9474              	.L747:
 9475 2cd0 F30F1EFA 		endbr64
 9476 2cd4 4889C7   		movq	%rax, %rdi
 9477 2cd7 E9000000 		jmp	.L652
 9477      00
 9478              	.L745:
 9479 2cdc F30F1EFA 		endbr64
 9480 2ce0 4889C7   		movq	%rax, %rdi
 9481 2ce3 E9000000 		jmp	.L649
 9481      00
 9482              	.L743:
 9483 2ce8 F30F1EFA 		endbr64
 9484 2cec 4889C7   		movq	%rax, %rdi
 9485 2cef E9000000 		jmp	.L646
 9485      00
 9486              	.L741:
 9487 2cf4 F30F1EFA 		endbr64
 9488 2cf8 4889C7   		movq	%rax, %rdi
 9489 2cfb E9000000 		jmp	.L643
 9489      00
 9490              	.L739:
 9491 2d00 F30F1EFA 		endbr64
 9492 2d04 4889C7   		movq	%rax, %rdi
 9493 2d07 E9000000 		jmp	.L640
 9493      00
 9494              	.L737:
 9495 2d0c F30F1EFA 		endbr64
 9496 2d10 4889C7   		movq	%rax, %rdi
 9497 2d13 E9000000 		jmp	.L637
 9497      00
 9498              	.L735:
 9499 2d18 F30F1EFA 		endbr64
 9500 2d1c 4889C7   		movq	%rax, %rdi
 9501 2d1f E9000000 		jmp	.L634
 9501      00
 9502              	.L733:
 9503 2d24 F30F1EFA 		endbr64
 9504 2d28 4889C7   		movq	%rax, %rdi
 9505 2d2b E9000000 		jmp	.L631
 9505      00
 9506              	.L731:
 9507 2d30 F30F1EFA 		endbr64
 9508 2d34 4889C7   		movq	%rax, %rdi
 9509 2d37 E9000000 		jmp	.L628
 9509      00
 9510              	.L729:
 9511 2d3c F30F1EFA 		endbr64
 9512 2d40 4889C7   		movq	%rax, %rdi
 9513 2d43 E9000000 		jmp	.L625
 9513      00
 9514              	.L727:
 9515 2d48 F30F1EFA 		endbr64
 9516 2d4c 4889C7   		movq	%rax, %rdi
 9517 2d4f E9000000 		jmp	.L622
 9517      00
 9518              	.L725:
 9519 2d54 F30F1EFA 		endbr64
 9520 2d58 4889C7   		movq	%rax, %rdi
 9521 2d5b E9000000 		jmp	.L619
 9521      00
 9522              	.L723:
 9523 2d60 F30F1EFA 		endbr64
 9524 2d64 4889C7   		movq	%rax, %rdi
 9525 2d67 E9000000 		jmp	.L616
 9525      00
 9526              	.L721:
 9527 2d6c F30F1EFA 		endbr64
 9528 2d70 4889C7   		movq	%rax, %rdi
 9529 2d73 E9000000 		jmp	.L613
 9529      00
 9530              	.L719:
 9531 2d78 F30F1EFA 		endbr64
 9532 2d7c 4889C7   		movq	%rax, %rdi
 9533 2d7f E9000000 		jmp	.L610
 9533      00
 9534              	.L717:
 9535 2d84 F30F1EFA 		endbr64
 9536 2d88 4889C7   		movq	%rax, %rdi
 9537 2d8b E9000000 		jmp	.L607
 9537      00
 9538              	.L715:
 9539 2d90 F30F1EFA 		endbr64
 9540 2d94 4889C7   		movq	%rax, %rdi
 9541 2d97 E9000000 		jmp	.L604
 9541      00
 9542              	.L713:
 9543 2d9c F30F1EFA 		endbr64
 9544 2da0 4889C7   		movq	%rax, %rdi
 9545 2da3 E9000000 		jmp	.L601
 9545      00
 9546              	.L711:
 9547 2da8 F30F1EFA 		endbr64
 9548 2dac 4889C7   		movq	%rax, %rdi
 9549 2daf E9000000 		jmp	.L598
 9549      00
 9550              	.L709:
 9551 2db4 F30F1EFA 		endbr64
 9552 2db8 4889C7   		movq	%rax, %rdi
 9553 2dbb E9000000 		jmp	.L595
 9553      00
 9554              	.L707:
 9555 2dc0 F30F1EFA 		endbr64
 9556 2dc4 4889C7   		movq	%rax, %rdi
 9557 2dc7 E9000000 		jmp	.L592
 9557      00
 9558              		.section	.gcc_except_table
 9559              		.align 4
 9560              	.LLSDA1259:
 9561 08c4 FF       		.byte	0xff
 9562 08c5 9B       		.byte	0x9b
 9563 08c6 B802     		.uleb128 .LLSDATT1259-.LLSDATTD1259
 9564              	.LLSDATTD1259:
 9565 08c8 01       		.byte	0x1
 9566 08c9 AD02     		.uleb128 .LLSDACSE1259-.LLSDACSB1259
 9567              	.LLSDACSB1259:
 9568 08cb 50       		.uleb128 .LEHB399-.LFB1259
 9569 08cc 05       		.uleb128 .LEHE399-.LEHB399
 9570 08cd 00       		.uleb128 0
 9571 08ce 00       		.uleb128 0
 9572 08cf 59       		.uleb128 .LEHB400-.LFB1259
 9573 08d0 3C       		.uleb128 .LEHE400-.LEHB400
 9574 08d1 F018     		.uleb128 .L707-.LFB1259
 9575 08d3 01       		.uleb128 0x1
 9576 08d4 B301     		.uleb128 .LEHB401-.LFB1259
 9577 08d6 05       		.uleb128 .LEHE401-.LEHB401
 9578 08d7 00       		.uleb128 0
 9579 08d8 00       		.uleb128 0
 9580 08d9 BC01     		.uleb128 .LEHB402-.LFB1259
 9581 08db 37       		.uleb128 .LEHE402-.LEHB402
 9582 08dc E418     		.uleb128 .L709-.LFB1259
 9583 08de 01       		.uleb128 0x1
 9584 08df F301     		.uleb128 .LEHB403-.LFB1259
 9585 08e1 41       		.uleb128 .LEHE403-.LEHB403
 9586 08e2 D818     		.uleb128 .L711-.LFB1259
 9587 08e4 01       		.uleb128 0x1
 9588 08e5 C202     		.uleb128 .LEHB404-.LFB1259
 9589 08e7 10       		.uleb128 .LEHE404-.LEHB404
 9590 08e8 00       		.uleb128 0
 9591 08e9 00       		.uleb128 0
 9592 08ea D602     		.uleb128 .LEHB405-.LFB1259
 9593 08ec 37       		.uleb128 .LEHE405-.LEHB405
 9594 08ed CC18     		.uleb128 .L713-.LFB1259
 9595 08ef 01       		.uleb128 0x1
 9596 08f0 8D03     		.uleb128 .LEHB406-.LFB1259
 9597 08f2 42       		.uleb128 .LEHE406-.LEHB406
 9598 08f3 C018     		.uleb128 .L715-.LFB1259
 9599 08f5 01       		.uleb128 0x1
 9600 08f6 DD03     		.uleb128 .LEHB407-.LFB1259
 9601 08f8 10       		.uleb128 .LEHE407-.LEHB407
 9602 08f9 00       		.uleb128 0
 9603 08fa 00       		.uleb128 0
 9604 08fb F103     		.uleb128 .LEHB408-.LFB1259
 9605 08fd 37       		.uleb128 .LEHE408-.LEHB408
 9606 08fe B418     		.uleb128 .L717-.LFB1259
 9607 0900 01       		.uleb128 0x1
 9608 0901 A804     		.uleb128 .LEHB409-.LFB1259
 9609 0903 42       		.uleb128 .LEHE409-.LEHB409
 9610 0904 A818     		.uleb128 .L719-.LFB1259
 9611 0906 01       		.uleb128 0x1
 9612 0907 F804     		.uleb128 .LEHB410-.LFB1259
 9613 0909 10       		.uleb128 .LEHE410-.LEHB410
 9614 090a 00       		.uleb128 0
 9615 090b 00       		.uleb128 0
 9616 090c 8C05     		.uleb128 .LEHB411-.LFB1259
 9617 090e 37       		.uleb128 .LEHE411-.LEHB411
 9618 090f 9C18     		.uleb128 .L721-.LFB1259
 9619 0911 01       		.uleb128 0x1
 9620 0912 C305     		.uleb128 .LEHB412-.LFB1259
 9621 0914 42       		.uleb128 .LEHE412-.LEHB412
 9622 0915 9018     		.uleb128 .L723-.LFB1259
 9623 0917 01       		.uleb128 0x1
 9624 0918 9306     		.uleb128 .LEHB413-.LFB1259
 9625 091a 05       		.uleb128 .LEHE413-.LEHB413
 9626 091b 00       		.uleb128 0
 9627 091c 00       		.uleb128 0
 9628 091d 9806     		.uleb128 .LEHB414-.LFB1259
 9629 091f 38       		.uleb128 .LEHE414-.LEHB414
 9630 0920 8418     		.uleb128 .L725-.LFB1259
 9631 0922 01       		.uleb128 0x1
 9632 0923 D006     		.uleb128 .LEHB415-.LFB1259
 9633 0925 2F       		.uleb128 .LEHE415-.LEHB415
 9634 0926 F817     		.uleb128 .L727-.LFB1259
 9635 0928 01       		.uleb128 0x1
 9636 0929 FF06     		.uleb128 .LEHB416-.LFB1259
 9637 092b 2F       		.uleb128 .LEHE416-.LEHB416
 9638 092c EC17     		.uleb128 .L729-.LFB1259
 9639 092e 01       		.uleb128 0x1
 9640 092f AE07     		.uleb128 .LEHB417-.LFB1259
 9641 0931 38       		.uleb128 .LEHE417-.LEHB417
 9642 0932 E017     		.uleb128 .L731-.LFB1259
 9643 0934 01       		.uleb128 0x1
 9644 0935 EC07     		.uleb128 .LEHB418-.LFB1259
 9645 0937 05       		.uleb128 .LEHE418-.LEHB418
 9646 0938 00       		.uleb128 0
 9647 0939 00       		.uleb128 0
 9648 093a F507     		.uleb128 .LEHB419-.LFB1259
 9649 093c 37       		.uleb128 .LEHE419-.LEHB419
 9650 093d D417     		.uleb128 .L733-.LFB1259
 9651 093f 01       		.uleb128 0x1
 9652 0940 AC08     		.uleb128 .LEHB420-.LFB1259
 9653 0942 3B       		.uleb128 .LEHE420-.LEHB420
 9654 0943 C817     		.uleb128 .L735-.LFB1259
 9655 0945 01       		.uleb128 0x1
 9656 0946 F508     		.uleb128 .LEHB421-.LFB1259
 9657 0948 05       		.uleb128 .LEHE421-.LEHB421
 9658 0949 00       		.uleb128 0
 9659 094a 00       		.uleb128 0
 9660 094b FA08     		.uleb128 .LEHB422-.LFB1259
 9661 094d 38       		.uleb128 .LEHE422-.LEHB422
 9662 094e BC17     		.uleb128 .L737-.LFB1259
 9663 0950 01       		.uleb128 0x1
 9664 0951 B209     		.uleb128 .LEHB423-.LFB1259
 9665 0953 38       		.uleb128 .LEHE423-.LEHB423
 9666 0954 B017     		.uleb128 .L739-.LFB1259
 9667 0956 01       		.uleb128 0x1
 9668 0957 EA09     		.uleb128 .LEHB424-.LFB1259
 9669 0959 38       		.uleb128 .LEHE424-.LEHB424
 9670 095a A417     		.uleb128 .L741-.LFB1259
 9671 095c 01       		.uleb128 0x1
 9672 095d A20A     		.uleb128 .LEHB425-.LFB1259
 9673 095f 38       		.uleb128 .LEHE425-.LEHB425
 9674 0960 9817     		.uleb128 .L743-.LFB1259
 9675 0962 01       		.uleb128 0x1
 9676 0963 DA0A     		.uleb128 .LEHB426-.LFB1259
 9677 0965 46       		.uleb128 .LEHE426-.LEHB426
 9678 0966 8C17     		.uleb128 .L745-.LFB1259
 9679 0968 01       		.uleb128 0x1
 9680 0969 A00B     		.uleb128 .LEHB427-.LFB1259
 9681 096b 47       		.uleb128 .LEHE427-.LEHB427
 9682 096c 8017     		.uleb128 .L747-.LFB1259
 9683 096e 01       		.uleb128 0x1
 9684 096f E70B     		.uleb128 .LEHB428-.LFB1259
 9685 0971 47       		.uleb128 .LEHE428-.LEHB428
 9686 0972 F416     		.uleb128 .L749-.LFB1259
 9687 0974 01       		.uleb128 0x1
 9688 0975 AE0C     		.uleb128 .LEHB429-.LFB1259
 9689 0977 47       		.uleb128 .LEHE429-.LEHB429
 9690 0978 E816     		.uleb128 .L751-.LFB1259
 9691 097a 01       		.uleb128 0x1
 9692 097b F50C     		.uleb128 .LEHB430-.LFB1259
 9693 097d 47       		.uleb128 .LEHE430-.LEHB430
 9694 097e DC16     		.uleb128 .L753-.LFB1259
 9695 0980 01       		.uleb128 0x1
 9696 0981 BC0D     		.uleb128 .LEHB431-.LFB1259
 9697 0983 47       		.uleb128 .LEHE431-.LEHB431
 9698 0984 D016     		.uleb128 .L755-.LFB1259
 9699 0986 01       		.uleb128 0x1
 9700 0987 830E     		.uleb128 .LEHB432-.LFB1259
 9701 0989 47       		.uleb128 .LEHE432-.LEHB432
 9702 098a C416     		.uleb128 .L757-.LFB1259
 9703 098c 01       		.uleb128 0x1
 9704 098d CA0E     		.uleb128 .LEHB433-.LFB1259
 9705 098f 47       		.uleb128 .LEHE433-.LEHB433
 9706 0990 B816     		.uleb128 .L759-.LFB1259
 9707 0992 01       		.uleb128 0x1
 9708 0993 970F     		.uleb128 .LEHB434-.LFB1259
 9709 0995 05       		.uleb128 .LEHE434-.LEHB434
 9710 0996 00       		.uleb128 0
 9711 0997 00       		.uleb128 0
 9712 0998 A00F     		.uleb128 .LEHB435-.LFB1259
 9713 099a 37       		.uleb128 .LEHE435-.LEHB435
 9714 099b AC16     		.uleb128 .L761-.LFB1259
 9715 099d 01       		.uleb128 0x1
 9716 099e D70F     		.uleb128 .LEHB436-.LFB1259
 9717 09a0 3B       		.uleb128 .LEHE436-.LEHB436
 9718 09a1 A016     		.uleb128 .L763-.LFB1259
 9719 09a3 01       		.uleb128 0x1
 9720 09a4 9510     		.uleb128 .LEHB437-.LFB1259
 9721 09a6 10       		.uleb128 .LEHE437-.LEHB437
 9722 09a7 00       		.uleb128 0
 9723 09a8 00       		.uleb128 0
 9724 09a9 A910     		.uleb128 .LEHB438-.LFB1259
 9725 09ab 37       		.uleb128 .LEHE438-.LEHB438
 9726 09ac 9416     		.uleb128 .L765-.LFB1259
 9727 09ae 01       		.uleb128 0x1
 9728 09af E010     		.uleb128 .LEHB439-.LFB1259
 9729 09b1 3B       		.uleb128 .LEHE439-.LEHB439
 9730 09b2 8816     		.uleb128 .L767-.LFB1259
 9731 09b4 01       		.uleb128 0x1
 9732 09b5 9E11     		.uleb128 .LEHB440-.LFB1259
 9733 09b7 10       		.uleb128 .LEHE440-.LEHB440
 9734 09b8 00       		.uleb128 0
 9735 09b9 00       		.uleb128 0
 9736 09ba B211     		.uleb128 .LEHB441-.LFB1259
 9737 09bc 37       		.uleb128 .LEHE441-.LEHB441
 9738 09bd FC15     		.uleb128 .L769-.LFB1259
 9739 09bf 01       		.uleb128 0x1
 9740 09c0 E911     		.uleb128 .LEHB442-.LFB1259
 9741 09c2 3B       		.uleb128 .LEHE442-.LEHB442
 9742 09c3 F015     		.uleb128 .L771-.LFB1259
 9743 09c5 01       		.uleb128 0x1
 9744 09c6 A712     		.uleb128 .LEHB443-.LFB1259
 9745 09c8 10       		.uleb128 .LEHE443-.LEHB443
 9746 09c9 00       		.uleb128 0
 9747 09ca 00       		.uleb128 0
 9748 09cb BB12     		.uleb128 .LEHB444-.LFB1259
 9749 09cd 37       		.uleb128 .LEHE444-.LEHB444
 9750 09ce E415     		.uleb128 .L773-.LFB1259
 9751 09d0 01       		.uleb128 0x1
 9752 09d1 F212     		.uleb128 .LEHB445-.LFB1259
 9753 09d3 3B       		.uleb128 .LEHE445-.LEHB445
 9754 09d4 D815     		.uleb128 .L775-.LFB1259
 9755 09d6 01       		.uleb128 0x1
 9756 09d7 B013     		.uleb128 .LEHB446-.LFB1259
 9757 09d9 10       		.uleb128 .LEHE446-.LEHB446
 9758 09da 00       		.uleb128 0
 9759 09db 00       		.uleb128 0
 9760 09dc C413     		.uleb128 .LEHB447-.LFB1259
 9761 09de 37       		.uleb128 .LEHE447-.LEHB447
 9762 09df CC15     		.uleb128 .L777-.LFB1259
 9763 09e1 01       		.uleb128 0x1
 9764 09e2 FB13     		.uleb128 .LEHB448-.LFB1259
 9765 09e4 3B       		.uleb128 .LEHE448-.LEHB448
 9766 09e5 C015     		.uleb128 .L779-.LFB1259
 9767 09e7 01       		.uleb128 0x1
 9768 09e8 B914     		.uleb128 .LEHB449-.LFB1259
 9769 09ea 10       		.uleb128 .LEHE449-.LEHB449
 9770 09eb 00       		.uleb128 0
 9771 09ec 00       		.uleb128 0
 9772 09ed CD14     		.uleb128 .LEHB450-.LFB1259
 9773 09ef 37       		.uleb128 .LEHE450-.LEHB450
 9774 09f0 B415     		.uleb128 .L781-.LFB1259
 9775 09f2 01       		.uleb128 0x1
 9776 09f3 8715     		.uleb128 .LEHB451-.LFB1259
 9777 09f5 05       		.uleb128 .LEHE451-.LEHB451
 9778 09f6 00       		.uleb128 0
 9779 09f7 00       		.uleb128 0
 9780              	.LLSDACSE1259:
 9781 09f8 01       		.byte	0x1
 9782 09f9 00       		.byte	0
 9783 09fa 0000     		.align 4
 9784 09fc 00000000 		.long	0
 9785              	
 9786              	.LLSDATT1259:
 9787              		.text
 9788              		.cfi_endproc
 9789              		.section	.text.unlikely
 9790              		.cfi_startproc
 9791              		.cfi_personality 0x9b,DW.ref.__gxx_personality_v0
 9792              		.cfi_lsda 0x1b,.LLSDAC1259
 9794              	_Z11testReallocm.cold:
 9795              	.LFSB1259:
 9796              	.L703:
 9797              		.cfi_def_cfa_offset 192
 9798              		.cfi_offset 3, -48
 9799              		.cfi_offset 6, -40
 9800              		.cfi_offset 12, -32
 9801              		.cfi_offset 13, -24
 9802              		.cfi_offset 14, -16
 9803 19cd E8000000 		call	__cxa_begin_catch@PLT
 9803      00
 9804              	.LEHB452:
 9805 19d2 E8000000 		call	_ZN8UnitTest11CurrentTest7ResultsEv@PLT
 9805      00
 9806 19d7 4C8B28   		movq	(%rax), %r13
 9807 19da E8000000 		call	_ZN8UnitTest11CurrentTest7DetailsEv@PLT
 9807      00
 9808 19df 488B30   		movq	(%rax), %rsi
 9809 19e2 BA3F0100 		movl	$319, %edx
 9809      00
 9810 19e7 4889EF   		movq	%rbp, %rdi
 9811 19ea E8000000 		call	_ZN8UnitTest11TestDetailsC1ERKS0_i@PLT
 9811      00
 9812 19ef 488D1500 		leaq	.LC61(%rip), %rdx
 9812      000000
 9813 19f6 4889EE   		movq	%rbp, %rsi
 9814 19f9 4C89EF   		movq	%r13, %rdi
 9815 19fc E8000000 		call	_ZN8UnitTest11TestResults13OnTestFailureERKNS_11TestDetailsEPKc@PLT
 9815      00
 9816              	.LEHE452:
 9817              	.LEHB453:
 9818 1a01 E8000000 		call	__cxa_end_catch@PLT
 9818      00
 9819              	.LEHE453:
 9820 1a06 E9000000 		jmp	.L704
 9820      00
 9821              	.L700:
 9822 1a0b E8000000 		call	__cxa_begin_catch@PLT
 9822      00
 9823              	.LEHB454:
 9824 1a10 E8000000 		call	_ZN8UnitTest11CurrentTest7ResultsEv@PLT
 9824      00
 9825 1a15 4C8B30   		movq	(%rax), %r14
 9826 1a18 E8000000 		call	_ZN8UnitTest11CurrentTest7DetailsEv@PLT
 9826      00
 9827 1a1d 488B30   		movq	(%rax), %rsi
 9828 1a20 BA3A0100 		movl	$314, %edx
 9828      00
 9829 1a25 4889EF   		movq	%rbp, %rdi
 9830 1a28 E8000000 		call	_ZN8UnitTest11TestDetailsC1ERKS0_i@PLT
 9830      00
 9831 1a2d 488D1500 		leaq	.LC60(%rip), %rdx
 9831      000000
 9832 1a34 4889EE   		movq	%rbp, %rsi
 9833 1a37 4C89F7   		movq	%r14, %rdi
 9834 1a3a E8000000 		call	_ZN8UnitTest11TestResults13OnTestFailureERKNS_11TestDetailsEPKc@PLT
 9834      00
 9835              	.LEHE454:
 9836              	.LEHB455:
 9837 1a3f E8000000 		call	__cxa_end_catch@PLT
 9837      00
 9838              	.LEHE455:
 9839 1a44 E9000000 		jmp	.L701
 9839      00
 9840              	.L782:
 9841 1a49 F30F1EFA 		endbr64
 9842 1a4d 4889C5   		movq	%rax, %rbp
 9843 1a50 E8000000 		call	__cxa_end_catch@PLT
 9843      00
 9844 1a55 4889EF   		movq	%rbp, %rdi
 9845              	.LEHB456:
 9846 1a58 E8000000 		call	_Unwind_Resume@PLT
 9846      00
 9847              	.LEHE456:
 9848              	.L780:
 9849 1a5d F30F1EFA 		endbr64
 9850 1a61 4889C5   		movq	%rax, %rbp
 9851 1a64 E8000000 		call	__cxa_end_catch@PLT
 9851      00
 9852 1a69 4889EF   		movq	%rbp, %rdi
 9853              	.LEHB457:
 9854 1a6c E8000000 		call	_Unwind_Resume@PLT
 9854      00
 9855              	.LEHE457:
 9856              	.L697:
 9857 1a71 E8000000 		call	__cxa_begin_catch@PLT
 9857      00
 9858              	.LEHB458:
 9859 1a76 E8000000 		call	_ZN8UnitTest11CurrentTest7ResultsEv@PLT
 9859      00
 9860 1a7b 4C8B30   		movq	(%rax), %r14
 9861 1a7e E8000000 		call	_ZN8UnitTest11CurrentTest7DetailsEv@PLT
 9861      00
 9862 1a83 488B30   		movq	(%rax), %rsi
 9863 1a86 BA390100 		movl	$313, %edx
 9863      00
 9864 1a8b 4889EF   		movq	%rbp, %rdi
 9865 1a8e E8000000 		call	_ZN8UnitTest11TestDetailsC1ERKS0_i@PLT
 9865      00
 9866 1a93 488D1500 		leaq	.LC10(%rip), %rdx
 9866      000000
 9867 1a9a 4889EE   		movq	%rbp, %rsi
 9868 1a9d 4C89F7   		movq	%r14, %rdi
 9869 1aa0 E8000000 		call	_ZN8UnitTest11TestResults13OnTestFailureERKNS_11TestDetailsEPKc@PLT
 9869      00
 9870              	.LEHE458:
 9871              	.LEHB459:
 9872 1aa5 E8000000 		call	__cxa_end_catch@PLT
 9872      00
 9873              	.LEHE459:
 9874 1aaa E9000000 		jmp	.L698
 9874      00
 9875              	.L694:
 9876 1aaf E8000000 		call	__cxa_begin_catch@PLT
 9876      00
 9877              	.LEHB460:
 9878 1ab4 E8000000 		call	_ZN8UnitTest11CurrentTest7ResultsEv@PLT
 9878      00
 9879 1ab9 4C8B30   		movq	(%rax), %r14
 9880 1abc E8000000 		call	_ZN8UnitTest11CurrentTest7DetailsEv@PLT
 9880      00
 9881 1ac1 488B30   		movq	(%rax), %rsi
 9882 1ac4 BA360100 		movl	$310, %edx
 9882      00
 9883 1ac9 4889EF   		movq	%rbp, %rdi
 9884 1acc E8000000 		call	_ZN8UnitTest11TestDetailsC1ERKS0_i@PLT
 9884      00
 9885 1ad1 488D1500 		leaq	.LC59(%rip), %rdx
 9885      000000
 9886 1ad8 4889EE   		movq	%rbp, %rsi
 9887 1adb 4C89F7   		movq	%r14, %rdi
 9888 1ade E8000000 		call	_ZN8UnitTest11TestResults13OnTestFailureERKNS_11TestDetailsEPKc@PLT
 9888      00
 9889              	.LEHE460:
 9890              	.LEHB461:
 9891 1ae3 E8000000 		call	__cxa_end_catch@PLT
 9891      00
 9892              	.LEHE461:
 9893 1ae8 E9000000 		jmp	.L695
 9893      00
 9894              	.L778:
 9895 1aed F30F1EFA 		endbr64
 9896 1af1 4889C5   		movq	%rax, %rbp
 9897 1af4 E8000000 		call	__cxa_end_catch@PLT
 9897      00
 9898 1af9 4889EF   		movq	%rbp, %rdi
 9899              	.LEHB462:
 9900 1afc E8000000 		call	_Unwind_Resume@PLT
 9900      00
 9901              	.LEHE462:
 9902              	.L776:
 9903 1b01 F30F1EFA 		endbr64
 9904 1b05 4889C5   		movq	%rax, %rbp
 9905 1b08 E8000000 		call	__cxa_end_catch@PLT
 9905      00
 9906 1b0d 4889EF   		movq	%rbp, %rdi
 9907              	.LEHB463:
 9908 1b10 E8000000 		call	_Unwind_Resume@PLT
 9908      00
 9909              	.LEHE463:
 9910              	.L691:
 9911 1b15 E8000000 		call	__cxa_begin_catch@PLT
 9911      00
 9912              	.LEHB464:
 9913 1b1a E8000000 		call	_ZN8UnitTest11CurrentTest7ResultsEv@PLT
 9913      00
 9914 1b1f 4C8B30   		movq	(%rax), %r14
 9915 1b22 E8000000 		call	_ZN8UnitTest11CurrentTest7DetailsEv@PLT
 9915      00
 9916 1b27 488B30   		movq	(%rax), %rsi
 9917 1b2a BA350100 		movl	$309, %edx
 9917      00
 9918 1b2f 4889EF   		movq	%rbp, %rdi
 9919 1b32 E8000000 		call	_ZN8UnitTest11TestDetailsC1ERKS0_i@PLT
 9919      00
 9920 1b37 488D1500 		leaq	.LC10(%rip), %rdx
 9920      000000
 9921 1b3e 4889EE   		movq	%rbp, %rsi
 9922 1b41 4C89F7   		movq	%r14, %rdi
 9923 1b44 E8000000 		call	_ZN8UnitTest11TestResults13OnTestFailureERKNS_11TestDetailsEPKc@PLT
 9923      00
 9924              	.LEHE464:
 9925              	.LEHB465:
 9926 1b49 E8000000 		call	__cxa_end_catch@PLT
 9926      00
 9927              	.LEHE465:
 9928 1b4e E9000000 		jmp	.L692
 9928      00
 9929              	.L688:
 9930 1b53 E8000000 		call	__cxa_begin_catch@PLT
 9930      00
 9931              	.LEHB466:
 9932 1b58 E8000000 		call	_ZN8UnitTest11CurrentTest7ResultsEv@PLT
 9932      00
 9933 1b5d 4C8B30   		movq	(%rax), %r14
 9934 1b60 E8000000 		call	_ZN8UnitTest11CurrentTest7DetailsEv@PLT
 9934      00
 9935 1b65 488B30   		movq	(%rax), %rsi
 9936 1b68 BA320100 		movl	$306, %edx
 9936      00
 9937 1b6d 4889EF   		movq	%rbp, %rdi
 9938 1b70 E8000000 		call	_ZN8UnitTest11TestDetailsC1ERKS0_i@PLT
 9938      00
 9939 1b75 488D1500 		leaq	.LC58(%rip), %rdx
 9939      000000
 9940 1b7c 4889EE   		movq	%rbp, %rsi
 9941 1b7f 4C89F7   		movq	%r14, %rdi
 9942 1b82 E8000000 		call	_ZN8UnitTest11TestResults13OnTestFailureERKNS_11TestDetailsEPKc@PLT
 9942      00
 9943              	.LEHE466:
 9944              	.LEHB467:
 9945 1b87 E8000000 		call	__cxa_end_catch@PLT
 9945      00
 9946              	.LEHE467:
 9947 1b8c E9000000 		jmp	.L689
 9947      00
 9948              	.L774:
 9949 1b91 F30F1EFA 		endbr64
 9950 1b95 4889C5   		movq	%rax, %rbp
 9951 1b98 E8000000 		call	__cxa_end_catch@PLT
 9951      00
 9952 1b9d 4889EF   		movq	%rbp, %rdi
 9953              	.LEHB468:
 9954 1ba0 E8000000 		call	_Unwind_Resume@PLT
 9954      00
 9955              	.LEHE468:
 9956              	.L772:
 9957 1ba5 F30F1EFA 		endbr64
 9958 1ba9 4889C5   		movq	%rax, %rbp
 9959 1bac E8000000 		call	__cxa_end_catch@PLT
 9959      00
 9960 1bb1 4889EF   		movq	%rbp, %rdi
 9961              	.LEHB469:
 9962 1bb4 E8000000 		call	_Unwind_Resume@PLT
 9962      00
 9963              	.LEHE469:
 9964              	.L685:
 9965 1bb9 E8000000 		call	__cxa_begin_catch@PLT
 9965      00
 9966              	.LEHB470:
 9967 1bbe E8000000 		call	_ZN8UnitTest11CurrentTest7ResultsEv@PLT
 9967      00
 9968 1bc3 4C8B30   		movq	(%rax), %r14
 9969 1bc6 E8000000 		call	_ZN8UnitTest11CurrentTest7DetailsEv@PLT
 9969      00
 9970 1bcb 488B30   		movq	(%rax), %rsi
 9971 1bce BA310100 		movl	$305, %edx
 9971      00
 9972 1bd3 4889EF   		movq	%rbp, %rdi
 9973 1bd6 E8000000 		call	_ZN8UnitTest11TestDetailsC1ERKS0_i@PLT
 9973      00
 9974 1bdb 488D1500 		leaq	.LC10(%rip), %rdx
 9974      000000
 9975 1be2 4889EE   		movq	%rbp, %rsi
 9976 1be5 4C89F7   		movq	%r14, %rdi
 9977 1be8 E8000000 		call	_ZN8UnitTest11TestResults13OnTestFailureERKNS_11TestDetailsEPKc@PLT
 9977      00
 9978              	.LEHE470:
 9979              	.LEHB471:
 9980 1bed E8000000 		call	__cxa_end_catch@PLT
 9980      00
 9981              	.LEHE471:
 9982 1bf2 E9000000 		jmp	.L686
 9982      00
 9983              	.L682:
 9984 1bf7 E8000000 		call	__cxa_begin_catch@PLT
 9984      00
 9985              	.LEHB472:
 9986 1bfc E8000000 		call	_ZN8UnitTest11CurrentTest7ResultsEv@PLT
 9986      00
 9987 1c01 4C8B30   		movq	(%rax), %r14
 9988 1c04 E8000000 		call	_ZN8UnitTest11CurrentTest7DetailsEv@PLT
 9988      00
 9989 1c09 488B30   		movq	(%rax), %rsi
 9990 1c0c BA2E0100 		movl	$302, %edx
 9990      00
 9991 1c11 4889EF   		movq	%rbp, %rdi
 9992 1c14 E8000000 		call	_ZN8UnitTest11TestDetailsC1ERKS0_i@PLT
 9992      00
 9993 1c19 488D1500 		leaq	.LC57(%rip), %rdx
 9993      000000
 9994 1c20 4889EE   		movq	%rbp, %rsi
 9995 1c23 4C89F7   		movq	%r14, %rdi
 9996 1c26 E8000000 		call	_ZN8UnitTest11TestResults13OnTestFailureERKNS_11TestDetailsEPKc@PLT
 9996      00
 9997              	.LEHE472:
 9998              	.LEHB473:
 9999 1c2b E8000000 		call	__cxa_end_catch@PLT
 9999      00
 10000              	.LEHE473:
 10001 1c30 E9000000 		jmp	.L683
 10001      00
 10002              	.L770:
 10003 1c35 F30F1EFA 		endbr64
 10004 1c39 4889C5   		movq	%rax, %rbp
 10005 1c3c E8000000 		call	__cxa_end_catch@PLT
 10005      00
 10006 1c41 4889EF   		movq	%rbp, %rdi
 10007              	.LEHB474:
 10008 1c44 E8000000 		call	_Unwind_Resume@PLT
 10008      00
 10009              	.LEHE474:
 10010              	.L768:
 10011 1c49 F30F1EFA 		endbr64
 10012 1c4d 4889C5   		movq	%rax, %rbp
 10013 1c50 E8000000 		call	__cxa_end_catch@PLT
 10013      00
 10014 1c55 4889EF   		movq	%rbp, %rdi
 10015              	.LEHB475:
 10016 1c58 E8000000 		call	_Unwind_Resume@PLT
 10016      00
 10017              	.LEHE475:
 10018              	.L679:
 10019 1c5d E8000000 		call	__cxa_begin_catch@PLT
 10019      00
 10020              	.LEHB476:
 10021 1c62 E8000000 		call	_ZN8UnitTest11CurrentTest7ResultsEv@PLT
 10021      00
 10022 1c67 4C8B30   		movq	(%rax), %r14
 10023 1c6a E8000000 		call	_ZN8UnitTest11CurrentTest7DetailsEv@PLT
 10023      00
 10024 1c6f 488B30   		movq	(%rax), %rsi
 10025 1c72 BA2D0100 		movl	$301, %edx
 10025      00
 10026 1c77 4889EF   		movq	%rbp, %rdi
 10027 1c7a E8000000 		call	_ZN8UnitTest11TestDetailsC1ERKS0_i@PLT
 10027      00
 10028 1c7f 488D1500 		leaq	.LC10(%rip), %rdx
 10028      000000
 10029 1c86 4889EE   		movq	%rbp, %rsi
 10030 1c89 4C89F7   		movq	%r14, %rdi
 10031 1c8c E8000000 		call	_ZN8UnitTest11TestResults13OnTestFailureERKNS_11TestDetailsEPKc@PLT
 10031      00
 10032              	.LEHE476:
 10033              	.LEHB477:
 10034 1c91 E8000000 		call	__cxa_end_catch@PLT
 10034      00
 10035              	.LEHE477:
 10036 1c96 E9000000 		jmp	.L680
 10036      00
 10037              	.L676:
 10038 1c9b E8000000 		call	__cxa_begin_catch@PLT
 10038      00
 10039              	.LEHB478:
 10040 1ca0 E8000000 		call	_ZN8UnitTest11CurrentTest7ResultsEv@PLT
 10040      00
 10041 1ca5 4C8B30   		movq	(%rax), %r14
 10042 1ca8 E8000000 		call	_ZN8UnitTest11CurrentTest7DetailsEv@PLT
 10042      00
 10043 1cad 488B30   		movq	(%rax), %rsi
 10044 1cb0 BA2A0100 		movl	$298, %edx
 10044      00
 10045 1cb5 4889EF   		movq	%rbp, %rdi
 10046 1cb8 E8000000 		call	_ZN8UnitTest11TestDetailsC1ERKS0_i@PLT
 10046      00
 10047 1cbd 488D1500 		leaq	.LC56(%rip), %rdx
 10047      000000
 10048 1cc4 4889EE   		movq	%rbp, %rsi
 10049 1cc7 4C89F7   		movq	%r14, %rdi
 10050 1cca E8000000 		call	_ZN8UnitTest11TestResults13OnTestFailureERKNS_11TestDetailsEPKc@PLT
 10050      00
 10051              	.LEHE478:
 10052              	.LEHB479:
 10053 1ccf E8000000 		call	__cxa_end_catch@PLT
 10053      00
 10054              	.LEHE479:
 10055 1cd4 E9000000 		jmp	.L677
 10055      00
 10056              	.L766:
 10057 1cd9 F30F1EFA 		endbr64
 10058 1cdd 4889C5   		movq	%rax, %rbp
 10059 1ce0 E8000000 		call	__cxa_end_catch@PLT
 10059      00
 10060 1ce5 4889EF   		movq	%rbp, %rdi
 10061              	.LEHB480:
 10062 1ce8 E8000000 		call	_Unwind_Resume@PLT
 10062      00
 10063              	.LEHE480:
 10064              	.L764:
 10065 1ced F30F1EFA 		endbr64
 10066 1cf1 4889C5   		movq	%rax, %rbp
 10067 1cf4 E8000000 		call	__cxa_end_catch@PLT
 10067      00
 10068 1cf9 4889EF   		movq	%rbp, %rdi
 10069              	.LEHB481:
 10070 1cfc E8000000 		call	_Unwind_Resume@PLT
 10070      00
 10071              	.LEHE481:
 10072              	.L673:
 10073 1d01 E8000000 		call	__cxa_begin_catch@PLT
 10073      00
 10074              	.LEHB482:
 10075 1d06 E8000000 		call	_ZN8UnitTest11CurrentTest7ResultsEv@PLT
 10075      00
 10076 1d0b 4C8B30   		movq	(%rax), %r14
 10077 1d0e E8000000 		call	_ZN8UnitTest11CurrentTest7DetailsEv@PLT
 10077      00
 10078 1d13 488B30   		movq	(%rax), %rsi
 10079 1d16 BA290100 		movl	$297, %edx
 10079      00
 10080 1d1b 4889EF   		movq	%rbp, %rdi
 10081 1d1e E8000000 		call	_ZN8UnitTest11TestDetailsC1ERKS0_i@PLT
 10081      00
 10082 1d23 488D1500 		leaq	.LC10(%rip), %rdx
 10082      000000
 10083 1d2a 4889EE   		movq	%rbp, %rsi
 10084 1d2d 4C89F7   		movq	%r14, %rdi
 10085 1d30 E8000000 		call	_ZN8UnitTest11TestResults13OnTestFailureERKNS_11TestDetailsEPKc@PLT
 10085      00
 10086              	.LEHE482:
 10087              	.LEHB483:
 10088 1d35 E8000000 		call	__cxa_end_catch@PLT
 10088      00
 10089              	.LEHE483:
 10090 1d3a E9000000 		jmp	.L674
 10090      00
 10091              	.L670:
 10092 1d3f E8000000 		call	__cxa_begin_catch@PLT
 10092      00
 10093              	.LEHB484:
 10094 1d44 E8000000 		call	_ZN8UnitTest11CurrentTest7ResultsEv@PLT
 10094      00
 10095 1d49 4C8B30   		movq	(%rax), %r14
 10096 1d4c E8000000 		call	_ZN8UnitTest11CurrentTest7DetailsEv@PLT
 10096      00
 10097 1d51 488B30   		movq	(%rax), %rsi
 10098 1d54 BA250100 		movl	$293, %edx
 10098      00
 10099 1d59 4889EF   		movq	%rbp, %rdi
 10100 1d5c E8000000 		call	_ZN8UnitTest11TestDetailsC1ERKS0_i@PLT
 10100      00
 10101 1d61 488D1500 		leaq	.LC55(%rip), %rdx
 10101      000000
 10102 1d68 4889EE   		movq	%rbp, %rsi
 10103 1d6b 4C89F7   		movq	%r14, %rdi
 10104 1d6e E8000000 		call	_ZN8UnitTest11TestResults13OnTestFailureERKNS_11TestDetailsEPKc@PLT
 10104      00
 10105              	.LEHE484:
 10106              	.LEHB485:
 10107 1d73 E8000000 		call	__cxa_end_catch@PLT
 10107      00
 10108              	.LEHE485:
 10109 1d78 E9000000 		jmp	.L671
 10109      00
 10110              	.L762:
 10111 1d7d F30F1EFA 		endbr64
 10112 1d81 4889C5   		movq	%rax, %rbp
 10113 1d84 E8000000 		call	__cxa_end_catch@PLT
 10113      00
 10114 1d89 4889EF   		movq	%rbp, %rdi
 10115              	.LEHB486:
 10116 1d8c E8000000 		call	_Unwind_Resume@PLT
 10116      00
 10117              	.LEHE486:
 10118              	.L760:
 10119 1d91 F30F1EFA 		endbr64
 10120 1d95 4889C5   		movq	%rax, %rbp
 10121 1d98 E8000000 		call	__cxa_end_catch@PLT
 10121      00
 10122 1d9d 4889EF   		movq	%rbp, %rdi
 10123              	.LEHB487:
 10124 1da0 E8000000 		call	_Unwind_Resume@PLT
 10124      00
 10125              	.LEHE487:
 10126              	.L667:
 10127 1da5 E8000000 		call	__cxa_begin_catch@PLT
 10127      00
 10128              	.LEHB488:
 10129 1daa E8000000 		call	_ZN8UnitTest11CurrentTest7ResultsEv@PLT
 10129      00
 10130 1daf 4C8B30   		movq	(%rax), %r14
 10131 1db2 E8000000 		call	_ZN8UnitTest11CurrentTest7DetailsEv@PLT
 10131      00
 10132 1db7 488B30   		movq	(%rax), %rsi
 10133 1dba BA240100 		movl	$292, %edx
 10133      00
 10134 1dbf 4889EF   		movq	%rbp, %rdi
 10135 1dc2 E8000000 		call	_ZN8UnitTest11TestDetailsC1ERKS0_i@PLT
 10135      00
 10136 1dc7 488D1500 		leaq	.LC54(%rip), %rdx
 10136      000000
 10137 1dce 4889EE   		movq	%rbp, %rsi
 10138 1dd1 4C89F7   		movq	%r14, %rdi
 10139 1dd4 E8000000 		call	_ZN8UnitTest11TestResults13OnTestFailureERKNS_11TestDetailsEPKc@PLT
 10139      00
 10140              	.LEHE488:
 10141              	.LEHB489:
 10142 1dd9 E8000000 		call	__cxa_end_catch@PLT
 10142      00
 10143              	.LEHE489:
 10144 1dde E9000000 		jmp	.L668
 10144      00
 10145              	.L664:
 10146 1de3 E8000000 		call	__cxa_begin_catch@PLT
 10146      00
 10147              	.LEHB490:
 10148 1de8 E8000000 		call	_ZN8UnitTest11CurrentTest7ResultsEv@PLT
 10148      00
 10149 1ded 4C8B30   		movq	(%rax), %r14
 10150 1df0 E8000000 		call	_ZN8UnitTest11CurrentTest7DetailsEv@PLT
 10150      00
 10151 1df5 488B30   		movq	(%rax), %rsi
 10152 1df8 BA230100 		movl	$291, %edx
 10152      00
 10153 1dfd 4889EF   		movq	%rbp, %rdi
 10154 1e00 E8000000 		call	_ZN8UnitTest11TestDetailsC1ERKS0_i@PLT
 10154      00
 10155 1e05 488D1500 		leaq	.LC53(%rip), %rdx
 10155      000000
 10156 1e0c 4889EE   		movq	%rbp, %rsi
 10157 1e0f 4C89F7   		movq	%r14, %rdi
 10158 1e12 E8000000 		call	_ZN8UnitTest11TestResults13OnTestFailureERKNS_11TestDetailsEPKc@PLT
 10158      00
 10159              	.LEHE490:
 10160              	.LEHB491:
 10161 1e17 E8000000 		call	__cxa_end_catch@PLT
 10161      00
 10162              	.LEHE491:
 10163 1e1c E9000000 		jmp	.L665
 10163      00
 10164              	.L758:
 10165 1e21 F30F1EFA 		endbr64
 10166 1e25 4889C5   		movq	%rax, %rbp
 10167 1e28 E8000000 		call	__cxa_end_catch@PLT
 10167      00
 10168 1e2d 4889EF   		movq	%rbp, %rdi
 10169              	.LEHB492:
 10170 1e30 E8000000 		call	_Unwind_Resume@PLT
 10170      00
 10171              	.LEHE492:
 10172              	.L756:
 10173 1e35 F30F1EFA 		endbr64
 10174 1e39 4889C5   		movq	%rax, %rbp
 10175 1e3c E8000000 		call	__cxa_end_catch@PLT
 10175      00
 10176 1e41 4889EF   		movq	%rbp, %rdi
 10177              	.LEHB493:
 10178 1e44 E8000000 		call	_Unwind_Resume@PLT
 10178      00
 10179              	.LEHE493:
 10180              	.L661:
 10181 1e49 E8000000 		call	__cxa_begin_catch@PLT
 10181      00
 10182              	.LEHB494:
 10183 1e4e E8000000 		call	_ZN8UnitTest11CurrentTest7ResultsEv@PLT
 10183      00
 10184 1e53 4C8B30   		movq	(%rax), %r14
 10185 1e56 E8000000 		call	_ZN8UnitTest11CurrentTest7DetailsEv@PLT
 10185      00
 10186 1e5b 488B30   		movq	(%rax), %rsi
 10187 1e5e BA220100 		movl	$290, %edx
 10187      00
 10188 1e63 4889EF   		movq	%rbp, %rdi
 10189 1e66 E8000000 		call	_ZN8UnitTest11TestDetailsC1ERKS0_i@PLT
 10189      00
 10190 1e6b 488D1500 		leaq	.LC52(%rip), %rdx
 10190      000000
 10191 1e72 4889EE   		movq	%rbp, %rsi
 10192 1e75 4C89F7   		movq	%r14, %rdi
 10193 1e78 E8000000 		call	_ZN8UnitTest11TestResults13OnTestFailureERKNS_11TestDetailsEPKc@PLT
 10193      00
 10194              	.LEHE494:
 10195              	.LEHB495:
 10196 1e7d E8000000 		call	__cxa_end_catch@PLT
 10196      00
 10197              	.LEHE495:
 10198 1e82 E9000000 		jmp	.L662
 10198      00
 10199              	.L658:
 10200 1e87 E8000000 		call	__cxa_begin_catch@PLT
 10200      00
 10201              	.LEHB496:
 10202 1e8c E8000000 		call	_ZN8UnitTest11CurrentTest7ResultsEv@PLT
 10202      00
 10203 1e91 4C8B30   		movq	(%rax), %r14
 10204 1e94 E8000000 		call	_ZN8UnitTest11CurrentTest7DetailsEv@PLT
 10204      00
 10205 1e99 488B30   		movq	(%rax), %rsi
 10206 1e9c BA210100 		movl	$289, %edx
 10206      00
 10207 1ea1 4889EF   		movq	%rbp, %rdi
 10208 1ea4 E8000000 		call	_ZN8UnitTest11TestDetailsC1ERKS0_i@PLT
 10208      00
 10209 1ea9 488D1500 		leaq	.LC51(%rip), %rdx
 10209      000000
 10210 1eb0 4889EE   		movq	%rbp, %rsi
 10211 1eb3 4C89F7   		movq	%r14, %rdi
 10212 1eb6 E8000000 		call	_ZN8UnitTest11TestResults13OnTestFailureERKNS_11TestDetailsEPKc@PLT
 10212      00
 10213              	.LEHE496:
 10214              	.LEHB497:
 10215 1ebb E8000000 		call	__cxa_end_catch@PLT
 10215      00
 10216              	.LEHE497:
 10217 1ec0 E9000000 		jmp	.L659
 10217      00
 10218              	.L754:
 10219 1ec5 F30F1EFA 		endbr64
 10220 1ec9 4889C5   		movq	%rax, %rbp
 10221 1ecc E8000000 		call	__cxa_end_catch@PLT
 10221      00
 10222 1ed1 4889EF   		movq	%rbp, %rdi
 10223              	.LEHB498:
 10224 1ed4 E8000000 		call	_Unwind_Resume@PLT
 10224      00
 10225              	.LEHE498:
 10226              	.L752:
 10227 1ed9 F30F1EFA 		endbr64
 10228 1edd 4889C5   		movq	%rax, %rbp
 10229 1ee0 E8000000 		call	__cxa_end_catch@PLT
 10229      00
 10230 1ee5 4889EF   		movq	%rbp, %rdi
 10231              	.LEHB499:
 10232 1ee8 E8000000 		call	_Unwind_Resume@PLT
 10232      00
 10233              	.LEHE499:
 10234              	.L655:
 10235 1eed E8000000 		call	__cxa_begin_catch@PLT
 10235      00
 10236              	.LEHB500:
 10237 1ef2 E8000000 		call	_ZN8UnitTest11CurrentTest7ResultsEv@PLT
 10237      00
 10238 1ef7 4C8B30   		movq	(%rax), %r14
 10239 1efa E8000000 		call	_ZN8UnitTest11CurrentTest7DetailsEv@PLT
 10239      00
 10240 1eff 488B30   		movq	(%rax), %rsi
 10241 1f02 BA200100 		movl	$288, %edx
 10241      00
 10242 1f07 4889EF   		movq	%rbp, %rdi
 10243 1f0a E8000000 		call	_ZN8UnitTest11TestDetailsC1ERKS0_i@PLT
 10243      00
 10244 1f0f 488D1500 		leaq	.LC50(%rip), %rdx
 10244      000000
 10245 1f16 4889EE   		movq	%rbp, %rsi
 10246 1f19 4C89F7   		movq	%r14, %rdi
 10247 1f1c E8000000 		call	_ZN8UnitTest11TestResults13OnTestFailureERKNS_11TestDetailsEPKc@PLT
 10247      00
 10248              	.LEHE500:
 10249              	.LEHB501:
 10250 1f21 E8000000 		call	__cxa_end_catch@PLT
 10250      00
 10251              	.LEHE501:
 10252 1f26 E9000000 		jmp	.L656
 10252      00
 10253              	.L652:
 10254 1f2b E8000000 		call	__cxa_begin_catch@PLT
 10254      00
 10255              	.LEHB502:
 10256 1f30 E8000000 		call	_ZN8UnitTest11CurrentTest7ResultsEv@PLT
 10256      00
 10257 1f35 4C8B30   		movq	(%rax), %r14
 10258 1f38 E8000000 		call	_ZN8UnitTest11CurrentTest7DetailsEv@PLT
 10258      00
 10259 1f3d 488B30   		movq	(%rax), %rsi
 10260 1f40 BA1F0100 		movl	$287, %edx
 10260      00
 10261 1f45 4889EF   		movq	%rbp, %rdi
 10262 1f48 E8000000 		call	_ZN8UnitTest11TestDetailsC1ERKS0_i@PLT
 10262      00
 10263 1f4d 488D1500 		leaq	.LC49(%rip), %rdx
 10263      000000
 10264 1f54 4889EE   		movq	%rbp, %rsi
 10265 1f57 4C89F7   		movq	%r14, %rdi
 10266 1f5a E8000000 		call	_ZN8UnitTest11TestResults13OnTestFailureERKNS_11TestDetailsEPKc@PLT
 10266      00
 10267              	.LEHE502:
 10268              	.LEHB503:
 10269 1f5f E8000000 		call	__cxa_end_catch@PLT
 10269      00
 10270              	.LEHE503:
 10271 1f64 E9000000 		jmp	.L653
 10271      00
 10272              	.L750:
 10273 1f69 F30F1EFA 		endbr64
 10274 1f6d 4889C5   		movq	%rax, %rbp
 10275 1f70 E8000000 		call	__cxa_end_catch@PLT
 10275      00
 10276 1f75 4889EF   		movq	%rbp, %rdi
 10277              	.LEHB504:
 10278 1f78 E8000000 		call	_Unwind_Resume@PLT
 10278      00
 10279              	.LEHE504:
 10280              	.L748:
 10281 1f7d F30F1EFA 		endbr64
 10282 1f81 4889C5   		movq	%rax, %rbp
 10283 1f84 E8000000 		call	__cxa_end_catch@PLT
 10283      00
 10284 1f89 4889EF   		movq	%rbp, %rdi
 10285              	.LEHB505:
 10286 1f8c E8000000 		call	_Unwind_Resume@PLT
 10286      00
 10287              	.LEHE505:
 10288              	.L649:
 10289 1f91 E8000000 		call	__cxa_begin_catch@PLT
 10289      00
 10290              	.LEHB506:
 10291 1f96 E8000000 		call	_ZN8UnitTest11CurrentTest7ResultsEv@PLT
 10291      00
 10292 1f9b 4C8B30   		movq	(%rax), %r14
 10293 1f9e E8000000 		call	_ZN8UnitTest11CurrentTest7DetailsEv@PLT
 10293      00
 10294 1fa3 488B30   		movq	(%rax), %rsi
 10295 1fa6 BA1E0100 		movl	$286, %edx
 10295      00
 10296 1fab 4889EF   		movq	%rbp, %rdi
 10297 1fae E8000000 		call	_ZN8UnitTest11TestDetailsC1ERKS0_i@PLT
 10297      00
 10298 1fb3 488D1500 		leaq	.LC48(%rip), %rdx
 10298      000000
 10299 1fba 4889EE   		movq	%rbp, %rsi
 10300 1fbd 4C89F7   		movq	%r14, %rdi
 10301 1fc0 E8000000 		call	_ZN8UnitTest11TestResults13OnTestFailureERKNS_11TestDetailsEPKc@PLT
 10301      00
 10302              	.LEHE506:
 10303              	.LEHB507:
 10304 1fc5 E8000000 		call	__cxa_end_catch@PLT
 10304      00
 10305              	.LEHE507:
 10306 1fca E9000000 		jmp	.L650
 10306      00
 10307              	.L646:
 10308 1fcf E8000000 		call	__cxa_begin_catch@PLT
 10308      00
 10309              	.LEHB508:
 10310 1fd4 E8000000 		call	_ZN8UnitTest11CurrentTest7ResultsEv@PLT
 10310      00
 10311 1fd9 4C8B30   		movq	(%rax), %r14
 10312 1fdc E8000000 		call	_ZN8UnitTest11CurrentTest7DetailsEv@PLT
 10312      00
 10313 1fe1 488B30   		movq	(%rax), %rsi
 10314 1fe4 BA1B0100 		movl	$283, %edx
 10314      00
 10315 1fe9 4889EF   		movq	%rbp, %rdi
 10316 1fec E8000000 		call	_ZN8UnitTest11TestDetailsC1ERKS0_i@PLT
 10316      00
 10317 1ff1 488D1500 		leaq	.LC47(%rip), %rdx
 10317      000000
 10318 1ff8 4889EE   		movq	%rbp, %rsi
 10319 1ffb 4C89F7   		movq	%r14, %rdi
 10320 1ffe E8000000 		call	_ZN8UnitTest11TestResults13OnTestFailureERKNS_11TestDetailsEPKc@PLT
 10320      00
 10321              	.LEHE508:
 10322              	.LEHB509:
 10323 2003 E8000000 		call	__cxa_end_catch@PLT
 10323      00
 10324              	.LEHE509:
 10325 2008 E9000000 		jmp	.L647
 10325      00
 10326              	.L746:
 10327 200d F30F1EFA 		endbr64
 10328 2011 4889C5   		movq	%rax, %rbp
 10329 2014 E8000000 		call	__cxa_end_catch@PLT
 10329      00
 10330 2019 4889EF   		movq	%rbp, %rdi
 10331              	.LEHB510:
 10332 201c E8000000 		call	_Unwind_Resume@PLT
 10332      00
 10333              	.LEHE510:
 10334              	.L744:
 10335 2021 F30F1EFA 		endbr64
 10336 2025 4889C5   		movq	%rax, %rbp
 10337 2028 E8000000 		call	__cxa_end_catch@PLT
 10337      00
 10338 202d 4889EF   		movq	%rbp, %rdi
 10339              	.LEHB511:
 10340 2030 E8000000 		call	_Unwind_Resume@PLT
 10340      00
 10341              	.LEHE511:
 10342              	.L643:
 10343 2035 E8000000 		call	__cxa_begin_catch@PLT
 10343      00
 10344              	.LEHB512:
 10345 203a E8000000 		call	_ZN8UnitTest11CurrentTest7ResultsEv@PLT
 10345      00
 10346 203f 4C8B30   		movq	(%rax), %r14
 10347 2042 E8000000 		call	_ZN8UnitTest11CurrentTest7DetailsEv@PLT
 10347      00
 10348 2047 488B30   		movq	(%rax), %rsi
 10349 204a BA1A0100 		movl	$282, %edx
 10349      00
 10350 204f 4889EF   		movq	%rbp, %rdi
 10351 2052 E8000000 		call	_ZN8UnitTest11TestDetailsC1ERKS0_i@PLT
 10351      00
 10352 2057 488D1500 		leaq	.LC14(%rip), %rdx
 10352      000000
 10353 205e 4889EE   		movq	%rbp, %rsi
 10354 2061 4C89F7   		movq	%r14, %rdi
 10355 2064 E8000000 		call	_ZN8UnitTest11TestResults13OnTestFailureERKNS_11TestDetailsEPKc@PLT
 10355      00
 10356              	.LEHE512:
 10357              	.LEHB513:
 10358 2069 E8000000 		call	__cxa_end_catch@PLT
 10358      00
 10359              	.LEHE513:
 10360 206e E9000000 		jmp	.L644
 10360      00
 10361              	.L640:
 10362 2073 E8000000 		call	__cxa_begin_catch@PLT
 10362      00
 10363              	.LEHB514:
 10364 2078 E8000000 		call	_ZN8UnitTest11CurrentTest7ResultsEv@PLT
 10364      00
 10365 207d 4C8B30   		movq	(%rax), %r14
 10366 2080 E8000000 		call	_ZN8UnitTest11CurrentTest7DetailsEv@PLT
 10366      00
 10367 2085 488B30   		movq	(%rax), %rsi
 10368 2088 BA190100 		movl	$281, %edx
 10368      00
 10369 208d 4889EF   		movq	%rbp, %rdi
 10370 2090 E8000000 		call	_ZN8UnitTest11TestDetailsC1ERKS0_i@PLT
 10370      00
 10371 2095 488D1500 		leaq	.LC46(%rip), %rdx
 10371      000000
 10372 209c 4889EE   		movq	%rbp, %rsi
 10373 209f 4C89F7   		movq	%r14, %rdi
 10374 20a2 E8000000 		call	_ZN8UnitTest11TestResults13OnTestFailureERKNS_11TestDetailsEPKc@PLT
 10374      00
 10375              	.LEHE514:
 10376              	.LEHB515:
 10377 20a7 E8000000 		call	__cxa_end_catch@PLT
 10377      00
 10378              	.LEHE515:
 10379 20ac E9000000 		jmp	.L641
 10379      00
 10380              	.L742:
 10381 20b1 F30F1EFA 		endbr64
 10382 20b5 4889C5   		movq	%rax, %rbp
 10383 20b8 E8000000 		call	__cxa_end_catch@PLT
 10383      00
 10384 20bd 4889EF   		movq	%rbp, %rdi
 10385              	.LEHB516:
 10386 20c0 E8000000 		call	_Unwind_Resume@PLT
 10386      00
 10387              	.LEHE516:
 10388              	.L740:
 10389 20c5 F30F1EFA 		endbr64
 10390 20c9 4889C5   		movq	%rax, %rbp
 10391 20cc E8000000 		call	__cxa_end_catch@PLT
 10391      00
 10392 20d1 4889EF   		movq	%rbp, %rdi
 10393              	.LEHB517:
 10394 20d4 E8000000 		call	_Unwind_Resume@PLT
 10394      00
 10395              	.LEHE517:
 10396              	.L637:
 10397 20d9 E8000000 		call	__cxa_begin_catch@PLT
 10397      00
 10398              	.LEHB518:
 10399 20de E8000000 		call	_ZN8UnitTest11CurrentTest7ResultsEv@PLT
 10399      00
 10400 20e3 4C8B30   		movq	(%rax), %r14
 10401 20e6 E8000000 		call	_ZN8UnitTest11CurrentTest7DetailsEv@PLT
 10401      00
 10402 20eb 488B30   		movq	(%rax), %rsi
 10403 20ee BA180100 		movl	$280, %edx
 10403      00
 10404 20f3 4889EF   		movq	%rbp, %rdi
 10405 20f6 E8000000 		call	_ZN8UnitTest11TestDetailsC1ERKS0_i@PLT
 10405      00
 10406 20fb 488D1500 		leaq	.LC45(%rip), %rdx
 10406      000000
 10407 2102 4889EE   		movq	%rbp, %rsi
 10408 2105 4C89F7   		movq	%r14, %rdi
 10409 2108 E8000000 		call	_ZN8UnitTest11TestResults13OnTestFailureERKNS_11TestDetailsEPKc@PLT
 10409      00
 10410              	.LEHE518:
 10411              	.LEHB519:
 10412 210d E8000000 		call	__cxa_end_catch@PLT
 10412      00
 10413              	.LEHE519:
 10414 2112 E9000000 		jmp	.L638
 10414      00
 10415              	.L634:
 10416 2117 E8000000 		call	__cxa_begin_catch@PLT
 10416      00
 10417              	.LEHB520:
 10418 211c E8000000 		call	_ZN8UnitTest11CurrentTest7ResultsEv@PLT
 10418      00
 10419 2121 4C8B30   		movq	(%rax), %r14
 10420 2124 E8000000 		call	_ZN8UnitTest11CurrentTest7DetailsEv@PLT
 10420      00
 10421 2129 488B30   		movq	(%rax), %rsi
 10422 212c BA130100 		movl	$275, %edx
 10422      00
 10423 2131 4889EF   		movq	%rbp, %rdi
 10424 2134 E8000000 		call	_ZN8UnitTest11TestDetailsC1ERKS0_i@PLT
 10424      00
 10425 2139 488D1500 		leaq	.LC34(%rip), %rdx
 10425      000000
 10426 2140 4889EE   		movq	%rbp, %rsi
 10427 2143 4C89F7   		movq	%r14, %rdi
 10428 2146 E8000000 		call	_ZN8UnitTest11TestResults13OnTestFailureERKNS_11TestDetailsEPKc@PLT
 10428      00
 10429              	.LEHE520:
 10430              	.LEHB521:
 10431 214b E8000000 		call	__cxa_end_catch@PLT
 10431      00
 10432              	.LEHE521:
 10433 2150 E9000000 		jmp	.L635
 10433      00
 10434              	.L738:
 10435 2155 F30F1EFA 		endbr64
 10436 2159 4889C5   		movq	%rax, %rbp
 10437 215c E8000000 		call	__cxa_end_catch@PLT
 10437      00
 10438 2161 4889EF   		movq	%rbp, %rdi
 10439              	.LEHB522:
 10440 2164 E8000000 		call	_Unwind_Resume@PLT
 10440      00
 10441              	.LEHE522:
 10442              	.L736:
 10443 2169 F30F1EFA 		endbr64
 10444 216d 4889C5   		movq	%rax, %rbp
 10445 2170 E8000000 		call	__cxa_end_catch@PLT
 10445      00
 10446 2175 4889EF   		movq	%rbp, %rdi
 10447              	.LEHB523:
 10448 2178 E8000000 		call	_Unwind_Resume@PLT
 10448      00
 10449              	.LEHE523:
 10450              	.L631:
 10451 217d E8000000 		call	__cxa_begin_catch@PLT
 10451      00
 10452              	.LEHB524:
 10453 2182 E8000000 		call	_ZN8UnitTest11CurrentTest7ResultsEv@PLT
 10453      00
 10454 2187 4C8B30   		movq	(%rax), %r14
 10455 218a E8000000 		call	_ZN8UnitTest11CurrentTest7DetailsEv@PLT
 10455      00
 10456 218f 488B30   		movq	(%rax), %rsi
 10457 2192 BA120100 		movl	$274, %edx
 10457      00
 10458 2197 4889EF   		movq	%rbp, %rdi
 10459 219a E8000000 		call	_ZN8UnitTest11TestDetailsC1ERKS0_i@PLT
 10459      00
 10460 219f 488D1500 		leaq	.LC10(%rip), %rdx
 10460      000000
 10461 21a6 4889EE   		movq	%rbp, %rsi
 10462 21a9 4C89F7   		movq	%r14, %rdi
 10463 21ac E8000000 		call	_ZN8UnitTest11TestResults13OnTestFailureERKNS_11TestDetailsEPKc@PLT
 10463      00
 10464              	.LEHE524:
 10465              	.LEHB525:
 10466 21b1 E8000000 		call	__cxa_end_catch@PLT
 10466      00
 10467              	.LEHE525:
 10468 21b6 E9000000 		jmp	.L632
 10468      00
 10469              	.L628:
 10470 21bb E8000000 		call	__cxa_begin_catch@PLT
 10470      00
 10471              	.LEHB526:
 10472 21c0 E8000000 		call	_ZN8UnitTest11CurrentTest7ResultsEv@PLT
 10472      00
 10473 21c5 4C8B30   		movq	(%rax), %r14
 10474 21c8 E8000000 		call	_ZN8UnitTest11CurrentTest7DetailsEv@PLT
 10474      00
 10475 21cd 488B30   		movq	(%rax), %rsi
 10476 21d0 BA0E0100 		movl	$270, %edx
 10476      00
 10477 21d5 4889EF   		movq	%rbp, %rdi
 10478 21d8 E8000000 		call	_ZN8UnitTest11TestDetailsC1ERKS0_i@PLT
 10478      00
 10479 21dd 488D1500 		leaq	.LC31(%rip), %rdx
 10479      000000
 10480 21e4 4889EE   		movq	%rbp, %rsi
 10481 21e7 4C89F7   		movq	%r14, %rdi
 10482 21ea E8000000 		call	_ZN8UnitTest11TestResults13OnTestFailureERKNS_11TestDetailsEPKc@PLT
 10482      00
 10483              	.LEHE526:
 10484              	.LEHB527:
 10485 21ef E8000000 		call	__cxa_end_catch@PLT
 10485      00
 10486              	.LEHE527:
 10487 21f4 E9000000 		jmp	.L629
 10487      00
 10488              	.L734:
 10489 21f9 F30F1EFA 		endbr64
 10490 21fd 4889C5   		movq	%rax, %rbp
 10491 2200 E8000000 		call	__cxa_end_catch@PLT
 10491      00
 10492 2205 4889EF   		movq	%rbp, %rdi
 10493              	.LEHB528:
 10494 2208 E8000000 		call	_Unwind_Resume@PLT
 10494      00
 10495              	.LEHE528:
 10496              	.L732:
 10497 220d F30F1EFA 		endbr64
 10498 2211 4889C5   		movq	%rax, %rbp
 10499 2214 E8000000 		call	__cxa_end_catch@PLT
 10499      00
 10500 2219 4889EF   		movq	%rbp, %rdi
 10501              	.LEHB529:
 10502 221c E8000000 		call	_Unwind_Resume@PLT
 10502      00
 10503              	.LEHE529:
 10504              	.L625:
 10505 2221 E8000000 		call	__cxa_begin_catch@PLT
 10505      00
 10506              	.LEHB530:
 10507 2226 E8000000 		call	_ZN8UnitTest11CurrentTest7ResultsEv@PLT
 10507      00
 10508 222b 4C8B30   		movq	(%rax), %r14
 10509 222e E8000000 		call	_ZN8UnitTest11CurrentTest7DetailsEv@PLT
 10509      00
 10510 2233 488B30   		movq	(%rax), %rsi
 10511 2236 BA0D0100 		movl	$269, %edx
 10511      00
 10512 223b 4889EF   		movq	%rbp, %rdi
 10513 223e E8000000 		call	_ZN8UnitTest11TestDetailsC1ERKS0_i@PLT
 10513      00
 10514 2243 488D1500 		leaq	.LC44(%rip), %rdx
 10514      000000
 10515 224a 4889EE   		movq	%rbp, %rsi
 10516 224d 4C89F7   		movq	%r14, %rdi
 10517 2250 E8000000 		call	_ZN8UnitTest11TestResults13OnTestFailureERKNS_11TestDetailsEPKc@PLT
 10517      00
 10518              	.LEHE530:
 10519              	.LEHB531:
 10520 2255 E8000000 		call	__cxa_end_catch@PLT
 10520      00
 10521              	.LEHE531:
 10522 225a E9000000 		jmp	.L626
 10522      00
 10523              	.L622:
 10524 225f E8000000 		call	__cxa_begin_catch@PLT
 10524      00
 10525              	.LEHB532:
 10526 2264 E8000000 		call	_ZN8UnitTest11CurrentTest7ResultsEv@PLT
 10526      00
 10527 2269 4C8B30   		movq	(%rax), %r14
 10528 226c E8000000 		call	_ZN8UnitTest11CurrentTest7DetailsEv@PLT
 10528      00
 10529 2271 488B30   		movq	(%rax), %rsi
 10530 2274 BA0C0100 		movl	$268, %edx
 10530      00
 10531 2279 4889EF   		movq	%rbp, %rdi
 10532 227c E8000000 		call	_ZN8UnitTest11TestDetailsC1ERKS0_i@PLT
 10532      00
 10533 2281 488D1500 		leaq	.LC43(%rip), %rdx
 10533      000000
 10534 2288 4889EE   		movq	%rbp, %rsi
 10535 228b 4C89F7   		movq	%r14, %rdi
 10536 228e E8000000 		call	_ZN8UnitTest11TestResults13OnTestFailureERKNS_11TestDetailsEPKc@PLT
 10536      00
 10537              	.LEHE532:
 10538              	.LEHB533:
 10539 2293 E8000000 		call	__cxa_end_catch@PLT
 10539      00
 10540              	.LEHE533:
 10541 2298 E9000000 		jmp	.L623
 10541      00
 10542              	.L730:
 10543 229d F30F1EFA 		endbr64
 10544 22a1 4889C5   		movq	%rax, %rbp
 10545 22a4 E8000000 		call	__cxa_end_catch@PLT
 10545      00
 10546 22a9 4889EF   		movq	%rbp, %rdi
 10547              	.LEHB534:
 10548 22ac E8000000 		call	_Unwind_Resume@PLT
 10548      00
 10549              	.LEHE534:
 10550              	.L728:
 10551 22b1 F30F1EFA 		endbr64
 10552 22b5 4889C5   		movq	%rax, %rbp
 10553 22b8 E8000000 		call	__cxa_end_catch@PLT
 10553      00
 10554 22bd 4889EF   		movq	%rbp, %rdi
 10555              	.LEHB535:
 10556 22c0 E8000000 		call	_Unwind_Resume@PLT
 10556      00
 10557              	.LEHE535:
 10558              	.L619:
 10559 22c5 E8000000 		call	__cxa_begin_catch@PLT
 10559      00
 10560              	.LEHB536:
 10561 22ca E8000000 		call	_ZN8UnitTest11CurrentTest7ResultsEv@PLT
 10561      00
 10562 22cf 4C8B30   		movq	(%rax), %r14
 10563 22d2 E8000000 		call	_ZN8UnitTest11CurrentTest7DetailsEv@PLT
 10563      00
 10564 22d7 488B30   		movq	(%rax), %rsi
 10565 22da BA0B0100 		movl	$267, %edx
 10565      00
 10566 22df 4889EF   		movq	%rbp, %rdi
 10567 22e2 E8000000 		call	_ZN8UnitTest11TestDetailsC1ERKS0_i@PLT
 10567      00
 10568 22e7 488D1500 		leaq	.LC12(%rip), %rdx
 10568      000000
 10569 22ee 4889EE   		movq	%rbp, %rsi
 10570 22f1 4C89F7   		movq	%r14, %rdi
 10571 22f4 E8000000 		call	_ZN8UnitTest11TestResults13OnTestFailureERKNS_11TestDetailsEPKc@PLT
 10571      00
 10572              	.LEHE536:
 10573              	.LEHB537:
 10574 22f9 E8000000 		call	__cxa_end_catch@PLT
 10574      00
 10575              	.LEHE537:
 10576 22fe E9000000 		jmp	.L620
 10576      00
 10577              	.L616:
 10578 2303 E8000000 		call	__cxa_begin_catch@PLT
 10578      00
 10579              	.LEHB538:
 10580 2308 E8000000 		call	_ZN8UnitTest11CurrentTest7ResultsEv@PLT
 10580      00
 10581 230d 4C8B30   		movq	(%rax), %r14
 10582 2310 E8000000 		call	_ZN8UnitTest11CurrentTest7DetailsEv@PLT
 10582      00
 10583 2315 488B30   		movq	(%rax), %rsi
 10584 2318 BA060100 		movl	$262, %edx
 10584      00
 10585 231d 4889EF   		movq	%rbp, %rdi
 10586 2320 E8000000 		call	_ZN8UnitTest11TestDetailsC1ERKS0_i@PLT
 10586      00
 10587 2325 488D1500 		leaq	.LC42(%rip), %rdx
 10587      000000
 10588 232c 4889EE   		movq	%rbp, %rsi
 10589 232f 4C89F7   		movq	%r14, %rdi
 10590 2332 E8000000 		call	_ZN8UnitTest11TestResults13OnTestFailureERKNS_11TestDetailsEPKc@PLT
 10590      00
 10591              	.LEHE538:
 10592              	.LEHB539:
 10593 2337 E8000000 		call	__cxa_end_catch@PLT
 10593      00
 10594              	.LEHE539:
 10595 233c E9000000 		jmp	.L617
 10595      00
 10596              	.L726:
 10597 2341 F30F1EFA 		endbr64
 10598 2345 4889C5   		movq	%rax, %rbp
 10599 2348 E8000000 		call	__cxa_end_catch@PLT
 10599      00
 10600 234d 4889EF   		movq	%rbp, %rdi
 10601              	.LEHB540:
 10602 2350 E8000000 		call	_Unwind_Resume@PLT
 10602      00
 10603              	.LEHE540:
 10604              	.L724:
 10605 2355 F30F1EFA 		endbr64
 10606 2359 4889C5   		movq	%rax, %rbp
 10607 235c E8000000 		call	__cxa_end_catch@PLT
 10607      00
 10608 2361 4889EF   		movq	%rbp, %rdi
 10609              	.LEHB541:
 10610 2364 E8000000 		call	_Unwind_Resume@PLT
 10610      00
 10611              	.LEHE541:
 10612              	.L613:
 10613 2369 E8000000 		call	__cxa_begin_catch@PLT
 10613      00
 10614              	.LEHB542:
 10615 236e E8000000 		call	_ZN8UnitTest11CurrentTest7ResultsEv@PLT
 10615      00
 10616 2373 4C8B30   		movq	(%rax), %r14
 10617 2376 E8000000 		call	_ZN8UnitTest11CurrentTest7DetailsEv@PLT
 10617      00
 10618 237b 488B30   		movq	(%rax), %rsi
 10619 237e BA050100 		movl	$261, %edx
 10619      00
 10620 2383 4889EF   		movq	%rbp, %rdi
 10621 2386 E8000000 		call	_ZN8UnitTest11TestDetailsC1ERKS0_i@PLT
 10621      00
 10622 238b 488D1500 		leaq	.LC10(%rip), %rdx
 10622      000000
 10623 2392 4889EE   		movq	%rbp, %rsi
 10624 2395 4C89F7   		movq	%r14, %rdi
 10625 2398 E8000000 		call	_ZN8UnitTest11TestResults13OnTestFailureERKNS_11TestDetailsEPKc@PLT
 10625      00
 10626              	.LEHE542:
 10627              	.LEHB543:
 10628 239d E8000000 		call	__cxa_end_catch@PLT
 10628      00
 10629              	.LEHE543:
 10630 23a2 E9000000 		jmp	.L614
 10630      00
 10631              	.L610:
 10632 23a7 E8000000 		call	__cxa_begin_catch@PLT
 10632      00
 10633              	.LEHB544:
 10634 23ac E8000000 		call	_ZN8UnitTest11CurrentTest7ResultsEv@PLT
 10634      00
 10635 23b1 4C8B30   		movq	(%rax), %r14
 10636 23b4 E8000000 		call	_ZN8UnitTest11CurrentTest7DetailsEv@PLT
 10636      00
 10637 23b9 488B30   		movq	(%rax), %rsi
 10638 23bc BA010100 		movl	$257, %edx
 10638      00
 10639 23c1 4889EF   		movq	%rbp, %rdi
 10640 23c4 E8000000 		call	_ZN8UnitTest11TestDetailsC1ERKS0_i@PLT
 10640      00
 10641 23c9 488D1500 		leaq	.LC41(%rip), %rdx
 10641      000000
 10642 23d0 4889EE   		movq	%rbp, %rsi
 10643 23d3 4C89F7   		movq	%r14, %rdi
 10644 23d6 E8000000 		call	_ZN8UnitTest11TestResults13OnTestFailureERKNS_11TestDetailsEPKc@PLT
 10644      00
 10645              	.LEHE544:
 10646              	.LEHB545:
 10647 23db E8000000 		call	__cxa_end_catch@PLT
 10647      00
 10648              	.LEHE545:
 10649 23e0 E9000000 		jmp	.L611
 10649      00
 10650              	.L722:
 10651 23e5 F30F1EFA 		endbr64
 10652 23e9 4889C5   		movq	%rax, %rbp
 10653 23ec E8000000 		call	__cxa_end_catch@PLT
 10653      00
 10654 23f1 4889EF   		movq	%rbp, %rdi
 10655              	.LEHB546:
 10656 23f4 E8000000 		call	_Unwind_Resume@PLT
 10656      00
 10657              	.LEHE546:
 10658              	.L720:
 10659 23f9 F30F1EFA 		endbr64
 10660 23fd 4889C5   		movq	%rax, %rbp
 10661 2400 E8000000 		call	__cxa_end_catch@PLT
 10661      00
 10662 2405 4889EF   		movq	%rbp, %rdi
 10663              	.LEHB547:
 10664 2408 E8000000 		call	_Unwind_Resume@PLT
 10664      00
 10665              	.LEHE547:
 10666              	.L607:
 10667 240d E8000000 		call	__cxa_begin_catch@PLT
 10667      00
 10668              	.LEHB548:
 10669 2412 E8000000 		call	_ZN8UnitTest11CurrentTest7ResultsEv@PLT
 10669      00
 10670 2417 4C8B30   		movq	(%rax), %r14
 10671 241a E8000000 		call	_ZN8UnitTest11CurrentTest7DetailsEv@PLT
 10671      00
 10672 241f 488B30   		movq	(%rax), %rsi
 10673 2422 BA000100 		movl	$256, %edx
 10673      00
 10674 2427 4889EF   		movq	%rbp, %rdi
 10675 242a E8000000 		call	_ZN8UnitTest11TestDetailsC1ERKS0_i@PLT
 10675      00
 10676 242f 488D1500 		leaq	.LC10(%rip), %rdx
 10676      000000
 10677 2436 4889EE   		movq	%rbp, %rsi
 10678 2439 4C89F7   		movq	%r14, %rdi
 10679 243c E8000000 		call	_ZN8UnitTest11TestResults13OnTestFailureERKNS_11TestDetailsEPKc@PLT
 10679      00
 10680              	.LEHE548:
 10681              	.LEHB549:
 10682 2441 E8000000 		call	__cxa_end_catch@PLT
 10682      00
 10683              	.LEHE549:
 10684 2446 E9000000 		jmp	.L608
 10684      00
 10685              	.L604:
 10686 244b E8000000 		call	__cxa_begin_catch@PLT
 10686      00
 10687              	.LEHB550:
 10688 2450 E8000000 		call	_ZN8UnitTest11CurrentTest7ResultsEv@PLT
 10688      00
 10689 2455 4C8B30   		movq	(%rax), %r14
 10690 2458 E8000000 		call	_ZN8UnitTest11CurrentTest7DetailsEv@PLT
 10690      00
 10691 245d 488B30   		movq	(%rax), %rsi
 10692 2460 BAFC0000 		movl	$252, %edx
 10692      00
 10693 2465 4889EF   		movq	%rbp, %rdi
 10694 2468 E8000000 		call	_ZN8UnitTest11TestDetailsC1ERKS0_i@PLT
 10694      00
 10695 246d 488D1500 		leaq	.LC40(%rip), %rdx
 10695      000000
 10696 2474 4889EE   		movq	%rbp, %rsi
 10697 2477 4C89F7   		movq	%r14, %rdi
 10698 247a E8000000 		call	_ZN8UnitTest11TestResults13OnTestFailureERKNS_11TestDetailsEPKc@PLT
 10698      00
 10699              	.LEHE550:
 10700              	.LEHB551:
 10701 247f E8000000 		call	__cxa_end_catch@PLT
 10701      00
 10702              	.LEHE551:
 10703 2484 E9000000 		jmp	.L605
 10703      00
 10704              	.L718:
 10705 2489 F30F1EFA 		endbr64
 10706 248d 4889C5   		movq	%rax, %rbp
 10707 2490 E8000000 		call	__cxa_end_catch@PLT
 10707      00
 10708 2495 4889EF   		movq	%rbp, %rdi
 10709              	.LEHB552:
 10710 2498 E8000000 		call	_Unwind_Resume@PLT
 10710      00
 10711              	.LEHE552:
 10712              	.L716:
 10713 249d F30F1EFA 		endbr64
 10714 24a1 4889C5   		movq	%rax, %rbp
 10715 24a4 E8000000 		call	__cxa_end_catch@PLT
 10715      00
 10716 24a9 4889EF   		movq	%rbp, %rdi
 10717              	.LEHB553:
 10718 24ac E8000000 		call	_Unwind_Resume@PLT
 10718      00
 10719              	.LEHE553:
 10720              	.L601:
 10721 24b1 E8000000 		call	__cxa_begin_catch@PLT
 10721      00
 10722              	.LEHB554:
 10723 24b6 E8000000 		call	_ZN8UnitTest11CurrentTest7ResultsEv@PLT
 10723      00
 10724 24bb 4C8B30   		movq	(%rax), %r14
 10725 24be E8000000 		call	_ZN8UnitTest11CurrentTest7DetailsEv@PLT
 10725      00
 10726 24c3 488B30   		movq	(%rax), %rsi
 10727 24c6 BAFB0000 		movl	$251, %edx
 10727      00
 10728 24cb 4889EF   		movq	%rbp, %rdi
 10729 24ce E8000000 		call	_ZN8UnitTest11TestDetailsC1ERKS0_i@PLT
 10729      00
 10730 24d3 488D1500 		leaq	.LC10(%rip), %rdx
 10730      000000
 10731 24da 4889EE   		movq	%rbp, %rsi
 10732 24dd 4C89F7   		movq	%r14, %rdi
 10733 24e0 E8000000 		call	_ZN8UnitTest11TestResults13OnTestFailureERKNS_11TestDetailsEPKc@PLT
 10733      00
 10734              	.LEHE554:
 10735              	.LEHB555:
 10736 24e5 E8000000 		call	__cxa_end_catch@PLT
 10736      00
 10737              	.LEHE555:
 10738 24ea E9000000 		jmp	.L602
 10738      00
 10739              	.L598:
 10740 24ef E8000000 		call	__cxa_begin_catch@PLT
 10740      00
 10741              	.LEHB556:
 10742 24f4 E8000000 		call	_ZN8UnitTest11CurrentTest7ResultsEv@PLT
 10742      00
 10743 24f9 4C8B30   		movq	(%rax), %r14
 10744 24fc E8000000 		call	_ZN8UnitTest11CurrentTest7DetailsEv@PLT
 10744      00
 10745 2501 488B30   		movq	(%rax), %rsi
 10746 2504 BAF70000 		movl	$247, %edx
 10746      00
 10747 2509 4889EF   		movq	%rbp, %rdi
 10748 250c E8000000 		call	_ZN8UnitTest11TestDetailsC1ERKS0_i@PLT
 10748      00
 10749 2511 488D1500 		leaq	.LC39(%rip), %rdx
 10749      000000
 10750 2518 4889EE   		movq	%rbp, %rsi
 10751 251b 4C89F7   		movq	%r14, %rdi
 10752 251e E8000000 		call	_ZN8UnitTest11TestResults13OnTestFailureERKNS_11TestDetailsEPKc@PLT
 10752      00
 10753              	.LEHE556:
 10754              	.LEHB557:
 10755 2523 E8000000 		call	__cxa_end_catch@PLT
 10755      00
 10756              	.LEHE557:
 10757 2528 E9000000 		jmp	.L599
 10757      00
 10758              	.L714:
 10759 252d F30F1EFA 		endbr64
 10760 2531 4889C5   		movq	%rax, %rbp
 10761 2534 E8000000 		call	__cxa_end_catch@PLT
 10761      00
 10762 2539 4889EF   		movq	%rbp, %rdi
 10763              	.LEHB558:
 10764 253c E8000000 		call	_Unwind_Resume@PLT
 10764      00
 10765              	.LEHE558:
 10766              	.L712:
 10767 2541 F30F1EFA 		endbr64
 10768 2545 4889C5   		movq	%rax, %rbp
 10769 2548 E8000000 		call	__cxa_end_catch@PLT
 10769      00
 10770 254d 4889EF   		movq	%rbp, %rdi
 10771              	.LEHB559:
 10772 2550 E8000000 		call	_Unwind_Resume@PLT
 10772      00
 10773              	.LEHE559:
 10774              	.L595:
 10775 2555 E8000000 		call	__cxa_begin_catch@PLT
 10775      00
 10776              	.LEHB560:
 10777 255a E8000000 		call	_ZN8UnitTest11CurrentTest7ResultsEv@PLT
 10777      00
 10778 255f 4C8B30   		movq	(%rax), %r14
 10779 2562 E8000000 		call	_ZN8UnitTest11CurrentTest7DetailsEv@PLT
 10779      00
 10780 2567 488B30   		movq	(%rax), %rsi
 10781 256a BAF60000 		movl	$246, %edx
 10781      00
 10782 256f 4889EF   		movq	%rbp, %rdi
 10783 2572 E8000000 		call	_ZN8UnitTest11TestDetailsC1ERKS0_i@PLT
 10783      00
 10784 2577 488D1500 		leaq	.LC10(%rip), %rdx
 10784      000000
 10785 257e 4889EE   		movq	%rbp, %rsi
 10786 2581 4C89F7   		movq	%r14, %rdi
 10787 2584 E8000000 		call	_ZN8UnitTest11TestResults13OnTestFailureERKNS_11TestDetailsEPKc@PLT
 10787      00
 10788              	.LEHE560:
 10789              	.LEHB561:
 10790 2589 E8000000 		call	__cxa_end_catch@PLT
 10790      00
 10791              	.LEHE561:
 10792 258e E9000000 		jmp	.L596
 10792      00
 10793              	.L592:
 10794 2593 E8000000 		call	__cxa_begin_catch@PLT
 10794      00
 10795              	.LEHB562:
 10796 2598 E8000000 		call	_ZN8UnitTest11CurrentTest7ResultsEv@PLT
 10796      00
 10797 259d 4C8B28   		movq	(%rax), %r13
 10798 25a0 E8000000 		call	_ZN8UnitTest11CurrentTest7DetailsEv@PLT
 10798      00
 10799 25a5 488D6C24 		leaq	48(%rsp), %rbp
 10799      30
 10800 25aa 488B30   		movq	(%rax), %rsi
 10801 25ad BAEE0000 		movl	$238, %edx
 10801      00
 10802 25b2 4889EF   		movq	%rbp, %rdi
 10803 25b5 E8000000 		call	_ZN8UnitTest11TestDetailsC1ERKS0_i@PLT
 10803      00
 10804 25ba 488D1500 		leaq	.LC10(%rip), %rdx
 10804      000000
 10805 25c1 4889EE   		movq	%rbp, %rsi
 10806 25c4 4C89EF   		movq	%r13, %rdi
 10807 25c7 E8000000 		call	_ZN8UnitTest11TestResults13OnTestFailureERKNS_11TestDetailsEPKc@PLT
 10807      00
 10808              	.LEHE562:
 10809              	.LEHB563:
 10810 25cc E8000000 		call	__cxa_end_catch@PLT
 10810      00
 10811              	.LEHE563:
 10812 25d1 E9000000 		jmp	.L593
 10812      00
 10813              	.L710:
 10814 25d6 F30F1EFA 		endbr64
 10815 25da 4889C5   		movq	%rax, %rbp
 10816 25dd E8000000 		call	__cxa_end_catch@PLT
 10816      00
 10817 25e2 4889EF   		movq	%rbp, %rdi
 10818              	.LEHB564:
 10819 25e5 E8000000 		call	_Unwind_Resume@PLT
 10819      00
 10820              	.LEHE564:
 10821              	.L708:
 10822 25ea F30F1EFA 		endbr64
 10823 25ee 4889C5   		movq	%rax, %rbp
 10824 25f1 E8000000 		call	__cxa_end_catch@PLT
 10824      00
 10825 25f6 4889EF   		movq	%rbp, %rdi
 10826              	.LEHB565:
 10827 25f9 E8000000 		call	_Unwind_Resume@PLT
 10827      00
 10828              	.LEHE565:
 10829              		.cfi_endproc
 10830              	.LFE1259:
 10831              		.section	.gcc_except_table
 10832              		.align 4
 10833              	.LLSDAC1259:
 10834 0a00 FF       		.byte	0xff
 10835 0a01 9B       		.byte	0x9b
 10836 0a02 E404     		.uleb128 .LLSDATTC1259-.LLSDATTDC1259
 10837              	.LLSDATTDC1259:
 10838 0a04 01       		.byte	0x1
 10839 0a05 DB04     		.uleb128 .LLSDACSEC1259-.LLSDACSBC1259
 10840              	.LLSDACSBC1259:
 10841 0a07 05       		.uleb128 .LEHB452-.LCOLDB62
 10842 0a08 2F       		.uleb128 .LEHE452-.LEHB452
 10843 0a09 7C       		.uleb128 .L782-.LCOLDB62
 10844 0a0a 00       		.uleb128 0
 10845 0a0b 34       		.uleb128 .LEHB453-.LCOLDB62
 10846 0a0c 05       		.uleb128 .LEHE453-.LEHB453
 10847 0a0d 00       		.uleb128 0
 10848 0a0e 00       		.uleb128 0
 10849 0a0f 43       		.uleb128 .LEHB454-.LCOLDB62
 10850 0a10 2F       		.uleb128 .LEHE454-.LEHB454
 10851 0a11 9001     		.uleb128 .L780-.LCOLDB62
 10852 0a13 00       		.uleb128 0
 10853 0a14 72       		.uleb128 .LEHB455-.LCOLDB62
 10854 0a15 05       		.uleb128 .LEHE455-.LEHB455
 10855 0a16 00       		.uleb128 0
 10856 0a17 00       		.uleb128 0
 10857 0a18 8B01     		.uleb128 .LEHB456-.LCOLDB62
 10858 0a1a 05       		.uleb128 .LEHE456-.LEHB456
 10859 0a1b 00       		.uleb128 0
 10860 0a1c 00       		.uleb128 0
 10861 0a1d 9F01     		.uleb128 .LEHB457-.LCOLDB62
 10862 0a1f 05       		.uleb128 .LEHE457-.LEHB457
 10863 0a20 00       		.uleb128 0
 10864 0a21 00       		.uleb128 0
 10865 0a22 A901     		.uleb128 .LEHB458-.LCOLDB62
 10866 0a24 2F       		.uleb128 .LEHE458-.LEHB458
 10867 0a25 A002     		.uleb128 .L778-.LCOLDB62
 10868 0a27 00       		.uleb128 0
 10869 0a28 D801     		.uleb128 .LEHB459-.LCOLDB62
 10870 0a2a 05       		.uleb128 .LEHE459-.LEHB459
 10871 0a2b 00       		.uleb128 0
 10872 0a2c 00       		.uleb128 0
 10873 0a2d E701     		.uleb128 .LEHB460-.LCOLDB62
 10874 0a2f 2F       		.uleb128 .LEHE460-.LEHB460
 10875 0a30 B402     		.uleb128 .L776-.LCOLDB62
 10876 0a32 00       		.uleb128 0
 10877 0a33 9602     		.uleb128 .LEHB461-.LCOLDB62
 10878 0a35 05       		.uleb128 .LEHE461-.LEHB461
 10879 0a36 00       		.uleb128 0
 10880 0a37 00       		.uleb128 0
 10881 0a38 AF02     		.uleb128 .LEHB462-.LCOLDB62
 10882 0a3a 05       		.uleb128 .LEHE462-.LEHB462
 10883 0a3b 00       		.uleb128 0
 10884 0a3c 00       		.uleb128 0
 10885 0a3d C302     		.uleb128 .LEHB463-.LCOLDB62
 10886 0a3f 05       		.uleb128 .LEHE463-.LEHB463
 10887 0a40 00       		.uleb128 0
 10888 0a41 00       		.uleb128 0
 10889 0a42 CD02     		.uleb128 .LEHB464-.LCOLDB62
 10890 0a44 2F       		.uleb128 .LEHE464-.LEHB464
 10891 0a45 C403     		.uleb128 .L774-.LCOLDB62
 10892 0a47 00       		.uleb128 0
 10893 0a48 FC02     		.uleb128 .LEHB465-.LCOLDB62
 10894 0a4a 05       		.uleb128 .LEHE465-.LEHB465
 10895 0a4b 00       		.uleb128 0
 10896 0a4c 00       		.uleb128 0
 10897 0a4d 8B03     		.uleb128 .LEHB466-.LCOLDB62
 10898 0a4f 2F       		.uleb128 .LEHE466-.LEHB466
 10899 0a50 D803     		.uleb128 .L772-.LCOLDB62
 10900 0a52 00       		.uleb128 0
 10901 0a53 BA03     		.uleb128 .LEHB467-.LCOLDB62
 10902 0a55 05       		.uleb128 .LEHE467-.LEHB467
 10903 0a56 00       		.uleb128 0
 10904 0a57 00       		.uleb128 0
 10905 0a58 D303     		.uleb128 .LEHB468-.LCOLDB62
 10906 0a5a 05       		.uleb128 .LEHE468-.LEHB468
 10907 0a5b 00       		.uleb128 0
 10908 0a5c 00       		.uleb128 0
 10909 0a5d E703     		.uleb128 .LEHB469-.LCOLDB62
 10910 0a5f 05       		.uleb128 .LEHE469-.LEHB469
 10911 0a60 00       		.uleb128 0
 10912 0a61 00       		.uleb128 0
 10913 0a62 F103     		.uleb128 .LEHB470-.LCOLDB62
 10914 0a64 2F       		.uleb128 .LEHE470-.LEHB470
 10915 0a65 E804     		.uleb128 .L770-.LCOLDB62
 10916 0a67 00       		.uleb128 0
 10917 0a68 A004     		.uleb128 .LEHB471-.LCOLDB62
 10918 0a6a 05       		.uleb128 .LEHE471-.LEHB471
 10919 0a6b 00       		.uleb128 0
 10920 0a6c 00       		.uleb128 0
 10921 0a6d AF04     		.uleb128 .LEHB472-.LCOLDB62
 10922 0a6f 2F       		.uleb128 .LEHE472-.LEHB472
 10923 0a70 FC04     		.uleb128 .L768-.LCOLDB62
 10924 0a72 00       		.uleb128 0
 10925 0a73 DE04     		.uleb128 .LEHB473-.LCOLDB62
 10926 0a75 05       		.uleb128 .LEHE473-.LEHB473
 10927 0a76 00       		.uleb128 0
 10928 0a77 00       		.uleb128 0
 10929 0a78 F704     		.uleb128 .LEHB474-.LCOLDB62
 10930 0a7a 05       		.uleb128 .LEHE474-.LEHB474
 10931 0a7b 00       		.uleb128 0
 10932 0a7c 00       		.uleb128 0
 10933 0a7d 8B05     		.uleb128 .LEHB475-.LCOLDB62
 10934 0a7f 05       		.uleb128 .LEHE475-.LEHB475
 10935 0a80 00       		.uleb128 0
 10936 0a81 00       		.uleb128 0
 10937 0a82 9505     		.uleb128 .LEHB476-.LCOLDB62
 10938 0a84 2F       		.uleb128 .LEHE476-.LEHB476
 10939 0a85 8C06     		.uleb128 .L766-.LCOLDB62
 10940 0a87 00       		.uleb128 0
 10941 0a88 C405     		.uleb128 .LEHB477-.LCOLDB62
 10942 0a8a 05       		.uleb128 .LEHE477-.LEHB477
 10943 0a8b 00       		.uleb128 0
 10944 0a8c 00       		.uleb128 0
 10945 0a8d D305     		.uleb128 .LEHB478-.LCOLDB62
 10946 0a8f 2F       		.uleb128 .LEHE478-.LEHB478
 10947 0a90 A006     		.uleb128 .L764-.LCOLDB62
 10948 0a92 00       		.uleb128 0
 10949 0a93 8206     		.uleb128 .LEHB479-.LCOLDB62
 10950 0a95 05       		.uleb128 .LEHE479-.LEHB479
 10951 0a96 00       		.uleb128 0
 10952 0a97 00       		.uleb128 0
 10953 0a98 9B06     		.uleb128 .LEHB480-.LCOLDB62
 10954 0a9a 05       		.uleb128 .LEHE480-.LEHB480
 10955 0a9b 00       		.uleb128 0
 10956 0a9c 00       		.uleb128 0
 10957 0a9d AF06     		.uleb128 .LEHB481-.LCOLDB62
 10958 0a9f 05       		.uleb128 .LEHE481-.LEHB481
 10959 0aa0 00       		.uleb128 0
 10960 0aa1 00       		.uleb128 0
 10961 0aa2 B906     		.uleb128 .LEHB482-.LCOLDB62
 10962 0aa4 2F       		.uleb128 .LEHE482-.LEHB482
 10963 0aa5 B007     		.uleb128 .L762-.LCOLDB62
 10964 0aa7 00       		.uleb128 0
 10965 0aa8 E806     		.uleb128 .LEHB483-.LCOLDB62
 10966 0aaa 05       		.uleb128 .LEHE483-.LEHB483
 10967 0aab 00       		.uleb128 0
 10968 0aac 00       		.uleb128 0
 10969 0aad F706     		.uleb128 .LEHB484-.LCOLDB62
 10970 0aaf 2F       		.uleb128 .LEHE484-.LEHB484
 10971 0ab0 C407     		.uleb128 .L760-.LCOLDB62
 10972 0ab2 00       		.uleb128 0
 10973 0ab3 A607     		.uleb128 .LEHB485-.LCOLDB62
 10974 0ab5 05       		.uleb128 .LEHE485-.LEHB485
 10975 0ab6 00       		.uleb128 0
 10976 0ab7 00       		.uleb128 0
 10977 0ab8 BF07     		.uleb128 .LEHB486-.LCOLDB62
 10978 0aba 05       		.uleb128 .LEHE486-.LEHB486
 10979 0abb 00       		.uleb128 0
 10980 0abc 00       		.uleb128 0
 10981 0abd D307     		.uleb128 .LEHB487-.LCOLDB62
 10982 0abf 05       		.uleb128 .LEHE487-.LEHB487
 10983 0ac0 00       		.uleb128 0
 10984 0ac1 00       		.uleb128 0
 10985 0ac2 DD07     		.uleb128 .LEHB488-.LCOLDB62
 10986 0ac4 2F       		.uleb128 .LEHE488-.LEHB488
 10987 0ac5 D408     		.uleb128 .L758-.LCOLDB62
 10988 0ac7 00       		.uleb128 0
 10989 0ac8 8C08     		.uleb128 .LEHB489-.LCOLDB62
 10990 0aca 05       		.uleb128 .LEHE489-.LEHB489
 10991 0acb 00       		.uleb128 0
 10992 0acc 00       		.uleb128 0
 10993 0acd 9B08     		.uleb128 .LEHB490-.LCOLDB62
 10994 0acf 2F       		.uleb128 .LEHE490-.LEHB490
 10995 0ad0 E808     		.uleb128 .L756-.LCOLDB62
 10996 0ad2 00       		.uleb128 0
 10997 0ad3 CA08     		.uleb128 .LEHB491-.LCOLDB62
 10998 0ad5 05       		.uleb128 .LEHE491-.LEHB491
 10999 0ad6 00       		.uleb128 0
 11000 0ad7 00       		.uleb128 0
 11001 0ad8 E308     		.uleb128 .LEHB492-.LCOLDB62
 11002 0ada 05       		.uleb128 .LEHE492-.LEHB492
 11003 0adb 00       		.uleb128 0
 11004 0adc 00       		.uleb128 0
 11005 0add F708     		.uleb128 .LEHB493-.LCOLDB62
 11006 0adf 05       		.uleb128 .LEHE493-.LEHB493
 11007 0ae0 00       		.uleb128 0
 11008 0ae1 00       		.uleb128 0
 11009 0ae2 8109     		.uleb128 .LEHB494-.LCOLDB62
 11010 0ae4 2F       		.uleb128 .LEHE494-.LEHB494
 11011 0ae5 F809     		.uleb128 .L754-.LCOLDB62
 11012 0ae7 00       		.uleb128 0
 11013 0ae8 B009     		.uleb128 .LEHB495-.LCOLDB62
 11014 0aea 05       		.uleb128 .LEHE495-.LEHB495
 11015 0aeb 00       		.uleb128 0
 11016 0aec 00       		.uleb128 0
 11017 0aed BF09     		.uleb128 .LEHB496-.LCOLDB62
 11018 0aef 2F       		.uleb128 .LEHE496-.LEHB496
 11019 0af0 8C0A     		.uleb128 .L752-.LCOLDB62
 11020 0af2 00       		.uleb128 0
 11021 0af3 EE09     		.uleb128 .LEHB497-.LCOLDB62
 11022 0af5 05       		.uleb128 .LEHE497-.LEHB497
 11023 0af6 00       		.uleb128 0
 11024 0af7 00       		.uleb128 0
 11025 0af8 870A     		.uleb128 .LEHB498-.LCOLDB62
 11026 0afa 05       		.uleb128 .LEHE498-.LEHB498
 11027 0afb 00       		.uleb128 0
 11028 0afc 00       		.uleb128 0
 11029 0afd 9B0A     		.uleb128 .LEHB499-.LCOLDB62
 11030 0aff 05       		.uleb128 .LEHE499-.LEHB499
 11031 0b00 00       		.uleb128 0
 11032 0b01 00       		.uleb128 0
 11033 0b02 A50A     		.uleb128 .LEHB500-.LCOLDB62
 11034 0b04 2F       		.uleb128 .LEHE500-.LEHB500
 11035 0b05 9C0B     		.uleb128 .L750-.LCOLDB62
 11036 0b07 00       		.uleb128 0
 11037 0b08 D40A     		.uleb128 .LEHB501-.LCOLDB62
 11038 0b0a 05       		.uleb128 .LEHE501-.LEHB501
 11039 0b0b 00       		.uleb128 0
 11040 0b0c 00       		.uleb128 0
 11041 0b0d E30A     		.uleb128 .LEHB502-.LCOLDB62
 11042 0b0f 2F       		.uleb128 .LEHE502-.LEHB502
 11043 0b10 B00B     		.uleb128 .L748-.LCOLDB62
 11044 0b12 00       		.uleb128 0
 11045 0b13 920B     		.uleb128 .LEHB503-.LCOLDB62
 11046 0b15 05       		.uleb128 .LEHE503-.LEHB503
 11047 0b16 00       		.uleb128 0
 11048 0b17 00       		.uleb128 0
 11049 0b18 AB0B     		.uleb128 .LEHB504-.LCOLDB62
 11050 0b1a 05       		.uleb128 .LEHE504-.LEHB504
 11051 0b1b 00       		.uleb128 0
 11052 0b1c 00       		.uleb128 0
 11053 0b1d BF0B     		.uleb128 .LEHB505-.LCOLDB62
 11054 0b1f 05       		.uleb128 .LEHE505-.LEHB505
 11055 0b20 00       		.uleb128 0
 11056 0b21 00       		.uleb128 0
 11057 0b22 C90B     		.uleb128 .LEHB506-.LCOLDB62
 11058 0b24 2F       		.uleb128 .LEHE506-.LEHB506
 11059 0b25 C00C     		.uleb128 .L746-.LCOLDB62
 11060 0b27 00       		.uleb128 0
 11061 0b28 F80B     		.uleb128 .LEHB507-.LCOLDB62
 11062 0b2a 05       		.uleb128 .LEHE507-.LEHB507
 11063 0b2b 00       		.uleb128 0
 11064 0b2c 00       		.uleb128 0
 11065 0b2d 870C     		.uleb128 .LEHB508-.LCOLDB62
 11066 0b2f 2F       		.uleb128 .LEHE508-.LEHB508
 11067 0b30 D40C     		.uleb128 .L744-.LCOLDB62
 11068 0b32 00       		.uleb128 0
 11069 0b33 B60C     		.uleb128 .LEHB509-.LCOLDB62
 11070 0b35 05       		.uleb128 .LEHE509-.LEHB509
 11071 0b36 00       		.uleb128 0
 11072 0b37 00       		.uleb128 0
 11073 0b38 CF0C     		.uleb128 .LEHB510-.LCOLDB62
 11074 0b3a 05       		.uleb128 .LEHE510-.LEHB510
 11075 0b3b 00       		.uleb128 0
 11076 0b3c 00       		.uleb128 0
 11077 0b3d E30C     		.uleb128 .LEHB511-.LCOLDB62
 11078 0b3f 05       		.uleb128 .LEHE511-.LEHB511
 11079 0b40 00       		.uleb128 0
 11080 0b41 00       		.uleb128 0
 11081 0b42 ED0C     		.uleb128 .LEHB512-.LCOLDB62
 11082 0b44 2F       		.uleb128 .LEHE512-.LEHB512
 11083 0b45 E40D     		.uleb128 .L742-.LCOLDB62
 11084 0b47 00       		.uleb128 0
 11085 0b48 9C0D     		.uleb128 .LEHB513-.LCOLDB62
 11086 0b4a 05       		.uleb128 .LEHE513-.LEHB513
 11087 0b4b 00       		.uleb128 0
 11088 0b4c 00       		.uleb128 0
 11089 0b4d AB0D     		.uleb128 .LEHB514-.LCOLDB62
 11090 0b4f 2F       		.uleb128 .LEHE514-.LEHB514
 11091 0b50 F80D     		.uleb128 .L740-.LCOLDB62
 11092 0b52 00       		.uleb128 0
 11093 0b53 DA0D     		.uleb128 .LEHB515-.LCOLDB62
 11094 0b55 05       		.uleb128 .LEHE515-.LEHB515
 11095 0b56 00       		.uleb128 0
 11096 0b57 00       		.uleb128 0
 11097 0b58 F30D     		.uleb128 .LEHB516-.LCOLDB62
 11098 0b5a 05       		.uleb128 .LEHE516-.LEHB516
 11099 0b5b 00       		.uleb128 0
 11100 0b5c 00       		.uleb128 0
 11101 0b5d 870E     		.uleb128 .LEHB517-.LCOLDB62
 11102 0b5f 05       		.uleb128 .LEHE517-.LEHB517
 11103 0b60 00       		.uleb128 0
 11104 0b61 00       		.uleb128 0
 11105 0b62 910E     		.uleb128 .LEHB518-.LCOLDB62
 11106 0b64 2F       		.uleb128 .LEHE518-.LEHB518
 11107 0b65 880F     		.uleb128 .L738-.LCOLDB62
 11108 0b67 00       		.uleb128 0
 11109 0b68 C00E     		.uleb128 .LEHB519-.LCOLDB62
 11110 0b6a 05       		.uleb128 .LEHE519-.LEHB519
 11111 0b6b 00       		.uleb128 0
 11112 0b6c 00       		.uleb128 0
 11113 0b6d CF0E     		.uleb128 .LEHB520-.LCOLDB62
 11114 0b6f 2F       		.uleb128 .LEHE520-.LEHB520
 11115 0b70 9C0F     		.uleb128 .L736-.LCOLDB62
 11116 0b72 00       		.uleb128 0
 11117 0b73 FE0E     		.uleb128 .LEHB521-.LCOLDB62
 11118 0b75 05       		.uleb128 .LEHE521-.LEHB521
 11119 0b76 00       		.uleb128 0
 11120 0b77 00       		.uleb128 0
 11121 0b78 970F     		.uleb128 .LEHB522-.LCOLDB62
 11122 0b7a 05       		.uleb128 .LEHE522-.LEHB522
 11123 0b7b 00       		.uleb128 0
 11124 0b7c 00       		.uleb128 0
 11125 0b7d AB0F     		.uleb128 .LEHB523-.LCOLDB62
 11126 0b7f 05       		.uleb128 .LEHE523-.LEHB523
 11127 0b80 00       		.uleb128 0
 11128 0b81 00       		.uleb128 0
 11129 0b82 B50F     		.uleb128 .LEHB524-.LCOLDB62
 11130 0b84 2F       		.uleb128 .LEHE524-.LEHB524
 11131 0b85 AC10     		.uleb128 .L734-.LCOLDB62
 11132 0b87 00       		.uleb128 0
 11133 0b88 E40F     		.uleb128 .LEHB525-.LCOLDB62
 11134 0b8a 05       		.uleb128 .LEHE525-.LEHB525
 11135 0b8b 00       		.uleb128 0
 11136 0b8c 00       		.uleb128 0
 11137 0b8d F30F     		.uleb128 .LEHB526-.LCOLDB62
 11138 0b8f 2F       		.uleb128 .LEHE526-.LEHB526
 11139 0b90 C010     		.uleb128 .L732-.LCOLDB62
 11140 0b92 00       		.uleb128 0
 11141 0b93 A210     		.uleb128 .LEHB527-.LCOLDB62
 11142 0b95 05       		.uleb128 .LEHE527-.LEHB527
 11143 0b96 00       		.uleb128 0
 11144 0b97 00       		.uleb128 0
 11145 0b98 BB10     		.uleb128 .LEHB528-.LCOLDB62
 11146 0b9a 05       		.uleb128 .LEHE528-.LEHB528
 11147 0b9b 00       		.uleb128 0
 11148 0b9c 00       		.uleb128 0
 11149 0b9d CF10     		.uleb128 .LEHB529-.LCOLDB62
 11150 0b9f 05       		.uleb128 .LEHE529-.LEHB529
 11151 0ba0 00       		.uleb128 0
 11152 0ba1 00       		.uleb128 0
 11153 0ba2 D910     		.uleb128 .LEHB530-.LCOLDB62
 11154 0ba4 2F       		.uleb128 .LEHE530-.LEHB530
 11155 0ba5 D011     		.uleb128 .L730-.LCOLDB62
 11156 0ba7 00       		.uleb128 0
 11157 0ba8 8811     		.uleb128 .LEHB531-.LCOLDB62
 11158 0baa 05       		.uleb128 .LEHE531-.LEHB531
 11159 0bab 00       		.uleb128 0
 11160 0bac 00       		.uleb128 0
 11161 0bad 9711     		.uleb128 .LEHB532-.LCOLDB62
 11162 0baf 2F       		.uleb128 .LEHE532-.LEHB532
 11163 0bb0 E411     		.uleb128 .L728-.LCOLDB62
 11164 0bb2 00       		.uleb128 0
 11165 0bb3 C611     		.uleb128 .LEHB533-.LCOLDB62
 11166 0bb5 05       		.uleb128 .LEHE533-.LEHB533
 11167 0bb6 00       		.uleb128 0
 11168 0bb7 00       		.uleb128 0
 11169 0bb8 DF11     		.uleb128 .LEHB534-.LCOLDB62
 11170 0bba 05       		.uleb128 .LEHE534-.LEHB534
 11171 0bbb 00       		.uleb128 0
 11172 0bbc 00       		.uleb128 0
 11173 0bbd F311     		.uleb128 .LEHB535-.LCOLDB62
 11174 0bbf 05       		.uleb128 .LEHE535-.LEHB535
 11175 0bc0 00       		.uleb128 0
 11176 0bc1 00       		.uleb128 0
 11177 0bc2 FD11     		.uleb128 .LEHB536-.LCOLDB62
 11178 0bc4 2F       		.uleb128 .LEHE536-.LEHB536
 11179 0bc5 F412     		.uleb128 .L726-.LCOLDB62
 11180 0bc7 00       		.uleb128 0
 11181 0bc8 AC12     		.uleb128 .LEHB537-.LCOLDB62
 11182 0bca 05       		.uleb128 .LEHE537-.LEHB537
 11183 0bcb 00       		.uleb128 0
 11184 0bcc 00       		.uleb128 0
 11185 0bcd BB12     		.uleb128 .LEHB538-.LCOLDB62
 11186 0bcf 2F       		.uleb128 .LEHE538-.LEHB538
 11187 0bd0 8813     		.uleb128 .L724-.LCOLDB62
 11188 0bd2 00       		.uleb128 0
 11189 0bd3 EA12     		.uleb128 .LEHB539-.LCOLDB62
 11190 0bd5 05       		.uleb128 .LEHE539-.LEHB539
 11191 0bd6 00       		.uleb128 0
 11192 0bd7 00       		.uleb128 0
 11193 0bd8 8313     		.uleb128 .LEHB540-.LCOLDB62
 11194 0bda 05       		.uleb128 .LEHE540-.LEHB540
 11195 0bdb 00       		.uleb128 0
 11196 0bdc 00       		.uleb128 0
 11197 0bdd 9713     		.uleb128 .LEHB541-.LCOLDB62
 11198 0bdf 05       		.uleb128 .LEHE541-.LEHB541
 11199 0be0 00       		.uleb128 0
 11200 0be1 00       		.uleb128 0
 11201 0be2 A113     		.uleb128 .LEHB542-.LCOLDB62
 11202 0be4 2F       		.uleb128 .LEHE542-.LEHB542
 11203 0be5 9814     		.uleb128 .L722-.LCOLDB62
 11204 0be7 00       		.uleb128 0
 11205 0be8 D013     		.uleb128 .LEHB543-.LCOLDB62
 11206 0bea 05       		.uleb128 .LEHE543-.LEHB543
 11207 0beb 00       		.uleb128 0
 11208 0bec 00       		.uleb128 0
 11209 0bed DF13     		.uleb128 .LEHB544-.LCOLDB62
 11210 0bef 2F       		.uleb128 .LEHE544-.LEHB544
 11211 0bf0 AC14     		.uleb128 .L720-.LCOLDB62
 11212 0bf2 00       		.uleb128 0
 11213 0bf3 8E14     		.uleb128 .LEHB545-.LCOLDB62
 11214 0bf5 05       		.uleb128 .LEHE545-.LEHB545
 11215 0bf6 00       		.uleb128 0
 11216 0bf7 00       		.uleb128 0
 11217 0bf8 A714     		.uleb128 .LEHB546-.LCOLDB62
 11218 0bfa 05       		.uleb128 .LEHE546-.LEHB546
 11219 0bfb 00       		.uleb128 0
 11220 0bfc 00       		.uleb128 0
 11221 0bfd BB14     		.uleb128 .LEHB547-.LCOLDB62
 11222 0bff 05       		.uleb128 .LEHE547-.LEHB547
 11223 0c00 00       		.uleb128 0
 11224 0c01 00       		.uleb128 0
 11225 0c02 C514     		.uleb128 .LEHB548-.LCOLDB62
 11226 0c04 2F       		.uleb128 .LEHE548-.LEHB548
 11227 0c05 BC15     		.uleb128 .L718-.LCOLDB62
 11228 0c07 00       		.uleb128 0
 11229 0c08 F414     		.uleb128 .LEHB549-.LCOLDB62
 11230 0c0a 05       		.uleb128 .LEHE549-.LEHB549
 11231 0c0b 00       		.uleb128 0
 11232 0c0c 00       		.uleb128 0
 11233 0c0d 8315     		.uleb128 .LEHB550-.LCOLDB62
 11234 0c0f 2F       		.uleb128 .LEHE550-.LEHB550
 11235 0c10 D015     		.uleb128 .L716-.LCOLDB62
 11236 0c12 00       		.uleb128 0
 11237 0c13 B215     		.uleb128 .LEHB551-.LCOLDB62
 11238 0c15 05       		.uleb128 .LEHE551-.LEHB551
 11239 0c16 00       		.uleb128 0
 11240 0c17 00       		.uleb128 0
 11241 0c18 CB15     		.uleb128 .LEHB552-.LCOLDB62
 11242 0c1a 05       		.uleb128 .LEHE552-.LEHB552
 11243 0c1b 00       		.uleb128 0
 11244 0c1c 00       		.uleb128 0
 11245 0c1d DF15     		.uleb128 .LEHB553-.LCOLDB62
 11246 0c1f 05       		.uleb128 .LEHE553-.LEHB553
 11247 0c20 00       		.uleb128 0
 11248 0c21 00       		.uleb128 0
 11249 0c22 E915     		.uleb128 .LEHB554-.LCOLDB62
 11250 0c24 2F       		.uleb128 .LEHE554-.LEHB554
 11251 0c25 E016     		.uleb128 .L714-.LCOLDB62
 11252 0c27 00       		.uleb128 0
 11253 0c28 9816     		.uleb128 .LEHB555-.LCOLDB62
 11254 0c2a 05       		.uleb128 .LEHE555-.LEHB555
 11255 0c2b 00       		.uleb128 0
 11256 0c2c 00       		.uleb128 0
 11257 0c2d A716     		.uleb128 .LEHB556-.LCOLDB62
 11258 0c2f 2F       		.uleb128 .LEHE556-.LEHB556
 11259 0c30 F416     		.uleb128 .L712-.LCOLDB62
 11260 0c32 00       		.uleb128 0
 11261 0c33 D616     		.uleb128 .LEHB557-.LCOLDB62
 11262 0c35 05       		.uleb128 .LEHE557-.LEHB557
 11263 0c36 00       		.uleb128 0
 11264 0c37 00       		.uleb128 0
 11265 0c38 EF16     		.uleb128 .LEHB558-.LCOLDB62
 11266 0c3a 05       		.uleb128 .LEHE558-.LEHB558
 11267 0c3b 00       		.uleb128 0
 11268 0c3c 00       		.uleb128 0
 11269 0c3d 8317     		.uleb128 .LEHB559-.LCOLDB62
 11270 0c3f 05       		.uleb128 .LEHE559-.LEHB559
 11271 0c40 00       		.uleb128 0
 11272 0c41 00       		.uleb128 0
 11273 0c42 8D17     		.uleb128 .LEHB560-.LCOLDB62
 11274 0c44 2F       		.uleb128 .LEHE560-.LEHB560
 11275 0c45 8918     		.uleb128 .L710-.LCOLDB62
 11276 0c47 00       		.uleb128 0
 11277 0c48 BC17     		.uleb128 .LEHB561-.LCOLDB62
 11278 0c4a 05       		.uleb128 .LEHE561-.LEHB561
 11279 0c4b 00       		.uleb128 0
 11280 0c4c 00       		.uleb128 0
 11281 0c4d CB17     		.uleb128 .LEHB562-.LCOLDB62
 11282 0c4f 34       		.uleb128 .LEHE562-.LEHB562
 11283 0c50 9D18     		.uleb128 .L708-.LCOLDB62
 11284 0c52 00       		.uleb128 0
 11285 0c53 FF17     		.uleb128 .LEHB563-.LCOLDB62
 11286 0c55 05       		.uleb128 .LEHE563-.LEHB563
 11287 0c56 00       		.uleb128 0
 11288 0c57 00       		.uleb128 0
 11289 0c58 9818     		.uleb128 .LEHB564-.LCOLDB62
 11290 0c5a 05       		.uleb128 .LEHE564-.LEHB564
 11291 0c5b 00       		.uleb128 0
 11292 0c5c 00       		.uleb128 0
 11293 0c5d AC18     		.uleb128 .LEHB565-.LCOLDB62
 11294 0c5f 05       		.uleb128 .LEHE565-.LEHB565
 11295 0c60 00       		.uleb128 0
 11296 0c61 00       		.uleb128 0
 11297              	.LLSDACSEC1259:
 11298 0c62 01       		.byte	0x1
 11299 0c63 00       		.byte	0
 11300              		.align 4
 11301 0c64 00000000 		.long	0
 11302              	
 11303              	.LLSDATTC1259:
 11304              		.section	.text.unlikely
 11305              		.text
 11307              		.section	.text.unlikely
 11309              	.LCOLDE62:
 11310              		.text
 11311              	.LHOTE62:
 11312              		.align 2
 11313 2dcc 0F1F4000 		.p2align 4
 11314              		.globl	_ZNK21TestQueue_testRealloc7RunImplEv
 11316              	_ZNK21TestQueue_testRealloc7RunImplEv:
 11317              	.LFB1263:
 11318              		.cfi_startproc
 11319 2dd0 F30F1EFA 		endbr64
 11320 2dd4 4883EC08 		subq	$8, %rsp
 11321              		.cfi_def_cfa_offset 16
 11322 2dd8 31FF     		xorl	%edi, %edi
 11323 2dda E8000000 		call	_Z11testReallocm
 11323      00
 11324 2ddf BF010000 		movl	$1, %edi
 11324      00
 11325 2de4 E8000000 		call	_Z11testReallocm
 11325      00
 11326 2de9 BF020000 		movl	$2, %edi
 11326      00
 11327 2dee E8000000 		call	_Z11testReallocm
 11327      00
 11328 2df3 BF030000 		movl	$3, %edi
 11328      00
 11329 2df8 4883C408 		addq	$8, %rsp
 11330              		.cfi_def_cfa_offset 8
 11331 2dfc E94FF3FF 		jmp	_Z11testReallocm
 11331      FF
 11332              		.cfi_endproc
 11333              	.LFE1263:
 11335              		.section	.rodata.str1.1
 11336              	.LC63:
 11337 0014 74657374 		.string	"testCore.cpp"
 11337      436F7265 
 11337      2E637070 
 11337      00
 11338              	.LC64:
 11339 0021 44656661 		.string	"DefaultSuite"
 11339      756C7453 
 11339      75697465 
 11339      00
 11340              	.LC65:
 11341 002e 51756575 		.string	"Queue_testInit"
 11341      655F7465 
 11341      7374496E 
 11341      697400
 11342              	.LC66:
 11343 003d 51756575 		.string	"Queue_testPutNoWrap"
 11343      655F7465 
 11343      73745075 
 11343      744E6F57 
 11343      72617000 
 11344              	.LC67:
 11345 0051 51756575 		.string	"Queue_testPutWrap"
 11345      655F7465 
 11345      73745075 
 11345      74577261 
 11345      7000
 11346              	.LC68:
 11347 0063 51756575 		.string	"Queue_testPutTake"
 11347      655F7465 
 11347      73745075 
 11347      7454616B 
 11347      6500
 11348              	.LC69:
 11349 0075 51756575 		.string	"Queue_testRealloc"
 11349      655F7465 
 11349      73745265 
 11349      616C6C6F 
 11349      6300
 11350              	.LC70:
 11351 0087 51756575 		.string	"Queue_testAllocOOM"
 11351      655F7465 
 11351      7374416C 
 11351      6C6F634F 
 11351      4F4D00
 11352              	.LC71:
 11353 009a 51756575 		.string	"Queue_testReallocOOM"
 11353      655F7465 
 11353      73745265 
 11353      616C6C6F 
 11353      634F4F4D 
 11354              	.LC72:
 11355 00af 51756575 		.string	"Queue_testAllocFreeMatching"
 11355      655F7465 
 11355      7374416C 
 11355      6C6F6346 
 11355      7265654D 
 11356              		.section	.text.startup,"ax",@progbits
 11357              		.p2align 4
 11359              	_GLOBAL__sub_I_createInt:
 11360              	.LFB1398:
 11361              		.cfi_startproc
 11362 0000 F30F1EFA 		endbr64
 11363 0004 4157     		pushq	%r15
 11364              		.cfi_def_cfa_offset 16
 11365              		.cfi_offset 15, -16
 11366 0006 4C8D3D00 		leaq	testQueue_testInitInstance(%rip), %r15
 11366      000000
 11367 000d 4156     		pushq	%r14
 11368              		.cfi_def_cfa_offset 24
 11369              		.cfi_offset 14, -24
 11370 000f 4C8D3500 		leaq	.LC63(%rip), %r14
 11370      000000
 11371 0016 4155     		pushq	%r13
 11372              		.cfi_def_cfa_offset 32
 11373              		.cfi_offset 13, -32
 11374 0018 4C8D2D00 		leaq	_ZStL8__ioinit(%rip), %r13
 11374      000000
 11375 001f 4154     		pushq	%r12
 11376              		.cfi_def_cfa_offset 40
 11377              		.cfi_offset 12, -40
 11378 0021 4C89EF   		movq	%r13, %rdi
 11379 0024 4C8D2500 		leaq	__dso_handle(%rip), %r12
 11379      000000
 11380 002b 4883EC08 		subq	$8, %rsp
 11381              		.cfi_def_cfa_offset 48
 11382 002f E8000000 		call	_ZNSt8ios_base4InitC1Ev@PLT
 11382      00
 11383 0034 488B3D00 		movq	_ZNSt8ios_base4InitD1Ev@GOTPCREL(%rip), %rdi
 11383      000000
 11384 003b 4C89E2   		movq	%r12, %rdx
 11385 003e 4C89EE   		movq	%r13, %rsi
 11386 0041 4C8D2D00 		leaq	.LC64(%rip), %r13
 11386      000000
 11387 0048 E8000000 		call	__cxa_atexit@PLT
 11387      00
 11388 004d 4C89F1   		movq	%r14, %rcx
 11389 0050 4C89EA   		movq	%r13, %rdx
 11390 0053 4C89FF   		movq	%r15, %rdi
 11391 0056 41B83500 		movl	$53, %r8d
 11391      0000
 11392 005c 488D3500 		leaq	.LC65(%rip), %rsi
 11392      000000
 11393 0063 E8000000 		call	_ZN8UnitTest4TestC2EPKcS2_S2_i@PLT
 11393      00
 11394 0068 4C89E2   		movq	%r12, %rdx
 11395 006b 4C89FE   		movq	%r15, %rsi
 11396 006e 488D3D00 		leaq	_ZN18TestQueue_testInitD1Ev(%rip), %rdi
 11396      000000
 11397 0075 488D0500 		leaq	16+_ZTV18TestQueue_testInit(%rip), %rax
 11397      000000
 11398 007c 48890500 		movq	%rax, testQueue_testInitInstance(%rip)
 11398      000000
 11399 0083 E8000000 		call	__cxa_atexit@PLT
 11399      00
 11400 0088 E8000000 		call	_ZN8UnitTest4Test11GetTestListEv@PLT
 11400      00
 11401 008d 4C89FA   		movq	%r15, %rdx
 11402 0090 488D3D00 		leaq	adderQueue_testInit(%rip), %rdi
 11402      000000
 11403 0097 4C8D3D00 		leaq	testQueue_testPutNoWrapInstance(%rip), %r15
 11403      000000
 11404 009e 4889C6   		movq	%rax, %rsi
 11405 00a1 E8000000 		call	_ZN8UnitTest9ListAdderC1ERNS_8TestListEPNS_4TestE@PLT
 11405      00
 11406 00a6 4C89F1   		movq	%r14, %rcx
 11407 00a9 4C89EA   		movq	%r13, %rdx
 11408 00ac 4C89FF   		movq	%r15, %rdi
 11409 00af 41B84D00 		movl	$77, %r8d
 11409      0000
 11410 00b5 488D3500 		leaq	.LC66(%rip), %rsi
 11410      000000
 11411 00bc E8000000 		call	_ZN8UnitTest4TestC2EPKcS2_S2_i@PLT
 11411      00
 11412 00c1 4C89E2   		movq	%r12, %rdx
 11413 00c4 4C89FE   		movq	%r15, %rsi
 11414 00c7 488D3D00 		leaq	_ZN23TestQueue_testPutNoWrapD1Ev(%rip), %rdi
 11414      000000
 11415 00ce 488D0500 		leaq	16+_ZTV23TestQueue_testPutNoWrap(%rip), %rax
 11415      000000
 11416 00d5 48890500 		movq	%rax, testQueue_testPutNoWrapInstance(%rip)
 11416      000000
 11417 00dc E8000000 		call	__cxa_atexit@PLT
 11417      00
 11418 00e1 E8000000 		call	_ZN8UnitTest4Test11GetTestListEv@PLT
 11418      00
 11419 00e6 4C89FA   		movq	%r15, %rdx
 11420 00e9 488D3D00 		leaq	adderQueue_testPutNoWrap(%rip), %rdi
 11420      000000
 11421 00f0 4C8D3D00 		leaq	testQueue_testPutWrapInstance(%rip), %r15
 11421      000000
 11422 00f7 4889C6   		movq	%rax, %rsi
 11423 00fa E8000000 		call	_ZN8UnitTest9ListAdderC1ERNS_8TestListEPNS_4TestE@PLT
 11423      00
 11424 00ff 4C89F1   		movq	%r14, %rcx
 11425 0102 4C89EA   		movq	%r13, %rdx
 11426 0105 4C89FF   		movq	%r15, %rdi
 11427 0108 41B87700 		movl	$119, %r8d
 11427      0000
 11428 010e 488D3500 		leaq	.LC67(%rip), %rsi
 11428      000000
 11429 0115 E8000000 		call	_ZN8UnitTest4TestC2EPKcS2_S2_i@PLT
 11429      00
 11430 011a 4C89E2   		movq	%r12, %rdx
 11431 011d 4C89FE   		movq	%r15, %rsi
 11432 0120 488D3D00 		leaq	_ZN21TestQueue_testPutWrapD1Ev(%rip), %rdi
 11432      000000
 11433 0127 488D0500 		leaq	16+_ZTV21TestQueue_testPutWrap(%rip), %rax
 11433      000000
 11434 012e 48890500 		movq	%rax, testQueue_testPutWrapInstance(%rip)
 11434      000000
 11435 0135 E8000000 		call	__cxa_atexit@PLT
 11435      00
 11436 013a E8000000 		call	_ZN8UnitTest4Test11GetTestListEv@PLT
 11436      00
 11437 013f 4C89FA   		movq	%r15, %rdx
 11438 0142 488D3D00 		leaq	adderQueue_testPutWrap(%rip), %rdi
 11438      000000
 11439 0149 4C8D3D00 		leaq	testQueue_testPutTakeInstance(%rip), %r15
 11439      000000
 11440 0150 4889C6   		movq	%rax, %rsi
 11441 0153 E8000000 		call	_ZN8UnitTest9ListAdderC1ERNS_8TestListEPNS_4TestE@PLT
 11441      00
 11442 0158 4C89F1   		movq	%r14, %rcx
 11443 015b 4C89EA   		movq	%r13, %rdx
 11444 015e 4C89FF   		movq	%r15, %rdi
 11445 0161 41B8A600 		movl	$166, %r8d
 11445      0000
 11446 0167 488D3500 		leaq	.LC68(%rip), %rsi
 11446      000000
 11447 016e E8000000 		call	_ZN8UnitTest4TestC2EPKcS2_S2_i@PLT
 11447      00
 11448 0173 4C89E2   		movq	%r12, %rdx
 11449 0176 4C89FE   		movq	%r15, %rsi
 11450 0179 488D3D00 		leaq	_ZN21TestQueue_testPutTakeD1Ev(%rip), %rdi
 11450      000000
 11451 0180 488D0500 		leaq	16+_ZTV21TestQueue_testPutTake(%rip), %rax
 11451      000000
 11452 0187 48890500 		movq	%rax, testQueue_testPutTakeInstance(%rip)
 11452      000000
 11453 018e E8000000 		call	__cxa_atexit@PLT
 11453      00
 11454 0193 E8000000 		call	_ZN8UnitTest4Test11GetTestListEv@PLT
 11454      00
 11455 0198 4C89FA   		movq	%r15, %rdx
 11456 019b 488D3D00 		leaq	adderQueue_testPutTake(%rip), %rdi
 11456      000000
 11457 01a2 4C8D3D00 		leaq	testQueue_testReallocInstance(%rip), %r15
 11457      000000
 11458 01a9 4889C6   		movq	%rax, %rsi
 11459 01ac E8000000 		call	_ZN8UnitTest9ListAdderC1ERNS_8TestListEPNS_4TestE@PLT
 11459      00
 11460 01b1 4C89F1   		movq	%r14, %rcx
 11461 01b4 4C89EA   		movq	%r13, %rdx
 11462 01b7 4C89FF   		movq	%r15, %rdi
 11463 01ba 41B84401 		movl	$324, %r8d
 11463      0000
 11464 01c0 488D3500 		leaq	.LC69(%rip), %rsi
 11464      000000
 11465 01c7 E8000000 		call	_ZN8UnitTest4TestC2EPKcS2_S2_i@PLT
 11465      00
 11466 01cc 4C89E2   		movq	%r12, %rdx
 11467 01cf 4C89FE   		movq	%r15, %rsi
 11468 01d2 488D3D00 		leaq	_ZN21TestQueue_testReallocD1Ev(%rip), %rdi
 11468      000000
 11469 01d9 488D0500 		leaq	16+_ZTV21TestQueue_testRealloc(%rip), %rax
 11469      000000
 11470 01e0 48890500 		movq	%rax, testQueue_testReallocInstance(%rip)
 11470      000000
 11471 01e7 E8000000 		call	__cxa_atexit@PLT
 11471      00
 11472 01ec E8000000 		call	_ZN8UnitTest4Test11GetTestListEv@PLT
 11472      00
 11473 01f1 4C89FA   		movq	%r15, %rdx
 11474 01f4 488D3D00 		leaq	adderQueue_testRealloc(%rip), %rdi
 11474      000000
 11475 01fb 4C8D3D00 		leaq	testQueue_testAllocOOMInstance(%rip), %r15
 11475      000000
 11476 0202 4889C6   		movq	%rax, %rsi
 11477 0205 E8000000 		call	_ZN8UnitTest9ListAdderC1ERNS_8TestListEPNS_4TestE@PLT
 11477      00
 11478 020a 4C89F1   		movq	%r14, %rcx
 11479 020d 4C89EA   		movq	%r13, %rdx
 11480 0210 4C89FF   		movq	%r15, %rdi
 11481 0213 41B84B01 		movl	$331, %r8d
 11481      0000
 11482 0219 488D3500 		leaq	.LC70(%rip), %rsi
 11482      000000
 11483 0220 E8000000 		call	_ZN8UnitTest4TestC2EPKcS2_S2_i@PLT
 11483      00
 11484 0225 4C89E2   		movq	%r12, %rdx
 11485 0228 4C89FE   		movq	%r15, %rsi
 11486 022b 488D3D00 		leaq	_ZN22TestQueue_testAllocOOMD1Ev(%rip), %rdi
 11486      000000
 11487 0232 488D0500 		leaq	16+_ZTV22TestQueue_testAllocOOM(%rip), %rax
 11487      000000
 11488 0239 48890500 		movq	%rax, testQueue_testAllocOOMInstance(%rip)
 11488      000000
 11489 0240 E8000000 		call	__cxa_atexit@PLT
 11489      00
 11490 0245 E8000000 		call	_ZN8UnitTest4Test11GetTestListEv@PLT
 11490      00
 11491 024a 4C89FA   		movq	%r15, %rdx
 11492 024d 488D3D00 		leaq	adderQueue_testAllocOOM(%rip), %rdi
 11492      000000
 11493 0254 4C8D3D00 		leaq	testQueue_testReallocOOMInstance(%rip), %r15
 11493      000000
 11494 025b 4889C6   		movq	%rax, %rsi
 11495 025e E8000000 		call	_ZN8UnitTest9ListAdderC1ERNS_8TestListEPNS_4TestE@PLT
 11495      00
 11496 0263 4C89F1   		movq	%r14, %rcx
 11497 0266 4C89EA   		movq	%r13, %rdx
 11498 0269 4C89FF   		movq	%r15, %rdi
 11499 026c 41B85601 		movl	$342, %r8d
 11499      0000
 11500 0272 488D3500 		leaq	.LC71(%rip), %rsi
 11500      000000
 11501 0279 E8000000 		call	_ZN8UnitTest4TestC2EPKcS2_S2_i@PLT
 11501      00
 11502 027e 4C89E2   		movq	%r12, %rdx
 11503 0281 4C89FE   		movq	%r15, %rsi
 11504 0284 488D3D00 		leaq	_ZN24TestQueue_testReallocOOMD1Ev(%rip), %rdi
 11504      000000
 11505 028b 488D0500 		leaq	16+_ZTV24TestQueue_testReallocOOM(%rip), %rax
 11505      000000
 11506 0292 48890500 		movq	%rax, testQueue_testReallocOOMInstance(%rip)
 11506      000000
 11507 0299 E8000000 		call	__cxa_atexit@PLT
 11507      00
 11508 029e E8000000 		call	_ZN8UnitTest4Test11GetTestListEv@PLT
 11508      00
 11509 02a3 4C89FA   		movq	%r15, %rdx
 11510 02a6 488D3D00 		leaq	adderQueue_testReallocOOM(%rip), %rdi
 11510      000000
 11511 02ad 4889C6   		movq	%rax, %rsi
 11512 02b0 E8000000 		call	_ZN8UnitTest9ListAdderC1ERNS_8TestListEPNS_4TestE@PLT
 11512      00
 11513 02b5 4C89EA   		movq	%r13, %rdx
 11514 02b8 4C89F1   		movq	%r14, %rcx
 11515 02bb 4C8D2D00 		leaq	testQueue_testAllocFreeMatchingInstance(%rip), %r13
 11515      000000
 11516 02c2 41B88001 		movl	$384, %r8d
 11516      0000
 11517 02c8 4C89EF   		movq	%r13, %rdi
 11518 02cb 488D3500 		leaq	.LC72(%rip), %rsi
 11518      000000
 11519 02d2 E8000000 		call	_ZN8UnitTest4TestC2EPKcS2_S2_i@PLT
 11519      00
 11520 02d7 4C89E2   		movq	%r12, %rdx
 11521 02da 4C89EE   		movq	%r13, %rsi
 11522 02dd 488D3D00 		leaq	_ZN31TestQueue_testAllocFreeMatchingD1Ev(%rip), %rdi
 11522      000000
 11523 02e4 488D0500 		leaq	16+_ZTV31TestQueue_testAllocFreeMatching(%rip), %rax
 11523      000000
 11524 02eb 48890500 		movq	%rax, testQueue_testAllocFreeMatchingInstance(%rip)
 11524      000000
 11525 02f2 E8000000 		call	__cxa_atexit@PLT
 11525      00
 11526 02f7 E8000000 		call	_ZN8UnitTest4Test11GetTestListEv@PLT
 11526      00
 11527 02fc 4883C408 		addq	$8, %rsp
 11528              		.cfi_def_cfa_offset 40
 11529 0300 4C89EA   		movq	%r13, %rdx
 11530 0303 488D3D00 		leaq	adderQueue_testAllocFreeMatching(%rip), %rdi
 11530      000000
 11531 030a 415C     		popq	%r12
 11532              		.cfi_def_cfa_offset 32
 11533 030c 4889C6   		movq	%rax, %rsi
 11534 030f 415D     		popq	%r13
 11535              		.cfi_def_cfa_offset 24
 11536 0311 415E     		popq	%r14
 11537              		.cfi_def_cfa_offset 16
 11538 0313 415F     		popq	%r15
 11539              		.cfi_def_cfa_offset 8
 11540 0315 E9000000 		jmp	_ZN8UnitTest9ListAdderC1ERNS_8TestListEPNS_4TestE@PLT
 11540      00
 11541              		.cfi_endproc
 11542              	.LFE1398:
 11544              		.section	.init_array,"aw"
 11545              		.align 8
 11546 0000 00000000 		.quad	_GLOBAL__sub_I_createInt
 11546      00000000 
 11547              		.weak	_ZTSN8UnitTest15MemoryOutStreamE
 11548              		.section	.rodata._ZTSN8UnitTest15MemoryOutStreamE,"aG",@progbits,_ZTSN8UnitTest15MemoryOutStreamE,
 11549              		.align 16
 11552              	_ZTSN8UnitTest15MemoryOutStreamE:
 11553 0000 4E38556E 		.string	"N8UnitTest15MemoryOutStreamE"
 11553      69745465 
 11553      73743135 
 11553      4D656D6F 
 11553      72794F75 
 11554              		.weak	_ZTIN8UnitTest15MemoryOutStreamE
 11555              		.section	.data.rel.ro._ZTIN8UnitTest15MemoryOutStreamE,"awG",@progbits,_ZTIN8UnitTest15MemoryOutSt
 11556              		.align 8
 11559              	_ZTIN8UnitTest15MemoryOutStreamE:
 11560 0000 00000000 		.quad	_ZTVN10__cxxabiv120__si_class_type_infoE+16
 11560      00000000 
 11561 0008 00000000 		.quad	_ZTSN8UnitTest15MemoryOutStreamE
 11561      00000000 
 11562 0010 00000000 		.quad	_ZTINSt7__cxx1119basic_ostringstreamIcSt11char_traitsIcESaIcEEE
 11562      00000000 
 11563              		.weak	_ZTS18TestQueue_testInit
 11564              		.section	.rodata._ZTS18TestQueue_testInit,"aG",@progbits,_ZTS18TestQueue_testInit,comdat
 11565              		.align 16
 11568              	_ZTS18TestQueue_testInit:
 11569 0000 31385465 		.string	"18TestQueue_testInit"
 11569      73745175 
 11569      6575655F 
 11569      74657374 
 11569      496E6974 
 11570              		.weak	_ZTI18TestQueue_testInit
 11571              		.section	.data.rel.ro._ZTI18TestQueue_testInit,"awG",@progbits,_ZTI18TestQueue_testInit,comdat
 11572              		.align 8
 11575              	_ZTI18TestQueue_testInit:
 11576 0000 00000000 		.quad	_ZTVN10__cxxabiv120__si_class_type_infoE+16
 11576      00000000 
 11577 0008 00000000 		.quad	_ZTS18TestQueue_testInit
 11577      00000000 
 11578 0010 00000000 		.quad	_ZTIN8UnitTest4TestE
 11578      00000000 
 11579              		.weak	_ZTS23TestQueue_testPutNoWrap
 11580              		.section	.rodata._ZTS23TestQueue_testPutNoWrap,"aG",@progbits,_ZTS23TestQueue_testPutNoWrap,comdat
 11581              		.align 16
 11584              	_ZTS23TestQueue_testPutNoWrap:
 11585 0000 32335465 		.string	"23TestQueue_testPutNoWrap"
 11585      73745175 
 11585      6575655F 
 11585      74657374 
 11585      5075744E 
 11586              		.weak	_ZTI23TestQueue_testPutNoWrap
 11587              		.section	.data.rel.ro._ZTI23TestQueue_testPutNoWrap,"awG",@progbits,_ZTI23TestQueue_testPutNoWrap,
 11588              		.align 8
 11591              	_ZTI23TestQueue_testPutNoWrap:
 11592 0000 00000000 		.quad	_ZTVN10__cxxabiv120__si_class_type_infoE+16
 11592      00000000 
 11593 0008 00000000 		.quad	_ZTS23TestQueue_testPutNoWrap
 11593      00000000 
 11594 0010 00000000 		.quad	_ZTIN8UnitTest4TestE
 11594      00000000 
 11595              		.weak	_ZTS21TestQueue_testPutWrap
 11596              		.section	.rodata._ZTS21TestQueue_testPutWrap,"aG",@progbits,_ZTS21TestQueue_testPutWrap,comdat
 11597              		.align 16
 11600              	_ZTS21TestQueue_testPutWrap:
 11601 0000 32315465 		.string	"21TestQueue_testPutWrap"
 11601      73745175 
 11601      6575655F 
 11601      74657374 
 11601      50757457 
 11602              		.weak	_ZTI21TestQueue_testPutWrap
 11603              		.section	.data.rel.ro._ZTI21TestQueue_testPutWrap,"awG",@progbits,_ZTI21TestQueue_testPutWrap,comd
 11604              		.align 8
 11607              	_ZTI21TestQueue_testPutWrap:
 11608 0000 00000000 		.quad	_ZTVN10__cxxabiv120__si_class_type_infoE+16
 11608      00000000 
 11609 0008 00000000 		.quad	_ZTS21TestQueue_testPutWrap
 11609      00000000 
 11610 0010 00000000 		.quad	_ZTIN8UnitTest4TestE
 11610      00000000 
 11611              		.weak	_ZTS21TestQueue_testPutTake
 11612              		.section	.rodata._ZTS21TestQueue_testPutTake,"aG",@progbits,_ZTS21TestQueue_testPutTake,comdat
 11613              		.align 16
 11616              	_ZTS21TestQueue_testPutTake:
 11617 0000 32315465 		.string	"21TestQueue_testPutTake"
 11617      73745175 
 11617      6575655F 
 11617      74657374 
 11617      50757454 
 11618              		.weak	_ZTI21TestQueue_testPutTake
 11619              		.section	.data.rel.ro._ZTI21TestQueue_testPutTake,"awG",@progbits,_ZTI21TestQueue_testPutTake,comd
 11620              		.align 8
 11623              	_ZTI21TestQueue_testPutTake:
 11624 0000 00000000 		.quad	_ZTVN10__cxxabiv120__si_class_type_infoE+16
 11624      00000000 
 11625 0008 00000000 		.quad	_ZTS21TestQueue_testPutTake
 11625      00000000 
 11626 0010 00000000 		.quad	_ZTIN8UnitTest4TestE
 11626      00000000 
 11627              		.weak	_ZTS21TestQueue_testRealloc
 11628              		.section	.rodata._ZTS21TestQueue_testRealloc,"aG",@progbits,_ZTS21TestQueue_testRealloc,comdat
 11629              		.align 16
 11632              	_ZTS21TestQueue_testRealloc:
 11633 0000 32315465 		.string	"21TestQueue_testRealloc"
 11633      73745175 
 11633      6575655F 
 11633      74657374 
 11633      5265616C 
 11634              		.weak	_ZTI21TestQueue_testRealloc
 11635              		.section	.data.rel.ro._ZTI21TestQueue_testRealloc,"awG",@progbits,_ZTI21TestQueue_testRealloc,comd
 11636              		.align 8
 11639              	_ZTI21TestQueue_testRealloc:
 11640 0000 00000000 		.quad	_ZTVN10__cxxabiv120__si_class_type_infoE+16
 11640      00000000 
 11641 0008 00000000 		.quad	_ZTS21TestQueue_testRealloc
 11641      00000000 
 11642 0010 00000000 		.quad	_ZTIN8UnitTest4TestE
 11642      00000000 
 11643              		.weak	_ZTS22TestQueue_testAllocOOM
 11644              		.section	.rodata._ZTS22TestQueue_testAllocOOM,"aG",@progbits,_ZTS22TestQueue_testAllocOOM,comdat
 11645              		.align 16
 11648              	_ZTS22TestQueue_testAllocOOM:
 11649 0000 32325465 		.string	"22TestQueue_testAllocOOM"
 11649      73745175 
 11649      6575655F 
 11649      74657374 
 11649      416C6C6F 
 11650              		.weak	_ZTI22TestQueue_testAllocOOM
 11651              		.section	.data.rel.ro._ZTI22TestQueue_testAllocOOM,"awG",@progbits,_ZTI22TestQueue_testAllocOOM,co
 11652              		.align 8
 11655              	_ZTI22TestQueue_testAllocOOM:
 11656 0000 00000000 		.quad	_ZTVN10__cxxabiv120__si_class_type_infoE+16
 11656      00000000 
 11657 0008 00000000 		.quad	_ZTS22TestQueue_testAllocOOM
 11657      00000000 
 11658 0010 00000000 		.quad	_ZTIN8UnitTest4TestE
 11658      00000000 
 11659              		.weak	_ZTS24TestQueue_testReallocOOM
 11660              		.section	.rodata._ZTS24TestQueue_testReallocOOM,"aG",@progbits,_ZTS24TestQueue_testReallocOOM,comd
 11661              		.align 16
 11664              	_ZTS24TestQueue_testReallocOOM:
 11665 0000 32345465 		.string	"24TestQueue_testReallocOOM"
 11665      73745175 
 11665      6575655F 
 11665      74657374 
 11665      5265616C 
 11666              		.weak	_ZTI24TestQueue_testReallocOOM
 11667              		.section	.data.rel.ro._ZTI24TestQueue_testReallocOOM,"awG",@progbits,_ZTI24TestQueue_testReallocOO
 11668              		.align 8
 11671              	_ZTI24TestQueue_testReallocOOM:
 11672 0000 00000000 		.quad	_ZTVN10__cxxabiv120__si_class_type_infoE+16
 11672      00000000 
 11673 0008 00000000 		.quad	_ZTS24TestQueue_testReallocOOM
 11673      00000000 
 11674 0010 00000000 		.quad	_ZTIN8UnitTest4TestE
 11674      00000000 
 11675              		.weak	_ZTS31TestQueue_testAllocFreeMatching
 11676              		.section	.rodata._ZTS31TestQueue_testAllocFreeMatching,"aG",@progbits,_ZTS31TestQueue_testAllocFre
 11677              		.align 32
 11680              	_ZTS31TestQueue_testAllocFreeMatching:
 11681 0000 33315465 		.string	"31TestQueue_testAllocFreeMatching"
 11681      73745175 
 11681      6575655F 
 11681      74657374 
 11681      416C6C6F 
 11682              		.weak	_ZTI31TestQueue_testAllocFreeMatching
 11683              		.section	.data.rel.ro._ZTI31TestQueue_testAllocFreeMatching,"awG",@progbits,_ZTI31TestQueue_testAl
 11684              		.align 8
 11687              	_ZTI31TestQueue_testAllocFreeMatching:
 11688 0000 00000000 		.quad	_ZTVN10__cxxabiv120__si_class_type_infoE+16
 11688      00000000 
 11689 0008 00000000 		.quad	_ZTS31TestQueue_testAllocFreeMatching
 11689      00000000 
 11690 0010 00000000 		.quad	_ZTIN8UnitTest4TestE
 11690      00000000 
 11691              		.hidden	_ZTCN8UnitTest15MemoryOutStreamE0_So
 11692              		.weak	_ZTCN8UnitTest15MemoryOutStreamE0_So
 11693              		.section	.data.rel.ro._ZTCN8UnitTest15MemoryOutStreamE0_So,"awG",@progbits,_ZTVN8UnitTest15MemoryO
 11694              		.align 8
 11697              	_ZTCN8UnitTest15MemoryOutStreamE0_So:
 11698 0000 90000000 		.quad	144
 11698      00000000 
 11699 0008 00000000 		.quad	0
 11699      00000000 
 11700 0010 00000000 		.quad	_ZTISo
 11700      00000000 
 11701 0018 00000000 		.quad	0
 11701      00000000 
 11702 0020 00000000 		.quad	0
 11702      00000000 
 11703 0028 70FFFFFF 		.quad	-144
 11703      FFFFFFFF 
 11704 0030 70FFFFFF 		.quad	-144
 11704      FFFFFFFF 
 11705 0038 00000000 		.quad	_ZTISo
 11705      00000000 
 11706 0040 00000000 		.quad	0
 11706      00000000 
 11707 0048 00000000 		.quad	0
 11707      00000000 
 11708              		.hidden	_ZTCN8UnitTest15MemoryOutStreamE0_NSt7__cxx1119basic_ostringstreamIcSt11char_traitsIcESaIc
 11709              		.weak	_ZTCN8UnitTest15MemoryOutStreamE0_NSt7__cxx1119basic_ostringstreamIcSt11char_traitsIcESaIcEE
 11710              		.section	.data.rel.ro._ZTCN8UnitTest15MemoryOutStreamE0_NSt7__cxx1119basic_ostringstreamIcSt11char
 11711              		.align 8
 11714              	_ZTCN8UnitTest15MemoryOutStreamE0_NSt7__cxx1119basic_ostringstreamIcSt11char_traitsIcESaIcEEE:
 11715 0000 90000000 		.quad	144
 11715      00000000 
 11716 0008 00000000 		.quad	0
 11716      00000000 
 11717 0010 00000000 		.quad	_ZTINSt7__cxx1119basic_ostringstreamIcSt11char_traitsIcESaIcEEE
 11717      00000000 
 11718 0018 00000000 		.quad	0
 11718      00000000 
 11719 0020 00000000 		.quad	0
 11719      00000000 
 11720 0028 70FFFFFF 		.quad	-144
 11720      FFFFFFFF 
 11721 0030 70FFFFFF 		.quad	-144
 11721      FFFFFFFF 
 11722 0038 00000000 		.quad	_ZTINSt7__cxx1119basic_ostringstreamIcSt11char_traitsIcESaIcEEE
 11722      00000000 
 11723 0040 00000000 		.quad	0
 11723      00000000 
 11724 0048 00000000 		.quad	0
 11724      00000000 
 11725              		.weak	_ZTTN8UnitTest15MemoryOutStreamE
 11726              		.section	.data.rel.ro.local._ZTTN8UnitTest15MemoryOutStreamE,"awG",@progbits,_ZTVN8UnitTest15Memor
 11727              		.align 8
 11730              	_ZTTN8UnitTest15MemoryOutStreamE:
 11731 0000 00000000 		.quad	_ZTVN8UnitTest15MemoryOutStreamE+24
 11731      00000000 
 11732 0008 00000000 		.quad	_ZTCN8UnitTest15MemoryOutStreamE0_NSt7__cxx1119basic_ostringstreamIcSt11char_traitsIcESaIcEE
 11732      00000000 
 11733 0010 00000000 		.quad	_ZTCN8UnitTest15MemoryOutStreamE0_So+24
 11733      00000000 
 11734 0018 00000000 		.quad	_ZTCN8UnitTest15MemoryOutStreamE0_So+64
 11734      00000000 
 11735 0020 00000000 		.quad	_ZTCN8UnitTest15MemoryOutStreamE0_NSt7__cxx1119basic_ostringstreamIcSt11char_traitsIcESaIcEE
 11735      00000000 
 11736 0028 00000000 		.quad	_ZTVN8UnitTest15MemoryOutStreamE+64
 11736      00000000 
 11737              		.weak	_ZTVN8UnitTest15MemoryOutStreamE
 11738              		.section	.data.rel.ro.local._ZTVN8UnitTest15MemoryOutStreamE,"awG",@progbits,_ZTVN8UnitTest15Memor
 11739              		.align 8
 11742              	_ZTVN8UnitTest15MemoryOutStreamE:
 11743 0000 90000000 		.quad	144
 11743      00000000 
 11744 0008 00000000 		.quad	0
 11744      00000000 
 11745 0010 00000000 		.quad	_ZTIN8UnitTest15MemoryOutStreamE
 11745      00000000 
 11746 0018 00000000 		.quad	_ZN8UnitTest15MemoryOutStreamD1Ev
 11746      00000000 
 11747 0020 00000000 		.quad	_ZN8UnitTest15MemoryOutStreamD0Ev
 11747      00000000 
 11748 0028 70FFFFFF 		.quad	-144
 11748      FFFFFFFF 
 11749 0030 70FFFFFF 		.quad	-144
 11749      FFFFFFFF 
 11750 0038 00000000 		.quad	_ZTIN8UnitTest15MemoryOutStreamE
 11750      00000000 
 11751 0040 00000000 		.quad	_ZTv0_n24_N8UnitTest15MemoryOutStreamD1Ev
 11751      00000000 
 11752 0048 00000000 		.quad	_ZTv0_n24_N8UnitTest15MemoryOutStreamD0Ev
 11752      00000000 
 11753              		.weak	_ZTV18TestQueue_testInit
 11754              		.section	.data.rel.ro.local._ZTV18TestQueue_testInit,"awG",@progbits,_ZTV18TestQueue_testInit,comd
 11755              		.align 8
 11758              	_ZTV18TestQueue_testInit:
 11759 0000 00000000 		.quad	0
 11759      00000000 
 11760 0008 00000000 		.quad	_ZTI18TestQueue_testInit
 11760      00000000 
 11761 0010 00000000 		.quad	_ZN18TestQueue_testInitD1Ev
 11761      00000000 
 11762 0018 00000000 		.quad	_ZN18TestQueue_testInitD0Ev
 11762      00000000 
 11763 0020 00000000 		.quad	_ZNK18TestQueue_testInit7RunImplEv
 11763      00000000 
 11764              		.weak	_ZTV23TestQueue_testPutNoWrap
 11765              		.section	.data.rel.ro.local._ZTV23TestQueue_testPutNoWrap,"awG",@progbits,_ZTV23TestQueue_testPutN
 11766              		.align 8
 11769              	_ZTV23TestQueue_testPutNoWrap:
 11770 0000 00000000 		.quad	0
 11770      00000000 
 11771 0008 00000000 		.quad	_ZTI23TestQueue_testPutNoWrap
 11771      00000000 
 11772 0010 00000000 		.quad	_ZN23TestQueue_testPutNoWrapD1Ev
 11772      00000000 
 11773 0018 00000000 		.quad	_ZN23TestQueue_testPutNoWrapD0Ev
 11773      00000000 
 11774 0020 00000000 		.quad	_ZNK23TestQueue_testPutNoWrap7RunImplEv
 11774      00000000 
 11775              		.weak	_ZTV21TestQueue_testPutWrap
 11776              		.section	.data.rel.ro.local._ZTV21TestQueue_testPutWrap,"awG",@progbits,_ZTV21TestQueue_testPutWra
 11777              		.align 8
 11780              	_ZTV21TestQueue_testPutWrap:
 11781 0000 00000000 		.quad	0
 11781      00000000 
 11782 0008 00000000 		.quad	_ZTI21TestQueue_testPutWrap
 11782      00000000 
 11783 0010 00000000 		.quad	_ZN21TestQueue_testPutWrapD1Ev
 11783      00000000 
 11784 0018 00000000 		.quad	_ZN21TestQueue_testPutWrapD0Ev
 11784      00000000 
 11785 0020 00000000 		.quad	_ZNK21TestQueue_testPutWrap7RunImplEv
 11785      00000000 
 11786              		.weak	_ZTV21TestQueue_testPutTake
 11787              		.section	.data.rel.ro.local._ZTV21TestQueue_testPutTake,"awG",@progbits,_ZTV21TestQueue_testPutTak
 11788              		.align 8
 11791              	_ZTV21TestQueue_testPutTake:
 11792 0000 00000000 		.quad	0
 11792      00000000 
 11793 0008 00000000 		.quad	_ZTI21TestQueue_testPutTake
 11793      00000000 
 11794 0010 00000000 		.quad	_ZN21TestQueue_testPutTakeD1Ev
 11794      00000000 
 11795 0018 00000000 		.quad	_ZN21TestQueue_testPutTakeD0Ev
 11795      00000000 
 11796 0020 00000000 		.quad	_ZNK21TestQueue_testPutTake7RunImplEv
 11796      00000000 
 11797              		.weak	_ZTV21TestQueue_testRealloc
 11798              		.section	.data.rel.ro.local._ZTV21TestQueue_testRealloc,"awG",@progbits,_ZTV21TestQueue_testReallo
 11799              		.align 8
 11802              	_ZTV21TestQueue_testRealloc:
 11803 0000 00000000 		.quad	0
 11803      00000000 
 11804 0008 00000000 		.quad	_ZTI21TestQueue_testRealloc
 11804      00000000 
 11805 0010 00000000 		.quad	_ZN21TestQueue_testReallocD1Ev
 11805      00000000 
 11806 0018 00000000 		.quad	_ZN21TestQueue_testReallocD0Ev
 11806      00000000 
 11807 0020 00000000 		.quad	_ZNK21TestQueue_testRealloc7RunImplEv
 11807      00000000 
 11808              		.weak	_ZTV22TestQueue_testAllocOOM
 11809              		.section	.data.rel.ro.local._ZTV22TestQueue_testAllocOOM,"awG",@progbits,_ZTV22TestQueue_testAlloc
 11810              		.align 8
 11813              	_ZTV22TestQueue_testAllocOOM:
 11814 0000 00000000 		.quad	0
 11814      00000000 
 11815 0008 00000000 		.quad	_ZTI22TestQueue_testAllocOOM
 11815      00000000 
 11816 0010 00000000 		.quad	_ZN22TestQueue_testAllocOOMD1Ev
 11816      00000000 
 11817 0018 00000000 		.quad	_ZN22TestQueue_testAllocOOMD0Ev
 11817      00000000 
 11818 0020 00000000 		.quad	_ZNK22TestQueue_testAllocOOM7RunImplEv
 11818      00000000 
 11819              		.weak	_ZTV24TestQueue_testReallocOOM
 11820              		.section	.data.rel.ro.local._ZTV24TestQueue_testReallocOOM,"awG",@progbits,_ZTV24TestQueue_testRea
 11821              		.align 8
 11824              	_ZTV24TestQueue_testReallocOOM:
 11825 0000 00000000 		.quad	0
 11825      00000000 
 11826 0008 00000000 		.quad	_ZTI24TestQueue_testReallocOOM
 11826      00000000 
 11827 0010 00000000 		.quad	_ZN24TestQueue_testReallocOOMD1Ev
 11827      00000000 
 11828 0018 00000000 		.quad	_ZN24TestQueue_testReallocOOMD0Ev
 11828      00000000 
 11829 0020 00000000 		.quad	_ZNK24TestQueue_testReallocOOM7RunImplEv
 11829      00000000 
 11830              		.weak	_ZTV31TestQueue_testAllocFreeMatching
 11831              		.section	.data.rel.ro.local._ZTV31TestQueue_testAllocFreeMatching,"awG",@progbits,_ZTV31TestQueue_
 11832              		.align 8
 11835              	_ZTV31TestQueue_testAllocFreeMatching:
 11836 0000 00000000 		.quad	0
 11836      00000000 
 11837 0008 00000000 		.quad	_ZTI31TestQueue_testAllocFreeMatching
 11837      00000000 
 11838 0010 00000000 		.quad	_ZN31TestQueue_testAllocFreeMatchingD1Ev
 11838      00000000 
 11839 0018 00000000 		.quad	_ZN31TestQueue_testAllocFreeMatchingD0Ev
 11839      00000000 
 11840 0020 00000000 		.quad	_ZNK31TestQueue_testAllocFreeMatching7RunImplEv
 11840      00000000 
 11841              		.globl	adderQueue_testAllocFreeMatching
 11842              		.bss
 11845              	adderQueue_testAllocFreeMatching:
 11846 0000 00       		.zero	1
 11847              		.globl	testQueue_testAllocFreeMatchingInstance
 11848 0001 00000000 		.align 32
 11848      00000000 
 11848      00000000 
 11848      00000000 
 11848      00000000 
 11851              	testQueue_testAllocFreeMatchingInstance:
 11852 0020 00000000 		.zero	56
 11852      00000000 
 11852      00000000 
 11852      00000000 
 11852      00000000 
 11853              		.globl	adderQueue_testReallocOOM
 11856              	adderQueue_testReallocOOM:
 11857 0058 00       		.zero	1
 11858              		.globl	testQueue_testReallocOOMInstance
 11859 0059 00000000 		.align 32
 11859      000000
 11862              	testQueue_testReallocOOMInstance:
 11863 0060 00000000 		.zero	56
 11863      00000000 
 11863      00000000 
 11863      00000000 
 11863      00000000 
 11864              		.globl	adderQueue_testAllocOOM
 11867              	adderQueue_testAllocOOM:
 11868 0098 00       		.zero	1
 11869              		.globl	testQueue_testAllocOOMInstance
 11870 0099 00000000 		.align 32
 11870      000000
 11873              	testQueue_testAllocOOMInstance:
 11874 00a0 00000000 		.zero	56
 11874      00000000 
 11874      00000000 
 11874      00000000 
 11874      00000000 
 11875              		.globl	adderQueue_testRealloc
 11878              	adderQueue_testRealloc:
 11879 00d8 00       		.zero	1
 11880              		.globl	testQueue_testReallocInstance
 11881 00d9 00000000 		.align 32
 11881      000000
 11884              	testQueue_testReallocInstance:
 11885 00e0 00000000 		.zero	56
 11885      00000000 
 11885      00000000 
 11885      00000000 
 11885      00000000 
 11886              		.globl	adderQueue_testPutTake
 11889              	adderQueue_testPutTake:
 11890 0118 00       		.zero	1
 11891              		.globl	testQueue_testPutTakeInstance
 11892 0119 00000000 		.align 32
 11892      000000
 11895              	testQueue_testPutTakeInstance:
 11896 0120 00000000 		.zero	56
 11896      00000000 
 11896      00000000 
 11896      00000000 
 11896      00000000 
 11897              		.globl	adderQueue_testPutWrap
 11900              	adderQueue_testPutWrap:
 11901 0158 00       		.zero	1
 11902              		.globl	testQueue_testPutWrapInstance
 11903 0159 00000000 		.align 32
 11903      000000
 11906              	testQueue_testPutWrapInstance:
 11907 0160 00000000 		.zero	56
 11907      00000000 
 11907      00000000 
 11907      00000000 
 11907      00000000 
 11908              		.globl	adderQueue_testPutNoWrap
 11911              	adderQueue_testPutNoWrap:
 11912 0198 00       		.zero	1
 11913              		.globl	testQueue_testPutNoWrapInstance
 11914 0199 00000000 		.align 32
 11914      000000
 11917              	testQueue_testPutNoWrapInstance:
 11918 01a0 00000000 		.zero	56
 11918      00000000 
 11918      00000000 
 11918      00000000 
 11918      00000000 
 11919              		.globl	adderQueue_testInit
 11922              	adderQueue_testInit:
 11923 01d8 00       		.zero	1
 11924              		.globl	testQueue_testInitInstance
 11925 01d9 00000000 		.align 32
 11925      000000
 11928              	testQueue_testInitInstance:
 11929 01e0 00000000 		.zero	56
 11929      00000000 
 11929      00000000 
 11929      00000000 
 11929      00000000 
 11930              		.local	_ZL11m_allocFree
 11931              		.comm	_ZL11m_allocFree,4,4
 11932              		.data
 11933              		.align 4
 11936              	_ZL7m_count:
 11937 0000 01000000 		.long	1
 11938              		.local	_ZStL8__ioinit
 11939              		.comm	_ZStL8__ioinit,1,1
 11940              		.section	.data.rel.ro.local,"aw"
 11941              		.align 8
 11942              	.LC3:
 11943 0000 00000000 		.quad	_ZTCN8UnitTest15MemoryOutStreamE0_NSt7__cxx1119basic_ostringstreamIcSt11char_traitsIcESaIcEE
 11943      00000000 
 11944              		.section	.data.rel.ro,"aw"
 11945              		.align 8
 11946              	.LC4:
 11947 0000 00000000 		.quad	_ZTVSt15basic_streambufIcSt11char_traitsIcEE+16
 11947      00000000 
 11948              		.align 8
 11949              	.LC5:
 11950 0008 00000000 		.quad	_ZTVNSt7__cxx1115basic_stringbufIcSt11char_traitsIcESaIcEEE+16
 11950      00000000 
 11951              		.hidden	DW.ref.__gxx_personality_v0
 11952              		.weak	DW.ref.__gxx_personality_v0
 11953              		.section	.data.rel.local.DW.ref.__gxx_personality_v0,"awG",@progbits,DW.ref.__gxx_personality_v0,c
 11954              		.align 8
 11957              	DW.ref.__gxx_personality_v0:
 11958 0000 00000000 		.quad	__gxx_personality_v0
 11958      00000000 
 11959              		.hidden	__dso_handle
 11960              		.ident	"GCC: (Ubuntu 11.3.0-1ubuntu1~22.04) 11.3.0"
 11961              		.section	.note.GNU-stack,"",@progbits
 11962              		.section	.note.gnu.property,"a"
 11963              		.align 8
 11964 0000 04000000 		.long	1f - 0f
 11965 0004 10000000 		.long	4f - 1f
 11966 0008 05000000 		.long	5
 11967              	0:
 11968 000c 474E5500 		.string	"GNU"
 11969              	1:
 11970              		.align 8
 11971 0010 020000C0 		.long	0xc0000002
 11972 0014 04000000 		.long	3f - 2f
 11973              	2:
 11974 0018 03000000 		.long	0x3
 11975              	3:
 11976 001c 00000000 		.align 8
 11977              	4:
DEFINED SYMBOLS
                            *ABS*:0000000000000000 testCore.cpp
     /tmp/cc7wjKxB.s:6      .text:0000000000000000 createInt
     /tmp/cc7wjKxB.s:11936  .data:0000000000000000 _ZL7m_count
     /tmp/cc7wjKxB.s:11931  .bss:0000000000000218 _ZL11m_allocFree
     /tmp/cc7wjKxB.s:38     .text._ZN31TestQueue_testAllocFreeMatchingD2Ev:0000000000000000 _ZN31TestQueue_testAllocFreeMatchingD2Ev
     /tmp/cc7wjKxB.s:11835  .data.rel.ro.local._ZTV31TestQueue_testAllocFreeMatching:0000000000000000 _ZTV31TestQueue_testAllocFreeMatching
     /tmp/cc7wjKxB.s:38     .text._ZN31TestQueue_testAllocFreeMatchingD2Ev:0000000000000000 _ZN31TestQueue_testAllocFreeMatchingD1Ev
     /tmp/cc7wjKxB.s:55     .text._ZN31TestQueue_testAllocFreeMatchingD0Ev:0000000000000000 _ZN31TestQueue_testAllocFreeMatchingD0Ev
     /tmp/cc7wjKxB.s:11957  .data.rel.local.DW.ref.__gxx_personality_v0:0000000000000000 DW.ref.__gxx_personality_v0
     /tmp/cc7wjKxB.s:121    .text._ZN24TestQueue_testReallocOOMD2Ev:0000000000000000 _ZN24TestQueue_testReallocOOMD2Ev
     /tmp/cc7wjKxB.s:11824  .data.rel.ro.local._ZTV24TestQueue_testReallocOOM:0000000000000000 _ZTV24TestQueue_testReallocOOM
     /tmp/cc7wjKxB.s:121    .text._ZN24TestQueue_testReallocOOMD2Ev:0000000000000000 _ZN24TestQueue_testReallocOOMD1Ev
     /tmp/cc7wjKxB.s:138    .text._ZN24TestQueue_testReallocOOMD0Ev:0000000000000000 _ZN24TestQueue_testReallocOOMD0Ev
     /tmp/cc7wjKxB.s:203    .text._ZN22TestQueue_testAllocOOMD2Ev:0000000000000000 _ZN22TestQueue_testAllocOOMD2Ev
     /tmp/cc7wjKxB.s:11813  .data.rel.ro.local._ZTV22TestQueue_testAllocOOM:0000000000000000 _ZTV22TestQueue_testAllocOOM
     /tmp/cc7wjKxB.s:203    .text._ZN22TestQueue_testAllocOOMD2Ev:0000000000000000 _ZN22TestQueue_testAllocOOMD1Ev
     /tmp/cc7wjKxB.s:220    .text._ZN22TestQueue_testAllocOOMD0Ev:0000000000000000 _ZN22TestQueue_testAllocOOMD0Ev
     /tmp/cc7wjKxB.s:285    .text._ZN21TestQueue_testReallocD2Ev:0000000000000000 _ZN21TestQueue_testReallocD2Ev
     /tmp/cc7wjKxB.s:11802  .data.rel.ro.local._ZTV21TestQueue_testRealloc:0000000000000000 _ZTV21TestQueue_testRealloc
     /tmp/cc7wjKxB.s:285    .text._ZN21TestQueue_testReallocD2Ev:0000000000000000 _ZN21TestQueue_testReallocD1Ev
     /tmp/cc7wjKxB.s:302    .text._ZN21TestQueue_testReallocD0Ev:0000000000000000 _ZN21TestQueue_testReallocD0Ev
     /tmp/cc7wjKxB.s:367    .text._ZN21TestQueue_testPutTakeD2Ev:0000000000000000 _ZN21TestQueue_testPutTakeD2Ev
     /tmp/cc7wjKxB.s:11791  .data.rel.ro.local._ZTV21TestQueue_testPutTake:0000000000000000 _ZTV21TestQueue_testPutTake
     /tmp/cc7wjKxB.s:367    .text._ZN21TestQueue_testPutTakeD2Ev:0000000000000000 _ZN21TestQueue_testPutTakeD1Ev
     /tmp/cc7wjKxB.s:384    .text._ZN21TestQueue_testPutTakeD0Ev:0000000000000000 _ZN21TestQueue_testPutTakeD0Ev
     /tmp/cc7wjKxB.s:449    .text._ZN21TestQueue_testPutWrapD2Ev:0000000000000000 _ZN21TestQueue_testPutWrapD2Ev
     /tmp/cc7wjKxB.s:11780  .data.rel.ro.local._ZTV21TestQueue_testPutWrap:0000000000000000 _ZTV21TestQueue_testPutWrap
     /tmp/cc7wjKxB.s:449    .text._ZN21TestQueue_testPutWrapD2Ev:0000000000000000 _ZN21TestQueue_testPutWrapD1Ev
     /tmp/cc7wjKxB.s:466    .text._ZN21TestQueue_testPutWrapD0Ev:0000000000000000 _ZN21TestQueue_testPutWrapD0Ev
     /tmp/cc7wjKxB.s:531    .text._ZN23TestQueue_testPutNoWrapD2Ev:0000000000000000 _ZN23TestQueue_testPutNoWrapD2Ev
     /tmp/cc7wjKxB.s:11769  .data.rel.ro.local._ZTV23TestQueue_testPutNoWrap:0000000000000000 _ZTV23TestQueue_testPutNoWrap
     /tmp/cc7wjKxB.s:531    .text._ZN23TestQueue_testPutNoWrapD2Ev:0000000000000000 _ZN23TestQueue_testPutNoWrapD1Ev
     /tmp/cc7wjKxB.s:548    .text._ZN23TestQueue_testPutNoWrapD0Ev:0000000000000000 _ZN23TestQueue_testPutNoWrapD0Ev
     /tmp/cc7wjKxB.s:613    .text._ZN18TestQueue_testInitD2Ev:0000000000000000 _ZN18TestQueue_testInitD2Ev
     /tmp/cc7wjKxB.s:11758  .data.rel.ro.local._ZTV18TestQueue_testInit:0000000000000000 _ZTV18TestQueue_testInit
     /tmp/cc7wjKxB.s:613    .text._ZN18TestQueue_testInitD2Ev:0000000000000000 _ZN18TestQueue_testInitD1Ev
     /tmp/cc7wjKxB.s:630    .text._ZN18TestQueue_testInitD0Ev:0000000000000000 _ZN18TestQueue_testInitD0Ev
     /tmp/cc7wjKxB.s:694    .text:0000000000000040 destroyInt
     /tmp/cc7wjKxB.s:714    .text._ZN8UnitTest15MemoryOutStreamD1Ev:0000000000000000 _ZN8UnitTest15MemoryOutStreamD1Ev
     /tmp/cc7wjKxB.s:11742  .data.rel.ro.local._ZTVN8UnitTest15MemoryOutStreamE:0000000000000000 _ZTVN8UnitTest15MemoryOutStreamE
     /tmp/cc7wjKxB.s:11714  .data.rel.ro._ZTCN8UnitTest15MemoryOutStreamE0_NSt7__cxx1119basic_ostringstreamIcSt11char_traitsIcESaIcEEE:0000000000000000 _ZTCN8UnitTest15MemoryOutStreamE0_NSt7__cxx1119basic_ostringstreamIcSt11char_traitsIcESaIcEEE
     /tmp/cc7wjKxB.s:11697  .data.rel.ro._ZTCN8UnitTest15MemoryOutStreamE0_So:0000000000000000 _ZTCN8UnitTest15MemoryOutStreamE0_So
     /tmp/cc7wjKxB.s:774    .text._ZN8UnitTest15MemoryOutStreamD1Ev:00000000000000c0 _ZTv0_n24_N8UnitTest15MemoryOutStreamD1Ev
     /tmp/cc7wjKxB.s:838    .text._ZN8UnitTest15MemoryOutStreamD0Ev:0000000000000000 _ZN8UnitTest15MemoryOutStreamD0Ev
     /tmp/cc7wjKxB.s:933    .text._ZN8UnitTest15MemoryOutStreamD0Ev:00000000000000e0 _ZTv0_n24_N8UnitTest15MemoryOutStreamD0Ev
     /tmp/cc7wjKxB.s:1032   .text._ZNSt7__cxx1115basic_stringbufIcSt11char_traitsIcESaIcEED2Ev:0000000000000000 _ZNSt7__cxx1115basic_stringbufIcSt11char_traitsIcESaIcEED2Ev
     /tmp/cc7wjKxB.s:1032   .text._ZNSt7__cxx1115basic_stringbufIcSt11char_traitsIcESaIcEED2Ev:0000000000000000 _ZNSt7__cxx1115basic_stringbufIcSt11char_traitsIcESaIcEED1Ev
     /tmp/cc7wjKxB.s:1077   .text:0000000000000060 _ZNK31TestQueue_testAllocFreeMatching7RunImplEv
     /tmp/cc7wjKxB.s:1322   .text.unlikely:0000000000000000 _ZNK31TestQueue_testAllocFreeMatching7RunImplEv.cold
     /tmp/cc7wjKxB.s:1442   .text:0000000000000360 _ZN8UnitTest10CheckEqualI9USBStatusS1_EEvRNS_11TestResultsERKT_RKT0_RKNS_11TestDetailsE.constprop.0
     /tmp/cc7wjKxB.s:1660   .text.unlikely:00000000000000b9 _ZN8UnitTest10CheckEqualI9USBStatusS1_EEvRNS_11TestResultsERKT_RKT0_RKNS_11TestDetailsE.constprop.0.cold
     /tmp/cc7wjKxB.s:1721   .text._ZNSt7__cxx1115basic_stringbufIcSt11char_traitsIcESaIcEED0Ev:0000000000000000 _ZNSt7__cxx1115basic_stringbufIcSt11char_traitsIcESaIcEED0Ev
     /tmp/cc7wjKxB.s:1752   .text._ZN8UnitTest10CheckEqualI9USBStatusS1_EEvRNS_11TestResultsERKT_RKT0_RKNS_11TestDetailsE:0000000000000000 _ZN8UnitTest10CheckEqualI9USBStatusS1_EEvRNS_11TestResultsERKT_RKT0_RKNS_11TestDetailsE
     /tmp/cc7wjKxB.s:2010   .text:0000000000000630 _ZNK22TestQueue_testAllocOOM7RunImplEv
     /tmp/cc7wjKxB.s:2116   .text.unlikely:00000000000000fc _ZNK22TestQueue_testAllocOOM7RunImplEv.cold
     /tmp/cc7wjKxB.s:2202   .text:00000000000006f0 _ZNK24TestQueue_testReallocOOM7RunImplEv
     /tmp/cc7wjKxB.s:2627   .text.unlikely:0000000000000154 _ZNK24TestQueue_testReallocOOM7RunImplEv.cold
     /tmp/cc7wjKxB.s:3057   .text._ZN8UnitTest10CheckEqualImmEEvRNS_11TestResultsERKT_RKT0_RKNS_11TestDetailsE:0000000000000000 _ZN8UnitTest10CheckEqualImmEEvRNS_11TestResultsERKT_RKT0_RKNS_11TestDetailsE
     /tmp/cc7wjKxB.s:3306   .text._ZN8UnitTest10CheckEqualImjEEvRNS_11TestResultsERKT_RKT0_RKNS_11TestDetailsE:0000000000000000 _ZN8UnitTest10CheckEqualImjEEvRNS_11TestResultsERKT_RKT0_RKNS_11TestDetailsE
     /tmp/cc7wjKxB.s:3585   .text:0000000000000ac0 _ZNK18TestQueue_testInit7RunImplEv
     /tmp/cc7wjKxB.s:3891   .text.unlikely:0000000000000492 _ZNK18TestQueue_testInit7RunImplEv.cold
     /tmp/cc7wjKxB.s:4310   .text:0000000000000de0 _ZNK23TestQueue_testPutNoWrap7RunImplEv
     /tmp/cc7wjKxB.s:4811   .text.unlikely:000000000000077a _ZNK23TestQueue_testPutNoWrap7RunImplEv.cold
     /tmp/cc7wjKxB.s:5450   .text:0000000000001310 _ZNK21TestQueue_testPutWrap7RunImplEv
     /tmp/cc7wjKxB.s:6012   .text.unlikely:0000000000000c4e _ZNK21TestQueue_testPutWrap7RunImplEv.cold
     /tmp/cc7wjKxB.s:6732   .text:00000000000018f0 _ZNK21TestQueue_testPutTake7RunImplEv
     /tmp/cc7wjKxB.s:7530   .text.unlikely:00000000000011c6 _ZNK21TestQueue_testPutTake7RunImplEv.cold
     /tmp/cc7wjKxB.s:8617   .text:0000000000002150 _Z11testReallocm
     /tmp/cc7wjKxB.s:9794   .text.unlikely:00000000000019cd _Z11testReallocm.cold
     /tmp/cc7wjKxB.s:11316  .text:0000000000002dd0 _ZNK21TestQueue_testRealloc7RunImplEv
     /tmp/cc7wjKxB.s:11359  .text.startup:0000000000000000 _GLOBAL__sub_I_createInt
     /tmp/cc7wjKxB.s:11928  .bss:00000000000001e0 testQueue_testInitInstance
     /tmp/cc7wjKxB.s:11931  .bss:000000000000021c _ZStL8__ioinit
     /tmp/cc7wjKxB.s:11922  .bss:00000000000001d8 adderQueue_testInit
     /tmp/cc7wjKxB.s:11917  .bss:00000000000001a0 testQueue_testPutNoWrapInstance
     /tmp/cc7wjKxB.s:11911  .bss:0000000000000198 adderQueue_testPutNoWrap
     /tmp/cc7wjKxB.s:11906  .bss:0000000000000160 testQueue_testPutWrapInstance
     /tmp/cc7wjKxB.s:11900  .bss:0000000000000158 adderQueue_testPutWrap
     /tmp/cc7wjKxB.s:11895  .bss:0000000000000120 testQueue_testPutTakeInstance
     /tmp/cc7wjKxB.s:11889  .bss:0000000000000118 adderQueue_testPutTake
     /tmp/cc7wjKxB.s:11884  .bss:00000000000000e0 testQueue_testReallocInstance
     /tmp/cc7wjKxB.s:11878  .bss:00000000000000d8 adderQueue_testRealloc
     /tmp/cc7wjKxB.s:11873  .bss:00000000000000a0 testQueue_testAllocOOMInstance
     /tmp/cc7wjKxB.s:11867  .bss:0000000000000098 adderQueue_testAllocOOM
     /tmp/cc7wjKxB.s:11862  .bss:0000000000000060 testQueue_testReallocOOMInstance
     /tmp/cc7wjKxB.s:11856  .bss:0000000000000058 adderQueue_testReallocOOM
     /tmp/cc7wjKxB.s:11851  .bss:0000000000000020 testQueue_testAllocFreeMatchingInstance
     /tmp/cc7wjKxB.s:11845  .bss:0000000000000000 adderQueue_testAllocFreeMatching
     /tmp/cc7wjKxB.s:11552  .rodata._ZTSN8UnitTest15MemoryOutStreamE:0000000000000000 _ZTSN8UnitTest15MemoryOutStreamE
     /tmp/cc7wjKxB.s:11559  .data.rel.ro._ZTIN8UnitTest15MemoryOutStreamE:0000000000000000 _ZTIN8UnitTest15MemoryOutStreamE
     /tmp/cc7wjKxB.s:11568  .rodata._ZTS18TestQueue_testInit:0000000000000000 _ZTS18TestQueue_testInit
     /tmp/cc7wjKxB.s:11575  .data.rel.ro._ZTI18TestQueue_testInit:0000000000000000 _ZTI18TestQueue_testInit
     /tmp/cc7wjKxB.s:11584  .rodata._ZTS23TestQueue_testPutNoWrap:0000000000000000 _ZTS23TestQueue_testPutNoWrap
     /tmp/cc7wjKxB.s:11591  .data.rel.ro._ZTI23TestQueue_testPutNoWrap:0000000000000000 _ZTI23TestQueue_testPutNoWrap
     /tmp/cc7wjKxB.s:11600  .rodata._ZTS21TestQueue_testPutWrap:0000000000000000 _ZTS21TestQueue_testPutWrap
     /tmp/cc7wjKxB.s:11607  .data.rel.ro._ZTI21TestQueue_testPutWrap:0000000000000000 _ZTI21TestQueue_testPutWrap
     /tmp/cc7wjKxB.s:11616  .rodata._ZTS21TestQueue_testPutTake:0000000000000000 _ZTS21TestQueue_testPutTake
     /tmp/cc7wjKxB.s:11623  .data.rel.ro._ZTI21TestQueue_testPutTake:0000000000000000 _ZTI21TestQueue_testPutTake
     /tmp/cc7wjKxB.s:11632  .rodata._ZTS21TestQueue_testRealloc:0000000000000000 _ZTS21TestQueue_testRealloc
     /tmp/cc7wjKxB.s:11639  .data.rel.ro._ZTI21TestQueue_testRealloc:0000000000000000 _ZTI21TestQueue_testRealloc
     /tmp/cc7wjKxB.s:11648  .rodata._ZTS22TestQueue_testAllocOOM:0000000000000000 _ZTS22TestQueue_testAllocOOM
     /tmp/cc7wjKxB.s:11655  .data.rel.ro._ZTI22TestQueue_testAllocOOM:0000000000000000 _ZTI22TestQueue_testAllocOOM
     /tmp/cc7wjKxB.s:11664  .rodata._ZTS24TestQueue_testReallocOOM:0000000000000000 _ZTS24TestQueue_testReallocOOM
     /tmp/cc7wjKxB.s:11671  .data.rel.ro._ZTI24TestQueue_testReallocOOM:0000000000000000 _ZTI24TestQueue_testReallocOOM
     /tmp/cc7wjKxB.s:11680  .rodata._ZTS31TestQueue_testAllocFreeMatching:0000000000000000 _ZTS31TestQueue_testAllocFreeMatching
     /tmp/cc7wjKxB.s:11687  .data.rel.ro._ZTI31TestQueue_testAllocFreeMatching:0000000000000000 _ZTI31TestQueue_testAllocFreeMatching
     /tmp/cc7wjKxB.s:11730  .data.rel.ro.local._ZTTN8UnitTest15MemoryOutStreamE:0000000000000000 _ZTTN8UnitTest15MemoryOutStreamE
     /tmp/cc7wjKxB.s:1060   .rodata.str1.1:0000000000000000 .LC0
     /tmp/cc7wjKxB.s:1062   .rodata.str1.1:000000000000000a .LC1
     /tmp/cc7wjKxB.s:1066   .rodata.str1.8:0000000000000000 .LC2
     /tmp/cc7wjKxB.s:1999   .rodata.str1.8:0000000000000038 .LC8
     /tmp/cc7wjKxB.s:2191   .rodata.str1.8:0000000000000078 .LC10
     /tmp/cc7wjKxB.s:3574   .rodata.str1.8:0000000000000270 .LC19
     /tmp/cc7wjKxB.s:3571   .rodata.str1.8:0000000000000228 .LC18
     /tmp/cc7wjKxB.s:3559   .rodata.str1.8:0000000000000120 .LC14
     /tmp/cc7wjKxB.s:3565   .rodata.str1.8:0000000000000198 .LC16
     /tmp/cc7wjKxB.s:3553   .rodata.str1.8:00000000000000b0 .LC12
     /tmp/cc7wjKxB.s:3568   .rodata.str1.8:00000000000001e0 .LC17
     /tmp/cc7wjKxB.s:3556   .rodata.str1.8:00000000000000e8 .LC13
     /tmp/cc7wjKxB.s:3562   .rodata.str1.8:0000000000000160 .LC15
     /tmp/cc7wjKxB.s:4299   .rodata.str1.8:0000000000000448 .LC28
     /tmp/cc7wjKxB.s:4296   .rodata.str1.8:0000000000000400 .LC27
     /tmp/cc7wjKxB.s:4293   .rodata.str1.8:00000000000003b8 .LC26
     /tmp/cc7wjKxB.s:4290   .rodata.str1.8:0000000000000380 .LC25
     /tmp/cc7wjKxB.s:4287   .rodata.str1.8:0000000000000348 .LC24
     /tmp/cc7wjKxB.s:4284   .rodata.str1.8:0000000000000318 .LC23
     /tmp/cc7wjKxB.s:4281   .rodata.str1.8:00000000000002e8 .LC22
     /tmp/cc7wjKxB.s:4278   .rodata.str1.8:00000000000002b8 .LC21
     /tmp/cc7wjKxB.s:5439   .rodata.str1.8:00000000000004f8 .LC32
     /tmp/cc7wjKxB.s:5436   .rodata.str1.8:00000000000004c0 .LC31
     /tmp/cc7wjKxB.s:5433   .rodata.str1.8:0000000000000490 .LC30
     /tmp/cc7wjKxB.s:6721   .rodata.str1.8:00000000000005d0 .LC37
     /tmp/cc7wjKxB.s:6718   .rodata.str1.8:00000000000005a0 .LC36
     /tmp/cc7wjKxB.s:6715   .rodata.str1.8:0000000000000570 .LC35
     /tmp/cc7wjKxB.s:6712   .rodata.str1.8:0000000000000540 .LC34
     /tmp/cc7wjKxB.s:8608   .rodata.str1.8:0000000000000b98 .LC61
     /tmp/cc7wjKxB.s:8605   .rodata.str1.8:0000000000000b60 .LC60
     /tmp/cc7wjKxB.s:8602   .rodata.str1.8:0000000000000b28 .LC59
     /tmp/cc7wjKxB.s:8599   .rodata.str1.8:0000000000000af0 .LC58
     /tmp/cc7wjKxB.s:8596   .rodata.str1.8:0000000000000ab8 .LC57
     /tmp/cc7wjKxB.s:8593   .rodata.str1.8:0000000000000a80 .LC56
     /tmp/cc7wjKxB.s:8590   .rodata.str1.8:0000000000000a38 .LC55
     /tmp/cc7wjKxB.s:8587   .rodata.str1.8:00000000000009f0 .LC54
     /tmp/cc7wjKxB.s:8584   .rodata.str1.8:00000000000009a8 .LC53
     /tmp/cc7wjKxB.s:8581   .rodata.str1.8:0000000000000960 .LC52
     /tmp/cc7wjKxB.s:8578   .rodata.str1.8:0000000000000918 .LC51
     /tmp/cc7wjKxB.s:8575   .rodata.str1.8:00000000000008d0 .LC50
     /tmp/cc7wjKxB.s:8572   .rodata.str1.8:0000000000000888 .LC49
     /tmp/cc7wjKxB.s:8569   .rodata.str1.8:0000000000000840 .LC48
     /tmp/cc7wjKxB.s:8566   .rodata.str1.8:0000000000000808 .LC47
     /tmp/cc7wjKxB.s:8563   .rodata.str1.8:00000000000007d0 .LC46
     /tmp/cc7wjKxB.s:8560   .rodata.str1.8:0000000000000798 .LC45
     /tmp/cc7wjKxB.s:8557   .rodata.str1.8:0000000000000758 .LC44
     /tmp/cc7wjKxB.s:8554   .rodata.str1.8:0000000000000718 .LC43
     /tmp/cc7wjKxB.s:8551   .rodata.str1.8:00000000000006d0 .LC42
     /tmp/cc7wjKxB.s:8548   .rodata.str1.8:0000000000000688 .LC41
     /tmp/cc7wjKxB.s:8545   .rodata.str1.8:0000000000000640 .LC40
     /tmp/cc7wjKxB.s:8542   .rodata.str1.8:0000000000000600 .LC39
     /tmp/cc7wjKxB.s:11336  .rodata.str1.1:0000000000000014 .LC63
     /tmp/cc7wjKxB.s:11338  .rodata.str1.1:0000000000000021 .LC64
     /tmp/cc7wjKxB.s:11340  .rodata.str1.1:000000000000002e .LC65
     /tmp/cc7wjKxB.s:11342  .rodata.str1.1:000000000000003d .LC66
     /tmp/cc7wjKxB.s:11344  .rodata.str1.1:0000000000000051 .LC67
     /tmp/cc7wjKxB.s:11346  .rodata.str1.1:0000000000000063 .LC68
     /tmp/cc7wjKxB.s:11348  .rodata.str1.1:0000000000000075 .LC69
     /tmp/cc7wjKxB.s:11350  .rodata.str1.1:0000000000000087 .LC70
     /tmp/cc7wjKxB.s:11352  .rodata.str1.1:000000000000009a .LC71
     /tmp/cc7wjKxB.s:11354  .rodata.str1.1:00000000000000af .LC72
                           .group:0000000000000000 _ZN31TestQueue_testAllocFreeMatchingD5Ev
                           .group:0000000000000000 _ZN24TestQueue_testReallocOOMD5Ev
                           .group:0000000000000000 _ZN22TestQueue_testAllocOOMD5Ev
                           .group:0000000000000000 _ZN21TestQueue_testReallocD5Ev
                           .group:0000000000000000 _ZN21TestQueue_testPutTakeD5Ev
                           .group:0000000000000000 _ZN21TestQueue_testPutWrapD5Ev
                           .group:0000000000000000 _ZN23TestQueue_testPutNoWrapD5Ev
                           .group:0000000000000000 _ZN18TestQueue_testInitD5Ev
                           .group:0000000000000000 _ZNSt7__cxx1115basic_stringbufIcSt11char_traitsIcESaIcEED5Ev

UNDEFINED SYMBOLS
malloc
_ZN8UnitTest4TestD2Ev
_ZdlPv
_Unwind_Resume
__gxx_personality_v0
free
_ZTVNSt7__cxx1115basic_stringbufIcSt11char_traitsIcESaIcEEE
_ZTVSt15basic_streambufIcSt11char_traitsIcEE
_ZNSt6localeD1Ev
_ZTVSt9basic_iosIcSt11char_traitsIcEE
_ZNSt8ios_baseD2Ev
_ZN8UnitTest11CurrentTest7DetailsEv
_ZN8UnitTest11TestDetailsC1ERKS0_i
_ZN8UnitTest11CurrentTest7ResultsEv
_ZNSt8ios_baseC2Ev
_ZNSt9basic_iosIcSt11char_traitsIcEE4initEPSt15basic_streambufIcS1_E
_ZNSt6localeC1Ev
_ZSt16__ostream_insertIcSt11char_traitsIcEERSt13basic_ostreamIT_T0_ES6_PKS3_l
_ZNSolsEi
_ZNK8UnitTest15MemoryOutStream7GetTextEv
_ZN8UnitTest11TestResults13OnTestFailureERKNS_11TestDetailsEPKc
__stack_chk_fail
__cxa_begin_catch
__cxa_end_catch
queueInit
queueDestroy
queuePut
queueCommitPut
_ZNSo9_M_insertImEERSoT_
queueTake
queueCommitTake
__dso_handle
_ZNSt8ios_base4InitC1Ev
_GLOBAL_OFFSET_TABLE_
_ZNSt8ios_base4InitD1Ev
__cxa_atexit
_ZN8UnitTest4TestC2EPKcS2_S2_i
_ZN8UnitTest4Test11GetTestListEv
_ZN8UnitTest9ListAdderC1ERNS_8TestListEPNS_4TestE
_ZTVN10__cxxabiv120__si_class_type_infoE
_ZTINSt7__cxx1119basic_ostringstreamIcSt11char_traitsIcESaIcEEE
_ZTIN8UnitTest4TestE
_ZTISo
