   1              		.file	"testCore.cpp"
   2              		.text
   3              		.p2align 4
   4              		.globl	createInt
   6              	createInt:
   7              	.LFB1240:
   8              		.cfi_startproc
   9 0000 F30F1EFA 		endbr64
  10 0004 53       		pushq	%rbx
  11              		.cfi_def_cfa_offset 16
  12              		.cfi_offset 3, -16
  13 0005 8B1D0000 		movl	_ZL7m_count(%rip), %ebx
  13      0000
  14 000b 31C0     		xorl	%eax, %eax
  15 000d 83FB08   		cmpl	$8, %ebx
  16 0010 7721     		ja	.L1
  17 0012 BF040000 		movl	$4, %edi
  17      00
  18 0017 E8000000 		call	malloc@PLT
  18      00
  19 001c 4885C0   		testq	%rax, %rax
  20 001f 740B     		je	.L3
  21 0021 8D5301   		leal	1(%rbx), %edx
  22 0024 8918     		movl	%ebx, (%rax)
  23 0026 89150000 		movl	%edx, _ZL7m_count(%rip)
  23      0000
  24              	.L3:
  25 002c 83050000 		addl	$1, _ZL11m_allocFree(%rip)
  25      000001
  26              	.L1:
  27 0033 5B       		popq	%rbx
  28              		.cfi_def_cfa_offset 8
  29 0034 C3       		ret
  30              		.cfi_endproc
  31              	.LFE1240:
  33              		.section	.text._ZN31TestQueue_testAllocFreeMatchingD2Ev,"axG",@progbits,_ZN31TestQueue_testAllocFr
  34              		.align 2
  35              		.p2align 4
  36              		.weak	_ZN31TestQueue_testAllocFreeMatchingD2Ev
  38              	_ZN31TestQueue_testAllocFreeMatchingD2Ev:
  39              	.LFB1366:
  40              		.cfi_startproc
  41 0000 F30F1EFA 		endbr64
  42 0004 488D0500 		leaq	16+_ZTV31TestQueue_testAllocFreeMatching(%rip), %rax
  42      000000
  43 000b 488907   		movq	%rax, (%rdi)
  44 000e E9000000 		jmp	_ZN8UnitTest4TestD2Ev@PLT
  44      00
  45              		.cfi_endproc
  46              	.LFE1366:
  48              		.weak	_ZN31TestQueue_testAllocFreeMatchingD1Ev
  49              		.set	_ZN31TestQueue_testAllocFreeMatchingD1Ev,_ZN31TestQueue_testAllocFreeMatchingD2Ev
  50              		.section	.text._ZN31TestQueue_testAllocFreeMatchingD0Ev,"axG",@progbits,_ZN31TestQueue_testAllocFr
  51              		.align 2
  52              		.p2align 4
  53              		.weak	_ZN31TestQueue_testAllocFreeMatchingD0Ev
  55              	_ZN31TestQueue_testAllocFreeMatchingD0Ev:
  56              	.LFB1368:
  57              		.cfi_startproc
  58              		.cfi_personality 0x9b,DW.ref.__gxx_personality_v0
  59              		.cfi_lsda 0x1b,.LLSDA1368
  60 0000 F30F1EFA 		endbr64
  61 0004 4154     		pushq	%r12
  62              		.cfi_def_cfa_offset 16
  63              		.cfi_offset 12, -16
  64 0006 488D0500 		leaq	16+_ZTV31TestQueue_testAllocFreeMatching(%rip), %rax
  64      000000
  65 000d 55       		pushq	%rbp
  66              		.cfi_def_cfa_offset 24
  67              		.cfi_offset 6, -24
  68 000e 4889FD   		movq	%rdi, %rbp
  69 0011 4883EC08 		subq	$8, %rsp
  70              		.cfi_def_cfa_offset 32
  71 0015 488907   		movq	%rax, (%rdi)
  72              	.LEHB0:
  73 0018 E8000000 		call	_ZN8UnitTest4TestD2Ev@PLT
  73      00
  74              	.LEHE0:
  75 001d 4883C408 		addq	$8, %rsp
  76              		.cfi_remember_state
  77              		.cfi_def_cfa_offset 24
  78 0021 4889EF   		movq	%rbp, %rdi
  79 0024 5D       		popq	%rbp
  80              		.cfi_def_cfa_offset 16
  81 0025 415C     		popq	%r12
  82              		.cfi_def_cfa_offset 8
  83 0027 E9000000 		jmp	_ZdlPv@PLT
  83      00
  84              	.L14:
  85              		.cfi_restore_state
  86 002c F30F1EFA 		endbr64
  87 0030 4989C4   		movq	%rax, %r12
  88              	.L13:
  89 0033 4889EF   		movq	%rbp, %rdi
  90 0036 E8000000 		call	_ZdlPv@PLT
  90      00
  91 003b 4C89E7   		movq	%r12, %rdi
  92              	.LEHB1:
  93 003e E8000000 		call	_Unwind_Resume@PLT
  93      00
  94              	.LEHE1:
  95              		.cfi_endproc
  96              	.LFE1368:
  97              		.globl	__gxx_personality_v0
  98              		.section	.gcc_except_table._ZN31TestQueue_testAllocFreeMatchingD0Ev,"aG",@progbits,_ZN31TestQueue_
  99              	.LLSDA1368:
 100 0000 FF       		.byte	0xff
 101 0001 FF       		.byte	0xff
 102 0002 01       		.byte	0x1
 103 0003 08       		.uleb128 .LLSDACSE1368-.LLSDACSB1368
 104              	.LLSDACSB1368:
 105 0004 18       		.uleb128 .LEHB0-.LFB1368
 106 0005 05       		.uleb128 .LEHE0-.LEHB0
 107 0006 2C       		.uleb128 .L14-.LFB1368
 108 0007 00       		.uleb128 0
 109 0008 3E       		.uleb128 .LEHB1-.LFB1368
 110 0009 05       		.uleb128 .LEHE1-.LEHB1
 111 000a 00       		.uleb128 0
 112 000b 00       		.uleb128 0
 113              	.LLSDACSE1368:
 114              		.section	.text._ZN31TestQueue_testAllocFreeMatchingD0Ev,"axG",@progbits,_ZN31TestQueue_testAllocFr
 116              		.section	.text._ZN24TestQueue_testReallocOOMD2Ev,"axG",@progbits,_ZN24TestQueue_testReallocOOMD5Ev
 117              		.align 2
 118              		.p2align 4
 119              		.weak	_ZN24TestQueue_testReallocOOMD2Ev
 121              	_ZN24TestQueue_testReallocOOMD2Ev:
 122              	.LFB1370:
 123              		.cfi_startproc
 124 0000 F30F1EFA 		endbr64
 125 0004 488D0500 		leaq	16+_ZTV24TestQueue_testReallocOOM(%rip), %rax
 125      000000
 126 000b 488907   		movq	%rax, (%rdi)
 127 000e E9000000 		jmp	_ZN8UnitTest4TestD2Ev@PLT
 127      00
 128              		.cfi_endproc
 129              	.LFE1370:
 131              		.weak	_ZN24TestQueue_testReallocOOMD1Ev
 132              		.set	_ZN24TestQueue_testReallocOOMD1Ev,_ZN24TestQueue_testReallocOOMD2Ev
 133              		.section	.text._ZN24TestQueue_testReallocOOMD0Ev,"axG",@progbits,_ZN24TestQueue_testReallocOOMD5Ev
 134              		.align 2
 135              		.p2align 4
 136              		.weak	_ZN24TestQueue_testReallocOOMD0Ev
 138              	_ZN24TestQueue_testReallocOOMD0Ev:
 139              	.LFB1372:
 140              		.cfi_startproc
 141              		.cfi_personality 0x9b,DW.ref.__gxx_personality_v0
 142              		.cfi_lsda 0x1b,.LLSDA1372
 143 0000 F30F1EFA 		endbr64
 144 0004 4154     		pushq	%r12
 145              		.cfi_def_cfa_offset 16
 146              		.cfi_offset 12, -16
 147 0006 488D0500 		leaq	16+_ZTV24TestQueue_testReallocOOM(%rip), %rax
 147      000000
 148 000d 55       		pushq	%rbp
 149              		.cfi_def_cfa_offset 24
 150              		.cfi_offset 6, -24
 151 000e 4889FD   		movq	%rdi, %rbp
 152 0011 4883EC08 		subq	$8, %rsp
 153              		.cfi_def_cfa_offset 32
 154 0015 488907   		movq	%rax, (%rdi)
 155              	.LEHB2:
 156 0018 E8000000 		call	_ZN8UnitTest4TestD2Ev@PLT
 156      00
 157              	.LEHE2:
 158 001d 4883C408 		addq	$8, %rsp
 159              		.cfi_remember_state
 160              		.cfi_def_cfa_offset 24
 161 0021 4889EF   		movq	%rbp, %rdi
 162 0024 5D       		popq	%rbp
 163              		.cfi_def_cfa_offset 16
 164 0025 415C     		popq	%r12
 165              		.cfi_def_cfa_offset 8
 166 0027 E9000000 		jmp	_ZdlPv@PLT
 166      00
 167              	.L19:
 168              		.cfi_restore_state
 169 002c F30F1EFA 		endbr64
 170 0030 4989C4   		movq	%rax, %r12
 171              	.L18:
 172 0033 4889EF   		movq	%rbp, %rdi
 173 0036 E8000000 		call	_ZdlPv@PLT
 173      00
 174 003b 4C89E7   		movq	%r12, %rdi
 175              	.LEHB3:
 176 003e E8000000 		call	_Unwind_Resume@PLT
 176      00
 177              	.LEHE3:
 178              		.cfi_endproc
 179              	.LFE1372:
 180              		.section	.gcc_except_table._ZN24TestQueue_testReallocOOMD0Ev,"aG",@progbits,_ZN24TestQueue_testRea
 181              	.LLSDA1372:
 182 0000 FF       		.byte	0xff
 183 0001 FF       		.byte	0xff
 184 0002 01       		.byte	0x1
 185 0003 08       		.uleb128 .LLSDACSE1372-.LLSDACSB1372
 186              	.LLSDACSB1372:
 187 0004 18       		.uleb128 .LEHB2-.LFB1372
 188 0005 05       		.uleb128 .LEHE2-.LEHB2
 189 0006 2C       		.uleb128 .L19-.LFB1372
 190 0007 00       		.uleb128 0
 191 0008 3E       		.uleb128 .LEHB3-.LFB1372
 192 0009 05       		.uleb128 .LEHE3-.LEHB3
 193 000a 00       		.uleb128 0
 194 000b 00       		.uleb128 0
 195              	.LLSDACSE1372:
 196              		.section	.text._ZN24TestQueue_testReallocOOMD0Ev,"axG",@progbits,_ZN24TestQueue_testReallocOOMD5Ev
 198              		.section	.text._ZN22TestQueue_testAllocOOMD2Ev,"axG",@progbits,_ZN22TestQueue_testAllocOOMD5Ev,com
 199              		.align 2
 200              		.p2align 4
 201              		.weak	_ZN22TestQueue_testAllocOOMD2Ev
 203              	_ZN22TestQueue_testAllocOOMD2Ev:
 204              	.LFB1374:
 205              		.cfi_startproc
 206 0000 F30F1EFA 		endbr64
 207 0004 488D0500 		leaq	16+_ZTV22TestQueue_testAllocOOM(%rip), %rax
 207      000000
 208 000b 488907   		movq	%rax, (%rdi)
 209 000e E9000000 		jmp	_ZN8UnitTest4TestD2Ev@PLT
 209      00
 210              		.cfi_endproc
 211              	.LFE1374:
 213              		.weak	_ZN22TestQueue_testAllocOOMD1Ev
 214              		.set	_ZN22TestQueue_testAllocOOMD1Ev,_ZN22TestQueue_testAllocOOMD2Ev
 215              		.section	.text._ZN22TestQueue_testAllocOOMD0Ev,"axG",@progbits,_ZN22TestQueue_testAllocOOMD5Ev,com
 216              		.align 2
 217              		.p2align 4
 218              		.weak	_ZN22TestQueue_testAllocOOMD0Ev
 220              	_ZN22TestQueue_testAllocOOMD0Ev:
 221              	.LFB1376:
 222              		.cfi_startproc
 223              		.cfi_personality 0x9b,DW.ref.__gxx_personality_v0
 224              		.cfi_lsda 0x1b,.LLSDA1376
 225 0000 F30F1EFA 		endbr64
 226 0004 4154     		pushq	%r12
 227              		.cfi_def_cfa_offset 16
 228              		.cfi_offset 12, -16
 229 0006 488D0500 		leaq	16+_ZTV22TestQueue_testAllocOOM(%rip), %rax
 229      000000
 230 000d 55       		pushq	%rbp
 231              		.cfi_def_cfa_offset 24
 232              		.cfi_offset 6, -24
 233 000e 4889FD   		movq	%rdi, %rbp
 234 0011 4883EC08 		subq	$8, %rsp
 235              		.cfi_def_cfa_offset 32
 236 0015 488907   		movq	%rax, (%rdi)
 237              	.LEHB4:
 238 0018 E8000000 		call	_ZN8UnitTest4TestD2Ev@PLT
 238      00
 239              	.LEHE4:
 240 001d 4883C408 		addq	$8, %rsp
 241              		.cfi_remember_state
 242              		.cfi_def_cfa_offset 24
 243 0021 4889EF   		movq	%rbp, %rdi
 244 0024 5D       		popq	%rbp
 245              		.cfi_def_cfa_offset 16
 246 0025 415C     		popq	%r12
 247              		.cfi_def_cfa_offset 8
 248 0027 E9000000 		jmp	_ZdlPv@PLT
 248      00
 249              	.L24:
 250              		.cfi_restore_state
 251 002c F30F1EFA 		endbr64
 252 0030 4989C4   		movq	%rax, %r12
 253              	.L23:
 254 0033 4889EF   		movq	%rbp, %rdi
 255 0036 E8000000 		call	_ZdlPv@PLT
 255      00
 256 003b 4C89E7   		movq	%r12, %rdi
 257              	.LEHB5:
 258 003e E8000000 		call	_Unwind_Resume@PLT
 258      00
 259              	.LEHE5:
 260              		.cfi_endproc
 261              	.LFE1376:
 262              		.section	.gcc_except_table._ZN22TestQueue_testAllocOOMD0Ev,"aG",@progbits,_ZN22TestQueue_testAlloc
 263              	.LLSDA1376:
 264 0000 FF       		.byte	0xff
 265 0001 FF       		.byte	0xff
 266 0002 01       		.byte	0x1
 267 0003 08       		.uleb128 .LLSDACSE1376-.LLSDACSB1376
 268              	.LLSDACSB1376:
 269 0004 18       		.uleb128 .LEHB4-.LFB1376
 270 0005 05       		.uleb128 .LEHE4-.LEHB4
 271 0006 2C       		.uleb128 .L24-.LFB1376
 272 0007 00       		.uleb128 0
 273 0008 3E       		.uleb128 .LEHB5-.LFB1376
 274 0009 05       		.uleb128 .LEHE5-.LEHB5
 275 000a 00       		.uleb128 0
 276 000b 00       		.uleb128 0
 277              	.LLSDACSE1376:
 278              		.section	.text._ZN22TestQueue_testAllocOOMD0Ev,"axG",@progbits,_ZN22TestQueue_testAllocOOMD5Ev,com
 280              		.section	.text._ZN21TestQueue_testReallocD2Ev,"axG",@progbits,_ZN21TestQueue_testReallocD5Ev,comda
 281              		.align 2
 282              		.p2align 4
 283              		.weak	_ZN21TestQueue_testReallocD2Ev
 285              	_ZN21TestQueue_testReallocD2Ev:
 286              	.LFB1378:
 287              		.cfi_startproc
 288 0000 F30F1EFA 		endbr64
 289 0004 488D0500 		leaq	16+_ZTV21TestQueue_testRealloc(%rip), %rax
 289      000000
 290 000b 488907   		movq	%rax, (%rdi)
 291 000e E9000000 		jmp	_ZN8UnitTest4TestD2Ev@PLT
 291      00
 292              		.cfi_endproc
 293              	.LFE1378:
 295              		.weak	_ZN21TestQueue_testReallocD1Ev
 296              		.set	_ZN21TestQueue_testReallocD1Ev,_ZN21TestQueue_testReallocD2Ev
 297              		.section	.text._ZN21TestQueue_testReallocD0Ev,"axG",@progbits,_ZN21TestQueue_testReallocD5Ev,comda
 298              		.align 2
 299              		.p2align 4
 300              		.weak	_ZN21TestQueue_testReallocD0Ev
 302              	_ZN21TestQueue_testReallocD0Ev:
 303              	.LFB1380:
 304              		.cfi_startproc
 305              		.cfi_personality 0x9b,DW.ref.__gxx_personality_v0
 306              		.cfi_lsda 0x1b,.LLSDA1380
 307 0000 F30F1EFA 		endbr64
 308 0004 4154     		pushq	%r12
 309              		.cfi_def_cfa_offset 16
 310              		.cfi_offset 12, -16
 311 0006 488D0500 		leaq	16+_ZTV21TestQueue_testRealloc(%rip), %rax
 311      000000
 312 000d 55       		pushq	%rbp
 313              		.cfi_def_cfa_offset 24
 314              		.cfi_offset 6, -24
 315 000e 4889FD   		movq	%rdi, %rbp
 316 0011 4883EC08 		subq	$8, %rsp
 317              		.cfi_def_cfa_offset 32
 318 0015 488907   		movq	%rax, (%rdi)
 319              	.LEHB6:
 320 0018 E8000000 		call	_ZN8UnitTest4TestD2Ev@PLT
 320      00
 321              	.LEHE6:
 322 001d 4883C408 		addq	$8, %rsp
 323              		.cfi_remember_state
 324              		.cfi_def_cfa_offset 24
 325 0021 4889EF   		movq	%rbp, %rdi
 326 0024 5D       		popq	%rbp
 327              		.cfi_def_cfa_offset 16
 328 0025 415C     		popq	%r12
 329              		.cfi_def_cfa_offset 8
 330 0027 E9000000 		jmp	_ZdlPv@PLT
 330      00
 331              	.L29:
 332              		.cfi_restore_state
 333 002c F30F1EFA 		endbr64
 334 0030 4989C4   		movq	%rax, %r12
 335              	.L28:
 336 0033 4889EF   		movq	%rbp, %rdi
 337 0036 E8000000 		call	_ZdlPv@PLT
 337      00
 338 003b 4C89E7   		movq	%r12, %rdi
 339              	.LEHB7:
 340 003e E8000000 		call	_Unwind_Resume@PLT
 340      00
 341              	.LEHE7:
 342              		.cfi_endproc
 343              	.LFE1380:
 344              		.section	.gcc_except_table._ZN21TestQueue_testReallocD0Ev,"aG",@progbits,_ZN21TestQueue_testReallo
 345              	.LLSDA1380:
 346 0000 FF       		.byte	0xff
 347 0001 FF       		.byte	0xff
 348 0002 01       		.byte	0x1
 349 0003 08       		.uleb128 .LLSDACSE1380-.LLSDACSB1380
 350              	.LLSDACSB1380:
 351 0004 18       		.uleb128 .LEHB6-.LFB1380
 352 0005 05       		.uleb128 .LEHE6-.LEHB6
 353 0006 2C       		.uleb128 .L29-.LFB1380
 354 0007 00       		.uleb128 0
 355 0008 3E       		.uleb128 .LEHB7-.LFB1380
 356 0009 05       		.uleb128 .LEHE7-.LEHB7
 357 000a 00       		.uleb128 0
 358 000b 00       		.uleb128 0
 359              	.LLSDACSE1380:
 360              		.section	.text._ZN21TestQueue_testReallocD0Ev,"axG",@progbits,_ZN21TestQueue_testReallocD5Ev,comda
 362              		.section	.text._ZN21TestQueue_testPutTakeD2Ev,"axG",@progbits,_ZN21TestQueue_testPutTakeD5Ev,comda
 363              		.align 2
 364              		.p2align 4
 365              		.weak	_ZN21TestQueue_testPutTakeD2Ev
 367              	_ZN21TestQueue_testPutTakeD2Ev:
 368              	.LFB1382:
 369              		.cfi_startproc
 370 0000 F30F1EFA 		endbr64
 371 0004 488D0500 		leaq	16+_ZTV21TestQueue_testPutTake(%rip), %rax
 371      000000
 372 000b 488907   		movq	%rax, (%rdi)
 373 000e E9000000 		jmp	_ZN8UnitTest4TestD2Ev@PLT
 373      00
 374              		.cfi_endproc
 375              	.LFE1382:
 377              		.weak	_ZN21TestQueue_testPutTakeD1Ev
 378              		.set	_ZN21TestQueue_testPutTakeD1Ev,_ZN21TestQueue_testPutTakeD2Ev
 379              		.section	.text._ZN21TestQueue_testPutTakeD0Ev,"axG",@progbits,_ZN21TestQueue_testPutTakeD5Ev,comda
 380              		.align 2
 381              		.p2align 4
 382              		.weak	_ZN21TestQueue_testPutTakeD0Ev
 384              	_ZN21TestQueue_testPutTakeD0Ev:
 385              	.LFB1384:
 386              		.cfi_startproc
 387              		.cfi_personality 0x9b,DW.ref.__gxx_personality_v0
 388              		.cfi_lsda 0x1b,.LLSDA1384
 389 0000 F30F1EFA 		endbr64
 390 0004 4154     		pushq	%r12
 391              		.cfi_def_cfa_offset 16
 392              		.cfi_offset 12, -16
 393 0006 488D0500 		leaq	16+_ZTV21TestQueue_testPutTake(%rip), %rax
 393      000000
 394 000d 55       		pushq	%rbp
 395              		.cfi_def_cfa_offset 24
 396              		.cfi_offset 6, -24
 397 000e 4889FD   		movq	%rdi, %rbp
 398 0011 4883EC08 		subq	$8, %rsp
 399              		.cfi_def_cfa_offset 32
 400 0015 488907   		movq	%rax, (%rdi)
 401              	.LEHB8:
 402 0018 E8000000 		call	_ZN8UnitTest4TestD2Ev@PLT
 402      00
 403              	.LEHE8:
 404 001d 4883C408 		addq	$8, %rsp
 405              		.cfi_remember_state
 406              		.cfi_def_cfa_offset 24
 407 0021 4889EF   		movq	%rbp, %rdi
 408 0024 5D       		popq	%rbp
 409              		.cfi_def_cfa_offset 16
 410 0025 415C     		popq	%r12
 411              		.cfi_def_cfa_offset 8
 412 0027 E9000000 		jmp	_ZdlPv@PLT
 412      00
 413              	.L34:
 414              		.cfi_restore_state
 415 002c F30F1EFA 		endbr64
 416 0030 4989C4   		movq	%rax, %r12
 417              	.L33:
 418 0033 4889EF   		movq	%rbp, %rdi
 419 0036 E8000000 		call	_ZdlPv@PLT
 419      00
 420 003b 4C89E7   		movq	%r12, %rdi
 421              	.LEHB9:
 422 003e E8000000 		call	_Unwind_Resume@PLT
 422      00
 423              	.LEHE9:
 424              		.cfi_endproc
 425              	.LFE1384:
 426              		.section	.gcc_except_table._ZN21TestQueue_testPutTakeD0Ev,"aG",@progbits,_ZN21TestQueue_testPutTak
 427              	.LLSDA1384:
 428 0000 FF       		.byte	0xff
 429 0001 FF       		.byte	0xff
 430 0002 01       		.byte	0x1
 431 0003 08       		.uleb128 .LLSDACSE1384-.LLSDACSB1384
 432              	.LLSDACSB1384:
 433 0004 18       		.uleb128 .LEHB8-.LFB1384
 434 0005 05       		.uleb128 .LEHE8-.LEHB8
 435 0006 2C       		.uleb128 .L34-.LFB1384
 436 0007 00       		.uleb128 0
 437 0008 3E       		.uleb128 .LEHB9-.LFB1384
 438 0009 05       		.uleb128 .LEHE9-.LEHB9
 439 000a 00       		.uleb128 0
 440 000b 00       		.uleb128 0
 441              	.LLSDACSE1384:
 442              		.section	.text._ZN21TestQueue_testPutTakeD0Ev,"axG",@progbits,_ZN21TestQueue_testPutTakeD5Ev,comda
 444              		.section	.text._ZN21TestQueue_testPutWrapD2Ev,"axG",@progbits,_ZN21TestQueue_testPutWrapD5Ev,comda
 445              		.align 2
 446              		.p2align 4
 447              		.weak	_ZN21TestQueue_testPutWrapD2Ev
 449              	_ZN21TestQueue_testPutWrapD2Ev:
 450              	.LFB1386:
 451              		.cfi_startproc
 452 0000 F30F1EFA 		endbr64
 453 0004 488D0500 		leaq	16+_ZTV21TestQueue_testPutWrap(%rip), %rax
 453      000000
 454 000b 488907   		movq	%rax, (%rdi)
 455 000e E9000000 		jmp	_ZN8UnitTest4TestD2Ev@PLT
 455      00
 456              		.cfi_endproc
 457              	.LFE1386:
 459              		.weak	_ZN21TestQueue_testPutWrapD1Ev
 460              		.set	_ZN21TestQueue_testPutWrapD1Ev,_ZN21TestQueue_testPutWrapD2Ev
 461              		.section	.text._ZN21TestQueue_testPutWrapD0Ev,"axG",@progbits,_ZN21TestQueue_testPutWrapD5Ev,comda
 462              		.align 2
 463              		.p2align 4
 464              		.weak	_ZN21TestQueue_testPutWrapD0Ev
 466              	_ZN21TestQueue_testPutWrapD0Ev:
 467              	.LFB1388:
 468              		.cfi_startproc
 469              		.cfi_personality 0x9b,DW.ref.__gxx_personality_v0
 470              		.cfi_lsda 0x1b,.LLSDA1388
 471 0000 F30F1EFA 		endbr64
 472 0004 4154     		pushq	%r12
 473              		.cfi_def_cfa_offset 16
 474              		.cfi_offset 12, -16
 475 0006 488D0500 		leaq	16+_ZTV21TestQueue_testPutWrap(%rip), %rax
 475      000000
 476 000d 55       		pushq	%rbp
 477              		.cfi_def_cfa_offset 24
 478              		.cfi_offset 6, -24
 479 000e 4889FD   		movq	%rdi, %rbp
 480 0011 4883EC08 		subq	$8, %rsp
 481              		.cfi_def_cfa_offset 32
 482 0015 488907   		movq	%rax, (%rdi)
 483              	.LEHB10:
 484 0018 E8000000 		call	_ZN8UnitTest4TestD2Ev@PLT
 484      00
 485              	.LEHE10:
 486 001d 4883C408 		addq	$8, %rsp
 487              		.cfi_remember_state
 488              		.cfi_def_cfa_offset 24
 489 0021 4889EF   		movq	%rbp, %rdi
 490 0024 5D       		popq	%rbp
 491              		.cfi_def_cfa_offset 16
 492 0025 415C     		popq	%r12
 493              		.cfi_def_cfa_offset 8
 494 0027 E9000000 		jmp	_ZdlPv@PLT
 494      00
 495              	.L39:
 496              		.cfi_restore_state
 497 002c F30F1EFA 		endbr64
 498 0030 4989C4   		movq	%rax, %r12
 499              	.L38:
 500 0033 4889EF   		movq	%rbp, %rdi
 501 0036 E8000000 		call	_ZdlPv@PLT
 501      00
 502 003b 4C89E7   		movq	%r12, %rdi
 503              	.LEHB11:
 504 003e E8000000 		call	_Unwind_Resume@PLT
 504      00
 505              	.LEHE11:
 506              		.cfi_endproc
 507              	.LFE1388:
 508              		.section	.gcc_except_table._ZN21TestQueue_testPutWrapD0Ev,"aG",@progbits,_ZN21TestQueue_testPutWra
 509              	.LLSDA1388:
 510 0000 FF       		.byte	0xff
 511 0001 FF       		.byte	0xff
 512 0002 01       		.byte	0x1
 513 0003 08       		.uleb128 .LLSDACSE1388-.LLSDACSB1388
 514              	.LLSDACSB1388:
 515 0004 18       		.uleb128 .LEHB10-.LFB1388
 516 0005 05       		.uleb128 .LEHE10-.LEHB10
 517 0006 2C       		.uleb128 .L39-.LFB1388
 518 0007 00       		.uleb128 0
 519 0008 3E       		.uleb128 .LEHB11-.LFB1388
 520 0009 05       		.uleb128 .LEHE11-.LEHB11
 521 000a 00       		.uleb128 0
 522 000b 00       		.uleb128 0
 523              	.LLSDACSE1388:
 524              		.section	.text._ZN21TestQueue_testPutWrapD0Ev,"axG",@progbits,_ZN21TestQueue_testPutWrapD5Ev,comda
 526              		.section	.text._ZN23TestQueue_testPutNoWrapD2Ev,"axG",@progbits,_ZN23TestQueue_testPutNoWrapD5Ev,c
 527              		.align 2
 528              		.p2align 4
 529              		.weak	_ZN23TestQueue_testPutNoWrapD2Ev
 531              	_ZN23TestQueue_testPutNoWrapD2Ev:
 532              	.LFB1390:
 533              		.cfi_startproc
 534 0000 F30F1EFA 		endbr64
 535 0004 488D0500 		leaq	16+_ZTV23TestQueue_testPutNoWrap(%rip), %rax
 535      000000
 536 000b 488907   		movq	%rax, (%rdi)
 537 000e E9000000 		jmp	_ZN8UnitTest4TestD2Ev@PLT
 537      00
 538              		.cfi_endproc
 539              	.LFE1390:
 541              		.weak	_ZN23TestQueue_testPutNoWrapD1Ev
 542              		.set	_ZN23TestQueue_testPutNoWrapD1Ev,_ZN23TestQueue_testPutNoWrapD2Ev
 543              		.section	.text._ZN23TestQueue_testPutNoWrapD0Ev,"axG",@progbits,_ZN23TestQueue_testPutNoWrapD5Ev,c
 544              		.align 2
 545              		.p2align 4
 546              		.weak	_ZN23TestQueue_testPutNoWrapD0Ev
 548              	_ZN23TestQueue_testPutNoWrapD0Ev:
 549              	.LFB1392:
 550              		.cfi_startproc
 551              		.cfi_personality 0x9b,DW.ref.__gxx_personality_v0
 552              		.cfi_lsda 0x1b,.LLSDA1392
 553 0000 F30F1EFA 		endbr64
 554 0004 4154     		pushq	%r12
 555              		.cfi_def_cfa_offset 16
 556              		.cfi_offset 12, -16
 557 0006 488D0500 		leaq	16+_ZTV23TestQueue_testPutNoWrap(%rip), %rax
 557      000000
 558 000d 55       		pushq	%rbp
 559              		.cfi_def_cfa_offset 24
 560              		.cfi_offset 6, -24
 561 000e 4889FD   		movq	%rdi, %rbp
 562 0011 4883EC08 		subq	$8, %rsp
 563              		.cfi_def_cfa_offset 32
 564 0015 488907   		movq	%rax, (%rdi)
 565              	.LEHB12:
 566 0018 E8000000 		call	_ZN8UnitTest4TestD2Ev@PLT
 566      00
 567              	.LEHE12:
 568 001d 4883C408 		addq	$8, %rsp
 569              		.cfi_remember_state
 570              		.cfi_def_cfa_offset 24
 571 0021 4889EF   		movq	%rbp, %rdi
 572 0024 5D       		popq	%rbp
 573              		.cfi_def_cfa_offset 16
 574 0025 415C     		popq	%r12
 575              		.cfi_def_cfa_offset 8
 576 0027 E9000000 		jmp	_ZdlPv@PLT
 576      00
 577              	.L44:
 578              		.cfi_restore_state
 579 002c F30F1EFA 		endbr64
 580 0030 4989C4   		movq	%rax, %r12
 581              	.L43:
 582 0033 4889EF   		movq	%rbp, %rdi
 583 0036 E8000000 		call	_ZdlPv@PLT
 583      00
 584 003b 4C89E7   		movq	%r12, %rdi
 585              	.LEHB13:
 586 003e E8000000 		call	_Unwind_Resume@PLT
 586      00
 587              	.LEHE13:
 588              		.cfi_endproc
 589              	.LFE1392:
 590              		.section	.gcc_except_table._ZN23TestQueue_testPutNoWrapD0Ev,"aG",@progbits,_ZN23TestQueue_testPutN
 591              	.LLSDA1392:
 592 0000 FF       		.byte	0xff
 593 0001 FF       		.byte	0xff
 594 0002 01       		.byte	0x1
 595 0003 08       		.uleb128 .LLSDACSE1392-.LLSDACSB1392
 596              	.LLSDACSB1392:
 597 0004 18       		.uleb128 .LEHB12-.LFB1392
 598 0005 05       		.uleb128 .LEHE12-.LEHB12
 599 0006 2C       		.uleb128 .L44-.LFB1392
 600 0007 00       		.uleb128 0
 601 0008 3E       		.uleb128 .LEHB13-.LFB1392
 602 0009 05       		.uleb128 .LEHE13-.LEHB13
 603 000a 00       		.uleb128 0
 604 000b 00       		.uleb128 0
 605              	.LLSDACSE1392:
 606              		.section	.text._ZN23TestQueue_testPutNoWrapD0Ev,"axG",@progbits,_ZN23TestQueue_testPutNoWrapD5Ev,c
 608              		.section	.text._ZN18TestQueue_testInitD2Ev,"axG",@progbits,_ZN18TestQueue_testInitD5Ev,comdat
 609              		.align 2
 610              		.p2align 4
 611              		.weak	_ZN18TestQueue_testInitD2Ev
 613              	_ZN18TestQueue_testInitD2Ev:
 614              	.LFB1394:
 615              		.cfi_startproc
 616 0000 F30F1EFA 		endbr64
 617 0004 488D0500 		leaq	16+_ZTV18TestQueue_testInit(%rip), %rax
 617      000000
 618 000b 488907   		movq	%rax, (%rdi)
 619 000e E9000000 		jmp	_ZN8UnitTest4TestD2Ev@PLT
 619      00
 620              		.cfi_endproc
 621              	.LFE1394:
 623              		.weak	_ZN18TestQueue_testInitD1Ev
 624              		.set	_ZN18TestQueue_testInitD1Ev,_ZN18TestQueue_testInitD2Ev
 625              		.section	.text._ZN18TestQueue_testInitD0Ev,"axG",@progbits,_ZN18TestQueue_testInitD5Ev,comdat
 626              		.align 2
 627              		.p2align 4
 628              		.weak	_ZN18TestQueue_testInitD0Ev
 630              	_ZN18TestQueue_testInitD0Ev:
 631              	.LFB1396:
 632              		.cfi_startproc
 633              		.cfi_personality 0x9b,DW.ref.__gxx_personality_v0
 634              		.cfi_lsda 0x1b,.LLSDA1396
 635 0000 F30F1EFA 		endbr64
 636 0004 4154     		pushq	%r12
 637              		.cfi_def_cfa_offset 16
 638              		.cfi_offset 12, -16
 639 0006 488D0500 		leaq	16+_ZTV18TestQueue_testInit(%rip), %rax
 639      000000
 640 000d 55       		pushq	%rbp
 641              		.cfi_def_cfa_offset 24
 642              		.cfi_offset 6, -24
 643 000e 4889FD   		movq	%rdi, %rbp
 644 0011 4883EC08 		subq	$8, %rsp
 645              		.cfi_def_cfa_offset 32
 646 0015 488907   		movq	%rax, (%rdi)
 647              	.LEHB14:
 648 0018 E8000000 		call	_ZN8UnitTest4TestD2Ev@PLT
 648      00
 649              	.LEHE14:
 650 001d 4883C408 		addq	$8, %rsp
 651              		.cfi_remember_state
 652              		.cfi_def_cfa_offset 24
 653 0021 4889EF   		movq	%rbp, %rdi
 654 0024 5D       		popq	%rbp
 655              		.cfi_def_cfa_offset 16
 656 0025 415C     		popq	%r12
 657              		.cfi_def_cfa_offset 8
 658 0027 E9000000 		jmp	_ZdlPv@PLT
 658      00
 659              	.L49:
 660              		.cfi_restore_state
 661 002c F30F1EFA 		endbr64
 662 0030 4989C4   		movq	%rax, %r12
 663              	.L48:
 664 0033 4889EF   		movq	%rbp, %rdi
 665 0036 E8000000 		call	_ZdlPv@PLT
 665      00
 666 003b 4C89E7   		movq	%r12, %rdi
 667              	.LEHB15:
 668 003e E8000000 		call	_Unwind_Resume@PLT
 668      00
 669              	.LEHE15:
 670              		.cfi_endproc
 671              	.LFE1396:
 672              		.section	.gcc_except_table._ZN18TestQueue_testInitD0Ev,"aG",@progbits,_ZN18TestQueue_testInitD5Ev,
 673              	.LLSDA1396:
 674 0000 FF       		.byte	0xff
 675 0001 FF       		.byte	0xff
 676 0002 01       		.byte	0x1
 677 0003 08       		.uleb128 .LLSDACSE1396-.LLSDACSB1396
 678              	.LLSDACSB1396:
 679 0004 18       		.uleb128 .LEHB14-.LFB1396
 680 0005 05       		.uleb128 .LEHE14-.LEHB14
 681 0006 2C       		.uleb128 .L49-.LFB1396
 682 0007 00       		.uleb128 0
 683 0008 3E       		.uleb128 .LEHB15-.LFB1396
 684 0009 05       		.uleb128 .LEHE15-.LEHB15
 685 000a 00       		.uleb128 0
 686 000b 00       		.uleb128 0
 687              	.LLSDACSE1396:
 688              		.section	.text._ZN18TestQueue_testInitD0Ev,"axG",@progbits,_ZN18TestQueue_testInitD5Ev,comdat
 690              		.text
 691 0035 66662E0F 		.p2align 4
 691      1F840000 
 691      000000
 692              		.globl	destroyInt
 694              	destroyInt:
 695              	.LFB1241:
 696              		.cfi_startproc
 697 0040 F30F1EFA 		endbr64
 698 0044 4885FF   		testq	%rdi, %rdi
 699 0047 740F     		je	.L51
 700 0049 832D0000 		subl	$1, _ZL11m_allocFree(%rip)
 700      000001
 701 0050 E9000000 		jmp	free@PLT
 701      00
 702              		.p2align 4,,10
 703 0055 0F1F00   		.p2align 3
 704              	.L51:
 705 0058 C3       		ret
 706              		.cfi_endproc
 707              	.LFE1241:
 709              		.section	.text._ZN8UnitTest15MemoryOutStreamD1Ev,"axG",@progbits,_ZN8UnitTest15MemoryOutStreamD1Ev
 710              		.align 2
 711              		.p2align 4
 712              		.weak	_ZN8UnitTest15MemoryOutStreamD1Ev
 714              	_ZN8UnitTest15MemoryOutStreamD1Ev:
 715              	.LFB1306:
 716              		.cfi_startproc
 717 0000 F30F1EFA 		endbr64
 718 0004 55       		pushq	%rbp
 719              		.cfi_def_cfa_offset 16
 720              		.cfi_offset 6, -16
 721 0005 488D0500 		leaq	24+_ZTVN8UnitTest15MemoryOutStreamE(%rip), %rax
 721      000000
 722 000c 53       		pushq	%rbx
 723              		.cfi_def_cfa_offset 24
 724              		.cfi_offset 3, -24
 725 000d 4889FB   		movq	%rdi, %rbx
 726 0010 4883EC08 		subq	$8, %rsp
 727              		.cfi_def_cfa_offset 32
 728 0014 488907   		movq	%rax, (%rdi)
 729 0017 4883C028 		addq	$40, %rax
 730 001b 48898790 		movq	%rax, 144(%rdi)
 730      000000
 731 0022 488B7F70 		movq	112(%rdi), %rdi
 732 0026 488D8380 		leaq	128(%rbx), %rax
 732      000000
 733 002d 4839C7   		cmpq	%rax, %rdi
 734 0030 7405     		je	.L54
 735 0032 E8000000 		call	_ZdlPv@PLT
 735      00
 736              	.L54:
 737 0037 488D0500 		leaq	64+_ZTCN8UnitTest15MemoryOutStreamE0_NSt7__cxx1119basic_ostringstreamIcSt11char_traitsIcESaIc
 737      000000
 738 003e 488D1500 		leaq	24+_ZTCN8UnitTest15MemoryOutStreamE0_NSt7__cxx1119basic_ostringstreamIcSt11char_traitsIcESaIc
 738      000000
 739 0045 488B7B50 		movq	80(%rbx), %rdi
 740 0049 48898390 		movq	%rax, 144(%rbx)
 740      000000
 741 0050 488D0500 		leaq	16+_ZTVNSt7__cxx1115basic_stringbufIcSt11char_traitsIcESaIcEEE(%rip), %rax
 741      000000
 742 0057 66480F6E 		movq	%rdx, %xmm0
 742      C2
 743 005c 488DAB90 		leaq	144(%rbx), %rbp
 743      000000
 744 0063 66480F6E 		movq	%rax, %xmm1
 744      C8
 745 0068 488D4360 		leaq	96(%rbx), %rax
 746 006c 660F6CC1 		punpcklqdq	%xmm1, %xmm0
 747 0070 0F1103   		movups	%xmm0, (%rbx)
 748 0073 4839C7   		cmpq	%rax, %rdi
 749 0076 7405     		je	.L55
 750 0078 E8000000 		call	_ZdlPv@PLT
 750      00
 751              	.L55:
 752 007d 488D0500 		leaq	16+_ZTVSt15basic_streambufIcSt11char_traitsIcEE(%rip), %rax
 752      000000
 753 0084 488D7B40 		leaq	64(%rbx), %rdi
 754 0088 48894308 		movq	%rax, 8(%rbx)
 755 008c E8000000 		call	_ZNSt6localeD1Ev@PLT
 755      00
 756 0091 488D0500 		leaq	24+_ZTCN8UnitTest15MemoryOutStreamE0_So(%rip), %rax
 756      000000
 757 0098 4889EF   		movq	%rbp, %rdi
 758 009b 488903   		movq	%rax, (%rbx)
 759 009e 488D0500 		leaq	16+_ZTVSt9basic_iosIcSt11char_traitsIcEE(%rip), %rax
 759      000000
 760 00a5 48898390 		movq	%rax, 144(%rbx)
 760      000000
 761 00ac 4883C408 		addq	$8, %rsp
 762              		.cfi_def_cfa_offset 24
 763 00b0 5B       		popq	%rbx
 764              		.cfi_def_cfa_offset 16
 765 00b1 5D       		popq	%rbp
 766              		.cfi_def_cfa_offset 8
 767 00b2 E9000000 		jmp	_ZNSt8ios_baseD2Ev@PLT
 767      00
 768              		.cfi_endproc
 769              	.LFE1306:
 771 00b7 660F1F84 		.p2align 4
 771      00000000 
 771      00
 772              		.weak	_ZTv0_n24_N8UnitTest15MemoryOutStreamD1Ev
 774              	_ZTv0_n24_N8UnitTest15MemoryOutStreamD1Ev:
 775              	.LFB1402:
 776              		.cfi_startproc
 777 00c0 F30F1EFA 		endbr64
 778 00c4 55       		pushq	%rbp
 779              		.cfi_def_cfa_offset 16
 780              		.cfi_offset 6, -16
 781 00c5 53       		pushq	%rbx
 782              		.cfi_def_cfa_offset 24
 783              		.cfi_offset 3, -24
 784 00c6 4889FB   		movq	%rdi, %rbx
 785 00c9 4883EC08 		subq	$8, %rsp
 786              		.cfi_def_cfa_offset 32
 787 00cd 488B07   		movq	(%rdi), %rax
 788 00d0 480358E8 		addq	-24(%rax), %rbx
 789 00d4 488D0500 		leaq	24+_ZTVN8UnitTest15MemoryOutStreamE(%rip), %rax
 789      000000
 790 00db 488903   		movq	%rax, (%rbx)
 791 00de 488B7B70 		movq	112(%rbx), %rdi
 792 00e2 4883C028 		addq	$40, %rax
 793 00e6 48898390 		movq	%rax, 144(%rbx)
 793      000000
 794 00ed 488D8380 		leaq	128(%rbx), %rax
 794      000000
 795 00f4 4839C7   		cmpq	%rax, %rdi
 796 00f7 7405     		je	.L58
 797 00f9 E8000000 		call	_ZdlPv@PLT
 797      00
 798              	.L58:
 799 00fe 488D0500 		leaq	64+_ZTCN8UnitTest15MemoryOutStreamE0_NSt7__cxx1119basic_ostringstreamIcSt11char_traitsIcESaIc
 799      000000
 800 0105 488D1500 		leaq	24+_ZTCN8UnitTest15MemoryOutStreamE0_NSt7__cxx1119basic_ostringstreamIcSt11char_traitsIcESaIc
 800      000000
 801 010c 488B7B50 		movq	80(%rbx), %rdi
 802 0110 48898390 		movq	%rax, 144(%rbx)
 802      000000
 803 0117 488D0500 		leaq	16+_ZTVNSt7__cxx1115basic_stringbufIcSt11char_traitsIcESaIcEEE(%rip), %rax
 803      000000
 804 011e 66480F6E 		movq	%rdx, %xmm0
 804      C2
 805 0123 488DAB90 		leaq	144(%rbx), %rbp
 805      000000
 806 012a 66480F6E 		movq	%rax, %xmm1
 806      C8
 807 012f 488D4360 		leaq	96(%rbx), %rax
 808 0133 660F6CC1 		punpcklqdq	%xmm1, %xmm0
 809 0137 0F1103   		movups	%xmm0, (%rbx)
 810 013a 4839C7   		cmpq	%rax, %rdi
 811 013d 7405     		je	.L59
 812 013f E8000000 		call	_ZdlPv@PLT
 812      00
 813              	.L59:
 814 0144 488D0500 		leaq	16+_ZTVSt15basic_streambufIcSt11char_traitsIcEE(%rip), %rax
 814      000000
 815 014b 488D7B40 		leaq	64(%rbx), %rdi
 816 014f 48894308 		movq	%rax, 8(%rbx)
 817 0153 E8000000 		call	_ZNSt6localeD1Ev@PLT
 817      00
 818 0158 488D0500 		leaq	24+_ZTCN8UnitTest15MemoryOutStreamE0_So(%rip), %rax
 818      000000
 819 015f 4889EF   		movq	%rbp, %rdi
 820 0162 488903   		movq	%rax, (%rbx)
 821 0165 488D0500 		leaq	16+_ZTVSt9basic_iosIcSt11char_traitsIcEE(%rip), %rax
 821      000000
 822 016c 48898390 		movq	%rax, 144(%rbx)
 822      000000
 823 0173 4883C408 		addq	$8, %rsp
 824              		.cfi_def_cfa_offset 24
 825 0177 5B       		popq	%rbx
 826              		.cfi_def_cfa_offset 16
 827 0178 5D       		popq	%rbp
 828              		.cfi_def_cfa_offset 8
 829 0179 E9000000 		jmp	_ZNSt8ios_baseD2Ev@PLT
 829      00
 830              		.cfi_endproc
 831              	.LFE1402:
 833              		.section	.text._ZN8UnitTest15MemoryOutStreamD0Ev,"axG",@progbits,_ZN8UnitTest15MemoryOutStreamD0Ev
 834              		.align 2
 835              		.p2align 4
 836              		.weak	_ZN8UnitTest15MemoryOutStreamD0Ev
 838              	_ZN8UnitTest15MemoryOutStreamD0Ev:
 839              	.LFB1307:
 840              		.cfi_startproc
 841              		.cfi_personality 0x9b,DW.ref.__gxx_personality_v0
 842              		.cfi_lsda 0x1b,.LLSDA1307
 843 0000 F30F1EFA 		endbr64
 844 0004 4154     		pushq	%r12
 845              		.cfi_def_cfa_offset 16
 846              		.cfi_offset 12, -16
 847 0006 488D0500 		leaq	24+_ZTVN8UnitTest15MemoryOutStreamE(%rip), %rax
 847      000000
 848 000d 55       		pushq	%rbp
 849              		.cfi_def_cfa_offset 24
 850              		.cfi_offset 6, -24
 851 000e 4889FD   		movq	%rdi, %rbp
 852 0011 4883EC08 		subq	$8, %rsp
 853              		.cfi_def_cfa_offset 32
 854 0015 488907   		movq	%rax, (%rdi)
 855 0018 4883C028 		addq	$40, %rax
 856 001c 48898790 		movq	%rax, 144(%rdi)
 856      000000
 857 0023 488B7F70 		movq	112(%rdi), %rdi
 858 0027 488D8580 		leaq	128(%rbp), %rax
 858      000000
 859 002e 4839C7   		cmpq	%rax, %rdi
 860 0031 7405     		je	.L62
 861 0033 E8000000 		call	_ZdlPv@PLT
 861      00
 862              	.L62:
 863 0038 488D0500 		leaq	64+_ZTCN8UnitTest15MemoryOutStreamE0_NSt7__cxx1119basic_ostringstreamIcSt11char_traitsIcESaIc
 863      000000
 864 003f 488D1500 		leaq	24+_ZTCN8UnitTest15MemoryOutStreamE0_NSt7__cxx1119basic_ostringstreamIcSt11char_traitsIcESaIc
 864      000000
 865 0046 488B7D50 		movq	80(%rbp), %rdi
 866 004a 48898590 		movq	%rax, 144(%rbp)
 866      000000
 867 0051 488D0500 		leaq	16+_ZTVNSt7__cxx1115basic_stringbufIcSt11char_traitsIcESaIcEEE(%rip), %rax
 867      000000
 868 0058 66480F6E 		movq	%rdx, %xmm0
 868      C2
 869 005d 4C8DA590 		leaq	144(%rbp), %r12
 869      000000
 870 0064 66480F6E 		movq	%rax, %xmm1
 870      C8
 871 0069 488D4560 		leaq	96(%rbp), %rax
 872 006d 660F6CC1 		punpcklqdq	%xmm1, %xmm0
 873 0071 0F114500 		movups	%xmm0, 0(%rbp)
 874 0075 4839C7   		cmpq	%rax, %rdi
 875 0078 7405     		je	.L63
 876 007a E8000000 		call	_ZdlPv@PLT
 876      00
 877              	.L63:
 878 007f 488D0500 		leaq	16+_ZTVSt15basic_streambufIcSt11char_traitsIcEE(%rip), %rax
 878      000000
 879 0086 488D7D40 		leaq	64(%rbp), %rdi
 880 008a 48894508 		movq	%rax, 8(%rbp)
 881 008e E8000000 		call	_ZNSt6localeD1Ev@PLT
 881      00
 882 0093 488D0500 		leaq	24+_ZTCN8UnitTest15MemoryOutStreamE0_So(%rip), %rax
 882      000000
 883 009a 4C89E7   		movq	%r12, %rdi
 884 009d 48894500 		movq	%rax, 0(%rbp)
 885 00a1 488D0500 		leaq	16+_ZTVSt9basic_iosIcSt11char_traitsIcEE(%rip), %rax
 885      000000
 886 00a8 48898590 		movq	%rax, 144(%rbp)
 886      000000
 887              	.LEHB16:
 888 00af E8000000 		call	_ZNSt8ios_baseD2Ev@PLT
 888      00
 889              	.LEHE16:
 890 00b4 4883C408 		addq	$8, %rsp
 891              		.cfi_remember_state
 892              		.cfi_def_cfa_offset 24
 893 00b8 4889EF   		movq	%rbp, %rdi
 894 00bb 5D       		popq	%rbp
 895              		.cfi_def_cfa_offset 16
 896 00bc 415C     		popq	%r12
 897              		.cfi_def_cfa_offset 8
 898 00be E9000000 		jmp	_ZdlPv@PLT
 898      00
 899              	.L65:
 900              		.cfi_restore_state
 901 00c3 F30F1EFA 		endbr64
 902 00c7 4989C4   		movq	%rax, %r12
 903              	.L64:
 904 00ca 4889EF   		movq	%rbp, %rdi
 905 00cd E8000000 		call	_ZdlPv@PLT
 905      00
 906 00d2 4C89E7   		movq	%r12, %rdi
 907              	.LEHB17:
 908 00d5 E8000000 		call	_Unwind_Resume@PLT
 908      00
 909              	.LEHE17:
 910              		.cfi_endproc
 911              	.LFE1307:
 912              		.section	.gcc_except_table._ZN8UnitTest15MemoryOutStreamD0Ev,"aG",@progbits,_ZN8UnitTest15MemoryOu
 913              	.LLSDA1307:
 914 0000 FF       		.byte	0xff
 915 0001 FF       		.byte	0xff
 916 0002 01       		.byte	0x1
 917 0003 0B       		.uleb128 .LLSDACSE1307-.LLSDACSB1307
 918              	.LLSDACSB1307:
 919 0004 AF01     		.uleb128 .LEHB16-.LFB1307
 920 0006 05       		.uleb128 .LEHE16-.LEHB16
 921 0007 C301     		.uleb128 .L65-.LFB1307
 922 0009 00       		.uleb128 0
 923 000a D501     		.uleb128 .LEHB17-.LFB1307
 924 000c 05       		.uleb128 .LEHE17-.LEHB17
 925 000d 00       		.uleb128 0
 926 000e 00       		.uleb128 0
 927              	.LLSDACSE1307:
 928              		.section	.text._ZN8UnitTest15MemoryOutStreamD0Ev,"axG",@progbits,_ZN8UnitTest15MemoryOutStreamD0Ev
 930 00da 660F1F44 		.p2align 4
 930      0000
 931              		.weak	_ZTv0_n24_N8UnitTest15MemoryOutStreamD0Ev
 933              	_ZTv0_n24_N8UnitTest15MemoryOutStreamD0Ev:
 934              	.LFB1401:
 935              		.cfi_startproc
 936              		.cfi_personality 0x9b,DW.ref.__gxx_personality_v0
 937              		.cfi_lsda 0x1b,.LLSDA1401
 938 00e0 F30F1EFA 		endbr64
 939 00e4 4154     		pushq	%r12
 940              		.cfi_def_cfa_offset 16
 941              		.cfi_offset 12, -16
 942 00e6 55       		pushq	%rbp
 943              		.cfi_def_cfa_offset 24
 944              		.cfi_offset 6, -24
 945 00e7 4889FD   		movq	%rdi, %rbp
 946 00ea 4883EC08 		subq	$8, %rsp
 947              		.cfi_def_cfa_offset 32
 948 00ee 488B07   		movq	(%rdi), %rax
 949 00f1 480368E8 		addq	-24(%rax), %rbp
 950 00f5 488D0500 		leaq	24+_ZTVN8UnitTest15MemoryOutStreamE(%rip), %rax
 950      000000
 951 00fc 48894500 		movq	%rax, 0(%rbp)
 952 0100 488B7D70 		movq	112(%rbp), %rdi
 953 0104 4883C028 		addq	$40, %rax
 954 0108 48898590 		movq	%rax, 144(%rbp)
 954      000000
 955 010f 488D8580 		leaq	128(%rbp), %rax
 955      000000
 956 0116 4839C7   		cmpq	%rax, %rdi
 957 0119 7405     		je	.L68
 958 011b E8000000 		call	_ZdlPv@PLT
 958      00
 959              	.L68:
 960 0120 488D0500 		leaq	64+_ZTCN8UnitTest15MemoryOutStreamE0_NSt7__cxx1119basic_ostringstreamIcSt11char_traitsIcESaIc
 960      000000
 961 0127 488D1500 		leaq	24+_ZTCN8UnitTest15MemoryOutStreamE0_NSt7__cxx1119basic_ostringstreamIcSt11char_traitsIcESaIc
 961      000000
 962 012e 488B7D50 		movq	80(%rbp), %rdi
 963 0132 48898590 		movq	%rax, 144(%rbp)
 963      000000
 964 0139 488D0500 		leaq	16+_ZTVNSt7__cxx1115basic_stringbufIcSt11char_traitsIcESaIcEEE(%rip), %rax
 964      000000
 965 0140 66480F6E 		movq	%rdx, %xmm0
 965      C2
 966 0145 4C8DA590 		leaq	144(%rbp), %r12
 966      000000
 967 014c 66480F6E 		movq	%rax, %xmm1
 967      C8
 968 0151 488D4560 		leaq	96(%rbp), %rax
 969 0155 660F6CC1 		punpcklqdq	%xmm1, %xmm0
 970 0159 0F114500 		movups	%xmm0, 0(%rbp)
 971 015d 4839C7   		cmpq	%rax, %rdi
 972 0160 7405     		je	.L69
 973 0162 E8000000 		call	_ZdlPv@PLT
 973      00
 974              	.L69:
 975 0167 488D0500 		leaq	16+_ZTVSt15basic_streambufIcSt11char_traitsIcEE(%rip), %rax
 975      000000
 976 016e 488D7D40 		leaq	64(%rbp), %rdi
 977 0172 48894508 		movq	%rax, 8(%rbp)
 978 0176 E8000000 		call	_ZNSt6localeD1Ev@PLT
 978      00
 979 017b 488D0500 		leaq	24+_ZTCN8UnitTest15MemoryOutStreamE0_So(%rip), %rax
 979      000000
 980 0182 4C89E7   		movq	%r12, %rdi
 981 0185 48894500 		movq	%rax, 0(%rbp)
 982 0189 488D0500 		leaq	16+_ZTVSt9basic_iosIcSt11char_traitsIcEE(%rip), %rax
 982      000000
 983 0190 48898590 		movq	%rax, 144(%rbp)
 983      000000
 984              	.LEHB18:
 985 0197 E8000000 		call	_ZNSt8ios_baseD2Ev@PLT
 985      00
 986              	.LEHE18:
 987 019c 4883C408 		addq	$8, %rsp
 988              		.cfi_remember_state
 989              		.cfi_def_cfa_offset 24
 990 01a0 4889EF   		movq	%rbp, %rdi
 991 01a3 5D       		popq	%rbp
 992              		.cfi_def_cfa_offset 16
 993 01a4 415C     		popq	%r12
 994              		.cfi_def_cfa_offset 8
 995 01a6 E9000000 		jmp	_ZdlPv@PLT
 995      00
 996              	.L71:
 997              		.cfi_restore_state
 998 01ab F30F1EFA 		endbr64
 999 01af 4989C4   		movq	%rax, %r12
 1000              	.L70:
 1001 01b2 4889EF   		movq	%rbp, %rdi
 1002 01b5 E8000000 		call	_ZdlPv@PLT
 1002      00
 1003 01ba 4C89E7   		movq	%r12, %rdi
 1004              	.LEHB19:
 1005 01bd E8000000 		call	_Unwind_Resume@PLT
 1005      00
 1006              	.LEHE19:
 1007              		.cfi_endproc
 1008              	.LFE1401:
 1009              		.section	.gcc_except_table._ZTv0_n24_N8UnitTest15MemoryOutStreamD0Ev,"aG",@progbits,_ZN8UnitTest15
 1010              	.LLSDA1401:
 1011 0000 FF       		.byte	0xff
 1012 0001 FF       		.byte	0xff
 1013 0002 01       		.byte	0x1
 1014 0003 0B       		.uleb128 .LLSDACSE1401-.LLSDACSB1401
 1015              	.LLSDACSB1401:
 1016 0004 B701     		.uleb128 .LEHB18-.LFB1401
 1017 0006 05       		.uleb128 .LEHE18-.LEHB18
 1018 0007 CB01     		.uleb128 .L71-.LFB1401
 1019 0009 00       		.uleb128 0
 1020 000a DD01     		.uleb128 .LEHB19-.LFB1401
 1021 000c 05       		.uleb128 .LEHE19-.LEHB19
 1022 000d 00       		.uleb128 0
 1023 000e 00       		.uleb128 0
 1024              	.LLSDACSE1401:
 1025              		.section	.text._ZN8UnitTest15MemoryOutStreamD0Ev,"axG",@progbits,_ZN8UnitTest15MemoryOutStreamD0Ev
 1027              		.section	.text._ZNSt7__cxx1115basic_stringbufIcSt11char_traitsIcESaIcEED2Ev,"axG",@progbits,_ZNSt7
 1028              		.align 2
 1029              		.p2align 4
 1030              		.weak	_ZNSt7__cxx1115basic_stringbufIcSt11char_traitsIcESaIcEED2Ev
 1032              	_ZNSt7__cxx1115basic_stringbufIcSt11char_traitsIcESaIcEED2Ev:
 1033              	.LFB1285:
 1034              		.cfi_startproc
 1035 0000 F30F1EFA 		endbr64
 1036 0004 488D0500 		leaq	16+_ZTVNSt7__cxx1115basic_stringbufIcSt11char_traitsIcESaIcEEE(%rip), %rax
 1036      000000
 1037 000b 53       		pushq	%rbx
 1038              		.cfi_def_cfa_offset 16
 1039              		.cfi_offset 3, -16
 1040 000c 4889FB   		movq	%rdi, %rbx
 1041 000f 488907   		movq	%rax, (%rdi)
 1042 0012 488B7F48 		movq	72(%rdi), %rdi
 1043 0016 488D4358 		leaq	88(%rbx), %rax
 1044 001a 4839C7   		cmpq	%rax, %rdi
 1045 001d 7405     		je	.L74
 1046 001f E8000000 		call	_ZdlPv@PLT
 1046      00
 1047              	.L74:
 1048 0024 488D0500 		leaq	16+_ZTVSt15basic_streambufIcSt11char_traitsIcEE(%rip), %rax
 1048      000000
 1049 002b 488D7B38 		leaq	56(%rbx), %rdi
 1050 002f 488903   		movq	%rax, (%rbx)
 1051 0032 5B       		popq	%rbx
 1052              		.cfi_def_cfa_offset 8
 1053 0033 E9000000 		jmp	_ZNSt6localeD1Ev@PLT
 1053      00
 1054              		.cfi_endproc
 1055              	.LFE1285:
 1057              		.weak	_ZNSt7__cxx1115basic_stringbufIcSt11char_traitsIcESaIcEED1Ev
 1058              		.set	_ZNSt7__cxx1115basic_stringbufIcSt11char_traitsIcESaIcEED1Ev,_ZNSt7__cxx1115basic_stringbufIc
 1059              		.section	.rodata.str1.1,"aMS",@progbits,1
 1060              	.LC0:
 1061 0000 45787065 		.string	"Expected "
 1061      63746564 
 1061      2000
 1062              	.LC1:
 1063 000a 20627574 		.string	" but was "
 1063      20776173 
 1063      2000
 1064              		.section	.rodata.str1.8,"aMS",@progbits,1
 1065              		.align 8
 1066              	.LC2:
 1067 0000 556E6861 		.string	"Unhandled exception in CHECK_EQUAL(0, m_allocFree)"
 1067      6E646C65 
 1067      64206578 
 1067      63657074 
 1067      696F6E20 
 1068              		.section	.text.unlikely,"ax",@progbits
 1069              		.align 2
 1070              	.LCOLDB6:
 1071              		.text
 1072              	.LHOTB6:
 1073 0059 90       		.align 2
 1074 005a 660F1F44 		.p2align 4
 1074      0000
 1075              		.globl	_ZNK31TestQueue_testAllocFreeMatching7RunImplEv
 1077              	_ZNK31TestQueue_testAllocFreeMatching7RunImplEv:
 1078              	.LFB1275:
 1079              		.cfi_startproc
 1080              		.cfi_personality 0x9b,DW.ref.__gxx_personality_v0
 1081              		.cfi_lsda 0x1b,.LLSDA1275
 1082 0060 F30F1EFA 		endbr64
 1083 0064 4157     		pushq	%r15
 1084              		.cfi_def_cfa_offset 16
 1085              		.cfi_offset 15, -16
 1086 0066 4156     		pushq	%r14
 1087              		.cfi_def_cfa_offset 24
 1088              		.cfi_offset 14, -24
 1089 0068 4155     		pushq	%r13
 1090              		.cfi_def_cfa_offset 32
 1091              		.cfi_offset 13, -32
 1092 006a 4154     		pushq	%r12
 1093              		.cfi_def_cfa_offset 40
 1094              		.cfi_offset 12, -40
 1095 006c 55       		pushq	%rbp
 1096              		.cfi_def_cfa_offset 48
 1097              		.cfi_offset 6, -48
 1098 006d 53       		pushq	%rbx
 1099              		.cfi_def_cfa_offset 56
 1100              		.cfi_offset 3, -56
 1101 006e 4881ECE8 		subq	$488, %rsp
 1101      010000
 1102              		.cfi_def_cfa_offset 544
 1103 0075 64488B04 		movq	%fs:40, %rax
 1103      25280000 
 1103      00
 1104 007e 48898424 		movq	%rax, 472(%rsp)
 1104      D8010000 
 1105 0086 31C0     		xorl	%eax, %eax
 1106              	.LEHB20:
 1107 0088 E8000000 		call	_ZN8UnitTest11CurrentTest7DetailsEv@PLT
 1107      00
 1108 008d 488D6C24 		leaq	32(%rsp), %rbp
 1108      20
 1109 0092 488B30   		movq	(%rax), %rsi
 1110 0095 BA810100 		movl	$385, %edx
 1110      00
 1111 009a 4889EF   		movq	%rbp, %rdi
 1112 009d E8000000 		call	_ZN8UnitTest11TestDetailsC1ERKS0_i@PLT
 1112      00
 1113 00a2 E8000000 		call	_ZN8UnitTest11CurrentTest7ResultsEv@PLT
 1113      00
 1114              	.LEHE20:
 1115 00a7 F30F7E0D 		movq	.LC3(%rip), %xmm1
 1115      00000000 
 1116 00af 8B150000 		movl	_ZL11m_allocFree(%rip), %edx
 1116      0000
 1117 00b5 4C8B38   		movq	(%rax), %r15
 1118 00b8 0F160D00 		movhps	.LC4(%rip), %xmm1
 1118      000000
 1119 00bf 0F290C24 		movaps	%xmm1, (%rsp)
 1120 00c3 85D2     		testl	%edx, %edx
 1121 00c5 7529     		jne	.L98
 1122              	.L76:
 1123 00c7 488B8424 		movq	472(%rsp), %rax
 1123      D8010000 
 1124 00cf 64482B04 		subq	%fs:40, %rax
 1124      25280000 
 1124      00
 1125 00d8 0F854A02 		jne	.L99
 1125      0000
 1126 00de 4881C4E8 		addq	$488, %rsp
 1126      010000
 1127              		.cfi_remember_state
 1128              		.cfi_def_cfa_offset 56
 1129 00e5 5B       		popq	%rbx
 1130              		.cfi_def_cfa_offset 48
 1131 00e6 5D       		popq	%rbp
 1132              		.cfi_def_cfa_offset 40
 1133 00e7 415C     		popq	%r12
 1134              		.cfi_def_cfa_offset 32
 1135 00e9 415D     		popq	%r13
 1136              		.cfi_def_cfa_offset 24
 1137 00eb 415E     		popq	%r14
 1138              		.cfi_def_cfa_offset 16
 1139 00ed 415F     		popq	%r15
 1140              		.cfi_def_cfa_offset 8
 1141 00ef C3       		ret
 1142              		.p2align 4,,10
 1143              		.p2align 3
 1144              	.L98:
 1145              		.cfi_restore_state
 1146 00f0 4C8DB424 		leaq	208(%rsp), %r14
 1146      D0000000 
 1147 00f8 4C89F7   		movq	%r14, %rdi
 1148 00fb E8000000 		call	_ZNSt8ios_baseC2Ev@PLT
 1148      00
 1149 0100 31C0     		xorl	%eax, %eax
 1150 0102 660FEFC0 		pxor	%xmm0, %xmm0
 1151 0106 31F6     		xorl	%esi, %esi
 1152 0108 66898424 		movw	%ax, 432(%rsp)
 1152      B0010000 
 1153 0110 488D0500 		leaq	24+_ZTCN8UnitTest15MemoryOutStreamE0_So(%rip), %rax
 1153      000000
 1154 0117 4C89F7   		movq	%r14, %rdi
 1155 011a 48894424 		movq	%rax, 64(%rsp)
 1155      40
 1156 011f 4883C028 		addq	$40, %rax
 1157 0123 48C78424 		movq	$0, 424(%rsp)
 1157      A8010000 
 1157      00000000 
 1158 012f 48898424 		movq	%rax, 208(%rsp)
 1158      D0000000 
 1159 0137 0F118424 		movups	%xmm0, 440(%rsp)
 1159      B8010000 
 1160 013f 0F118424 		movups	%xmm0, 456(%rsp)
 1160      C8010000 
 1161              	.LEHB21:
 1162 0147 E8000000 		call	_ZNSt9basic_iosIcSt11char_traitsIcEE4initEPSt15basic_streambufIcS1_E@PLT
 1162      00
 1163              	.LEHE21:
 1164 014c 660F6F0C 		movdqa	(%rsp), %xmm1
 1164      24
 1165 0151 660FEFC0 		pxor	%xmm0, %xmm0
 1166 0155 488D9C24 		leaq	128(%rsp), %rbx
 1166      80000000 
 1167 015d 488D0500 		leaq	64+_ZTCN8UnitTest15MemoryOutStreamE0_NSt7__cxx1119basic_ostringstreamIcSt11char_traitsIcESaIc
 1167      000000
 1168 0164 4889DF   		movq	%rbx, %rdi
 1169 0167 0F294424 		movaps	%xmm0, 80(%rsp)
 1169      50
 1170 016c 4C8D6424 		leaq	64(%rsp), %r12
 1170      40
 1171 0171 4C8D6C24 		leaq	72(%rsp), %r13
 1171      48
 1172 0176 48898424 		movq	%rax, 208(%rsp)
 1172      D0000000 
 1173 017e 0F294C24 		movaps	%xmm1, 64(%rsp)
 1173      40
 1174 0183 0F294424 		movaps	%xmm0, 96(%rsp)
 1174      60
 1175 0188 0F294424 		movaps	%xmm0, 112(%rsp)
 1175      70
 1176 018d E8000000 		call	_ZNSt6localeC1Ev@PLT
 1176      00
 1177 0192 488D0500 		leaq	16+_ZTVNSt7__cxx1115basic_stringbufIcSt11char_traitsIcESaIcEEE(%rip), %rax
 1177      000000
 1178 0199 C68424A0 		movb	$0, 160(%rsp)
 1178      00000000 
 1179 01a1 4C89EE   		movq	%r13, %rsi
 1180 01a4 48894424 		movq	%rax, 72(%rsp)
 1180      48
 1181 01a9 488D8424 		leaq	160(%rsp), %rax
 1181      A0000000 
 1182 01b1 48890424 		movq	%rax, (%rsp)
 1183 01b5 48898424 		movq	%rax, 144(%rsp)
 1183      90000000 
 1184 01bd 488B4424 		movq	64(%rsp), %rax
 1184      40
 1185 01c2 48C78424 		movq	$0, 152(%rsp)
 1185      98000000 
 1185      00000000 
 1186 01ce C7842488 		movl	$16, 136(%rsp)
 1186      00000010 
 1186      000000
 1187 01d9 488B78E8 		movq	-24(%rax), %rdi
 1188 01dd 4C01E7   		addq	%r12, %rdi
 1189              	.LEHB22:
 1190 01e0 E8000000 		call	_ZNSt9basic_iosIcSt11char_traitsIcEE4initEPSt15basic_streambufIcS1_E@PLT
 1190      00
 1191              	.LEHE22:
 1192 01e5 488D0500 		leaq	24+_ZTVN8UnitTest15MemoryOutStreamE(%rip), %rax
 1192      000000
 1193 01ec BA090000 		movl	$9, %edx
 1193      00
 1194 01f1 4C89E7   		movq	%r12, %rdi
 1195 01f4 48C78424 		movq	$0, 184(%rsp)
 1195      B8000000 
 1195      00000000 
 1196 0200 48894424 		movq	%rax, 64(%rsp)
 1196      40
 1197 0205 4883C028 		addq	$40, %rax
 1198 0209 488D3500 		leaq	.LC0(%rip), %rsi
 1198      000000
 1199 0210 48898424 		movq	%rax, 208(%rsp)
 1199      D0000000 
 1200 0218 488D8424 		leaq	192(%rsp), %rax
 1200      C0000000 
 1201 0220 48894424 		movq	%rax, 16(%rsp)
 1201      10
 1202 0225 48898424 		movq	%rax, 176(%rsp)
 1202      B0000000 
 1203 022d C68424C0 		movb	$0, 192(%rsp)
 1203      00000000 
 1204              	.LEHB23:
 1205 0235 E8000000 		call	_ZSt16__ostream_insertIcSt11char_traitsIcEERSt13basic_ostreamIT_T0_ES6_PKS3_l@PLT
 1205      00
 1206 023a 31F6     		xorl	%esi, %esi
 1207 023c 4C89E7   		movq	%r12, %rdi
 1208 023f E8000000 		call	_ZNSolsEi@PLT
 1208      00
 1209 0244 BA090000 		movl	$9, %edx
 1209      00
 1210 0249 488D3500 		leaq	.LC1(%rip), %rsi
 1210      000000
 1211 0250 4889C7   		movq	%rax, %rdi
 1212 0253 4989C5   		movq	%rax, %r13
 1213 0256 E8000000 		call	_ZSt16__ostream_insertIcSt11char_traitsIcEERSt13basic_ostreamIT_T0_ES6_PKS3_l@PLT
 1213      00
 1214 025b 8B350000 		movl	_ZL11m_allocFree(%rip), %esi
 1214      0000
 1215 0261 4C89EF   		movq	%r13, %rdi
 1216 0264 E8000000 		call	_ZNSolsEi@PLT
 1216      00
 1217 0269 4C89E7   		movq	%r12, %rdi
 1218 026c E8000000 		call	_ZNK8UnitTest15MemoryOutStream7GetTextEv@PLT
 1218      00
 1219 0271 4889C2   		movq	%rax, %rdx
 1220 0274 4889EE   		movq	%rbp, %rsi
 1221 0277 4C89FF   		movq	%r15, %rdi
 1222 027a E8000000 		call	_ZN8UnitTest11TestResults13OnTestFailureERKNS_11TestDetailsEPKc@PLT
 1222      00
 1223              	.LEHE23:
 1224 027f 488D0500 		leaq	24+_ZTVN8UnitTest15MemoryOutStreamE(%rip), %rax
 1224      000000
 1225 0286 488BBC24 		movq	176(%rsp), %rdi
 1225      B0000000 
 1226 028e F30F7E05 		movq	.LC3(%rip), %xmm0
 1226      00000000 
 1227 0296 48894424 		movq	%rax, 64(%rsp)
 1227      40
 1228 029b 4883C028 		addq	$40, %rax
 1229 029f 48898424 		movq	%rax, 208(%rsp)
 1229      D0000000 
 1230 02a7 0F160500 		movhps	.LC5(%rip), %xmm0
 1230      000000
 1231 02ae 483B7C24 		cmpq	16(%rsp), %rdi
 1231      10
 1232 02b3 7410     		je	.L83
 1233 02b5 0F294424 		movaps	%xmm0, 16(%rsp)
 1233      10
 1234 02ba E8000000 		call	_ZdlPv@PLT
 1234      00
 1235 02bf 660F6F44 		movdqa	16(%rsp), %xmm0
 1235      2410
 1236              	.L83:
 1237 02c5 488D0500 		leaq	64+_ZTCN8UnitTest15MemoryOutStreamE0_NSt7__cxx1119basic_ostringstreamIcSt11char_traitsIcESaIc
 1237      000000
 1238 02cc 488BBC24 		movq	144(%rsp), %rdi
 1238      90000000 
 1239 02d4 0F294424 		movaps	%xmm0, 64(%rsp)
 1239      40
 1240 02d9 48898424 		movq	%rax, 208(%rsp)
 1240      D0000000 
 1241 02e1 483B3C24 		cmpq	(%rsp), %rdi
 1242 02e5 7405     		je	.L84
 1243 02e7 E8000000 		call	_ZdlPv@PLT
 1243      00
 1244              	.L84:
 1245 02ec 488D0500 		leaq	16+_ZTVSt15basic_streambufIcSt11char_traitsIcEE(%rip), %rax
 1245      000000
 1246 02f3 4889DF   		movq	%rbx, %rdi
 1247 02f6 48894424 		movq	%rax, 72(%rsp)
 1247      48
 1248 02fb E8000000 		call	_ZNSt6localeD1Ev@PLT
 1248      00
 1249 0300 488D0500 		leaq	24+_ZTCN8UnitTest15MemoryOutStreamE0_So(%rip), %rax
 1249      000000
 1250 0307 4C89F7   		movq	%r14, %rdi
 1251 030a 48894424 		movq	%rax, 64(%rsp)
 1251      40
 1252 030f 488D0500 		leaq	16+_ZTVSt9basic_iosIcSt11char_traitsIcEE(%rip), %rax
 1252      000000
 1253 0316 48898424 		movq	%rax, 208(%rsp)
 1253      D0000000 
 1254              	.LEHB24:
 1255 031e E8000000 		call	_ZNSt8ios_baseD2Ev@PLT
 1255      00
 1256              	.LEHE24:
 1257 0323 E99FFDFF 		jmp	.L76
 1257      FF
 1258              	.L99:
 1259 0328 E8000000 		call	__stack_chk_fail@PLT
 1259      00
 1260              	.L90:
 1261 032d F30F1EFA 		endbr64
 1262 0331 4889C7   		movq	%rax, %rdi
 1263 0334 E9000000 		jmp	.L82
 1263      00
 1264              	.L93:
 1265 0339 F30F1EFA 		endbr64
 1266 033d 4889C3   		movq	%rax, %rbx
 1267 0340 E9000000 		jmp	.L80
 1267      00
 1268              	.L94:
 1269 0345 F30F1EFA 		endbr64
 1270 0349 4889C3   		movq	%rax, %rbx
 1271 034c E9000000 		jmp	.L79
 1271      00
 1272              	.L92:
 1273 0351 F30F1EFA 		endbr64
 1274 0355 4889C3   		movq	%rax, %rbx
 1275 0358 E9000000 		jmp	.L86
 1275      00
 1276              		.section	.gcc_except_table,"a",@progbits
 1277              		.align 4
 1278              	.LLSDA1275:
 1279 0000 FF       		.byte	0xff
 1280 0001 9B       		.byte	0x9b
 1281 0002 29       		.uleb128 .LLSDATT1275-.LLSDATTD1275
 1282              	.LLSDATTD1275:
 1283 0003 01       		.byte	0x1
 1284 0004 1D       		.uleb128 .LLSDACSE1275-.LLSDACSB1275
 1285              	.LLSDACSB1275:
 1286 0005 28       		.uleb128 .LEHB20-.LFB1275
 1287 0006 1F       		.uleb128 .LEHE20-.LEHB20
 1288 0007 CD05     		.uleb128 .L90-.LFB1275
 1289 0009 01       		.uleb128 0x1
 1290 000a E701     		.uleb128 .LEHB21-.LFB1275
 1291 000c 05       		.uleb128 .LEHE21-.LEHB21
 1292 000d D905     		.uleb128 .L93-.LFB1275
 1293 000f 03       		.uleb128 0x3
 1294 0010 8003     		.uleb128 .LEHB22-.LFB1275
 1295 0012 05       		.uleb128 .LEHE22-.LEHB22
 1296 0013 E505     		.uleb128 .L94-.LFB1275
 1297 0015 03       		.uleb128 0x3
 1298 0016 D503     		.uleb128 .LEHB23-.LFB1275
 1299 0018 4A       		.uleb128 .LEHE23-.LEHB23
 1300 0019 F105     		.uleb128 .L92-.LFB1275
 1301 001b 03       		.uleb128 0x3
 1302 001c BE05     		.uleb128 .LEHB24-.LFB1275
 1303 001e 05       		.uleb128 .LEHE24-.LEHB24
 1304 001f CD05     		.uleb128 .L90-.LFB1275
 1305 0021 01       		.uleb128 0x1
 1306              	.LLSDACSE1275:
 1307 0022 01       		.byte	0x1
 1308 0023 00       		.byte	0
 1309 0024 00       		.byte	0
 1310 0025 7D       		.byte	0x7d
 1311 0026 0000     		.align 4
 1312 0028 00000000 		.long	0
 1313              	
 1314              	.LLSDATT1275:
 1315              		.text
 1316              		.cfi_endproc
 1317              		.section	.text.unlikely
 1318              		.cfi_startproc
 1319              		.cfi_personality 0x9b,DW.ref.__gxx_personality_v0
 1320              		.cfi_lsda 0x1b,.LLSDAC1275
 1322              	_ZNK31TestQueue_testAllocFreeMatching7RunImplEv.cold:
 1323              	.LFSB1275:
 1324              	.L79:
 1325              		.cfi_def_cfa_offset 544
 1326              		.cfi_offset 3, -56
 1327              		.cfi_offset 6, -48
 1328              		.cfi_offset 12, -40
 1329              		.cfi_offset 13, -32
 1330              		.cfi_offset 14, -24
 1331              		.cfi_offset 15, -16
 1332 0000 4C89EF   		movq	%r13, %rdi
 1333 0003 E8000000 		call	_ZNSt7__cxx1115basic_stringbufIcSt11char_traitsIcESaIcEED1Ev
 1333      00
 1334 0008 488D0500 		leaq	24+_ZTCN8UnitTest15MemoryOutStreamE0_So(%rip), %rax
 1334      000000
 1335 000f 48894424 		movq	%rax, 64(%rsp)
 1335      40
 1336              	.L80:
 1337 0014 488D0500 		leaq	16+_ZTVSt9basic_iosIcSt11char_traitsIcEE(%rip), %rax
 1337      000000
 1338 001b 4C89F7   		movq	%r14, %rdi
 1339 001e 48898424 		movq	%rax, 208(%rsp)
 1339      D0000000 
 1340 0026 E8000000 		call	_ZNSt8ios_baseD2Ev@PLT
 1340      00
 1341 002b 4889DF   		movq	%rbx, %rdi
 1342              	.L82:
 1343 002e E8000000 		call	__cxa_begin_catch@PLT
 1343      00
 1344              	.LEHB25:
 1345 0033 E8000000 		call	_ZN8UnitTest11CurrentTest7ResultsEv@PLT
 1345      00
 1346 0038 4C8B20   		movq	(%rax), %r12
 1347 003b E8000000 		call	_ZN8UnitTest11CurrentTest7DetailsEv@PLT
 1347      00
 1348 0040 488D6C24 		leaq	32(%rsp), %rbp
 1348      20
 1349 0045 488B30   		movq	(%rax), %rsi
 1350 0048 BA810100 		movl	$385, %edx
 1350      00
 1351 004d 4889EF   		movq	%rbp, %rdi
 1352 0050 E8000000 		call	_ZN8UnitTest11TestDetailsC1ERKS0_i@PLT
 1352      00
 1353 0055 488D1500 		leaq	.LC2(%rip), %rdx
 1353      000000
 1354 005c 4889EE   		movq	%rbp, %rsi
 1355 005f 4C89E7   		movq	%r12, %rdi
 1356 0062 E8000000 		call	_ZN8UnitTest11TestResults13OnTestFailureERKNS_11TestDetailsEPKc@PLT
 1356      00
 1357              	.LEHE25:
 1358 0067 488B8424 		movq	472(%rsp), %rax
 1358      D8010000 
 1359 006f 64482B04 		subq	%fs:40, %rax
 1359      25280000 
 1359      00
 1360 0078 7516     		jne	.L100
 1361 007a 4881C4E8 		addq	$488, %rsp
 1361      010000
 1362              		.cfi_remember_state
 1363              		.cfi_def_cfa_offset 56
 1364 0081 5B       		popq	%rbx
 1365              		.cfi_def_cfa_offset 48
 1366 0082 5D       		popq	%rbp
 1367              		.cfi_def_cfa_offset 40
 1368 0083 415C     		popq	%r12
 1369              		.cfi_def_cfa_offset 32
 1370 0085 415D     		popq	%r13
 1371              		.cfi_def_cfa_offset 24
 1372 0087 415E     		popq	%r14
 1373              		.cfi_def_cfa_offset 16
 1374 0089 415F     		popq	%r15
 1375              		.cfi_def_cfa_offset 8
 1376              	.LEHB26:
 1377 008b E9000000 		jmp	__cxa_end_catch@PLT
 1377      00
 1378              	.LEHE26:
 1379              	.L100:
 1380              		.cfi_restore_state
 1381 0090 E8000000 		call	__stack_chk_fail@PLT
 1381      00
 1382              	.L91:
 1383 0095 F30F1EFA 		endbr64
 1384 0099 4889C5   		movq	%rax, %rbp
 1385 009c E8000000 		call	__cxa_end_catch@PLT
 1385      00
 1386 00a1 4889EF   		movq	%rbp, %rdi
 1387              	.LEHB27:
 1388 00a4 E8000000 		call	_Unwind_Resume@PLT
 1388      00
 1389              	.LEHE27:
 1390              	.L86:
 1391 00a9 4C89E7   		movq	%r12, %rdi
 1392 00ac E8000000 		call	_ZN8UnitTest15MemoryOutStreamD1Ev
 1392      00
 1393 00b1 4889DF   		movq	%rbx, %rdi
 1394 00b4 E975FFFF 		jmp	.L82
 1394      FF
 1395              		.cfi_endproc
 1396              	.LFE1275:
 1397              		.section	.gcc_except_table
 1398              		.align 4
 1399              	.LLSDAC1275:
 1400 002c FF       		.byte	0xff
 1401 002d 9B       		.byte	0x9b
 1402 002e 19       		.uleb128 .LLSDATTC1275-.LLSDATTDC1275
 1403              	.LLSDATTDC1275:
 1404 002f 01       		.byte	0x1
 1405 0030 0F       		.uleb128 .LLSDACSEC1275-.LLSDACSBC1275
 1406              	.LLSDACSBC1275:
 1407 0031 33       		.uleb128 .LEHB25-.LCOLDB6
 1408 0032 34       		.uleb128 .LEHE25-.LEHB25
 1409 0033 9501     		.uleb128 .L91-.LCOLDB6
 1410 0035 00       		.uleb128 0
 1411 0036 8B01     		.uleb128 .LEHB26-.LCOLDB6
 1412 0038 05       		.uleb128 .LEHE26-.LEHB26
 1413 0039 00       		.uleb128 0
 1414 003a 00       		.uleb128 0
 1415 003b A401     		.uleb128 .LEHB27-.LCOLDB6
 1416 003d 05       		.uleb128 .LEHE27-.LEHB27
 1417 003e 00       		.uleb128 0
 1418 003f 00       		.uleb128 0
 1419              	.LLSDACSEC1275:
 1420 0040 01       		.byte	0x1
 1421 0041 00       		.byte	0
 1422 0042 00       		.byte	0
 1423 0043 7D       		.byte	0x7d
 1424              		.align 4
 1425 0044 00000000 		.long	0
 1426              	
 1427              	.LLSDATTC1275:
 1428              		.section	.text.unlikely
 1429              		.text
 1431              		.section	.text.unlikely
 1433              	.LCOLDE6:
 1434              		.text
 1435              	.LHOTE6:
 1436              		.section	.text.unlikely
 1437              	.LCOLDB7:
 1438              		.text
 1439              	.LHOTB7:
 1440 035d 0F1F00   		.p2align 4
 1442              	_ZN8UnitTest10CheckEqualI9USBStatusS1_EEvRNS_11TestResultsERKT_RKT0_RKNS_11TestDetailsE.constprop.0
 1443              	.LFB1406:
 1444              		.cfi_startproc
 1445              		.cfi_personality 0x9b,DW.ref.__gxx_personality_v0
 1446              		.cfi_lsda 0x1b,.LLSDA1406
 1447 0360 4157     		pushq	%r15
 1448              		.cfi_def_cfa_offset 16
 1449              		.cfi_offset 15, -16
 1450 0362 4156     		pushq	%r14
 1451              		.cfi_def_cfa_offset 24
 1452              		.cfi_offset 14, -24
 1453 0364 4155     		pushq	%r13
 1454              		.cfi_def_cfa_offset 32
 1455              		.cfi_offset 13, -32
 1456 0366 4154     		pushq	%r12
 1457              		.cfi_def_cfa_offset 40
 1458              		.cfi_offset 12, -40
 1459 0368 55       		pushq	%rbp
 1460              		.cfi_def_cfa_offset 48
 1461              		.cfi_offset 6, -48
 1462 0369 53       		pushq	%rbx
 1463              		.cfi_def_cfa_offset 56
 1464              		.cfi_offset 3, -56
 1465 036a 4881ECD8 		subq	$472, %rsp
 1465      010000
 1466              		.cfi_def_cfa_offset 528
 1467 0371 F30F7E0D 		movq	.LC3(%rip), %xmm1
 1467      00000000 
 1468 0379 48894C24 		movq	%rcx, 32(%rsp)
 1468      20
 1469 037e 8B0A     		movl	(%rdx), %ecx
 1470 0380 48897C24 		movq	%rdi, 16(%rsp)
 1470      10
 1471 0385 0F160D00 		movhps	.LC4(%rip), %xmm1
 1471      000000
 1472 038c 64488B04 		movq	%fs:40, %rax
 1472      25280000 
 1472      00
 1473 0395 48898424 		movq	%rax, 456(%rsp)
 1473      C8010000 
 1474 039d 31C0     		xorl	%eax, %eax
 1475 039f 0F290C24 		movaps	%xmm1, (%rsp)
 1476 03a3 85C9     		testl	%ecx, %ecx
 1477 03a5 7529     		jne	.L117
 1478              	.L101:
 1479 03a7 488B8424 		movq	456(%rsp), %rax
 1479      C8010000 
 1480 03af 64482B04 		subq	%fs:40, %rax
 1480      25280000 
 1480      00
 1481 03b8 0F854702 		jne	.L118
 1481      0000
 1482 03be 4881C4D8 		addq	$472, %rsp
 1482      010000
 1483              		.cfi_remember_state
 1484              		.cfi_def_cfa_offset 56
 1485 03c5 5B       		popq	%rbx
 1486              		.cfi_def_cfa_offset 48
 1487 03c6 5D       		popq	%rbp
 1488              		.cfi_def_cfa_offset 40
 1489 03c7 415C     		popq	%r12
 1490              		.cfi_def_cfa_offset 32
 1491 03c9 415D     		popq	%r13
 1492              		.cfi_def_cfa_offset 24
 1493 03cb 415E     		popq	%r14
 1494              		.cfi_def_cfa_offset 16
 1495 03cd 415F     		popq	%r15
 1496              		.cfi_def_cfa_offset 8
 1497 03cf C3       		ret
 1498              		.p2align 4,,10
 1499              		.p2align 3
 1500              	.L117:
 1501              		.cfi_restore_state
 1502 03d0 4C8DAC24 		leaq	192(%rsp), %r13
 1502      C0000000 
 1503 03d8 4889F5   		movq	%rsi, %rbp
 1504 03db 4889D3   		movq	%rdx, %rbx
 1505 03de 4C89EF   		movq	%r13, %rdi
 1506 03e1 E8000000 		call	_ZNSt8ios_baseC2Ev@PLT
 1506      00
 1507 03e6 31C0     		xorl	%eax, %eax
 1508 03e8 660FEFC0 		pxor	%xmm0, %xmm0
 1509 03ec 31F6     		xorl	%esi, %esi
 1510 03ee 66898424 		movw	%ax, 416(%rsp)
 1510      A0010000 
 1511 03f6 488D0500 		leaq	24+_ZTCN8UnitTest15MemoryOutStreamE0_So(%rip), %rax
 1511      000000
 1512 03fd 4C89EF   		movq	%r13, %rdi
 1513 0400 48894424 		movq	%rax, 48(%rsp)
 1513      30
 1514 0405 4883C028 		addq	$40, %rax
 1515 0409 48C78424 		movq	$0, 408(%rsp)
 1515      98010000 
 1515      00000000 
 1516 0415 48898424 		movq	%rax, 192(%rsp)
 1516      C0000000 
 1517 041d 0F118424 		movups	%xmm0, 424(%rsp)
 1517      A8010000 
 1518 0425 0F118424 		movups	%xmm0, 440(%rsp)
 1518      B8010000 
 1519              	.LEHB28:
 1520 042d E8000000 		call	_ZNSt9basic_iosIcSt11char_traitsIcEE4initEPSt15basic_streambufIcS1_E@PLT
 1520      00
 1521              	.LEHE28:
 1522 0432 660F6F0C 		movdqa	(%rsp), %xmm1
 1522      24
 1523 0437 4C8D7424 		leaq	112(%rsp), %r14
 1523      70
 1524 043c 660FEFC0 		pxor	%xmm0, %xmm0
 1525 0440 488D0500 		leaq	64+_ZTCN8UnitTest15MemoryOutStreamE0_NSt7__cxx1119basic_ostringstreamIcSt11char_traitsIcESaIc
 1525      000000
 1526 0447 4C89F7   		movq	%r14, %rdi
 1527 044a 0F294424 		movaps	%xmm0, 64(%rsp)
 1527      40
 1528 044f 4C8D6424 		leaq	48(%rsp), %r12
 1528      30
 1529 0454 4C8D7C24 		leaq	56(%rsp), %r15
 1529      38
 1530 0459 48898424 		movq	%rax, 192(%rsp)
 1530      C0000000 
 1531 0461 0F294C24 		movaps	%xmm1, 48(%rsp)
 1531      30
 1532 0466 0F294424 		movaps	%xmm0, 80(%rsp)
 1532      50
 1533 046b 0F294424 		movaps	%xmm0, 96(%rsp)
 1533      60
 1534 0470 E8000000 		call	_ZNSt6localeC1Ev@PLT
 1534      00
 1535 0475 488D0500 		leaq	16+_ZTVNSt7__cxx1115basic_stringbufIcSt11char_traitsIcESaIcEEE(%rip), %rax
 1535      000000
 1536 047c 4C89FE   		movq	%r15, %rsi
 1537 047f 48C78424 		movq	$0, 136(%rsp)
 1537      88000000 
 1537      00000000 
 1538 048b 48894424 		movq	%rax, 56(%rsp)
 1538      38
 1539 0490 488D8424 		leaq	144(%rsp), %rax
 1539      90000000 
 1540 0498 48890424 		movq	%rax, (%rsp)
 1541 049c 48898424 		movq	%rax, 128(%rsp)
 1541      80000000 
 1542 04a4 488B4424 		movq	48(%rsp), %rax
 1542      30
 1543 04a9 C6842490 		movb	$0, 144(%rsp)
 1543      00000000 
 1544 04b1 488B78E8 		movq	-24(%rax), %rdi
 1545 04b5 C7442478 		movl	$16, 120(%rsp)
 1545      10000000 
 1546 04bd 4C01E7   		addq	%r12, %rdi
 1547              	.LEHB29:
 1548 04c0 E8000000 		call	_ZNSt9basic_iosIcSt11char_traitsIcEE4initEPSt15basic_streambufIcS1_E@PLT
 1548      00
 1549              	.LEHE29:
 1550 04c5 4C8D3D00 		leaq	24+_ZTVN8UnitTest15MemoryOutStreamE(%rip), %r15
 1550      000000
 1551 04cc BA090000 		movl	$9, %edx
 1551      00
 1552 04d1 4C89E7   		movq	%r12, %rdi
 1553 04d4 48C78424 		movq	$0, 168(%rsp)
 1553      A8000000 
 1553      00000000 
 1554 04e0 498D4728 		leaq	40(%r15), %rax
 1555 04e4 488D3500 		leaq	.LC0(%rip), %rsi
 1555      000000
 1556 04eb 4C897C24 		movq	%r15, 48(%rsp)
 1556      30
 1557 04f0 48898424 		movq	%rax, 192(%rsp)
 1557      C0000000 
 1558 04f8 488D8424 		leaq	176(%rsp), %rax
 1558      B0000000 
 1559 0500 48894424 		movq	%rax, 40(%rsp)
 1559      28
 1560 0505 48898424 		movq	%rax, 160(%rsp)
 1560      A0000000 
 1561 050d C68424B0 		movb	$0, 176(%rsp)
 1561      00000000 
 1562              	.LEHB30:
 1563 0515 E8000000 		call	_ZSt16__ostream_insertIcSt11char_traitsIcEERSt13basic_ostreamIT_T0_ES6_PKS3_l@PLT
 1563      00
 1564 051a 8B7500   		movl	0(%rbp), %esi
 1565 051d 4C89E7   		movq	%r12, %rdi
 1566 0520 E8000000 		call	_ZNSolsEi@PLT
 1566      00
 1567 0525 BA090000 		movl	$9, %edx
 1567      00
 1568 052a 488D3500 		leaq	.LC1(%rip), %rsi
 1568      000000
 1569 0531 4889C7   		movq	%rax, %rdi
 1570 0534 4889C5   		movq	%rax, %rbp
 1571 0537 E8000000 		call	_ZSt16__ostream_insertIcSt11char_traitsIcEERSt13basic_ostreamIT_T0_ES6_PKS3_l@PLT
 1571      00
 1572 053c 8B33     		movl	(%rbx), %esi
 1573 053e 4889EF   		movq	%rbp, %rdi
 1574 0541 E8000000 		call	_ZNSolsEi@PLT
 1574      00
 1575 0546 4C89E7   		movq	%r12, %rdi
 1576 0549 E8000000 		call	_ZNK8UnitTest15MemoryOutStream7GetTextEv@PLT
 1576      00
 1577 054e 488B7424 		movq	32(%rsp), %rsi
 1577      20
 1578 0553 488B7C24 		movq	16(%rsp), %rdi
 1578      10
 1579 0558 4889C2   		movq	%rax, %rdx
 1580 055b E8000000 		call	_ZN8UnitTest11TestResults13OnTestFailureERKNS_11TestDetailsEPKc@PLT
 1580      00
 1581              	.LEHE30:
 1582 0560 F30F7E05 		movq	.LC3(%rip), %xmm0
 1582      00000000 
 1583 0568 488D0500 		leaq	64+_ZTVN8UnitTest15MemoryOutStreamE(%rip), %rax
 1583      000000
 1584 056f 4C897C24 		movq	%r15, 48(%rsp)
 1584      30
 1585 0574 48898424 		movq	%rax, 192(%rsp)
 1585      C0000000 
 1586 057c 488BBC24 		movq	160(%rsp), %rdi
 1586      A0000000 
 1587 0584 0F160500 		movhps	.LC5(%rip), %xmm0
 1587      000000
 1588 058b 483B7C24 		cmpq	40(%rsp), %rdi
 1588      28
 1589 0590 7410     		je	.L107
 1590 0592 0F294424 		movaps	%xmm0, 16(%rsp)
 1590      10
 1591 0597 E8000000 		call	_ZdlPv@PLT
 1591      00
 1592 059c 660F6F44 		movdqa	16(%rsp), %xmm0
 1592      2410
 1593              	.L107:
 1594 05a2 488D0500 		leaq	64+_ZTCN8UnitTest15MemoryOutStreamE0_NSt7__cxx1119basic_ostringstreamIcSt11char_traitsIcESaIc
 1594      000000
 1595 05a9 488BBC24 		movq	128(%rsp), %rdi
 1595      80000000 
 1596 05b1 0F294424 		movaps	%xmm0, 48(%rsp)
 1596      30
 1597 05b6 48898424 		movq	%rax, 192(%rsp)
 1597      C0000000 
 1598 05be 483B3C24 		cmpq	(%rsp), %rdi
 1599 05c2 7405     		je	.L108
 1600 05c4 E8000000 		call	_ZdlPv@PLT
 1600      00
 1601              	.L108:
 1602 05c9 488D0500 		leaq	16+_ZTVSt15basic_streambufIcSt11char_traitsIcEE(%rip), %rax
 1602      000000
 1603 05d0 4C89F7   		movq	%r14, %rdi
 1604 05d3 48894424 		movq	%rax, 56(%rsp)
 1604      38
 1605 05d8 E8000000 		call	_ZNSt6localeD1Ev@PLT
 1605      00
 1606 05dd 488D0500 		leaq	24+_ZTCN8UnitTest15MemoryOutStreamE0_So(%rip), %rax
 1606      000000
 1607 05e4 4C89EF   		movq	%r13, %rdi
 1608 05e7 48894424 		movq	%rax, 48(%rsp)
 1608      30
 1609 05ec 488D0500 		leaq	16+_ZTVSt9basic_iosIcSt11char_traitsIcEE(%rip), %rax
 1609      000000
 1610 05f3 48898424 		movq	%rax, 192(%rsp)
 1610      C0000000 
 1611              	.LEHB31:
 1612 05fb E8000000 		call	_ZNSt8ios_baseD2Ev@PLT
 1612      00
 1613              	.LEHE31:
 1614 0600 E9A2FDFF 		jmp	.L101
 1614      FF
 1615              	.L118:
 1616 0605 E8000000 		call	__stack_chk_fail@PLT
 1616      00
 1617              	.L112:
 1618 060a F30F1EFA 		endbr64
 1619 060e 4889C5   		movq	%rax, %rbp
 1620 0611 E9000000 		jmp	.L105
 1620      00
 1621              	.L113:
 1622 0616 F30F1EFA 		endbr64
 1623 061a 4889C5   		movq	%rax, %rbp
 1624 061d E9000000 		jmp	.L104
 1624      00
 1625              	.L111:
 1626 0622 F30F1EFA 		endbr64
 1627 0626 4889C5   		movq	%rax, %rbp
 1628 0629 E9000000 		jmp	.L109
 1628      00
 1629              		.section	.gcc_except_table
 1630              	.LLSDA1406:
 1631 0048 FF       		.byte	0xff
 1632 0049 FF       		.byte	0xff
 1633 004a 01       		.byte	0x1
 1634 004b 17       		.uleb128 .LLSDACSE1406-.LLSDACSB1406
 1635              	.LLSDACSB1406:
 1636 004c CD01     		.uleb128 .LEHB28-.LFB1406
 1637 004e 05       		.uleb128 .LEHE28-.LEHB28
 1638 004f AA05     		.uleb128 .L112-.LFB1406
 1639 0051 00       		.uleb128 0
 1640 0052 E002     		.uleb128 .LEHB29-.LFB1406
 1641 0054 05       		.uleb128 .LEHE29-.LEHB29
 1642 0055 B605     		.uleb128 .L113-.LFB1406
 1643 0057 00       		.uleb128 0
 1644 0058 B503     		.uleb128 .LEHB30-.LFB1406
 1645 005a 4B       		.uleb128 .LEHE30-.LEHB30
 1646 005b C205     		.uleb128 .L111-.LFB1406
 1647 005d 00       		.uleb128 0
 1648 005e 9B05     		.uleb128 .LEHB31-.LFB1406
 1649 0060 05       		.uleb128 .LEHE31-.LEHB31
 1650 0061 00       		.uleb128 0
 1651 0062 00       		.uleb128 0
 1652              	.LLSDACSE1406:
 1653              		.text
 1654              		.cfi_endproc
 1655              		.section	.text.unlikely
 1656              		.cfi_startproc
 1657              		.cfi_personality 0x9b,DW.ref.__gxx_personality_v0
 1658              		.cfi_lsda 0x1b,.LLSDAC1406
 1660              	_ZN8UnitTest10CheckEqualI9USBStatusS1_EEvRNS_11TestResultsERKT_RKT0_RKNS_11TestDetailsE.constprop.0
 1661              	.LFSB1406:
 1662              	.L104:
 1663              		.cfi_def_cfa_offset 528
 1664              		.cfi_offset 3, -56
 1665              		.cfi_offset 6, -48
 1666              		.cfi_offset 12, -40
 1667              		.cfi_offset 13, -32
 1668              		.cfi_offset 14, -24
 1669              		.cfi_offset 15, -16
 1670 00b9 4C89FF   		movq	%r15, %rdi
 1671 00bc E8000000 		call	_ZNSt7__cxx1115basic_stringbufIcSt11char_traitsIcESaIcEED1Ev
 1671      00
 1672 00c1 488D0500 		leaq	24+_ZTCN8UnitTest15MemoryOutStreamE0_So(%rip), %rax
 1672      000000
 1673 00c8 48894424 		movq	%rax, 48(%rsp)
 1673      30
 1674              	.L105:
 1675 00cd 488D0500 		leaq	16+_ZTVSt9basic_iosIcSt11char_traitsIcEE(%rip), %rax
 1675      000000
 1676 00d4 4C89EF   		movq	%r13, %rdi
 1677 00d7 48898424 		movq	%rax, 192(%rsp)
 1677      C0000000 
 1678 00df E8000000 		call	_ZNSt8ios_baseD2Ev@PLT
 1678      00
 1679 00e4 4889EF   		movq	%rbp, %rdi
 1680              	.LEHB32:
 1681 00e7 E8000000 		call	_Unwind_Resume@PLT
 1681      00
 1682              	.LEHE32:
 1683              	.L109:
 1684 00ec 4C89E7   		movq	%r12, %rdi
 1685 00ef E8000000 		call	_ZN8UnitTest15MemoryOutStreamD1Ev
 1685      00
 1686 00f4 4889EF   		movq	%rbp, %rdi
 1687              	.LEHB33:
 1688 00f7 E8000000 		call	_Unwind_Resume@PLT
 1688      00
 1689              	.LEHE33:
 1690              		.cfi_endproc
 1691              	.LFE1406:
 1692              		.section	.gcc_except_table
 1693              	.LLSDAC1406:
 1694 0063 FF       		.byte	0xff
 1695 0064 FF       		.byte	0xff
 1696 0065 01       		.byte	0x1
 1697 0066 08       		.uleb128 .LLSDACSEC1406-.LLSDACSBC1406
 1698              	.LLSDACSBC1406:
 1699 0067 2E       		.uleb128 .LEHB32-.LCOLDB7
 1700 0068 05       		.uleb128 .LEHE32-.LEHB32
 1701 0069 00       		.uleb128 0
 1702 006a 00       		.uleb128 0
 1703 006b 3E       		.uleb128 .LEHB33-.LCOLDB7
 1704 006c 05       		.uleb128 .LEHE33-.LEHB33
 1705 006d 00       		.uleb128 0
 1706 006e 00       		.uleb128 0
 1707              	.LLSDACSEC1406:
 1708              		.section	.text.unlikely
 1709              		.text
 1711              		.section	.text.unlikely
 1713              	.LCOLDE7:
 1714              		.text
 1715              	.LHOTE7:
 1716              		.section	.text._ZNSt7__cxx1115basic_stringbufIcSt11char_traitsIcESaIcEED0Ev,"axG",@progbits,_ZNSt7
 1717              		.align 2
 1718              		.p2align 4
 1719              		.weak	_ZNSt7__cxx1115basic_stringbufIcSt11char_traitsIcESaIcEED0Ev
 1721              	_ZNSt7__cxx1115basic_stringbufIcSt11char_traitsIcESaIcEED0Ev:
 1722              	.LFB1287:
 1723              		.cfi_startproc
 1724 0000 F30F1EFA 		endbr64
 1725 0004 488D0500 		leaq	16+_ZTVNSt7__cxx1115basic_stringbufIcSt11char_traitsIcESaIcEEE(%rip), %rax
 1725      000000
 1726 000b 55       		pushq	%rbp
 1727              		.cfi_def_cfa_offset 16
 1728              		.cfi_offset 6, -16
 1729 000c 4889FD   		movq	%rdi, %rbp
 1730 000f 488907   		movq	%rax, (%rdi)
 1731 0012 488B7F48 		movq	72(%rdi), %rdi
 1732 0016 488D4558 		leaq	88(%rbp), %rax
 1733 001a 4839C7   		cmpq	%rax, %rdi
 1734 001d 7405     		je	.L120
 1735 001f E8000000 		call	_ZdlPv@PLT
 1735      00
 1736              	.L120:
 1737 0024 488D0500 		leaq	16+_ZTVSt15basic_streambufIcSt11char_traitsIcEE(%rip), %rax
 1737      000000
 1738 002b 488D7D38 		leaq	56(%rbp), %rdi
 1739 002f 48894500 		movq	%rax, 0(%rbp)
 1740 0033 E8000000 		call	_ZNSt6localeD1Ev@PLT
 1740      00
 1741 0038 4889EF   		movq	%rbp, %rdi
 1742 003b 5D       		popq	%rbp
 1743              		.cfi_def_cfa_offset 8
 1744 003c E9000000 		jmp	_ZdlPv@PLT
 1744      00
 1745              		.cfi_endproc
 1746              	.LFE1287:
 1748              		.section	.text._ZN8UnitTest10CheckEqualI9USBStatusS1_EEvRNS_11TestResultsERKT_RKT0_RKNS_11TestDeta
 1749              		.p2align 4
 1750              		.weak	_ZN8UnitTest10CheckEqualI9USBStatusS1_EEvRNS_11TestResultsERKT_RKT0_RKNS_11TestDetailsE
 1752              	_ZN8UnitTest10CheckEqualI9USBStatusS1_EEvRNS_11TestResultsERKT_RKT0_RKNS_11TestDetailsE:
 1753              	.LFB1303:
 1754              		.cfi_startproc
 1755              		.cfi_personality 0x9b,DW.ref.__gxx_personality_v0
 1756              		.cfi_lsda 0x1b,.LLSDA1303
 1757 0000 F30F1EFA 		endbr64
 1758 0004 4157     		pushq	%r15
 1759              		.cfi_def_cfa_offset 16
 1760              		.cfi_offset 15, -16
 1761 0006 4156     		pushq	%r14
 1762              		.cfi_def_cfa_offset 24
 1763              		.cfi_offset 14, -24
 1764 0008 4155     		pushq	%r13
 1765              		.cfi_def_cfa_offset 32
 1766              		.cfi_offset 13, -32
 1767 000a 4154     		pushq	%r12
 1768              		.cfi_def_cfa_offset 40
 1769              		.cfi_offset 12, -40
 1770 000c 55       		pushq	%rbp
 1771              		.cfi_def_cfa_offset 48
 1772              		.cfi_offset 6, -48
 1773 000d 53       		pushq	%rbx
 1774              		.cfi_def_cfa_offset 56
 1775              		.cfi_offset 3, -56
 1776 000e 4881ECD8 		subq	$472, %rsp
 1776      010000
 1777              		.cfi_def_cfa_offset 528
 1778 0015 F30F7E0D 		movq	.LC3(%rip), %xmm1
 1778      00000000 
 1779 001d 48897C24 		movq	%rdi, 16(%rsp)
 1779      10
 1780 0022 48894C24 		movq	%rcx, 24(%rsp)
 1780      18
 1781 0027 0F160D00 		movhps	.LC4(%rip), %xmm1
 1781      000000
 1782 002e 64488B04 		movq	%fs:40, %rax
 1782      25280000 
 1782      00
 1783 0037 48898424 		movq	%rax, 456(%rsp)
 1783      C8010000 
 1784 003f 31C0     		xorl	%eax, %eax
 1785 0041 8B02     		movl	(%rdx), %eax
 1786 0043 0F290C24 		movaps	%xmm1, (%rsp)
 1787 0047 3906     		cmpl	%eax, (%rsi)
 1788 0049 752D     		jne	.L138
 1789              	.L122:
 1790 004b 488B8424 		movq	456(%rsp), %rax
 1790      C8010000 
 1791 0053 64482B04 		subq	%fs:40, %rax
 1791      25280000 
 1791      00
 1792 005c 0F854B02 		jne	.L139
 1792      0000
 1793 0062 4881C4D8 		addq	$472, %rsp
 1793      010000
 1794              		.cfi_remember_state
 1795              		.cfi_def_cfa_offset 56
 1796 0069 5B       		popq	%rbx
 1797              		.cfi_def_cfa_offset 48
 1798 006a 5D       		popq	%rbp
 1799              		.cfi_def_cfa_offset 40
 1800 006b 415C     		popq	%r12
 1801              		.cfi_def_cfa_offset 32
 1802 006d 415D     		popq	%r13
 1803              		.cfi_def_cfa_offset 24
 1804 006f 415E     		popq	%r14
 1805              		.cfi_def_cfa_offset 16
 1806 0071 415F     		popq	%r15
 1807              		.cfi_def_cfa_offset 8
 1808 0073 C3       		ret
 1809              		.p2align 4,,10
 1810 0074 0F1F4000 		.p2align 3
 1811              	.L138:
 1812              		.cfi_restore_state
 1813 0078 4C8DAC24 		leaq	192(%rsp), %r13
 1813      C0000000 
 1814 0080 4889F5   		movq	%rsi, %rbp
 1815 0083 4889D3   		movq	%rdx, %rbx
 1816 0086 4C89EF   		movq	%r13, %rdi
 1817 0089 E8000000 		call	_ZNSt8ios_baseC2Ev@PLT
 1817      00
 1818 008e 31C0     		xorl	%eax, %eax
 1819 0090 660FEFC0 		pxor	%xmm0, %xmm0
 1820 0094 31F6     		xorl	%esi, %esi
 1821 0096 66898424 		movw	%ax, 416(%rsp)
 1821      A0010000 
 1822 009e 488D0500 		leaq	24+_ZTCN8UnitTest15MemoryOutStreamE0_So(%rip), %rax
 1822      000000
 1823 00a5 4C89EF   		movq	%r13, %rdi
 1824 00a8 48894424 		movq	%rax, 48(%rsp)
 1824      30
 1825 00ad 4883C028 		addq	$40, %rax
 1826 00b1 48C78424 		movq	$0, 408(%rsp)
 1826      98010000 
 1826      00000000 
 1827 00bd 48898424 		movq	%rax, 192(%rsp)
 1827      C0000000 
 1828 00c5 0F118424 		movups	%xmm0, 424(%rsp)
 1828      A8010000 
 1829 00cd 0F118424 		movups	%xmm0, 440(%rsp)
 1829      B8010000 
 1830              	.LEHB34:
 1831 00d5 E8000000 		call	_ZNSt9basic_iosIcSt11char_traitsIcEE4initEPSt15basic_streambufIcS1_E@PLT
 1831      00
 1832              	.LEHE34:
 1833 00da 660F6F0C 		movdqa	(%rsp), %xmm1
 1833      24
 1834 00df 4C8D7424 		leaq	112(%rsp), %r14
 1834      70
 1835 00e4 660FEFC0 		pxor	%xmm0, %xmm0
 1836 00e8 488D0500 		leaq	64+_ZTCN8UnitTest15MemoryOutStreamE0_NSt7__cxx1119basic_ostringstreamIcSt11char_traitsIcESaIc
 1836      000000
 1837 00ef 4C89F7   		movq	%r14, %rdi
 1838 00f2 0F294424 		movaps	%xmm0, 64(%rsp)
 1838      40
 1839 00f7 4C8D6424 		leaq	48(%rsp), %r12
 1839      30
 1840 00fc 4C8D7C24 		leaq	56(%rsp), %r15
 1840      38
 1841 0101 48898424 		movq	%rax, 192(%rsp)
 1841      C0000000 
 1842 0109 0F294C24 		movaps	%xmm1, 48(%rsp)
 1842      30
 1843 010e 0F294424 		movaps	%xmm0, 80(%rsp)
 1843      50
 1844 0113 0F294424 		movaps	%xmm0, 96(%rsp)
 1844      60
 1845 0118 E8000000 		call	_ZNSt6localeC1Ev@PLT
 1845      00
 1846 011d 488D0500 		leaq	16+_ZTVNSt7__cxx1115basic_stringbufIcSt11char_traitsIcESaIcEEE(%rip), %rax
 1846      000000
 1847 0124 4C89FE   		movq	%r15, %rsi
 1848 0127 48C78424 		movq	$0, 136(%rsp)
 1848      88000000 
 1848      00000000 
 1849 0133 48894424 		movq	%rax, 56(%rsp)
 1849      38
 1850 0138 488D8424 		leaq	144(%rsp), %rax
 1850      90000000 
 1851 0140 48894424 		movq	%rax, 32(%rsp)
 1851      20
 1852 0145 48898424 		movq	%rax, 128(%rsp)
 1852      80000000 
 1853 014d 488B4424 		movq	48(%rsp), %rax
 1853      30
 1854 0152 C6842490 		movb	$0, 144(%rsp)
 1854      00000000 
 1855 015a 488B78E8 		movq	-24(%rax), %rdi
 1856 015e C7442478 		movl	$16, 120(%rsp)
 1856      10000000 
 1857 0166 4C01E7   		addq	%r12, %rdi
 1858              	.LEHB35:
 1859 0169 E8000000 		call	_ZNSt9basic_iosIcSt11char_traitsIcEE4initEPSt15basic_streambufIcS1_E@PLT
 1859      00
 1860              	.LEHE35:
 1861 016e 4C8D3D00 		leaq	24+_ZTVN8UnitTest15MemoryOutStreamE(%rip), %r15
 1861      000000
 1862 0175 BA090000 		movl	$9, %edx
 1862      00
 1863 017a 4C89E7   		movq	%r12, %rdi
 1864 017d 48C78424 		movq	$0, 168(%rsp)
 1864      A8000000 
 1864      00000000 
 1865 0189 498D4728 		leaq	40(%r15), %rax
 1866 018d 488D3500 		leaq	.LC0(%rip), %rsi
 1866      000000
 1867 0194 4C897C24 		movq	%r15, 48(%rsp)
 1867      30
 1868 0199 48898424 		movq	%rax, 192(%rsp)
 1868      C0000000 
 1869 01a1 488D8424 		leaq	176(%rsp), %rax
 1869      B0000000 
 1870 01a9 48894424 		movq	%rax, 40(%rsp)
 1870      28
 1871 01ae 48898424 		movq	%rax, 160(%rsp)
 1871      A0000000 
 1872 01b6 C68424B0 		movb	$0, 176(%rsp)
 1872      00000000 
 1873              	.LEHB36:
 1874 01be E8000000 		call	_ZSt16__ostream_insertIcSt11char_traitsIcEERSt13basic_ostreamIT_T0_ES6_PKS3_l@PLT
 1874      00
 1875 01c3 8B7500   		movl	0(%rbp), %esi
 1876 01c6 4C89E7   		movq	%r12, %rdi
 1877 01c9 E8000000 		call	_ZNSolsEi@PLT
 1877      00
 1878 01ce BA090000 		movl	$9, %edx
 1878      00
 1879 01d3 488D3500 		leaq	.LC1(%rip), %rsi
 1879      000000
 1880 01da 4889C7   		movq	%rax, %rdi
 1881 01dd 4889C5   		movq	%rax, %rbp
 1882 01e0 E8000000 		call	_ZSt16__ostream_insertIcSt11char_traitsIcEERSt13basic_ostreamIT_T0_ES6_PKS3_l@PLT
 1882      00
 1883 01e5 8B33     		movl	(%rbx), %esi
 1884 01e7 4889EF   		movq	%rbp, %rdi
 1885 01ea E8000000 		call	_ZNSolsEi@PLT
 1885      00
 1886 01ef 4C89E7   		movq	%r12, %rdi
 1887 01f2 E8000000 		call	_ZNK8UnitTest15MemoryOutStream7GetTextEv@PLT
 1887      00
 1888 01f7 488B7424 		movq	24(%rsp), %rsi
 1888      18
 1889 01fc 488B7C24 		movq	16(%rsp), %rdi
 1889      10
 1890 0201 4889C2   		movq	%rax, %rdx
 1891 0204 F30F7E15 		movq	.LC3(%rip), %xmm2
 1891      00000000 
 1892 020c 0F161500 		movhps	.LC5(%rip), %xmm2
 1892      000000
 1893 0213 0F291424 		movaps	%xmm2, (%rsp)
 1894 0217 E8000000 		call	_ZN8UnitTest11TestResults13OnTestFailureERKNS_11TestDetailsEPKc@PLT
 1894      00
 1895              	.LEHE36:
 1896 021c 488D0500 		leaq	64+_ZTVN8UnitTest15MemoryOutStreamE(%rip), %rax
 1896      000000
 1897 0223 4C897C24 		movq	%r15, 48(%rsp)
 1897      30
 1898 0228 488BBC24 		movq	160(%rsp), %rdi
 1898      A0000000 
 1899 0230 48898424 		movq	%rax, 192(%rsp)
 1899      C0000000 
 1900 0238 483B7C24 		cmpq	40(%rsp), %rdi
 1900      28
 1901 023d 7405     		je	.L128
 1902 023f E8000000 		call	_ZdlPv@PLT
 1902      00
 1903              	.L128:
 1904 0244 660F6F1C 		movdqa	(%rsp), %xmm3
 1904      24
 1905 0249 488D0500 		leaq	64+_ZTCN8UnitTest15MemoryOutStreamE0_NSt7__cxx1119basic_ostringstreamIcSt11char_traitsIcESaIc
 1905      000000
 1906 0250 488BBC24 		movq	128(%rsp), %rdi
 1906      80000000 
 1907 0258 48898424 		movq	%rax, 192(%rsp)
 1907      C0000000 
 1908 0260 0F295C24 		movaps	%xmm3, 48(%rsp)
 1908      30
 1909 0265 483B7C24 		cmpq	32(%rsp), %rdi
 1909      20
 1910 026a 7405     		je	.L129
 1911 026c E8000000 		call	_ZdlPv@PLT
 1911      00
 1912              	.L129:
 1913 0271 488D0500 		leaq	16+_ZTVSt15basic_streambufIcSt11char_traitsIcEE(%rip), %rax
 1913      000000
 1914 0278 4C89F7   		movq	%r14, %rdi
 1915 027b 48894424 		movq	%rax, 56(%rsp)
 1915      38
 1916 0280 E8000000 		call	_ZNSt6localeD1Ev@PLT
 1916      00
 1917 0285 488D0500 		leaq	24+_ZTCN8UnitTest15MemoryOutStreamE0_So(%rip), %rax
 1917      000000
 1918 028c 4C89EF   		movq	%r13, %rdi
 1919 028f 48894424 		movq	%rax, 48(%rsp)
 1919      30
 1920 0294 488D0500 		leaq	16+_ZTVSt9basic_iosIcSt11char_traitsIcEE(%rip), %rax
 1920      000000
 1921 029b 48898424 		movq	%rax, 192(%rsp)
 1921      C0000000 
 1922              	.LEHB37:
 1923 02a3 E8000000 		call	_ZNSt8ios_baseD2Ev@PLT
 1923      00
 1924              	.LEHE37:
 1925 02a8 E99EFDFF 		jmp	.L122
 1925      FF
 1926              	.L139:
 1927 02ad E8000000 		call	__stack_chk_fail@PLT
 1927      00
 1928              	.L133:
 1929 02b2 F30F1EFA 		endbr64
 1930 02b6 4889C5   		movq	%rax, %rbp
 1931 02b9 EB26     		jmp	.L126
 1932              	.L134:
 1933 02bb F30F1EFA 		endbr64
 1934 02bf 4889C5   		movq	%rax, %rbp
 1935 02c2 EB09     		jmp	.L125
 1936              	.L132:
 1937 02c4 F30F1EFA 		endbr64
 1938 02c8 4889C5   		movq	%rax, %rbp
 1939 02cb EB33     		jmp	.L130
 1940              	.L125:
 1941 02cd 4C89FF   		movq	%r15, %rdi
 1942 02d0 E8000000 		call	_ZNSt7__cxx1115basic_stringbufIcSt11char_traitsIcESaIcEED1Ev
 1942      00
 1943 02d5 488D0500 		leaq	24+_ZTCN8UnitTest15MemoryOutStreamE0_So(%rip), %rax
 1943      000000
 1944 02dc 48894424 		movq	%rax, 48(%rsp)
 1944      30
 1945              	.L126:
 1946 02e1 488D0500 		leaq	16+_ZTVSt9basic_iosIcSt11char_traitsIcEE(%rip), %rax
 1946      000000
 1947 02e8 4C89EF   		movq	%r13, %rdi
 1948 02eb 48898424 		movq	%rax, 192(%rsp)
 1948      C0000000 
 1949 02f3 E8000000 		call	_ZNSt8ios_baseD2Ev@PLT
 1949      00
 1950 02f8 4889EF   		movq	%rbp, %rdi
 1951              	.LEHB38:
 1952 02fb E8000000 		call	_Unwind_Resume@PLT
 1952      00
 1953              	.LEHE38:
 1954              	.L130:
 1955 0300 4C89E7   		movq	%r12, %rdi
 1956 0303 E8000000 		call	_ZN8UnitTest15MemoryOutStreamD1Ev
 1956      00
 1957 0308 4889EF   		movq	%rbp, %rdi
 1958              	.LEHB39:
 1959 030b E8000000 		call	_Unwind_Resume@PLT
 1959      00
 1960              	.LEHE39:
 1961              		.cfi_endproc
 1962              	.LFE1303:
 1963              		.section	.gcc_except_table
 1964              	.LLSDA1303:
 1965 006f FF       		.byte	0xff
 1966 0070 FF       		.byte	0xff
 1967 0071 01       		.byte	0x1
 1968 0072 21       		.uleb128 .LLSDACSE1303-.LLSDACSB1303
 1969              	.LLSDACSB1303:
 1970 0073 D501     		.uleb128 .LEHB34-.LFB1303
 1971 0075 05       		.uleb128 .LEHE34-.LEHB34
 1972 0076 B205     		.uleb128 .L133-.LFB1303
 1973 0078 00       		.uleb128 0
 1974 0079 E902     		.uleb128 .LEHB35-.LFB1303
 1975 007b 05       		.uleb128 .LEHE35-.LEHB35
 1976 007c BB05     		.uleb128 .L134-.LFB1303
 1977 007e 00       		.uleb128 0
 1978 007f BE03     		.uleb128 .LEHB36-.LFB1303
 1979 0081 5E       		.uleb128 .LEHE36-.LEHB36
 1980 0082 C405     		.uleb128 .L132-.LFB1303
 1981 0084 00       		.uleb128 0
 1982 0085 A305     		.uleb128 .LEHB37-.LFB1303
 1983 0087 05       		.uleb128 .LEHE37-.LEHB37
 1984 0088 00       		.uleb128 0
 1985 0089 00       		.uleb128 0
 1986 008a FB05     		.uleb128 .LEHB38-.LFB1303
 1987 008c 05       		.uleb128 .LEHE38-.LEHB38
 1988 008d 00       		.uleb128 0
 1989 008e 00       		.uleb128 0
 1990 008f 8B06     		.uleb128 .LEHB39-.LFB1303
 1991 0091 05       		.uleb128 .LEHE39-.LEHB39
 1992 0092 00       		.uleb128 0
 1993 0093 00       		.uleb128 0
 1994              	.LLSDACSE1303:
 1995              		.section	.text._ZN8UnitTest10CheckEqualI9USBStatusS1_EEvRNS_11TestResultsERKT_RKT0_RKNS_11TestDeta
 1997              		.section	.rodata.str1.8
 1998 0033 00000000 		.align 8
 1998      00
 1999              	.LC8:
 2000 0038 556E6861 		.string	"Unhandled exception in CHECK_EQUAL(USB_ALLOC_ERR, status)"
 2000      6E646C65 
 2000      64206578 
 2000      63657074 
 2000      696F6E20 
 2001              		.section	.text.unlikely
 2002              		.align 2
 2003              	.LCOLDB9:
 2004              		.text
 2005              	.LHOTB9:
 2006              		.align 2
 2007 062e 6690     		.p2align 4
 2008              		.globl	_ZNK22TestQueue_testAllocOOM7RunImplEv
 2010              	_ZNK22TestQueue_testAllocOOM7RunImplEv:
 2011              	.LFB1267:
 2012              		.cfi_startproc
 2013              		.cfi_personality 0x9b,DW.ref.__gxx_personality_v0
 2014              		.cfi_lsda 0x1b,.LLSDA1267
 2015 0630 F30F1EFA 		endbr64
 2016 0634 4155     		pushq	%r13
 2017              		.cfi_def_cfa_offset 16
 2018              		.cfi_offset 13, -16
 2019 0636 488D0D00 		leaq	destroyInt(%rip), %rcx
 2019      000000
 2020 063d BE090000 		movl	$9, %esi
 2020      00
 2021 0642 488D1500 		leaq	createInt(%rip), %rdx
 2021      000000
 2022 0649 4154     		pushq	%r12
 2023              		.cfi_def_cfa_offset 24
 2024              		.cfi_offset 12, -24
 2025 064b 55       		pushq	%rbp
 2026              		.cfi_def_cfa_offset 32
 2027              		.cfi_offset 6, -32
 2028 064c 4883EC70 		subq	$112, %rsp
 2029              		.cfi_def_cfa_offset 144
 2030 0650 64488B04 		movq	%fs:40, %rax
 2030      25280000 
 2030      00
 2031 0659 48894424 		movq	%rax, 104(%rsp)
 2031      68
 2032 065e 31C0     		xorl	%eax, %eax
 2033 0660 488D6C24 		leaq	48(%rsp), %rbp
 2033      30
 2034 0665 C7050000 		movl	$1, _ZL7m_count(%rip)
 2034      00000100 
 2034      0000
 2035 066f 4889EF   		movq	%rbp, %rdi
 2036              	.LEHB40:
 2037 0672 E8000000 		call	queueInit@PLT
 2037      00
 2038              	.LEHE40:
 2039 0677 89442408 		movl	%eax, 8(%rsp)
 2040              	.LEHB41:
 2041 067b E8000000 		call	_ZN8UnitTest11CurrentTest7DetailsEv@PLT
 2041      00
 2042 0680 4C8D6424 		leaq	16(%rsp), %r12
 2042      10
 2043 0685 488B30   		movq	(%rax), %rsi
 2044 0688 BA510100 		movl	$337, %edx
 2044      00
 2045 068d 4C89E7   		movq	%r12, %rdi
 2046 0690 E8000000 		call	_ZN8UnitTest11TestDetailsC1ERKS0_i@PLT
 2046      00
 2047 0695 C744240C 		movl	$12, 12(%rsp)
 2047      0C000000 
 2048 069d E8000000 		call	_ZN8UnitTest11CurrentTest7ResultsEv@PLT
 2048      00
 2049 06a2 488B38   		movq	(%rax), %rdi
 2050 06a5 488D5424 		leaq	8(%rsp), %rdx
 2050      08
 2051 06aa 488D7424 		leaq	12(%rsp), %rsi
 2051      0C
 2052 06af 4C89E1   		movq	%r12, %rcx
 2053 06b2 E8000000 		call	_ZN8UnitTest10CheckEqualI9USBStatusS1_EEvRNS_11TestResultsERKT_RKT0_RKNS_11TestDetailsE
 2053      00
 2054              	.LEHE41:
 2055              	.L142:
 2056 06b7 4889EF   		movq	%rbp, %rdi
 2057              	.LEHB42:
 2058 06ba E8000000 		call	queueDestroy@PLT
 2058      00
 2059              	.LEHE42:
 2060 06bf 488B4424 		movq	104(%rsp), %rax
 2060      68
 2061 06c4 64482B04 		subq	%fs:40, %rax
 2061      25280000 
 2061      00
 2062 06cd 750A     		jne	.L149
 2063 06cf 4883C470 		addq	$112, %rsp
 2064              		.cfi_remember_state
 2065              		.cfi_def_cfa_offset 32
 2066 06d3 5D       		popq	%rbp
 2067              		.cfi_def_cfa_offset 24
 2068 06d4 415C     		popq	%r12
 2069              		.cfi_def_cfa_offset 16
 2070 06d6 415D     		popq	%r13
 2071              		.cfi_def_cfa_offset 8
 2072 06d8 C3       		ret
 2073              	.L149:
 2074              		.cfi_restore_state
 2075 06d9 E8000000 		call	__stack_chk_fail@PLT
 2075      00
 2076              	.L145:
 2077 06de F30F1EFA 		endbr64
 2078 06e2 4889C7   		movq	%rax, %rdi
 2079 06e5 E9000000 		jmp	.L141
 2079      00
 2080              		.section	.gcc_except_table
 2081              		.align 4
 2082              	.LLSDA1267:
 2083 0094 FF       		.byte	0xff
 2084 0095 9B       		.byte	0x9b
 2085 0096 19       		.uleb128 .LLSDATT1267-.LLSDATTD1267
 2086              	.LLSDATTD1267:
 2087 0097 01       		.byte	0x1
 2088 0098 0E       		.uleb128 .LLSDACSE1267-.LLSDACSB1267
 2089              	.LLSDACSB1267:
 2090 0099 42       		.uleb128 .LEHB40-.LFB1267
 2091 009a 05       		.uleb128 .LEHE40-.LEHB40
 2092 009b 00       		.uleb128 0
 2093 009c 00       		.uleb128 0
 2094 009d 4B       		.uleb128 .LEHB41-.LFB1267
 2095 009e 3C       		.uleb128 .LEHE41-.LEHB41
 2096 009f AE01     		.uleb128 .L145-.LFB1267
 2097 00a1 01       		.uleb128 0x1
 2098 00a2 8A01     		.uleb128 .LEHB42-.LFB1267
 2099 00a4 05       		.uleb128 .LEHE42-.LEHB42
 2100 00a5 00       		.uleb128 0
 2101 00a6 00       		.uleb128 0
 2102              	.LLSDACSE1267:
 2103 00a7 01       		.byte	0x1
 2104 00a8 00       		.byte	0
 2105 00a9 000000   		.align 4
 2106 00ac 00000000 		.long	0
 2107              	
 2108              	.LLSDATT1267:
 2109              		.text
 2110              		.cfi_endproc
 2111              		.section	.text.unlikely
 2112              		.cfi_startproc
 2113              		.cfi_personality 0x9b,DW.ref.__gxx_personality_v0
 2114              		.cfi_lsda 0x1b,.LLSDAC1267
 2116              	_ZNK22TestQueue_testAllocOOM7RunImplEv.cold:
 2117              	.LFSB1267:
 2118              	.L141:
 2119              		.cfi_def_cfa_offset 144
 2120              		.cfi_offset 6, -32
 2121              		.cfi_offset 12, -24
 2122              		.cfi_offset 13, -16
 2123 00fc E8000000 		call	__cxa_begin_catch@PLT
 2123      00
 2124              	.LEHB43:
 2125 0101 E8000000 		call	_ZN8UnitTest11CurrentTest7ResultsEv@PLT
 2125      00
 2126 0106 4C8B28   		movq	(%rax), %r13
 2127 0109 E8000000 		call	_ZN8UnitTest11CurrentTest7DetailsEv@PLT
 2127      00
 2128 010e 4C8D6424 		leaq	16(%rsp), %r12
 2128      10
 2129 0113 488B30   		movq	(%rax), %rsi
 2130 0116 BA510100 		movl	$337, %edx
 2130      00
 2131 011b 4C89E7   		movq	%r12, %rdi
 2132 011e E8000000 		call	_ZN8UnitTest11TestDetailsC1ERKS0_i@PLT
 2132      00
 2133 0123 488D1500 		leaq	.LC8(%rip), %rdx
 2133      000000
 2134 012a 4C89E6   		movq	%r12, %rsi
 2135 012d 4C89EF   		movq	%r13, %rdi
 2136 0130 E8000000 		call	_ZN8UnitTest11TestResults13OnTestFailureERKNS_11TestDetailsEPKc@PLT
 2136      00
 2137              	.LEHE43:
 2138              	.LEHB44:
 2139 0135 E8000000 		call	__cxa_end_catch@PLT
 2139      00
 2140              	.LEHE44:
 2141 013a E9000000 		jmp	.L142
 2141      00
 2142              	.L146:
 2143 013f F30F1EFA 		endbr64
 2144 0143 4889C5   		movq	%rax, %rbp
 2145 0146 E8000000 		call	__cxa_end_catch@PLT
 2145      00
 2146 014b 4889EF   		movq	%rbp, %rdi
 2147              	.LEHB45:
 2148 014e E8000000 		call	_Unwind_Resume@PLT
 2148      00
 2149              	.LEHE45:
 2150              		.cfi_endproc
 2151              	.LFE1267:
 2152              		.section	.gcc_except_table
 2153              		.align 4
 2154              	.LLSDAC1267:
 2155 00b0 FF       		.byte	0xff
 2156 00b1 9B       		.byte	0x9b
 2157 00b2 15       		.uleb128 .LLSDATTC1267-.LLSDATTDC1267
 2158              	.LLSDATTDC1267:
 2159 00b3 01       		.byte	0x1
 2160 00b4 0C       		.uleb128 .LLSDACSEC1267-.LLSDACSBC1267
 2161              	.LLSDACSBC1267:
 2162 00b5 05       		.uleb128 .LEHB43-.LCOLDB9
 2163 00b6 34       		.uleb128 .LEHE43-.LEHB43
 2164 00b7 43       		.uleb128 .L146-.LCOLDB9
 2165 00b8 00       		.uleb128 0
 2166 00b9 39       		.uleb128 .LEHB44-.LCOLDB9
 2167 00ba 05       		.uleb128 .LEHE44-.LEHB44
 2168 00bb 00       		.uleb128 0
 2169 00bc 00       		.uleb128 0
 2170 00bd 52       		.uleb128 .LEHB45-.LCOLDB9
 2171 00be 05       		.uleb128 .LEHE45-.LEHB45
 2172 00bf 00       		.uleb128 0
 2173 00c0 00       		.uleb128 0
 2174              	.LLSDACSEC1267:
 2175 00c1 01       		.byte	0x1
 2176 00c2 00       		.byte	0
 2177 00c3 00       		.align 4
 2178 00c4 00000000 		.long	0
 2179              	
 2180              	.LLSDATTC1267:
 2181              		.section	.text.unlikely
 2182              		.text
 2184              		.section	.text.unlikely
 2186              	.LCOLDE9:
 2187              		.text
 2188              	.LHOTE9:
 2189              		.section	.rodata.str1.8
 2190 0072 00000000 		.align 8
 2190      0000
 2191              	.LC10:
 2192 0078 556E6861 		.string	"Unhandled exception in CHECK_EQUAL(USB_SUCCESS, status)"
 2192      6E646C65 
 2192      64206578 
 2192      63657074 
 2192      696F6E20 
 2193              		.section	.text.unlikely
 2194 0153 90       		.align 2
 2195              	.LCOLDB11:
 2196              		.text
 2197              	.LHOTB11:
 2198              		.align 2
 2199 06ea 660F1F44 		.p2align 4
 2199      0000
 2200              		.globl	_ZNK24TestQueue_testReallocOOM7RunImplEv
 2202              	_ZNK24TestQueue_testReallocOOM7RunImplEv:
 2203              	.LFB1271:
 2204              		.cfi_startproc
 2205              		.cfi_personality 0x9b,DW.ref.__gxx_personality_v0
 2206              		.cfi_lsda 0x1b,.LLSDA1271
 2207 06f0 F30F1EFA 		endbr64
 2208 06f4 4156     		pushq	%r14
 2209              		.cfi_def_cfa_offset 16
 2210              		.cfi_offset 14, -16
 2211 06f6 488D0D00 		leaq	destroyInt(%rip), %rcx
 2211      000000
 2212 06fd BE080000 		movl	$8, %esi
 2212      00
 2213 0702 488D1500 		leaq	createInt(%rip), %rdx
 2213      000000
 2214 0709 4155     		pushq	%r13
 2215              		.cfi_def_cfa_offset 24
 2216              		.cfi_offset 13, -24
 2217 070b 4154     		pushq	%r12
 2218              		.cfi_def_cfa_offset 32
 2219              		.cfi_offset 12, -32
 2220 070d 55       		pushq	%rbp
 2221              		.cfi_def_cfa_offset 40
 2222              		.cfi_offset 6, -40
 2223 070e 4883EC78 		subq	$120, %rsp
 2224              		.cfi_def_cfa_offset 160
 2225 0712 64488B04 		movq	%fs:40, %rax
 2225      25280000 
 2225      00
 2226 071b 48894424 		movq	%rax, 104(%rsp)
 2226      68
 2227 0720 31C0     		xorl	%eax, %eax
 2228 0722 4C8D6424 		leaq	48(%rsp), %r12
 2228      30
 2229 0727 C7050000 		movl	$1, _ZL7m_count(%rip)
 2229      00000100 
 2229      0000
 2230 0731 4C89E7   		movq	%r12, %rdi
 2231              	.LEHB46:
 2232 0734 E8000000 		call	queueInit@PLT
 2232      00
 2233              	.LEHE46:
 2234 0739 890424   		movl	%eax, (%rsp)
 2235              	.LEHB47:
 2236 073c E8000000 		call	_ZN8UnitTest11CurrentTest7DetailsEv@PLT
 2236      00
 2237 0741 488D6C24 		leaq	16(%rsp), %rbp
 2237      10
 2238 0746 488B30   		movq	(%rax), %rsi
 2239 0749 BA5D0100 		movl	$349, %edx
 2239      00
 2240 074e 4889EF   		movq	%rbp, %rdi
 2241 0751 E8000000 		call	_ZN8UnitTest11TestDetailsC1ERKS0_i@PLT
 2241      00
 2242 0756 C7442408 		movl	$0, 8(%rsp)
 2242      00000000 
 2243 075e E8000000 		call	_ZN8UnitTest11CurrentTest7ResultsEv@PLT
 2243      00
 2244 0763 4C8D6C24 		leaq	8(%rsp), %r13
 2244      08
 2245 0768 488B38   		movq	(%rax), %rdi
 2246 076b 4889E2   		movq	%rsp, %rdx
 2247 076e 4889E9   		movq	%rbp, %rcx
 2248 0771 4C89EE   		movq	%r13, %rsi
 2249 0774 E8E7FBFF 		call	_ZN8UnitTest10CheckEqualI9USBStatusS1_EEvRNS_11TestResultsERKT_RKT0_RKNS_11TestDetailsE.const
 2249      FF
 2250              	.LEHE47:
 2251              	.L152:
 2252 0779 4C89EE   		movq	%r13, %rsi
 2253 077c 4C89E7   		movq	%r12, %rdi
 2254              	.LEHB48:
 2255 077f E8000000 		call	queuePut@PLT
 2255      00
 2256              	.LEHE48:
 2257 0784 890424   		movl	%eax, (%rsp)
 2258              	.LEHB49:
 2259 0787 E8000000 		call	_ZN8UnitTest11CurrentTest7DetailsEv@PLT
 2259      00
 2260 078c 488B30   		movq	(%rax), %rsi
 2261 078f BA610100 		movl	$353, %edx
 2261      00
 2262 0794 4889EF   		movq	%rbp, %rdi
 2263 0797 E8000000 		call	_ZN8UnitTest11TestDetailsC1ERKS0_i@PLT
 2263      00
 2264 079c C7442404 		movl	$0, 4(%rsp)
 2264      00000000 
 2265 07a4 E8000000 		call	_ZN8UnitTest11CurrentTest7ResultsEv@PLT
 2265      00
 2266 07a9 488B38   		movq	(%rax), %rdi
 2267 07ac 4889E2   		movq	%rsp, %rdx
 2268 07af 488D7424 		leaq	4(%rsp), %rsi
 2268      04
 2269 07b4 4889E9   		movq	%rbp, %rcx
 2270 07b7 E8A4FBFF 		call	_ZN8UnitTest10CheckEqualI9USBStatusS1_EEvRNS_11TestResultsERKT_RKT0_RKNS_11TestDetailsE.const
 2270      FF
 2271              	.LEHE49:
 2272              	.L155:
 2273 07bc 4C89E7   		movq	%r12, %rdi
 2274              	.LEHB50:
 2275 07bf E8000000 		call	queueCommitPut@PLT
 2275      00
 2276 07c4 4C89EE   		movq	%r13, %rsi
 2277 07c7 4C89E7   		movq	%r12, %rdi
 2278 07ca E8000000 		call	queuePut@PLT
 2278      00
 2279              	.LEHE50:
 2280 07cf 890424   		movl	%eax, (%rsp)
 2281              	.LEHB51:
 2282 07d2 E8000000 		call	_ZN8UnitTest11CurrentTest7DetailsEv@PLT
 2282      00
 2283 07d7 488B30   		movq	(%rax), %rsi
 2284 07da BA640100 		movl	$356, %edx
 2284      00
 2285 07df 4889EF   		movq	%rbp, %rdi
 2286 07e2 E8000000 		call	_ZN8UnitTest11TestDetailsC1ERKS0_i@PLT
 2286      00
 2287 07e7 C7442404 		movl	$0, 4(%rsp)
 2287      00000000 
 2288 07ef E8000000 		call	_ZN8UnitTest11CurrentTest7ResultsEv@PLT
 2288      00
 2289 07f4 488B38   		movq	(%rax), %rdi
 2290 07f7 4889E2   		movq	%rsp, %rdx
 2291 07fa 488D7424 		leaq	4(%rsp), %rsi
 2291      04
 2292 07ff 4889E9   		movq	%rbp, %rcx
 2293 0802 E859FBFF 		call	_ZN8UnitTest10CheckEqualI9USBStatusS1_EEvRNS_11TestResultsERKT_RKT0_RKNS_11TestDetailsE.const
 2293      FF
 2294              	.LEHE51:
 2295              	.L158:
 2296 0807 4C89E7   		movq	%r12, %rdi
 2297              	.LEHB52:
 2298 080a E8000000 		call	queueCommitPut@PLT
 2298      00
 2299 080f 4C89EE   		movq	%r13, %rsi
 2300 0812 4C89E7   		movq	%r12, %rdi
 2301 0815 E8000000 		call	queuePut@PLT
 2301      00
 2302              	.LEHE52:
 2303 081a 890424   		movl	%eax, (%rsp)
 2304              	.LEHB53:
 2305 081d E8000000 		call	_ZN8UnitTest11CurrentTest7DetailsEv@PLT
 2305      00
 2306 0822 488B30   		movq	(%rax), %rsi
 2307 0825 BA670100 		movl	$359, %edx
 2307      00
 2308 082a 4889EF   		movq	%rbp, %rdi
 2309 082d E8000000 		call	_ZN8UnitTest11TestDetailsC1ERKS0_i@PLT
 2309      00
 2310 0832 C7442404 		movl	$0, 4(%rsp)
 2310      00000000 
 2311 083a E8000000 		call	_ZN8UnitTest11CurrentTest7ResultsEv@PLT
 2311      00
 2312 083f 488B38   		movq	(%rax), %rdi
 2313 0842 4889E2   		movq	%rsp, %rdx
 2314 0845 488D7424 		leaq	4(%rsp), %rsi
 2314      04
 2315 084a 4889E9   		movq	%rbp, %rcx
 2316 084d E80EFBFF 		call	_ZN8UnitTest10CheckEqualI9USBStatusS1_EEvRNS_11TestResultsERKT_RKT0_RKNS_11TestDetailsE.const
 2316      FF
 2317              	.LEHE53:
 2318              	.L161:
 2319 0852 4C89E7   		movq	%r12, %rdi
 2320              	.LEHB54:
 2321 0855 E8000000 		call	queueCommitPut@PLT
 2321      00
 2322 085a 4C89EE   		movq	%r13, %rsi
 2323 085d 4C89E7   		movq	%r12, %rdi
 2324 0860 E8000000 		call	queuePut@PLT
 2324      00
 2325              	.LEHE54:
 2326 0865 890424   		movl	%eax, (%rsp)
 2327              	.LEHB55:
 2328 0868 E8000000 		call	_ZN8UnitTest11CurrentTest7DetailsEv@PLT
 2328      00
 2329 086d 488B30   		movq	(%rax), %rsi
 2330 0870 BA6A0100 		movl	$362, %edx
 2330      00
 2331 0875 4889EF   		movq	%rbp, %rdi
 2332 0878 E8000000 		call	_ZN8UnitTest11TestDetailsC1ERKS0_i@PLT
 2332      00
 2333 087d C7442404 		movl	$0, 4(%rsp)
 2333      00000000 
 2334 0885 E8000000 		call	_ZN8UnitTest11CurrentTest7ResultsEv@PLT
 2334      00
 2335 088a 488B38   		movq	(%rax), %rdi
 2336 088d 4889E2   		movq	%rsp, %rdx
 2337 0890 488D7424 		leaq	4(%rsp), %rsi
 2337      04
 2338 0895 4889E9   		movq	%rbp, %rcx
 2339 0898 E8C3FAFF 		call	_ZN8UnitTest10CheckEqualI9USBStatusS1_EEvRNS_11TestResultsERKT_RKT0_RKNS_11TestDetailsE.const
 2339      FF
 2340              	.LEHE55:
 2341              	.L164:
 2342 089d 4C89E7   		movq	%r12, %rdi
 2343              	.LEHB56:
 2344 08a0 E8000000 		call	queueCommitPut@PLT
 2344      00
 2345 08a5 4C89EE   		movq	%r13, %rsi
 2346 08a8 4C89E7   		movq	%r12, %rdi
 2347 08ab E8000000 		call	queuePut@PLT
 2347      00
 2348              	.LEHE56:
 2349 08b0 890424   		movl	%eax, (%rsp)
 2350              	.LEHB57:
 2351 08b3 E8000000 		call	_ZN8UnitTest11CurrentTest7DetailsEv@PLT
 2351      00
 2352 08b8 488B30   		movq	(%rax), %rsi
 2353 08bb BA6D0100 		movl	$365, %edx
 2353      00
 2354 08c0 4889EF   		movq	%rbp, %rdi
 2355 08c3 E8000000 		call	_ZN8UnitTest11TestDetailsC1ERKS0_i@PLT
 2355      00
 2356 08c8 C7442404 		movl	$0, 4(%rsp)
 2356      00000000 
 2357 08d0 E8000000 		call	_ZN8UnitTest11CurrentTest7ResultsEv@PLT
 2357      00
 2358 08d5 488B38   		movq	(%rax), %rdi
 2359 08d8 4889E2   		movq	%rsp, %rdx
 2360 08db 488D7424 		leaq	4(%rsp), %rsi
 2360      04
 2361 08e0 4889E9   		movq	%rbp, %rcx
 2362 08e3 E878FAFF 		call	_ZN8UnitTest10CheckEqualI9USBStatusS1_EEvRNS_11TestResultsERKT_RKT0_RKNS_11TestDetailsE.const
 2362      FF
 2363              	.LEHE57:
 2364              	.L167:
 2365 08e8 4C89E7   		movq	%r12, %rdi
 2366              	.LEHB58:
 2367 08eb E8000000 		call	queueCommitPut@PLT
 2367      00
 2368 08f0 4C89EE   		movq	%r13, %rsi
 2369 08f3 4C89E7   		movq	%r12, %rdi
 2370 08f6 E8000000 		call	queuePut@PLT
 2370      00
 2371              	.LEHE58:
 2372 08fb 890424   		movl	%eax, (%rsp)
 2373              	.LEHB59:
 2374 08fe E8000000 		call	_ZN8UnitTest11CurrentTest7DetailsEv@PLT
 2374      00
 2375 0903 488B30   		movq	(%rax), %rsi
 2376 0906 BA700100 		movl	$368, %edx
 2376      00
 2377 090b 4889EF   		movq	%rbp, %rdi
 2378 090e E8000000 		call	_ZN8UnitTest11TestDetailsC1ERKS0_i@PLT
 2378      00
 2379 0913 C7442404 		movl	$0, 4(%rsp)
 2379      00000000 
 2380 091b E8000000 		call	_ZN8UnitTest11CurrentTest7ResultsEv@PLT
 2380      00
 2381 0920 488B38   		movq	(%rax), %rdi
 2382 0923 4889E2   		movq	%rsp, %rdx
 2383 0926 488D7424 		leaq	4(%rsp), %rsi
 2383      04
 2384 092b 4889E9   		movq	%rbp, %rcx
 2385 092e E82DFAFF 		call	_ZN8UnitTest10CheckEqualI9USBStatusS1_EEvRNS_11TestResultsERKT_RKT0_RKNS_11TestDetailsE.const
 2385      FF
 2386              	.LEHE59:
 2387              	.L170:
 2388 0933 4C89E7   		movq	%r12, %rdi
 2389              	.LEHB60:
 2390 0936 E8000000 		call	queueCommitPut@PLT
 2390      00
 2391 093b 4C89EE   		movq	%r13, %rsi
 2392 093e 4C89E7   		movq	%r12, %rdi
 2393 0941 E8000000 		call	queuePut@PLT
 2393      00
 2394              	.LEHE60:
 2395 0946 890424   		movl	%eax, (%rsp)
 2396              	.LEHB61:
 2397 0949 E8000000 		call	_ZN8UnitTest11CurrentTest7DetailsEv@PLT
 2397      00
 2398 094e 488B30   		movq	(%rax), %rsi
 2399 0951 BA730100 		movl	$371, %edx
 2399      00
 2400 0956 4889EF   		movq	%rbp, %rdi
 2401 0959 E8000000 		call	_ZN8UnitTest11TestDetailsC1ERKS0_i@PLT
 2401      00
 2402 095e C7442404 		movl	$0, 4(%rsp)
 2402      00000000 
 2403 0966 E8000000 		call	_ZN8UnitTest11CurrentTest7ResultsEv@PLT
 2403      00
 2404 096b 488B38   		movq	(%rax), %rdi
 2405 096e 4889E2   		movq	%rsp, %rdx
 2406 0971 488D7424 		leaq	4(%rsp), %rsi
 2406      04
 2407 0976 4889E9   		movq	%rbp, %rcx
 2408 0979 E8E2F9FF 		call	_ZN8UnitTest10CheckEqualI9USBStatusS1_EEvRNS_11TestResultsERKT_RKT0_RKNS_11TestDetailsE.const
 2408      FF
 2409              	.LEHE61:
 2410              	.L173:
 2411 097e 4C89E7   		movq	%r12, %rdi
 2412              	.LEHB62:
 2413 0981 E8000000 		call	queueCommitPut@PLT
 2413      00
 2414 0986 4C89EE   		movq	%r13, %rsi
 2415 0989 4C89E7   		movq	%r12, %rdi
 2416 098c E8000000 		call	queuePut@PLT
 2416      00
 2417              	.LEHE62:
 2418 0991 890424   		movl	%eax, (%rsp)
 2419              	.LEHB63:
 2420 0994 E8000000 		call	_ZN8UnitTest11CurrentTest7DetailsEv@PLT
 2420      00
 2421 0999 488B30   		movq	(%rax), %rsi
 2422 099c BA760100 		movl	$374, %edx
 2422      00
 2423 09a1 4889EF   		movq	%rbp, %rdi
 2424 09a4 E8000000 		call	_ZN8UnitTest11TestDetailsC1ERKS0_i@PLT
 2424      00
 2425 09a9 C7442404 		movl	$0, 4(%rsp)
 2425      00000000 
 2426 09b1 E8000000 		call	_ZN8UnitTest11CurrentTest7ResultsEv@PLT
 2426      00
 2427 09b6 488B38   		movq	(%rax), %rdi
 2428 09b9 4889E2   		movq	%rsp, %rdx
 2429 09bc 488D7424 		leaq	4(%rsp), %rsi
 2429      04
 2430 09c1 4889E9   		movq	%rbp, %rcx
 2431 09c4 E897F9FF 		call	_ZN8UnitTest10CheckEqualI9USBStatusS1_EEvRNS_11TestResultsERKT_RKT0_RKNS_11TestDetailsE.const
 2431      FF
 2432              	.LEHE63:
 2433              	.L176:
 2434 09c9 4C89E7   		movq	%r12, %rdi
 2435              	.LEHB64:
 2436 09cc E8000000 		call	queueCommitPut@PLT
 2436      00
 2437 09d1 4C89EE   		movq	%r13, %rsi
 2438 09d4 4C89E7   		movq	%r12, %rdi
 2439 09d7 E8000000 		call	queuePut@PLT
 2439      00
 2440              	.LEHE64:
 2441 09dc 890424   		movl	%eax, (%rsp)
 2442              	.LEHB65:
 2443 09df E8000000 		call	_ZN8UnitTest11CurrentTest7DetailsEv@PLT
 2443      00
 2444 09e4 488B30   		movq	(%rax), %rsi
 2445 09e7 BA7B0100 		movl	$379, %edx
 2445      00
 2446 09ec 4889EF   		movq	%rbp, %rdi
 2447 09ef E8000000 		call	_ZN8UnitTest11TestDetailsC1ERKS0_i@PLT
 2447      00
 2448 09f4 C7442404 		movl	$12, 4(%rsp)
 2448      0C000000 
 2449 09fc E8000000 		call	_ZN8UnitTest11CurrentTest7ResultsEv@PLT
 2449      00
 2450 0a01 488B38   		movq	(%rax), %rdi
 2451 0a04 4889E2   		movq	%rsp, %rdx
 2452 0a07 488D7424 		leaq	4(%rsp), %rsi
 2452      04
 2453 0a0c 4889E9   		movq	%rbp, %rcx
 2454 0a0f E8000000 		call	_ZN8UnitTest10CheckEqualI9USBStatusS1_EEvRNS_11TestResultsERKT_RKT0_RKNS_11TestDetailsE
 2454      00
 2455              	.LEHE65:
 2456              	.L179:
 2457 0a14 4C89E7   		movq	%r12, %rdi
 2458              	.LEHB66:
 2459 0a17 E8000000 		call	queueDestroy@PLT
 2459      00
 2460              	.LEHE66:
 2461 0a1c 488B4424 		movq	104(%rsp), %rax
 2461      68
 2462 0a21 64482B04 		subq	%fs:40, %rax
 2462      25280000 
 2462      00
 2463 0a2a 750C     		jne	.L204
 2464 0a2c 4883C478 		addq	$120, %rsp
 2465              		.cfi_remember_state
 2466              		.cfi_def_cfa_offset 40
 2467 0a30 5D       		popq	%rbp
 2468              		.cfi_def_cfa_offset 32
 2469 0a31 415C     		popq	%r12
 2470              		.cfi_def_cfa_offset 24
 2471 0a33 415D     		popq	%r13
 2472              		.cfi_def_cfa_offset 16
 2473 0a35 415E     		popq	%r14
 2474              		.cfi_def_cfa_offset 8
 2475 0a37 C3       		ret
 2476              	.L204:
 2477              		.cfi_restore_state
 2478 0a38 E8000000 		call	__stack_chk_fail@PLT
 2478      00
 2479              	.L200:
 2480 0a3d F30F1EFA 		endbr64
 2481 0a41 4889C7   		movq	%rax, %rdi
 2482 0a44 E9000000 		jmp	.L178
 2482      00
 2483              	.L198:
 2484 0a49 F30F1EFA 		endbr64
 2485 0a4d 4889C7   		movq	%rax, %rdi
 2486 0a50 E9000000 		jmp	.L175
 2486      00
 2487              	.L196:
 2488 0a55 F30F1EFA 		endbr64
 2489 0a59 4889C7   		movq	%rax, %rdi
 2490 0a5c E9000000 		jmp	.L172
 2490      00
 2491              	.L194:
 2492 0a61 F30F1EFA 		endbr64
 2493 0a65 4889C7   		movq	%rax, %rdi
 2494 0a68 E9000000 		jmp	.L169
 2494      00
 2495              	.L192:
 2496 0a6d F30F1EFA 		endbr64
 2497 0a71 4889C7   		movq	%rax, %rdi
 2498 0a74 E9000000 		jmp	.L166
 2498      00
 2499              	.L190:
 2500 0a79 F30F1EFA 		endbr64
 2501 0a7d 4889C7   		movq	%rax, %rdi
 2502 0a80 E9000000 		jmp	.L163
 2502      00
 2503              	.L188:
 2504 0a85 F30F1EFA 		endbr64
 2505 0a89 4889C7   		movq	%rax, %rdi
 2506 0a8c E9000000 		jmp	.L160
 2506      00
 2507              	.L186:
 2508 0a91 F30F1EFA 		endbr64
 2509 0a95 4889C7   		movq	%rax, %rdi
 2510 0a98 E9000000 		jmp	.L157
 2510      00
 2511              	.L184:
 2512 0a9d F30F1EFA 		endbr64
 2513 0aa1 4889C7   		movq	%rax, %rdi
 2514 0aa4 E9000000 		jmp	.L154
 2514      00
 2515              	.L182:
 2516 0aa9 F30F1EFA 		endbr64
 2517 0aad 4889C7   		movq	%rax, %rdi
 2518 0ab0 E9000000 		jmp	.L151
 2518      00
 2519              		.section	.gcc_except_table
 2520              		.align 4
 2521              	.LLSDA1271:
 2522 00c8 FF       		.byte	0xff
 2523 00c9 9B       		.byte	0x9b
 2524 00ca 79       		.uleb128 .LLSDATT1271-.LLSDATTD1271
 2525              	.LLSDATTD1271:
 2526 00cb 01       		.byte	0x1
 2527 00cc 71       		.uleb128 .LLSDACSE1271-.LLSDACSB1271
 2528              	.LLSDACSB1271:
 2529 00cd 44       		.uleb128 .LEHB46-.LFB1271
 2530 00ce 05       		.uleb128 .LEHE46-.LEHB46
 2531 00cf 00       		.uleb128 0
 2532 00d0 00       		.uleb128 0
 2533 00d1 4C       		.uleb128 .LEHB47-.LFB1271
 2534 00d2 3D       		.uleb128 .LEHE47-.LEHB47
 2535 00d3 B907     		.uleb128 .L182-.LFB1271
 2536 00d5 01       		.uleb128 0x1
 2537 00d6 8F01     		.uleb128 .LEHB48-.LFB1271
 2538 00d8 05       		.uleb128 .LEHE48-.LEHB48
 2539 00d9 00       		.uleb128 0
 2540 00da 00       		.uleb128 0
 2541 00db 9701     		.uleb128 .LEHB49-.LFB1271
 2542 00dd 35       		.uleb128 .LEHE49-.LEHB49
 2543 00de AD07     		.uleb128 .L184-.LFB1271
 2544 00e0 01       		.uleb128 0x1
 2545 00e1 CF01     		.uleb128 .LEHB50-.LFB1271
 2546 00e3 10       		.uleb128 .LEHE50-.LEHB50
 2547 00e4 00       		.uleb128 0
 2548 00e5 00       		.uleb128 0
 2549 00e6 E201     		.uleb128 .LEHB51-.LFB1271
 2550 00e8 35       		.uleb128 .LEHE51-.LEHB51
 2551 00e9 A107     		.uleb128 .L186-.LFB1271
 2552 00eb 01       		.uleb128 0x1
 2553 00ec 9A02     		.uleb128 .LEHB52-.LFB1271
 2554 00ee 10       		.uleb128 .LEHE52-.LEHB52
 2555 00ef 00       		.uleb128 0
 2556 00f0 00       		.uleb128 0
 2557 00f1 AD02     		.uleb128 .LEHB53-.LFB1271
 2558 00f3 35       		.uleb128 .LEHE53-.LEHB53
 2559 00f4 9507     		.uleb128 .L188-.LFB1271
 2560 00f6 01       		.uleb128 0x1
 2561 00f7 E502     		.uleb128 .LEHB54-.LFB1271
 2562 00f9 10       		.uleb128 .LEHE54-.LEHB54
 2563 00fa 00       		.uleb128 0
 2564 00fb 00       		.uleb128 0
 2565 00fc F802     		.uleb128 .LEHB55-.LFB1271
 2566 00fe 35       		.uleb128 .LEHE55-.LEHB55
 2567 00ff 8907     		.uleb128 .L190-.LFB1271
 2568 0101 01       		.uleb128 0x1
 2569 0102 B003     		.uleb128 .LEHB56-.LFB1271
 2570 0104 10       		.uleb128 .LEHE56-.LEHB56
 2571 0105 00       		.uleb128 0
 2572 0106 00       		.uleb128 0
 2573 0107 C303     		.uleb128 .LEHB57-.LFB1271
 2574 0109 35       		.uleb128 .LEHE57-.LEHB57
 2575 010a FD06     		.uleb128 .L192-.LFB1271
 2576 010c 01       		.uleb128 0x1
 2577 010d FB03     		.uleb128 .LEHB58-.LFB1271
 2578 010f 10       		.uleb128 .LEHE58-.LEHB58
 2579 0110 00       		.uleb128 0
 2580 0111 00       		.uleb128 0
 2581 0112 8E04     		.uleb128 .LEHB59-.LFB1271
 2582 0114 35       		.uleb128 .LEHE59-.LEHB59
 2583 0115 F106     		.uleb128 .L194-.LFB1271
 2584 0117 01       		.uleb128 0x1
 2585 0118 C604     		.uleb128 .LEHB60-.LFB1271
 2586 011a 10       		.uleb128 .LEHE60-.LEHB60
 2587 011b 00       		.uleb128 0
 2588 011c 00       		.uleb128 0
 2589 011d D904     		.uleb128 .LEHB61-.LFB1271
 2590 011f 35       		.uleb128 .LEHE61-.LEHB61
 2591 0120 E506     		.uleb128 .L196-.LFB1271
 2592 0122 01       		.uleb128 0x1
 2593 0123 9105     		.uleb128 .LEHB62-.LFB1271
 2594 0125 10       		.uleb128 .LEHE62-.LEHB62
 2595 0126 00       		.uleb128 0
 2596 0127 00       		.uleb128 0
 2597 0128 A405     		.uleb128 .LEHB63-.LFB1271
 2598 012a 35       		.uleb128 .LEHE63-.LEHB63
 2599 012b D906     		.uleb128 .L198-.LFB1271
 2600 012d 01       		.uleb128 0x1
 2601 012e DC05     		.uleb128 .LEHB64-.LFB1271
 2602 0130 10       		.uleb128 .LEHE64-.LEHB64
 2603 0131 00       		.uleb128 0
 2604 0132 00       		.uleb128 0
 2605 0133 EF05     		.uleb128 .LEHB65-.LFB1271
 2606 0135 35       		.uleb128 .LEHE65-.LEHB65
 2607 0136 CD06     		.uleb128 .L200-.LFB1271
 2608 0138 01       		.uleb128 0x1
 2609 0139 A706     		.uleb128 .LEHB66-.LFB1271
 2610 013b 05       		.uleb128 .LEHE66-.LEHB66
 2611 013c 00       		.uleb128 0
 2612 013d 00       		.uleb128 0
 2613              	.LLSDACSE1271:
 2614 013e 01       		.byte	0x1
 2615 013f 00       		.byte	0
 2616              		.align 4
 2617 0140 00000000 		.long	0
 2618              	
 2619              	.LLSDATT1271:
 2620              		.text
 2621              		.cfi_endproc
 2622              		.section	.text.unlikely
 2623              		.cfi_startproc
 2624              		.cfi_personality 0x9b,DW.ref.__gxx_personality_v0
 2625              		.cfi_lsda 0x1b,.LLSDAC1271
 2627              	_ZNK24TestQueue_testReallocOOM7RunImplEv.cold:
 2628              	.LFSB1271:
 2629              	.L178:
 2630              		.cfi_def_cfa_offset 160
 2631              		.cfi_offset 6, -40
 2632              		.cfi_offset 12, -32
 2633              		.cfi_offset 13, -24
 2634              		.cfi_offset 14, -16
 2635 0154 E8000000 		call	__cxa_begin_catch@PLT
 2635      00
 2636              	.LEHB67:
 2637 0159 E8000000 		call	_ZN8UnitTest11CurrentTest7ResultsEv@PLT
 2637      00
 2638 015e 4C8B28   		movq	(%rax), %r13
 2639 0161 E8000000 		call	_ZN8UnitTest11CurrentTest7DetailsEv@PLT
 2639      00
 2640 0166 488B30   		movq	(%rax), %rsi
 2641 0169 BA7B0100 		movl	$379, %edx
 2641      00
 2642 016e 4889EF   		movq	%rbp, %rdi
 2643 0171 E8000000 		call	_ZN8UnitTest11TestDetailsC1ERKS0_i@PLT
 2643      00
 2644 0176 488D1500 		leaq	.LC8(%rip), %rdx
 2644      000000
 2645 017d 4889EE   		movq	%rbp, %rsi
 2646 0180 4C89EF   		movq	%r13, %rdi
 2647 0183 E8000000 		call	_ZN8UnitTest11TestResults13OnTestFailureERKNS_11TestDetailsEPKc@PLT
 2647      00
 2648              	.LEHE67:
 2649              	.LEHB68:
 2650 0188 E8000000 		call	__cxa_end_catch@PLT
 2650      00
 2651              	.LEHE68:
 2652 018d E9000000 		jmp	.L179
 2652      00
 2653              	.L175:
 2654 0192 E8000000 		call	__cxa_begin_catch@PLT
 2654      00
 2655              	.LEHB69:
 2656 0197 E8000000 		call	_ZN8UnitTest11CurrentTest7ResultsEv@PLT
 2656      00
 2657 019c 4C8B30   		movq	(%rax), %r14
 2658 019f E8000000 		call	_ZN8UnitTest11CurrentTest7DetailsEv@PLT
 2658      00
 2659 01a4 488B30   		movq	(%rax), %rsi
 2660 01a7 BA760100 		movl	$374, %edx
 2660      00
 2661 01ac 4889EF   		movq	%rbp, %rdi
 2662 01af E8000000 		call	_ZN8UnitTest11TestDetailsC1ERKS0_i@PLT
 2662      00
 2663 01b4 488D1500 		leaq	.LC10(%rip), %rdx
 2663      000000
 2664 01bb 4889EE   		movq	%rbp, %rsi
 2665 01be 4C89F7   		movq	%r14, %rdi
 2666 01c1 E8000000 		call	_ZN8UnitTest11TestResults13OnTestFailureERKNS_11TestDetailsEPKc@PLT
 2666      00
 2667              	.LEHE69:
 2668              	.LEHB70:
 2669 01c6 E8000000 		call	__cxa_end_catch@PLT
 2669      00
 2670              	.LEHE70:
 2671 01cb E9000000 		jmp	.L176
 2671      00
 2672              	.L201:
 2673 01d0 F30F1EFA 		endbr64
 2674 01d4 4889C5   		movq	%rax, %rbp
 2675 01d7 E8000000 		call	__cxa_end_catch@PLT
 2675      00
 2676 01dc 4889EF   		movq	%rbp, %rdi
 2677              	.LEHB71:
 2678 01df E8000000 		call	_Unwind_Resume@PLT
 2678      00
 2679              	.LEHE71:
 2680              	.L199:
 2681 01e4 F30F1EFA 		endbr64
 2682 01e8 4889C5   		movq	%rax, %rbp
 2683 01eb E8000000 		call	__cxa_end_catch@PLT
 2683      00
 2684 01f0 4889EF   		movq	%rbp, %rdi
 2685              	.LEHB72:
 2686 01f3 E8000000 		call	_Unwind_Resume@PLT
 2686      00
 2687              	.LEHE72:
 2688              	.L172:
 2689 01f8 E8000000 		call	__cxa_begin_catch@PLT
 2689      00
 2690              	.LEHB73:
 2691 01fd E8000000 		call	_ZN8UnitTest11CurrentTest7ResultsEv@PLT
 2691      00
 2692 0202 4C8B30   		movq	(%rax), %r14
 2693 0205 E8000000 		call	_ZN8UnitTest11CurrentTest7DetailsEv@PLT
 2693      00
 2694 020a 488B30   		movq	(%rax), %rsi
 2695 020d BA730100 		movl	$371, %edx
 2695      00
 2696 0212 4889EF   		movq	%rbp, %rdi
 2697 0215 E8000000 		call	_ZN8UnitTest11TestDetailsC1ERKS0_i@PLT
 2697      00
 2698 021a 488D1500 		leaq	.LC10(%rip), %rdx
 2698      000000
 2699 0221 4889EE   		movq	%rbp, %rsi
 2700 0224 4C89F7   		movq	%r14, %rdi
 2701 0227 E8000000 		call	_ZN8UnitTest11TestResults13OnTestFailureERKNS_11TestDetailsEPKc@PLT
 2701      00
 2702              	.LEHE73:
 2703              	.LEHB74:
 2704 022c E8000000 		call	__cxa_end_catch@PLT
 2704      00
 2705              	.LEHE74:
 2706 0231 E9000000 		jmp	.L173
 2706      00
 2707              	.L169:
 2708 0236 E8000000 		call	__cxa_begin_catch@PLT
 2708      00
 2709              	.LEHB75:
 2710 023b E8000000 		call	_ZN8UnitTest11CurrentTest7ResultsEv@PLT
 2710      00
 2711 0240 4C8B30   		movq	(%rax), %r14
 2712 0243 E8000000 		call	_ZN8UnitTest11CurrentTest7DetailsEv@PLT
 2712      00
 2713 0248 488B30   		movq	(%rax), %rsi
 2714 024b BA700100 		movl	$368, %edx
 2714      00
 2715 0250 4889EF   		movq	%rbp, %rdi
 2716 0253 E8000000 		call	_ZN8UnitTest11TestDetailsC1ERKS0_i@PLT
 2716      00
 2717 0258 488D1500 		leaq	.LC10(%rip), %rdx
 2717      000000
 2718 025f 4889EE   		movq	%rbp, %rsi
 2719 0262 4C89F7   		movq	%r14, %rdi
 2720 0265 E8000000 		call	_ZN8UnitTest11TestResults13OnTestFailureERKNS_11TestDetailsEPKc@PLT
 2720      00
 2721              	.LEHE75:
 2722              	.LEHB76:
 2723 026a E8000000 		call	__cxa_end_catch@PLT
 2723      00
 2724              	.LEHE76:
 2725 026f E9000000 		jmp	.L170
 2725      00
 2726              	.L197:
 2727 0274 F30F1EFA 		endbr64
 2728 0278 4889C5   		movq	%rax, %rbp
 2729 027b E8000000 		call	__cxa_end_catch@PLT
 2729      00
 2730 0280 4889EF   		movq	%rbp, %rdi
 2731              	.LEHB77:
 2732 0283 E8000000 		call	_Unwind_Resume@PLT
 2732      00
 2733              	.LEHE77:
 2734              	.L195:
 2735 0288 F30F1EFA 		endbr64
 2736 028c 4889C5   		movq	%rax, %rbp
 2737 028f E8000000 		call	__cxa_end_catch@PLT
 2737      00
 2738 0294 4889EF   		movq	%rbp, %rdi
 2739              	.LEHB78:
 2740 0297 E8000000 		call	_Unwind_Resume@PLT
 2740      00
 2741              	.LEHE78:
 2742              	.L166:
 2743 029c E8000000 		call	__cxa_begin_catch@PLT
 2743      00
 2744              	.LEHB79:
 2745 02a1 E8000000 		call	_ZN8UnitTest11CurrentTest7ResultsEv@PLT
 2745      00
 2746 02a6 4C8B30   		movq	(%rax), %r14
 2747 02a9 E8000000 		call	_ZN8UnitTest11CurrentTest7DetailsEv@PLT
 2747      00
 2748 02ae 488B30   		movq	(%rax), %rsi
 2749 02b1 BA6D0100 		movl	$365, %edx
 2749      00
 2750 02b6 4889EF   		movq	%rbp, %rdi
 2751 02b9 E8000000 		call	_ZN8UnitTest11TestDetailsC1ERKS0_i@PLT
 2751      00
 2752 02be 488D1500 		leaq	.LC10(%rip), %rdx
 2752      000000
 2753 02c5 4889EE   		movq	%rbp, %rsi
 2754 02c8 4C89F7   		movq	%r14, %rdi
 2755 02cb E8000000 		call	_ZN8UnitTest11TestResults13OnTestFailureERKNS_11TestDetailsEPKc@PLT
 2755      00
 2756              	.LEHE79:
 2757              	.LEHB80:
 2758 02d0 E8000000 		call	__cxa_end_catch@PLT
 2758      00
 2759              	.LEHE80:
 2760 02d5 E9000000 		jmp	.L167
 2760      00
 2761              	.L163:
 2762 02da E8000000 		call	__cxa_begin_catch@PLT
 2762      00
 2763              	.LEHB81:
 2764 02df E8000000 		call	_ZN8UnitTest11CurrentTest7ResultsEv@PLT
 2764      00
 2765 02e4 4C8B30   		movq	(%rax), %r14
 2766 02e7 E8000000 		call	_ZN8UnitTest11CurrentTest7DetailsEv@PLT
 2766      00
 2767 02ec 488B30   		movq	(%rax), %rsi
 2768 02ef BA6A0100 		movl	$362, %edx
 2768      00
 2769 02f4 4889EF   		movq	%rbp, %rdi
 2770 02f7 E8000000 		call	_ZN8UnitTest11TestDetailsC1ERKS0_i@PLT
 2770      00
 2771 02fc 488D1500 		leaq	.LC10(%rip), %rdx
 2771      000000
 2772 0303 4889EE   		movq	%rbp, %rsi
 2773 0306 4C89F7   		movq	%r14, %rdi
 2774 0309 E8000000 		call	_ZN8UnitTest11TestResults13OnTestFailureERKNS_11TestDetailsEPKc@PLT
 2774      00
 2775              	.LEHE81:
 2776              	.LEHB82:
 2777 030e E8000000 		call	__cxa_end_catch@PLT
 2777      00
 2778              	.LEHE82:
 2779 0313 E9000000 		jmp	.L164
 2779      00
 2780              	.L193:
 2781 0318 F30F1EFA 		endbr64
 2782 031c 4889C5   		movq	%rax, %rbp
 2783 031f E8000000 		call	__cxa_end_catch@PLT
 2783      00
 2784 0324 4889EF   		movq	%rbp, %rdi
 2785              	.LEHB83:
 2786 0327 E8000000 		call	_Unwind_Resume@PLT
 2786      00
 2787              	.LEHE83:
 2788              	.L191:
 2789 032c F30F1EFA 		endbr64
 2790 0330 4889C5   		movq	%rax, %rbp
 2791 0333 E8000000 		call	__cxa_end_catch@PLT
 2791      00
 2792 0338 4889EF   		movq	%rbp, %rdi
 2793              	.LEHB84:
 2794 033b E8000000 		call	_Unwind_Resume@PLT
 2794      00
 2795              	.LEHE84:
 2796              	.L160:
 2797 0340 E8000000 		call	__cxa_begin_catch@PLT
 2797      00
 2798              	.LEHB85:
 2799 0345 E8000000 		call	_ZN8UnitTest11CurrentTest7ResultsEv@PLT
 2799      00
 2800 034a 4C8B30   		movq	(%rax), %r14
 2801 034d E8000000 		call	_ZN8UnitTest11CurrentTest7DetailsEv@PLT
 2801      00
 2802 0352 488B30   		movq	(%rax), %rsi
 2803 0355 BA670100 		movl	$359, %edx
 2803      00
 2804 035a 4889EF   		movq	%rbp, %rdi
 2805 035d E8000000 		call	_ZN8UnitTest11TestDetailsC1ERKS0_i@PLT
 2805      00
 2806 0362 488D1500 		leaq	.LC10(%rip), %rdx
 2806      000000
 2807 0369 4889EE   		movq	%rbp, %rsi
 2808 036c 4C89F7   		movq	%r14, %rdi
 2809 036f E8000000 		call	_ZN8UnitTest11TestResults13OnTestFailureERKNS_11TestDetailsEPKc@PLT
 2809      00
 2810              	.LEHE85:
 2811              	.LEHB86:
 2812 0374 E8000000 		call	__cxa_end_catch@PLT
 2812      00
 2813              	.LEHE86:
 2814 0379 E9000000 		jmp	.L161
 2814      00
 2815              	.L157:
 2816 037e E8000000 		call	__cxa_begin_catch@PLT
 2816      00
 2817              	.LEHB87:
 2818 0383 E8000000 		call	_ZN8UnitTest11CurrentTest7ResultsEv@PLT
 2818      00
 2819 0388 4C8B30   		movq	(%rax), %r14
 2820 038b E8000000 		call	_ZN8UnitTest11CurrentTest7DetailsEv@PLT
 2820      00
 2821 0390 488B30   		movq	(%rax), %rsi
 2822 0393 BA640100 		movl	$356, %edx
 2822      00
 2823 0398 4889EF   		movq	%rbp, %rdi
 2824 039b E8000000 		call	_ZN8UnitTest11TestDetailsC1ERKS0_i@PLT
 2824      00
 2825 03a0 488D1500 		leaq	.LC10(%rip), %rdx
 2825      000000
 2826 03a7 4889EE   		movq	%rbp, %rsi
 2827 03aa 4C89F7   		movq	%r14, %rdi
 2828 03ad E8000000 		call	_ZN8UnitTest11TestResults13OnTestFailureERKNS_11TestDetailsEPKc@PLT
 2828      00
 2829              	.LEHE87:
 2830              	.LEHB88:
 2831 03b2 E8000000 		call	__cxa_end_catch@PLT
 2831      00
 2832              	.LEHE88:
 2833 03b7 E9000000 		jmp	.L158
 2833      00
 2834              	.L189:
 2835 03bc F30F1EFA 		endbr64
 2836 03c0 4889C5   		movq	%rax, %rbp
 2837 03c3 E8000000 		call	__cxa_end_catch@PLT
 2837      00
 2838 03c8 4889EF   		movq	%rbp, %rdi
 2839              	.LEHB89:
 2840 03cb E8000000 		call	_Unwind_Resume@PLT
 2840      00
 2841              	.LEHE89:
 2842              	.L187:
 2843 03d0 F30F1EFA 		endbr64
 2844 03d4 4889C5   		movq	%rax, %rbp
 2845 03d7 E8000000 		call	__cxa_end_catch@PLT
 2845      00
 2846 03dc 4889EF   		movq	%rbp, %rdi
 2847              	.LEHB90:
 2848 03df E8000000 		call	_Unwind_Resume@PLT
 2848      00
 2849              	.LEHE90:
 2850              	.L154:
 2851 03e4 E8000000 		call	__cxa_begin_catch@PLT
 2851      00
 2852              	.LEHB91:
 2853 03e9 E8000000 		call	_ZN8UnitTest11CurrentTest7ResultsEv@PLT
 2853      00
 2854 03ee 4C8B30   		movq	(%rax), %r14
 2855 03f1 E8000000 		call	_ZN8UnitTest11CurrentTest7DetailsEv@PLT
 2855      00
 2856 03f6 488B30   		movq	(%rax), %rsi
 2857 03f9 BA610100 		movl	$353, %edx
 2857      00
 2858 03fe 4889EF   		movq	%rbp, %rdi
 2859 0401 E8000000 		call	_ZN8UnitTest11TestDetailsC1ERKS0_i@PLT
 2859      00
 2860 0406 488D1500 		leaq	.LC10(%rip), %rdx
 2860      000000
 2861 040d 4889EE   		movq	%rbp, %rsi
 2862 0410 4C89F7   		movq	%r14, %rdi
 2863 0413 E8000000 		call	_ZN8UnitTest11TestResults13OnTestFailureERKNS_11TestDetailsEPKc@PLT
 2863      00
 2864              	.LEHE91:
 2865              	.LEHB92:
 2866 0418 E8000000 		call	__cxa_end_catch@PLT
 2866      00
 2867              	.LEHE92:
 2868 041d E9000000 		jmp	.L155
 2868      00
 2869              	.L151:
 2870 0422 E8000000 		call	__cxa_begin_catch@PLT
 2870      00
 2871              	.LEHB93:
 2872 0427 E8000000 		call	_ZN8UnitTest11CurrentTest7ResultsEv@PLT
 2872      00
 2873 042c 4C8B28   		movq	(%rax), %r13
 2874 042f E8000000 		call	_ZN8UnitTest11CurrentTest7DetailsEv@PLT
 2874      00
 2875 0434 488D6C24 		leaq	16(%rsp), %rbp
 2875      10
 2876 0439 488B30   		movq	(%rax), %rsi
 2877 043c BA5D0100 		movl	$349, %edx
 2877      00
 2878 0441 4889EF   		movq	%rbp, %rdi
 2879 0444 E8000000 		call	_ZN8UnitTest11TestDetailsC1ERKS0_i@PLT
 2879      00
 2880 0449 488D1500 		leaq	.LC10(%rip), %rdx
 2880      000000
 2881 0450 4889EE   		movq	%rbp, %rsi
 2882 0453 4C89EF   		movq	%r13, %rdi
 2883 0456 E8000000 		call	_ZN8UnitTest11TestResults13OnTestFailureERKNS_11TestDetailsEPKc@PLT
 2883      00
 2884              	.LEHE93:
 2885              	.LEHB94:
 2886 045b E8000000 		call	__cxa_end_catch@PLT
 2886      00
 2887              	.LEHE94:
 2888 0460 4C8D6C24 		leaq	8(%rsp), %r13
 2888      08
 2889 0465 E9000000 		jmp	.L152
 2889      00
 2890              	.L185:
 2891 046a F30F1EFA 		endbr64
 2892 046e 4889C5   		movq	%rax, %rbp
 2893 0471 E8000000 		call	__cxa_end_catch@PLT
 2893      00
 2894 0476 4889EF   		movq	%rbp, %rdi
 2895              	.LEHB95:
 2896 0479 E8000000 		call	_Unwind_Resume@PLT
 2896      00
 2897              	.LEHE95:
 2898              	.L183:
 2899 047e F30F1EFA 		endbr64
 2900 0482 4889C5   		movq	%rax, %rbp
 2901 0485 E8000000 		call	__cxa_end_catch@PLT
 2901      00
 2902 048a 4889EF   		movq	%rbp, %rdi
 2903              	.LEHB96:
 2904 048d E8000000 		call	_Unwind_Resume@PLT
 2904      00
 2905              	.LEHE96:
 2906              		.cfi_endproc
 2907              	.LFE1271:
 2908              		.section	.gcc_except_table
 2909              		.align 4
 2910              	.LLSDAC1271:
 2911 0144 FF       		.byte	0xff
 2912 0145 9B       		.byte	0x9b
 2913 0146 A401     		.uleb128 .LLSDATTC1271-.LLSDATTDC1271
 2914              	.LLSDATTDC1271:
 2915 0148 01       		.byte	0x1
 2916 0149 9B01     		.uleb128 .LLSDACSEC1271-.LLSDACSBC1271
 2917              	.LLSDACSBC1271:
 2918 014b 05       		.uleb128 .LEHB67-.LCOLDB11
 2919 014c 2F       		.uleb128 .LEHE67-.LEHB67
 2920 014d 7C       		.uleb128 .L201-.LCOLDB11
 2921 014e 00       		.uleb128 0
 2922 014f 34       		.uleb128 .LEHB68-.LCOLDB11
 2923 0150 05       		.uleb128 .LEHE68-.LEHB68
 2924 0151 00       		.uleb128 0
 2925 0152 00       		.uleb128 0
 2926 0153 43       		.uleb128 .LEHB69-.LCOLDB11
 2927 0154 2F       		.uleb128 .LEHE69-.LEHB69
 2928 0155 9001     		.uleb128 .L199-.LCOLDB11
 2929 0157 00       		.uleb128 0
 2930 0158 72       		.uleb128 .LEHB70-.LCOLDB11
 2931 0159 05       		.uleb128 .LEHE70-.LEHB70
 2932 015a 00       		.uleb128 0
 2933 015b 00       		.uleb128 0
 2934 015c 8B01     		.uleb128 .LEHB71-.LCOLDB11
 2935 015e 05       		.uleb128 .LEHE71-.LEHB71
 2936 015f 00       		.uleb128 0
 2937 0160 00       		.uleb128 0
 2938 0161 9F01     		.uleb128 .LEHB72-.LCOLDB11
 2939 0163 05       		.uleb128 .LEHE72-.LEHB72
 2940 0164 00       		.uleb128 0
 2941 0165 00       		.uleb128 0
 2942 0166 A901     		.uleb128 .LEHB73-.LCOLDB11
 2943 0168 2F       		.uleb128 .LEHE73-.LEHB73
 2944 0169 A002     		.uleb128 .L197-.LCOLDB11
 2945 016b 00       		.uleb128 0
 2946 016c D801     		.uleb128 .LEHB74-.LCOLDB11
 2947 016e 05       		.uleb128 .LEHE74-.LEHB74
 2948 016f 00       		.uleb128 0
 2949 0170 00       		.uleb128 0
 2950 0171 E701     		.uleb128 .LEHB75-.LCOLDB11
 2951 0173 2F       		.uleb128 .LEHE75-.LEHB75
 2952 0174 B402     		.uleb128 .L195-.LCOLDB11
 2953 0176 00       		.uleb128 0
 2954 0177 9602     		.uleb128 .LEHB76-.LCOLDB11
 2955 0179 05       		.uleb128 .LEHE76-.LEHB76
 2956 017a 00       		.uleb128 0
 2957 017b 00       		.uleb128 0
 2958 017c AF02     		.uleb128 .LEHB77-.LCOLDB11
 2959 017e 05       		.uleb128 .LEHE77-.LEHB77
 2960 017f 00       		.uleb128 0
 2961 0180 00       		.uleb128 0
 2962 0181 C302     		.uleb128 .LEHB78-.LCOLDB11
 2963 0183 05       		.uleb128 .LEHE78-.LEHB78
 2964 0184 00       		.uleb128 0
 2965 0185 00       		.uleb128 0
 2966 0186 CD02     		.uleb128 .LEHB79-.LCOLDB11
 2967 0188 2F       		.uleb128 .LEHE79-.LEHB79
 2968 0189 C403     		.uleb128 .L193-.LCOLDB11
 2969 018b 00       		.uleb128 0
 2970 018c FC02     		.uleb128 .LEHB80-.LCOLDB11
 2971 018e 05       		.uleb128 .LEHE80-.LEHB80
 2972 018f 00       		.uleb128 0
 2973 0190 00       		.uleb128 0
 2974 0191 8B03     		.uleb128 .LEHB81-.LCOLDB11
 2975 0193 2F       		.uleb128 .LEHE81-.LEHB81
 2976 0194 D803     		.uleb128 .L191-.LCOLDB11
 2977 0196 00       		.uleb128 0
 2978 0197 BA03     		.uleb128 .LEHB82-.LCOLDB11
 2979 0199 05       		.uleb128 .LEHE82-.LEHB82
 2980 019a 00       		.uleb128 0
 2981 019b 00       		.uleb128 0
 2982 019c D303     		.uleb128 .LEHB83-.LCOLDB11
 2983 019e 05       		.uleb128 .LEHE83-.LEHB83
 2984 019f 00       		.uleb128 0
 2985 01a0 00       		.uleb128 0
 2986 01a1 E703     		.uleb128 .LEHB84-.LCOLDB11
 2987 01a3 05       		.uleb128 .LEHE84-.LEHB84
 2988 01a4 00       		.uleb128 0
 2989 01a5 00       		.uleb128 0
 2990 01a6 F103     		.uleb128 .LEHB85-.LCOLDB11
 2991 01a8 2F       		.uleb128 .LEHE85-.LEHB85
 2992 01a9 E804     		.uleb128 .L189-.LCOLDB11
 2993 01ab 00       		.uleb128 0
 2994 01ac A004     		.uleb128 .LEHB86-.LCOLDB11
 2995 01ae 05       		.uleb128 .LEHE86-.LEHB86
 2996 01af 00       		.uleb128 0
 2997 01b0 00       		.uleb128 0
 2998 01b1 AF04     		.uleb128 .LEHB87-.LCOLDB11
 2999 01b3 2F       		.uleb128 .LEHE87-.LEHB87
 3000 01b4 FC04     		.uleb128 .L187-.LCOLDB11
 3001 01b6 00       		.uleb128 0
 3002 01b7 DE04     		.uleb128 .LEHB88-.LCOLDB11
 3003 01b9 05       		.uleb128 .LEHE88-.LEHB88
 3004 01ba 00       		.uleb128 0
 3005 01bb 00       		.uleb128 0
 3006 01bc F704     		.uleb128 .LEHB89-.LCOLDB11
 3007 01be 05       		.uleb128 .LEHE89-.LEHB89
 3008 01bf 00       		.uleb128 0
 3009 01c0 00       		.uleb128 0
 3010 01c1 8B05     		.uleb128 .LEHB90-.LCOLDB11
 3011 01c3 05       		.uleb128 .LEHE90-.LEHB90
 3012 01c4 00       		.uleb128 0
 3013 01c5 00       		.uleb128 0
 3014 01c6 9505     		.uleb128 .LEHB91-.LCOLDB11
 3015 01c8 2F       		.uleb128 .LEHE91-.LEHB91
 3016 01c9 9606     		.uleb128 .L185-.LCOLDB11
 3017 01cb 00       		.uleb128 0
 3018 01cc C405     		.uleb128 .LEHB92-.LCOLDB11
 3019 01ce 05       		.uleb128 .LEHE92-.LEHB92
 3020 01cf 00       		.uleb128 0
 3021 01d0 00       		.uleb128 0
 3022 01d1 D305     		.uleb128 .LEHB93-.LCOLDB11
 3023 01d3 34       		.uleb128 .LEHE93-.LEHB93
 3024 01d4 AA06     		.uleb128 .L183-.LCOLDB11
 3025 01d6 00       		.uleb128 0
 3026 01d7 8706     		.uleb128 .LEHB94-.LCOLDB11
 3027 01d9 05       		.uleb128 .LEHE94-.LEHB94
 3028 01da 00       		.uleb128 0
 3029 01db 00       		.uleb128 0
 3030 01dc A506     		.uleb128 .LEHB95-.LCOLDB11
 3031 01de 05       		.uleb128 .LEHE95-.LEHB95
 3032 01df 00       		.uleb128 0
 3033 01e0 00       		.uleb128 0
 3034 01e1 B906     		.uleb128 .LEHB96-.LCOLDB11
 3035 01e3 05       		.uleb128 .LEHE96-.LEHB96
 3036 01e4 00       		.uleb128 0
 3037 01e5 00       		.uleb128 0
 3038              	.LLSDACSEC1271:
 3039 01e6 01       		.byte	0x1
 3040 01e7 00       		.byte	0
 3041              		.align 4
 3042 01e8 00000000 		.long	0
 3043              	
 3044              	.LLSDATTC1271:
 3045              		.section	.text.unlikely
 3046              		.text
 3048              		.section	.text.unlikely
 3050              	.LCOLDE11:
 3051              		.text
 3052              	.LHOTE11:
 3053              		.section	.text._ZN8UnitTest10CheckEqualImmEEvRNS_11TestResultsERKT_RKT0_RKNS_11TestDetailsE,"axG",
 3054              		.p2align 4
 3055              		.weak	_ZN8UnitTest10CheckEqualImmEEvRNS_11TestResultsERKT_RKT0_RKNS_11TestDetailsE
 3057              	_ZN8UnitTest10CheckEqualImmEEvRNS_11TestResultsERKT_RKT0_RKNS_11TestDetailsE:
 3058              	.LFB1308:
 3059              		.cfi_startproc
 3060              		.cfi_personality 0x9b,DW.ref.__gxx_personality_v0
 3061              		.cfi_lsda 0x1b,.LLSDA1308
 3062 0000 F30F1EFA 		endbr64
 3063 0004 4157     		pushq	%r15
 3064              		.cfi_def_cfa_offset 16
 3065              		.cfi_offset 15, -16
 3066 0006 4156     		pushq	%r14
 3067              		.cfi_def_cfa_offset 24
 3068              		.cfi_offset 14, -24
 3069 0008 4155     		pushq	%r13
 3070              		.cfi_def_cfa_offset 32
 3071              		.cfi_offset 13, -32
 3072 000a 4154     		pushq	%r12
 3073              		.cfi_def_cfa_offset 40
 3074              		.cfi_offset 12, -40
 3075 000c 55       		pushq	%rbp
 3076              		.cfi_def_cfa_offset 48
 3077              		.cfi_offset 6, -48
 3078 000d 53       		pushq	%rbx
 3079              		.cfi_def_cfa_offset 56
 3080              		.cfi_offset 3, -56
 3081 000e 4881ECD8 		subq	$472, %rsp
 3081      010000
 3082              		.cfi_def_cfa_offset 528
 3083 0015 F30F7E0D 		movq	.LC3(%rip), %xmm1
 3083      00000000 
 3084 001d 48897C24 		movq	%rdi, 16(%rsp)
 3084      10
 3085 0022 48894C24 		movq	%rcx, 24(%rsp)
 3085      18
 3086 0027 0F160D00 		movhps	.LC4(%rip), %xmm1
 3086      000000
 3087 002e 64488B04 		movq	%fs:40, %rax
 3087      25280000 
 3087      00
 3088 0037 48898424 		movq	%rax, 456(%rsp)
 3088      C8010000 
 3089 003f 31C0     		xorl	%eax, %eax
 3090 0041 488B02   		movq	(%rdx), %rax
 3091 0044 0F290C24 		movaps	%xmm1, (%rsp)
 3092 0048 483906   		cmpq	%rax, (%rsi)
 3093 004b 7533     		jne	.L221
 3094              	.L205:
 3095 004d 488B8424 		movq	456(%rsp), %rax
 3095      C8010000 
 3096 0055 64482B04 		subq	%fs:40, %rax
 3096      25280000 
 3096      00
 3097 005e 0F855302 		jne	.L222
 3097      0000
 3098 0064 4881C4D8 		addq	$472, %rsp
 3098      010000
 3099              		.cfi_remember_state
 3100              		.cfi_def_cfa_offset 56
 3101 006b 5B       		popq	%rbx
 3102              		.cfi_def_cfa_offset 48
 3103 006c 5D       		popq	%rbp
 3104              		.cfi_def_cfa_offset 40
 3105 006d 415C     		popq	%r12
 3106              		.cfi_def_cfa_offset 32
 3107 006f 415D     		popq	%r13
 3108              		.cfi_def_cfa_offset 24
 3109 0071 415E     		popq	%r14
 3110              		.cfi_def_cfa_offset 16
 3111 0073 415F     		popq	%r15
 3112              		.cfi_def_cfa_offset 8
 3113 0075 C3       		ret
 3114 0076 662E0F1F 		.p2align 4,,10
 3114      84000000 
 3114      0000
 3115              		.p2align 3
 3116              	.L221:
 3117              		.cfi_restore_state
 3118 0080 4C8DAC24 		leaq	192(%rsp), %r13
 3118      C0000000 
 3119 0088 4889F5   		movq	%rsi, %rbp
 3120 008b 4889D3   		movq	%rdx, %rbx
 3121 008e 4C89EF   		movq	%r13, %rdi
 3122 0091 E8000000 		call	_ZNSt8ios_baseC2Ev@PLT
 3122      00
 3123 0096 31C0     		xorl	%eax, %eax
 3124 0098 660FEFC0 		pxor	%xmm0, %xmm0
 3125 009c 31F6     		xorl	%esi, %esi
 3126 009e 66898424 		movw	%ax, 416(%rsp)
 3126      A0010000 
 3127 00a6 488D0500 		leaq	24+_ZTCN8UnitTest15MemoryOutStreamE0_So(%rip), %rax
 3127      000000
 3128 00ad 4C89EF   		movq	%r13, %rdi
 3129 00b0 48894424 		movq	%rax, 48(%rsp)
 3129      30
 3130 00b5 4883C028 		addq	$40, %rax
 3131 00b9 48C78424 		movq	$0, 408(%rsp)
 3131      98010000 
 3131      00000000 
 3132 00c5 48898424 		movq	%rax, 192(%rsp)
 3132      C0000000 
 3133 00cd 0F118424 		movups	%xmm0, 424(%rsp)
 3133      A8010000 
 3134 00d5 0F118424 		movups	%xmm0, 440(%rsp)
 3134      B8010000 
 3135              	.LEHB97:
 3136 00dd E8000000 		call	_ZNSt9basic_iosIcSt11char_traitsIcEE4initEPSt15basic_streambufIcS1_E@PLT
 3136      00
 3137              	.LEHE97:
 3138 00e2 660F6F0C 		movdqa	(%rsp), %xmm1
 3138      24
 3139 00e7 4C8D7424 		leaq	112(%rsp), %r14
 3139      70
 3140 00ec 660FEFC0 		pxor	%xmm0, %xmm0
 3141 00f0 488D0500 		leaq	64+_ZTCN8UnitTest15MemoryOutStreamE0_NSt7__cxx1119basic_ostringstreamIcSt11char_traitsIcESaIc
 3141      000000
 3142 00f7 4C89F7   		movq	%r14, %rdi
 3143 00fa 0F294424 		movaps	%xmm0, 64(%rsp)
 3143      40
 3144 00ff 4C8D6424 		leaq	48(%rsp), %r12
 3144      30
 3145 0104 4C8D7C24 		leaq	56(%rsp), %r15
 3145      38
 3146 0109 48898424 		movq	%rax, 192(%rsp)
 3146      C0000000 
 3147 0111 0F294C24 		movaps	%xmm1, 48(%rsp)
 3147      30
 3148 0116 0F294424 		movaps	%xmm0, 80(%rsp)
 3148      50
 3149 011b 0F294424 		movaps	%xmm0, 96(%rsp)
 3149      60
 3150 0120 E8000000 		call	_ZNSt6localeC1Ev@PLT
 3150      00
 3151 0125 488D0500 		leaq	16+_ZTVNSt7__cxx1115basic_stringbufIcSt11char_traitsIcESaIcEEE(%rip), %rax
 3151      000000
 3152 012c 4C89FE   		movq	%r15, %rsi
 3153 012f 48C78424 		movq	$0, 136(%rsp)
 3153      88000000 
 3153      00000000 
 3154 013b 48894424 		movq	%rax, 56(%rsp)
 3154      38
 3155 0140 488D8424 		leaq	144(%rsp), %rax
 3155      90000000 
 3156 0148 48894424 		movq	%rax, 32(%rsp)
 3156      20
 3157 014d 48898424 		movq	%rax, 128(%rsp)
 3157      80000000 
 3158 0155 488B4424 		movq	48(%rsp), %rax
 3158      30
 3159 015a C6842490 		movb	$0, 144(%rsp)
 3159      00000000 
 3160 0162 488B78E8 		movq	-24(%rax), %rdi
 3161 0166 C7442478 		movl	$16, 120(%rsp)
 3161      10000000 
 3162 016e 4C01E7   		addq	%r12, %rdi
 3163              	.LEHB98:
 3164 0171 E8000000 		call	_ZNSt9basic_iosIcSt11char_traitsIcEE4initEPSt15basic_streambufIcS1_E@PLT
 3164      00
 3165              	.LEHE98:
 3166 0176 4C8D3D00 		leaq	24+_ZTVN8UnitTest15MemoryOutStreamE(%rip), %r15
 3166      000000
 3167 017d BA090000 		movl	$9, %edx
 3167      00
 3168 0182 4C89E7   		movq	%r12, %rdi
 3169 0185 48C78424 		movq	$0, 168(%rsp)
 3169      A8000000 
 3169      00000000 
 3170 0191 498D4728 		leaq	40(%r15), %rax
 3171 0195 488D3500 		leaq	.LC0(%rip), %rsi
 3171      000000
 3172 019c 4C897C24 		movq	%r15, 48(%rsp)
 3172      30
 3173 01a1 48898424 		movq	%rax, 192(%rsp)
 3173      C0000000 
 3174 01a9 488D8424 		leaq	176(%rsp), %rax
 3174      B0000000 
 3175 01b1 48894424 		movq	%rax, 40(%rsp)
 3175      28
 3176 01b6 48898424 		movq	%rax, 160(%rsp)
 3176      A0000000 
 3177 01be C68424B0 		movb	$0, 176(%rsp)
 3177      00000000 
 3178              	.LEHB99:
 3179 01c6 E8000000 		call	_ZSt16__ostream_insertIcSt11char_traitsIcEERSt13basic_ostreamIT_T0_ES6_PKS3_l@PLT
 3179      00
 3180 01cb 488B7500 		movq	0(%rbp), %rsi
 3181 01cf 4C89E7   		movq	%r12, %rdi
 3182 01d2 E8000000 		call	_ZNSo9_M_insertImEERSoT_@PLT
 3182      00
 3183 01d7 BA090000 		movl	$9, %edx
 3183      00
 3184 01dc 488D3500 		leaq	.LC1(%rip), %rsi
 3184      000000
 3185 01e3 4889C7   		movq	%rax, %rdi
 3186 01e6 4889C5   		movq	%rax, %rbp
 3187 01e9 E8000000 		call	_ZSt16__ostream_insertIcSt11char_traitsIcEERSt13basic_ostreamIT_T0_ES6_PKS3_l@PLT
 3187      00
 3188 01ee 488B33   		movq	(%rbx), %rsi
 3189 01f1 4889EF   		movq	%rbp, %rdi
 3190 01f4 E8000000 		call	_ZNSo9_M_insertImEERSoT_@PLT
 3190      00
 3191 01f9 4C89E7   		movq	%r12, %rdi
 3192 01fc E8000000 		call	_ZNK8UnitTest15MemoryOutStream7GetTextEv@PLT
 3192      00
 3193 0201 488B7424 		movq	24(%rsp), %rsi
 3193      18
 3194 0206 488B7C24 		movq	16(%rsp), %rdi
 3194      10
 3195 020b 4889C2   		movq	%rax, %rdx
 3196 020e F30F7E15 		movq	.LC3(%rip), %xmm2
 3196      00000000 
 3197 0216 0F161500 		movhps	.LC5(%rip), %xmm2
 3197      000000
 3198 021d 0F291424 		movaps	%xmm2, (%rsp)
 3199 0221 E8000000 		call	_ZN8UnitTest11TestResults13OnTestFailureERKNS_11TestDetailsEPKc@PLT
 3199      00
 3200              	.LEHE99:
 3201 0226 488D0500 		leaq	64+_ZTVN8UnitTest15MemoryOutStreamE(%rip), %rax
 3201      000000
 3202 022d 4C897C24 		movq	%r15, 48(%rsp)
 3202      30
 3203 0232 488BBC24 		movq	160(%rsp), %rdi
 3203      A0000000 
 3204 023a 48898424 		movq	%rax, 192(%rsp)
 3204      C0000000 
 3205 0242 483B7C24 		cmpq	40(%rsp), %rdi
 3205      28
 3206 0247 7405     		je	.L211
 3207 0249 E8000000 		call	_ZdlPv@PLT
 3207      00
 3208              	.L211:
 3209 024e 660F6F1C 		movdqa	(%rsp), %xmm3
 3209      24
 3210 0253 488D0500 		leaq	64+_ZTCN8UnitTest15MemoryOutStreamE0_NSt7__cxx1119basic_ostringstreamIcSt11char_traitsIcESaIc
 3210      000000
 3211 025a 488BBC24 		movq	128(%rsp), %rdi
 3211      80000000 
 3212 0262 48898424 		movq	%rax, 192(%rsp)
 3212      C0000000 
 3213 026a 0F295C24 		movaps	%xmm3, 48(%rsp)
 3213      30
 3214 026f 483B7C24 		cmpq	32(%rsp), %rdi
 3214      20
 3215 0274 7405     		je	.L212
 3216 0276 E8000000 		call	_ZdlPv@PLT
 3216      00
 3217              	.L212:
 3218 027b 488D0500 		leaq	16+_ZTVSt15basic_streambufIcSt11char_traitsIcEE(%rip), %rax
 3218      000000
 3219 0282 4C89F7   		movq	%r14, %rdi
 3220 0285 48894424 		movq	%rax, 56(%rsp)
 3220      38
 3221 028a E8000000 		call	_ZNSt6localeD1Ev@PLT
 3221      00
 3222 028f 488D0500 		leaq	24+_ZTCN8UnitTest15MemoryOutStreamE0_So(%rip), %rax
 3222      000000
 3223 0296 4C89EF   		movq	%r13, %rdi
 3224 0299 48894424 		movq	%rax, 48(%rsp)
 3224      30
 3225 029e 488D0500 		leaq	16+_ZTVSt9basic_iosIcSt11char_traitsIcEE(%rip), %rax
 3225      000000
 3226 02a5 48898424 		movq	%rax, 192(%rsp)
 3226      C0000000 
 3227              	.LEHB100:
 3228 02ad E8000000 		call	_ZNSt8ios_baseD2Ev@PLT
 3228      00
 3229              	.LEHE100:
 3230 02b2 E996FDFF 		jmp	.L205
 3230      FF
 3231              	.L222:
 3232 02b7 E8000000 		call	__stack_chk_fail@PLT
 3232      00
 3233              	.L216:
 3234 02bc F30F1EFA 		endbr64
 3235 02c0 4889C5   		movq	%rax, %rbp
 3236 02c3 EB26     		jmp	.L209
 3237              	.L217:
 3238 02c5 F30F1EFA 		endbr64
 3239 02c9 4889C5   		movq	%rax, %rbp
 3240 02cc EB09     		jmp	.L208
 3241              	.L215:
 3242 02ce F30F1EFA 		endbr64
 3243 02d2 4889C5   		movq	%rax, %rbp
 3244 02d5 EB33     		jmp	.L213
 3245              	.L208:
 3246 02d7 4C89FF   		movq	%r15, %rdi
 3247 02da E8000000 		call	_ZNSt7__cxx1115basic_stringbufIcSt11char_traitsIcESaIcEED1Ev
 3247      00
 3248 02df 488D0500 		leaq	24+_ZTCN8UnitTest15MemoryOutStreamE0_So(%rip), %rax
 3248      000000
 3249 02e6 48894424 		movq	%rax, 48(%rsp)
 3249      30
 3250              	.L209:
 3251 02eb 488D0500 		leaq	16+_ZTVSt9basic_iosIcSt11char_traitsIcEE(%rip), %rax
 3251      000000
 3252 02f2 4C89EF   		movq	%r13, %rdi
 3253 02f5 48898424 		movq	%rax, 192(%rsp)
 3253      C0000000 
 3254 02fd E8000000 		call	_ZNSt8ios_baseD2Ev@PLT
 3254      00
 3255 0302 4889EF   		movq	%rbp, %rdi
 3256              	.LEHB101:
 3257 0305 E8000000 		call	_Unwind_Resume@PLT
 3257      00
 3258              	.LEHE101:
 3259              	.L213:
 3260 030a 4C89E7   		movq	%r12, %rdi
 3261 030d E8000000 		call	_ZN8UnitTest15MemoryOutStreamD1Ev
 3261      00
 3262 0312 4889EF   		movq	%rbp, %rdi
 3263              	.LEHB102:
 3264 0315 E8000000 		call	_Unwind_Resume@PLT
 3264      00
 3265              	.LEHE102:
 3266              		.cfi_endproc
 3267              	.LFE1308:
 3268              		.section	.gcc_except_table
 3269              	.LLSDA1308:
 3270 01ec FF       		.byte	0xff
 3271 01ed FF       		.byte	0xff
 3272 01ee 01       		.byte	0x1
 3273 01ef 21       		.uleb128 .LLSDACSE1308-.LLSDACSB1308
 3274              	.LLSDACSB1308:
 3275 01f0 DD01     		.uleb128 .LEHB97-.LFB1308
 3276 01f2 05       		.uleb128 .LEHE97-.LEHB97
 3277 01f3 BC05     		.uleb128 .L216-.LFB1308
 3278 01f5 00       		.uleb128 0
 3279 01f6 F102     		.uleb128 .LEHB98-.LFB1308
 3280 01f8 05       		.uleb128 .LEHE98-.LEHB98
 3281 01f9 C505     		.uleb128 .L217-.LFB1308
 3282 01fb 00       		.uleb128 0
 3283 01fc C603     		.uleb128 .LEHB99-.LFB1308
 3284 01fe 60       		.uleb128 .LEHE99-.LEHB99
 3285 01ff CE05     		.uleb128 .L215-.LFB1308
 3286 0201 00       		.uleb128 0
 3287 0202 AD05     		.uleb128 .LEHB100-.LFB1308
 3288 0204 05       		.uleb128 .LEHE100-.LEHB100
 3289 0205 00       		.uleb128 0
 3290 0206 00       		.uleb128 0
 3291 0207 8506     		.uleb128 .LEHB101-.LFB1308
 3292 0209 05       		.uleb128 .LEHE101-.LEHB101
 3293 020a 00       		.uleb128 0
 3294 020b 00       		.uleb128 0
 3295 020c 9506     		.uleb128 .LEHB102-.LFB1308
 3296 020e 05       		.uleb128 .LEHE102-.LEHB102
 3297 020f 00       		.uleb128 0
 3298 0210 00       		.uleb128 0
 3299              	.LLSDACSE1308:
 3300              		.section	.text._ZN8UnitTest10CheckEqualImmEEvRNS_11TestResultsERKT_RKT0_RKNS_11TestDetailsE,"axG",
 3302              		.section	.text._ZN8UnitTest10CheckEqualImjEEvRNS_11TestResultsERKT_RKT0_RKNS_11TestDetailsE,"axG",
 3303              		.p2align 4
 3304              		.weak	_ZN8UnitTest10CheckEqualImjEEvRNS_11TestResultsERKT_RKT0_RKNS_11TestDetailsE
 3306              	_ZN8UnitTest10CheckEqualImjEEvRNS_11TestResultsERKT_RKT0_RKNS_11TestDetailsE:
 3307              	.LFB1309:
 3308              		.cfi_startproc
 3309              		.cfi_personality 0x9b,DW.ref.__gxx_personality_v0
 3310              		.cfi_lsda 0x1b,.LLSDA1309
 3311 0000 F30F1EFA 		endbr64
 3312 0004 4157     		pushq	%r15
 3313              		.cfi_def_cfa_offset 16
 3314              		.cfi_offset 15, -16
 3315 0006 4156     		pushq	%r14
 3316              		.cfi_def_cfa_offset 24
 3317              		.cfi_offset 14, -24
 3318 0008 4155     		pushq	%r13
 3319              		.cfi_def_cfa_offset 32
 3320              		.cfi_offset 13, -32
 3321 000a 4154     		pushq	%r12
 3322              		.cfi_def_cfa_offset 40
 3323              		.cfi_offset 12, -40
 3324 000c 55       		pushq	%rbp
 3325              		.cfi_def_cfa_offset 48
 3326              		.cfi_offset 6, -48
 3327 000d 53       		pushq	%rbx
 3328              		.cfi_def_cfa_offset 56
 3329              		.cfi_offset 3, -56
 3330 000e 4881ECD8 		subq	$472, %rsp
 3330      010000
 3331              		.cfi_def_cfa_offset 528
 3332 0015 F30F7E0D 		movq	.LC3(%rip), %xmm1
 3332      00000000 
 3333 001d 48897C24 		movq	%rdi, 16(%rsp)
 3333      10
 3334 0022 48894C24 		movq	%rcx, 24(%rsp)
 3334      18
 3335 0027 0F160D00 		movhps	.LC4(%rip), %xmm1
 3335      000000
 3336 002e 64488B04 		movq	%fs:40, %rax
 3336      25280000 
 3336      00
 3337 0037 48898424 		movq	%rax, 456(%rsp)
 3337      C8010000 
 3338 003f 31C0     		xorl	%eax, %eax
 3339 0041 8B02     		movl	(%rdx), %eax
 3340 0043 0F290C24 		movaps	%xmm1, (%rsp)
 3341 0047 483906   		cmpq	%rax, (%rsi)
 3342 004a 752C     		jne	.L239
 3343              	.L223:
 3344 004c 488B8424 		movq	456(%rsp), %rax
 3344      C8010000 
 3345 0054 64482B04 		subq	%fs:40, %rax
 3345      25280000 
 3345      00
 3346 005d 0F854B02 		jne	.L240
 3346      0000
 3347 0063 4881C4D8 		addq	$472, %rsp
 3347      010000
 3348              		.cfi_remember_state
 3349              		.cfi_def_cfa_offset 56
 3350 006a 5B       		popq	%rbx
 3351              		.cfi_def_cfa_offset 48
 3352 006b 5D       		popq	%rbp
 3353              		.cfi_def_cfa_offset 40
 3354 006c 415C     		popq	%r12
 3355              		.cfi_def_cfa_offset 32
 3356 006e 415D     		popq	%r13
 3357              		.cfi_def_cfa_offset 24
 3358 0070 415E     		popq	%r14
 3359              		.cfi_def_cfa_offset 16
 3360 0072 415F     		popq	%r15
 3361              		.cfi_def_cfa_offset 8
 3362 0074 C3       		ret
 3363              		.p2align 4,,10
 3364 0075 0F1F00   		.p2align 3
 3365              	.L239:
 3366              		.cfi_restore_state
 3367 0078 4C8DAC24 		leaq	192(%rsp), %r13
 3367      C0000000 
 3368 0080 4889F5   		movq	%rsi, %rbp
 3369 0083 4889D3   		movq	%rdx, %rbx
 3370 0086 4C89EF   		movq	%r13, %rdi
 3371 0089 E8000000 		call	_ZNSt8ios_baseC2Ev@PLT
 3371      00
 3372 008e 31C0     		xorl	%eax, %eax
 3373 0090 660FEFC0 		pxor	%xmm0, %xmm0
 3374 0094 31F6     		xorl	%esi, %esi
 3375 0096 66898424 		movw	%ax, 416(%rsp)
 3375      A0010000 
 3376 009e 488D0500 		leaq	24+_ZTCN8UnitTest15MemoryOutStreamE0_So(%rip), %rax
 3376      000000
 3377 00a5 4C89EF   		movq	%r13, %rdi
 3378 00a8 48894424 		movq	%rax, 48(%rsp)
 3378      30
 3379 00ad 4883C028 		addq	$40, %rax
 3380 00b1 48C78424 		movq	$0, 408(%rsp)
 3380      98010000 
 3380      00000000 
 3381 00bd 48898424 		movq	%rax, 192(%rsp)
 3381      C0000000 
 3382 00c5 0F118424 		movups	%xmm0, 424(%rsp)
 3382      A8010000 
 3383 00cd 0F118424 		movups	%xmm0, 440(%rsp)
 3383      B8010000 
 3384              	.LEHB103:
 3385 00d5 E8000000 		call	_ZNSt9basic_iosIcSt11char_traitsIcEE4initEPSt15basic_streambufIcS1_E@PLT
 3385      00
 3386              	.LEHE103:
 3387 00da 660F6F0C 		movdqa	(%rsp), %xmm1
 3387      24
 3388 00df 4C8D7424 		leaq	112(%rsp), %r14
 3388      70
 3389 00e4 660FEFC0 		pxor	%xmm0, %xmm0
 3390 00e8 488D0500 		leaq	64+_ZTCN8UnitTest15MemoryOutStreamE0_NSt7__cxx1119basic_ostringstreamIcSt11char_traitsIcESaIc
 3390      000000
 3391 00ef 4C89F7   		movq	%r14, %rdi
 3392 00f2 0F294424 		movaps	%xmm0, 64(%rsp)
 3392      40
 3393 00f7 4C8D6424 		leaq	48(%rsp), %r12
 3393      30
 3394 00fc 4C8D7C24 		leaq	56(%rsp), %r15
 3394      38
 3395 0101 48898424 		movq	%rax, 192(%rsp)
 3395      C0000000 
 3396 0109 0F294C24 		movaps	%xmm1, 48(%rsp)
 3396      30
 3397 010e 0F294424 		movaps	%xmm0, 80(%rsp)
 3397      50
 3398 0113 0F294424 		movaps	%xmm0, 96(%rsp)
 3398      60
 3399 0118 E8000000 		call	_ZNSt6localeC1Ev@PLT
 3399      00
 3400 011d 488D0500 		leaq	16+_ZTVNSt7__cxx1115basic_stringbufIcSt11char_traitsIcESaIcEEE(%rip), %rax
 3400      000000
 3401 0124 4C89FE   		movq	%r15, %rsi
 3402 0127 48C78424 		movq	$0, 136(%rsp)
 3402      88000000 
 3402      00000000 
 3403 0133 48894424 		movq	%rax, 56(%rsp)
 3403      38
 3404 0138 488D8424 		leaq	144(%rsp), %rax
 3404      90000000 
 3405 0140 48894424 		movq	%rax, 32(%rsp)
 3405      20
 3406 0145 48898424 		movq	%rax, 128(%rsp)
 3406      80000000 
 3407 014d 488B4424 		movq	48(%rsp), %rax
 3407      30
 3408 0152 C6842490 		movb	$0, 144(%rsp)
 3408      00000000 
 3409 015a 488B78E8 		movq	-24(%rax), %rdi
 3410 015e C7442478 		movl	$16, 120(%rsp)
 3410      10000000 
 3411 0166 4C01E7   		addq	%r12, %rdi
 3412              	.LEHB104:
 3413 0169 E8000000 		call	_ZNSt9basic_iosIcSt11char_traitsIcEE4initEPSt15basic_streambufIcS1_E@PLT
 3413      00
 3414              	.LEHE104:
 3415 016e 4C8D3D00 		leaq	24+_ZTVN8UnitTest15MemoryOutStreamE(%rip), %r15
 3415      000000
 3416 0175 BA090000 		movl	$9, %edx
 3416      00
 3417 017a 4C89E7   		movq	%r12, %rdi
 3418 017d 48C78424 		movq	$0, 168(%rsp)
 3418      A8000000 
 3418      00000000 
 3419 0189 498D4728 		leaq	40(%r15), %rax
 3420 018d 488D3500 		leaq	.LC0(%rip), %rsi
 3420      000000
 3421 0194 4C897C24 		movq	%r15, 48(%rsp)
 3421      30
 3422 0199 48898424 		movq	%rax, 192(%rsp)
 3422      C0000000 
 3423 01a1 488D8424 		leaq	176(%rsp), %rax
 3423      B0000000 
 3424 01a9 48894424 		movq	%rax, 40(%rsp)
 3424      28
 3425 01ae 48898424 		movq	%rax, 160(%rsp)
 3425      A0000000 
 3426 01b6 C68424B0 		movb	$0, 176(%rsp)
 3426      00000000 
 3427              	.LEHB105:
 3428 01be E8000000 		call	_ZSt16__ostream_insertIcSt11char_traitsIcEERSt13basic_ostreamIT_T0_ES6_PKS3_l@PLT
 3428      00
 3429 01c3 488B7500 		movq	0(%rbp), %rsi
 3430 01c7 4C89E7   		movq	%r12, %rdi
 3431 01ca E8000000 		call	_ZNSo9_M_insertImEERSoT_@PLT
 3431      00
 3432 01cf BA090000 		movl	$9, %edx
 3432      00
 3433 01d4 488D3500 		leaq	.LC1(%rip), %rsi
 3433      000000
 3434 01db 4889C7   		movq	%rax, %rdi
 3435 01de 4889C5   		movq	%rax, %rbp
 3436 01e1 E8000000 		call	_ZSt16__ostream_insertIcSt11char_traitsIcEERSt13basic_ostreamIT_T0_ES6_PKS3_l@PLT
 3436      00
 3437 01e6 8B33     		movl	(%rbx), %esi
 3438 01e8 4889EF   		movq	%rbp, %rdi
 3439 01eb E8000000 		call	_ZNSo9_M_insertImEERSoT_@PLT
 3439      00
 3440 01f0 4C89E7   		movq	%r12, %rdi
 3441 01f3 E8000000 		call	_ZNK8UnitTest15MemoryOutStream7GetTextEv@PLT
 3441      00
 3442 01f8 488B7424 		movq	24(%rsp), %rsi
 3442      18
 3443 01fd 488B7C24 		movq	16(%rsp), %rdi
 3443      10
 3444 0202 4889C2   		movq	%rax, %rdx
 3445 0205 F30F7E15 		movq	.LC3(%rip), %xmm2
 3445      00000000 
 3446 020d 0F161500 		movhps	.LC5(%rip), %xmm2
 3446      000000
 3447 0214 0F291424 		movaps	%xmm2, (%rsp)
 3448 0218 E8000000 		call	_ZN8UnitTest11TestResults13OnTestFailureERKNS_11TestDetailsEPKc@PLT
 3448      00
 3449              	.LEHE105:
 3450 021d 488D0500 		leaq	64+_ZTVN8UnitTest15MemoryOutStreamE(%rip), %rax
 3450      000000
 3451 0224 4C897C24 		movq	%r15, 48(%rsp)
 3451      30
 3452 0229 488BBC24 		movq	160(%rsp), %rdi
 3452      A0000000 
 3453 0231 48898424 		movq	%rax, 192(%rsp)
 3453      C0000000 
 3454 0239 483B7C24 		cmpq	40(%rsp), %rdi
 3454      28
 3455 023e 7405     		je	.L229
 3456 0240 E8000000 		call	_ZdlPv@PLT
 3456      00
 3457              	.L229:
 3458 0245 660F6F1C 		movdqa	(%rsp), %xmm3
 3458      24
 3459 024a 488D0500 		leaq	64+_ZTCN8UnitTest15MemoryOutStreamE0_NSt7__cxx1119basic_ostringstreamIcSt11char_traitsIcESaIc
 3459      000000
 3460 0251 488BBC24 		movq	128(%rsp), %rdi
 3460      80000000 
 3461 0259 48898424 		movq	%rax, 192(%rsp)
 3461      C0000000 
 3462 0261 0F295C24 		movaps	%xmm3, 48(%rsp)
 3462      30
 3463 0266 483B7C24 		cmpq	32(%rsp), %rdi
 3463      20
 3464 026b 7405     		je	.L230
 3465 026d E8000000 		call	_ZdlPv@PLT
 3465      00
 3466              	.L230:
 3467 0272 488D0500 		leaq	16+_ZTVSt15basic_streambufIcSt11char_traitsIcEE(%rip), %rax
 3467      000000
 3468 0279 4C89F7   		movq	%r14, %rdi
 3469 027c 48894424 		movq	%rax, 56(%rsp)
 3469      38
 3470 0281 E8000000 		call	_ZNSt6localeD1Ev@PLT
 3470      00
 3471 0286 488D0500 		leaq	24+_ZTCN8UnitTest15MemoryOutStreamE0_So(%rip), %rax
 3471      000000
 3472 028d 4C89EF   		movq	%r13, %rdi
 3473 0290 48894424 		movq	%rax, 48(%rsp)
 3473      30
 3474 0295 488D0500 		leaq	16+_ZTVSt9basic_iosIcSt11char_traitsIcEE(%rip), %rax
 3474      000000
 3475 029c 48898424 		movq	%rax, 192(%rsp)
 3475      C0000000 
 3476              	.LEHB106:
 3477 02a4 E8000000 		call	_ZNSt8ios_baseD2Ev@PLT
 3477      00
 3478              	.LEHE106:
 3479 02a9 E99EFDFF 		jmp	.L223
 3479      FF
 3480              	.L240:
 3481 02ae E8000000 		call	__stack_chk_fail@PLT
 3481      00
 3482              	.L234:
 3483 02b3 F30F1EFA 		endbr64
 3484 02b7 4889C5   		movq	%rax, %rbp
 3485 02ba EB26     		jmp	.L227
 3486              	.L235:
 3487 02bc F30F1EFA 		endbr64
 3488 02c0 4889C5   		movq	%rax, %rbp
 3489 02c3 EB09     		jmp	.L226
 3490              	.L233:
 3491 02c5 F30F1EFA 		endbr64
 3492 02c9 4889C5   		movq	%rax, %rbp
 3493 02cc EB33     		jmp	.L231
 3494              	.L226:
 3495 02ce 4C89FF   		movq	%r15, %rdi
 3496 02d1 E8000000 		call	_ZNSt7__cxx1115basic_stringbufIcSt11char_traitsIcESaIcEED1Ev
 3496      00
 3497 02d6 488D0500 		leaq	24+_ZTCN8UnitTest15MemoryOutStreamE0_So(%rip), %rax
 3497      000000
 3498 02dd 48894424 		movq	%rax, 48(%rsp)
 3498      30
 3499              	.L227:
 3500 02e2 488D0500 		leaq	16+_ZTVSt9basic_iosIcSt11char_traitsIcEE(%rip), %rax
 3500      000000
 3501 02e9 4C89EF   		movq	%r13, %rdi
 3502 02ec 48898424 		movq	%rax, 192(%rsp)
 3502      C0000000 
 3503 02f4 E8000000 		call	_ZNSt8ios_baseD2Ev@PLT
 3503      00
 3504 02f9 4889EF   		movq	%rbp, %rdi
 3505              	.LEHB107:
 3506 02fc E8000000 		call	_Unwind_Resume@PLT
 3506      00
 3507              	.LEHE107:
 3508              	.L231:
 3509 0301 4C89E7   		movq	%r12, %rdi
 3510 0304 E8000000 		call	_ZN8UnitTest15MemoryOutStreamD1Ev
 3510      00
 3511 0309 4889EF   		movq	%rbp, %rdi
 3512              	.LEHB108:
 3513 030c E8000000 		call	_Unwind_Resume@PLT
 3513      00
 3514              	.LEHE108:
 3515              		.cfi_endproc
 3516              	.LFE1309:
 3517              		.section	.gcc_except_table
 3518              	.LLSDA1309:
 3519 0211 FF       		.byte	0xff
 3520 0212 FF       		.byte	0xff
 3521 0213 01       		.byte	0x1
 3522 0214 21       		.uleb128 .LLSDACSE1309-.LLSDACSB1309
 3523              	.LLSDACSB1309:
 3524 0215 D501     		.uleb128 .LEHB103-.LFB1309
 3525 0217 05       		.uleb128 .LEHE103-.LEHB103
 3526 0218 B305     		.uleb128 .L234-.LFB1309
 3527 021a 00       		.uleb128 0
 3528 021b E902     		.uleb128 .LEHB104-.LFB1309
 3529 021d 05       		.uleb128 .LEHE104-.LEHB104
 3530 021e BC05     		.uleb128 .L235-.LFB1309
 3531 0220 00       		.uleb128 0
 3532 0221 BE03     		.uleb128 .LEHB105-.LFB1309
 3533 0223 5F       		.uleb128 .LEHE105-.LEHB105
 3534 0224 C505     		.uleb128 .L233-.LFB1309
 3535 0226 00       		.uleb128 0
 3536 0227 A405     		.uleb128 .LEHB106-.LFB1309
 3537 0229 05       		.uleb128 .LEHE106-.LEHB106
 3538 022a 00       		.uleb128 0
 3539 022b 00       		.uleb128 0
 3540 022c FC05     		.uleb128 .LEHB107-.LFB1309
 3541 022e 05       		.uleb128 .LEHE107-.LEHB107
 3542 022f 00       		.uleb128 0
 3543 0230 00       		.uleb128 0
 3544 0231 8C06     		.uleb128 .LEHB108-.LFB1309
 3545 0233 05       		.uleb128 .LEHE108-.LEHB108
 3546 0234 00       		.uleb128 0
 3547 0235 00       		.uleb128 0
 3548              	.LLSDACSE1309:
 3549              		.section	.text._ZN8UnitTest10CheckEqualImjEEvRNS_11TestResultsERKT_RKT0_RKNS_11TestDetailsE,"axG",
 3551              		.section	.rodata.str1.8
 3552              		.align 8
 3553              	.LC12:
 3554 00b0 556E6861 		.string	"Unhandled exception in CHECK_EQUAL(4UL, queue.capacity)"
 3554      6E646C65 
 3554      64206578 
 3554      63657074 
 3554      696F6E20 
 3555              		.align 8
 3556              	.LC13:
 3557 00e8 556E6861 		.string	"Unhandled exception in CHECK_EQUAL(0UL, queue.putIndex)"
 3557      6E646C65 
 3557      64206578 
 3557      63657074 
 3557      696F6E20 
 3558              		.align 8
 3559              	.LC14:
 3560 0120 556E6861 		.string	"Unhandled exception in CHECK_EQUAL(0UL, queue.takeIndex)"
 3560      6E646C65 
 3560      64206578 
 3560      63657074 
 3560      696F6E20 
 3561 0159 00000000 		.align 8
 3561      000000
 3562              	.LC15:
 3563 0160 556E6861 		.string	"Unhandled exception in CHECK_EQUAL(0UL, queue.numItems)"
 3563      6E646C65 
 3563      64206578 
 3563      63657074 
 3563      696F6E20 
 3564              		.align 8
 3565              	.LC16:
 3566 0198 556E6861 		.string	"Unhandled exception in CHECK_EQUAL(1UL, deref(queue.itemArray[0]))"
 3566      6E646C65 
 3566      64206578 
 3566      63657074 
 3566      696F6E20 
 3567 01db 00000000 		.align 8
 3567      00
 3568              	.LC17:
 3569 01e0 556E6861 		.string	"Unhandled exception in CHECK_EQUAL(2UL, deref(queue.itemArray[1]))"
 3569      6E646C65 
 3569      64206578 
 3569      63657074 
 3569      696F6E20 
 3570 0223 00000000 		.align 8
 3570      00
 3571              	.LC18:
 3572 0228 556E6861 		.string	"Unhandled exception in CHECK_EQUAL(3UL, deref(queue.itemArray[2]))"
 3572      6E646C65 
 3572      64206578 
 3572      63657074 
 3572      696F6E20 
 3573 026b 00000000 		.align 8
 3573      00
 3574              	.LC19:
 3575 0270 556E6861 		.string	"Unhandled exception in CHECK_EQUAL(4UL, deref(queue.itemArray[3]))"
 3575      6E646C65 
 3575      64206578 
 3575      63657074 
 3575      696F6E20 
 3576              		.section	.text.unlikely
 3577              		.align 2
 3578              	.LCOLDB20:
 3579              		.text
 3580              	.LHOTB20:
 3581 0ab5 90       		.align 2
 3582 0ab6 662E0F1F 		.p2align 4
 3582      84000000 
 3582      0000
 3583              		.globl	_ZNK18TestQueue_testInit7RunImplEv
 3585              	_ZNK18TestQueue_testInit7RunImplEv:
 3586              	.LFB1246:
 3587              		.cfi_startproc
 3588              		.cfi_personality 0x9b,DW.ref.__gxx_personality_v0
 3589              		.cfi_lsda 0x1b,.LLSDA1246
 3590 0ac0 F30F1EFA 		endbr64
 3591 0ac4 4155     		pushq	%r13
 3592              		.cfi_def_cfa_offset 16
 3593              		.cfi_offset 13, -16
 3594 0ac6 488D0D00 		leaq	destroyInt(%rip), %rcx
 3594      000000
 3595 0acd BE040000 		movl	$4, %esi
 3595      00
 3596 0ad2 488D1500 		leaq	createInt(%rip), %rdx
 3596      000000
 3597 0ad9 4154     		pushq	%r12
 3598              		.cfi_def_cfa_offset 24
 3599              		.cfi_offset 12, -24
 3600 0adb 55       		pushq	%rbp
 3601              		.cfi_def_cfa_offset 32
 3602              		.cfi_offset 6, -32
 3603 0adc 4883EC70 		subq	$112, %rsp
 3604              		.cfi_def_cfa_offset 144
 3605 0ae0 64488B04 		movq	%fs:40, %rax
 3605      25280000 
 3605      00
 3606 0ae9 48894424 		movq	%rax, 104(%rsp)
 3606      68
 3607 0aee 31C0     		xorl	%eax, %eax
 3608 0af0 4C8D6424 		leaq	48(%rsp), %r12
 3608      30
 3609 0af5 C7050000 		movl	$1, _ZL7m_count(%rip)
 3609      00000100 
 3609      0000
 3610 0aff 4C89E7   		movq	%r12, %rdi
 3611              	.LEHB109:
 3612 0b02 E8000000 		call	queueInit@PLT
 3612      00
 3613              	.LEHE109:
 3614 0b07 890424   		movl	%eax, (%rsp)
 3615              	.LEHB110:
 3616 0b0a E8000000 		call	_ZN8UnitTest11CurrentTest7DetailsEv@PLT
 3616      00
 3617 0b0f 488D6C24 		leaq	16(%rsp), %rbp
 3617      10
 3618 0b14 488B30   		movq	(%rax), %rsi
 3619 0b17 BA3B0000 		movl	$59, %edx
 3619      00
 3620 0b1c 4889EF   		movq	%rbp, %rdi
 3621 0b1f E8000000 		call	_ZN8UnitTest11TestDetailsC1ERKS0_i@PLT
 3621      00
 3622 0b24 C7442408 		movl	$0, 8(%rsp)
 3622      00000000 
 3623 0b2c E8000000 		call	_ZN8UnitTest11CurrentTest7ResultsEv@PLT
 3623      00
 3624 0b31 488B38   		movq	(%rax), %rdi
 3625 0b34 4889E2   		movq	%rsp, %rdx
 3626 0b37 488D7424 		leaq	8(%rsp), %rsi
 3626      08
 3627 0b3c 4889E9   		movq	%rbp, %rcx
 3628 0b3f E81CF8FF 		call	_ZN8UnitTest10CheckEqualI9USBStatusS1_EEvRNS_11TestResultsERKT_RKT0_RKNS_11TestDetailsE.const
 3628      FF
 3629              	.LEHE110:
 3630              	.L243:
 3631              	.LEHB111:
 3632 0b44 E8000000 		call	_ZN8UnitTest11CurrentTest7DetailsEv@PLT
 3632      00
 3633 0b49 488B30   		movq	(%rax), %rsi
 3634 0b4c BA3E0000 		movl	$62, %edx
 3634      00
 3635 0b51 4889EF   		movq	%rbp, %rdi
 3636 0b54 E8000000 		call	_ZN8UnitTest11TestDetailsC1ERKS0_i@PLT
 3636      00
 3637 0b59 48C74424 		movq	$4, 8(%rsp)
 3637      08040000 
 3637      00
 3638 0b62 E8000000 		call	_ZN8UnitTest11CurrentTest7ResultsEv@PLT
 3638      00
 3639 0b67 488B38   		movq	(%rax), %rdi
 3640 0b6a 488D5424 		leaq	56(%rsp), %rdx
 3640      38
 3641 0b6f 488D7424 		leaq	8(%rsp), %rsi
 3641      08
 3642 0b74 4889E9   		movq	%rbp, %rcx
 3643 0b77 E8000000 		call	_ZN8UnitTest10CheckEqualImmEEvRNS_11TestResultsERKT_RKT0_RKNS_11TestDetailsE
 3643      00
 3644              	.LEHE111:
 3645              	.L246:
 3646              	.LEHB112:
 3647 0b7c E8000000 		call	_ZN8UnitTest11CurrentTest7DetailsEv@PLT
 3647      00
 3648 0b81 488B30   		movq	(%rax), %rsi
 3649 0b84 BA3F0000 		movl	$63, %edx
 3649      00
 3650 0b89 4889EF   		movq	%rbp, %rdi
 3651 0b8c E8000000 		call	_ZN8UnitTest11TestDetailsC1ERKS0_i@PLT
 3651      00
 3652 0b91 48C74424 		movq	$0, 8(%rsp)
 3652      08000000 
 3652      00
 3653 0b9a E8000000 		call	_ZN8UnitTest11CurrentTest7ResultsEv@PLT
 3653      00
 3654 0b9f 488B38   		movq	(%rax), %rdi
 3655 0ba2 488D5424 		leaq	64(%rsp), %rdx
 3655      40
 3656 0ba7 488D7424 		leaq	8(%rsp), %rsi
 3656      08
 3657 0bac 4889E9   		movq	%rbp, %rcx
 3658 0baf E8000000 		call	_ZN8UnitTest10CheckEqualImmEEvRNS_11TestResultsERKT_RKT0_RKNS_11TestDetailsE
 3658      00
 3659              	.LEHE112:
 3660              	.L249:
 3661              	.LEHB113:
 3662 0bb4 E8000000 		call	_ZN8UnitTest11CurrentTest7DetailsEv@PLT
 3662      00
 3663 0bb9 488B30   		movq	(%rax), %rsi
 3664 0bbc BA400000 		movl	$64, %edx
 3664      00
 3665 0bc1 4889EF   		movq	%rbp, %rdi
 3666 0bc4 E8000000 		call	_ZN8UnitTest11TestDetailsC1ERKS0_i@PLT
 3666      00
 3667 0bc9 48C74424 		movq	$0, 8(%rsp)
 3667      08000000 
 3667      00
 3668 0bd2 E8000000 		call	_ZN8UnitTest11CurrentTest7ResultsEv@PLT
 3668      00
 3669 0bd7 488B38   		movq	(%rax), %rdi
 3670 0bda 488D5424 		leaq	72(%rsp), %rdx
 3670      48
 3671 0bdf 488D7424 		leaq	8(%rsp), %rsi
 3671      08
 3672 0be4 4889E9   		movq	%rbp, %rcx
 3673 0be7 E8000000 		call	_ZN8UnitTest10CheckEqualImmEEvRNS_11TestResultsERKT_RKT0_RKNS_11TestDetailsE
 3673      00
 3674              	.LEHE113:
 3675              	.L252:
 3676              	.LEHB114:
 3677 0bec E8000000 		call	_ZN8UnitTest11CurrentTest7DetailsEv@PLT
 3677      00
 3678 0bf1 488B30   		movq	(%rax), %rsi
 3679 0bf4 BA410000 		movl	$65, %edx
 3679      00
 3680 0bf9 4889EF   		movq	%rbp, %rdi
 3681 0bfc E8000000 		call	_ZN8UnitTest11TestDetailsC1ERKS0_i@PLT
 3681      00
 3682 0c01 48C74424 		movq	$0, 8(%rsp)
 3682      08000000 
 3682      00
 3683 0c0a E8000000 		call	_ZN8UnitTest11CurrentTest7ResultsEv@PLT
 3683      00
 3684 0c0f 488B38   		movq	(%rax), %rdi
 3685 0c12 488D5424 		leaq	80(%rsp), %rdx
 3685      50
 3686 0c17 488D7424 		leaq	8(%rsp), %rsi
 3686      08
 3687 0c1c 4889E9   		movq	%rbp, %rcx
 3688 0c1f E8000000 		call	_ZN8UnitTest10CheckEqualImmEEvRNS_11TestResultsERKT_RKT0_RKNS_11TestDetailsE
 3688      00
 3689              	.LEHE114:
 3690              	.L255:
 3691              	.LEHB115:
 3692 0c24 E8000000 		call	_ZN8UnitTest11CurrentTest7DetailsEv@PLT
 3692      00
 3693 0c29 488B30   		movq	(%rax), %rsi
 3694 0c2c BA440000 		movl	$68, %edx
 3694      00
 3695 0c31 4889EF   		movq	%rbp, %rdi
 3696 0c34 E8000000 		call	_ZN8UnitTest11TestDetailsC1ERKS0_i@PLT
 3696      00
 3697 0c39 48C74424 		movq	$1, 8(%rsp)
 3697      08010000 
 3697      00
 3698 0c42 488B4424 		movq	48(%rsp), %rax
 3698      30
 3699 0c47 488B00   		movq	(%rax), %rax
 3700 0c4a 8B00     		movl	(%rax), %eax
 3701 0c4c 89442404 		movl	%eax, 4(%rsp)
 3702 0c50 E8000000 		call	_ZN8UnitTest11CurrentTest7ResultsEv@PLT
 3702      00
 3703 0c55 488B38   		movq	(%rax), %rdi
 3704 0c58 488D5424 		leaq	4(%rsp), %rdx
 3704      04
 3705 0c5d 488D7424 		leaq	8(%rsp), %rsi
 3705      08
 3706 0c62 4889E9   		movq	%rbp, %rcx
 3707 0c65 E8000000 		call	_ZN8UnitTest10CheckEqualImjEEvRNS_11TestResultsERKT_RKT0_RKNS_11TestDetailsE
 3707      00
 3708              	.LEHE115:
 3709              	.L258:
 3710              	.LEHB116:
 3711 0c6a E8000000 		call	_ZN8UnitTest11CurrentTest7DetailsEv@PLT
 3711      00
 3712 0c6f 488B30   		movq	(%rax), %rsi
 3713 0c72 BA450000 		movl	$69, %edx
 3713      00
 3714 0c77 4889EF   		movq	%rbp, %rdi
 3715 0c7a E8000000 		call	_ZN8UnitTest11TestDetailsC1ERKS0_i@PLT
 3715      00
 3716 0c7f 48C74424 		movq	$2, 8(%rsp)
 3716      08020000 
 3716      00
 3717 0c88 488B4424 		movq	48(%rsp), %rax
 3717      30
 3718 0c8d 488B4008 		movq	8(%rax), %rax
 3719 0c91 8B00     		movl	(%rax), %eax
 3720 0c93 89442404 		movl	%eax, 4(%rsp)
 3721 0c97 E8000000 		call	_ZN8UnitTest11CurrentTest7ResultsEv@PLT
 3721      00
 3722 0c9c 488B38   		movq	(%rax), %rdi
 3723 0c9f 488D5424 		leaq	4(%rsp), %rdx
 3723      04
 3724 0ca4 488D7424 		leaq	8(%rsp), %rsi
 3724      08
 3725 0ca9 4889E9   		movq	%rbp, %rcx
 3726 0cac E8000000 		call	_ZN8UnitTest10CheckEqualImjEEvRNS_11TestResultsERKT_RKT0_RKNS_11TestDetailsE
 3726      00
 3727              	.LEHE116:
 3728              	.L261:
 3729              	.LEHB117:
 3730 0cb1 E8000000 		call	_ZN8UnitTest11CurrentTest7DetailsEv@PLT
 3730      00
 3731 0cb6 488B30   		movq	(%rax), %rsi
 3732 0cb9 BA460000 		movl	$70, %edx
 3732      00
 3733 0cbe 4889EF   		movq	%rbp, %rdi
 3734 0cc1 E8000000 		call	_ZN8UnitTest11TestDetailsC1ERKS0_i@PLT
 3734      00
 3735 0cc6 48C74424 		movq	$3, 8(%rsp)
 3735      08030000 
 3735      00
 3736 0ccf 488B4424 		movq	48(%rsp), %rax
 3736      30
 3737 0cd4 488B4010 		movq	16(%rax), %rax
 3738 0cd8 8B00     		movl	(%rax), %eax
 3739 0cda 89442404 		movl	%eax, 4(%rsp)
 3740 0cde E8000000 		call	_ZN8UnitTest11CurrentTest7ResultsEv@PLT
 3740      00
 3741 0ce3 488B38   		movq	(%rax), %rdi
 3742 0ce6 488D5424 		leaq	4(%rsp), %rdx
 3742      04
 3743 0ceb 488D7424 		leaq	8(%rsp), %rsi
 3743      08
 3744 0cf0 4889E9   		movq	%rbp, %rcx
 3745 0cf3 E8000000 		call	_ZN8UnitTest10CheckEqualImjEEvRNS_11TestResultsERKT_RKT0_RKNS_11TestDetailsE
 3745      00
 3746              	.LEHE117:
 3747              	.L264:
 3748              	.LEHB118:
 3749 0cf8 E8000000 		call	_ZN8UnitTest11CurrentTest7DetailsEv@PLT
 3749      00
 3750 0cfd 488B30   		movq	(%rax), %rsi
 3751 0d00 BA470000 		movl	$71, %edx
 3751      00
 3752 0d05 4889EF   		movq	%rbp, %rdi
 3753 0d08 E8000000 		call	_ZN8UnitTest11TestDetailsC1ERKS0_i@PLT
 3753      00
 3754 0d0d 48C74424 		movq	$4, 8(%rsp)
 3754      08040000 
 3754      00
 3755 0d16 488B4424 		movq	48(%rsp), %rax
 3755      30
 3756 0d1b 488B4018 		movq	24(%rax), %rax
 3757 0d1f 8B00     		movl	(%rax), %eax
 3758 0d21 89442404 		movl	%eax, 4(%rsp)
 3759 0d25 E8000000 		call	_ZN8UnitTest11CurrentTest7ResultsEv@PLT
 3759      00
 3760 0d2a 488B38   		movq	(%rax), %rdi
 3761 0d2d 488D5424 		leaq	4(%rsp), %rdx
 3761      04
 3762 0d32 488D7424 		leaq	8(%rsp), %rsi
 3762      08
 3763 0d37 4889E9   		movq	%rbp, %rcx
 3764 0d3a E8000000 		call	_ZN8UnitTest10CheckEqualImjEEvRNS_11TestResultsERKT_RKT0_RKNS_11TestDetailsE
 3764      00
 3765              	.LEHE118:
 3766              	.L267:
 3767 0d3f 4C89E7   		movq	%r12, %rdi
 3768              	.LEHB119:
 3769 0d42 E8000000 		call	queueDestroy@PLT
 3769      00
 3770              	.LEHE119:
 3771 0d47 488B4424 		movq	104(%rsp), %rax
 3771      68
 3772 0d4c 64482B04 		subq	%fs:40, %rax
 3772      25280000 
 3772      00
 3773 0d55 750A     		jne	.L290
 3774 0d57 4883C470 		addq	$112, %rsp
 3775              		.cfi_remember_state
 3776              		.cfi_def_cfa_offset 32
 3777 0d5b 5D       		popq	%rbp
 3778              		.cfi_def_cfa_offset 24
 3779 0d5c 415C     		popq	%r12
 3780              		.cfi_def_cfa_offset 16
 3781 0d5e 415D     		popq	%r13
 3782              		.cfi_def_cfa_offset 8
 3783 0d60 C3       		ret
 3784              	.L290:
 3785              		.cfi_restore_state
 3786 0d61 E8000000 		call	__stack_chk_fail@PLT
 3786      00
 3787              	.L286:
 3788 0d66 F30F1EFA 		endbr64
 3789 0d6a 4889C7   		movq	%rax, %rdi
 3790 0d6d E9000000 		jmp	.L266
 3790      00
 3791              	.L284:
 3792 0d72 F30F1EFA 		endbr64
 3793 0d76 4889C7   		movq	%rax, %rdi
 3794 0d79 E9000000 		jmp	.L263
 3794      00
 3795              	.L276:
 3796 0d7e F30F1EFA 		endbr64
 3797 0d82 4889C7   		movq	%rax, %rdi
 3798 0d85 E9000000 		jmp	.L251
 3798      00
 3799              	.L280:
 3800 0d8a F30F1EFA 		endbr64
 3801 0d8e 4889C7   		movq	%rax, %rdi
 3802 0d91 E9000000 		jmp	.L257
 3802      00
 3803              	.L272:
 3804 0d96 F30F1EFA 		endbr64
 3805 0d9a 4889C7   		movq	%rax, %rdi
 3806 0d9d E9000000 		jmp	.L245
 3806      00
 3807              	.L282:
 3808 0da2 F30F1EFA 		endbr64
 3809 0da6 4889C7   		movq	%rax, %rdi
 3810 0da9 E9000000 		jmp	.L260
 3810      00
 3811              	.L274:
 3812 0dae F30F1EFA 		endbr64
 3813 0db2 4889C7   		movq	%rax, %rdi
 3814 0db5 E9000000 		jmp	.L248
 3814      00
 3815              	.L278:
 3816 0dba F30F1EFA 		endbr64
 3817 0dbe 4889C7   		movq	%rax, %rdi
 3818 0dc1 E9000000 		jmp	.L254
 3818      00
 3819              	.L270:
 3820 0dc6 F30F1EFA 		endbr64
 3821 0dca 4889C7   		movq	%rax, %rdi
 3822 0dcd E9000000 		jmp	.L242
 3822      00
 3823              		.section	.gcc_except_table
 3824 0236 0000     		.align 4
 3825              	.LLSDA1246:
 3826 0238 FF       		.byte	0xff
 3827 0239 9B       		.byte	0x9b
 3828 023a 49       		.uleb128 .LLSDATT1246-.LLSDATTD1246
 3829              	.LLSDATTD1246:
 3830 023b 01       		.byte	0x1
 3831 023c 3E       		.uleb128 .LLSDACSE1246-.LLSDACSB1246
 3832              	.LLSDACSB1246:
 3833 023d 42       		.uleb128 .LEHB109-.LFB1246
 3834 023e 05       		.uleb128 .LEHE109-.LEHB109
 3835 023f 00       		.uleb128 0
 3836 0240 00       		.uleb128 0
 3837 0241 4A       		.uleb128 .LEHB110-.LFB1246
 3838 0242 3A       		.uleb128 .LEHE110-.LEHB110
 3839 0243 8606     		.uleb128 .L270-.LFB1246
 3840 0245 01       		.uleb128 0x1
 3841 0246 8401     		.uleb128 .LEHB111-.LFB1246
 3842 0248 38       		.uleb128 .LEHE111-.LEHB111
 3843 0249 D605     		.uleb128 .L272-.LFB1246
 3844 024b 01       		.uleb128 0x1
 3845 024c BC01     		.uleb128 .LEHB112-.LFB1246
 3846 024e 38       		.uleb128 .LEHE112-.LEHB112
 3847 024f EE05     		.uleb128 .L274-.LFB1246
 3848 0251 01       		.uleb128 0x1
 3849 0252 F401     		.uleb128 .LEHB113-.LFB1246
 3850 0254 38       		.uleb128 .LEHE113-.LEHB113
 3851 0255 BE05     		.uleb128 .L276-.LFB1246
 3852 0257 01       		.uleb128 0x1
 3853 0258 AC02     		.uleb128 .LEHB114-.LFB1246
 3854 025a 38       		.uleb128 .LEHE114-.LEHB114
 3855 025b FA05     		.uleb128 .L278-.LFB1246
 3856 025d 01       		.uleb128 0x1
 3857 025e E402     		.uleb128 .LEHB115-.LFB1246
 3858 0260 46       		.uleb128 .LEHE115-.LEHB115
 3859 0261 CA05     		.uleb128 .L280-.LFB1246
 3860 0263 01       		.uleb128 0x1
 3861 0264 AA03     		.uleb128 .LEHB116-.LFB1246
 3862 0266 47       		.uleb128 .LEHE116-.LEHB116
 3863 0267 E205     		.uleb128 .L282-.LFB1246
 3864 0269 01       		.uleb128 0x1
 3865 026a F103     		.uleb128 .LEHB117-.LFB1246
 3866 026c 47       		.uleb128 .LEHE117-.LEHB117
 3867 026d B205     		.uleb128 .L284-.LFB1246
 3868 026f 01       		.uleb128 0x1
 3869 0270 B804     		.uleb128 .LEHB118-.LFB1246
 3870 0272 47       		.uleb128 .LEHE118-.LEHB118
 3871 0273 A605     		.uleb128 .L286-.LFB1246
 3872 0275 01       		.uleb128 0x1
 3873 0276 8205     		.uleb128 .LEHB119-.LFB1246
 3874 0278 05       		.uleb128 .LEHE119-.LEHB119
 3875 0279 00       		.uleb128 0
 3876 027a 00       		.uleb128 0
 3877              	.LLSDACSE1246:
 3878 027b 01       		.byte	0x1
 3879 027c 00       		.byte	0
 3880 027d 000000   		.align 4
 3881 0280 00000000 		.long	0
 3882              	
 3883              	.LLSDATT1246:
 3884              		.text
 3885              		.cfi_endproc
 3886              		.section	.text.unlikely
 3887              		.cfi_startproc
 3888              		.cfi_personality 0x9b,DW.ref.__gxx_personality_v0
 3889              		.cfi_lsda 0x1b,.LLSDAC1246
 3891              	_ZNK18TestQueue_testInit7RunImplEv.cold:
 3892              	.LFSB1246:
 3893              	.L266:
 3894              		.cfi_def_cfa_offset 144
 3895              		.cfi_offset 6, -32
 3896              		.cfi_offset 12, -24
 3897              		.cfi_offset 13, -16
 3898 0492 E8000000 		call	__cxa_begin_catch@PLT
 3898      00
 3899              	.LEHB120:
 3900 0497 E8000000 		call	_ZN8UnitTest11CurrentTest7ResultsEv@PLT
 3900      00
 3901 049c 4C8B28   		movq	(%rax), %r13
 3902 049f E8000000 		call	_ZN8UnitTest11CurrentTest7DetailsEv@PLT
 3902      00
 3903 04a4 488B30   		movq	(%rax), %rsi
 3904 04a7 BA470000 		movl	$71, %edx
 3904      00
 3905 04ac 4889EF   		movq	%rbp, %rdi
 3906 04af E8000000 		call	_ZN8UnitTest11TestDetailsC1ERKS0_i@PLT
 3906      00
 3907 04b4 488D1500 		leaq	.LC19(%rip), %rdx
 3907      000000
 3908 04bb 4889EE   		movq	%rbp, %rsi
 3909 04be 4C89EF   		movq	%r13, %rdi
 3910 04c1 E8000000 		call	_ZN8UnitTest11TestResults13OnTestFailureERKNS_11TestDetailsEPKc@PLT
 3910      00
 3911              	.LEHE120:
 3912              	.LEHB121:
 3913 04c6 E8000000 		call	__cxa_end_catch@PLT
 3913      00
 3914              	.LEHE121:
 3915 04cb E9000000 		jmp	.L267
 3915      00
 3916              	.L263:
 3917 04d0 E8000000 		call	__cxa_begin_catch@PLT
 3917      00
 3918              	.LEHB122:
 3919 04d5 E8000000 		call	_ZN8UnitTest11CurrentTest7ResultsEv@PLT
 3919      00
 3920 04da 4C8B28   		movq	(%rax), %r13
 3921 04dd E8000000 		call	_ZN8UnitTest11CurrentTest7DetailsEv@PLT
 3921      00
 3922 04e2 488B30   		movq	(%rax), %rsi
 3923 04e5 BA460000 		movl	$70, %edx
 3923      00
 3924 04ea 4889EF   		movq	%rbp, %rdi
 3925 04ed E8000000 		call	_ZN8UnitTest11TestDetailsC1ERKS0_i@PLT
 3925      00
 3926 04f2 488D1500 		leaq	.LC18(%rip), %rdx
 3926      000000
 3927 04f9 4889EE   		movq	%rbp, %rsi
 3928 04fc 4C89EF   		movq	%r13, %rdi
 3929 04ff E8000000 		call	_ZN8UnitTest11TestResults13OnTestFailureERKNS_11TestDetailsEPKc@PLT
 3929      00
 3930              	.LEHE122:
 3931              	.LEHB123:
 3932 0504 E8000000 		call	__cxa_end_catch@PLT
 3932      00
 3933              	.LEHE123:
 3934 0509 E9000000 		jmp	.L264
 3934      00
 3935              	.L251:
 3936 050e E8000000 		call	__cxa_begin_catch@PLT
 3936      00
 3937              	.LEHB124:
 3938 0513 E8000000 		call	_ZN8UnitTest11CurrentTest7ResultsEv@PLT
 3938      00
 3939 0518 4C8B28   		movq	(%rax), %r13
 3940 051b E8000000 		call	_ZN8UnitTest11CurrentTest7DetailsEv@PLT
 3940      00
 3941 0520 488B30   		movq	(%rax), %rsi
 3942 0523 BA400000 		movl	$64, %edx
 3942      00
 3943 0528 4889EF   		movq	%rbp, %rdi
 3944 052b E8000000 		call	_ZN8UnitTest11TestDetailsC1ERKS0_i@PLT
 3944      00
 3945 0530 488D1500 		leaq	.LC14(%rip), %rdx
 3945      000000
 3946 0537 4889EE   		movq	%rbp, %rsi
 3947 053a 4C89EF   		movq	%r13, %rdi
 3948 053d E8000000 		call	_ZN8UnitTest11TestResults13OnTestFailureERKNS_11TestDetailsEPKc@PLT
 3948      00
 3949              	.LEHE124:
 3950              	.LEHB125:
 3951 0542 E8000000 		call	__cxa_end_catch@PLT
 3951      00
 3952              	.LEHE125:
 3953 0547 E9000000 		jmp	.L252
 3953      00
 3954              	.L257:
 3955 054c E8000000 		call	__cxa_begin_catch@PLT
 3955      00
 3956              	.LEHB126:
 3957 0551 E8000000 		call	_ZN8UnitTest11CurrentTest7ResultsEv@PLT
 3957      00
 3958 0556 4C8B28   		movq	(%rax), %r13
 3959 0559 E8000000 		call	_ZN8UnitTest11CurrentTest7DetailsEv@PLT
 3959      00
 3960 055e 488B30   		movq	(%rax), %rsi
 3961 0561 BA440000 		movl	$68, %edx
 3961      00
 3962 0566 4889EF   		movq	%rbp, %rdi
 3963 0569 E8000000 		call	_ZN8UnitTest11TestDetailsC1ERKS0_i@PLT
 3963      00
 3964 056e 488D1500 		leaq	.LC16(%rip), %rdx
 3964      000000
 3965 0575 4889EE   		movq	%rbp, %rsi
 3966 0578 4C89EF   		movq	%r13, %rdi
 3967 057b E8000000 		call	_ZN8UnitTest11TestResults13OnTestFailureERKNS_11TestDetailsEPKc@PLT
 3967      00
 3968              	.LEHE126:
 3969              	.LEHB127:
 3970 0580 E8000000 		call	__cxa_end_catch@PLT
 3970      00
 3971              	.LEHE127:
 3972 0585 E9000000 		jmp	.L258
 3972      00
 3973              	.L245:
 3974 058a E8000000 		call	__cxa_begin_catch@PLT
 3974      00
 3975              	.LEHB128:
 3976 058f E8000000 		call	_ZN8UnitTest11CurrentTest7ResultsEv@PLT
 3976      00
 3977 0594 4C8B28   		movq	(%rax), %r13
 3978 0597 E8000000 		call	_ZN8UnitTest11CurrentTest7DetailsEv@PLT
 3978      00
 3979 059c 488B30   		movq	(%rax), %rsi
 3980 059f BA3E0000 		movl	$62, %edx
 3980      00
 3981 05a4 4889EF   		movq	%rbp, %rdi
 3982 05a7 E8000000 		call	_ZN8UnitTest11TestDetailsC1ERKS0_i@PLT
 3982      00
 3983 05ac 488D1500 		leaq	.LC12(%rip), %rdx
 3983      000000
 3984 05b3 4889EE   		movq	%rbp, %rsi
 3985 05b6 4C89EF   		movq	%r13, %rdi
 3986 05b9 E8000000 		call	_ZN8UnitTest11TestResults13OnTestFailureERKNS_11TestDetailsEPKc@PLT
 3986      00
 3987              	.LEHE128:
 3988              	.LEHB129:
 3989 05be E8000000 		call	__cxa_end_catch@PLT
 3989      00
 3990              	.LEHE129:
 3991 05c3 E9000000 		jmp	.L246
 3991      00
 3992              	.L260:
 3993 05c8 E8000000 		call	__cxa_begin_catch@PLT
 3993      00
 3994              	.LEHB130:
 3995 05cd E8000000 		call	_ZN8UnitTest11CurrentTest7ResultsEv@PLT
 3995      00
 3996 05d2 4C8B28   		movq	(%rax), %r13
 3997 05d5 E8000000 		call	_ZN8UnitTest11CurrentTest7DetailsEv@PLT
 3997      00
 3998 05da 488B30   		movq	(%rax), %rsi
 3999 05dd BA450000 		movl	$69, %edx
 3999      00
 4000 05e2 4889EF   		movq	%rbp, %rdi
 4001 05e5 E8000000 		call	_ZN8UnitTest11TestDetailsC1ERKS0_i@PLT
 4001      00
 4002 05ea 488D1500 		leaq	.LC17(%rip), %rdx
 4002      000000
 4003 05f1 4889EE   		movq	%rbp, %rsi
 4004 05f4 4C89EF   		movq	%r13, %rdi
 4005 05f7 E8000000 		call	_ZN8UnitTest11TestResults13OnTestFailureERKNS_11TestDetailsEPKc@PLT
 4005      00
 4006              	.LEHE130:
 4007              	.LEHB131:
 4008 05fc E8000000 		call	__cxa_end_catch@PLT
 4008      00
 4009              	.LEHE131:
 4010 0601 E9000000 		jmp	.L261
 4010      00
 4011              	.L248:
 4012 0606 E8000000 		call	__cxa_begin_catch@PLT
 4012      00
 4013              	.LEHB132:
 4014 060b E8000000 		call	_ZN8UnitTest11CurrentTest7ResultsEv@PLT
 4014      00
 4015 0610 4C8B28   		movq	(%rax), %r13
 4016 0613 E8000000 		call	_ZN8UnitTest11CurrentTest7DetailsEv@PLT
 4016      00
 4017 0618 488B30   		movq	(%rax), %rsi
 4018 061b BA3F0000 		movl	$63, %edx
 4018      00
 4019 0620 4889EF   		movq	%rbp, %rdi
 4020 0623 E8000000 		call	_ZN8UnitTest11TestDetailsC1ERKS0_i@PLT
 4020      00
 4021 0628 488D1500 		leaq	.LC13(%rip), %rdx
 4021      000000
 4022 062f 4889EE   		movq	%rbp, %rsi
 4023 0632 4C89EF   		movq	%r13, %rdi
 4024 0635 E8000000 		call	_ZN8UnitTest11TestResults13OnTestFailureERKNS_11TestDetailsEPKc@PLT
 4024      00
 4025              	.LEHE132:
 4026              	.LEHB133:
 4027 063a E8000000 		call	__cxa_end_catch@PLT
 4027      00
 4028              	.LEHE133:
 4029 063f E9000000 		jmp	.L249
 4029      00
 4030              	.L254:
 4031 0644 E8000000 		call	__cxa_begin_catch@PLT
 4031      00
 4032              	.LEHB134:
 4033 0649 E8000000 		call	_ZN8UnitTest11CurrentTest7ResultsEv@PLT
 4033      00
 4034 064e 4C8B28   		movq	(%rax), %r13
 4035 0651 E8000000 		call	_ZN8UnitTest11CurrentTest7DetailsEv@PLT
 4035      00
 4036 0656 488B30   		movq	(%rax), %rsi
 4037 0659 BA410000 		movl	$65, %edx
 4037      00
 4038 065e 4889EF   		movq	%rbp, %rdi
 4039 0661 E8000000 		call	_ZN8UnitTest11TestDetailsC1ERKS0_i@PLT
 4039      00
 4040 0666 488D1500 		leaq	.LC15(%rip), %rdx
 4040      000000
 4041 066d 4889EE   		movq	%rbp, %rsi
 4042 0670 4C89EF   		movq	%r13, %rdi
 4043 0673 E8000000 		call	_ZN8UnitTest11TestResults13OnTestFailureERKNS_11TestDetailsEPKc@PLT
 4043      00
 4044              	.LEHE134:
 4045              	.LEHB135:
 4046 0678 E8000000 		call	__cxa_end_catch@PLT
 4046      00
 4047              	.LEHE135:
 4048 067d E9000000 		jmp	.L255
 4048      00
 4049              	.L242:
 4050 0682 E8000000 		call	__cxa_begin_catch@PLT
 4050      00
 4051              	.LEHB136:
 4052 0687 E8000000 		call	_ZN8UnitTest11CurrentTest7ResultsEv@PLT
 4052      00
 4053 068c 4C8B28   		movq	(%rax), %r13
 4054 068f E8000000 		call	_ZN8UnitTest11CurrentTest7DetailsEv@PLT
 4054      00
 4055 0694 488D6C24 		leaq	16(%rsp), %rbp
 4055      10
 4056 0699 488B30   		movq	(%rax), %rsi
 4057 069c BA3B0000 		movl	$59, %edx
 4057      00
 4058 06a1 4889EF   		movq	%rbp, %rdi
 4059 06a4 E8000000 		call	_ZN8UnitTest11TestDetailsC1ERKS0_i@PLT
 4059      00
 4060 06a9 488D1500 		leaq	.LC10(%rip), %rdx
 4060      000000
 4061 06b0 4889EE   		movq	%rbp, %rsi
 4062 06b3 4C89EF   		movq	%r13, %rdi
 4063 06b6 E8000000 		call	_ZN8UnitTest11TestResults13OnTestFailureERKNS_11TestDetailsEPKc@PLT
 4063      00
 4064              	.LEHE136:
 4065              	.LEHB137:
 4066 06bb E8000000 		call	__cxa_end_catch@PLT
 4066      00
 4067              	.LEHE137:
 4068 06c0 E9000000 		jmp	.L243
 4068      00
 4069              	.L287:
 4070 06c5 F30F1EFA 		endbr64
 4071 06c9 4889C5   		movq	%rax, %rbp
 4072 06cc E8000000 		call	__cxa_end_catch@PLT
 4072      00
 4073 06d1 4889EF   		movq	%rbp, %rdi
 4074              	.LEHB138:
 4075 06d4 E8000000 		call	_Unwind_Resume@PLT
 4075      00
 4076              	.LEHE138:
 4077              	.L285:
 4078 06d9 F30F1EFA 		endbr64
 4079 06dd 4889C5   		movq	%rax, %rbp
 4080 06e0 E8000000 		call	__cxa_end_catch@PLT
 4080      00
 4081 06e5 4889EF   		movq	%rbp, %rdi
 4082              	.LEHB139:
 4083 06e8 E8000000 		call	_Unwind_Resume@PLT
 4083      00
 4084              	.LEHE139:
 4085              	.L283:
 4086 06ed F30F1EFA 		endbr64
 4087 06f1 4889C5   		movq	%rax, %rbp
 4088 06f4 E8000000 		call	__cxa_end_catch@PLT
 4088      00
 4089 06f9 4889EF   		movq	%rbp, %rdi
 4090              	.LEHB140:
 4091 06fc E8000000 		call	_Unwind_Resume@PLT
 4091      00
 4092              	.LEHE140:
 4093              	.L281:
 4094 0701 F30F1EFA 		endbr64
 4095 0705 4889C5   		movq	%rax, %rbp
 4096 0708 E8000000 		call	__cxa_end_catch@PLT
 4096      00
 4097 070d 4889EF   		movq	%rbp, %rdi
 4098              	.LEHB141:
 4099 0710 E8000000 		call	_Unwind_Resume@PLT
 4099      00
 4100              	.LEHE141:
 4101              	.L279:
 4102 0715 F30F1EFA 		endbr64
 4103 0719 4889C5   		movq	%rax, %rbp
 4104 071c E8000000 		call	__cxa_end_catch@PLT
 4104      00
 4105 0721 4889EF   		movq	%rbp, %rdi
 4106              	.LEHB142:
 4107 0724 E8000000 		call	_Unwind_Resume@PLT
 4107      00
 4108              	.LEHE142:
 4109              	.L277:
 4110 0729 F30F1EFA 		endbr64
 4111 072d 4889C5   		movq	%rax, %rbp
 4112 0730 E8000000 		call	__cxa_end_catch@PLT
 4112      00
 4113 0735 4889EF   		movq	%rbp, %rdi
 4114              	.LEHB143:
 4115 0738 E8000000 		call	_Unwind_Resume@PLT
 4115      00
 4116              	.LEHE143:
 4117              	.L275:
 4118 073d F30F1EFA 		endbr64
 4119 0741 4889C5   		movq	%rax, %rbp
 4120 0744 E8000000 		call	__cxa_end_catch@PLT
 4120      00
 4121 0749 4889EF   		movq	%rbp, %rdi
 4122              	.LEHB144:
 4123 074c E8000000 		call	_Unwind_Resume@PLT
 4123      00
 4124              	.LEHE144:
 4125              	.L273:
 4126 0751 F30F1EFA 		endbr64
 4127 0755 4889C5   		movq	%rax, %rbp
 4128 0758 E8000000 		call	__cxa_end_catch@PLT
 4128      00
 4129 075d 4889EF   		movq	%rbp, %rdi
 4130              	.LEHB145:
 4131 0760 E8000000 		call	_Unwind_Resume@PLT
 4131      00
 4132              	.LEHE145:
 4133              	.L271:
 4134 0765 F30F1EFA 		endbr64
 4135 0769 4889C5   		movq	%rax, %rbp
 4136 076c E8000000 		call	__cxa_end_catch@PLT
 4136      00
 4137 0771 4889EF   		movq	%rbp, %rdi
 4138              	.LEHB146:
 4139 0774 E8000000 		call	_Unwind_Resume@PLT
 4139      00
 4140              	.LEHE146:
 4141              		.cfi_endproc
 4142              	.LFE1246:
 4143              		.section	.gcc_except_table
 4144              		.align 4
 4145              	.LLSDAC1246:
 4146 0284 FF       		.byte	0xff
 4147 0285 9B       		.byte	0x9b
 4148 0286 9801     		.uleb128 .LLSDATTC1246-.LLSDATTDC1246
 4149              	.LLSDATTDC1246:
 4150 0288 01       		.byte	0x1
 4151 0289 8C01     		.uleb128 .LLSDACSEC1246-.LLSDACSBC1246
 4152              	.LLSDACSBC1246:
 4153 028b 05       		.uleb128 .LEHB120-.LCOLDB20
 4154 028c 2F       		.uleb128 .LEHE120-.LEHB120
 4155 028d B304     		.uleb128 .L287-.LCOLDB20
 4156 028f 00       		.uleb128 0
 4157 0290 34       		.uleb128 .LEHB121-.LCOLDB20
 4158 0291 05       		.uleb128 .LEHE121-.LEHB121
 4159 0292 00       		.uleb128 0
 4160 0293 00       		.uleb128 0
 4161 0294 43       		.uleb128 .LEHB122-.LCOLDB20
 4162 0295 2F       		.uleb128 .LEHE122-.LEHB122
 4163 0296 C704     		.uleb128 .L285-.LCOLDB20
 4164 0298 00       		.uleb128 0
 4165 0299 72       		.uleb128 .LEHB123-.LCOLDB20
 4166 029a 05       		.uleb128 .LEHE123-.LEHB123
 4167 029b 00       		.uleb128 0
 4168 029c 00       		.uleb128 0
 4169 029d 8101     		.uleb128 .LEHB124-.LCOLDB20
 4170 029f 2F       		.uleb128 .LEHE124-.LEHB124
 4171 02a0 9705     		.uleb128 .L277-.LCOLDB20
 4172 02a2 00       		.uleb128 0
 4173 02a3 B001     		.uleb128 .LEHB125-.LCOLDB20
 4174 02a5 05       		.uleb128 .LEHE125-.LEHB125
 4175 02a6 00       		.uleb128 0
 4176 02a7 00       		.uleb128 0
 4177 02a8 BF01     		.uleb128 .LEHB126-.LCOLDB20
 4178 02aa 2F       		.uleb128 .LEHE126-.LEHB126
 4179 02ab EF04     		.uleb128 .L281-.LCOLDB20
 4180 02ad 00       		.uleb128 0
 4181 02ae EE01     		.uleb128 .LEHB127-.LCOLDB20
 4182 02b0 05       		.uleb128 .LEHE127-.LEHB127
 4183 02b1 00       		.uleb128 0
 4184 02b2 00       		.uleb128 0
 4185 02b3 FD01     		.uleb128 .LEHB128-.LCOLDB20
 4186 02b5 2F       		.uleb128 .LEHE128-.LEHB128
 4187 02b6 BF05     		.uleb128 .L273-.LCOLDB20
 4188 02b8 00       		.uleb128 0
 4189 02b9 AC02     		.uleb128 .LEHB129-.LCOLDB20
 4190 02bb 05       		.uleb128 .LEHE129-.LEHB129
 4191 02bc 00       		.uleb128 0
 4192 02bd 00       		.uleb128 0
 4193 02be BB02     		.uleb128 .LEHB130-.LCOLDB20
 4194 02c0 2F       		.uleb128 .LEHE130-.LEHB130
 4195 02c1 DB04     		.uleb128 .L283-.LCOLDB20
 4196 02c3 00       		.uleb128 0
 4197 02c4 EA02     		.uleb128 .LEHB131-.LCOLDB20
 4198 02c6 05       		.uleb128 .LEHE131-.LEHB131
 4199 02c7 00       		.uleb128 0
 4200 02c8 00       		.uleb128 0
 4201 02c9 F902     		.uleb128 .LEHB132-.LCOLDB20
 4202 02cb 2F       		.uleb128 .LEHE132-.LEHB132
 4203 02cc AB05     		.uleb128 .L275-.LCOLDB20
 4204 02ce 00       		.uleb128 0
 4205 02cf A803     		.uleb128 .LEHB133-.LCOLDB20
 4206 02d1 05       		.uleb128 .LEHE133-.LEHB133
 4207 02d2 00       		.uleb128 0
 4208 02d3 00       		.uleb128 0
 4209 02d4 B703     		.uleb128 .LEHB134-.LCOLDB20
 4210 02d6 2F       		.uleb128 .LEHE134-.LEHB134
 4211 02d7 8305     		.uleb128 .L279-.LCOLDB20
 4212 02d9 00       		.uleb128 0
 4213 02da E603     		.uleb128 .LEHB135-.LCOLDB20
 4214 02dc 05       		.uleb128 .LEHE135-.LEHB135
 4215 02dd 00       		.uleb128 0
 4216 02de 00       		.uleb128 0
 4217 02df F503     		.uleb128 .LEHB136-.LCOLDB20
 4218 02e1 34       		.uleb128 .LEHE136-.LEHB136
 4219 02e2 D305     		.uleb128 .L271-.LCOLDB20
 4220 02e4 00       		.uleb128 0
 4221 02e5 A904     		.uleb128 .LEHB137-.LCOLDB20
 4222 02e7 05       		.uleb128 .LEHE137-.LEHB137
 4223 02e8 00       		.uleb128 0
 4224 02e9 00       		.uleb128 0
 4225 02ea C204     		.uleb128 .LEHB138-.LCOLDB20
 4226 02ec 05       		.uleb128 .LEHE138-.LEHB138
 4227 02ed 00       		.uleb128 0
 4228 02ee 00       		.uleb128 0
 4229 02ef D604     		.uleb128 .LEHB139-.LCOLDB20
 4230 02f1 05       		.uleb128 .LEHE139-.LEHB139
 4231 02f2 00       		.uleb128 0
 4232 02f3 00       		.uleb128 0
 4233 02f4 EA04     		.uleb128 .LEHB140-.LCOLDB20
 4234 02f6 05       		.uleb128 .LEHE140-.LEHB140
 4235 02f7 00       		.uleb128 0
 4236 02f8 00       		.uleb128 0
 4237 02f9 FE04     		.uleb128 .LEHB141-.LCOLDB20
 4238 02fb 05       		.uleb128 .LEHE141-.LEHB141
 4239 02fc 00       		.uleb128 0
 4240 02fd 00       		.uleb128 0
 4241 02fe 9205     		.uleb128 .LEHB142-.LCOLDB20
 4242 0300 05       		.uleb128 .LEHE142-.LEHB142
 4243 0301 00       		.uleb128 0
 4244 0302 00       		.uleb128 0
 4245 0303 A605     		.uleb128 .LEHB143-.LCOLDB20
 4246 0305 05       		.uleb128 .LEHE143-.LEHB143
 4247 0306 00       		.uleb128 0
 4248 0307 00       		.uleb128 0
 4249 0308 BA05     		.uleb128 .LEHB144-.LCOLDB20
 4250 030a 05       		.uleb128 .LEHE144-.LEHB144
 4251 030b 00       		.uleb128 0
 4252 030c 00       		.uleb128 0
 4253 030d CE05     		.uleb128 .LEHB145-.LCOLDB20
 4254 030f 05       		.uleb128 .LEHE145-.LEHB145
 4255 0310 00       		.uleb128 0
 4256 0311 00       		.uleb128 0
 4257 0312 E205     		.uleb128 .LEHB146-.LCOLDB20
 4258 0314 05       		.uleb128 .LEHE146-.LEHB146
 4259 0315 00       		.uleb128 0
 4260 0316 00       		.uleb128 0
 4261              	.LLSDACSEC1246:
 4262 0317 01       		.byte	0x1
 4263 0318 00       		.byte	0
 4264 0319 000000   		.align 4
 4265 031c 00000000 		.long	0
 4266              	
 4267              	.LLSDATTC1246:
 4268              		.section	.text.unlikely
 4269              		.text
 4271              		.section	.text.unlikely
 4273              	.LCOLDE20:
 4274              		.text
 4275              	.LHOTE20:
 4276              		.section	.rodata.str1.8
 4277 02b3 00000000 		.align 8
 4277      00
 4278              	.LC21:
 4279 02b8 556E6861 		.string	"Unhandled exception in CHECK_EQUAL(1UL, *item)"
 4279      6E646C65 
 4279      64206578 
 4279      63657074 
 4279      696F6E20 
 4280 02e7 00       		.align 8
 4281              	.LC22:
 4282 02e8 556E6861 		.string	"Unhandled exception in CHECK_EQUAL(2UL, *item)"
 4282      6E646C65 
 4282      64206578 
 4282      63657074 
 4282      696F6E20 
 4283 0317 00       		.align 8
 4284              	.LC23:
 4285 0318 556E6861 		.string	"Unhandled exception in CHECK_EQUAL(3UL, *item)"
 4285      6E646C65 
 4285      64206578 
 4285      63657074 
 4285      696F6E20 
 4286 0347 00       		.align 8
 4287              	.LC24:
 4288 0348 556E6861 		.string	"Unhandled exception in CHECK_EQUAL(3UL, queue.putIndex)"
 4288      6E646C65 
 4288      64206578 
 4288      63657074 
 4288      696F6E20 
 4289              		.align 8
 4290              	.LC25:
 4291 0380 556E6861 		.string	"Unhandled exception in CHECK_EQUAL(3UL, queue.numItems)"
 4291      6E646C65 
 4291      64206578 
 4291      63657074 
 4291      696F6E20 
 4292              		.align 8
 4293              	.LC26:
 4294 03b8 556E6861 		.string	"Unhandled exception in CHECK_EQUAL(5UL, deref(queue.itemArray[0]))"
 4294      6E646C65 
 4294      64206578 
 4294      63657074 
 4294      696F6E20 
 4295 03fb 00000000 		.align 8
 4295      00
 4296              	.LC27:
 4297 0400 556E6861 		.string	"Unhandled exception in CHECK_EQUAL(6UL, deref(queue.itemArray[1]))"
 4297      6E646C65 
 4297      64206578 
 4297      63657074 
 4297      696F6E20 
 4298 0443 00000000 		.align 8
 4298      00
 4299              	.LC28:
 4300 0448 556E6861 		.string	"Unhandled exception in CHECK_EQUAL(7UL, deref(queue.itemArray[2]))"
 4300      6E646C65 
 4300      64206578 
 4300      63657074 
 4300      696F6E20 
 4301              		.section	.text.unlikely
 4302 0779 90       		.align 2
 4303              	.LCOLDB29:
 4304              		.text
 4305              	.LHOTB29:
 4306              		.align 2
 4307 0dd2 66662E0F 		.p2align 4
 4307      1F840000 
 4307      0000000F 
 4307      1F00
 4308              		.globl	_ZNK23TestQueue_testPutNoWrap7RunImplEv
 4310              	_ZNK23TestQueue_testPutNoWrap7RunImplEv:
 4311              	.LFB1250:
 4312              		.cfi_startproc
 4313              		.cfi_personality 0x9b,DW.ref.__gxx_personality_v0
 4314              		.cfi_lsda 0x1b,.LLSDA1250
 4315 0de0 F30F1EFA 		endbr64
 4316 0de4 4156     		pushq	%r14
 4317              		.cfi_def_cfa_offset 16
 4318              		.cfi_offset 14, -16
 4319 0de6 488D0D00 		leaq	destroyInt(%rip), %rcx
 4319      000000
 4320 0ded BE040000 		movl	$4, %esi
 4320      00
 4321 0df2 488D1500 		leaq	createInt(%rip), %rdx
 4321      000000
 4322 0df9 4155     		pushq	%r13
 4323              		.cfi_def_cfa_offset 24
 4324              		.cfi_offset 13, -24
 4325 0dfb 4154     		pushq	%r12
 4326              		.cfi_def_cfa_offset 32
 4327              		.cfi_offset 12, -32
 4328 0dfd 55       		pushq	%rbp
 4329              		.cfi_def_cfa_offset 40
 4330              		.cfi_offset 6, -40
 4331 0dfe 4881EC88 		subq	$136, %rsp
 4331      000000
 4332              		.cfi_def_cfa_offset 176
 4333 0e05 64488B04 		movq	%fs:40, %rax
 4333      25280000 
 4333      00
 4334 0e0e 48894424 		movq	%rax, 120(%rsp)
 4334      78
 4335 0e13 31C0     		xorl	%eax, %eax
 4336 0e15 4C8D6424 		leaq	64(%rsp), %r12
 4336      40
 4337 0e1a C7050000 		movl	$1, _ZL7m_count(%rip)
 4337      00000100 
 4337      0000
 4338 0e24 4C89E7   		movq	%r12, %rdi
 4339              	.LEHB147:
 4340 0e27 E8000000 		call	queueInit@PLT
 4340      00
 4341              	.LEHE147:
 4342 0e2c 89442408 		movl	%eax, 8(%rsp)
 4343              	.LEHB148:
 4344 0e30 E8000000 		call	_ZN8UnitTest11CurrentTest7DetailsEv@PLT
 4344      00
 4345 0e35 488D6C24 		leaq	32(%rsp), %rbp
 4345      20
 4346 0e3a 488B30   		movq	(%rax), %rsi
 4347 0e3d BA540000 		movl	$84, %edx
 4347      00
 4348 0e42 4889EF   		movq	%rbp, %rdi
 4349 0e45 E8000000 		call	_ZN8UnitTest11TestDetailsC1ERKS0_i@PLT
 4349      00
 4350 0e4a C7442418 		movl	$0, 24(%rsp)
 4350      00000000 
 4351 0e52 E8000000 		call	_ZN8UnitTest11CurrentTest7ResultsEv@PLT
 4351      00
 4352 0e57 488B38   		movq	(%rax), %rdi
 4353 0e5a 488D5424 		leaq	8(%rsp), %rdx
 4353      08
 4354 0e5f 488D7424 		leaq	24(%rsp), %rsi
 4354      18
 4355 0e64 4889E9   		movq	%rbp, %rcx
 4356 0e67 E8F4F4FF 		call	_ZN8UnitTest10CheckEqualI9USBStatusS1_EEvRNS_11TestResultsERKT_RKT0_RKNS_11TestDetailsE.const
 4356      FF
 4357              	.LEHE148:
 4358              	.L293:
 4359 0e6c 4C8D6C24 		leaq	16(%rsp), %r13
 4359      10
 4360 0e71 4C89E7   		movq	%r12, %rdi
 4361 0e74 4C89EE   		movq	%r13, %rsi
 4362              	.LEHB149:
 4363 0e77 E8000000 		call	queuePut@PLT
 4363      00
 4364              	.LEHE149:
 4365 0e7c 89442408 		movl	%eax, 8(%rsp)
 4366              	.LEHB150:
 4367 0e80 E8000000 		call	_ZN8UnitTest11CurrentTest7DetailsEv@PLT
 4367      00
 4368 0e85 488B30   		movq	(%rax), %rsi
 4369 0e88 BA580000 		movl	$88, %edx
 4369      00
 4370 0e8d 4889EF   		movq	%rbp, %rdi
 4371 0e90 E8000000 		call	_ZN8UnitTest11TestDetailsC1ERKS0_i@PLT
 4371      00
 4372 0e95 C7442418 		movl	$0, 24(%rsp)
 4372      00000000 
 4373 0e9d E8000000 		call	_ZN8UnitTest11CurrentTest7ResultsEv@PLT
 4373      00
 4374 0ea2 488B38   		movq	(%rax), %rdi
 4375 0ea5 488D5424 		leaq	8(%rsp), %rdx
 4375      08
 4376 0eaa 488D7424 		leaq	24(%rsp), %rsi
 4376      18
 4377 0eaf 4889E9   		movq	%rbp, %rcx
 4378 0eb2 E8A9F4FF 		call	_ZN8UnitTest10CheckEqualI9USBStatusS1_EEvRNS_11TestResultsERKT_RKT0_RKNS_11TestDetailsE.const
 4378      FF
 4379              	.LEHE150:
 4380              	.L296:
 4381              	.LEHB151:
 4382 0eb7 E8000000 		call	_ZN8UnitTest11CurrentTest7DetailsEv@PLT
 4382      00
 4383 0ebc 488B30   		movq	(%rax), %rsi
 4384 0ebf BA590000 		movl	$89, %edx
 4384      00
 4385 0ec4 4889EF   		movq	%rbp, %rdi
 4386 0ec7 E8000000 		call	_ZN8UnitTest11TestDetailsC1ERKS0_i@PLT
 4386      00
 4387 0ecc 48C74424 		movq	$1, 24(%rsp)
 4387      18010000 
 4387      00
 4388 0ed5 4C8B7424 		movq	16(%rsp), %r14
 4388      10
 4389 0eda E8000000 		call	_ZN8UnitTest11CurrentTest7ResultsEv@PLT
 4389      00
 4390 0edf 488B38   		movq	(%rax), %rdi
 4391 0ee2 488D7424 		leaq	24(%rsp), %rsi
 4391      18
 4392 0ee7 4889E9   		movq	%rbp, %rcx
 4393 0eea 4C89F2   		movq	%r14, %rdx
 4394 0eed E8000000 		call	_ZN8UnitTest10CheckEqualImjEEvRNS_11TestResultsERKT_RKT0_RKNS_11TestDetailsE
 4394      00
 4395              	.LEHE151:
 4396              	.L299:
 4397 0ef2 488B4424 		movq	16(%rsp), %rax
 4397      10
 4398 0ef7 4C89E7   		movq	%r12, %rdi
 4399 0efa C7000500 		movl	$5, (%rax)
 4399      0000
 4400              	.LEHB152:
 4401 0f00 E8000000 		call	queueCommitPut@PLT
 4401      00
 4402 0f05 4C89EE   		movq	%r13, %rsi
 4403 0f08 4C89E7   		movq	%r12, %rdi
 4404 0f0b E8000000 		call	queuePut@PLT
 4404      00
 4405              	.LEHE152:
 4406 0f10 89442408 		movl	%eax, 8(%rsp)
 4407              	.LEHB153:
 4408 0f14 E8000000 		call	_ZN8UnitTest11CurrentTest7DetailsEv@PLT
 4408      00
 4409 0f19 488B30   		movq	(%rax), %rsi
 4410 0f1c BA5D0000 		movl	$93, %edx
 4410      00
 4411 0f21 4889EF   		movq	%rbp, %rdi
 4412 0f24 E8000000 		call	_ZN8UnitTest11TestDetailsC1ERKS0_i@PLT
 4412      00
 4413 0f29 C7442418 		movl	$0, 24(%rsp)
 4413      00000000 
 4414 0f31 E8000000 		call	_ZN8UnitTest11CurrentTest7ResultsEv@PLT
 4414      00
 4415 0f36 488B38   		movq	(%rax), %rdi
 4416 0f39 488D5424 		leaq	8(%rsp), %rdx
 4416      08
 4417 0f3e 488D7424 		leaq	24(%rsp), %rsi
 4417      18
 4418 0f43 4889E9   		movq	%rbp, %rcx
 4419 0f46 E815F4FF 		call	_ZN8UnitTest10CheckEqualI9USBStatusS1_EEvRNS_11TestResultsERKT_RKT0_RKNS_11TestDetailsE.const
 4419      FF
 4420              	.LEHE153:
 4421              	.L302:
 4422              	.LEHB154:
 4423 0f4b E8000000 		call	_ZN8UnitTest11CurrentTest7DetailsEv@PLT
 4423      00
 4424 0f50 488B30   		movq	(%rax), %rsi
 4425 0f53 BA5E0000 		movl	$94, %edx
 4425      00
 4426 0f58 4889EF   		movq	%rbp, %rdi
 4427 0f5b E8000000 		call	_ZN8UnitTest11TestDetailsC1ERKS0_i@PLT
 4427      00
 4428 0f60 48C74424 		movq	$2, 24(%rsp)
 4428      18020000 
 4428      00
 4429 0f69 4C8B7424 		movq	16(%rsp), %r14
 4429      10
 4430 0f6e E8000000 		call	_ZN8UnitTest11CurrentTest7ResultsEv@PLT
 4430      00
 4431 0f73 488B38   		movq	(%rax), %rdi
 4432 0f76 488D7424 		leaq	24(%rsp), %rsi
 4432      18
 4433 0f7b 4889E9   		movq	%rbp, %rcx
 4434 0f7e 4C89F2   		movq	%r14, %rdx
 4435 0f81 E8000000 		call	_ZN8UnitTest10CheckEqualImjEEvRNS_11TestResultsERKT_RKT0_RKNS_11TestDetailsE
 4435      00
 4436              	.LEHE154:
 4437              	.L305:
 4438 0f86 488B4424 		movq	16(%rsp), %rax
 4438      10
 4439 0f8b 4C89E7   		movq	%r12, %rdi
 4440 0f8e C7000600 		movl	$6, (%rax)
 4440      0000
 4441              	.LEHB155:
 4442 0f94 E8000000 		call	queueCommitPut@PLT
 4442      00
 4443 0f99 4C89EE   		movq	%r13, %rsi
 4444 0f9c 4C89E7   		movq	%r12, %rdi
 4445 0f9f E8000000 		call	queuePut@PLT
 4445      00
 4446              	.LEHE155:
 4447 0fa4 89442408 		movl	%eax, 8(%rsp)
 4448              	.LEHB156:
 4449 0fa8 E8000000 		call	_ZN8UnitTest11CurrentTest7DetailsEv@PLT
 4449      00
 4450 0fad 488B30   		movq	(%rax), %rsi
 4451 0fb0 BA620000 		movl	$98, %edx
 4451      00
 4452 0fb5 4889EF   		movq	%rbp, %rdi
 4453 0fb8 E8000000 		call	_ZN8UnitTest11TestDetailsC1ERKS0_i@PLT
 4453      00
 4454 0fbd C7442418 		movl	$0, 24(%rsp)
 4454      00000000 
 4455 0fc5 E8000000 		call	_ZN8UnitTest11CurrentTest7ResultsEv@PLT
 4455      00
 4456 0fca 488B38   		movq	(%rax), %rdi
 4457 0fcd 488D5424 		leaq	8(%rsp), %rdx
 4457      08
 4458 0fd2 488D7424 		leaq	24(%rsp), %rsi
 4458      18
 4459 0fd7 4889E9   		movq	%rbp, %rcx
 4460 0fda E881F3FF 		call	_ZN8UnitTest10CheckEqualI9USBStatusS1_EEvRNS_11TestResultsERKT_RKT0_RKNS_11TestDetailsE.const
 4460      FF
 4461              	.LEHE156:
 4462              	.L308:
 4463              	.LEHB157:
 4464 0fdf E8000000 		call	_ZN8UnitTest11CurrentTest7DetailsEv@PLT
 4464      00
 4465 0fe4 488B30   		movq	(%rax), %rsi
 4466 0fe7 BA630000 		movl	$99, %edx
 4466      00
 4467 0fec 4889EF   		movq	%rbp, %rdi
 4468 0fef E8000000 		call	_ZN8UnitTest11TestDetailsC1ERKS0_i@PLT
 4468      00
 4469 0ff4 48C74424 		movq	$3, 24(%rsp)
 4469      18030000 
 4469      00
 4470 0ffd 4C8B6C24 		movq	16(%rsp), %r13
 4470      10
 4471 1002 E8000000 		call	_ZN8UnitTest11CurrentTest7ResultsEv@PLT
 4471      00
 4472 1007 488B38   		movq	(%rax), %rdi
 4473 100a 488D7424 		leaq	24(%rsp), %rsi
 4473      18
 4474 100f 4889E9   		movq	%rbp, %rcx
 4475 1012 4C89EA   		movq	%r13, %rdx
 4476 1015 E8000000 		call	_ZN8UnitTest10CheckEqualImjEEvRNS_11TestResultsERKT_RKT0_RKNS_11TestDetailsE
 4476      00
 4477              	.LEHE157:
 4478              	.L311:
 4479 101a 488B4424 		movq	16(%rsp), %rax
 4479      10
 4480 101f 4C89E7   		movq	%r12, %rdi
 4481 1022 C7000700 		movl	$7, (%rax)
 4481      0000
 4482              	.LEHB158:
 4483 1028 E8000000 		call	queueCommitPut@PLT
 4483      00
 4484              	.LEHE158:
 4485              	.LEHB159:
 4486 102d E8000000 		call	_ZN8UnitTest11CurrentTest7DetailsEv@PLT
 4486      00
 4487 1032 488B30   		movq	(%rax), %rsi
 4488 1035 BA680000 		movl	$104, %edx
 4488      00
 4489 103a 4889EF   		movq	%rbp, %rdi
 4490 103d E8000000 		call	_ZN8UnitTest11TestDetailsC1ERKS0_i@PLT
 4490      00
 4491 1042 48C74424 		movq	$4, 24(%rsp)
 4491      18040000 
 4491      00
 4492 104b E8000000 		call	_ZN8UnitTest11CurrentTest7ResultsEv@PLT
 4492      00
 4493 1050 488B38   		movq	(%rax), %rdi
 4494 1053 488D5424 		leaq	72(%rsp), %rdx
 4494      48
 4495 1058 488D7424 		leaq	24(%rsp), %rsi
 4495      18
 4496 105d 4889E9   		movq	%rbp, %rcx
 4497 1060 E8000000 		call	_ZN8UnitTest10CheckEqualImmEEvRNS_11TestResultsERKT_RKT0_RKNS_11TestDetailsE
 4497      00
 4498              	.LEHE159:
 4499              	.L314:
 4500              	.LEHB160:
 4501 1065 E8000000 		call	_ZN8UnitTest11CurrentTest7DetailsEv@PLT
 4501      00
 4502 106a 488B30   		movq	(%rax), %rsi
 4503 106d BA690000 		movl	$105, %edx
 4503      00
 4504 1072 4889EF   		movq	%rbp, %rdi
 4505 1075 E8000000 		call	_ZN8UnitTest11TestDetailsC1ERKS0_i@PLT
 4505      00
 4506 107a 48C74424 		movq	$3, 24(%rsp)
 4506      18030000 
 4506      00
 4507 1083 E8000000 		call	_ZN8UnitTest11CurrentTest7ResultsEv@PLT
 4507      00
 4508 1088 488B38   		movq	(%rax), %rdi
 4509 108b 488D5424 		leaq	80(%rsp), %rdx
 4509      50
 4510 1090 488D7424 		leaq	24(%rsp), %rsi
 4510      18
 4511 1095 4889E9   		movq	%rbp, %rcx
 4512 1098 E8000000 		call	_ZN8UnitTest10CheckEqualImmEEvRNS_11TestResultsERKT_RKT0_RKNS_11TestDetailsE
 4512      00
 4513              	.LEHE160:
 4514              	.L317:
 4515              	.LEHB161:
 4516 109d E8000000 		call	_ZN8UnitTest11CurrentTest7DetailsEv@PLT
 4516      00
 4517 10a2 488B30   		movq	(%rax), %rsi
 4518 10a5 BA6A0000 		movl	$106, %edx
 4518      00
 4519 10aa 4889EF   		movq	%rbp, %rdi
 4520 10ad E8000000 		call	_ZN8UnitTest11TestDetailsC1ERKS0_i@PLT
 4520      00
 4521 10b2 48C74424 		movq	$0, 24(%rsp)
 4521      18000000 
 4521      00
 4522 10bb E8000000 		call	_ZN8UnitTest11CurrentTest7ResultsEv@PLT
 4522      00
 4523 10c0 488B38   		movq	(%rax), %rdi
 4524 10c3 488D5424 		leaq	88(%rsp), %rdx
 4524      58
 4525 10c8 488D7424 		leaq	24(%rsp), %rsi
 4525      18
 4526 10cd 4889E9   		movq	%rbp, %rcx
 4527 10d0 E8000000 		call	_ZN8UnitTest10CheckEqualImmEEvRNS_11TestResultsERKT_RKT0_RKNS_11TestDetailsE
 4527      00
 4528              	.LEHE161:
 4529              	.L320:
 4530              	.LEHB162:
 4531 10d5 E8000000 		call	_ZN8UnitTest11CurrentTest7DetailsEv@PLT
 4531      00
 4532 10da 488B30   		movq	(%rax), %rsi
 4533 10dd BA6B0000 		movl	$107, %edx
 4533      00
 4534 10e2 4889EF   		movq	%rbp, %rdi
 4535 10e5 E8000000 		call	_ZN8UnitTest11TestDetailsC1ERKS0_i@PLT
 4535      00
 4536 10ea 48C74424 		movq	$3, 24(%rsp)
 4536      18030000 
 4536      00
 4537 10f3 E8000000 		call	_ZN8UnitTest11CurrentTest7ResultsEv@PLT
 4537      00
 4538 10f8 488B38   		movq	(%rax), %rdi
 4539 10fb 488D5424 		leaq	96(%rsp), %rdx
 4539      60
 4540 1100 488D7424 		leaq	24(%rsp), %rsi
 4540      18
 4541 1105 4889E9   		movq	%rbp, %rcx
 4542 1108 E8000000 		call	_ZN8UnitTest10CheckEqualImmEEvRNS_11TestResultsERKT_RKT0_RKNS_11TestDetailsE
 4542      00
 4543              	.LEHE162:
 4544              	.L323:
 4545              	.LEHB163:
 4546 110d E8000000 		call	_ZN8UnitTest11CurrentTest7DetailsEv@PLT
 4546      00
 4547 1112 488B30   		movq	(%rax), %rsi
 4548 1115 BA6E0000 		movl	$110, %edx
 4548      00
 4549 111a 4889EF   		movq	%rbp, %rdi
 4550 111d E8000000 		call	_ZN8UnitTest11TestDetailsC1ERKS0_i@PLT
 4550      00
 4551 1122 48C74424 		movq	$5, 24(%rsp)
 4551      18050000 
 4551      00
 4552 112b 488B4424 		movq	64(%rsp), %rax
 4552      40
 4553 1130 488B00   		movq	(%rax), %rax
 4554 1133 8B00     		movl	(%rax), %eax
 4555 1135 8944240C 		movl	%eax, 12(%rsp)
 4556 1139 E8000000 		call	_ZN8UnitTest11CurrentTest7ResultsEv@PLT
 4556      00
 4557 113e 488B38   		movq	(%rax), %rdi
 4558 1141 488D5424 		leaq	12(%rsp), %rdx
 4558      0C
 4559 1146 488D7424 		leaq	24(%rsp), %rsi
 4559      18
 4560 114b 4889E9   		movq	%rbp, %rcx
 4561 114e E8000000 		call	_ZN8UnitTest10CheckEqualImjEEvRNS_11TestResultsERKT_RKT0_RKNS_11TestDetailsE
 4561      00
 4562              	.LEHE163:
 4563              	.L326:
 4564              	.LEHB164:
 4565 1153 E8000000 		call	_ZN8UnitTest11CurrentTest7DetailsEv@PLT
 4565      00
 4566 1158 488B30   		movq	(%rax), %rsi
 4567 115b BA6F0000 		movl	$111, %edx
 4567      00
 4568 1160 4889EF   		movq	%rbp, %rdi
 4569 1163 E8000000 		call	_ZN8UnitTest11TestDetailsC1ERKS0_i@PLT
 4569      00
 4570 1168 48C74424 		movq	$6, 24(%rsp)
 4570      18060000 
 4570      00
 4571 1171 488B4424 		movq	64(%rsp), %rax
 4571      40
 4572 1176 488B4008 		movq	8(%rax), %rax
 4573 117a 8B00     		movl	(%rax), %eax
 4574 117c 8944240C 		movl	%eax, 12(%rsp)
 4575 1180 E8000000 		call	_ZN8UnitTest11CurrentTest7ResultsEv@PLT
 4575      00
 4576 1185 488B38   		movq	(%rax), %rdi
 4577 1188 488D5424 		leaq	12(%rsp), %rdx
 4577      0C
 4578 118d 488D7424 		leaq	24(%rsp), %rsi
 4578      18
 4579 1192 4889E9   		movq	%rbp, %rcx
 4580 1195 E8000000 		call	_ZN8UnitTest10CheckEqualImjEEvRNS_11TestResultsERKT_RKT0_RKNS_11TestDetailsE
 4580      00
 4581              	.LEHE164:
 4582              	.L329:
 4583              	.LEHB165:
 4584 119a E8000000 		call	_ZN8UnitTest11CurrentTest7DetailsEv@PLT
 4584      00
 4585 119f 488B30   		movq	(%rax), %rsi
 4586 11a2 BA700000 		movl	$112, %edx
 4586      00
 4587 11a7 4889EF   		movq	%rbp, %rdi
 4588 11aa E8000000 		call	_ZN8UnitTest11TestDetailsC1ERKS0_i@PLT
 4588      00
 4589 11af 48C74424 		movq	$7, 24(%rsp)
 4589      18070000 
 4589      00
 4590 11b8 488B4424 		movq	64(%rsp), %rax
 4590      40
 4591 11bd 488B4010 		movq	16(%rax), %rax
 4592 11c1 8B00     		movl	(%rax), %eax
 4593 11c3 8944240C 		movl	%eax, 12(%rsp)
 4594 11c7 E8000000 		call	_ZN8UnitTest11CurrentTest7ResultsEv@PLT
 4594      00
 4595 11cc 488B38   		movq	(%rax), %rdi
 4596 11cf 488D5424 		leaq	12(%rsp), %rdx
 4596      0C
 4597 11d4 488D7424 		leaq	24(%rsp), %rsi
 4597      18
 4598 11d9 4889E9   		movq	%rbp, %rcx
 4599 11dc E8000000 		call	_ZN8UnitTest10CheckEqualImjEEvRNS_11TestResultsERKT_RKT0_RKNS_11TestDetailsE
 4599      00
 4600              	.LEHE165:
 4601              	.L332:
 4602              	.LEHB166:
 4603 11e1 E8000000 		call	_ZN8UnitTest11CurrentTest7DetailsEv@PLT
 4603      00
 4604 11e6 488B30   		movq	(%rax), %rsi
 4605 11e9 BA710000 		movl	$113, %edx
 4605      00
 4606 11ee 4889EF   		movq	%rbp, %rdi
 4607 11f1 E8000000 		call	_ZN8UnitTest11TestDetailsC1ERKS0_i@PLT
 4607      00
 4608 11f6 48C74424 		movq	$4, 24(%rsp)
 4608      18040000 
 4608      00
 4609 11ff 488B4424 		movq	64(%rsp), %rax
 4609      40
 4610 1204 488B4018 		movq	24(%rax), %rax
 4611 1208 8B00     		movl	(%rax), %eax
 4612 120a 8944240C 		movl	%eax, 12(%rsp)
 4613 120e E8000000 		call	_ZN8UnitTest11CurrentTest7ResultsEv@PLT
 4613      00
 4614 1213 488B38   		movq	(%rax), %rdi
 4615 1216 488D5424 		leaq	12(%rsp), %rdx
 4615      0C
 4616 121b 488D7424 		leaq	24(%rsp), %rsi
 4616      18
 4617 1220 4889E9   		movq	%rbp, %rcx
 4618 1223 E8000000 		call	_ZN8UnitTest10CheckEqualImjEEvRNS_11TestResultsERKT_RKT0_RKNS_11TestDetailsE
 4618      00
 4619              	.LEHE166:
 4620              	.L335:
 4621 1228 4C89E7   		movq	%r12, %rdi
 4622              	.LEHB167:
 4623 122b E8000000 		call	queueDestroy@PLT
 4623      00
 4624              	.LEHE167:
 4625 1230 488B4424 		movq	120(%rsp), %rax
 4625      78
 4626 1235 64482B04 		subq	%fs:40, %rax
 4626      25280000 
 4626      00
 4627 123e 750F     		jne	.L370
 4628 1240 4881C488 		addq	$136, %rsp
 4628      000000
 4629              		.cfi_remember_state
 4630              		.cfi_def_cfa_offset 40
 4631 1247 5D       		popq	%rbp
 4632              		.cfi_def_cfa_offset 32
 4633 1248 415C     		popq	%r12
 4634              		.cfi_def_cfa_offset 24
 4635 124a 415D     		popq	%r13
 4636              		.cfi_def_cfa_offset 16
 4637 124c 415E     		popq	%r14
 4638              		.cfi_def_cfa_offset 8
 4639 124e C3       		ret
 4640              	.L370:
 4641              		.cfi_restore_state
 4642 124f E8000000 		call	__stack_chk_fail@PLT
 4642      00
 4643              	.L366:
 4644 1254 F30F1EFA 		endbr64
 4645 1258 4889C7   		movq	%rax, %rdi
 4646 125b E9000000 		jmp	.L334
 4646      00
 4647              	.L364:
 4648 1260 F30F1EFA 		endbr64
 4649 1264 4889C7   		movq	%rax, %rdi
 4650 1267 E9000000 		jmp	.L331
 4650      00
 4651              	.L362:
 4652 126c F30F1EFA 		endbr64
 4653 1270 4889C7   		movq	%rax, %rdi
 4654 1273 E9000000 		jmp	.L328
 4654      00
 4655              	.L360:
 4656 1278 F30F1EFA 		endbr64
 4657 127c 4889C7   		movq	%rax, %rdi
 4658 127f E9000000 		jmp	.L325
 4658      00
 4659              	.L358:
 4660 1284 F30F1EFA 		endbr64
 4661 1288 4889C7   		movq	%rax, %rdi
 4662 128b E9000000 		jmp	.L322
 4662      00
 4663              	.L356:
 4664 1290 F30F1EFA 		endbr64
 4665 1294 4889C7   		movq	%rax, %rdi
 4666 1297 E9000000 		jmp	.L319
 4666      00
 4667              	.L354:
 4668 129c F30F1EFA 		endbr64
 4669 12a0 4889C7   		movq	%rax, %rdi
 4670 12a3 E9000000 		jmp	.L316
 4670      00
 4671              	.L352:
 4672 12a8 F30F1EFA 		endbr64
 4673 12ac 4889C7   		movq	%rax, %rdi
 4674 12af E9000000 		jmp	.L313
 4674      00
 4675              	.L350:
 4676 12b4 F30F1EFA 		endbr64
 4677 12b8 4889C7   		movq	%rax, %rdi
 4678 12bb E9000000 		jmp	.L310
 4678      00
 4679              	.L348:
 4680 12c0 F30F1EFA 		endbr64
 4681 12c4 4889C7   		movq	%rax, %rdi
 4682 12c7 E9000000 		jmp	.L307
 4682      00
 4683              	.L346:
 4684 12cc F30F1EFA 		endbr64
 4685 12d0 4889C7   		movq	%rax, %rdi
 4686 12d3 E9000000 		jmp	.L304
 4686      00
 4687              	.L344:
 4688 12d8 F30F1EFA 		endbr64
 4689 12dc 4889C7   		movq	%rax, %rdi
 4690 12df E9000000 		jmp	.L301
 4690      00
 4691              	.L342:
 4692 12e4 F30F1EFA 		endbr64
 4693 12e8 4889C7   		movq	%rax, %rdi
 4694 12eb E9000000 		jmp	.L298
 4694      00
 4695              	.L340:
 4696 12f0 F30F1EFA 		endbr64
 4697 12f4 4889C7   		movq	%rax, %rdi
 4698 12f7 E9000000 		jmp	.L295
 4698      00
 4699              	.L338:
 4700 12fc F30F1EFA 		endbr64
 4701 1300 4889C7   		movq	%rax, %rdi
 4702 1303 E9000000 		jmp	.L292
 4702      00
 4703              		.section	.gcc_except_table
 4704              		.align 4
 4705              	.LLSDA1250:
 4706 0320 FF       		.byte	0xff
 4707 0321 9B       		.byte	0x9b
 4708 0322 8001     		.uleb128 .LLSDATT1250-.LLSDATTD1250
 4709              	.LLSDATTD1250:
 4710 0324 01       		.byte	0x1
 4711 0325 76       		.uleb128 .LLSDACSE1250-.LLSDACSB1250
 4712              	.LLSDACSB1250:
 4713 0326 47       		.uleb128 .LEHB147-.LFB1250
 4714 0327 05       		.uleb128 .LEHE147-.LEHB147
 4715 0328 00       		.uleb128 0
 4716 0329 00       		.uleb128 0
 4717 032a 50       		.uleb128 .LEHB148-.LFB1250
 4718 032b 3C       		.uleb128 .LEHE148-.LEHB148
 4719 032c 9C0A     		.uleb128 .L338-.LFB1250
 4720 032e 01       		.uleb128 0x1
 4721 032f 9701     		.uleb128 .LEHB149-.LFB1250
 4722 0331 05       		.uleb128 .LEHE149-.LEHB149
 4723 0332 00       		.uleb128 0
 4724 0333 00       		.uleb128 0
 4725 0334 A001     		.uleb128 .LEHB150-.LFB1250
 4726 0336 37       		.uleb128 .LEHE150-.LEHB150
 4727 0337 900A     		.uleb128 .L340-.LFB1250
 4728 0339 01       		.uleb128 0x1
 4729 033a D701     		.uleb128 .LEHB151-.LFB1250
 4730 033c 3B       		.uleb128 .LEHE151-.LEHB151
 4731 033d 840A     		.uleb128 .L342-.LFB1250
 4732 033f 01       		.uleb128 0x1
 4733 0340 A002     		.uleb128 .LEHB152-.LFB1250
 4734 0342 10       		.uleb128 .LEHE152-.LEHB152
 4735 0343 00       		.uleb128 0
 4736 0344 00       		.uleb128 0
 4737 0345 B402     		.uleb128 .LEHB153-.LFB1250
 4738 0347 37       		.uleb128 .LEHE153-.LEHB153
 4739 0348 F809     		.uleb128 .L344-.LFB1250
 4740 034a 01       		.uleb128 0x1
 4741 034b EB02     		.uleb128 .LEHB154-.LFB1250
 4742 034d 3B       		.uleb128 .LEHE154-.LEHB154
 4743 034e EC09     		.uleb128 .L346-.LFB1250
 4744 0350 01       		.uleb128 0x1
 4745 0351 B403     		.uleb128 .LEHB155-.LFB1250
 4746 0353 10       		.uleb128 .LEHE155-.LEHB155
 4747 0354 00       		.uleb128 0
 4748 0355 00       		.uleb128 0
 4749 0356 C803     		.uleb128 .LEHB156-.LFB1250
 4750 0358 37       		.uleb128 .LEHE156-.LEHB156
 4751 0359 E009     		.uleb128 .L348-.LFB1250
 4752 035b 01       		.uleb128 0x1
 4753 035c FF03     		.uleb128 .LEHB157-.LFB1250
 4754 035e 3B       		.uleb128 .LEHE157-.LEHB157
 4755 035f D409     		.uleb128 .L350-.LFB1250
 4756 0361 01       		.uleb128 0x1
 4757 0362 C804     		.uleb128 .LEHB158-.LFB1250
 4758 0364 05       		.uleb128 .LEHE158-.LEHB158
 4759 0365 00       		.uleb128 0
 4760 0366 00       		.uleb128 0
 4761 0367 CD04     		.uleb128 .LEHB159-.LFB1250
 4762 0369 38       		.uleb128 .LEHE159-.LEHB159
 4763 036a C809     		.uleb128 .L352-.LFB1250
 4764 036c 01       		.uleb128 0x1
 4765 036d 8505     		.uleb128 .LEHB160-.LFB1250
 4766 036f 38       		.uleb128 .LEHE160-.LEHB160
 4767 0370 BC09     		.uleb128 .L354-.LFB1250
 4768 0372 01       		.uleb128 0x1
 4769 0373 BD05     		.uleb128 .LEHB161-.LFB1250
 4770 0375 38       		.uleb128 .LEHE161-.LEHB161
 4771 0376 B009     		.uleb128 .L356-.LFB1250
 4772 0378 01       		.uleb128 0x1
 4773 0379 F505     		.uleb128 .LEHB162-.LFB1250
 4774 037b 38       		.uleb128 .LEHE162-.LEHB162
 4775 037c A409     		.uleb128 .L358-.LFB1250
 4776 037e 01       		.uleb128 0x1
 4777 037f AD06     		.uleb128 .LEHB163-.LFB1250
 4778 0381 46       		.uleb128 .LEHE163-.LEHB163
 4779 0382 9809     		.uleb128 .L360-.LFB1250
 4780 0384 01       		.uleb128 0x1
 4781 0385 F306     		.uleb128 .LEHB164-.LFB1250
 4782 0387 47       		.uleb128 .LEHE164-.LEHB164
 4783 0388 8C09     		.uleb128 .L362-.LFB1250
 4784 038a 01       		.uleb128 0x1
 4785 038b BA07     		.uleb128 .LEHB165-.LFB1250
 4786 038d 47       		.uleb128 .LEHE165-.LEHB165
 4787 038e 8009     		.uleb128 .L364-.LFB1250
 4788 0390 01       		.uleb128 0x1
 4789 0391 8108     		.uleb128 .LEHB166-.LFB1250
 4790 0393 47       		.uleb128 .LEHE166-.LEHB166
 4791 0394 F408     		.uleb128 .L366-.LFB1250
 4792 0396 01       		.uleb128 0x1
 4793 0397 CB08     		.uleb128 .LEHB167-.LFB1250
 4794 0399 05       		.uleb128 .LEHE167-.LEHB167
 4795 039a 00       		.uleb128 0
 4796 039b 00       		.uleb128 0
 4797              	.LLSDACSE1250:
 4798 039c 01       		.byte	0x1
 4799 039d 00       		.byte	0
 4800 039e 0000     		.align 4
 4801 03a0 00000000 		.long	0
 4802              	
 4803              	.LLSDATT1250:
 4804              		.text
 4805              		.cfi_endproc
 4806              		.section	.text.unlikely
 4807              		.cfi_startproc
 4808              		.cfi_personality 0x9b,DW.ref.__gxx_personality_v0
 4809              		.cfi_lsda 0x1b,.LLSDAC1250
 4811              	_ZNK23TestQueue_testPutNoWrap7RunImplEv.cold:
 4812              	.LFSB1250:
 4813              	.L334:
 4814              		.cfi_def_cfa_offset 176
 4815              		.cfi_offset 6, -40
 4816              		.cfi_offset 12, -32
 4817              		.cfi_offset 13, -24
 4818              		.cfi_offset 14, -16
 4819 077a E8000000 		call	__cxa_begin_catch@PLT
 4819      00
 4820              	.LEHB168:
 4821 077f E8000000 		call	_ZN8UnitTest11CurrentTest7ResultsEv@PLT
 4821      00
 4822 0784 4C8B28   		movq	(%rax), %r13
 4823 0787 E8000000 		call	_ZN8UnitTest11CurrentTest7DetailsEv@PLT
 4823      00
 4824 078c 488B30   		movq	(%rax), %rsi
 4825 078f BA710000 		movl	$113, %edx
 4825      00
 4826 0794 4889EF   		movq	%rbp, %rdi
 4827 0797 E8000000 		call	_ZN8UnitTest11TestDetailsC1ERKS0_i@PLT
 4827      00
 4828 079c 488D1500 		leaq	.LC19(%rip), %rdx
 4828      000000
 4829 07a3 4889EE   		movq	%rbp, %rsi
 4830 07a6 4C89EF   		movq	%r13, %rdi
 4831 07a9 E8000000 		call	_ZN8UnitTest11TestResults13OnTestFailureERKNS_11TestDetailsEPKc@PLT
 4831      00
 4832              	.LEHE168:
 4833              	.LEHB169:
 4834 07ae E8000000 		call	__cxa_end_catch@PLT
 4834      00
 4835              	.LEHE169:
 4836 07b3 E9000000 		jmp	.L335
 4836      00
 4837              	.L331:
 4838 07b8 E8000000 		call	__cxa_begin_catch@PLT
 4838      00
 4839              	.LEHB170:
 4840 07bd E8000000 		call	_ZN8UnitTest11CurrentTest7ResultsEv@PLT
 4840      00
 4841 07c2 4C8B28   		movq	(%rax), %r13
 4842 07c5 E8000000 		call	_ZN8UnitTest11CurrentTest7DetailsEv@PLT
 4842      00
 4843 07ca 488B30   		movq	(%rax), %rsi
 4844 07cd BA700000 		movl	$112, %edx
 4844      00
 4845 07d2 4889EF   		movq	%rbp, %rdi
 4846 07d5 E8000000 		call	_ZN8UnitTest11TestDetailsC1ERKS0_i@PLT
 4846      00
 4847 07da 488D1500 		leaq	.LC28(%rip), %rdx
 4847      000000
 4848 07e1 4889EE   		movq	%rbp, %rsi
 4849 07e4 4C89EF   		movq	%r13, %rdi
 4850 07e7 E8000000 		call	_ZN8UnitTest11TestResults13OnTestFailureERKNS_11TestDetailsEPKc@PLT
 4850      00
 4851              	.LEHE170:
 4852              	.LEHB171:
 4853 07ec E8000000 		call	__cxa_end_catch@PLT
 4853      00
 4854              	.LEHE171:
 4855 07f1 E9000000 		jmp	.L332
 4855      00
 4856              	.L328:
 4857 07f6 E8000000 		call	__cxa_begin_catch@PLT
 4857      00
 4858              	.LEHB172:
 4859 07fb E8000000 		call	_ZN8UnitTest11CurrentTest7ResultsEv@PLT
 4859      00
 4860 0800 4C8B28   		movq	(%rax), %r13
 4861 0803 E8000000 		call	_ZN8UnitTest11CurrentTest7DetailsEv@PLT
 4861      00
 4862 0808 488B30   		movq	(%rax), %rsi
 4863 080b BA6F0000 		movl	$111, %edx
 4863      00
 4864 0810 4889EF   		movq	%rbp, %rdi
 4865 0813 E8000000 		call	_ZN8UnitTest11TestDetailsC1ERKS0_i@PLT
 4865      00
 4866 0818 488D1500 		leaq	.LC27(%rip), %rdx
 4866      000000
 4867 081f 4889EE   		movq	%rbp, %rsi
 4868 0822 4C89EF   		movq	%r13, %rdi
 4869 0825 E8000000 		call	_ZN8UnitTest11TestResults13OnTestFailureERKNS_11TestDetailsEPKc@PLT
 4869      00
 4870              	.LEHE172:
 4871              	.LEHB173:
 4872 082a E8000000 		call	__cxa_end_catch@PLT
 4872      00
 4873              	.LEHE173:
 4874 082f E9000000 		jmp	.L329
 4874      00
 4875              	.L367:
 4876 0834 F30F1EFA 		endbr64
 4877 0838 4889C5   		movq	%rax, %rbp
 4878 083b E8000000 		call	__cxa_end_catch@PLT
 4878      00
 4879 0840 4889EF   		movq	%rbp, %rdi
 4880              	.LEHB174:
 4881 0843 E8000000 		call	_Unwind_Resume@PLT
 4881      00
 4882              	.LEHE174:
 4883              	.L365:
 4884 0848 F30F1EFA 		endbr64
 4885 084c 4889C5   		movq	%rax, %rbp
 4886 084f E8000000 		call	__cxa_end_catch@PLT
 4886      00
 4887 0854 4889EF   		movq	%rbp, %rdi
 4888              	.LEHB175:
 4889 0857 E8000000 		call	_Unwind_Resume@PLT
 4889      00
 4890              	.LEHE175:
 4891              	.L363:
 4892 085c F30F1EFA 		endbr64
 4893 0860 4889C5   		movq	%rax, %rbp
 4894 0863 E8000000 		call	__cxa_end_catch@PLT
 4894      00
 4895 0868 4889EF   		movq	%rbp, %rdi
 4896              	.LEHB176:
 4897 086b E8000000 		call	_Unwind_Resume@PLT
 4897      00
 4898              	.LEHE176:
 4899              	.L325:
 4900 0870 E8000000 		call	__cxa_begin_catch@PLT
 4900      00
 4901              	.LEHB177:
 4902 0875 E8000000 		call	_ZN8UnitTest11CurrentTest7ResultsEv@PLT
 4902      00
 4903 087a 4C8B28   		movq	(%rax), %r13
 4904 087d E8000000 		call	_ZN8UnitTest11CurrentTest7DetailsEv@PLT
 4904      00
 4905 0882 488B30   		movq	(%rax), %rsi
 4906 0885 BA6E0000 		movl	$110, %edx
 4906      00
 4907 088a 4889EF   		movq	%rbp, %rdi
 4908 088d E8000000 		call	_ZN8UnitTest11TestDetailsC1ERKS0_i@PLT
 4908      00
 4909 0892 488D1500 		leaq	.LC26(%rip), %rdx
 4909      000000
 4910 0899 4889EE   		movq	%rbp, %rsi
 4911 089c 4C89EF   		movq	%r13, %rdi
 4912 089f E8000000 		call	_ZN8UnitTest11TestResults13OnTestFailureERKNS_11TestDetailsEPKc@PLT
 4912      00
 4913              	.LEHE177:
 4914              	.LEHB178:
 4915 08a4 E8000000 		call	__cxa_end_catch@PLT
 4915      00
 4916              	.LEHE178:
 4917 08a9 E9000000 		jmp	.L326
 4917      00
 4918              	.L322:
 4919 08ae E8000000 		call	__cxa_begin_catch@PLT
 4919      00
 4920              	.LEHB179:
 4921 08b3 E8000000 		call	_ZN8UnitTest11CurrentTest7ResultsEv@PLT
 4921      00
 4922 08b8 4C8B28   		movq	(%rax), %r13
 4923 08bb E8000000 		call	_ZN8UnitTest11CurrentTest7DetailsEv@PLT
 4923      00
 4924 08c0 488B30   		movq	(%rax), %rsi
 4925 08c3 BA6B0000 		movl	$107, %edx
 4925      00
 4926 08c8 4889EF   		movq	%rbp, %rdi
 4927 08cb E8000000 		call	_ZN8UnitTest11TestDetailsC1ERKS0_i@PLT
 4927      00
 4928 08d0 488D1500 		leaq	.LC25(%rip), %rdx
 4928      000000
 4929 08d7 4889EE   		movq	%rbp, %rsi
 4930 08da 4C89EF   		movq	%r13, %rdi
 4931 08dd E8000000 		call	_ZN8UnitTest11TestResults13OnTestFailureERKNS_11TestDetailsEPKc@PLT
 4931      00
 4932              	.LEHE179:
 4933              	.LEHB180:
 4934 08e2 E8000000 		call	__cxa_end_catch@PLT
 4934      00
 4935              	.LEHE180:
 4936 08e7 E9000000 		jmp	.L323
 4936      00
 4937              	.L361:
 4938 08ec F30F1EFA 		endbr64
 4939 08f0 4889C5   		movq	%rax, %rbp
 4940 08f3 E8000000 		call	__cxa_end_catch@PLT
 4940      00
 4941 08f8 4889EF   		movq	%rbp, %rdi
 4942              	.LEHB181:
 4943 08fb E8000000 		call	_Unwind_Resume@PLT
 4943      00
 4944              	.LEHE181:
 4945              	.L359:
 4946 0900 F30F1EFA 		endbr64
 4947 0904 4889C5   		movq	%rax, %rbp
 4948 0907 E8000000 		call	__cxa_end_catch@PLT
 4948      00
 4949 090c 4889EF   		movq	%rbp, %rdi
 4950              	.LEHB182:
 4951 090f E8000000 		call	_Unwind_Resume@PLT
 4951      00
 4952              	.LEHE182:
 4953              	.L319:
 4954 0914 E8000000 		call	__cxa_begin_catch@PLT
 4954      00
 4955              	.LEHB183:
 4956 0919 E8000000 		call	_ZN8UnitTest11CurrentTest7ResultsEv@PLT
 4956      00
 4957 091e 4C8B28   		movq	(%rax), %r13
 4958 0921 E8000000 		call	_ZN8UnitTest11CurrentTest7DetailsEv@PLT
 4958      00
 4959 0926 488B30   		movq	(%rax), %rsi
 4960 0929 BA6A0000 		movl	$106, %edx
 4960      00
 4961 092e 4889EF   		movq	%rbp, %rdi
 4962 0931 E8000000 		call	_ZN8UnitTest11TestDetailsC1ERKS0_i@PLT
 4962      00
 4963 0936 488D1500 		leaq	.LC14(%rip), %rdx
 4963      000000
 4964 093d 4889EE   		movq	%rbp, %rsi
 4965 0940 4C89EF   		movq	%r13, %rdi
 4966 0943 E8000000 		call	_ZN8UnitTest11TestResults13OnTestFailureERKNS_11TestDetailsEPKc@PLT
 4966      00
 4967              	.LEHE183:
 4968              	.LEHB184:
 4969 0948 E8000000 		call	__cxa_end_catch@PLT
 4969      00
 4970              	.LEHE184:
 4971 094d E9000000 		jmp	.L320
 4971      00
 4972              	.L316:
 4973 0952 E8000000 		call	__cxa_begin_catch@PLT
 4973      00
 4974              	.LEHB185:
 4975 0957 E8000000 		call	_ZN8UnitTest11CurrentTest7ResultsEv@PLT
 4975      00
 4976 095c 4C8B28   		movq	(%rax), %r13
 4977 095f E8000000 		call	_ZN8UnitTest11CurrentTest7DetailsEv@PLT
 4977      00
 4978 0964 488B30   		movq	(%rax), %rsi
 4979 0967 BA690000 		movl	$105, %edx
 4979      00
 4980 096c 4889EF   		movq	%rbp, %rdi
 4981 096f E8000000 		call	_ZN8UnitTest11TestDetailsC1ERKS0_i@PLT
 4981      00
 4982 0974 488D1500 		leaq	.LC24(%rip), %rdx
 4982      000000
 4983 097b 4889EE   		movq	%rbp, %rsi
 4984 097e 4C89EF   		movq	%r13, %rdi
 4985 0981 E8000000 		call	_ZN8UnitTest11TestResults13OnTestFailureERKNS_11TestDetailsEPKc@PLT
 4985      00
 4986              	.LEHE185:
 4987              	.LEHB186:
 4988 0986 E8000000 		call	__cxa_end_catch@PLT
 4988      00
 4989              	.LEHE186:
 4990 098b E9000000 		jmp	.L317
 4990      00
 4991              	.L357:
 4992 0990 F30F1EFA 		endbr64
 4993 0994 4889C5   		movq	%rax, %rbp
 4994 0997 E8000000 		call	__cxa_end_catch@PLT
 4994      00
 4995 099c 4889EF   		movq	%rbp, %rdi
 4996              	.LEHB187:
 4997 099f E8000000 		call	_Unwind_Resume@PLT
 4997      00
 4998              	.LEHE187:
 4999              	.L355:
 5000 09a4 F30F1EFA 		endbr64
 5001 09a8 4889C5   		movq	%rax, %rbp
 5002 09ab E8000000 		call	__cxa_end_catch@PLT
 5002      00
 5003 09b0 4889EF   		movq	%rbp, %rdi
 5004              	.LEHB188:
 5005 09b3 E8000000 		call	_Unwind_Resume@PLT
 5005      00
 5006              	.LEHE188:
 5007              	.L313:
 5008 09b8 E8000000 		call	__cxa_begin_catch@PLT
 5008      00
 5009              	.LEHB189:
 5010 09bd E8000000 		call	_ZN8UnitTest11CurrentTest7ResultsEv@PLT
 5010      00
 5011 09c2 4C8B28   		movq	(%rax), %r13
 5012 09c5 E8000000 		call	_ZN8UnitTest11CurrentTest7DetailsEv@PLT
 5012      00
 5013 09ca 488B30   		movq	(%rax), %rsi
 5014 09cd BA680000 		movl	$104, %edx
 5014      00
 5015 09d2 4889EF   		movq	%rbp, %rdi
 5016 09d5 E8000000 		call	_ZN8UnitTest11TestDetailsC1ERKS0_i@PLT
 5016      00
 5017 09da 488D1500 		leaq	.LC12(%rip), %rdx
 5017      000000
 5018 09e1 4889EE   		movq	%rbp, %rsi
 5019 09e4 4C89EF   		movq	%r13, %rdi
 5020 09e7 E8000000 		call	_ZN8UnitTest11TestResults13OnTestFailureERKNS_11TestDetailsEPKc@PLT
 5020      00
 5021              	.LEHE189:
 5022              	.LEHB190:
 5023 09ec E8000000 		call	__cxa_end_catch@PLT
 5023      00
 5024              	.LEHE190:
 5025 09f1 E9000000 		jmp	.L314
 5025      00
 5026              	.L310:
 5027 09f6 E8000000 		call	__cxa_begin_catch@PLT
 5027      00
 5028              	.LEHB191:
 5029 09fb E8000000 		call	_ZN8UnitTest11CurrentTest7ResultsEv@PLT
 5029      00
 5030 0a00 4C8B28   		movq	(%rax), %r13
 5031 0a03 E8000000 		call	_ZN8UnitTest11CurrentTest7DetailsEv@PLT
 5031      00
 5032 0a08 488B30   		movq	(%rax), %rsi
 5033 0a0b BA630000 		movl	$99, %edx
 5033      00
 5034 0a10 4889EF   		movq	%rbp, %rdi
 5035 0a13 E8000000 		call	_ZN8UnitTest11TestDetailsC1ERKS0_i@PLT
 5035      00
 5036 0a18 488D1500 		leaq	.LC23(%rip), %rdx
 5036      000000
 5037 0a1f 4889EE   		movq	%rbp, %rsi
 5038 0a22 4C89EF   		movq	%r13, %rdi
 5039 0a25 E8000000 		call	_ZN8UnitTest11TestResults13OnTestFailureERKNS_11TestDetailsEPKc@PLT
 5039      00
 5040              	.LEHE191:
 5041              	.LEHB192:
 5042 0a2a E8000000 		call	__cxa_end_catch@PLT
 5042      00
 5043              	.LEHE192:
 5044 0a2f E9000000 		jmp	.L311
 5044      00
 5045              	.L353:
 5046 0a34 F30F1EFA 		endbr64
 5047 0a38 4889C5   		movq	%rax, %rbp
 5048 0a3b E8000000 		call	__cxa_end_catch@PLT
 5048      00
 5049 0a40 4889EF   		movq	%rbp, %rdi
 5050              	.LEHB193:
 5051 0a43 E8000000 		call	_Unwind_Resume@PLT
 5051      00
 5052              	.LEHE193:
 5053              	.L351:
 5054 0a48 F30F1EFA 		endbr64
 5055 0a4c 4889C5   		movq	%rax, %rbp
 5056 0a4f E8000000 		call	__cxa_end_catch@PLT
 5056      00
 5057 0a54 4889EF   		movq	%rbp, %rdi
 5058              	.LEHB194:
 5059 0a57 E8000000 		call	_Unwind_Resume@PLT
 5059      00
 5060              	.LEHE194:
 5061              	.L307:
 5062 0a5c E8000000 		call	__cxa_begin_catch@PLT
 5062      00
 5063              	.LEHB195:
 5064 0a61 E8000000 		call	_ZN8UnitTest11CurrentTest7ResultsEv@PLT
 5064      00
 5065 0a66 4C8B28   		movq	(%rax), %r13
 5066 0a69 E8000000 		call	_ZN8UnitTest11CurrentTest7DetailsEv@PLT
 5066      00
 5067 0a6e 488B30   		movq	(%rax), %rsi
 5068 0a71 BA620000 		movl	$98, %edx
 5068      00
 5069 0a76 4889EF   		movq	%rbp, %rdi
 5070 0a79 E8000000 		call	_ZN8UnitTest11TestDetailsC1ERKS0_i@PLT
 5070      00
 5071 0a7e 488D1500 		leaq	.LC10(%rip), %rdx
 5071      000000
 5072 0a85 4889EE   		movq	%rbp, %rsi
 5073 0a88 4C89EF   		movq	%r13, %rdi
 5074 0a8b E8000000 		call	_ZN8UnitTest11TestResults13OnTestFailureERKNS_11TestDetailsEPKc@PLT
 5074      00
 5075              	.LEHE195:
 5076              	.LEHB196:
 5077 0a90 E8000000 		call	__cxa_end_catch@PLT
 5077      00
 5078              	.LEHE196:
 5079 0a95 E9000000 		jmp	.L308
 5079      00
 5080              	.L304:
 5081 0a9a E8000000 		call	__cxa_begin_catch@PLT
 5081      00
 5082              	.LEHB197:
 5083 0a9f E8000000 		call	_ZN8UnitTest11CurrentTest7ResultsEv@PLT
 5083      00
 5084 0aa4 4C8B30   		movq	(%rax), %r14
 5085 0aa7 E8000000 		call	_ZN8UnitTest11CurrentTest7DetailsEv@PLT
 5085      00
 5086 0aac 488B30   		movq	(%rax), %rsi
 5087 0aaf BA5E0000 		movl	$94, %edx
 5087      00
 5088 0ab4 4889EF   		movq	%rbp, %rdi
 5089 0ab7 E8000000 		call	_ZN8UnitTest11TestDetailsC1ERKS0_i@PLT
 5089      00
 5090 0abc 488D1500 		leaq	.LC22(%rip), %rdx
 5090      000000
 5091 0ac3 4889EE   		movq	%rbp, %rsi
 5092 0ac6 4C89F7   		movq	%r14, %rdi
 5093 0ac9 E8000000 		call	_ZN8UnitTest11TestResults13OnTestFailureERKNS_11TestDetailsEPKc@PLT
 5093      00
 5094              	.LEHE197:
 5095              	.LEHB198:
 5096 0ace E8000000 		call	__cxa_end_catch@PLT
 5096      00
 5097              	.LEHE198:
 5098 0ad3 E9000000 		jmp	.L305
 5098      00
 5099              	.L349:
 5100 0ad8 F30F1EFA 		endbr64
 5101 0adc 4889C5   		movq	%rax, %rbp
 5102 0adf E8000000 		call	__cxa_end_catch@PLT
 5102      00
 5103 0ae4 4889EF   		movq	%rbp, %rdi
 5104              	.LEHB199:
 5105 0ae7 E8000000 		call	_Unwind_Resume@PLT
 5105      00
 5106              	.LEHE199:
 5107              	.L347:
 5108 0aec F30F1EFA 		endbr64
 5109 0af0 4889C5   		movq	%rax, %rbp
 5110 0af3 E8000000 		call	__cxa_end_catch@PLT
 5110      00
 5111 0af8 4889EF   		movq	%rbp, %rdi
 5112              	.LEHB200:
 5113 0afb E8000000 		call	_Unwind_Resume@PLT
 5113      00
 5114              	.LEHE200:
 5115              	.L301:
 5116 0b00 E8000000 		call	__cxa_begin_catch@PLT
 5116      00
 5117              	.LEHB201:
 5118 0b05 E8000000 		call	_ZN8UnitTest11CurrentTest7ResultsEv@PLT
 5118      00
 5119 0b0a 4C8B30   		movq	(%rax), %r14
 5120 0b0d E8000000 		call	_ZN8UnitTest11CurrentTest7DetailsEv@PLT
 5120      00
 5121 0b12 488B30   		movq	(%rax), %rsi
 5122 0b15 BA5D0000 		movl	$93, %edx
 5122      00
 5123 0b1a 4889EF   		movq	%rbp, %rdi
 5124 0b1d E8000000 		call	_ZN8UnitTest11TestDetailsC1ERKS0_i@PLT
 5124      00
 5125 0b22 488D1500 		leaq	.LC10(%rip), %rdx
 5125      000000
 5126 0b29 4889EE   		movq	%rbp, %rsi
 5127 0b2c 4C89F7   		movq	%r14, %rdi
 5128 0b2f E8000000 		call	_ZN8UnitTest11TestResults13OnTestFailureERKNS_11TestDetailsEPKc@PLT
 5128      00
 5129              	.LEHE201:
 5130              	.LEHB202:
 5131 0b34 E8000000 		call	__cxa_end_catch@PLT
 5131      00
 5132              	.LEHE202:
 5133 0b39 E9000000 		jmp	.L302
 5133      00
 5134              	.L298:
 5135 0b3e E8000000 		call	__cxa_begin_catch@PLT
 5135      00
 5136              	.LEHB203:
 5137 0b43 E8000000 		call	_ZN8UnitTest11CurrentTest7ResultsEv@PLT
 5137      00
 5138 0b48 4C8B30   		movq	(%rax), %r14
 5139 0b4b E8000000 		call	_ZN8UnitTest11CurrentTest7DetailsEv@PLT
 5139      00
 5140 0b50 488B30   		movq	(%rax), %rsi
 5141 0b53 BA590000 		movl	$89, %edx
 5141      00
 5142 0b58 4889EF   		movq	%rbp, %rdi
 5143 0b5b E8000000 		call	_ZN8UnitTest11TestDetailsC1ERKS0_i@PLT
 5143      00
 5144 0b60 488D1500 		leaq	.LC21(%rip), %rdx
 5144      000000
 5145 0b67 4889EE   		movq	%rbp, %rsi
 5146 0b6a 4C89F7   		movq	%r14, %rdi
 5147 0b6d E8000000 		call	_ZN8UnitTest11TestResults13OnTestFailureERKNS_11TestDetailsEPKc@PLT
 5147      00
 5148              	.LEHE203:
 5149              	.LEHB204:
 5150 0b72 E8000000 		call	__cxa_end_catch@PLT
 5150      00
 5151              	.LEHE204:
 5152 0b77 E9000000 		jmp	.L299
 5152      00
 5153              	.L345:
 5154 0b7c F30F1EFA 		endbr64
 5155 0b80 4889C5   		movq	%rax, %rbp
 5156 0b83 E8000000 		call	__cxa_end_catch@PLT
 5156      00
 5157 0b88 4889EF   		movq	%rbp, %rdi
 5158              	.LEHB205:
 5159 0b8b E8000000 		call	_Unwind_Resume@PLT
 5159      00
 5160              	.LEHE205:
 5161              	.L343:
 5162 0b90 F30F1EFA 		endbr64
 5163 0b94 4889C5   		movq	%rax, %rbp
 5164 0b97 E8000000 		call	__cxa_end_catch@PLT
 5164      00
 5165 0b9c 4889EF   		movq	%rbp, %rdi
 5166              	.LEHB206:
 5167 0b9f E8000000 		call	_Unwind_Resume@PLT
 5167      00
 5168              	.LEHE206:
 5169              	.L295:
 5170 0ba4 E8000000 		call	__cxa_begin_catch@PLT
 5170      00
 5171              	.LEHB207:
 5172 0ba9 E8000000 		call	_ZN8UnitTest11CurrentTest7ResultsEv@PLT
 5172      00
 5173 0bae 4C8B30   		movq	(%rax), %r14
 5174 0bb1 E8000000 		call	_ZN8UnitTest11CurrentTest7DetailsEv@PLT
 5174      00
 5175 0bb6 488B30   		movq	(%rax), %rsi
 5176 0bb9 BA580000 		movl	$88, %edx
 5176      00
 5177 0bbe 4889EF   		movq	%rbp, %rdi
 5178 0bc1 E8000000 		call	_ZN8UnitTest11TestDetailsC1ERKS0_i@PLT
 5178      00
 5179 0bc6 488D1500 		leaq	.LC10(%rip), %rdx
 5179      000000
 5180 0bcd 4889EE   		movq	%rbp, %rsi
 5181 0bd0 4C89F7   		movq	%r14, %rdi
 5182 0bd3 E8000000 		call	_ZN8UnitTest11TestResults13OnTestFailureERKNS_11TestDetailsEPKc@PLT
 5182      00
 5183              	.LEHE207:
 5184              	.LEHB208:
 5185 0bd8 E8000000 		call	__cxa_end_catch@PLT
 5185      00
 5186              	.LEHE208:
 5187 0bdd E9000000 		jmp	.L296
 5187      00
 5188              	.L292:
 5189 0be2 E8000000 		call	__cxa_begin_catch@PLT
 5189      00
 5190              	.LEHB209:
 5191 0be7 E8000000 		call	_ZN8UnitTest11CurrentTest7ResultsEv@PLT
 5191      00
 5192 0bec 4C8B28   		movq	(%rax), %r13
 5193 0bef E8000000 		call	_ZN8UnitTest11CurrentTest7DetailsEv@PLT
 5193      00
 5194 0bf4 488D6C24 		leaq	32(%rsp), %rbp
 5194      20
 5195 0bf9 488B30   		movq	(%rax), %rsi
 5196 0bfc BA540000 		movl	$84, %edx
 5196      00
 5197 0c01 4889EF   		movq	%rbp, %rdi
 5198 0c04 E8000000 		call	_ZN8UnitTest11TestDetailsC1ERKS0_i@PLT
 5198      00
 5199 0c09 488D1500 		leaq	.LC10(%rip), %rdx
 5199      000000
 5200 0c10 4889EE   		movq	%rbp, %rsi
 5201 0c13 4C89EF   		movq	%r13, %rdi
 5202 0c16 E8000000 		call	_ZN8UnitTest11TestResults13OnTestFailureERKNS_11TestDetailsEPKc@PLT
 5202      00
 5203              	.LEHE209:
 5204              	.LEHB210:
 5205 0c1b E8000000 		call	__cxa_end_catch@PLT
 5205      00
 5206              	.LEHE210:
 5207 0c20 E9000000 		jmp	.L293
 5207      00
 5208              	.L341:
 5209 0c25 F30F1EFA 		endbr64
 5210 0c29 4889C5   		movq	%rax, %rbp
 5211 0c2c E8000000 		call	__cxa_end_catch@PLT
 5211      00
 5212 0c31 4889EF   		movq	%rbp, %rdi
 5213              	.LEHB211:
 5214 0c34 E8000000 		call	_Unwind_Resume@PLT
 5214      00
 5215              	.LEHE211:
 5216              	.L339:
 5217 0c39 F30F1EFA 		endbr64
 5218 0c3d 4889C5   		movq	%rax, %rbp
 5219 0c40 E8000000 		call	__cxa_end_catch@PLT
 5219      00
 5220 0c45 4889EF   		movq	%rbp, %rdi
 5221              	.LEHB212:
 5222 0c48 E8000000 		call	_Unwind_Resume@PLT
 5222      00
 5223              	.LEHE212:
 5224              		.cfi_endproc
 5225              	.LFE1250:
 5226              		.section	.gcc_except_table
 5227              		.align 4
 5228              	.LLSDAC1250:
 5229 03a4 FF       		.byte	0xff
 5230 03a5 9B       		.byte	0x9b
 5231 03a6 F801     		.uleb128 .LLSDATTC1250-.LLSDATTDC1250
 5232              	.LLSDATTDC1250:
 5233 03a8 01       		.byte	0x1
 5234 03a9 EC01     		.uleb128 .LLSDACSEC1250-.LLSDACSBC1250
 5235              	.LLSDACSBC1250:
 5236 03ab 05       		.uleb128 .LEHB168-.LCOLDB29
 5237 03ac 2F       		.uleb128 .LEHE168-.LEHB168
 5238 03ad BA01     		.uleb128 .L367-.LCOLDB29
 5239 03af 00       		.uleb128 0
 5240 03b0 34       		.uleb128 .LEHB169-.LCOLDB29
 5241 03b1 05       		.uleb128 .LEHE169-.LEHB169
 5242 03b2 00       		.uleb128 0
 5243 03b3 00       		.uleb128 0
 5244 03b4 43       		.uleb128 .LEHB170-.LCOLDB29
 5245 03b5 2F       		.uleb128 .LEHE170-.LEHB170
 5246 03b6 CE01     		.uleb128 .L365-.LCOLDB29
 5247 03b8 00       		.uleb128 0
 5248 03b9 72       		.uleb128 .LEHB171-.LCOLDB29
 5249 03ba 05       		.uleb128 .LEHE171-.LEHB171
 5250 03bb 00       		.uleb128 0
 5251 03bc 00       		.uleb128 0
 5252 03bd 8101     		.uleb128 .LEHB172-.LCOLDB29
 5253 03bf 2F       		.uleb128 .LEHE172-.LEHB172
 5254 03c0 E201     		.uleb128 .L363-.LCOLDB29
 5255 03c2 00       		.uleb128 0
 5256 03c3 B001     		.uleb128 .LEHB173-.LCOLDB29
 5257 03c5 05       		.uleb128 .LEHE173-.LEHB173
 5258 03c6 00       		.uleb128 0
 5259 03c7 00       		.uleb128 0
 5260 03c8 C901     		.uleb128 .LEHB174-.LCOLDB29
 5261 03ca 05       		.uleb128 .LEHE174-.LEHB174
 5262 03cb 00       		.uleb128 0
 5263 03cc 00       		.uleb128 0
 5264 03cd DD01     		.uleb128 .LEHB175-.LCOLDB29
 5265 03cf 05       		.uleb128 .LEHE175-.LEHB175
 5266 03d0 00       		.uleb128 0
 5267 03d1 00       		.uleb128 0
 5268 03d2 F101     		.uleb128 .LEHB176-.LCOLDB29
 5269 03d4 05       		.uleb128 .LEHE176-.LEHB176
 5270 03d5 00       		.uleb128 0
 5271 03d6 00       		.uleb128 0
 5272 03d7 FB01     		.uleb128 .LEHB177-.LCOLDB29
 5273 03d9 2F       		.uleb128 .LEHE177-.LEHB177
 5274 03da F202     		.uleb128 .L361-.LCOLDB29
 5275 03dc 00       		.uleb128 0
 5276 03dd AA02     		.uleb128 .LEHB178-.LCOLDB29
 5277 03df 05       		.uleb128 .LEHE178-.LEHB178
 5278 03e0 00       		.uleb128 0
 5279 03e1 00       		.uleb128 0
 5280 03e2 B902     		.uleb128 .LEHB179-.LCOLDB29
 5281 03e4 2F       		.uleb128 .LEHE179-.LEHB179
 5282 03e5 8603     		.uleb128 .L359-.LCOLDB29
 5283 03e7 00       		.uleb128 0
 5284 03e8 E802     		.uleb128 .LEHB180-.LCOLDB29
 5285 03ea 05       		.uleb128 .LEHE180-.LEHB180
 5286 03eb 00       		.uleb128 0
 5287 03ec 00       		.uleb128 0
 5288 03ed 8103     		.uleb128 .LEHB181-.LCOLDB29
 5289 03ef 05       		.uleb128 .LEHE181-.LEHB181
 5290 03f0 00       		.uleb128 0
 5291 03f1 00       		.uleb128 0
 5292 03f2 9503     		.uleb128 .LEHB182-.LCOLDB29
 5293 03f4 05       		.uleb128 .LEHE182-.LEHB182
 5294 03f5 00       		.uleb128 0
 5295 03f6 00       		.uleb128 0
 5296 03f7 9F03     		.uleb128 .LEHB183-.LCOLDB29
 5297 03f9 2F       		.uleb128 .LEHE183-.LEHB183
 5298 03fa 9604     		.uleb128 .L357-.LCOLDB29
 5299 03fc 00       		.uleb128 0
 5300 03fd CE03     		.uleb128 .LEHB184-.LCOLDB29
 5301 03ff 05       		.uleb128 .LEHE184-.LEHB184
 5302 0400 00       		.uleb128 0
 5303 0401 00       		.uleb128 0
 5304 0402 DD03     		.uleb128 .LEHB185-.LCOLDB29
 5305 0404 2F       		.uleb128 .LEHE185-.LEHB185
 5306 0405 AA04     		.uleb128 .L355-.LCOLDB29
 5307 0407 00       		.uleb128 0
 5308 0408 8C04     		.uleb128 .LEHB186-.LCOLDB29
 5309 040a 05       		.uleb128 .LEHE186-.LEHB186
 5310 040b 00       		.uleb128 0
 5311 040c 00       		.uleb128 0
 5312 040d A504     		.uleb128 .LEHB187-.LCOLDB29
 5313 040f 05       		.uleb128 .LEHE187-.LEHB187
 5314 0410 00       		.uleb128 0
 5315 0411 00       		.uleb128 0
 5316 0412 B904     		.uleb128 .LEHB188-.LCOLDB29
 5317 0414 05       		.uleb128 .LEHE188-.LEHB188
 5318 0415 00       		.uleb128 0
 5319 0416 00       		.uleb128 0
 5320 0417 C304     		.uleb128 .LEHB189-.LCOLDB29
 5321 0419 2F       		.uleb128 .LEHE189-.LEHB189
 5322 041a BA05     		.uleb128 .L353-.LCOLDB29
 5323 041c 00       		.uleb128 0
 5324 041d F204     		.uleb128 .LEHB190-.LCOLDB29
 5325 041f 05       		.uleb128 .LEHE190-.LEHB190
 5326 0420 00       		.uleb128 0
 5327 0421 00       		.uleb128 0
 5328 0422 8105     		.uleb128 .LEHB191-.LCOLDB29
 5329 0424 2F       		.uleb128 .LEHE191-.LEHB191
 5330 0425 CE05     		.uleb128 .L351-.LCOLDB29
 5331 0427 00       		.uleb128 0
 5332 0428 B005     		.uleb128 .LEHB192-.LCOLDB29
 5333 042a 05       		.uleb128 .LEHE192-.LEHB192
 5334 042b 00       		.uleb128 0
 5335 042c 00       		.uleb128 0
 5336 042d C905     		.uleb128 .LEHB193-.LCOLDB29
 5337 042f 05       		.uleb128 .LEHE193-.LEHB193
 5338 0430 00       		.uleb128 0
 5339 0431 00       		.uleb128 0
