   1              		.file	"testSvf2Csvf.cpp"
   2              		.text
   3              		.section	.text._ZN27TestFPGALink_testBuildIndexD2Ev,"axG",@progbits,_ZN27TestFPGALink_testBuildInd
   4              		.align 2
   5              		.p2align 4
   6              		.weak	_ZN27TestFPGALink_testBuildIndexD2Ev
   8              	_ZN27TestFPGALink_testBuildIndexD2Ev:
   9              	.LFB1362:
  10              		.cfi_startproc
  11 0000 F30F1EFA 		endbr64
  12 0004 488D0500 		leaq	16+_ZTV27TestFPGALink_testBuildIndex(%rip), %rax
  12      000000
  13 000b 488907   		movq	%rax, (%rdi)
  14 000e E9000000 		jmp	_ZN8UnitTest4TestD2Ev@PLT
  14      00
  15              		.cfi_endproc
  16              	.LFE1362:
  18              		.weak	_ZN27TestFPGALink_testBuildIndexD1Ev
  19              		.set	_ZN27TestFPGALink_testBuildIndexD1Ev,_ZN27TestFPGALink_testBuildIndexD2Ev
  20              		.section	.text._ZN27TestFPGALink_testBuildIndexD0Ev,"axG",@progbits,_ZN27TestFPGALink_testBuildInd
  21              		.align 2
  22              		.p2align 4
  23              		.weak	_ZN27TestFPGALink_testBuildIndexD0Ev
  25              	_ZN27TestFPGALink_testBuildIndexD0Ev:
  26              	.LFB1364:
  27              		.cfi_startproc
  28              		.cfi_personality 0x9b,DW.ref.__gxx_personality_v0
  29              		.cfi_lsda 0x1b,.LLSDA1364
  30 0000 F30F1EFA 		endbr64
  31 0004 4154     		pushq	%r12
  32              		.cfi_def_cfa_offset 16
  33              		.cfi_offset 12, -16
  34 0006 488D0500 		leaq	16+_ZTV27TestFPGALink_testBuildIndex(%rip), %rax
  34      000000
  35 000d 55       		pushq	%rbp
  36              		.cfi_def_cfa_offset 24
  37              		.cfi_offset 6, -24
  38 000e 4889FD   		movq	%rdi, %rbp
  39 0011 4883EC08 		subq	$8, %rsp
  40              		.cfi_def_cfa_offset 32
  41 0015 488907   		movq	%rax, (%rdi)
  42              	.LEHB0:
  43 0018 E8000000 		call	_ZN8UnitTest4TestD2Ev@PLT
  43      00
  44              	.LEHE0:
  45 001d 4883C408 		addq	$8, %rsp
  46              		.cfi_remember_state
  47              		.cfi_def_cfa_offset 24
  48 0021 4889EF   		movq	%rbp, %rdi
  49 0024 5D       		popq	%rbp
  50              		.cfi_def_cfa_offset 16
  51 0025 415C     		popq	%r12
  52              		.cfi_def_cfa_offset 8
  53 0027 E9000000 		jmp	_ZdlPv@PLT
  53      00
  54              	.L5:
  55              		.cfi_restore_state
  56 002c F30F1EFA 		endbr64
  57 0030 4989C4   		movq	%rax, %r12
  58              	.L4:
  59 0033 4889EF   		movq	%rbp, %rdi
  60 0036 E8000000 		call	_ZdlPv@PLT
  60      00
  61 003b 4C89E7   		movq	%r12, %rdi
  62              	.LEHB1:
  63 003e E8000000 		call	_Unwind_Resume@PLT
  63      00
  64              	.LEHE1:
  65              		.cfi_endproc
  66              	.LFE1364:
  67              		.globl	__gxx_personality_v0
  68              		.section	.gcc_except_table._ZN27TestFPGALink_testBuildIndexD0Ev,"aG",@progbits,_ZN27TestFPGALink_t
  69              	.LLSDA1364:
  70 0000 FF       		.byte	0xff
  71 0001 FF       		.byte	0xff
  72 0002 01       		.byte	0x1
  73 0003 08       		.uleb128 .LLSDACSE1364-.LLSDACSB1364
  74              	.LLSDACSB1364:
  75 0004 18       		.uleb128 .LEHB0-.LFB1364
  76 0005 05       		.uleb128 .LEHE0-.LEHB0
  77 0006 2C       		.uleb128 .L5-.LFB1364
  78 0007 00       		.uleb128 0
  79 0008 3E       		.uleb128 .LEHB1-.LFB1364
  80 0009 05       		.uleb128 .LEHE1-.LEHB1
  81 000a 00       		.uleb128 0
  82 000b 00       		.uleb128 0
  83              	.LLSDACSE1364:
  84              		.section	.text._ZN27TestFPGALink_testBuildIndexD0Ev,"axG",@progbits,_ZN27TestFPGALink_testBuildInd
  86              		.section	.text._ZN29TestFPGALink_testProcessIndexD2Ev,"axG",@progbits,_ZN29TestFPGALink_testProces
  87              		.align 2
  88              		.p2align 4
  89              		.weak	_ZN29TestFPGALink_testProcessIndexD2Ev
  91              	_ZN29TestFPGALink_testProcessIndexD2Ev:
  92              	.LFB1366:
  93              		.cfi_startproc
  94 0000 F30F1EFA 		endbr64
  95 0004 488D0500 		leaq	16+_ZTV29TestFPGALink_testProcessIndex(%rip), %rax
  95      000000
  96 000b 488907   		movq	%rax, (%rdi)
  97 000e E9000000 		jmp	_ZN8UnitTest4TestD2Ev@PLT
  97      00
  98              		.cfi_endproc
  99              	.LFE1366:
 101              		.weak	_ZN29TestFPGALink_testProcessIndexD1Ev
 102              		.set	_ZN29TestFPGALink_testProcessIndexD1Ev,_ZN29TestFPGALink_testProcessIndexD2Ev
 103              		.section	.text._ZN29TestFPGALink_testProcessIndexD0Ev,"axG",@progbits,_ZN29TestFPGALink_testProces
 104              		.align 2
 105              		.p2align 4
 106              		.weak	_ZN29TestFPGALink_testProcessIndexD0Ev
 108              	_ZN29TestFPGALink_testProcessIndexD0Ev:
 109              	.LFB1368:
 110              		.cfi_startproc
 111              		.cfi_personality 0x9b,DW.ref.__gxx_personality_v0
 112              		.cfi_lsda 0x1b,.LLSDA1368
 113 0000 F30F1EFA 		endbr64
 114 0004 4154     		pushq	%r12
 115              		.cfi_def_cfa_offset 16
 116              		.cfi_offset 12, -16
 117 0006 488D0500 		leaq	16+_ZTV29TestFPGALink_testProcessIndex(%rip), %rax
 117      000000
 118 000d 55       		pushq	%rbp
 119              		.cfi_def_cfa_offset 24
 120              		.cfi_offset 6, -24
 121 000e 4889FD   		movq	%rdi, %rbp
 122 0011 4883EC08 		subq	$8, %rsp
 123              		.cfi_def_cfa_offset 32
 124 0015 488907   		movq	%rax, (%rdi)
 125              	.LEHB2:
 126 0018 E8000000 		call	_ZN8UnitTest4TestD2Ev@PLT
 126      00
 127              	.LEHE2:
 128 001d 4883C408 		addq	$8, %rsp
 129              		.cfi_remember_state
 130              		.cfi_def_cfa_offset 24
 131 0021 4889EF   		movq	%rbp, %rdi
 132 0024 5D       		popq	%rbp
 133              		.cfi_def_cfa_offset 16
 134 0025 415C     		popq	%r12
 135              		.cfi_def_cfa_offset 8
 136 0027 E9000000 		jmp	_ZdlPv@PLT
 136      00
 137              	.L10:
 138              		.cfi_restore_state
 139 002c F30F1EFA 		endbr64
 140 0030 4989C4   		movq	%rax, %r12
 141              	.L9:
 142 0033 4889EF   		movq	%rbp, %rdi
 143 0036 E8000000 		call	_ZdlPv@PLT
 143      00
 144 003b 4C89E7   		movq	%r12, %rdi
 145              	.LEHB3:
 146 003e E8000000 		call	_Unwind_Resume@PLT
 146      00
 147              	.LEHE3:
 148              		.cfi_endproc
 149              	.LFE1368:
 150              		.section	.gcc_except_table._ZN29TestFPGALink_testProcessIndexD0Ev,"aG",@progbits,_ZN29TestFPGALink
 151              	.LLSDA1368:
 152 0000 FF       		.byte	0xff
 153 0001 FF       		.byte	0xff
 154 0002 01       		.byte	0x1
 155 0003 08       		.uleb128 .LLSDACSE1368-.LLSDACSB1368
 156              	.LLSDACSB1368:
 157 0004 18       		.uleb128 .LEHB2-.LFB1368
 158 0005 05       		.uleb128 .LEHE2-.LEHB2
 159 0006 2C       		.uleb128 .L10-.LFB1368
 160 0007 00       		.uleb128 0
 161 0008 3E       		.uleb128 .LEHB3-.LFB1368
 162 0009 05       		.uleb128 .LEHE3-.LEHB3
 163 000a 00       		.uleb128 0
 164 000b 00       		.uleb128 0
 165              	.LLSDACSE1368:
 166              		.section	.text._ZN29TestFPGALink_testProcessIndexD0Ev,"axG",@progbits,_ZN29TestFPGALink_testProces
 168              		.section	.text._ZN22TestFPGALink_testParseD2Ev,"axG",@progbits,_ZN22TestFPGALink_testParseD5Ev,com
 169              		.align 2
 170              		.p2align 4
 171              		.weak	_ZN22TestFPGALink_testParseD2Ev
 173              	_ZN22TestFPGALink_testParseD2Ev:
 174              	.LFB1370:
 175              		.cfi_startproc
 176 0000 F30F1EFA 		endbr64
 177 0004 488D0500 		leaq	16+_ZTV22TestFPGALink_testParse(%rip), %rax
 177      000000
 178 000b 488907   		movq	%rax, (%rdi)
 179 000e E9000000 		jmp	_ZN8UnitTest4TestD2Ev@PLT
 179      00
 180              		.cfi_endproc
 181              	.LFE1370:
 183              		.weak	_ZN22TestFPGALink_testParseD1Ev
 184              		.set	_ZN22TestFPGALink_testParseD1Ev,_ZN22TestFPGALink_testParseD2Ev
 185              		.section	.text._ZN22TestFPGALink_testParseD0Ev,"axG",@progbits,_ZN22TestFPGALink_testParseD5Ev,com
 186              		.align 2
 187              		.p2align 4
 188              		.weak	_ZN22TestFPGALink_testParseD0Ev
 190              	_ZN22TestFPGALink_testParseD0Ev:
 191              	.LFB1372:
 192              		.cfi_startproc
 193              		.cfi_personality 0x9b,DW.ref.__gxx_personality_v0
 194              		.cfi_lsda 0x1b,.LLSDA1372
 195 0000 F30F1EFA 		endbr64
 196 0004 4154     		pushq	%r12
 197              		.cfi_def_cfa_offset 16
 198              		.cfi_offset 12, -16
 199 0006 488D0500 		leaq	16+_ZTV22TestFPGALink_testParse(%rip), %rax
 199      000000
 200 000d 55       		pushq	%rbp
 201              		.cfi_def_cfa_offset 24
 202              		.cfi_offset 6, -24
 203 000e 4889FD   		movq	%rdi, %rbp
 204 0011 4883EC08 		subq	$8, %rsp
 205              		.cfi_def_cfa_offset 32
 206 0015 488907   		movq	%rax, (%rdi)
 207              	.LEHB4:
 208 0018 E8000000 		call	_ZN8UnitTest4TestD2Ev@PLT
 208      00
 209              	.LEHE4:
 210 001d 4883C408 		addq	$8, %rsp
 211              		.cfi_remember_state
 212              		.cfi_def_cfa_offset 24
 213 0021 4889EF   		movq	%rbp, %rdi
 214 0024 5D       		popq	%rbp
 215              		.cfi_def_cfa_offset 16
 216 0025 415C     		popq	%r12
 217              		.cfi_def_cfa_offset 8
 218 0027 E9000000 		jmp	_ZdlPv@PLT
 218      00
 219              	.L15:
 220              		.cfi_restore_state
 221 002c F30F1EFA 		endbr64
 222 0030 4989C4   		movq	%rax, %r12
 223              	.L14:
 224 0033 4889EF   		movq	%rbp, %rdi
 225 0036 E8000000 		call	_ZdlPv@PLT
 225      00
 226 003b 4C89E7   		movq	%r12, %rdi
 227              	.LEHB5:
 228 003e E8000000 		call	_Unwind_Resume@PLT
 228      00
 229              	.LEHE5:
 230              		.cfi_endproc
 231              	.LFE1372:
 232              		.section	.gcc_except_table._ZN22TestFPGALink_testParseD0Ev,"aG",@progbits,_ZN22TestFPGALink_testPa
 233              	.LLSDA1372:
 234 0000 FF       		.byte	0xff
 235 0001 FF       		.byte	0xff
 236 0002 01       		.byte	0x1
 237 0003 08       		.uleb128 .LLSDACSE1372-.LLSDACSB1372
 238              	.LLSDACSB1372:
 239 0004 18       		.uleb128 .LEHB4-.LFB1372
 240 0005 05       		.uleb128 .LEHE4-.LEHB4
 241 0006 2C       		.uleb128 .L15-.LFB1372
 242 0007 00       		.uleb128 0
 243 0008 3E       		.uleb128 .LEHB5-.LFB1372
 244 0009 05       		.uleb128 .LEHE5-.LEHB5
 245 000a 00       		.uleb128 0
 246 000b 00       		.uleb128 0
 247              	.LLSDACSE1372:
 248              		.section	.text._ZN22TestFPGALink_testParseD0Ev,"axG",@progbits,_ZN22TestFPGALink_testParseD5Ev,com
 250              		.section	.text._ZN22TestFPGALink_testShiftD2Ev,"axG",@progbits,_ZN22TestFPGALink_testShiftD5Ev,com
 251              		.align 2
 252              		.p2align 4
 253              		.weak	_ZN22TestFPGALink_testShiftD2Ev
 255              	_ZN22TestFPGALink_testShiftD2Ev:
 256              	.LFB1374:
 257              		.cfi_startproc
 258 0000 F30F1EFA 		endbr64
 259 0004 488D0500 		leaq	16+_ZTV22TestFPGALink_testShift(%rip), %rax
 259      000000
 260 000b 488907   		movq	%rax, (%rdi)
 261 000e E9000000 		jmp	_ZN8UnitTest4TestD2Ev@PLT
 261      00
 262              		.cfi_endproc
 263              	.LFE1374:
 265              		.weak	_ZN22TestFPGALink_testShiftD1Ev
 266              		.set	_ZN22TestFPGALink_testShiftD1Ev,_ZN22TestFPGALink_testShiftD2Ev
 267              		.section	.text._ZN22TestFPGALink_testShiftD0Ev,"axG",@progbits,_ZN22TestFPGALink_testShiftD5Ev,com
 268              		.align 2
 269              		.p2align 4
 270              		.weak	_ZN22TestFPGALink_testShiftD0Ev
 272              	_ZN22TestFPGALink_testShiftD0Ev:
 273              	.LFB1376:
 274              		.cfi_startproc
 275              		.cfi_personality 0x9b,DW.ref.__gxx_personality_v0
 276              		.cfi_lsda 0x1b,.LLSDA1376
 277 0000 F30F1EFA 		endbr64
 278 0004 4154     		pushq	%r12
 279              		.cfi_def_cfa_offset 16
 280              		.cfi_offset 12, -16
 281 0006 488D0500 		leaq	16+_ZTV22TestFPGALink_testShift(%rip), %rax
 281      000000
 282 000d 55       		pushq	%rbp
 283              		.cfi_def_cfa_offset 24
 284              		.cfi_offset 6, -24
 285 000e 4889FD   		movq	%rdi, %rbp
 286 0011 4883EC08 		subq	$8, %rsp
 287              		.cfi_def_cfa_offset 32
 288 0015 488907   		movq	%rax, (%rdi)
 289              	.LEHB6:
 290 0018 E8000000 		call	_ZN8UnitTest4TestD2Ev@PLT
 290      00
 291              	.LEHE6:
 292 001d 4883C408 		addq	$8, %rsp
 293              		.cfi_remember_state
 294              		.cfi_def_cfa_offset 24
 295 0021 4889EF   		movq	%rbp, %rdi
 296 0024 5D       		popq	%rbp
 297              		.cfi_def_cfa_offset 16
 298 0025 415C     		popq	%r12
 299              		.cfi_def_cfa_offset 8
 300 0027 E9000000 		jmp	_ZdlPv@PLT
 300      00
 301              	.L20:
 302              		.cfi_restore_state
 303 002c F30F1EFA 		endbr64
 304 0030 4989C4   		movq	%rax, %r12
 305              	.L19:
 306 0033 4889EF   		movq	%rbp, %rdi
 307 0036 E8000000 		call	_ZdlPv@PLT
 307      00
 308 003b 4C89E7   		movq	%r12, %rdi
 309              	.LEHB7:
 310 003e E8000000 		call	_Unwind_Resume@PLT
 310      00
 311              	.LEHE7:
 312              		.cfi_endproc
 313              	.LFE1376:
 314              		.section	.gcc_except_table._ZN22TestFPGALink_testShiftD0Ev,"aG",@progbits,_ZN22TestFPGALink_testSh
 315              	.LLSDA1376:
 316 0000 FF       		.byte	0xff
 317 0001 FF       		.byte	0xff
 318 0002 01       		.byte	0x1
 319 0003 08       		.uleb128 .LLSDACSE1376-.LLSDACSB1376
 320              	.LLSDACSB1376:
 321 0004 18       		.uleb128 .LEHB6-.LFB1376
 322 0005 05       		.uleb128 .LEHE6-.LEHB6
 323 0006 2C       		.uleb128 .L20-.LFB1376
 324 0007 00       		.uleb128 0
 325 0008 3E       		.uleb128 .LEHB7-.LFB1376
 326 0009 05       		.uleb128 .LEHE7-.LEHB7
 327 000a 00       		.uleb128 0
 328 000b 00       		.uleb128 0
 329              	.LLSDACSE1376:
 330              		.section	.text._ZN22TestFPGALink_testShiftD0Ev,"axG",@progbits,_ZN22TestFPGALink_testShiftD5Ev,com
 332              		.section	.text._ZN26TestFPGALink_testReadBytesD2Ev,"axG",@progbits,_ZN26TestFPGALink_testReadBytes
 333              		.align 2
 334              		.p2align 4
 335              		.weak	_ZN26TestFPGALink_testReadBytesD2Ev
 337              	_ZN26TestFPGALink_testReadBytesD2Ev:
 338              	.LFB1378:
 339              		.cfi_startproc
 340 0000 F30F1EFA 		endbr64
 341 0004 488D0500 		leaq	16+_ZTV26TestFPGALink_testReadBytes(%rip), %rax
 341      000000
 342 000b 488907   		movq	%rax, (%rdi)
 343 000e E9000000 		jmp	_ZN8UnitTest4TestD2Ev@PLT
 343      00
 344              		.cfi_endproc
 345              	.LFE1378:
 347              		.weak	_ZN26TestFPGALink_testReadBytesD1Ev
 348              		.set	_ZN26TestFPGALink_testReadBytesD1Ev,_ZN26TestFPGALink_testReadBytesD2Ev
 349              		.section	.text._ZN26TestFPGALink_testReadBytesD0Ev,"axG",@progbits,_ZN26TestFPGALink_testReadBytes
 350              		.align 2
 351              		.p2align 4
 352              		.weak	_ZN26TestFPGALink_testReadBytesD0Ev
 354              	_ZN26TestFPGALink_testReadBytesD0Ev:
 355              	.LFB1380:
 356              		.cfi_startproc
 357              		.cfi_personality 0x9b,DW.ref.__gxx_personality_v0
 358              		.cfi_lsda 0x1b,.LLSDA1380
 359 0000 F30F1EFA 		endbr64
 360 0004 4154     		pushq	%r12
 361              		.cfi_def_cfa_offset 16
 362              		.cfi_offset 12, -16
 363 0006 488D0500 		leaq	16+_ZTV26TestFPGALink_testReadBytes(%rip), %rax
 363      000000
 364 000d 55       		pushq	%rbp
 365              		.cfi_def_cfa_offset 24
 366              		.cfi_offset 6, -24
 367 000e 4889FD   		movq	%rdi, %rbp
 368 0011 4883EC08 		subq	$8, %rsp
 369              		.cfi_def_cfa_offset 32
 370 0015 488907   		movq	%rax, (%rdi)
 371              	.LEHB8:
 372 0018 E8000000 		call	_ZN8UnitTest4TestD2Ev@PLT
 372      00
 373              	.LEHE8:
 374 001d 4883C408 		addq	$8, %rsp
 375              		.cfi_remember_state
 376              		.cfi_def_cfa_offset 24
 377 0021 4889EF   		movq	%rbp, %rdi
 378 0024 5D       		popq	%rbp
 379              		.cfi_def_cfa_offset 16
 380 0025 415C     		popq	%r12
 381              		.cfi_def_cfa_offset 8
 382 0027 E9000000 		jmp	_ZdlPv@PLT
 382      00
 383              	.L25:
 384              		.cfi_restore_state
 385 002c F30F1EFA 		endbr64
 386 0030 4989C4   		movq	%rax, %r12
 387              	.L24:
 388 0033 4889EF   		movq	%rbp, %rdi
 389 0036 E8000000 		call	_ZdlPv@PLT
 389      00
 390 003b 4C89E7   		movq	%r12, %rdi
 391              	.LEHB9:
 392 003e E8000000 		call	_Unwind_Resume@PLT
 392      00
 393              	.LEHE9:
 394              		.cfi_endproc
 395              	.LFE1380:
 396              		.section	.gcc_except_table._ZN26TestFPGALink_testReadBytesD0Ev,"aG",@progbits,_ZN26TestFPGALink_te
 397              	.LLSDA1380:
 398 0000 FF       		.byte	0xff
 399 0001 FF       		.byte	0xff
 400 0002 01       		.byte	0x1
 401 0003 08       		.uleb128 .LLSDACSE1380-.LLSDACSB1380
 402              	.LLSDACSB1380:
 403 0004 18       		.uleb128 .LEHB8-.LFB1380
 404 0005 05       		.uleb128 .LEHE8-.LEHB8
 405 0006 2C       		.uleb128 .L25-.LFB1380
 406 0007 00       		.uleb128 0
 407 0008 3E       		.uleb128 .LEHB9-.LFB1380
 408 0009 05       		.uleb128 .LEHE9-.LEHB9
 409 000a 00       		.uleb128 0
 410 000b 00       		.uleb128 0
 411              	.LLSDACSE1380:
 412              		.section	.text._ZN26TestFPGALink_testReadBytesD0Ev,"axG",@progbits,_ZN26TestFPGALink_testReadBytes
 414              		.section	.text._ZN8UnitTest15MemoryOutStreamD1Ev,"axG",@progbits,_ZN8UnitTest15MemoryOutStreamD1Ev
 415              		.align 2
 416              		.p2align 4
 417              		.weak	_ZN8UnitTest15MemoryOutStreamD1Ev
 419              	_ZN8UnitTest15MemoryOutStreamD1Ev:
 420              	.LFB1300:
 421              		.cfi_startproc
 422 0000 F30F1EFA 		endbr64
 423 0004 55       		pushq	%rbp
 424              		.cfi_def_cfa_offset 16
 425              		.cfi_offset 6, -16
 426 0005 488D0500 		leaq	24+_ZTVN8UnitTest15MemoryOutStreamE(%rip), %rax
 426      000000
 427 000c 53       		pushq	%rbx
 428              		.cfi_def_cfa_offset 24
 429              		.cfi_offset 3, -24
 430 000d 4889FB   		movq	%rdi, %rbx
 431 0010 4883EC08 		subq	$8, %rsp
 432              		.cfi_def_cfa_offset 32
 433 0014 488907   		movq	%rax, (%rdi)
 434 0017 4883C028 		addq	$40, %rax
 435 001b 48898790 		movq	%rax, 144(%rdi)
 435      000000
 436 0022 488B7F70 		movq	112(%rdi), %rdi
 437 0026 488D8380 		leaq	128(%rbx), %rax
 437      000000
 438 002d 4839C7   		cmpq	%rax, %rdi
 439 0030 7405     		je	.L28
 440 0032 E8000000 		call	_ZdlPv@PLT
 440      00
 441              	.L28:
 442 0037 488D0500 		leaq	64+_ZTCN8UnitTest15MemoryOutStreamE0_NSt7__cxx1119basic_ostringstreamIcSt11char_traitsIcESaIc
 442      000000
 443 003e 488D1500 		leaq	24+_ZTCN8UnitTest15MemoryOutStreamE0_NSt7__cxx1119basic_ostringstreamIcSt11char_traitsIcESaIc
 443      000000
 444 0045 488B7B50 		movq	80(%rbx), %rdi
 445 0049 48898390 		movq	%rax, 144(%rbx)
 445      000000
 446 0050 488D0500 		leaq	16+_ZTVNSt7__cxx1115basic_stringbufIcSt11char_traitsIcESaIcEEE(%rip), %rax
 446      000000
 447 0057 66480F6E 		movq	%rdx, %xmm0
 447      C2
 448 005c 488DAB90 		leaq	144(%rbx), %rbp
 448      000000
 449 0063 66480F6E 		movq	%rax, %xmm1
 449      C8
 450 0068 488D4360 		leaq	96(%rbx), %rax
 451 006c 660F6CC1 		punpcklqdq	%xmm1, %xmm0
 452 0070 0F1103   		movups	%xmm0, (%rbx)
 453 0073 4839C7   		cmpq	%rax, %rdi
 454 0076 7405     		je	.L29
 455 0078 E8000000 		call	_ZdlPv@PLT
 455      00
 456              	.L29:
 457 007d 488D0500 		leaq	16+_ZTVSt15basic_streambufIcSt11char_traitsIcEE(%rip), %rax
 457      000000
 458 0084 488D7B40 		leaq	64(%rbx), %rdi
 459 0088 48894308 		movq	%rax, 8(%rbx)
 460 008c E8000000 		call	_ZNSt6localeD1Ev@PLT
 460      00
 461 0091 488D0500 		leaq	24+_ZTCN8UnitTest15MemoryOutStreamE0_So(%rip), %rax
 461      000000
 462 0098 4889EF   		movq	%rbp, %rdi
 463 009b 488903   		movq	%rax, (%rbx)
 464 009e 488D0500 		leaq	16+_ZTVSt9basic_iosIcSt11char_traitsIcEE(%rip), %rax
 464      000000
 465 00a5 48898390 		movq	%rax, 144(%rbx)
 465      000000
 466 00ac 4883C408 		addq	$8, %rsp
 467              		.cfi_def_cfa_offset 24
 468 00b0 5B       		popq	%rbx
 469              		.cfi_def_cfa_offset 16
 470 00b1 5D       		popq	%rbp
 471              		.cfi_def_cfa_offset 8
 472 00b2 E9000000 		jmp	_ZNSt8ios_baseD2Ev@PLT
 472      00
 473              		.cfi_endproc
 474              	.LFE1300:
 476 00b7 660F1F84 		.p2align 4
 476      00000000 
 476      00
 477              		.weak	_ZTv0_n24_N8UnitTest15MemoryOutStreamD1Ev
 479              	_ZTv0_n24_N8UnitTest15MemoryOutStreamD1Ev:
 480              	.LFB1385:
 481              		.cfi_startproc
 482 00c0 F30F1EFA 		endbr64
 483 00c4 55       		pushq	%rbp
 484              		.cfi_def_cfa_offset 16
 485              		.cfi_offset 6, -16
 486 00c5 53       		pushq	%rbx
 487              		.cfi_def_cfa_offset 24
 488              		.cfi_offset 3, -24
 489 00c6 4889FB   		movq	%rdi, %rbx
 490 00c9 4883EC08 		subq	$8, %rsp
 491              		.cfi_def_cfa_offset 32
 492 00cd 488B07   		movq	(%rdi), %rax
 493 00d0 480358E8 		addq	-24(%rax), %rbx
 494 00d4 488D0500 		leaq	24+_ZTVN8UnitTest15MemoryOutStreamE(%rip), %rax
 494      000000
 495 00db 488903   		movq	%rax, (%rbx)
 496 00de 488B7B70 		movq	112(%rbx), %rdi
 497 00e2 4883C028 		addq	$40, %rax
 498 00e6 48898390 		movq	%rax, 144(%rbx)
 498      000000
 499 00ed 488D8380 		leaq	128(%rbx), %rax
 499      000000
 500 00f4 4839C7   		cmpq	%rax, %rdi
 501 00f7 7405     		je	.L32
 502 00f9 E8000000 		call	_ZdlPv@PLT
 502      00
 503              	.L32:
 504 00fe 488D0500 		leaq	64+_ZTCN8UnitTest15MemoryOutStreamE0_NSt7__cxx1119basic_ostringstreamIcSt11char_traitsIcESaIc
 504      000000
 505 0105 488D1500 		leaq	24+_ZTCN8UnitTest15MemoryOutStreamE0_NSt7__cxx1119basic_ostringstreamIcSt11char_traitsIcESaIc
 505      000000
 506 010c 488B7B50 		movq	80(%rbx), %rdi
 507 0110 48898390 		movq	%rax, 144(%rbx)
 507      000000
 508 0117 488D0500 		leaq	16+_ZTVNSt7__cxx1115basic_stringbufIcSt11char_traitsIcESaIcEEE(%rip), %rax
 508      000000
 509 011e 66480F6E 		movq	%rdx, %xmm0
 509      C2
 510 0123 488DAB90 		leaq	144(%rbx), %rbp
 510      000000
 511 012a 66480F6E 		movq	%rax, %xmm1
 511      C8
 512 012f 488D4360 		leaq	96(%rbx), %rax
 513 0133 660F6CC1 		punpcklqdq	%xmm1, %xmm0
 514 0137 0F1103   		movups	%xmm0, (%rbx)
 515 013a 4839C7   		cmpq	%rax, %rdi
 516 013d 7405     		je	.L33
 517 013f E8000000 		call	_ZdlPv@PLT
 517      00
 518              	.L33:
 519 0144 488D0500 		leaq	16+_ZTVSt15basic_streambufIcSt11char_traitsIcEE(%rip), %rax
 519      000000
 520 014b 488D7B40 		leaq	64(%rbx), %rdi
 521 014f 48894308 		movq	%rax, 8(%rbx)
 522 0153 E8000000 		call	_ZNSt6localeD1Ev@PLT
 522      00
 523 0158 488D0500 		leaq	24+_ZTCN8UnitTest15MemoryOutStreamE0_So(%rip), %rax
 523      000000
 524 015f 4889EF   		movq	%rbp, %rdi
 525 0162 488903   		movq	%rax, (%rbx)
 526 0165 488D0500 		leaq	16+_ZTVSt9basic_iosIcSt11char_traitsIcEE(%rip), %rax
 526      000000
 527 016c 48898390 		movq	%rax, 144(%rbx)
 527      000000
 528 0173 4883C408 		addq	$8, %rsp
 529              		.cfi_def_cfa_offset 24
 530 0177 5B       		popq	%rbx
 531              		.cfi_def_cfa_offset 16
 532 0178 5D       		popq	%rbp
 533              		.cfi_def_cfa_offset 8
 534 0179 E9000000 		jmp	_ZNSt8ios_baseD2Ev@PLT
 534      00
 535              		.cfi_endproc
 536              	.LFE1385:
 538              		.section	.text._ZN8UnitTest15MemoryOutStreamD0Ev,"axG",@progbits,_ZN8UnitTest15MemoryOutStreamD0Ev
 539              		.align 2
 540              		.p2align 4
 541              		.weak	_ZN8UnitTest15MemoryOutStreamD0Ev
 543              	_ZN8UnitTest15MemoryOutStreamD0Ev:
 544              	.LFB1301:
 545              		.cfi_startproc
 546              		.cfi_personality 0x9b,DW.ref.__gxx_personality_v0
 547              		.cfi_lsda 0x1b,.LLSDA1301
 548 0000 F30F1EFA 		endbr64
 549 0004 4154     		pushq	%r12
 550              		.cfi_def_cfa_offset 16
 551              		.cfi_offset 12, -16
 552 0006 488D0500 		leaq	24+_ZTVN8UnitTest15MemoryOutStreamE(%rip), %rax
 552      000000
 553 000d 55       		pushq	%rbp
 554              		.cfi_def_cfa_offset 24
 555              		.cfi_offset 6, -24
 556 000e 4889FD   		movq	%rdi, %rbp
 557 0011 4883EC08 		subq	$8, %rsp
 558              		.cfi_def_cfa_offset 32
 559 0015 488907   		movq	%rax, (%rdi)
 560 0018 4883C028 		addq	$40, %rax
 561 001c 48898790 		movq	%rax, 144(%rdi)
 561      000000
 562 0023 488B7F70 		movq	112(%rdi), %rdi
 563 0027 488D8580 		leaq	128(%rbp), %rax
 563      000000
 564 002e 4839C7   		cmpq	%rax, %rdi
 565 0031 7405     		je	.L36
 566 0033 E8000000 		call	_ZdlPv@PLT
 566      00
 567              	.L36:
 568 0038 488D0500 		leaq	64+_ZTCN8UnitTest15MemoryOutStreamE0_NSt7__cxx1119basic_ostringstreamIcSt11char_traitsIcESaIc
 568      000000
 569 003f 488D1500 		leaq	24+_ZTCN8UnitTest15MemoryOutStreamE0_NSt7__cxx1119basic_ostringstreamIcSt11char_traitsIcESaIc
 569      000000
 570 0046 488B7D50 		movq	80(%rbp), %rdi
 571 004a 48898590 		movq	%rax, 144(%rbp)
 571      000000
 572 0051 488D0500 		leaq	16+_ZTVNSt7__cxx1115basic_stringbufIcSt11char_traitsIcESaIcEEE(%rip), %rax
 572      000000
 573 0058 66480F6E 		movq	%rdx, %xmm0
 573      C2
 574 005d 4C8DA590 		leaq	144(%rbp), %r12
 574      000000
 575 0064 66480F6E 		movq	%rax, %xmm1
 575      C8
 576 0069 488D4560 		leaq	96(%rbp), %rax
 577 006d 660F6CC1 		punpcklqdq	%xmm1, %xmm0
 578 0071 0F114500 		movups	%xmm0, 0(%rbp)
 579 0075 4839C7   		cmpq	%rax, %rdi
 580 0078 7405     		je	.L37
 581 007a E8000000 		call	_ZdlPv@PLT
 581      00
 582              	.L37:
 583 007f 488D0500 		leaq	16+_ZTVSt15basic_streambufIcSt11char_traitsIcEE(%rip), %rax
 583      000000
 584 0086 488D7D40 		leaq	64(%rbp), %rdi
 585 008a 48894508 		movq	%rax, 8(%rbp)
 586 008e E8000000 		call	_ZNSt6localeD1Ev@PLT
 586      00
 587 0093 488D0500 		leaq	24+_ZTCN8UnitTest15MemoryOutStreamE0_So(%rip), %rax
 587      000000
 588 009a 4C89E7   		movq	%r12, %rdi
 589 009d 48894500 		movq	%rax, 0(%rbp)
 590 00a1 488D0500 		leaq	16+_ZTVSt9basic_iosIcSt11char_traitsIcEE(%rip), %rax
 590      000000
 591 00a8 48898590 		movq	%rax, 144(%rbp)
 591      000000
 592              	.LEHB10:
 593 00af E8000000 		call	_ZNSt8ios_baseD2Ev@PLT
 593      00
 594              	.LEHE10:
 595 00b4 4883C408 		addq	$8, %rsp
 596              		.cfi_remember_state
 597              		.cfi_def_cfa_offset 24
 598 00b8 4889EF   		movq	%rbp, %rdi
 599 00bb 5D       		popq	%rbp
 600              		.cfi_def_cfa_offset 16
 601 00bc 415C     		popq	%r12
 602              		.cfi_def_cfa_offset 8
 603 00be E9000000 		jmp	_ZdlPv@PLT
 603      00
 604              	.L39:
 605              		.cfi_restore_state
 606 00c3 F30F1EFA 		endbr64
 607 00c7 4989C4   		movq	%rax, %r12
 608              	.L38:
 609 00ca 4889EF   		movq	%rbp, %rdi
 610 00cd E8000000 		call	_ZdlPv@PLT
 610      00
 611 00d2 4C89E7   		movq	%r12, %rdi
 612              	.LEHB11:
 613 00d5 E8000000 		call	_Unwind_Resume@PLT
 613      00
 614              	.LEHE11:
 615              		.cfi_endproc
 616              	.LFE1301:
 617              		.section	.gcc_except_table._ZN8UnitTest15MemoryOutStreamD0Ev,"aG",@progbits,_ZN8UnitTest15MemoryOu
 618              	.LLSDA1301:
 619 0000 FF       		.byte	0xff
 620 0001 FF       		.byte	0xff
 621 0002 01       		.byte	0x1
 622 0003 0B       		.uleb128 .LLSDACSE1301-.LLSDACSB1301
 623              	.LLSDACSB1301:
 624 0004 AF01     		.uleb128 .LEHB10-.LFB1301
 625 0006 05       		.uleb128 .LEHE10-.LEHB10
 626 0007 C301     		.uleb128 .L39-.LFB1301
 627 0009 00       		.uleb128 0
 628 000a D501     		.uleb128 .LEHB11-.LFB1301
 629 000c 05       		.uleb128 .LEHE11-.LEHB11
 630 000d 00       		.uleb128 0
 631 000e 00       		.uleb128 0
 632              	.LLSDACSE1301:
 633              		.section	.text._ZN8UnitTest15MemoryOutStreamD0Ev,"axG",@progbits,_ZN8UnitTest15MemoryOutStreamD0Ev
 635 00da 660F1F44 		.p2align 4
 635      0000
 636              		.weak	_ZTv0_n24_N8UnitTest15MemoryOutStreamD0Ev
 638              	_ZTv0_n24_N8UnitTest15MemoryOutStreamD0Ev:
 639              	.LFB1384:
 640              		.cfi_startproc
 641              		.cfi_personality 0x9b,DW.ref.__gxx_personality_v0
 642              		.cfi_lsda 0x1b,.LLSDA1384
 643 00e0 F30F1EFA 		endbr64
 644 00e4 4154     		pushq	%r12
 645              		.cfi_def_cfa_offset 16
 646              		.cfi_offset 12, -16
 647 00e6 55       		pushq	%rbp
 648              		.cfi_def_cfa_offset 24
 649              		.cfi_offset 6, -24
 650 00e7 4889FD   		movq	%rdi, %rbp
 651 00ea 4883EC08 		subq	$8, %rsp
 652              		.cfi_def_cfa_offset 32
 653 00ee 488B07   		movq	(%rdi), %rax
 654 00f1 480368E8 		addq	-24(%rax), %rbp
 655 00f5 488D0500 		leaq	24+_ZTVN8UnitTest15MemoryOutStreamE(%rip), %rax
 655      000000
 656 00fc 48894500 		movq	%rax, 0(%rbp)
 657 0100 488B7D70 		movq	112(%rbp), %rdi
 658 0104 4883C028 		addq	$40, %rax
 659 0108 48898590 		movq	%rax, 144(%rbp)
 659      000000
 660 010f 488D8580 		leaq	128(%rbp), %rax
 660      000000
 661 0116 4839C7   		cmpq	%rax, %rdi
 662 0119 7405     		je	.L42
 663 011b E8000000 		call	_ZdlPv@PLT
 663      00
 664              	.L42:
 665 0120 488D0500 		leaq	64+_ZTCN8UnitTest15MemoryOutStreamE0_NSt7__cxx1119basic_ostringstreamIcSt11char_traitsIcESaIc
 665      000000
 666 0127 488D1500 		leaq	24+_ZTCN8UnitTest15MemoryOutStreamE0_NSt7__cxx1119basic_ostringstreamIcSt11char_traitsIcESaIc
 666      000000
 667 012e 488B7D50 		movq	80(%rbp), %rdi
 668 0132 48898590 		movq	%rax, 144(%rbp)
 668      000000
 669 0139 488D0500 		leaq	16+_ZTVNSt7__cxx1115basic_stringbufIcSt11char_traitsIcESaIcEEE(%rip), %rax
 669      000000
 670 0140 66480F6E 		movq	%rdx, %xmm0
 670      C2
 671 0145 4C8DA590 		leaq	144(%rbp), %r12
 671      000000
 672 014c 66480F6E 		movq	%rax, %xmm1
 672      C8
 673 0151 488D4560 		leaq	96(%rbp), %rax
 674 0155 660F6CC1 		punpcklqdq	%xmm1, %xmm0
 675 0159 0F114500 		movups	%xmm0, 0(%rbp)
 676 015d 4839C7   		cmpq	%rax, %rdi
 677 0160 7405     		je	.L43
 678 0162 E8000000 		call	_ZdlPv@PLT
 678      00
 679              	.L43:
 680 0167 488D0500 		leaq	16+_ZTVSt15basic_streambufIcSt11char_traitsIcEE(%rip), %rax
 680      000000
 681 016e 488D7D40 		leaq	64(%rbp), %rdi
 682 0172 48894508 		movq	%rax, 8(%rbp)
 683 0176 E8000000 		call	_ZNSt6localeD1Ev@PLT
 683      00
 684 017b 488D0500 		leaq	24+_ZTCN8UnitTest15MemoryOutStreamE0_So(%rip), %rax
 684      000000
 685 0182 4C89E7   		movq	%r12, %rdi
 686 0185 48894500 		movq	%rax, 0(%rbp)
 687 0189 488D0500 		leaq	16+_ZTVSt9basic_iosIcSt11char_traitsIcEE(%rip), %rax
 687      000000
 688 0190 48898590 		movq	%rax, 144(%rbp)
 688      000000
 689              	.LEHB12:
 690 0197 E8000000 		call	_ZNSt8ios_baseD2Ev@PLT
 690      00
 691              	.LEHE12:
 692 019c 4883C408 		addq	$8, %rsp
 693              		.cfi_remember_state
 694              		.cfi_def_cfa_offset 24
 695 01a0 4889EF   		movq	%rbp, %rdi
 696 01a3 5D       		popq	%rbp
 697              		.cfi_def_cfa_offset 16
 698 01a4 415C     		popq	%r12
 699              		.cfi_def_cfa_offset 8
 700 01a6 E9000000 		jmp	_ZdlPv@PLT
 700      00
 701              	.L45:
 702              		.cfi_restore_state
 703 01ab F30F1EFA 		endbr64
 704 01af 4989C4   		movq	%rax, %r12
 705              	.L44:
 706 01b2 4889EF   		movq	%rbp, %rdi
 707 01b5 E8000000 		call	_ZdlPv@PLT
 707      00
 708 01ba 4C89E7   		movq	%r12, %rdi
 709              	.LEHB13:
 710 01bd E8000000 		call	_Unwind_Resume@PLT
 710      00
 711              	.LEHE13:
 712              		.cfi_endproc
 713              	.LFE1384:
 714              		.section	.gcc_except_table._ZTv0_n24_N8UnitTest15MemoryOutStreamD0Ev,"aG",@progbits,_ZN8UnitTest15
 715              	.LLSDA1384:
 716 0000 FF       		.byte	0xff
 717 0001 FF       		.byte	0xff
 718 0002 01       		.byte	0x1
 719 0003 0B       		.uleb128 .LLSDACSE1384-.LLSDACSB1384
 720              	.LLSDACSB1384:
 721 0004 B701     		.uleb128 .LEHB12-.LFB1384
 722 0006 05       		.uleb128 .LEHE12-.LEHB12
 723 0007 CB01     		.uleb128 .L45-.LFB1384
 724 0009 00       		.uleb128 0
 725 000a DD01     		.uleb128 .LEHB13-.LFB1384
 726 000c 05       		.uleb128 .LEHE13-.LEHB13
 727 000d 00       		.uleb128 0
 728 000e 00       		.uleb128 0
 729              	.LLSDACSE1384:
 730              		.section	.text._ZN8UnitTest15MemoryOutStreamD0Ev,"axG",@progbits,_ZN8UnitTest15MemoryOutStreamD0Ev
 732              		.section	.rodata.str1.1,"aMS",@progbits,1
 733              	.LC0:
 734 0000 25303258 		.string	"%02X"
 734      00
 735              		.text
 736              		.p2align 4
 737              		.globl	_Z12renderBufferRPcPK6Buffer
 739              	_Z12renderBufferRPcPK6Buffer:
 740              	.LFB1254:
 741              		.cfi_startproc
 742 0000 F30F1EFA 		endbr64
 743 0004 4155     		pushq	%r13
 744              		.cfi_def_cfa_offset 16
 745              		.cfi_offset 13, -16
 746 0006 4154     		pushq	%r12
 747              		.cfi_def_cfa_offset 24
 748              		.cfi_offset 12, -24
 749 0008 55       		pushq	%rbp
 750              		.cfi_def_cfa_offset 32
 751              		.cfi_offset 6, -32
 752 0009 4889FD   		movq	%rdi, %rbp
 753 000c 53       		pushq	%rbx
 754              		.cfi_def_cfa_offset 40
 755              		.cfi_offset 3, -40
 756 000d 4883EC08 		subq	$8, %rsp
 757              		.cfi_def_cfa_offset 48
 758 0011 488B07   		movq	(%rdi), %rax
 759 0014 4C8B6608 		movq	8(%rsi), %r12
 760 0018 488B1E   		movq	(%rsi), %rbx
 761 001b 488D5001 		leaq	1(%rax), %rdx
 762 001f 488917   		movq	%rdx, (%rdi)
 763 0022 C6007B   		movb	$123, (%rax)
 764 0025 488B3F   		movq	(%rdi), %rdi
 765 0028 4585E4   		testl	%r12d, %r12d
 766 002b 7442     		je	.L50
 767 002d 4589E4   		movl	%r12d, %r12d
 768 0030 4C8D2D00 		leaq	.LC0(%rip), %r13
 768      000000
 769 0037 4901DC   		addq	%rbx, %r12
 770 003a 660F1F44 		.p2align 4,,10
 770      0000
 771              		.p2align 3
 772              	.L49:
 773 0040 440FB603 		movzbl	(%rbx), %r8d
 774 0044 4C89E9   		movq	%r13, %rcx
 775 0047 48C7C2FF 		movq	$-1, %rdx
 775      FFFFFF
 776 004e 31C0     		xorl	%eax, %eax
 777 0050 BE010000 		movl	$1, %esi
 777      00
 778 0055 4883C301 		addq	$1, %rbx
 779 0059 E8000000 		call	__sprintf_chk@PLT
 779      00
 780 005e 488B4500 		movq	0(%rbp), %rax
 781 0062 488D7802 		leaq	2(%rax), %rdi
 782 0066 48897D00 		movq	%rdi, 0(%rbp)
 783 006a 4939DC   		cmpq	%rbx, %r12
 784 006d 75D1     		jne	.L49
 785              	.L50:
 786 006f 488D4701 		leaq	1(%rdi), %rax
 787 0073 48894500 		movq	%rax, 0(%rbp)
 788 0077 C6077D   		movb	$125, (%rdi)
 789 007a 4883C408 		addq	$8, %rsp
 790              		.cfi_def_cfa_offset 40
 791 007e 5B       		popq	%rbx
 792              		.cfi_def_cfa_offset 32
 793 007f 5D       		popq	%rbp
 794              		.cfi_def_cfa_offset 24
 795 0080 415C     		popq	%r12
 796              		.cfi_def_cfa_offset 16
 797 0082 415D     		popq	%r13
 798              		.cfi_def_cfa_offset 8
 799 0084 C3       		ret
 800              		.cfi_endproc
 801              	.LFE1254:
 803              		.section	.rodata.str1.1
 804              	.LC1:
 805 0005 25642C20 		.string	"%d, "
 805      00
 806              		.text
 807 0085 66662E0F 		.p2align 4
 807      1F840000 
 807      000000
 808              		.globl	_Z14renderBitStoreRPcPK8BitStore
 810              	_Z14renderBitStoreRPcPK8BitStore:
 811              	.LFB1255:
 812              		.cfi_startproc
 813 0090 F30F1EFA 		endbr64
 814 0094 4156     		pushq	%r14
 815              		.cfi_def_cfa_offset 16
 816              		.cfi_offset 14, -16
 817 0096 48C7C2FF 		movq	$-1, %rdx
 817      FFFFFF
 818 009d 488D0D00 		leaq	.LC1(%rip), %rcx
 818      000000
 819 00a4 31C0     		xorl	%eax, %eax
 820 00a6 4155     		pushq	%r13
 821              		.cfi_def_cfa_offset 24
 822              		.cfi_offset 13, -24
 823 00a8 4989F5   		movq	%rsi, %r13
 824 00ab 4154     		pushq	%r12
 825              		.cfi_def_cfa_offset 32
 826              		.cfi_offset 12, -32
 827 00ad 55       		pushq	%rbp
 828              		.cfi_def_cfa_offset 40
 829              		.cfi_offset 6, -40
 830 00ae 53       		pushq	%rbx
 831              		.cfi_def_cfa_offset 48
 832              		.cfi_offset 3, -48
 833 00af 4889FB   		movq	%rdi, %rbx
 834 00b2 448B06   		movl	(%rsi), %r8d
 835 00b5 BE010000 		movl	$1, %esi
 835      00
 836 00ba 488B3F   		movq	(%rdi), %rdi
 837 00bd E8000000 		call	__sprintf_chk@PLT
 837      00
 838 00c2 488B2B   		movq	(%rbx), %rbp
 839 00c5 4889EF   		movq	%rbp, %rdi
 840 00c8 E8000000 		call	strlen@PLT
 840      00
 841 00cd 4D8B7510 		movq	16(%r13), %r14
 842 00d1 4801E8   		addq	%rbp, %rax
 843 00d4 498B6D08 		movq	8(%r13), %rbp
 844 00d8 488D5001 		leaq	1(%rax), %rdx
 845 00dc 488913   		movq	%rdx, (%rbx)
 846 00df C6007B   		movb	$123, (%rax)
 847 00e2 488B3B   		movq	(%rbx), %rdi
 848 00e5 4585F6   		testl	%r14d, %r14d
 849 00e8 7444     		je	.L56
 850 00ea 4589F6   		movl	%r14d, %r14d
 851 00ed 4C8D2500 		leaq	.LC0(%rip), %r12
 851      000000
 852 00f4 4901EE   		addq	%rbp, %r14
 853 00f7 660F1F84 		.p2align 4,,10
 853      00000000 
 853      00
 854              		.p2align 3
 855              	.L55:
 856 0100 440FB645 		movzbl	0(%rbp), %r8d
 856      00
 857 0105 4C89E1   		movq	%r12, %rcx
 858 0108 BE010000 		movl	$1, %esi
 858      00
 859 010d 31C0     		xorl	%eax, %eax
 860 010f 48C7C2FF 		movq	$-1, %rdx
 860      FFFFFF
 861 0116 4883C501 		addq	$1, %rbp
 862 011a E8000000 		call	__sprintf_chk@PLT
 862      00
 863 011f 488B03   		movq	(%rbx), %rax
 864 0122 488D7802 		leaq	2(%rax), %rdi
 865 0126 48893B   		movq	%rdi, (%rbx)
 866 0129 4C39F5   		cmpq	%r14, %rbp
 867 012c 75D2     		jne	.L55
 868              	.L56:
 869 012e 488D4701 		leaq	1(%rdi), %rax
 870 0132 488903   		movq	%rax, (%rbx)
 871 0135 C6077D   		movb	$125, (%rdi)
 872 0138 488B03   		movq	(%rbx), %rax
 873 013b 488D5001 		leaq	1(%rax), %rdx
 874 013f 488913   		movq	%rdx, (%rbx)
 875 0142 C6002C   		movb	$44, (%rax)
 876 0145 488B03   		movq	(%rbx), %rax
 877 0148 488D5001 		leaq	1(%rax), %rdx
 878 014c 488913   		movq	%rdx, (%rbx)
 879 014f C60020   		movb	$32, (%rax)
 880 0152 488B03   		movq	(%rbx), %rax
 881 0155 4D8B7530 		movq	48(%r13), %r14
 882 0159 498B6D28 		movq	40(%r13), %rbp
 883 015d 488D5001 		leaq	1(%rax), %rdx
 884 0161 488913   		movq	%rdx, (%rbx)
 885 0164 C6007B   		movb	$123, (%rax)
 886 0167 488B3B   		movq	(%rbx), %rdi
 887 016a 4585F6   		testl	%r14d, %r14d
 888 016d 743F     		je	.L59
 889 016f 4589F6   		movl	%r14d, %r14d
 890 0172 4C8D2500 		leaq	.LC0(%rip), %r12
 890      000000
 891 0179 4901EE   		addq	%rbp, %r14
 892 017c 0F1F4000 		.p2align 4,,10
 893              		.p2align 3
 894              	.L58:
 895 0180 440FB645 		movzbl	0(%rbp), %r8d
 895      00
 896 0185 4C89E1   		movq	%r12, %rcx
 897 0188 BE010000 		movl	$1, %esi
 897      00
 898 018d 31C0     		xorl	%eax, %eax
 899 018f 48C7C2FF 		movq	$-1, %rdx
 899      FFFFFF
 900 0196 4883C501 		addq	$1, %rbp
 901 019a E8000000 		call	__sprintf_chk@PLT
 901      00
 902 019f 488B03   		movq	(%rbx), %rax
 903 01a2 488D7802 		leaq	2(%rax), %rdi
 904 01a6 48893B   		movq	%rdi, (%rbx)
 905 01a9 4C39F5   		cmpq	%r14, %rbp
 906 01ac 75D2     		jne	.L58
 907              	.L59:
 908 01ae 488D4701 		leaq	1(%rdi), %rax
 909 01b2 488903   		movq	%rax, (%rbx)
 910 01b5 C6077D   		movb	$125, (%rdi)
 911 01b8 488B03   		movq	(%rbx), %rax
 912 01bb 488D5001 		leaq	1(%rax), %rdx
 913 01bf 488913   		movq	%rdx, (%rbx)
 914 01c2 C6002C   		movb	$44, (%rax)
 915 01c5 488B03   		movq	(%rbx), %rax
 916 01c8 488D5001 		leaq	1(%rax), %rdx
 917 01cc 488913   		movq	%rdx, (%rbx)
 918 01cf C60020   		movb	$32, (%rax)
 919 01d2 488B03   		movq	(%rbx), %rax
 920 01d5 498B6D48 		movq	72(%r13), %rbp
 921 01d9 4D8B6D50 		movq	80(%r13), %r13
 922 01dd 488D5001 		leaq	1(%rax), %rdx
 923 01e1 488913   		movq	%rdx, (%rbx)
 924 01e4 C6007B   		movb	$123, (%rax)
 925 01e7 488B3B   		movq	(%rbx), %rdi
 926 01ea 4585ED   		testl	%r13d, %r13d
 927 01ed 743F     		je	.L62
 928 01ef 4589ED   		movl	%r13d, %r13d
 929 01f2 4C8D2500 		leaq	.LC0(%rip), %r12
 929      000000
 930 01f9 4901ED   		addq	%rbp, %r13
 931 01fc 0F1F4000 		.p2align 4,,10
 932              		.p2align 3
 933              	.L61:
 934 0200 440FB645 		movzbl	0(%rbp), %r8d
 934      00
 935 0205 4C89E1   		movq	%r12, %rcx
 936 0208 BE010000 		movl	$1, %esi
 936      00
 937 020d 31C0     		xorl	%eax, %eax
 938 020f 48C7C2FF 		movq	$-1, %rdx
 938      FFFFFF
 939 0216 4883C501 		addq	$1, %rbp
 940 021a E8000000 		call	__sprintf_chk@PLT
 940      00
 941 021f 488B03   		movq	(%rbx), %rax
 942 0222 488D7802 		leaq	2(%rax), %rdi
 943 0226 48893B   		movq	%rdi, (%rbx)
 944 0229 4939ED   		cmpq	%rbp, %r13
 945 022c 75D2     		jne	.L61
 946              	.L62:
 947 022e 488D4701 		leaq	1(%rdi), %rax
 948 0232 488903   		movq	%rax, (%rbx)
 949 0235 C6077D   		movb	$125, (%rdi)
 950 0238 5B       		popq	%rbx
 951              		.cfi_def_cfa_offset 40
 952 0239 5D       		popq	%rbp
 953              		.cfi_def_cfa_offset 32
 954 023a 415C     		popq	%r12
 955              		.cfi_def_cfa_offset 24
 956 023c 415D     		popq	%r13
 957              		.cfi_def_cfa_offset 16
 958 023e 415E     		popq	%r14
 959              		.cfi_def_cfa_offset 8
 960 0240 C3       		ret
 961              		.cfi_endproc
 962              	.LFE1255:
 964 0241 66662E0F 		.p2align 4
 964      1F840000 
 964      0000000F 
 964      1F4000
 965              		.globl	_Z9renderCxtPK12ParseContext
 967              	_Z9renderCxtPK12ParseContext:
 968              	.LFB1256:
 969              		.cfi_startproc
 970 0250 F30F1EFA 		endbr64
 971 0254 4154     		pushq	%r12
 972              		.cfi_def_cfa_offset 16
 973              		.cfi_offset 12, -16
 974 0256 4889FE   		movq	%rdi, %rsi
 975 0259 4C8D2500 		leaq	_ZZ9renderCxtPK12ParseContextE6result(%rip), %r12
 975      000000
 976 0260 55       		pushq	%rbp
 977              		.cfi_def_cfa_offset 24
 978              		.cfi_offset 6, -24
 979 0261 53       		pushq	%rbx
 980              		.cfi_def_cfa_offset 32
 981              		.cfi_offset 3, -32
 982 0262 4889FB   		movq	%rdi, %rbx
 983 0265 4883EC10 		subq	$16, %rsp
 984              		.cfi_def_cfa_offset 48
 985 0269 64488B04 		movq	%fs:40, %rax
 985      25280000 
 985      00
 986 0272 48894424 		movq	%rax, 8(%rsp)
 986      08
 987 0277 31C0     		xorl	%eax, %eax
 988 0279 4889E5   		movq	%rsp, %rbp
 989 027c 4C892424 		movq	%r12, (%rsp)
 990 0280 4889EF   		movq	%rbp, %rdi
 991 0283 E8000000 		call	_Z14renderBitStoreRPcPK8BitStore
 991      00
 992 0288 488B0424 		movq	(%rsp), %rax
 993 028c 488D7368 		leaq	104(%rbx), %rsi
 994 0290 4889EF   		movq	%rbp, %rdi
 995 0293 488D5002 		leaq	2(%rax), %rdx
 996 0297 48891424 		movq	%rdx, (%rsp)
 997 029b BA2C2000 		movl	$8236, %edx
 997      00
 998 02a0 668910   		movw	%dx, (%rax)
 999 02a3 E8000000 		call	_Z14renderBitStoreRPcPK8BitStore
 999      00
 1000 02a8 488B0424 		movq	(%rsp), %rax
 1001 02ac B92C2000 		movl	$8236, %ecx
 1001      00
 1002 02b1 4889EF   		movq	%rbp, %rdi
 1003 02b4 488DB3D0 		leaq	208(%rbx), %rsi
 1003      000000
 1004 02bb 668908   		movw	%cx, (%rax)
 1005 02be 488D5002 		leaq	2(%rax), %rdx
 1006 02c2 48891424 		movq	%rdx, (%rsp)
 1007 02c6 E8000000 		call	_Z14renderBitStoreRPcPK8BitStore
 1007      00
 1008 02cb 488B0424 		movq	(%rsp), %rax
 1009 02cf BE2C2000 		movl	$8236, %esi
 1009      00
 1010 02d4 4889EF   		movq	%rbp, %rdi
 1011 02d7 668930   		movw	%si, (%rax)
 1012 02da 488D5002 		leaq	2(%rax), %rdx
 1013 02de 488DB338 		leaq	312(%rbx), %rsi
 1013      010000
 1014 02e5 48891424 		movq	%rdx, (%rsp)
 1015 02e9 E8000000 		call	_Z14renderBitStoreRPcPK8BitStore
 1015      00
 1016 02ee 488B0424 		movq	(%rsp), %rax
 1017 02f2 BF2C2000 		movl	$8236, %edi
 1017      00
 1018 02f7 488DB3A0 		leaq	416(%rbx), %rsi
 1018      010000
 1019 02fe 668938   		movw	%di, (%rax)
 1020 0301 488D5002 		leaq	2(%rax), %rdx
 1021 0305 4889EF   		movq	%rbp, %rdi
 1022 0308 48891424 		movq	%rdx, (%rsp)
 1023 030c E8000000 		call	_Z14renderBitStoreRPcPK8BitStore
 1023      00
 1024 0311 488B0424 		movq	(%rsp), %rax
 1025 0315 41B82C20 		movl	$8236, %r8d
 1025      0000
 1026 031b 4889EF   		movq	%rbp, %rdi
 1027 031e 488DB308 		leaq	520(%rbx), %rsi
 1027      020000
 1028 0325 66448900 		movw	%r8w, (%rax)
 1029 0329 488D5002 		leaq	2(%rax), %rdx
 1030 032d 48891424 		movq	%rdx, (%rsp)
 1031 0331 E8000000 		call	_Z14renderBitStoreRPcPK8BitStore
 1031      00
 1032 0336 488B0424 		movq	(%rsp), %rax
 1033 033a C60000   		movb	$0, (%rax)
 1034 033d 488B4424 		movq	8(%rsp), %rax
 1034      08
 1035 0342 64482B04 		subq	%fs:40, %rax
 1035      25280000 
 1035      00
 1036 034b 750C     		jne	.L70
 1037 034d 4883C410 		addq	$16, %rsp
 1038              		.cfi_remember_state
 1039              		.cfi_def_cfa_offset 32
 1040 0351 4C89E0   		movq	%r12, %rax
 1041 0354 5B       		popq	%rbx
 1042              		.cfi_def_cfa_offset 24
 1043 0355 5D       		popq	%rbp
 1044              		.cfi_def_cfa_offset 16
 1045 0356 415C     		popq	%r12
 1046              		.cfi_def_cfa_offset 8
 1047 0358 C3       		ret
 1048              	.L70:
 1049              		.cfi_restore_state
 1050 0359 E8000000 		call	__stack_chk_fail@PLT
 1050      00
 1051              		.cfi_endproc
 1052              	.LFE1256:
 1054              		.section	.text._ZNSt7__cxx1115basic_stringbufIcSt11char_traitsIcESaIcEED2Ev,"axG",@progbits,_ZNSt7
 1055              		.align 2
 1056              		.p2align 4
 1057              		.weak	_ZNSt7__cxx1115basic_stringbufIcSt11char_traitsIcESaIcEED2Ev
 1059              	_ZNSt7__cxx1115basic_stringbufIcSt11char_traitsIcESaIcEED2Ev:
 1060              	.LFB1279:
 1061              		.cfi_startproc
 1062 0000 F30F1EFA 		endbr64
 1063 0004 488D0500 		leaq	16+_ZTVNSt7__cxx1115basic_stringbufIcSt11char_traitsIcESaIcEEE(%rip), %rax
 1063      000000
 1064 000b 53       		pushq	%rbx
 1065              		.cfi_def_cfa_offset 16
 1066              		.cfi_offset 3, -16
 1067 000c 4889FB   		movq	%rdi, %rbx
 1068 000f 488907   		movq	%rax, (%rdi)
 1069 0012 488B7F48 		movq	72(%rdi), %rdi
 1070 0016 488D4358 		leaq	88(%rbx), %rax
 1071 001a 4839C7   		cmpq	%rax, %rdi
 1072 001d 7405     		je	.L72
 1073 001f E8000000 		call	_ZdlPv@PLT
 1073      00
 1074              	.L72:
 1075 0024 488D0500 		leaq	16+_ZTVSt15basic_streambufIcSt11char_traitsIcEE(%rip), %rax
 1075      000000
 1076 002b 488D7B38 		leaq	56(%rbx), %rdi
 1077 002f 488903   		movq	%rax, (%rbx)
 1078 0032 5B       		popq	%rbx
 1079              		.cfi_def_cfa_offset 8
 1080 0033 E9000000 		jmp	_ZNSt6localeD1Ev@PLT
 1080      00
 1081              		.cfi_endproc
 1082              	.LFE1279:
 1084              		.weak	_ZNSt7__cxx1115basic_stringbufIcSt11char_traitsIcESaIcEED1Ev
 1085              		.set	_ZNSt7__cxx1115basic_stringbufIcSt11char_traitsIcESaIcEED1Ev,_ZNSt7__cxx1115basic_stringbufIc
 1086              		.section	.rodata.str1.1
 1087              	.LC2:
 1088 000a 44617461 		.string	"Dataset %d\n"
 1088      73657420 
 1088      25640A00 
 1089              	.LC3:
 1090 0016 20205B25 		.string	"  [%d] %s:%s\n"
 1090      645D2025 
 1090      733A2573 
 1090      0A00
 1091              	.LC4:
 1092 0024 45787065 		.string	"Expected "
 1092      63746564 
 1092      2000
 1093              	.LC5:
 1094 002e 20627574 		.string	" but was "
 1094      20776173 
 1094      2000
 1095              		.section	.rodata.str1.8,"aMS",@progbits,1
 1096              		.align 8
 1097              	.LC6:
 1098 0000 556E6861 		.string	"Unhandled exception in CHECK_EQUAL(sExpected, sActual)"
 1098      6E646C65 
 1098      64206578 
 1098      63657074 
 1098      696F6E20 
 1099 0037 00       		.align 8
 1100              	.LC7:
 1101 0038 556E6861 		.string	"Unhandled exception in CHECK_EQUAL(expected, actual)"
 1101      6E646C65 
 1101      64206578 
 1101      63657074 
 1101      696F6E20 
 1102              		.section	.rodata.str1.1
 1103              	.LC8:
 1104 0038 2A2A7045 		.string	"**pExpected == XCOMPLETE"
 1104      78706563 
 1104      74656420 
 1104      3D3D2058 
 1104      434F4D50 
 1105              	.LC9:
 1106 0051 2A2A7041 		.string	"**pActual == XCOMPLETE"
 1106      63747561 
 1106      6C203D3D 
 1106      2058434F 
 1106      4D504C45 
 1107              		.section	.rodata.str1.8
 1108 006d 000000   		.align 8
 1109              	.LC10:
 1110 0070 556E6861 		.string	"Unhandled exception in CHECK(**pExpected == XCOMPLETE)"
 1110      6E646C65 
 1110      64206578 
 1110      63657074 
 1110      696F6E20 
 1111 00a7 00       		.align 8
 1112              	.LC11:
 1113 00a8 556E6861 		.string	"Unhandled exception in CHECK(**pActual == XCOMPLETE)"
 1113      6E646C65 
 1113      64206578 
 1113      63657074 
 1113      696F6E20 
 1114              		.section	.text.unlikely,"ax",@progbits
 1115              		.align 2
 1116              	.LCOLDB15:
 1117              		.text
 1118              	.LHOTB15:
 1119              		.align 2
 1120 035e 6690     		.p2align 4
 1121              		.globl	_ZNK29TestFPGALink_testProcessIndex7RunImplEv
 1123              	_ZNK29TestFPGALink_testProcessIndex7RunImplEv:
 1124              	.LFB1265:
 1125              		.cfi_startproc
 1126              		.cfi_personality 0x9b,DW.ref.__gxx_personality_v0
 1127              		.cfi_lsda 0x1b,.LLSDA1265
 1128 0360 F30F1EFA 		endbr64
 1129 0364 4157     		pushq	%r15
 1130              		.cfi_def_cfa_offset 16
 1131              		.cfi_offset 15, -16
 1132 0366 4156     		pushq	%r14
 1133              		.cfi_def_cfa_offset 24
 1134              		.cfi_offset 14, -24
 1135 0368 4155     		pushq	%r13
 1136              		.cfi_def_cfa_offset 32
 1137              		.cfi_offset 13, -32
 1138 036a 4154     		pushq	%r12
 1139              		.cfi_def_cfa_offset 40
 1140              		.cfi_offset 12, -40
 1141 036c 55       		pushq	%rbp
 1142              		.cfi_def_cfa_offset 48
 1143              		.cfi_offset 6, -48
 1144 036d 53       		pushq	%rbx
 1145              		.cfi_def_cfa_offset 56
 1146              		.cfi_offset 3, -56
 1147 036e 4881EC00 		subq	$4096, %rsp
 1147      100000
 1148              		.cfi_def_cfa_offset 4152
 1149 0375 48830C24 		orq	$0, (%rsp)
 1149      00
 1150 037a 4881EC00 		subq	$4096, %rsp
 1150      100000
 1151              		.cfi_def_cfa_offset 8248
 1152 0381 48830C24 		orq	$0, (%rsp)
 1152      00
 1153 0386 4881ECC8 		subq	$1736, %rsp
 1153      060000
 1154              		.cfi_def_cfa_offset 9984
 1155 038d 64488B04 		movq	%fs:40, %rax
 1155      25280000 
 1155      00
 1156 0396 48898424 		movq	%rax, 9912(%rsp)
 1156      B8260000 
 1157 039e 31C0     		xorl	%eax, %eax
 1158 03a0 488D8424 		leaq	9895(%rsp), %rax
 1158      A7260000 
 1159 03a8 488D9424 		leaq	9894(%rsp), %rdx
 1159      A6260000 
 1160 03b0 C78424A9 		movl	$4, 9897(%rsp)
 1160      26000004 
 1160      000000
 1161 03bb 66480F6E 		movq	%rax, %xmm2
 1161      D0
 1162 03c0 488D8424 		leaq	9897(%rsp), %rax
 1162      A9260000 
 1163 03c8 664C0F6E 		movq	%rdx, %xmm14
 1163      F2
 1164 03cd C68424AD 		movb	$0, 9901(%rsp)
 1164      26000000 
 1165 03d5 66480F6E 		movq	%rax, %xmm6
 1165      F0
 1166 03da 66480F6E 		movq	%rax, %xmm3
 1166      D8
 1167 03df 66440F6F 		movdqa	%xmm2, %xmm15
 1167      FA
 1168 03e4 C78424AE 		movl	$4, 9902(%rsp)
 1168      26000004 
 1168      000000
 1169 03ef 488D8424 		leaq	9896(%rsp), %rax
 1169      A8260000 
 1170 03f7 660F6FCA 		movdqa	%xmm2, %xmm1
 1171 03fb 66440F6F 		movdqa	%xmm2, %xmm8
 1171      C2
 1172 0400 C68424B2 		movb	$10, 9906(%rsp)
 1172      2600000A 
 1173 0408 66480F6E 		movq	%rax, %xmm4
 1173      E0
 1174 040d 66450F6C 		punpcklqdq	%xmm15, %xmm15
 1174      FF
 1175 0412 66450F6C 		punpcklqdq	%xmm14, %xmm8
 1175      C6
 1176 0417 C78424B3 		movl	$654311428, 9907(%rsp)
 1176      26000004 
 1176      000027
 1177 0422 488D8424 		leaq	9893(%rsp), %rax
 1177      A5260000 
 1178 042a 66440F6F 		movdqa	%xmm4, %xmm9
 1178      CC
 1179 042f 488DBC24 		leaq	9907(%rsp), %rdi
 1179      B3260000 
 1180 0437 440F29BC 		movaps	%xmm15, 768(%rsp)
 1180      24000300 
 1180      00
 1181 0440 66480F6E 		movq	%rax, %xmm7
 1181      F8
 1182 0445 66480F6E 		movq	%rax, %xmm0
 1182      C0
 1183 044a 488D8424 		leaq	9902(%rsp), %rax
 1183      AE260000 
 1184 0452 C68424B7 		movb	$16, 9911(%rsp)
 1184      26000010 
 1185 045a 660F6CFC 		punpcklqdq	%xmm4, %xmm7
 1186 045e 664C0F6E 		movq	%rax, %xmm10
 1186      D0
 1187 0463 660F6CC8 		punpcklqdq	%xmm0, %xmm1
 1188 0467 C68424A3 		movb	$0, 9891(%rsp)
 1188      26000000 
 1189 046f 0F29BC24 		movaps	%xmm7, 640(%rsp)
 1189      80020000 
 1190 0477 488D8424 		leaq	9892(%rsp), %rax
 1190      A4260000 
 1191 047f 660F6FE8 		movdqa	%xmm0, %xmm5
 1192 0483 660F6CDA 		punpcklqdq	%xmm2, %xmm3
 1193 0487 66480F6E 		movq	%rdx, %xmm7
 1193      FA
 1194 048c 664C0F6E 		movq	%rax, %xmm11
 1194      D8
 1195 0491 66450F6F 		movdqa	%xmm10, %xmm12
 1195      E2
 1196 0496 C68424A4 		movb	$3, 9892(%rsp)
 1196      26000003 
 1197 049e 66440F6C 		punpcklqdq	%xmm7, %xmm9
 1197      CF
 1198 04a3 66410F6F 		movdqa	%xmm10, %xmm7
 1198      FA
 1199 04a8 66440F6C 		punpcklqdq	%xmm0, %xmm12
 1199      E0
 1200 04ad C68424A5 		movb	$8, 9893(%rsp)
 1200      26000008 
 1201 04b5 66440F6F 		movdqa	%xmm2, %xmm15
 1201      FA
 1202 04ba 66450F6F 		movdqa	%xmm11, %xmm13
 1202      EB
 1203 04bf 66410F6F 		movdqa	%xmm11, %xmm0
 1203      C3
 1204 04c4 440F298C 		movaps	%xmm9, 576(%rsp)
 1204      24400200 
 1204      00
 1205 04cd 66450F6F 		movdqa	%xmm10, %xmm14
 1205      F2
 1206 04d2 488D8424 		leaq	9891(%rsp), %rax
 1206      A3260000 
 1207 04da 660F6CC0 		punpcklqdq	%xmm0, %xmm0
 1208 04de 660F6FA4 		movdqa	576(%rsp), %xmm4
 1208      24400200 
 1208      00
 1209 04e7 664C0F6E 		movq	%rax, %xmm9
 1209      C8
 1210 04ec 66440F6C 		punpcklqdq	%xmm2, %xmm14
 1210      F2
 1211 04f1 66450F6C 		punpcklqdq	%xmm10, %xmm13
 1211      EA
 1212 04f6 0F298424 		movaps	%xmm0, 880(%rsp)
 1212      70030000 
 1213 04fe 66410F6C 		punpcklqdq	%xmm9, %xmm7
 1213      F9
 1214 0503 0F29A424 		movaps	%xmm4, 720(%rsp)
 1214      D0020000 
 1215 050b 66480F6E 		movq	%rdi, %xmm4
 1215      E7
 1216 0510 66410F6C 		punpcklqdq	%xmm11, %xmm5
 1216      EB
 1217 0515 0F29BC24 		movaps	%xmm7, 608(%rsp)
 1217      60020000 
 1218 051d 66410F6F 		movdqa	%xmm11, %xmm7
 1218      FB
 1219 0522 66440F6C 		punpcklqdq	%xmm4, %xmm15
 1219      FC
 1220 0527 660F6CFE 		punpcklqdq	%xmm6, %xmm7
 1221 052b 66480F6E 		movq	%rdx, %xmm6
 1221      F2
 1222 0530 0F298424 		movaps	%xmm0, 896(%rsp)
 1222      80030000 
 1223 0538 660F6CF2 		punpcklqdq	%xmm2, %xmm6
 1224 053c 0F29BC24 		movaps	%xmm7, 528(%rsp)
 1224      10020000 
 1225 0544 66410F6F 		movdqa	%xmm11, %xmm7
 1225      FB
 1226 0549 0F29B424 		movaps	%xmm6, 784(%rsp)
 1226      10030000 
 1227 0551 66410F6C 		punpcklqdq	%xmm9, %xmm7
 1227      F9
 1228 0556 C68424A6 		movb	$9, 9894(%rsp)
 1228      26000009 
 1229 055e C68424A7 		movb	$2, 9895(%rsp)
 1229      26000002 
 1230 0566 C68424A8 		movb	$1, 9896(%rsp)
 1230      26000001 
 1231 056e 0F298C24 		movaps	%xmm1, 704(%rsp)
 1231      C0020000 
 1232 0576 440F2984 		movaps	%xmm8, 736(%rsp)
 1232      24E00200 
 1232      00
 1233 057f 440F2984 		movaps	%xmm8, 752(%rsp)
 1233      24F00200 
 1233      00
 1234 0588 440F29B4 		movaps	%xmm14, 800(%rsp)
 1234      24200300 
 1234      00
 1235 0591 440F29BC 		movaps	%xmm15, 816(%rsp)
 1235      24300300 
 1235      00
 1236 059a 0F298C24 		movaps	%xmm1, 832(%rsp)
 1236      40030000 
 1237 05a2 440F29AC 		movaps	%xmm13, 848(%rsp)
 1237      24500300 
 1237      00
 1238 05ab 0F298C24 		movaps	%xmm1, 864(%rsp)
 1238      60030000 
 1239 05b3 0F298424 		movaps	%xmm0, 912(%rsp)
 1239      90030000 
 1240 05bb 660F6FA4 		movdqa	640(%rsp), %xmm4
 1240      24800200 
 1240      00
 1241 05c4 0F29B424 		movaps	%xmm6, 1008(%rsp)
 1241      F0030000 
 1242 05cc 0F29B424 		movaps	%xmm6, 1024(%rsp)
 1242      00040000 
 1243 05d4 0F29B424 		movaps	%xmm6, 1040(%rsp)
 1243      10040000 
 1244 05dc 66480F6E 		movq	%rdi, %xmm6
 1244      F7
 1245 05e1 0F298424 		movaps	%xmm0, 928(%rsp)
 1245      A0030000 
 1246 05e9 660F6CF2 		punpcklqdq	%xmm2, %xmm6
 1247 05ed 660F6F94 		movdqa	528(%rsp), %xmm2
 1247      24100200 
 1247      00
 1248 05f6 0F298424 		movaps	%xmm0, 944(%rsp)
 1248      B0030000 
 1249 05fe 0F298424 		movaps	%xmm0, 1184(%rsp)
 1249      A0040000 
 1250 0606 0F298424 		movaps	%xmm0, 1200(%rsp)
 1250      B0040000 
 1251 060e 0F298424 		movaps	%xmm0, 1216(%rsp)
 1251      C0040000 
 1252 0616 0F298424 		movaps	%xmm0, 1232(%rsp)
 1252      D0040000 
 1253 061e 0F298424 		movaps	%xmm0, 1248(%rsp)
 1253      E0040000 
 1254 0626 0F298424 		movaps	%xmm0, 160(%rsp)
 1254      A0000000 
 1255 062e 0F298424 		movaps	%xmm0, 352(%rsp)
 1255      60010000 
 1256 0636 66410F6F 		movdqa	%xmm10, %xmm0
 1256      C2
 1257 063b 66410F6C 		punpcklqdq	%xmm11, %xmm0
 1257      C3
 1258 0640 48898424 		movq	%rax, 960(%rsp)
 1258      C0030000 
 1259 0648 48898424 		movq	%rax, 1264(%rsp)
 1259      F0040000 
 1260 0650 48898424 		movq	%rax, 176(%rsp)
 1260      B0000000 
 1261 0658 0F299C24 		movaps	%xmm3, 976(%rsp)
 1261      D0030000 
 1262 0660 0F299C24 		movaps	%xmm3, 1088(%rsp)
 1262      40040000 
 1263 0668 0F299C24 		movaps	%xmm3, 1120(%rsp)
 1263      60040000 
 1264 0670 0F299424 		movaps	%xmm2, 1152(%rsp)
 1264      80040000 
 1265 0678 0F299C24 		movaps	%xmm3, 288(%rsp)
 1265      20010000 
 1266 0680 0F29AC24 		movaps	%xmm5, 304(%rsp)
 1266      30010000 
 1267 0688 0F29A424 		movaps	%xmm4, 992(%rsp)
 1267      E0030000 
 1268 0690 440F2984 		movaps	%xmm8, 1056(%rsp)
 1268      24200400 
 1268      00
 1269 0699 440F29B4 		movaps	%xmm14, 1072(%rsp)
 1269      24300400 
 1269      00
 1270 06a2 0F29B424 		movaps	%xmm6, 1104(%rsp)
 1270      50040000 
 1271 06aa 440F29A4 		movaps	%xmm12, 1136(%rsp)
 1271      24700400 
 1271      00
 1272 06b3 0F298C24 		movaps	%xmm1, 1168(%rsp)
 1272      90040000 
 1273 06bb 0F298C24 		movaps	%xmm1, 144(%rsp)
 1273      90000000 
 1274 06c3 0F29BC24 		movaps	%xmm7, 320(%rsp)
 1274      40010000 
 1275 06cb 0F298C24 		movaps	%xmm1, 336(%rsp)
 1275      50010000 
 1276 06d3 660F6FA4 		movdqa	608(%rsp), %xmm4
 1276      24600200 
 1276      00
 1277 06dc 0F298424 		movaps	%xmm0, 464(%rsp)
 1277      D0010000 
 1278 06e4 66480F6E 		movq	%rdx, %xmm0
 1278      C2
 1279 06e9 66410F6C 		punpcklqdq	%xmm10, %xmm0
 1279      C2
 1280 06ee 48898424 		movq	%rax, 480(%rsp)
 1280      E0010000 
 1281 06f6 48898424 		movq	%rax, 688(%rsp)
 1281      B0020000 
 1282 06fe 488D8424 		leaq	704(%rsp), %rax
 1282      C0020000 
 1283 0706 0F298424 		movaps	%xmm0, 656(%rsp)
 1283      90020000 
 1284 070e 66480F6E 		movq	%rax, %xmm0
 1284      C0
 1285 0713 488D8424 		leaq	144(%rsp), %rax
 1285      90000000 
 1286 071b 0F29AC24 		movaps	%xmm5, 448(%rsp)
 1286      C0010000 
 1287 0723 0F29AC24 		movaps	%xmm5, 592(%rsp)
 1287      50020000 
 1288 072b 0F29AC24 		movaps	%xmm5, 672(%rsp)
 1288      A0020000 
 1289 0733 66480F6E 		movq	%rax, %xmm5
 1289      E8
 1290 0738 488D8424 		leaq	336(%rsp), %rax
 1290      50010000 
 1291 0740 660F6CC5 		punpcklqdq	%xmm5, %xmm0
 1292 0744 0F299C24 		movaps	%xmm3, 432(%rsp)
 1292      B0010000 
 1293 074c 0F298424 		movaps	%xmm0, 192(%rsp)
 1293      C0000000 
 1294 0754 66480F6E 		movq	%rax, %xmm0
 1294      C0
 1295 0759 488D8424 		leaq	384(%rsp), %rax
 1295      80010000 
 1296 0761 66480F6E 		movq	%rax, %xmm5
 1296      E8
 1297 0766 488D8424 		leaq	560(%rsp), %rax
 1297      30020000 
 1298 076e 0F299C24 		movaps	%xmm3, 496(%rsp)
 1298      F0010000 
 1299 0776 660F6CC5 		punpcklqdq	%xmm5, %xmm0
 1300 077a 48898424 		movq	%rax, 224(%rsp)
 1300      E0000000 
 1301 0782 488D8424 		leaq	976(%rsp), %rax
 1301      D0030000 
 1302 078a 0F298424 		movaps	%xmm0, 208(%rsp)
 1302      D0000000 
 1303 0792 66480F6E 		movq	%rax, %xmm0
 1303      C0
 1304 0797 488D8424 		leaq	288(%rsp), %rax
 1304      20010000 
 1305 079f 0F299C24 		movaps	%xmm3, 624(%rsp)
 1305      70020000 
 1306 07a7 66480F6E 		movq	%rax, %xmm3
 1306      D8
 1307 07ac 488D8424 		leaq	432(%rsp), %rax
 1307      B0010000 
 1308 07b4 660F6CC3 		punpcklqdq	%xmm3, %xmm0
 1309 07b8 0F29A424 		movaps	%xmm4, 368(%rsp)
 1309      70010000 
 1310 07c0 F30F7E25 		movq	.LC12(%rip), %xmm4
 1310      00000000 
 1311 07c8 0F298424 		movaps	%xmm0, 240(%rsp)
 1311      F0000000 
 1312 07d0 66480F6E 		movq	%rax, %xmm0
 1312      C0
 1313 07d5 488D8424 		leaq	496(%rsp), %rax
 1313      F0010000 
 1314 07dd 66480F6E 		movq	%rax, %xmm2
 1314      D0
 1315 07e2 488D8424 		leaq	624(%rsp), %rax
 1315      70020000 
 1316 07ea 48C74424 		movq	$0, 48(%rsp)
 1316      30000000 
 1316      00
 1317 07f3 0F162500 		movhps	.LC13(%rip), %xmm4
 1317      000000
 1318 07fa 48898424 		movq	%rax, 272(%rsp)
 1318      10010000 
 1319 0802 660F6CC2 		punpcklqdq	%xmm2, %xmm0
 1320 0806 488D8424 		leaq	1696(%rsp), %rax
 1320      A0060000 
 1321 080e 48894424 		movq	%rax, 72(%rsp)
 1321      48
 1322 0813 488D8424 		leaq	192(%rsp), %rax
 1322      C0000000 
 1323 081b 48894424 		movq	%rax, 64(%rsp)
 1323      40
 1324 0820 488D8424 		leaq	240(%rsp), %rax
 1324      F0000000 
 1325 0828 48894424 		movq	%rax, 56(%rsp)
 1325      38
 1326 082d 0F298C24 		movaps	%xmm1, 384(%rsp)
 1326      80010000 
 1327 0835 440F29AC 		movaps	%xmm13, 400(%rsp)
 1327      24900100 
 1327      00
 1328 083e 0F29BC24 		movaps	%xmm7, 416(%rsp)
 1328      A0010000 
 1329 0846 440F29A4 		movaps	%xmm12, 512(%rsp)
 1329      24000200 
 1329      00
 1330 084f 0F29BC24 		movaps	%xmm7, 544(%rsp)
 1330      20020000 
 1331 0857 0F298C24 		movaps	%xmm1, 560(%rsp)
 1331      30020000 
 1332 085f 0F298424 		movaps	%xmm0, 256(%rsp)
 1332      00010000 
 1333 0867 0F296424 		movaps	%xmm4, 96(%rsp)
 1333      60
 1334              	.L94:
 1335 086c 488B5C24 		movq	48(%rsp), %rbx
 1335      30
 1336 0871 BF010000 		movl	$1, %edi
 1336      00
 1337 0876 31C0     		xorl	%eax, %eax
 1338 0878 4531FF   		xorl	%r15d, %r15d
 1339 087b 488D3500 		leaq	.LC2(%rip), %rsi
 1339      000000
 1340 0882 89DA     		movl	%ebx, %edx
 1341              	.LEHB14:
 1342 0884 E8000000 		call	__printf_chk@PLT
 1342      00
 1343 0889 488B4424 		movq	64(%rsp), %rax
 1343      40
 1344 088e 4C8B7424 		movq	72(%rsp), %r14
 1344      48
 1345 0893 488B3CD8 		movq	(%rax,%rbx,8), %rdi
 1346 0897 4C89F6   		movq	%r14, %rsi
 1347 089a E8000000 		call	processIndex@PLT
 1347      00
 1348 089f 488B4424 		movq	56(%rsp), %rax
 1348      38
 1349 08a4 4C8BAC24 		movq	1696(%rsp), %r13
 1349      A0060000 
 1350 08ac 488B04D8 		movq	(%rax,%rbx,8), %rax
 1351 08b0 488B18   		movq	(%rax), %rbx
 1352 08b3 48894424 		movq	%rax, 16(%rsp)
 1352      10
 1353 08b8 803B00   		cmpb	$0, (%rbx)
 1354 08bb 7526     		jne	.L75
 1355 08bd E9940300 		jmp	.L76
 1355      00
 1356              		.p2align 4,,10
 1357 08c2 660F1F44 		.p2align 3
 1357      0000
 1358              	.L77:
 1359 08c8 488B4424 		movq	16(%rsp), %rax
 1359      10
 1360 08cd 488B18   		movq	(%rax), %rbx
 1361 08d0 803B00   		cmpb	$0, (%rbx)
 1362 08d3 0F846F03 		je	.L125
 1362      0000
 1363              	.L101:
 1364 08d9 4C8B7424 		movq	24(%rsp), %r14
 1364      18
 1365 08de 448B7C24 		movl	36(%rsp), %r15d
 1365      24
 1366              	.L75:
 1367 08e3 4D8B2E   		movq	(%r14), %r13
 1368 08e6 41807D00 		cmpb	$0, 0(%r13)
 1368      00
 1369 08eb 0F846503 		je	.L76
 1369      0000
 1370 08f1 498D4608 		leaq	8(%r14), %rax
 1371 08f5 4889DF   		movq	%rbx, %rdi
 1372 08f8 48834424 		addq	$8, 16(%rsp)
 1372      1008
 1373 08fe 48894424 		movq	%rax, 24(%rsp)
 1373      18
 1374 0903 418D4701 		leal	1(%r15), %eax
 1375 0907 89442424 		movl	%eax, 36(%rsp)
 1376 090b E8000000 		call	getCmdName@PLT
 1376      00
 1377 0910 4C89EF   		movq	%r13, %rdi
 1378 0913 4889C5   		movq	%rax, %rbp
 1379 0916 E8000000 		call	getCmdName@PLT
 1379      00
 1380 091b 4889E9   		movq	%rbp, %rcx
 1381 091e 4489FA   		movl	%r15d, %edx
 1382 0921 BF010000 		movl	$1, %edi
 1382      00
 1383 0926 4989C4   		movq	%rax, %r12
 1384 0929 0FB603   		movzbl	(%rbx), %eax
 1385 092c 488D3500 		leaq	.LC3(%rip), %rsi
 1385      000000
 1386 0933 4D89E0   		movq	%r12, %r8
 1387 0936 880424   		movb	%al, (%rsp)
 1388 0939 410FB645 		movzbl	0(%r13), %eax
 1388      00
 1389 093e 88442428 		movb	%al, 40(%rsp)
 1390 0942 31C0     		xorl	%eax, %eax
 1391 0944 E8000000 		call	__printf_chk@PLT
 1391      00
 1392              	.LEHE14:
 1393              	.LEHB15:
 1394 0949 E8000000 		call	_ZN8UnitTest11CurrentTest7DetailsEv@PLT
 1394      00
 1395 094e 4C8D7C24 		leaq	112(%rsp), %r15
 1395      70
 1396 0953 488B30   		movq	(%rax), %rsi
 1397 0956 BA890200 		movl	$649, %edx
 1397      00
 1398 095b 4C89FF   		movq	%r15, %rdi
 1399 095e E8000000 		call	_ZN8UnitTest11TestDetailsC1ERKS0_i@PLT
 1399      00
 1400 0963 E8000000 		call	_ZN8UnitTest11CurrentTest7ResultsEv@PLT
 1400      00
 1401 0968 488B38   		movq	(%rax), %rdi
 1402 096b 4C89F9   		movq	%r15, %rcx
 1403 096e 4C89E2   		movq	%r12, %rdx
 1404 0971 4889EE   		movq	%rbp, %rsi
 1405 0974 E8000000 		call	_ZN8UnitTest10CheckEqualERNS_11TestResultsEPKcS3_RKNS_11TestDetailsE@PLT
 1405      00
 1406              	.LEHE15:
 1407              	.L88:
 1408 0979 803C2404 		cmpb	$4, (%rsp)
 1409 097d 0F8545FF 		jne	.L77
 1409      FFFF
 1410 0983 807C2428 		cmpb	$4, 40(%rsp)
 1410      04
 1411 0988 0F853AFF 		jne	.L77
 1411      FFFF
 1412 098e 488D7B01 		leaq	1(%rbx), %rdi
 1413              	.LEHB16:
 1414 0992 E8000000 		call	readLongBE@PLT
 1414      00
 1415 0997 498D7D01 		leaq	1(%r13), %rdi
 1416 099b 89C5     		movl	%eax, %ebp
 1417 099d E8000000 		call	readLongBE@PLT
 1417      00
 1418              	.LEHE16:
 1419 09a2 89C3     		movl	%eax, %ebx
 1420              	.LEHB17:
 1421 09a4 E8000000 		call	_ZN8UnitTest11CurrentTest7DetailsEv@PLT
 1421      00
 1422 09a9 488B30   		movq	(%rax), %rsi
 1423 09ac BA8D0200 		movl	$653, %edx
 1423      00
 1424 09b1 4C89FF   		movq	%r15, %rdi
 1425 09b4 E8000000 		call	_ZN8UnitTest11TestDetailsC1ERKS0_i@PLT
 1425      00
 1426 09b9 E8000000 		call	_ZN8UnitTest11CurrentTest7ResultsEv@PLT
 1426      00
 1427              	.LEHE17:
 1428 09be 488B00   		movq	(%rax), %rax
 1429 09c1 48890424 		movq	%rax, (%rsp)
 1430 09c5 39DD     		cmpl	%ebx, %ebp
 1431 09c7 0F84FBFE 		je	.L77
 1431      FFFF
 1432 09cd 4C8DAC24 		leaq	1424(%rsp), %r13
 1432      90050000 
 1433 09d5 4C89EF   		movq	%r13, %rdi
 1434 09d8 E8000000 		call	_ZNSt8ios_baseC2Ev@PLT
 1434      00
 1435 09dd 31C0     		xorl	%eax, %eax
 1436 09df 660FEFC0 		pxor	%xmm0, %xmm0
 1437 09e3 31F6     		xorl	%esi, %esi
 1438 09e5 66898424 		movw	%ax, 1648(%rsp)
 1438      70060000 
 1439 09ed 488D0500 		leaq	24+_ZTCN8UnitTest15MemoryOutStreamE0_So(%rip), %rax
 1439      000000
 1440 09f4 4C89EF   		movq	%r13, %rdi
 1441 09f7 48898424 		movq	%rax, 1280(%rsp)
 1441      00050000 
 1442 09ff 4883C028 		addq	$40, %rax
 1443 0a03 48C78424 		movq	$0, 1640(%rsp)
 1443      68060000 
 1443      00000000 
 1444 0a0f 48898424 		movq	%rax, 1424(%rsp)
 1444      90050000 
 1445 0a17 0F118424 		movups	%xmm0, 1656(%rsp)
 1445      78060000 
 1446 0a1f 0F118424 		movups	%xmm0, 1672(%rsp)
 1446      88060000 
 1447              	.LEHB18:
 1448 0a27 E8000000 		call	_ZNSt9basic_iosIcSt11char_traitsIcEE4initEPSt15basic_streambufIcS1_E@PLT
 1448      00
 1449              	.LEHE18:
 1450 0a2c 488D0500 		leaq	64+_ZTCN8UnitTest15MemoryOutStreamE0_NSt7__cxx1119basic_ostringstreamIcSt11char_traitsIcESaIc
 1450      000000
 1451 0a33 660F6F54 		movdqa	96(%rsp), %xmm2
 1451      2460
 1452 0a39 660FEFC0 		pxor	%xmm0, %xmm0
 1453 0a3d 4C8DA424 		leaq	1280(%rsp), %r12
 1453      00050000 
 1454 0a45 48898424 		movq	%rax, 1424(%rsp)
 1454      90050000 
 1455 0a4d 488D8424 		leaq	1344(%rsp), %rax
 1455      40050000 
 1456 0a55 4889C7   		movq	%rax, %rdi
 1457 0a58 48894424 		movq	%rax, 88(%rsp)
 1457      58
 1458 0a5d 0F299424 		movaps	%xmm2, 1280(%rsp)
 1458      00050000 
 1459 0a65 0F298424 		movaps	%xmm0, 1296(%rsp)
 1459      10050000 
 1460 0a6d 0F298424 		movaps	%xmm0, 1312(%rsp)
 1460      20050000 
 1461 0a75 0F298424 		movaps	%xmm0, 1328(%rsp)
 1461      30050000 
 1462 0a7d E8000000 		call	_ZNSt6localeC1Ev@PLT
 1462      00
 1463 0a82 488D0500 		leaq	16+_ZTVNSt7__cxx1115basic_stringbufIcSt11char_traitsIcESaIcEEE(%rip), %rax
 1463      000000
 1464 0a89 48C78424 		movq	$0, 1368(%rsp)
 1464      58050000 
 1464      00000000 
 1465 0a95 488DB424 		leaq	1288(%rsp), %rsi
 1465      08050000 
 1466 0a9d 48898424 		movq	%rax, 1288(%rsp)
 1466      08050000 
 1467 0aa5 488D8424 		leaq	1376(%rsp), %rax
 1467      60050000 
 1468 0aad 48894424 		movq	%rax, 40(%rsp)
 1468      28
 1469 0ab2 48898424 		movq	%rax, 1360(%rsp)
 1469      50050000 
 1470 0aba 488B8424 		movq	1280(%rsp), %rax
 1470      00050000 
 1471 0ac2 C6842460 		movb	$0, 1376(%rsp)
 1471      05000000 
 1472 0aca 488B78E8 		movq	-24(%rax), %rdi
 1473 0ace 48897424 		movq	%rsi, 80(%rsp)
 1473      50
 1474 0ad3 C7842448 		movl	$16, 1352(%rsp)
 1474      05000010 
 1474      000000
 1475 0ade 4C01E7   		addq	%r12, %rdi
 1476              	.LEHB19:
 1477 0ae1 E8000000 		call	_ZNSt9basic_iosIcSt11char_traitsIcEE4initEPSt15basic_streambufIcS1_E@PLT
 1477      00
 1478              	.LEHE19:
 1479 0ae6 488D0500 		leaq	24+_ZTVN8UnitTest15MemoryOutStreamE(%rip), %rax
 1479      000000
 1480 0aed BA090000 		movl	$9, %edx
 1480      00
 1481 0af2 4C89E7   		movq	%r12, %rdi
 1482 0af5 48C78424 		movq	$0, 1400(%rsp)
 1482      78050000 
 1482      00000000 
 1483 0b01 48898424 		movq	%rax, 1280(%rsp)
 1483      00050000 
 1484 0b09 4883C028 		addq	$40, %rax
 1485 0b0d 488D3500 		leaq	.LC4(%rip), %rsi
 1485      000000
 1486 0b14 48898424 		movq	%rax, 1424(%rsp)
 1486      90050000 
 1487 0b1c 488D8424 		leaq	1408(%rsp), %rax
 1487      80050000 
 1488 0b24 48894424 		movq	%rax, 80(%rsp)
 1488      50
 1489 0b29 48898424 		movq	%rax, 1392(%rsp)
 1489      70050000 
 1490 0b31 C6842480 		movb	$0, 1408(%rsp)
 1490      05000000 
 1491              	.LEHB20:
 1492 0b39 E8000000 		call	_ZSt16__ostream_insertIcSt11char_traitsIcEERSt13basic_ostreamIT_T0_ES6_PKS3_l@PLT
 1492      00
 1493 0b3e 89EE     		movl	%ebp, %esi
 1494 0b40 4C89E7   		movq	%r12, %rdi
 1495 0b43 E8000000 		call	_ZNSo9_M_insertImEERSoT_@PLT
 1495      00
 1496 0b48 BA090000 		movl	$9, %edx
 1496      00
 1497 0b4d 488D3500 		leaq	.LC5(%rip), %rsi
 1497      000000
 1498 0b54 4889C7   		movq	%rax, %rdi
 1499 0b57 4889C5   		movq	%rax, %rbp
 1500 0b5a E8000000 		call	_ZSt16__ostream_insertIcSt11char_traitsIcEERSt13basic_ostreamIT_T0_ES6_PKS3_l@PLT
 1500      00
 1501 0b5f 89DE     		movl	%ebx, %esi
 1502 0b61 4889EF   		movq	%rbp, %rdi
 1503 0b64 E8000000 		call	_ZNSo9_M_insertImEERSoT_@PLT
 1503      00
 1504 0b69 4C89E7   		movq	%r12, %rdi
 1505 0b6c E8000000 		call	_ZNK8UnitTest15MemoryOutStream7GetTextEv@PLT
 1505      00
 1506 0b71 488B3C24 		movq	(%rsp), %rdi
 1507 0b75 4889C2   		movq	%rax, %rdx
 1508 0b78 4C89FE   		movq	%r15, %rsi
 1509 0b7b E8000000 		call	_ZN8UnitTest11TestResults13OnTestFailureERKNS_11TestDetailsEPKc@PLT
 1509      00
 1510              	.LEHE20:
 1511 0b80 488D0500 		leaq	24+_ZTVN8UnitTest15MemoryOutStreamE(%rip), %rax
 1511      000000
 1512 0b87 488BBC24 		movq	1392(%rsp), %rdi
 1512      70050000 
 1513 0b8f F30F7E05 		movq	.LC12(%rip), %xmm0
 1513      00000000 
 1514 0b97 48898424 		movq	%rax, 1280(%rsp)
 1514      00050000 
 1515 0b9f 4883C028 		addq	$40, %rax
 1516 0ba3 48898424 		movq	%rax, 1424(%rsp)
 1516      90050000 
 1517 0bab 0F160500 		movhps	.LC14(%rip), %xmm0
 1517      000000
 1518 0bb2 483B7C24 		cmpq	80(%rsp), %rdi
 1518      50
 1519 0bb7 740E     		je	.L84
 1520 0bb9 0F290424 		movaps	%xmm0, (%rsp)
 1521 0bbd E8000000 		call	_ZdlPv@PLT
 1521      00
 1522 0bc2 660F6F04 		movdqa	(%rsp), %xmm0
 1522      24
 1523              	.L84:
 1524 0bc7 488D0500 		leaq	64+_ZTCN8UnitTest15MemoryOutStreamE0_NSt7__cxx1119basic_ostringstreamIcSt11char_traitsIcESaIc
 1524      000000
 1525 0bce 488BBC24 		movq	1360(%rsp), %rdi
 1525      50050000 
 1526 0bd6 0F298424 		movaps	%xmm0, 1280(%rsp)
 1526      00050000 
 1527 0bde 48898424 		movq	%rax, 1424(%rsp)
 1527      90050000 
 1528 0be6 483B7C24 		cmpq	40(%rsp), %rdi
 1528      28
 1529 0beb 7405     		je	.L85
 1530 0bed E8000000 		call	_ZdlPv@PLT
 1530      00
 1531              	.L85:
 1532 0bf2 488B7C24 		movq	88(%rsp), %rdi
 1532      58
 1533 0bf7 488D0500 		leaq	16+_ZTVSt15basic_streambufIcSt11char_traitsIcEE(%rip), %rax
 1533      000000
 1534 0bfe 48898424 		movq	%rax, 1288(%rsp)
 1534      08050000 
 1535 0c06 E8000000 		call	_ZNSt6localeD1Ev@PLT
 1535      00
 1536 0c0b 488D0500 		leaq	24+_ZTCN8UnitTest15MemoryOutStreamE0_So(%rip), %rax
 1536      000000
 1537 0c12 4C89EF   		movq	%r13, %rdi
 1538 0c15 48898424 		movq	%rax, 1280(%rsp)
 1538      00050000 
 1539 0c1d 488D0500 		leaq	16+_ZTVSt9basic_iosIcSt11char_traitsIcEE(%rip), %rax
 1539      000000
 1540 0c24 48898424 		movq	%rax, 1424(%rsp)
 1540      90050000 
 1541              	.LEHB21:
 1542 0c2c E8000000 		call	_ZNSt8ios_baseD2Ev@PLT
 1542      00
 1543              	.LEHE21:
 1544 0c31 488B4424 		movq	16(%rsp), %rax
 1544      10
 1545 0c36 488B18   		movq	(%rax), %rbx
 1546 0c39 803B00   		cmpb	$0, (%rbx)
 1547 0c3c 0F8597FC 		jne	.L101
 1547      FFFF
 1548              		.p2align 4,,10
 1549 0c42 660F1F44 		.p2align 3
 1549      0000
 1550              	.L125:
 1551 0c48 4D8B6E08 		movq	8(%r14), %r13
 1552 0c4c 448B7C24 		movl	36(%rsp), %r15d
 1552      24
 1553 0c51 4C8B7424 		movq	24(%rsp), %r14
 1553      18
 1554              	.L76:
 1555 0c56 4C89EF   		movq	%r13, %rdi
 1556              	.LEHB22:
 1557 0c59 E8000000 		call	getCmdName@PLT
 1557      00
 1558 0c5e 4889DF   		movq	%rbx, %rdi
 1559 0c61 4889C5   		movq	%rax, %rbp
 1560 0c64 E8000000 		call	getCmdName@PLT
 1560      00
 1561 0c69 4989E8   		movq	%rbp, %r8
 1562 0c6c 4489FA   		movl	%r15d, %edx
 1563 0c6f BF010000 		movl	$1, %edi
 1563      00
 1564 0c74 4889C1   		movq	%rax, %rcx
 1565 0c77 488D3500 		leaq	.LC3(%rip), %rsi
 1565      000000
 1566 0c7e 31C0     		xorl	%eax, %eax
 1567 0c80 E8000000 		call	__printf_chk@PLT
 1567      00
 1568              	.LEHE22:
 1569 0c85 803B00   		cmpb	$0, (%rbx)
 1570 0c88 0F858200 		jne	.L126
 1570      0000
 1571              	.L92:
 1572 0c8e 498B06   		movq	(%r14), %rax
 1573 0c91 803800   		cmpb	$0, (%rax)
 1574 0c94 7542     		jne	.L127
 1575              	.L93:
 1576 0c96 48834424 		addq	$1, 48(%rsp)
 1576      3001
 1577 0c9c 488B4424 		movq	48(%rsp), %rax
 1577      30
 1578 0ca1 4883F805 		cmpq	$5, %rax
 1579 0ca5 0F85C1FB 		jne	.L94
 1579      FFFF
 1580 0cab 488B8424 		movq	9912(%rsp), %rax
 1580      B8260000 
 1581 0cb3 64482B04 		subq	%fs:40, %rax
 1581      25280000 
 1581      00
 1582 0cbc 0F858700 		jne	.L128
 1582      0000
 1583 0cc2 4881C4C8 		addq	$9928, %rsp
 1583      260000
 1584              		.cfi_remember_state
 1585              		.cfi_def_cfa_offset 56
 1586 0cc9 5B       		popq	%rbx
 1587              		.cfi_def_cfa_offset 48
 1588 0cca 5D       		popq	%rbp
 1589              		.cfi_def_cfa_offset 40
 1590 0ccb 415C     		popq	%r12
 1591              		.cfi_def_cfa_offset 32
 1592 0ccd 415D     		popq	%r13
 1593              		.cfi_def_cfa_offset 24
 1594 0ccf 415E     		popq	%r14
 1595              		.cfi_def_cfa_offset 16
 1596 0cd1 415F     		popq	%r15
 1597              		.cfi_def_cfa_offset 8
 1598 0cd3 C3       		ret
 1599              		.p2align 4,,10
 1600 0cd4 0F1F4000 		.p2align 3
 1601              	.L127:
 1602              		.cfi_restore_state
 1603              	.LEHB23:
 1604 0cd8 E8000000 		call	_ZN8UnitTest11CurrentTest7ResultsEv@PLT
 1604      00
 1605 0cdd 488B28   		movq	(%rax), %rbp
 1606 0ce0 E8000000 		call	_ZN8UnitTest11CurrentTest7DetailsEv@PLT
 1606      00
 1607 0ce5 4C8D7C24 		leaq	112(%rsp), %r15
 1607      70
 1608 0cea 488B30   		movq	(%rax), %rsi
 1609 0ced BA3E0300 		movl	$830, %edx
 1609      00
 1610 0cf2 4C89FF   		movq	%r15, %rdi
 1611 0cf5 E8000000 		call	_ZN8UnitTest11TestDetailsC1ERKS0_i@PLT
 1611      00
 1612 0cfa 488D1500 		leaq	.LC9(%rip), %rdx
 1612      000000
 1613 0d01 4C89FE   		movq	%r15, %rsi
 1614 0d04 4889EF   		movq	%rbp, %rdi
 1615 0d07 E8000000 		call	_ZN8UnitTest11TestResults13OnTestFailureERKNS_11TestDetailsEPKc@PLT
 1615      00
 1616              	.LEHE23:
 1617 0d0c EB88     		jmp	.L93
 1618 0d0e 6690     		.p2align 4,,10
 1619              		.p2align 3
 1620              	.L126:
 1621              	.LEHB24:
 1622 0d10 E8000000 		call	_ZN8UnitTest11CurrentTest7ResultsEv@PLT
 1622      00
 1623 0d15 488B28   		movq	(%rax), %rbp
 1624 0d18 E8000000 		call	_ZN8UnitTest11CurrentTest7DetailsEv@PLT
 1624      00
 1625 0d1d 4C8D7C24 		leaq	112(%rsp), %r15
 1625      70
 1626 0d22 488B30   		movq	(%rax), %rsi
 1627 0d25 BA3D0300 		movl	$829, %edx
 1627      00
 1628 0d2a 4C89FF   		movq	%r15, %rdi
 1629 0d2d E8000000 		call	_ZN8UnitTest11TestDetailsC1ERKS0_i@PLT
 1629      00
 1630 0d32 488D1500 		leaq	.LC8(%rip), %rdx
 1630      000000
 1631 0d39 4C89FE   		movq	%r15, %rsi
 1632 0d3c 4889EF   		movq	%rbp, %rdi
 1633 0d3f E8000000 		call	_ZN8UnitTest11TestResults13OnTestFailureERKNS_11TestDetailsEPKc@PLT
 1633      00
 1634              	.LEHE24:
 1635 0d44 E945FFFF 		jmp	.L92
 1635      FF
 1636              	.L128:
 1637 0d49 E8000000 		call	__stack_chk_fail@PLT
 1637      00
 1638              	.L110:
 1639 0d4e F30F1EFA 		endbr64
 1640 0d52 4889C3   		movq	%rax, %rbx
 1641 0d55 E9000000 		jmp	.L86
 1641      00
 1642              	.L112:
 1643 0d5a F30F1EFA 		endbr64
 1644 0d5e 4889C3   		movq	%rax, %rbx
 1645 0d61 E9000000 		jmp	.L80
 1645      00
 1646              	.L111:
 1647 0d66 F30F1EFA 		endbr64
 1648 0d6a 4889C3   		movq	%rax, %rbx
 1649 0d6d E9000000 		jmp	.L81
 1649      00
 1650              	.L107:
 1651 0d72 F30F1EFA 		endbr64
 1652 0d76 4889C7   		movq	%rax, %rdi
 1653 0d79 E9000000 		jmp	.L83
 1653      00
 1654              	.L102:
 1655 0d7e F30F1EFA 		endbr64
 1656 0d82 4889C7   		movq	%rax, %rdi
 1657 0d85 E9000000 		jmp	.L95
 1657      00
 1658              	.L104:
 1659 0d8a F30F1EFA 		endbr64
 1660 0d8e 4889C7   		movq	%rax, %rdi
 1661 0d91 E9000000 		jmp	.L97
 1661      00
 1662              	.L109:
 1663 0d96 F30F1EFA 		endbr64
 1664 0d9a 4889C7   		movq	%rax, %rdi
 1665 0d9d E9000000 		jmp	.L87
 1665      00
 1666              		.section	.gcc_except_table,"a",@progbits
 1667              		.align 4
 1668              	.LLSDA1265:
 1669 0000 FF       		.byte	0xff
 1670 0001 9B       		.byte	0x9b
 1671 0002 4D       		.uleb128 .LLSDATT1265-.LLSDATTD1265
 1672              	.LLSDATTD1265:
 1673 0003 01       		.byte	0x1
 1674 0004 40       		.uleb128 .LLSDACSE1265-.LLSDACSB1265
 1675              	.LLSDACSB1265:
 1676 0005 A40A     		.uleb128 .LEHB14-.LFB1265
 1677 0007 C501     		.uleb128 .LEHE14-.LEHB14
 1678 0009 00       		.uleb128 0
 1679 000a 00       		.uleb128 0
 1680 000b E90B     		.uleb128 .LEHB15-.LFB1265
 1681 000d 30       		.uleb128 .LEHE15-.LEHB15
 1682 000e B614     		.uleb128 .L109-.LFB1265
 1683 0010 01       		.uleb128 0x1
 1684 0011 B20C     		.uleb128 .LEHB16-.LFB1265
 1685 0013 10       		.uleb128 .LEHE16-.LEHB16
 1686 0014 00       		.uleb128 0
 1687 0015 00       		.uleb128 0
 1688 0016 C40C     		.uleb128 .LEHB17-.LFB1265
 1689 0018 1A       		.uleb128 .LEHE17-.LEHB17
 1690 0019 9214     		.uleb128 .L107-.LFB1265
 1691 001b 01       		.uleb128 0x1
 1692 001c C70D     		.uleb128 .LEHB18-.LFB1265
 1693 001e 05       		.uleb128 .LEHE18-.LEHB18
 1694 001f 8614     		.uleb128 .L111-.LFB1265
 1695 0021 03       		.uleb128 0x3
 1696 0022 810F     		.uleb128 .LEHB19-.LFB1265
 1697 0024 05       		.uleb128 .LEHE19-.LEHB19
 1698 0025 FA13     		.uleb128 .L112-.LFB1265
 1699 0027 03       		.uleb128 0x3
 1700 0028 D90F     		.uleb128 .LEHB20-.LFB1265
 1701 002a 47       		.uleb128 .LEHE20-.LEHB20
 1702 002b EE13     		.uleb128 .L110-.LFB1265
 1703 002d 03       		.uleb128 0x3
 1704 002e CC11     		.uleb128 .LEHB21-.LFB1265
 1705 0030 05       		.uleb128 .LEHE21-.LEHB21
 1706 0031 9214     		.uleb128 .L107-.LFB1265
 1707 0033 01       		.uleb128 0x1
 1708 0034 F911     		.uleb128 .LEHB22-.LFB1265
 1709 0036 2C       		.uleb128 .LEHE22-.LEHB22
 1710 0037 00       		.uleb128 0
 1711 0038 00       		.uleb128 0
 1712 0039 F812     		.uleb128 .LEHB23-.LFB1265
 1713 003b 34       		.uleb128 .LEHE23-.LEHB23
 1714 003c AA14     		.uleb128 .L104-.LFB1265
 1715 003e 01       		.uleb128 0x1
 1716 003f B013     		.uleb128 .LEHB24-.LFB1265
 1717 0041 34       		.uleb128 .LEHE24-.LEHB24
 1718 0042 9E14     		.uleb128 .L102-.LFB1265
 1719 0044 01       		.uleb128 0x1
 1720              	.LLSDACSE1265:
 1721 0045 01       		.byte	0x1
 1722 0046 00       		.byte	0
 1723 0047 00       		.byte	0
 1724 0048 7D       		.byte	0x7d
 1725 0049 000000   		.align 4
 1726 004c 00000000 		.long	0
 1727              	
 1728              	.LLSDATT1265:
 1729              		.text
 1730              		.cfi_endproc
 1731              		.section	.text.unlikely
 1732              		.cfi_startproc
 1733              		.cfi_personality 0x9b,DW.ref.__gxx_personality_v0
 1734              		.cfi_lsda 0x1b,.LLSDAC1265
 1736              	_ZNK29TestFPGALink_testProcessIndex7RunImplEv.cold:
 1737              	.LFSB1265:
 1738              	.L86:
 1739              		.cfi_def_cfa_offset 9984
 1740              		.cfi_offset 3, -56
 1741              		.cfi_offset 6, -48
 1742              		.cfi_offset 12, -40
 1743              		.cfi_offset 13, -32
 1744              		.cfi_offset 14, -24
 1745              		.cfi_offset 15, -16
 1746 0000 4C89E7   		movq	%r12, %rdi
 1747 0003 E8000000 		call	_ZN8UnitTest15MemoryOutStreamD1Ev
 1747      00
 1748 0008 4889DF   		movq	%rbx, %rdi
 1749              	.L83:
 1750 000b E8000000 		call	__cxa_begin_catch@PLT
 1750      00
 1751              	.LEHB25:
 1752 0010 E8000000 		call	_ZN8UnitTest11CurrentTest7ResultsEv@PLT
 1752      00
 1753 0015 488B28   		movq	(%rax), %rbp
 1754 0018 E8000000 		call	_ZN8UnitTest11CurrentTest7DetailsEv@PLT
 1754      00
 1755 001d 488B30   		movq	(%rax), %rsi
 1756 0020 BA8D0200 		movl	$653, %edx
 1756      00
 1757 0025 4C89FF   		movq	%r15, %rdi
 1758 0028 E8000000 		call	_ZN8UnitTest11TestDetailsC1ERKS0_i@PLT
 1758      00
 1759 002d 488D1500 		leaq	.LC7(%rip), %rdx
 1759      000000
 1760 0034 4C89FE   		movq	%r15, %rsi
 1761 0037 4889EF   		movq	%rbp, %rdi
 1762 003a E8000000 		call	_ZN8UnitTest11TestResults13OnTestFailureERKNS_11TestDetailsEPKc@PLT
 1762      00
 1763              	.LEHE25:
 1764              	.LEHB26:
 1765 003f E8000000 		call	__cxa_end_catch@PLT
 1765      00
 1766              	.LEHE26:
 1767 0044 E9000000 		jmp	.L77
 1767      00
 1768              	.L80:
 1769 0049 488B7C24 		movq	80(%rsp), %rdi
 1769      50
 1770 004e E8000000 		call	_ZNSt7__cxx1115basic_stringbufIcSt11char_traitsIcESaIcEED1Ev
 1770      00
 1771 0053 488D0500 		leaq	24+_ZTCN8UnitTest15MemoryOutStreamE0_So(%rip), %rax
 1771      000000
 1772 005a 48898424 		movq	%rax, 1280(%rsp)
 1772      00050000 
 1773              	.L81:
 1774 0062 488D0500 		leaq	16+_ZTVSt9basic_iosIcSt11char_traitsIcEE(%rip), %rax
 1774      000000
 1775 0069 4C89EF   		movq	%r13, %rdi
 1776 006c 48898424 		movq	%rax, 1424(%rsp)
 1776      90050000 
 1777 0074 E8000000 		call	_ZNSt8ios_baseD2Ev@PLT
 1777      00
 1778 0079 4889DF   		movq	%rbx, %rdi
 1779 007c EB8D     		jmp	.L83
 1780              	.L95:
 1781 007e E8000000 		call	__cxa_begin_catch@PLT
 1781      00
 1782              	.LEHB27:
 1783 0083 E8000000 		call	_ZN8UnitTest11CurrentTest7ResultsEv@PLT
 1783      00
 1784 0088 488B28   		movq	(%rax), %rbp
 1785 008b E8000000 		call	_ZN8UnitTest11CurrentTest7DetailsEv@PLT
 1785      00
 1786 0090 4C8D7C24 		leaq	112(%rsp), %r15
 1786      70
 1787 0095 488B30   		movq	(%rax), %rsi
 1788 0098 BA3D0300 		movl	$829, %edx
 1788      00
 1789 009d 4C89FF   		movq	%r15, %rdi
 1790 00a0 E8000000 		call	_ZN8UnitTest11TestDetailsC1ERKS0_i@PLT
 1790      00
 1791 00a5 488D1500 		leaq	.LC10(%rip), %rdx
 1791      000000
 1792 00ac 4C89FE   		movq	%r15, %rsi
 1793 00af 4889EF   		movq	%rbp, %rdi
 1794 00b2 E8000000 		call	_ZN8UnitTest11TestResults13OnTestFailureERKNS_11TestDetailsEPKc@PLT
 1794      00
 1795              	.LEHE27:
 1796              	.LEHB28:
 1797 00b7 E8000000 		call	__cxa_end_catch@PLT
 1797      00
 1798              	.LEHE28:
 1799 00bc E9000000 		jmp	.L92
 1799      00
 1800              	.L97:
 1801 00c1 E8000000 		call	__cxa_begin_catch@PLT
 1801      00
 1802              	.LEHB29:
 1803 00c6 E8000000 		call	_ZN8UnitTest11CurrentTest7ResultsEv@PLT
 1803      00
 1804 00cb 488B28   		movq	(%rax), %rbp
 1805 00ce E8000000 		call	_ZN8UnitTest11CurrentTest7DetailsEv@PLT
 1805      00
 1806 00d3 4C8D7C24 		leaq	112(%rsp), %r15
 1806      70
 1807 00d8 488B30   		movq	(%rax), %rsi
 1808 00db BA3E0300 		movl	$830, %edx
 1808      00
 1809 00e0 4C89FF   		movq	%r15, %rdi
 1810 00e3 E8000000 		call	_ZN8UnitTest11TestDetailsC1ERKS0_i@PLT
 1810      00
 1811 00e8 488D1500 		leaq	.LC11(%rip), %rdx
 1811      000000
 1812 00ef 4C89FE   		movq	%r15, %rsi
 1813 00f2 4889EF   		movq	%rbp, %rdi
 1814 00f5 E8000000 		call	_ZN8UnitTest11TestResults13OnTestFailureERKNS_11TestDetailsEPKc@PLT
 1814      00
 1815              	.LEHE29:
 1816              	.LEHB30:
 1817 00fa E8000000 		call	__cxa_end_catch@PLT
 1817      00
 1818              	.LEHE30:
 1819 00ff E9000000 		jmp	.L93
 1819      00
 1820              	.L103:
 1821 0104 F30F1EFA 		endbr64
 1822 0108 4889C5   		movq	%rax, %rbp
 1823 010b E8000000 		call	__cxa_end_catch@PLT
 1823      00
 1824 0110 4889EF   		movq	%rbp, %rdi
 1825              	.LEHB31:
 1826 0113 E8000000 		call	_Unwind_Resume@PLT
 1826      00
 1827              	.LEHE31:
 1828              	.L105:
 1829 0118 F30F1EFA 		endbr64
 1830 011c 4889C5   		movq	%rax, %rbp
 1831 011f E8000000 		call	__cxa_end_catch@PLT
 1831      00
 1832 0124 4889EF   		movq	%rbp, %rdi
 1833              	.LEHB32:
 1834 0127 E8000000 		call	_Unwind_Resume@PLT
 1834      00
 1835              	.LEHE32:
 1836              	.L106:
 1837 012c F30F1EFA 		endbr64
 1838 0130 4889C5   		movq	%rax, %rbp
 1839 0133 E8000000 		call	__cxa_end_catch@PLT
 1839      00
 1840 0138 4889EF   		movq	%rbp, %rdi
 1841              	.LEHB33:
 1842 013b E8000000 		call	_Unwind_Resume@PLT
 1842      00
 1843              	.LEHE33:
 1844              	.L87:
 1845 0140 E8000000 		call	__cxa_begin_catch@PLT
 1845      00
 1846              	.LEHB34:
 1847 0145 E8000000 		call	_ZN8UnitTest11CurrentTest7ResultsEv@PLT
 1847      00
 1848 014a 488B28   		movq	(%rax), %rbp
 1849 014d E8000000 		call	_ZN8UnitTest11CurrentTest7DetailsEv@PLT
 1849      00
 1850 0152 4C8D7C24 		leaq	112(%rsp), %r15
 1850      70
 1851 0157 488B30   		movq	(%rax), %rsi
 1852 015a BA890200 		movl	$649, %edx
 1852      00
 1853 015f 4C89FF   		movq	%r15, %rdi
 1854 0162 E8000000 		call	_ZN8UnitTest11TestDetailsC1ERKS0_i@PLT
 1854      00
 1855 0167 488D1500 		leaq	.LC6(%rip), %rdx
 1855      000000
 1856 016e 4C89FE   		movq	%r15, %rsi
 1857 0171 4889EF   		movq	%rbp, %rdi
 1858 0174 E8000000 		call	_ZN8UnitTest11TestResults13OnTestFailureERKNS_11TestDetailsEPKc@PLT
 1858      00
 1859              	.LEHE34:
 1860              	.LEHB35:
 1861 0179 E8000000 		call	__cxa_end_catch@PLT
 1861      00
 1862              	.LEHE35:
 1863 017e E9000000 		jmp	.L88
 1863      00
 1864              	.L108:
 1865 0183 F30F1EFA 		endbr64
 1866 0187 4889C5   		movq	%rax, %rbp
 1867 018a E8000000 		call	__cxa_end_catch@PLT
 1867      00
 1868 018f 4889EF   		movq	%rbp, %rdi
 1869              	.LEHB36:
 1870 0192 E8000000 		call	_Unwind_Resume@PLT
 1870      00
 1871              	.LEHE36:
 1872              		.cfi_endproc
 1873              	.LFE1265:
 1874              		.section	.gcc_except_table
 1875              		.align 4
 1876              	.LLSDAC1265:
 1877 0050 FF       		.byte	0xff
 1878 0051 9B       		.byte	0x9b
 1879 0052 49       		.uleb128 .LLSDATTC1265-.LLSDATTDC1265
 1880              	.LLSDATTDC1265:
 1881 0053 01       		.byte	0x1
 1882 0054 3E       		.uleb128 .LLSDACSEC1265-.LLSDACSBC1265
 1883              	.LLSDACSBC1265:
 1884 0055 10       		.uleb128 .LEHB25-.LCOLDB15
 1885 0056 2F       		.uleb128 .LEHE25-.LEHB25
 1886 0057 AC02     		.uleb128 .L106-.LCOLDB15
 1887 0059 00       		.uleb128 0
 1888 005a 3F       		.uleb128 .LEHB26-.LCOLDB15
 1889 005b 05       		.uleb128 .LEHE26-.LEHB26
 1890 005c 00       		.uleb128 0
 1891 005d 00       		.uleb128 0
 1892 005e 8301     		.uleb128 .LEHB27-.LCOLDB15
 1893 0060 34       		.uleb128 .LEHE27-.LEHB27
 1894 0061 8402     		.uleb128 .L103-.LCOLDB15
 1895 0063 00       		.uleb128 0
 1896 0064 B701     		.uleb128 .LEHB28-.LCOLDB15
 1897 0066 05       		.uleb128 .LEHE28-.LEHB28
 1898 0067 00       		.uleb128 0
 1899 0068 00       		.uleb128 0
 1900 0069 C601     		.uleb128 .LEHB29-.LCOLDB15
 1901 006b 34       		.uleb128 .LEHE29-.LEHB29
 1902 006c 9802     		.uleb128 .L105-.LCOLDB15
 1903 006e 00       		.uleb128 0
 1904 006f FA01     		.uleb128 .LEHB30-.LCOLDB15
 1905 0071 05       		.uleb128 .LEHE30-.LEHB30
 1906 0072 00       		.uleb128 0
 1907 0073 00       		.uleb128 0
 1908 0074 9302     		.uleb128 .LEHB31-.LCOLDB15
 1909 0076 05       		.uleb128 .LEHE31-.LEHB31
 1910 0077 00       		.uleb128 0
 1911 0078 00       		.uleb128 0
 1912 0079 A702     		.uleb128 .LEHB32-.LCOLDB15
 1913 007b 05       		.uleb128 .LEHE32-.LEHB32
 1914 007c 00       		.uleb128 0
 1915 007d 00       		.uleb128 0
 1916 007e BB02     		.uleb128 .LEHB33-.LCOLDB15
 1917 0080 05       		.uleb128 .LEHE33-.LEHB33
 1918 0081 00       		.uleb128 0
 1919 0082 00       		.uleb128 0
 1920 0083 C502     		.uleb128 .LEHB34-.LCOLDB15
 1921 0085 34       		.uleb128 .LEHE34-.LEHB34
 1922 0086 8303     		.uleb128 .L108-.LCOLDB15
 1923 0088 00       		.uleb128 0
 1924 0089 F902     		.uleb128 .LEHB35-.LCOLDB15
 1925 008b 05       		.uleb128 .LEHE35-.LEHB35
 1926 008c 00       		.uleb128 0
 1927 008d 00       		.uleb128 0
 1928 008e 9203     		.uleb128 .LEHB36-.LCOLDB15
 1929 0090 05       		.uleb128 .LEHE36-.LEHB36
 1930 0091 00       		.uleb128 0
 1931 0092 00       		.uleb128 0
 1932              	.LLSDACSEC1265:
 1933 0093 01       		.byte	0x1
 1934 0094 00       		.byte	0
 1935 0095 00       		.byte	0
 1936 0096 7D       		.byte	0x7d
 1937 0097 00       		.align 4
 1938 0098 00000000 		.long	0
 1939              	
 1940              	.LLSDATTC1265:
 1941              		.section	.text.unlikely
 1942              		.text
 1944              		.section	.text.unlikely
 1946              	.LCOLDE15:
 1947              		.text
 1948              	.LHOTE15:
 1949              		.section	.text._ZNSt7__cxx1115basic_stringbufIcSt11char_traitsIcESaIcEED0Ev,"axG",@progbits,_ZNSt7
 1950              		.align 2
 1951              		.p2align 4
 1952              		.weak	_ZNSt7__cxx1115basic_stringbufIcSt11char_traitsIcESaIcEED0Ev
 1954              	_ZNSt7__cxx1115basic_stringbufIcSt11char_traitsIcESaIcEED0Ev:
 1955              	.LFB1281:
 1956              		.cfi_startproc
 1957 0000 F30F1EFA 		endbr64
 1958 0004 488D0500 		leaq	16+_ZTVNSt7__cxx1115basic_stringbufIcSt11char_traitsIcESaIcEEE(%rip), %rax
 1958      000000
 1959 000b 55       		pushq	%rbp
 1960              		.cfi_def_cfa_offset 16
 1961              		.cfi_offset 6, -16
 1962 000c 4889FD   		movq	%rdi, %rbp
 1963 000f 488907   		movq	%rax, (%rdi)
 1964 0012 488B7F48 		movq	72(%rdi), %rdi
 1965 0016 488D4558 		leaq	88(%rbp), %rax
 1966 001a 4839C7   		cmpq	%rax, %rdi
 1967 001d 7405     		je	.L130
 1968 001f E8000000 		call	_ZdlPv@PLT
 1968      00
 1969              	.L130:
 1970 0024 488D0500 		leaq	16+_ZTVSt15basic_streambufIcSt11char_traitsIcEE(%rip), %rax
 1970      000000
 1971 002b 488D7D38 		leaq	56(%rbp), %rdi
 1972 002f 48894500 		movq	%rax, 0(%rbp)
 1973 0033 E8000000 		call	_ZNSt6localeD1Ev@PLT
 1973      00
 1974 0038 4889EF   		movq	%rbp, %rdi
 1975 003b 5D       		popq	%rbp
 1976              		.cfi_def_cfa_offset 8
 1977 003c E9000000 		jmp	_ZdlPv@PLT
 1977      00
 1978              		.cfi_endproc
 1979              	.LFE1281:
 1981              		.section	.text._ZN8UnitTest10CheckEqualI8FLStatusS1_EEvRNS_11TestResultsERKT_RKT0_RKNS_11TestDetai
 1982              		.p2align 4
 1983              		.weak	_ZN8UnitTest10CheckEqualI8FLStatusS1_EEvRNS_11TestResultsERKT_RKT0_RKNS_11TestDetailsE
 1985              	_ZN8UnitTest10CheckEqualI8FLStatusS1_EEvRNS_11TestResultsERKT_RKT0_RKNS_11TestDetailsE:
 1986              	.LFB1297:
 1987              		.cfi_startproc
 1988              		.cfi_personality 0x9b,DW.ref.__gxx_personality_v0
 1989              		.cfi_lsda 0x1b,.LLSDA1297
 1990 0000 F30F1EFA 		endbr64
 1991 0004 4157     		pushq	%r15
 1992              		.cfi_def_cfa_offset 16
 1993              		.cfi_offset 15, -16
 1994 0006 4156     		pushq	%r14
 1995              		.cfi_def_cfa_offset 24
 1996              		.cfi_offset 14, -24
 1997 0008 4155     		pushq	%r13
 1998              		.cfi_def_cfa_offset 32
 1999              		.cfi_offset 13, -32
 2000 000a 4154     		pushq	%r12
 2001              		.cfi_def_cfa_offset 40
 2002              		.cfi_offset 12, -40
 2003 000c 55       		pushq	%rbp
 2004              		.cfi_def_cfa_offset 48
 2005              		.cfi_offset 6, -48
 2006 000d 53       		pushq	%rbx
 2007              		.cfi_def_cfa_offset 56
 2008              		.cfi_offset 3, -56
 2009 000e 4881ECD8 		subq	$472, %rsp
 2009      010000
 2010              		.cfi_def_cfa_offset 528
 2011 0015 F30F7E0D 		movq	.LC12(%rip), %xmm1
 2011      00000000 
 2012 001d 48897C24 		movq	%rdi, 16(%rsp)
 2012      10
 2013 0022 48894C24 		movq	%rcx, 24(%rsp)
 2013      18
 2014 0027 0F160D00 		movhps	.LC13(%rip), %xmm1
 2014      000000
 2015 002e 64488B04 		movq	%fs:40, %rax
 2015      25280000 
 2015      00
 2016 0037 48898424 		movq	%rax, 456(%rsp)
 2016      C8010000 
 2017 003f 31C0     		xorl	%eax, %eax
 2018 0041 8B02     		movl	(%rdx), %eax
 2019 0043 0F290C24 		movaps	%xmm1, (%rsp)
 2020 0047 3906     		cmpl	%eax, (%rsi)
 2021 0049 752D     		jne	.L148
 2022              	.L132:
 2023 004b 488B8424 		movq	456(%rsp), %rax
 2023      C8010000 
 2024 0053 64482B04 		subq	%fs:40, %rax
 2024      25280000 
 2024      00
 2025 005c 0F854B02 		jne	.L149
 2025      0000
 2026 0062 4881C4D8 		addq	$472, %rsp
 2026      010000
 2027              		.cfi_remember_state
 2028              		.cfi_def_cfa_offset 56
 2029 0069 5B       		popq	%rbx
 2030              		.cfi_def_cfa_offset 48
 2031 006a 5D       		popq	%rbp
 2032              		.cfi_def_cfa_offset 40
 2033 006b 415C     		popq	%r12
 2034              		.cfi_def_cfa_offset 32
 2035 006d 415D     		popq	%r13
 2036              		.cfi_def_cfa_offset 24
 2037 006f 415E     		popq	%r14
 2038              		.cfi_def_cfa_offset 16
 2039 0071 415F     		popq	%r15
 2040              		.cfi_def_cfa_offset 8
 2041 0073 C3       		ret
 2042              		.p2align 4,,10
 2043 0074 0F1F4000 		.p2align 3
 2044              	.L148:
 2045              		.cfi_restore_state
 2046 0078 4C8DAC24 		leaq	192(%rsp), %r13
 2046      C0000000 
 2047 0080 4889F5   		movq	%rsi, %rbp
 2048 0083 4889D3   		movq	%rdx, %rbx
 2049 0086 4C89EF   		movq	%r13, %rdi
 2050 0089 E8000000 		call	_ZNSt8ios_baseC2Ev@PLT
 2050      00
 2051 008e 31C0     		xorl	%eax, %eax
 2052 0090 660FEFC0 		pxor	%xmm0, %xmm0
 2053 0094 31F6     		xorl	%esi, %esi
 2054 0096 66898424 		movw	%ax, 416(%rsp)
 2054      A0010000 
 2055 009e 488D0500 		leaq	24+_ZTCN8UnitTest15MemoryOutStreamE0_So(%rip), %rax
 2055      000000
 2056 00a5 4C89EF   		movq	%r13, %rdi
 2057 00a8 48894424 		movq	%rax, 48(%rsp)
 2057      30
 2058 00ad 4883C028 		addq	$40, %rax
 2059 00b1 48C78424 		movq	$0, 408(%rsp)
 2059      98010000 
 2059      00000000 
 2060 00bd 48898424 		movq	%rax, 192(%rsp)
 2060      C0000000 
 2061 00c5 0F118424 		movups	%xmm0, 424(%rsp)
 2061      A8010000 
 2062 00cd 0F118424 		movups	%xmm0, 440(%rsp)
 2062      B8010000 
 2063              	.LEHB37:
 2064 00d5 E8000000 		call	_ZNSt9basic_iosIcSt11char_traitsIcEE4initEPSt15basic_streambufIcS1_E@PLT
 2064      00
 2065              	.LEHE37:
 2066 00da 660F6F0C 		movdqa	(%rsp), %xmm1
 2066      24
 2067 00df 4C8D7424 		leaq	112(%rsp), %r14
 2067      70
 2068 00e4 660FEFC0 		pxor	%xmm0, %xmm0
 2069 00e8 488D0500 		leaq	64+_ZTCN8UnitTest15MemoryOutStreamE0_NSt7__cxx1119basic_ostringstreamIcSt11char_traitsIcESaIc
 2069      000000
 2070 00ef 4C89F7   		movq	%r14, %rdi
 2071 00f2 0F294424 		movaps	%xmm0, 64(%rsp)
 2071      40
 2072 00f7 4C8D6424 		leaq	48(%rsp), %r12
 2072      30
 2073 00fc 4C8D7C24 		leaq	56(%rsp), %r15
 2073      38
 2074 0101 48898424 		movq	%rax, 192(%rsp)
 2074      C0000000 
 2075 0109 0F294C24 		movaps	%xmm1, 48(%rsp)
 2075      30
 2076 010e 0F294424 		movaps	%xmm0, 80(%rsp)
 2076      50
 2077 0113 0F294424 		movaps	%xmm0, 96(%rsp)
 2077      60
 2078 0118 E8000000 		call	_ZNSt6localeC1Ev@PLT
 2078      00
 2079 011d 488D0500 		leaq	16+_ZTVNSt7__cxx1115basic_stringbufIcSt11char_traitsIcESaIcEEE(%rip), %rax
 2079      000000
 2080 0124 4C89FE   		movq	%r15, %rsi
 2081 0127 48C78424 		movq	$0, 136(%rsp)
 2081      88000000 
 2081      00000000 
 2082 0133 48894424 		movq	%rax, 56(%rsp)
 2082      38
 2083 0138 488D8424 		leaq	144(%rsp), %rax
 2083      90000000 
 2084 0140 48894424 		movq	%rax, 32(%rsp)
 2084      20
 2085 0145 48898424 		movq	%rax, 128(%rsp)
 2085      80000000 
 2086 014d 488B4424 		movq	48(%rsp), %rax
 2086      30
 2087 0152 C6842490 		movb	$0, 144(%rsp)
 2087      00000000 
 2088 015a 488B78E8 		movq	-24(%rax), %rdi
 2089 015e C7442478 		movl	$16, 120(%rsp)
 2089      10000000 
 2090 0166 4C01E7   		addq	%r12, %rdi
 2091              	.LEHB38:
 2092 0169 E8000000 		call	_ZNSt9basic_iosIcSt11char_traitsIcEE4initEPSt15basic_streambufIcS1_E@PLT
 2092      00
 2093              	.LEHE38:
 2094 016e 4C8D3D00 		leaq	24+_ZTVN8UnitTest15MemoryOutStreamE(%rip), %r15
 2094      000000
 2095 0175 BA090000 		movl	$9, %edx
 2095      00
 2096 017a 4C89E7   		movq	%r12, %rdi
 2097 017d 48C78424 		movq	$0, 168(%rsp)
 2097      A8000000 
 2097      00000000 
 2098 0189 498D4728 		leaq	40(%r15), %rax
 2099 018d 488D3500 		leaq	.LC4(%rip), %rsi
 2099      000000
 2100 0194 4C897C24 		movq	%r15, 48(%rsp)
 2100      30
 2101 0199 48898424 		movq	%rax, 192(%rsp)
 2101      C0000000 
 2102 01a1 488D8424 		leaq	176(%rsp), %rax
 2102      B0000000 
 2103 01a9 48894424 		movq	%rax, 40(%rsp)
 2103      28
 2104 01ae 48898424 		movq	%rax, 160(%rsp)
 2104      A0000000 
 2105 01b6 C68424B0 		movb	$0, 176(%rsp)
 2105      00000000 
 2106              	.LEHB39:
 2107 01be E8000000 		call	_ZSt16__ostream_insertIcSt11char_traitsIcEERSt13basic_ostreamIT_T0_ES6_PKS3_l@PLT
 2107      00
 2108 01c3 8B7500   		movl	0(%rbp), %esi
 2109 01c6 4C89E7   		movq	%r12, %rdi
 2110 01c9 E8000000 		call	_ZNSolsEi@PLT
 2110      00
 2111 01ce BA090000 		movl	$9, %edx
 2111      00
 2112 01d3 488D3500 		leaq	.LC5(%rip), %rsi
 2112      000000
 2113 01da 4889C7   		movq	%rax, %rdi
 2114 01dd 4889C5   		movq	%rax, %rbp
 2115 01e0 E8000000 		call	_ZSt16__ostream_insertIcSt11char_traitsIcEERSt13basic_ostreamIT_T0_ES6_PKS3_l@PLT
 2115      00
 2116 01e5 8B33     		movl	(%rbx), %esi
 2117 01e7 4889EF   		movq	%rbp, %rdi
 2118 01ea E8000000 		call	_ZNSolsEi@PLT
 2118      00
 2119 01ef 4C89E7   		movq	%r12, %rdi
 2120 01f2 E8000000 		call	_ZNK8UnitTest15MemoryOutStream7GetTextEv@PLT
 2120      00
 2121 01f7 488B7424 		movq	24(%rsp), %rsi
 2121      18
 2122 01fc 488B7C24 		movq	16(%rsp), %rdi
 2122      10
 2123 0201 4889C2   		movq	%rax, %rdx
 2124 0204 F30F7E15 		movq	.LC12(%rip), %xmm2
 2124      00000000 
 2125 020c 0F161500 		movhps	.LC14(%rip), %xmm2
 2125      000000
 2126 0213 0F291424 		movaps	%xmm2, (%rsp)
 2127 0217 E8000000 		call	_ZN8UnitTest11TestResults13OnTestFailureERKNS_11TestDetailsEPKc@PLT
 2127      00
 2128              	.LEHE39:
 2129 021c 488D0500 		leaq	64+_ZTVN8UnitTest15MemoryOutStreamE(%rip), %rax
 2129      000000
 2130 0223 4C897C24 		movq	%r15, 48(%rsp)
 2130      30
 2131 0228 488BBC24 		movq	160(%rsp), %rdi
 2131      A0000000 
 2132 0230 48898424 		movq	%rax, 192(%rsp)
 2132      C0000000 
 2133 0238 483B7C24 		cmpq	40(%rsp), %rdi
 2133      28
 2134 023d 7405     		je	.L138
 2135 023f E8000000 		call	_ZdlPv@PLT
 2135      00
 2136              	.L138:
 2137 0244 660F6F1C 		movdqa	(%rsp), %xmm3
 2137      24
 2138 0249 488D0500 		leaq	64+_ZTCN8UnitTest15MemoryOutStreamE0_NSt7__cxx1119basic_ostringstreamIcSt11char_traitsIcESaIc
 2138      000000
 2139 0250 488BBC24 		movq	128(%rsp), %rdi
 2139      80000000 
 2140 0258 48898424 		movq	%rax, 192(%rsp)
 2140      C0000000 
 2141 0260 0F295C24 		movaps	%xmm3, 48(%rsp)
 2141      30
 2142 0265 483B7C24 		cmpq	32(%rsp), %rdi
 2142      20
 2143 026a 7405     		je	.L139
 2144 026c E8000000 		call	_ZdlPv@PLT
 2144      00
 2145              	.L139:
 2146 0271 488D0500 		leaq	16+_ZTVSt15basic_streambufIcSt11char_traitsIcEE(%rip), %rax
 2146      000000
 2147 0278 4C89F7   		movq	%r14, %rdi
 2148 027b 48894424 		movq	%rax, 56(%rsp)
 2148      38
 2149 0280 E8000000 		call	_ZNSt6localeD1Ev@PLT
 2149      00
 2150 0285 488D0500 		leaq	24+_ZTCN8UnitTest15MemoryOutStreamE0_So(%rip), %rax
 2150      000000
 2151 028c 4C89EF   		movq	%r13, %rdi
 2152 028f 48894424 		movq	%rax, 48(%rsp)
 2152      30
 2153 0294 488D0500 		leaq	16+_ZTVSt9basic_iosIcSt11char_traitsIcEE(%rip), %rax
 2153      000000
 2154 029b 48898424 		movq	%rax, 192(%rsp)
 2154      C0000000 
 2155              	.LEHB40:
 2156 02a3 E8000000 		call	_ZNSt8ios_baseD2Ev@PLT
 2156      00
 2157              	.LEHE40:
 2158 02a8 E99EFDFF 		jmp	.L132
 2158      FF
 2159              	.L149:
 2160 02ad E8000000 		call	__stack_chk_fail@PLT
 2160      00
 2161              	.L143:
 2162 02b2 F30F1EFA 		endbr64
 2163 02b6 4889C5   		movq	%rax, %rbp
 2164 02b9 EB26     		jmp	.L136
 2165              	.L144:
 2166 02bb F30F1EFA 		endbr64
 2167 02bf 4889C5   		movq	%rax, %rbp
 2168 02c2 EB09     		jmp	.L135
 2169              	.L142:
 2170 02c4 F30F1EFA 		endbr64
 2171 02c8 4889C5   		movq	%rax, %rbp
 2172 02cb EB33     		jmp	.L140
 2173              	.L135:
 2174 02cd 4C89FF   		movq	%r15, %rdi
 2175 02d0 E8000000 		call	_ZNSt7__cxx1115basic_stringbufIcSt11char_traitsIcESaIcEED1Ev
 2175      00
 2176 02d5 488D0500 		leaq	24+_ZTCN8UnitTest15MemoryOutStreamE0_So(%rip), %rax
 2176      000000
 2177 02dc 48894424 		movq	%rax, 48(%rsp)
 2177      30
 2178              	.L136:
 2179 02e1 488D0500 		leaq	16+_ZTVSt9basic_iosIcSt11char_traitsIcEE(%rip), %rax
 2179      000000
 2180 02e8 4C89EF   		movq	%r13, %rdi
 2181 02eb 48898424 		movq	%rax, 192(%rsp)
 2181      C0000000 
 2182 02f3 E8000000 		call	_ZNSt8ios_baseD2Ev@PLT
 2182      00
 2183 02f8 4889EF   		movq	%rbp, %rdi
 2184              	.LEHB41:
 2185 02fb E8000000 		call	_Unwind_Resume@PLT
 2185      00
 2186              	.LEHE41:
 2187              	.L140:
 2188 0300 4C89E7   		movq	%r12, %rdi
 2189 0303 E8000000 		call	_ZN8UnitTest15MemoryOutStreamD1Ev
 2189      00
 2190 0308 4889EF   		movq	%rbp, %rdi
 2191              	.LEHB42:
 2192 030b E8000000 		call	_Unwind_Resume@PLT
 2192      00
 2193              	.LEHE42:
 2194              		.cfi_endproc
 2195              	.LFE1297:
 2196              		.section	.gcc_except_table
 2197              	.LLSDA1297:
 2198 009c FF       		.byte	0xff
 2199 009d FF       		.byte	0xff
 2200 009e 01       		.byte	0x1
 2201 009f 21       		.uleb128 .LLSDACSE1297-.LLSDACSB1297
 2202              	.LLSDACSB1297:
 2203 00a0 D501     		.uleb128 .LEHB37-.LFB1297
 2204 00a2 05       		.uleb128 .LEHE37-.LEHB37
 2205 00a3 B205     		.uleb128 .L143-.LFB1297
 2206 00a5 00       		.uleb128 0
 2207 00a6 E902     		.uleb128 .LEHB38-.LFB1297
 2208 00a8 05       		.uleb128 .LEHE38-.LEHB38
 2209 00a9 BB05     		.uleb128 .L144-.LFB1297
 2210 00ab 00       		.uleb128 0
 2211 00ac BE03     		.uleb128 .LEHB39-.LFB1297
 2212 00ae 5E       		.uleb128 .LEHE39-.LEHB39
 2213 00af C405     		.uleb128 .L142-.LFB1297
 2214 00b1 00       		.uleb128 0
 2215 00b2 A305     		.uleb128 .LEHB40-.LFB1297
 2216 00b4 05       		.uleb128 .LEHE40-.LEHB40
 2217 00b5 00       		.uleb128 0
 2218 00b6 00       		.uleb128 0
 2219 00b7 FB05     		.uleb128 .LEHB41-.LFB1297
 2220 00b9 05       		.uleb128 .LEHE41-.LEHB41
 2221 00ba 00       		.uleb128 0
 2222 00bb 00       		.uleb128 0
 2223 00bc 8B06     		.uleb128 .LEHB42-.LFB1297
 2224 00be 05       		.uleb128 .LEHE42-.LEHB42
 2225 00bf 00       		.uleb128 0
 2226 00c0 00       		.uleb128 0
 2227              	.LLSDACSE1297:
 2228              		.section	.text._ZN8UnitTest10CheckEqualI8FLStatusS1_EEvRNS_11TestResultsERKT_RKT0_RKNS_11TestDetai
 2230              		.section	.rodata.str1.8
 2231 00dd 000000   		.align 8
 2232              	.LC16:
 2233 00e0 556E6861 		.string	"Unhandled exception in CHECK_EQUAL(FL_SUCCESS, fStatus)"
 2233      6E646C65 
 2233      64206578 
 2233      63657074 
 2233      696F6E20 
 2234              		.align 8
 2235              	.LC17:
 2236 0118 556E6861 		.string	"Unhandled exception in CHECK_EQUAL(expectedLength, buf->length)"
 2236      6E646C65 
 2236      64206578 
 2236      63657074 
 2236      696F6E20 
 2237              		.align 8
 2238              	.LC18:
 2239 0158 556E6861 		.string	"Unhandled exception in CHECK_EQUAL(expected, result)"
 2239      6E646C65 
 2239      64206578 
 2239      63657074 
 2239      696F6E20 
 2240              		.section	.text.unlikely
 2241              	.LCOLDB19:
 2242              		.text
 2243              	.LHOTB19:
 2244 0da2 66662E0F 		.p2align 4
 2244      1F840000 
 2244      0000000F 
 2244      1F00
 2245              		.globl	_Z13testReadBytesP6BufferPKc
 2247              	_Z13testReadBytesP6BufferPKc:
 2248              	.LFB1243:
 2249              		.cfi_startproc
 2250              		.cfi_personality 0x9b,DW.ref.__gxx_personality_v0
 2251              		.cfi_lsda 0x1b,.LLSDA1243
 2252 0db0 F30F1EFA 		endbr64
 2253 0db4 4157     		pushq	%r15
 2254              		.cfi_def_cfa_offset 16
 2255              		.cfi_offset 15, -16
 2256 0db6 4156     		pushq	%r14
 2257              		.cfi_def_cfa_offset 24
 2258              		.cfi_offset 14, -24
 2259 0db8 4155     		pushq	%r13
 2260              		.cfi_def_cfa_offset 32
 2261              		.cfi_offset 13, -32
 2262 0dba 4989F5   		movq	%rsi, %r13
 2263 0dbd 4154     		pushq	%r12
 2264              		.cfi_def_cfa_offset 40
 2265              		.cfi_offset 12, -40
 2266 0dbf 55       		pushq	%rbp
 2267              		.cfi_def_cfa_offset 48
 2268              		.cfi_offset 6, -48
 2269 0dc0 53       		pushq	%rbx
 2270              		.cfi_def_cfa_offset 56
 2271              		.cfi_offset 3, -56
 2272 0dc1 4889FB   		movq	%rdi, %rbx
 2273 0dc4 4889F7   		movq	%rsi, %rdi
 2274 0dc7 4881EC18 		subq	$1560, %rsp
 2274      060000
 2275              		.cfi_def_cfa_offset 1616
 2276 0dce 64488B04 		movq	%fs:40, %rax
 2276      25280000 
 2276      00
 2277 0dd7 48898424 		movq	%rax, 1544(%rsp)
 2277      08060000 
 2278 0ddf 31C0     		xorl	%eax, %eax
 2279 0de1 E8000000 		call	strlen@PLT
 2279      00
 2280 0de6 4889DF   		movq	%rbx, %rdi
 2281 0de9 4189C4   		movl	%eax, %r12d
 2282              	.LEHB43:
 2283 0dec E8000000 		call	bufZeroLength@PLT
 2283      00
 2284 0df1 31D2     		xorl	%edx, %edx
 2285 0df3 4C89EE   		movq	%r13, %rsi
 2286 0df6 4889DF   		movq	%rbx, %rdi
 2287 0df9 E8000000 		call	readBytes@PLT
 2287      00
 2288              	.LEHE43:
 2289 0dfe 41D1EC   		shrl	%r12d
 2290 0e01 89442438 		movl	%eax, 56(%rsp)
 2291              	.LEHB44:
 2292 0e05 E8000000 		call	_ZN8UnitTest11CurrentTest7DetailsEv@PLT
 2292      00
 2293 0e0a 488D6C24 		leaq	64(%rsp), %rbp
 2293      40
 2294 0e0f 488B30   		movq	(%rax), %rsi
 2295 0e12 BA210000 		movl	$33, %edx
 2295      00
 2296 0e17 4889EF   		movq	%rbp, %rdi
 2297 0e1a E8000000 		call	_ZN8UnitTest11TestDetailsC1ERKS0_i@PLT
 2297      00
 2298 0e1f C744243C 		movl	$0, 60(%rsp)
 2298      00000000 
 2299 0e27 E8000000 		call	_ZN8UnitTest11CurrentTest7ResultsEv@PLT
 2299      00
 2300 0e2c 488B38   		movq	(%rax), %rdi
 2301 0e2f 488D5424 		leaq	56(%rsp), %rdx
 2301      38
 2302 0e34 488D7424 		leaq	60(%rsp), %rsi
 2302      3C
 2303 0e39 4889E9   		movq	%rbp, %rcx
 2304 0e3c E8000000 		call	_ZN8UnitTest10CheckEqualI8FLStatusS1_EEvRNS_11TestResultsERKT_RKT0_RKNS_11TestDetailsE
 2304      00
 2305              	.LEHE44:
 2306              	.L163:
 2307              	.LEHB45:
 2308 0e41 E8000000 		call	_ZN8UnitTest11CurrentTest7DetailsEv@PLT
 2308      00
 2309 0e46 488B30   		movq	(%rax), %rsi
 2310 0e49 BA220000 		movl	$34, %edx
 2310      00
 2311 0e4e 4889EF   		movq	%rbp, %rdi
 2312 0e51 E8000000 		call	_ZN8UnitTest11TestDetailsC1ERKS0_i@PLT
 2312      00
 2313 0e56 E8000000 		call	_ZN8UnitTest11CurrentTest7ResultsEv@PLT
 2313      00
 2314              	.LEHE45:
 2315 0e5b F30F7E0D 		movq	.LC12(%rip), %xmm1
 2315      00000000 
 2316 0e63 488B00   		movq	(%rax), %rax
 2317 0e66 48890424 		movq	%rax, (%rsp)
 2318 0e6a 488B4308 		movq	8(%rbx), %rax
 2319 0e6e 0F160D00 		movhps	.LC13(%rip), %xmm1
 2319      000000
 2320 0e75 0F294C24 		movaps	%xmm1, 16(%rsp)
 2320      10
 2321 0e7a 4939C4   		cmpq	%rax, %r12
 2322 0e7d 0F85BD00 		jne	.L185
 2322      0000
 2323              	.L165:
 2324 0e83 4801C0   		addq	%rax, %rax
 2325 0e86 7450     		je	.L160
 2326 0e88 4531FF   		xorl	%r15d, %r15d
 2327 0e8b 31D2     		xorl	%edx, %edx
 2328 0e8d 4C8DB424 		leaq	512(%rsp), %r14
 2328      00020000 
 2329 0e95 4C8D2500 		leaq	.LC0(%rip), %r12
 2329      000000
 2330 0e9c 0F1F4000 		.p2align 4,,10
 2331              		.p2align 3
 2332              	.L159:
 2333 0ea0 488B03   		movq	(%rbx), %rax
 2334 0ea3 438D3C3F 		leal	(%r15,%r15), %edi
 2335 0ea7 4C89E1   		movq	%r12, %rcx
 2336 0eaa BE010000 		movl	$1, %esi
 2336      00
 2337 0eaf 4C01F7   		addq	%r14, %rdi
 2338 0eb2 440FB604 		movzbl	(%rax,%rdx), %r8d
 2338      10
 2339 0eb7 48C7C2FF 		movq	$-1, %rdx
 2339      FFFFFF
 2340 0ebe 31C0     		xorl	%eax, %eax
 2341 0ec0 E8000000 		call	__sprintf_chk@PLT
 2341      00
 2342 0ec5 488B4308 		movq	8(%rbx), %rax
 2343 0ec9 418D5701 		leal	1(%r15), %edx
 2344 0ecd 4989D7   		movq	%rdx, %r15
 2345 0ed0 4801C0   		addq	%rax, %rax
 2346 0ed3 4839C2   		cmpq	%rax, %rdx
 2347 0ed6 72C8     		jb	.L159
 2348              	.L160:
 2349 0ed8 C6840400 		movb	$0, 512(%rsp,%rax)
 2349      02000000 
 2350              	.LEHB46:
 2351 0ee0 E8000000 		call	_ZN8UnitTest11CurrentTest7DetailsEv@PLT
 2351      00
 2352 0ee5 488B30   		movq	(%rax), %rsi
 2353 0ee8 BA270000 		movl	$39, %edx
 2353      00
 2354 0eed 4889EF   		movq	%rbp, %rdi
 2355 0ef0 E8000000 		call	_ZN8UnitTest11TestDetailsC1ERKS0_i@PLT
 2355      00
 2356 0ef5 E8000000 		call	_ZN8UnitTest11CurrentTest7ResultsEv@PLT
 2356      00
 2357 0efa 488B38   		movq	(%rax), %rdi
 2358 0efd 488D9424 		leaq	512(%rsp), %rdx
 2358      00020000 
 2359 0f05 4889E9   		movq	%rbp, %rcx
 2360 0f08 4C89EE   		movq	%r13, %rsi
 2361 0f0b E8000000 		call	_ZN8UnitTest10CheckEqualERNS_11TestResultsEPKcPcRKNS_11TestDetailsE@PLT
 2361      00
 2362              	.LEHE46:
 2363              	.L150:
 2364 0f10 488B8424 		movq	1544(%rsp), %rax
 2364      08060000 
 2365 0f18 64482B04 		subq	%fs:40, %rax
 2365      25280000 
 2365      00
 2366 0f21 0F856502 		jne	.L186
 2366      0000
 2367 0f27 4881C418 		addq	$1560, %rsp
 2367      060000
 2368              		.cfi_remember_state
 2369              		.cfi_def_cfa_offset 56
 2370 0f2e 5B       		popq	%rbx
 2371              		.cfi_def_cfa_offset 48
 2372 0f2f 5D       		popq	%rbp
 2373              		.cfi_def_cfa_offset 40
 2374 0f30 415C     		popq	%r12
 2375              		.cfi_def_cfa_offset 32
 2376 0f32 415D     		popq	%r13
 2377              		.cfi_def_cfa_offset 24
 2378 0f34 415E     		popq	%r14
 2379              		.cfi_def_cfa_offset 16
 2380 0f36 415F     		popq	%r15
 2381              		.cfi_def_cfa_offset 8
 2382 0f38 C3       		ret
 2383 0f39 0F1F8000 		.p2align 4,,10
 2383      000000
 2384              		.p2align 3
 2385              	.L185:
 2386              		.cfi_restore_state
 2387 0f40 4C8DBC24 		leaq	240(%rsp), %r15
 2387      F0000000 
 2388 0f48 4C89FF   		movq	%r15, %rdi
 2389 0f4b E8000000 		call	_ZNSt8ios_baseC2Ev@PLT
 2389      00
 2390 0f50 31C0     		xorl	%eax, %eax
 2391 0f52 660FEFC0 		pxor	%xmm0, %xmm0
 2392 0f56 31F6     		xorl	%esi, %esi
 2393 0f58 66898424 		movw	%ax, 464(%rsp)
 2393      D0010000 
 2394 0f60 488D0500 		leaq	24+_ZTCN8UnitTest15MemoryOutStreamE0_So(%rip), %rax
 2394      000000
 2395 0f67 4C89FF   		movq	%r15, %rdi
 2396 0f6a 48894424 		movq	%rax, 96(%rsp)
 2396      60
 2397 0f6f 4883C028 		addq	$40, %rax
 2398 0f73 48C78424 		movq	$0, 456(%rsp)
 2398      C8010000 
 2398      00000000 
 2399 0f7f 48898424 		movq	%rax, 240(%rsp)
 2399      F0000000 
 2400 0f87 0F118424 		movups	%xmm0, 472(%rsp)
 2400      D8010000 
 2401 0f8f 0F118424 		movups	%xmm0, 488(%rsp)
 2401      E8010000 
 2402              	.LEHB47:
 2403 0f97 E8000000 		call	_ZNSt9basic_iosIcSt11char_traitsIcEE4initEPSt15basic_streambufIcS1_E@PLT
 2403      00
 2404              	.LEHE47:
 2405 0f9c 488D0500 		leaq	64+_ZTCN8UnitTest15MemoryOutStreamE0_NSt7__cxx1119basic_ostringstreamIcSt11char_traitsIcESaIc
 2405      000000
 2406 0fa3 660F6F4C 		movdqa	16(%rsp), %xmm1
 2406      2410
 2407 0fa9 660FEFC0 		pxor	%xmm0, %xmm0
 2408 0fad 4C8D7424 		leaq	96(%rsp), %r14
 2408      60
 2409 0fb2 48898424 		movq	%rax, 240(%rsp)
 2409      F0000000 
 2410 0fba 488D8424 		leaq	160(%rsp), %rax
 2410      A0000000 
 2411 0fc2 4889C7   		movq	%rax, %rdi
 2412 0fc5 48894424 		movq	%rax, 40(%rsp)
 2412      28
 2413 0fca 0F294C24 		movaps	%xmm1, 96(%rsp)
 2413      60
 2414 0fcf 0F294424 		movaps	%xmm0, 112(%rsp)
 2414      70
 2415 0fd4 0F298424 		movaps	%xmm0, 128(%rsp)
 2415      80000000 
 2416 0fdc 0F298424 		movaps	%xmm0, 144(%rsp)
 2416      90000000 
 2417 0fe4 E8000000 		call	_ZNSt6localeC1Ev@PLT
 2417      00
 2418 0fe9 488D0500 		leaq	16+_ZTVNSt7__cxx1115basic_stringbufIcSt11char_traitsIcESaIcEEE(%rip), %rax
 2418      000000
 2419 0ff0 488D7424 		leaq	104(%rsp), %rsi
 2419      68
 2420 0ff5 48C78424 		movq	$0, 184(%rsp)
 2420      B8000000 
 2420      00000000 
 2421 1001 48894424 		movq	%rax, 104(%rsp)
 2421      68
 2422 1006 488D8424 		leaq	192(%rsp), %rax
 2422      C0000000 
 2423 100e 48894424 		movq	%rax, 16(%rsp)
 2423      10
 2424 1013 48898424 		movq	%rax, 176(%rsp)
 2424      B0000000 
 2425 101b 488B4424 		movq	96(%rsp), %rax
 2425      60
 2426 1020 C68424C0 		movb	$0, 192(%rsp)
 2426      00000000 
 2427 1028 488B78E8 		movq	-24(%rax), %rdi
 2428 102c 48897424 		movq	%rsi, 32(%rsp)
 2428      20
 2429 1031 C78424A8 		movl	$16, 168(%rsp)
 2429      00000010 
 2429      000000
 2430 103c 4C01F7   		addq	%r14, %rdi
 2431              	.LEHB48:
 2432 103f E8000000 		call	_ZNSt9basic_iosIcSt11char_traitsIcEE4initEPSt15basic_streambufIcS1_E@PLT
 2432      00
 2433              	.LEHE48:
 2434 1044 488D0500 		leaq	24+_ZTVN8UnitTest15MemoryOutStreamE(%rip), %rax
 2434      000000
 2435 104b BA090000 		movl	$9, %edx
 2435      00
 2436 1050 4C89F7   		movq	%r14, %rdi
 2437 1053 48C78424 		movq	$0, 216(%rsp)
 2437      D8000000 
 2437      00000000 
 2438 105f 48894424 		movq	%rax, 96(%rsp)
 2438      60
 2439 1064 4883C028 		addq	$40, %rax
 2440 1068 488D3500 		leaq	.LC4(%rip), %rsi
 2440      000000
 2441 106f 48898424 		movq	%rax, 240(%rsp)
 2441      F0000000 
 2442 1077 488D8424 		leaq	224(%rsp), %rax
 2442      E0000000 
 2443 107f 48894424 		movq	%rax, 32(%rsp)
 2443      20
 2444 1084 48898424 		movq	%rax, 208(%rsp)
 2444      D0000000 
 2445 108c C68424E0 		movb	$0, 224(%rsp)
 2445      00000000 
 2446              	.LEHB49:
 2447 1094 E8000000 		call	_ZSt16__ostream_insertIcSt11char_traitsIcEERSt13basic_ostreamIT_T0_ES6_PKS3_l@PLT
 2447      00
 2448 1099 4C89E6   		movq	%r12, %rsi
 2449 109c 4C89F7   		movq	%r14, %rdi
 2450 109f E8000000 		call	_ZNSo9_M_insertImEERSoT_@PLT
 2450      00
 2451 10a4 BA090000 		movl	$9, %edx
 2451      00
 2452 10a9 488D3500 		leaq	.LC5(%rip), %rsi
 2452      000000
 2453 10b0 4889C7   		movq	%rax, %rdi
 2454 10b3 4989C4   		movq	%rax, %r12
 2455 10b6 E8000000 		call	_ZSt16__ostream_insertIcSt11char_traitsIcEERSt13basic_ostreamIT_T0_ES6_PKS3_l@PLT
 2455      00
 2456 10bb 488B7308 		movq	8(%rbx), %rsi
 2457 10bf 4C89E7   		movq	%r12, %rdi
 2458 10c2 E8000000 		call	_ZNSo9_M_insertImEERSoT_@PLT
 2458      00
 2459 10c7 4C89F7   		movq	%r14, %rdi
 2460 10ca E8000000 		call	_ZNK8UnitTest15MemoryOutStream7GetTextEv@PLT
 2460      00
 2461 10cf 488B3C24 		movq	(%rsp), %rdi
 2462 10d3 4889C2   		movq	%rax, %rdx
 2463 10d6 4889EE   		movq	%rbp, %rsi
 2464 10d9 E8000000 		call	_ZN8UnitTest11TestResults13OnTestFailureERKNS_11TestDetailsEPKc@PLT
 2464      00
 2465              	.LEHE49:
 2466 10de 488D0500 		leaq	24+_ZTVN8UnitTest15MemoryOutStreamE(%rip), %rax
 2466      000000
 2467 10e5 488BBC24 		movq	208(%rsp), %rdi
 2467      D0000000 
 2468 10ed F30F7E05 		movq	.LC12(%rip), %xmm0
 2468      00000000 
 2469 10f5 48894424 		movq	%rax, 96(%rsp)
 2469      60
 2470 10fa 4883C028 		addq	$40, %rax
 2471 10fe 48898424 		movq	%rax, 240(%rsp)
 2471      F0000000 
 2472 1106 0F160500 		movhps	.LC14(%rip), %xmm0
 2472      000000
 2473 110d 483B7C24 		cmpq	32(%rsp), %rdi
 2473      20
 2474 1112 740E     		je	.L157
 2475 1114 0F290424 		movaps	%xmm0, (%rsp)
 2476 1118 E8000000 		call	_ZdlPv@PLT
 2476      00
 2477 111d 660F6F04 		movdqa	(%rsp), %xmm0
 2477      24
 2478              	.L157:
 2479 1122 488D0500 		leaq	64+_ZTCN8UnitTest15MemoryOutStreamE0_NSt7__cxx1119basic_ostringstreamIcSt11char_traitsIcESaIc
 2479      000000
 2480 1129 488BBC24 		movq	176(%rsp), %rdi
 2480      B0000000 
 2481 1131 0F294424 		movaps	%xmm0, 96(%rsp)
 2481      60
 2482 1136 48898424 		movq	%rax, 240(%rsp)
 2482      F0000000 
 2483 113e 483B7C24 		cmpq	16(%rsp), %rdi
 2483      10
 2484 1143 7405     		je	.L158
 2485 1145 E8000000 		call	_ZdlPv@PLT
 2485      00
 2486              	.L158:
 2487 114a 488B7C24 		movq	40(%rsp), %rdi
 2487      28
 2488 114f 488D0500 		leaq	16+_ZTVSt15basic_streambufIcSt11char_traitsIcEE(%rip), %rax
 2488      000000
 2489 1156 48894424 		movq	%rax, 104(%rsp)
 2489      68
 2490 115b E8000000 		call	_ZNSt6localeD1Ev@PLT
 2490      00
 2491 1160 488D0500 		leaq	24+_ZTCN8UnitTest15MemoryOutStreamE0_So(%rip), %rax
 2491      000000
 2492 1167 4C89FF   		movq	%r15, %rdi
 2493 116a 48894424 		movq	%rax, 96(%rsp)
 2493      60
 2494 116f 488D0500 		leaq	16+_ZTVSt9basic_iosIcSt11char_traitsIcEE(%rip), %rax
 2494      000000
 2495 1176 48898424 		movq	%rax, 240(%rsp)
 2495      F0000000 
 2496              	.LEHB50:
 2497 117e E8000000 		call	_ZNSt8ios_baseD2Ev@PLT
 2497      00
 2498              	.LEHE50:
 2499 1183 488B4308 		movq	8(%rbx), %rax
 2500 1187 E9F7FCFF 		jmp	.L165
 2500      FF
 2501              	.L186:
 2502 118c E8000000 		call	__stack_chk_fail@PLT
 2502      00
 2503              	.L176:
 2504 1191 F30F1EFA 		endbr64
 2505 1195 4889C7   		movq	%rax, %rdi
 2506 1198 E9000000 		jmp	.L167
 2506      00
 2507              	.L174:
 2508 119d F30F1EFA 		endbr64
 2509 11a1 4989C4   		movq	%rax, %r12
 2510 11a4 E9000000 		jmp	.L156
 2510      00
 2511              	.L172:
 2512 11a9 F30F1EFA 		endbr64
 2513 11ad 4889C7   		movq	%rax, %rdi
 2514 11b0 E9000000 		jmp	.L162
 2514      00
 2515              	.L179:
 2516 11b5 F30F1EFA 		endbr64
 2517 11b9 4989C4   		movq	%rax, %r12
 2518 11bc E9000000 		jmp	.L154
 2518      00
 2519              	.L180:
 2520 11c1 F30F1EFA 		endbr64
 2521 11c5 4989C4   		movq	%rax, %r12
 2522 11c8 E9000000 		jmp	.L153
 2522      00
 2523              	.L178:
 2524 11cd F30F1EFA 		endbr64
 2525 11d1 4989C4   		movq	%rax, %r12
 2526 11d4 E9000000 		jmp	.L161
 2526      00
 2527              		.section	.gcc_except_table
 2528 00c1 000000   		.align 4
 2529              	.LLSDA1243:
 2530 00c4 FF       		.byte	0xff
 2531 00c5 9B       		.byte	0x9b
 2532 00c6 39       		.uleb128 .LLSDATT1243-.LLSDATTD1243
 2533              	.LLSDATTD1243:
 2534 00c7 01       		.byte	0x1
 2535 00c8 2D       		.uleb128 .LLSDACSE1243-.LLSDACSB1243
 2536              	.LLSDACSB1243:
 2537 00c9 3C       		.uleb128 .LEHB43-.LFB1243
 2538 00ca 12       		.uleb128 .LEHE43-.LEHB43
 2539 00cb 00       		.uleb128 0
 2540 00cc 00       		.uleb128 0
 2541 00cd 55       		.uleb128 .LEHB44-.LFB1243
 2542 00ce 3C       		.uleb128 .LEHE44-.LEHB44
 2543 00cf F907     		.uleb128 .L172-.LFB1243
 2544 00d1 01       		.uleb128 0x1
 2545 00d2 9101     		.uleb128 .LEHB45-.LFB1243
 2546 00d4 1A       		.uleb128 .LEHE45-.LEHB45
 2547 00d5 ED07     		.uleb128 .L174-.LFB1243
 2548 00d7 01       		.uleb128 0x1
 2549 00d8 B002     		.uleb128 .LEHB46-.LFB1243
 2550 00da 30       		.uleb128 .LEHE46-.LEHB46
 2551 00db E107     		.uleb128 .L176-.LFB1243
 2552 00dd 01       		.uleb128 0x1
 2553 00de E703     		.uleb128 .LEHB47-.LFB1243
 2554 00e0 05       		.uleb128 .LEHE47-.LEHB47
 2555 00e1 8508     		.uleb128 .L179-.LFB1243
 2556 00e3 03       		.uleb128 0x3
 2557 00e4 8F05     		.uleb128 .LEHB48-.LFB1243
 2558 00e6 05       		.uleb128 .LEHE48-.LEHB48
 2559 00e7 9108     		.uleb128 .L180-.LFB1243
 2560 00e9 03       		.uleb128 0x3
 2561 00ea E405     		.uleb128 .LEHB49-.LFB1243
 2562 00ec 4A       		.uleb128 .LEHE49-.LEHB49
 2563 00ed 9D08     		.uleb128 .L178-.LFB1243
 2564 00ef 03       		.uleb128 0x3
 2565 00f0 CE07     		.uleb128 .LEHB50-.LFB1243
 2566 00f2 05       		.uleb128 .LEHE50-.LEHB50
 2567 00f3 ED07     		.uleb128 .L174-.LFB1243
 2568 00f5 01       		.uleb128 0x1
 2569              	.LLSDACSE1243:
 2570 00f6 01       		.byte	0x1
 2571 00f7 00       		.byte	0
 2572 00f8 00       		.byte	0
 2573 00f9 7D       		.byte	0x7d
 2574 00fa 0000     		.align 4
 2575 00fc 00000000 		.long	0
 2576              	
 2577              	.LLSDATT1243:
 2578              		.text
 2579              		.cfi_endproc
 2580              		.section	.text.unlikely
 2581              		.cfi_startproc
 2582              		.cfi_personality 0x9b,DW.ref.__gxx_personality_v0
 2583              		.cfi_lsda 0x1b,.LLSDAC1243
 2585              	_Z13testReadBytesP6BufferPKc.cold:
 2586              	.LFSB1243:
 2587              	.L167:
 2588              		.cfi_def_cfa_offset 1616
 2589              		.cfi_offset 3, -56
 2590              		.cfi_offset 6, -48
 2591              		.cfi_offset 12, -40
 2592              		.cfi_offset 13, -32
 2593              		.cfi_offset 14, -24
 2594              		.cfi_offset 15, -16
 2595 0197 E8000000 		call	__cxa_begin_catch@PLT
 2595      00
 2596              	.LEHB51:
 2597 019c E8000000 		call	_ZN8UnitTest11CurrentTest7ResultsEv@PLT
 2597      00
 2598 01a1 4C8B20   		movq	(%rax), %r12
 2599 01a4 E8000000 		call	_ZN8UnitTest11CurrentTest7DetailsEv@PLT
 2599      00
 2600 01a9 488B30   		movq	(%rax), %rsi
 2601 01ac BA270000 		movl	$39, %edx
 2601      00
 2602 01b1 4889EF   		movq	%rbp, %rdi
 2603 01b4 E8000000 		call	_ZN8UnitTest11TestDetailsC1ERKS0_i@PLT
 2603      00
 2604 01b9 488D1500 		leaq	.LC18(%rip), %rdx
 2604      000000
 2605 01c0 4889EE   		movq	%rbp, %rsi
 2606 01c3 4C89E7   		movq	%r12, %rdi
 2607 01c6 E8000000 		call	_ZN8UnitTest11TestResults13OnTestFailureERKNS_11TestDetailsEPKc@PLT
 2607      00
 2608              	.LEHE51:
 2609              	.LEHB52:
 2610 01cb E8000000 		call	__cxa_end_catch@PLT
 2610      00
 2611              	.LEHE52:
 2612 01d0 E9000000 		jmp	.L150
 2612      00
 2613              	.L153:
 2614 01d5 488B7C24 		movq	32(%rsp), %rdi
 2614      20
 2615 01da E8000000 		call	_ZNSt7__cxx1115basic_stringbufIcSt11char_traitsIcESaIcEED1Ev
 2615      00
 2616 01df 488D0500 		leaq	24+_ZTCN8UnitTest15MemoryOutStreamE0_So(%rip), %rax
 2616      000000
 2617 01e6 48894424 		movq	%rax, 96(%rsp)
 2617      60
 2618              	.L154:
 2619 01eb 488D0500 		leaq	16+_ZTVSt9basic_iosIcSt11char_traitsIcEE(%rip), %rax
 2619      000000
 2620 01f2 4C89FF   		movq	%r15, %rdi
 2621 01f5 48898424 		movq	%rax, 240(%rsp)
 2621      F0000000 
 2622 01fd E8000000 		call	_ZNSt8ios_baseD2Ev@PLT
 2622      00
 2623              	.L156:
 2624 0202 4C89E7   		movq	%r12, %rdi
 2625 0205 E8000000 		call	__cxa_begin_catch@PLT
 2625      00
 2626              	.LEHB53:
 2627 020a E8000000 		call	_ZN8UnitTest11CurrentTest7ResultsEv@PLT
 2627      00
 2628 020f 4C8B20   		movq	(%rax), %r12
 2629 0212 E8000000 		call	_ZN8UnitTest11CurrentTest7DetailsEv@PLT
 2629      00
 2630 0217 488B30   		movq	(%rax), %rsi
 2631 021a BA220000 		movl	$34, %edx
 2631      00
 2632 021f 4889EF   		movq	%rbp, %rdi
 2633 0222 E8000000 		call	_ZN8UnitTest11TestDetailsC1ERKS0_i@PLT
 2633      00
 2634 0227 488D1500 		leaq	.LC17(%rip), %rdx
 2634      000000
 2635 022e 4889EE   		movq	%rbp, %rsi
 2636 0231 4C89E7   		movq	%r12, %rdi
 2637 0234 E8000000 		call	_ZN8UnitTest11TestResults13OnTestFailureERKNS_11TestDetailsEPKc@PLT
 2637      00
 2638              	.LEHE53:
 2639              	.LEHB54:
 2640 0239 E8000000 		call	__cxa_end_catch@PLT
 2640      00
 2641              	.LEHE54:
 2642 023e 488B4308 		movq	8(%rbx), %rax
 2643 0242 E9000000 		jmp	.L165
 2643      00
 2644              	.L177:
 2645 0247 F30F1EFA 		endbr64
 2646 024b 4889C5   		movq	%rax, %rbp
 2647 024e E8000000 		call	__cxa_end_catch@PLT
 2647      00
 2648 0253 4889EF   		movq	%rbp, %rdi
 2649              	.LEHB55:
 2650 0256 E8000000 		call	_Unwind_Resume@PLT
 2650      00
 2651              	.LEHE55:
 2652              	.L175:
 2653 025b F30F1EFA 		endbr64
 2654 025f 4889C5   		movq	%rax, %rbp
 2655 0262 E8000000 		call	__cxa_end_catch@PLT
 2655      00
 2656 0267 4889EF   		movq	%rbp, %rdi
 2657              	.LEHB56:
 2658 026a E8000000 		call	_Unwind_Resume@PLT
 2658      00
 2659              	.LEHE56:
 2660              	.L162:
 2661 026f E8000000 		call	__cxa_begin_catch@PLT
 2661      00
 2662              	.LEHB57:
 2663 0274 E8000000 		call	_ZN8UnitTest11CurrentTest7ResultsEv@PLT
 2663      00
 2664 0279 4C8B30   		movq	(%rax), %r14
 2665 027c E8000000 		call	_ZN8UnitTest11CurrentTest7DetailsEv@PLT
 2665      00
 2666 0281 488D6C24 		leaq	64(%rsp), %rbp
 2666      40
 2667 0286 488B30   		movq	(%rax), %rsi
 2668 0289 BA210000 		movl	$33, %edx
 2668      00
 2669 028e 4889EF   		movq	%rbp, %rdi
 2670 0291 E8000000 		call	_ZN8UnitTest11TestDetailsC1ERKS0_i@PLT
 2670      00
 2671 0296 488D1500 		leaq	.LC16(%rip), %rdx
 2671      000000
 2672 029d 4889EE   		movq	%rbp, %rsi
 2673 02a0 4C89F7   		movq	%r14, %rdi
 2674 02a3 E8000000 		call	_ZN8UnitTest11TestResults13OnTestFailureERKNS_11TestDetailsEPKc@PLT
 2674      00
 2675              	.LEHE57:
 2676              	.LEHB58:
 2677 02a8 E8000000 		call	__cxa_end_catch@PLT
 2677      00
 2678              	.LEHE58:
 2679 02ad E9000000 		jmp	.L163
 2679      00
 2680              	.L173:
 2681 02b2 F30F1EFA 		endbr64
 2682 02b6 4889C5   		movq	%rax, %rbp
 2683 02b9 E8000000 		call	__cxa_end_catch@PLT
 2683      00
 2684 02be 4889EF   		movq	%rbp, %rdi
 2685              	.LEHB59:
 2686 02c1 E8000000 		call	_Unwind_Resume@PLT
 2686      00
 2687              	.LEHE59:
 2688              	.L161:
 2689 02c6 4C89F7   		movq	%r14, %rdi
 2690 02c9 E8000000 		call	_ZN8UnitTest15MemoryOutStreamD1Ev
 2690      00
 2691 02ce E92FFFFF 		jmp	.L156
 2691      FF
 2692              		.cfi_endproc
 2693              	.LFE1243:
 2694              		.section	.gcc_except_table
 2695              		.align 4
 2696              	.LLSDAC1243:
 2697 0100 FF       		.byte	0xff
 2698 0101 9B       		.byte	0x9b
 2699 0102 39       		.uleb128 .LLSDATTC1243-.LLSDATTDC1243
 2700              	.LLSDATTDC1243:
 2701 0103 01       		.byte	0x1
 2702 0104 2D       		.uleb128 .LLSDACSEC1243-.LLSDACSBC1243
 2703              	.LLSDACSBC1243:
 2704 0105 05       		.uleb128 .LEHB51-.LCOLDB19
 2705 0106 2F       		.uleb128 .LEHE51-.LEHB51
 2706 0107 B001     		.uleb128 .L177-.LCOLDB19
 2707 0109 00       		.uleb128 0
 2708 010a 34       		.uleb128 .LEHB52-.LCOLDB19
 2709 010b 05       		.uleb128 .LEHE52-.LEHB52
 2710 010c 00       		.uleb128 0
 2711 010d 00       		.uleb128 0
 2712 010e 73       		.uleb128 .LEHB53-.LCOLDB19
 2713 010f 2F       		.uleb128 .LEHE53-.LEHB53
 2714 0110 C401     		.uleb128 .L175-.LCOLDB19
 2715 0112 00       		.uleb128 0
 2716 0113 A201     		.uleb128 .LEHB54-.LCOLDB19
 2717 0115 05       		.uleb128 .LEHE54-.LEHB54
 2718 0116 00       		.uleb128 0
 2719 0117 00       		.uleb128 0
 2720 0118 BF01     		.uleb128 .LEHB55-.LCOLDB19
 2721 011a 05       		.uleb128 .LEHE55-.LEHB55
 2722 011b 00       		.uleb128 0
 2723 011c 00       		.uleb128 0
 2724 011d D301     		.uleb128 .LEHB56-.LCOLDB19
 2725 011f 05       		.uleb128 .LEHE56-.LEHB56
 2726 0120 00       		.uleb128 0
 2727 0121 00       		.uleb128 0
 2728 0122 DD01     		.uleb128 .LEHB57-.LCOLDB19
 2729 0124 34       		.uleb128 .LEHE57-.LEHB57
 2730 0125 9B02     		.uleb128 .L173-.LCOLDB19
 2731 0127 00       		.uleb128 0
 2732 0128 9102     		.uleb128 .LEHB58-.LCOLDB19
 2733 012a 05       		.uleb128 .LEHE58-.LEHB58
 2734 012b 00       		.uleb128 0
 2735 012c 00       		.uleb128 0
 2736 012d AA02     		.uleb128 .LEHB59-.LCOLDB19
 2737 012f 05       		.uleb128 .LEHE59-.LEHB59
 2738 0130 00       		.uleb128 0
 2739 0131 00       		.uleb128 0
 2740              	.LLSDACSEC1243:
 2741 0132 01       		.byte	0x1
 2742 0133 00       		.byte	0
 2743 0134 00       		.byte	0
 2744 0135 7D       		.byte	0x7d
 2745 0136 0000     		.align 4
 2746 0138 00000000 		.long	0
 2747              	
 2748              	.LLSDATTC1243:
 2749              		.section	.text.unlikely
 2750              		.text
 2752              		.section	.text.unlikely
 2754              	.LCOLDE19:
 2755              		.text
 2756              	.LHOTE19:
 2757              		.section	.text._ZN8UnitTest10CheckEqualI12BufferStatusS1_EEvRNS_11TestResultsERKT_RKT0_RKNS_11Test
 2758              		.p2align 4
 2759              		.weak	_ZN8UnitTest10CheckEqualI12BufferStatusS1_EEvRNS_11TestResultsERKT_RKT0_RKNS_11TestDetailsE
 2761              	_ZN8UnitTest10CheckEqualI12BufferStatusS1_EEvRNS_11TestResultsERKT_RKT0_RKNS_11TestDetailsE:
 2762              	.LFB1303:
 2763              		.cfi_startproc
 2764              		.cfi_personality 0x9b,DW.ref.__gxx_personality_v0
 2765              		.cfi_lsda 0x1b,.LLSDA1303
 2766 0000 F30F1EFA 		endbr64
 2767 0004 4157     		pushq	%r15
 2768              		.cfi_def_cfa_offset 16
 2769              		.cfi_offset 15, -16
 2770 0006 4156     		pushq	%r14
 2771              		.cfi_def_cfa_offset 24
 2772              		.cfi_offset 14, -24
 2773 0008 4155     		pushq	%r13
 2774              		.cfi_def_cfa_offset 32
 2775              		.cfi_offset 13, -32
 2776 000a 4154     		pushq	%r12
 2777              		.cfi_def_cfa_offset 40
 2778              		.cfi_offset 12, -40
 2779 000c 55       		pushq	%rbp
 2780              		.cfi_def_cfa_offset 48
 2781              		.cfi_offset 6, -48
 2782 000d 53       		pushq	%rbx
 2783              		.cfi_def_cfa_offset 56
 2784              		.cfi_offset 3, -56
 2785 000e 4881ECD8 		subq	$472, %rsp
 2785      010000
 2786              		.cfi_def_cfa_offset 528
 2787 0015 F30F7E0D 		movq	.LC12(%rip), %xmm1
 2787      00000000 
 2788 001d 48897C24 		movq	%rdi, 16(%rsp)
 2788      10
 2789 0022 48894C24 		movq	%rcx, 24(%rsp)
 2789      18
 2790 0027 0F160D00 		movhps	.LC13(%rip), %xmm1
 2790      000000
 2791 002e 64488B04 		movq	%fs:40, %rax
 2791      25280000 
 2791      00
 2792 0037 48898424 		movq	%rax, 456(%rsp)
 2792      C8010000 
 2793 003f 31C0     		xorl	%eax, %eax
 2794 0041 8B02     		movl	(%rdx), %eax
 2795 0043 0F290C24 		movaps	%xmm1, (%rsp)
 2796 0047 3906     		cmpl	%eax, (%rsi)
 2797 0049 752D     		jne	.L203
 2798              	.L187:
 2799 004b 488B8424 		movq	456(%rsp), %rax
 2799      C8010000 
 2800 0053 64482B04 		subq	%fs:40, %rax
 2800      25280000 
 2800      00
 2801 005c 0F854B02 		jne	.L204
 2801      0000
 2802 0062 4881C4D8 		addq	$472, %rsp
 2802      010000
 2803              		.cfi_remember_state
 2804              		.cfi_def_cfa_offset 56
 2805 0069 5B       		popq	%rbx
 2806              		.cfi_def_cfa_offset 48
 2807 006a 5D       		popq	%rbp
 2808              		.cfi_def_cfa_offset 40
 2809 006b 415C     		popq	%r12
 2810              		.cfi_def_cfa_offset 32
 2811 006d 415D     		popq	%r13
 2812              		.cfi_def_cfa_offset 24
 2813 006f 415E     		popq	%r14
 2814              		.cfi_def_cfa_offset 16
 2815 0071 415F     		popq	%r15
 2816              		.cfi_def_cfa_offset 8
 2817 0073 C3       		ret
 2818              		.p2align 4,,10
 2819 0074 0F1F4000 		.p2align 3
 2820              	.L203:
 2821              		.cfi_restore_state
 2822 0078 4C8DAC24 		leaq	192(%rsp), %r13
 2822      C0000000 
 2823 0080 4889F5   		movq	%rsi, %rbp
 2824 0083 4889D3   		movq	%rdx, %rbx
 2825 0086 4C89EF   		movq	%r13, %rdi
 2826 0089 E8000000 		call	_ZNSt8ios_baseC2Ev@PLT
 2826      00
 2827 008e 31C0     		xorl	%eax, %eax
 2828 0090 660FEFC0 		pxor	%xmm0, %xmm0
 2829 0094 31F6     		xorl	%esi, %esi
 2830 0096 66898424 		movw	%ax, 416(%rsp)
 2830      A0010000 
 2831 009e 488D0500 		leaq	24+_ZTCN8UnitTest15MemoryOutStreamE0_So(%rip), %rax
 2831      000000
 2832 00a5 4C89EF   		movq	%r13, %rdi
 2833 00a8 48894424 		movq	%rax, 48(%rsp)
 2833      30
 2834 00ad 4883C028 		addq	$40, %rax
 2835 00b1 48C78424 		movq	$0, 408(%rsp)
 2835      98010000 
 2835      00000000 
 2836 00bd 48898424 		movq	%rax, 192(%rsp)
 2836      C0000000 
 2837 00c5 0F118424 		movups	%xmm0, 424(%rsp)
 2837      A8010000 
 2838 00cd 0F118424 		movups	%xmm0, 440(%rsp)
 2838      B8010000 
 2839              	.LEHB60:
 2840 00d5 E8000000 		call	_ZNSt9basic_iosIcSt11char_traitsIcEE4initEPSt15basic_streambufIcS1_E@PLT
 2840      00
 2841              	.LEHE60:
 2842 00da 660F6F0C 		movdqa	(%rsp), %xmm1
 2842      24
 2843 00df 4C8D7424 		leaq	112(%rsp), %r14
 2843      70
 2844 00e4 660FEFC0 		pxor	%xmm0, %xmm0
 2845 00e8 488D0500 		leaq	64+_ZTCN8UnitTest15MemoryOutStreamE0_NSt7__cxx1119basic_ostringstreamIcSt11char_traitsIcESaIc
 2845      000000
 2846 00ef 4C89F7   		movq	%r14, %rdi
 2847 00f2 0F294424 		movaps	%xmm0, 64(%rsp)
 2847      40
 2848 00f7 4C8D6424 		leaq	48(%rsp), %r12
 2848      30
 2849 00fc 4C8D7C24 		leaq	56(%rsp), %r15
 2849      38
 2850 0101 48898424 		movq	%rax, 192(%rsp)
 2850      C0000000 
 2851 0109 0F294C24 		movaps	%xmm1, 48(%rsp)
 2851      30
 2852 010e 0F294424 		movaps	%xmm0, 80(%rsp)
 2852      50
 2853 0113 0F294424 		movaps	%xmm0, 96(%rsp)
 2853      60
 2854 0118 E8000000 		call	_ZNSt6localeC1Ev@PLT
 2854      00
 2855 011d 488D0500 		leaq	16+_ZTVNSt7__cxx1115basic_stringbufIcSt11char_traitsIcESaIcEEE(%rip), %rax
 2855      000000
 2856 0124 4C89FE   		movq	%r15, %rsi
 2857 0127 48C78424 		movq	$0, 136(%rsp)
 2857      88000000 
 2857      00000000 
 2858 0133 48894424 		movq	%rax, 56(%rsp)
 2858      38
 2859 0138 488D8424 		leaq	144(%rsp), %rax
 2859      90000000 
 2860 0140 48894424 		movq	%rax, 32(%rsp)
 2860      20
 2861 0145 48898424 		movq	%rax, 128(%rsp)
 2861      80000000 
 2862 014d 488B4424 		movq	48(%rsp), %rax
 2862      30
 2863 0152 C6842490 		movb	$0, 144(%rsp)
 2863      00000000 
 2864 015a 488B78E8 		movq	-24(%rax), %rdi
 2865 015e C7442478 		movl	$16, 120(%rsp)
 2865      10000000 
 2866 0166 4C01E7   		addq	%r12, %rdi
 2867              	.LEHB61:
 2868 0169 E8000000 		call	_ZNSt9basic_iosIcSt11char_traitsIcEE4initEPSt15basic_streambufIcS1_E@PLT
 2868      00
 2869              	.LEHE61:
 2870 016e 4C8D3D00 		leaq	24+_ZTVN8UnitTest15MemoryOutStreamE(%rip), %r15
 2870      000000
 2871 0175 BA090000 		movl	$9, %edx
 2871      00
 2872 017a 4C89E7   		movq	%r12, %rdi
 2873 017d 48C78424 		movq	$0, 168(%rsp)
 2873      A8000000 
 2873      00000000 
 2874 0189 498D4728 		leaq	40(%r15), %rax
 2875 018d 488D3500 		leaq	.LC4(%rip), %rsi
 2875      000000
 2876 0194 4C897C24 		movq	%r15, 48(%rsp)
 2876      30
 2877 0199 48898424 		movq	%rax, 192(%rsp)
 2877      C0000000 
 2878 01a1 488D8424 		leaq	176(%rsp), %rax
 2878      B0000000 
 2879 01a9 48894424 		movq	%rax, 40(%rsp)
 2879      28
 2880 01ae 48898424 		movq	%rax, 160(%rsp)
 2880      A0000000 
 2881 01b6 C68424B0 		movb	$0, 176(%rsp)
 2881      00000000 
 2882              	.LEHB62:
 2883 01be E8000000 		call	_ZSt16__ostream_insertIcSt11char_traitsIcEERSt13basic_ostreamIT_T0_ES6_PKS3_l@PLT
 2883      00
 2884 01c3 8B7500   		movl	0(%rbp), %esi
 2885 01c6 4C89E7   		movq	%r12, %rdi
 2886 01c9 E8000000 		call	_ZNSolsEi@PLT
 2886      00
 2887 01ce BA090000 		movl	$9, %edx
 2887      00
 2888 01d3 488D3500 		leaq	.LC5(%rip), %rsi
 2888      000000
 2889 01da 4889C7   		movq	%rax, %rdi
 2890 01dd 4889C5   		movq	%rax, %rbp
 2891 01e0 E8000000 		call	_ZSt16__ostream_insertIcSt11char_traitsIcEERSt13basic_ostreamIT_T0_ES6_PKS3_l@PLT
 2891      00
 2892 01e5 8B33     		movl	(%rbx), %esi
 2893 01e7 4889EF   		movq	%rbp, %rdi
 2894 01ea E8000000 		call	_ZNSolsEi@PLT
 2894      00
 2895 01ef 4C89E7   		movq	%r12, %rdi
 2896 01f2 E8000000 		call	_ZNK8UnitTest15MemoryOutStream7GetTextEv@PLT
 2896      00
 2897 01f7 488B7424 		movq	24(%rsp), %rsi
 2897      18
 2898 01fc 488B7C24 		movq	16(%rsp), %rdi
 2898      10
 2899 0201 4889C2   		movq	%rax, %rdx
 2900 0204 F30F7E15 		movq	.LC12(%rip), %xmm2
 2900      00000000 
 2901 020c 0F161500 		movhps	.LC14(%rip), %xmm2
 2901      000000
 2902 0213 0F291424 		movaps	%xmm2, (%rsp)
 2903 0217 E8000000 		call	_ZN8UnitTest11TestResults13OnTestFailureERKNS_11TestDetailsEPKc@PLT
 2903      00
 2904              	.LEHE62:
 2905 021c 488D0500 		leaq	64+_ZTVN8UnitTest15MemoryOutStreamE(%rip), %rax
 2905      000000
 2906 0223 4C897C24 		movq	%r15, 48(%rsp)
 2906      30
 2907 0228 488BBC24 		movq	160(%rsp), %rdi
 2907      A0000000 
 2908 0230 48898424 		movq	%rax, 192(%rsp)
 2908      C0000000 
 2909 0238 483B7C24 		cmpq	40(%rsp), %rdi
 2909      28
 2910 023d 7405     		je	.L193
 2911 023f E8000000 		call	_ZdlPv@PLT
 2911      00
 2912              	.L193:
 2913 0244 660F6F1C 		movdqa	(%rsp), %xmm3
 2913      24
 2914 0249 488D0500 		leaq	64+_ZTCN8UnitTest15MemoryOutStreamE0_NSt7__cxx1119basic_ostringstreamIcSt11char_traitsIcESaIc
 2914      000000
 2915 0250 488BBC24 		movq	128(%rsp), %rdi
 2915      80000000 
 2916 0258 48898424 		movq	%rax, 192(%rsp)
 2916      C0000000 
 2917 0260 0F295C24 		movaps	%xmm3, 48(%rsp)
 2917      30
 2918 0265 483B7C24 		cmpq	32(%rsp), %rdi
 2918      20
 2919 026a 7405     		je	.L194
 2920 026c E8000000 		call	_ZdlPv@PLT
 2920      00
 2921              	.L194:
 2922 0271 488D0500 		leaq	16+_ZTVSt15basic_streambufIcSt11char_traitsIcEE(%rip), %rax
 2922      000000
 2923 0278 4C89F7   		movq	%r14, %rdi
 2924 027b 48894424 		movq	%rax, 56(%rsp)
 2924      38
 2925 0280 E8000000 		call	_ZNSt6localeD1Ev@PLT
 2925      00
 2926 0285 488D0500 		leaq	24+_ZTCN8UnitTest15MemoryOutStreamE0_So(%rip), %rax
 2926      000000
 2927 028c 4C89EF   		movq	%r13, %rdi
 2928 028f 48894424 		movq	%rax, 48(%rsp)
 2928      30
 2929 0294 488D0500 		leaq	16+_ZTVSt9basic_iosIcSt11char_traitsIcEE(%rip), %rax
 2929      000000
 2930 029b 48898424 		movq	%rax, 192(%rsp)
 2930      C0000000 
 2931              	.LEHB63:
 2932 02a3 E8000000 		call	_ZNSt8ios_baseD2Ev@PLT
 2932      00
 2933              	.LEHE63:
 2934 02a8 E99EFDFF 		jmp	.L187
 2934      FF
 2935              	.L204:
 2936 02ad E8000000 		call	__stack_chk_fail@PLT
 2936      00
 2937              	.L198:
 2938 02b2 F30F1EFA 		endbr64
 2939 02b6 4889C5   		movq	%rax, %rbp
 2940 02b9 EB26     		jmp	.L191
 2941              	.L199:
 2942 02bb F30F1EFA 		endbr64
 2943 02bf 4889C5   		movq	%rax, %rbp
 2944 02c2 EB09     		jmp	.L190
 2945              	.L197:
 2946 02c4 F30F1EFA 		endbr64
 2947 02c8 4889C5   		movq	%rax, %rbp
 2948 02cb EB33     		jmp	.L195
 2949              	.L190:
 2950 02cd 4C89FF   		movq	%r15, %rdi
 2951 02d0 E8000000 		call	_ZNSt7__cxx1115basic_stringbufIcSt11char_traitsIcESaIcEED1Ev
 2951      00
 2952 02d5 488D0500 		leaq	24+_ZTCN8UnitTest15MemoryOutStreamE0_So(%rip), %rax
 2952      000000
 2953 02dc 48894424 		movq	%rax, 48(%rsp)
 2953      30
 2954              	.L191:
 2955 02e1 488D0500 		leaq	16+_ZTVSt9basic_iosIcSt11char_traitsIcEE(%rip), %rax
 2955      000000
 2956 02e8 4C89EF   		movq	%r13, %rdi
 2957 02eb 48898424 		movq	%rax, 192(%rsp)
 2957      C0000000 
 2958 02f3 E8000000 		call	_ZNSt8ios_baseD2Ev@PLT
 2958      00
 2959 02f8 4889EF   		movq	%rbp, %rdi
 2960              	.LEHB64:
 2961 02fb E8000000 		call	_Unwind_Resume@PLT
 2961      00
 2962              	.LEHE64:
 2963              	.L195:
 2964 0300 4C89E7   		movq	%r12, %rdi
 2965 0303 E8000000 		call	_ZN8UnitTest15MemoryOutStreamD1Ev
 2965      00
 2966 0308 4889EF   		movq	%rbp, %rdi
 2967              	.LEHB65:
 2968 030b E8000000 		call	_Unwind_Resume@PLT
 2968      00
 2969              	.LEHE65:
 2970              		.cfi_endproc
 2971              	.LFE1303:
 2972              		.section	.gcc_except_table
 2973              	.LLSDA1303:
 2974 013c FF       		.byte	0xff
 2975 013d FF       		.byte	0xff
 2976 013e 01       		.byte	0x1
 2977 013f 21       		.uleb128 .LLSDACSE1303-.LLSDACSB1303
 2978              	.LLSDACSB1303:
 2979 0140 D501     		.uleb128 .LEHB60-.LFB1303
 2980 0142 05       		.uleb128 .LEHE60-.LEHB60
 2981 0143 B205     		.uleb128 .L198-.LFB1303
 2982 0145 00       		.uleb128 0
 2983 0146 E902     		.uleb128 .LEHB61-.LFB1303
 2984 0148 05       		.uleb128 .LEHE61-.LEHB61
 2985 0149 BB05     		.uleb128 .L199-.LFB1303
 2986 014b 00       		.uleb128 0
 2987 014c BE03     		.uleb128 .LEHB62-.LFB1303
 2988 014e 5E       		.uleb128 .LEHE62-.LEHB62
 2989 014f C405     		.uleb128 .L197-.LFB1303
 2990 0151 00       		.uleb128 0
 2991 0152 A305     		.uleb128 .LEHB63-.LFB1303
 2992 0154 05       		.uleb128 .LEHE63-.LEHB63
 2993 0155 00       		.uleb128 0
 2994 0156 00       		.uleb128 0
 2995 0157 FB05     		.uleb128 .LEHB64-.LFB1303
 2996 0159 05       		.uleb128 .LEHE64-.LEHB64
 2997 015a 00       		.uleb128 0
 2998 015b 00       		.uleb128 0
 2999 015c 8B06     		.uleb128 .LEHB65-.LFB1303
 3000 015e 05       		.uleb128 .LEHE65-.LEHB65
 3001 015f 00       		.uleb128 0
 3002 0160 00       		.uleb128 0
 3003              	.LLSDACSE1303:
 3004              		.section	.text._ZN8UnitTest10CheckEqualI12BufferStatusS1_EEvRNS_11TestResultsERKT_RKT0_RKNS_11Test
 3006              		.section	.rodata.str1.1
 3007              	.LC20:
 3008 0068 464500   		.string	"FE"
 3009              	.LC21:
 3010 006b 43414645 		.string	"CAFE"
 3010      00
 3011              	.LC22:
 3012 0070 46303044 		.string	"F00D1E"
 3012      314500
 3013              	.LC23:
 3014 0077 44454144 		.string	"DEADF00D"
 3014      46303044 
 3014      00
 3015              	.LC24:
 3016 0080 43414645 		.string	"CAFEF00D1E"
 3016      46303044 
 3016      314500
 3017              	.LC25:
 3018 008b 44454144 		.string	"DEADCAFEBABE"
 3018      43414645 
 3018      42414245 
 3018      00
 3019              		.section	.rodata.str1.8
 3020 018d 000000   		.align 8
 3021              	.LC26:
 3022 0190 556E6861 		.string	"Unhandled exception in CHECK_EQUAL(BUF_SUCCESS, bStatus)"
 3022      6E646C65 
 3022      64206578 
 3022      63657074 
 3022      696F6E20 
 3023              		.section	.text.unlikely
 3024 02d3 90       		.align 2
 3025              	.LCOLDB27:
 3026              		.text
 3027              	.LHOTB27:
 3028 11d9 90       		.align 2
 3029 11da 660F1F44 		.p2align 4
 3029      0000
 3030              		.globl	_ZNK26TestFPGALink_testReadBytes7RunImplEv
 3032              	_ZNK26TestFPGALink_testReadBytes7RunImplEv:
 3033              	.LFB1247:
 3034              		.cfi_startproc
 3035              		.cfi_personality 0x9b,DW.ref.__gxx_personality_v0
 3036              		.cfi_lsda 0x1b,.LLSDA1247
 3037 11e0 F30F1EFA 		endbr64
 3038 11e4 4155     		pushq	%r13
 3039              		.cfi_def_cfa_offset 16
 3040              		.cfi_offset 13, -16
 3041 11e6 31C9     		xorl	%ecx, %ecx
 3042 11e8 31D2     		xorl	%edx, %edx
 3043 11ea BE000400 		movl	$1024, %esi
 3043      00
 3044 11ef 4154     		pushq	%r12
 3045              		.cfi_def_cfa_offset 24
 3046              		.cfi_offset 12, -24
 3047 11f1 55       		pushq	%rbp
 3048              		.cfi_def_cfa_offset 32
 3049              		.cfi_offset 6, -32
 3050 11f2 4883EC60 		subq	$96, %rsp
 3051              		.cfi_def_cfa_offset 128
 3052 11f6 64488B04 		movq	%fs:40, %rax
 3052      25280000 
 3052      00
 3053 11ff 48894424 		movq	%rax, 88(%rsp)
 3053      58
 3054 1204 31C0     		xorl	%eax, %eax
 3055 1206 488D6C24 		leaq	16(%rsp), %rbp
 3055      10
 3056 120b 4889EF   		movq	%rbp, %rdi
 3057              	.LEHB66:
 3058 120e E8000000 		call	bufInitialise@PLT
 3058      00
 3059              	.LEHE66:
 3060 1213 89442408 		movl	%eax, 8(%rsp)
 3061              	.LEHB67:
 3062 1217 E8000000 		call	_ZN8UnitTest11CurrentTest7DetailsEv@PLT
 3062      00
 3063 121c 4C8D6424 		leaq	48(%rsp), %r12
 3063      30
 3064 1221 488B30   		movq	(%rax), %rsi
 3065 1224 BA2E0000 		movl	$46, %edx
 3065      00
 3066 1229 4C89E7   		movq	%r12, %rdi
 3067 122c E8000000 		call	_ZN8UnitTest11TestDetailsC1ERKS0_i@PLT
 3067      00
 3068 1231 C744240C 		movl	$0, 12(%rsp)
 3068      00000000 
 3069 1239 E8000000 		call	_ZN8UnitTest11CurrentTest7ResultsEv@PLT
 3069      00
 3070 123e 488B38   		movq	(%rax), %rdi
 3071 1241 488D5424 		leaq	8(%rsp), %rdx
 3071      08
 3072 1246 488D7424 		leaq	12(%rsp), %rsi
 3072      0C
 3073 124b 4C89E1   		movq	%r12, %rcx
 3074 124e E8000000 		call	_ZN8UnitTest10CheckEqualI12BufferStatusS1_EEvRNS_11TestResultsERKT_RKT0_RKNS_11TestDetailsE
 3074      00
 3075              	.LEHE67:
 3076              	.L207:
 3077 1253 488D3500 		leaq	.LC20(%rip), %rsi
 3077      000000
 3078 125a 4889EF   		movq	%rbp, %rdi
 3079              	.LEHB68:
 3080 125d E8000000 		call	_Z13testReadBytesP6BufferPKc
 3080      00
 3081 1262 488D3500 		leaq	.LC21(%rip), %rsi
 3081      000000
 3082 1269 4889EF   		movq	%rbp, %rdi
 3083 126c E8000000 		call	_Z13testReadBytesP6BufferPKc
 3083      00
 3084 1271 488D3500 		leaq	.LC22(%rip), %rsi
 3084      000000
 3085 1278 4889EF   		movq	%rbp, %rdi
 3086 127b E8000000 		call	_Z13testReadBytesP6BufferPKc
 3086      00
 3087 1280 488D3500 		leaq	.LC23(%rip), %rsi
 3087      000000
 3088 1287 4889EF   		movq	%rbp, %rdi
 3089 128a E8000000 		call	_Z13testReadBytesP6BufferPKc
 3089      00
 3090 128f 488D3500 		leaq	.LC24(%rip), %rsi
 3090      000000
 3091 1296 4889EF   		movq	%rbp, %rdi
 3092 1299 E8000000 		call	_Z13testReadBytesP6BufferPKc
 3092      00
 3093 129e 4889EF   		movq	%rbp, %rdi
 3094 12a1 488D3500 		leaq	.LC25(%rip), %rsi
 3094      000000
 3095 12a8 E8000000 		call	_Z13testReadBytesP6BufferPKc
 3095      00
 3096 12ad 4889EF   		movq	%rbp, %rdi
 3097 12b0 E8000000 		call	bufDestroy@PLT
 3097      00
 3098              	.LEHE68:
 3099 12b5 488B4424 		movq	88(%rsp), %rax
 3099      58
 3100 12ba 64482B04 		subq	%fs:40, %rax
 3100      25280000 
 3100      00
 3101 12c3 750A     		jne	.L214
 3102 12c5 4883C460 		addq	$96, %rsp
 3103              		.cfi_remember_state
 3104              		.cfi_def_cfa_offset 32
 3105 12c9 5D       		popq	%rbp
 3106              		.cfi_def_cfa_offset 24
 3107 12ca 415C     		popq	%r12
 3108              		.cfi_def_cfa_offset 16
 3109 12cc 415D     		popq	%r13
 3110              		.cfi_def_cfa_offset 8
 3111 12ce C3       		ret
 3112              	.L214:
 3113              		.cfi_restore_state
 3114 12cf E8000000 		call	__stack_chk_fail@PLT
 3114      00
 3115              	.L210:
 3116 12d4 F30F1EFA 		endbr64
 3117 12d8 4889C7   		movq	%rax, %rdi
 3118 12db E9000000 		jmp	.L206
 3118      00
 3119              		.section	.gcc_except_table
 3120 0161 000000   		.align 4
 3121              	.LLSDA1247:
 3122 0164 FF       		.byte	0xff
 3123 0165 9B       		.byte	0x9b
 3124 0166 15       		.uleb128 .LLSDATT1247-.LLSDATTD1247
 3125              	.LLSDATTD1247:
 3126 0167 01       		.byte	0x1
 3127 0168 0D       		.uleb128 .LLSDACSE1247-.LLSDACSB1247
 3128              	.LLSDACSB1247:
 3129 0169 2E       		.uleb128 .LEHB66-.LFB1247
 3130 016a 05       		.uleb128 .LEHE66-.LEHB66
 3131 016b 00       		.uleb128 0
 3132 016c 00       		.uleb128 0
 3133 016d 37       		.uleb128 .LEHB67-.LFB1247
 3134 016e 3C       		.uleb128 .LEHE67-.LEHB67
 3135 016f F401     		.uleb128 .L210-.LFB1247
 3136 0171 01       		.uleb128 0x1
 3137 0172 7D       		.uleb128 .LEHB68-.LFB1247
 3138 0173 58       		.uleb128 .LEHE68-.LEHB68
 3139 0174 00       		.uleb128 0
 3140 0175 00       		.uleb128 0
 3141              	.LLSDACSE1247:
 3142 0176 01       		.byte	0x1
 3143 0177 00       		.byte	0
 3144              		.align 4
 3145 0178 00000000 		.long	0
 3146              	
 3147              	.LLSDATT1247:
 3148              		.text
 3149              		.cfi_endproc
 3150              		.section	.text.unlikely
 3151              		.cfi_startproc
 3152              		.cfi_personality 0x9b,DW.ref.__gxx_personality_v0
 3153              		.cfi_lsda 0x1b,.LLSDAC1247
 3155              	_ZNK26TestFPGALink_testReadBytes7RunImplEv.cold:
 3156              	.LFSB1247:
 3157              	.L206:
 3158              		.cfi_def_cfa_offset 128
 3159              		.cfi_offset 6, -32
 3160              		.cfi_offset 12, -24
 3161              		.cfi_offset 13, -16
 3162 02d4 E8000000 		call	__cxa_begin_catch@PLT
 3162      00
 3163              	.LEHB69:
 3164 02d9 E8000000 		call	_ZN8UnitTest11CurrentTest7ResultsEv@PLT
 3164      00
 3165 02de 4C8B28   		movq	(%rax), %r13
 3166 02e1 E8000000 		call	_ZN8UnitTest11CurrentTest7DetailsEv@PLT
 3166      00
 3167 02e6 4C8D6424 		leaq	48(%rsp), %r12
 3167      30
 3168 02eb 488B30   		movq	(%rax), %rsi
 3169 02ee BA2E0000 		movl	$46, %edx
 3169      00
 3170 02f3 4C89E7   		movq	%r12, %rdi
 3171 02f6 E8000000 		call	_ZN8UnitTest11TestDetailsC1ERKS0_i@PLT
 3171      00
 3172 02fb 488D1500 		leaq	.LC26(%rip), %rdx
 3172      000000
 3173 0302 4C89E6   		movq	%r12, %rsi
 3174 0305 4C89EF   		movq	%r13, %rdi
 3175 0308 E8000000 		call	_ZN8UnitTest11TestResults13OnTestFailureERKNS_11TestDetailsEPKc@PLT
 3175      00
 3176              	.LEHE69:
 3177              	.LEHB70:
 3178 030d E8000000 		call	__cxa_end_catch@PLT
 3178      00
 3179              	.LEHE70:
 3180 0312 E9000000 		jmp	.L207
 3180      00
 3181              	.L211:
 3182 0317 F30F1EFA 		endbr64
 3183 031b 4889C5   		movq	%rax, %rbp
 3184 031e E8000000 		call	__cxa_end_catch@PLT
 3184      00
 3185 0323 4889EF   		movq	%rbp, %rdi
 3186              	.LEHB71:
 3187 0326 E8000000 		call	_Unwind_Resume@PLT
 3187      00
 3188              	.LEHE71:
 3189              		.cfi_endproc
 3190              	.LFE1247:
 3191              		.section	.gcc_except_table
 3192              		.align 4
 3193              	.LLSDAC1247:
 3194 017c FF       		.byte	0xff
 3195 017d 9B       		.byte	0x9b
 3196 017e 15       		.uleb128 .LLSDATTC1247-.LLSDATTDC1247
 3197              	.LLSDATTDC1247:
 3198 017f 01       		.byte	0x1
 3199 0180 0C       		.uleb128 .LLSDACSEC1247-.LLSDACSBC1247
 3200              	.LLSDACSBC1247:
 3201 0181 05       		.uleb128 .LEHB69-.LCOLDB27
 3202 0182 34       		.uleb128 .LEHE69-.LEHB69
 3203 0183 43       		.uleb128 .L211-.LCOLDB27
 3204 0184 00       		.uleb128 0
 3205 0185 39       		.uleb128 .LEHB70-.LCOLDB27
 3206 0186 05       		.uleb128 .LEHE70-.LEHB70
 3207 0187 00       		.uleb128 0
 3208 0188 00       		.uleb128 0
 3209 0189 52       		.uleb128 .LEHB71-.LCOLDB27
 3210 018a 05       		.uleb128 .LEHE71-.LEHB71
 3211 018b 00       		.uleb128 0
 3212 018c 00       		.uleb128 0
 3213              	.LLSDACSEC1247:
 3214 018d 01       		.byte	0x1
 3215 018e 00       		.byte	0
 3216 018f 00       		.align 4
 3217 0190 00000000 		.long	0
 3218              	
 3219              	.LLSDATTC1247:
 3220              		.section	.text.unlikely
 3221              		.text
 3223              		.section	.text.unlikely
 3225              	.LCOLDE27:
 3226              		.text
 3227              	.LHOTE27:
 3228              		.section	.text.unlikely
 3229              	.LCOLDB28:
 3230              		.text
 3231              	.LHOTB28:
 3232              		.p2align 4
 3233              		.globl	_Z11parseStringP12ParseContextPKcP6Buffer
 3235              	_Z11parseStringP12ParseContextPKcP6Buffer:
 3236              	.LFB1253:
 3237              		.cfi_startproc
 3238              		.cfi_personality 0x9b,DW.ref.__gxx_personality_v0
 3239              		.cfi_lsda 0x1b,.LLSDA1253
 3240 12e0 F30F1EFA 		endbr64
 3241 12e4 4157     		pushq	%r15
 3242              		.cfi_def_cfa_offset 16
 3243              		.cfi_offset 15, -16
 3244 12e6 4989D7   		movq	%rdx, %r15
 3245 12e9 4156     		pushq	%r14
 3246              		.cfi_def_cfa_offset 24
 3247              		.cfi_offset 14, -24
 3248 12eb 4989FE   		movq	%rdi, %r14
 3249 12ee 4889F7   		movq	%rsi, %rdi
 3250 12f1 4155     		pushq	%r13
 3251              		.cfi_def_cfa_offset 32
 3252              		.cfi_offset 13, -32
 3253 12f3 4989F5   		movq	%rsi, %r13
 3254 12f6 4154     		pushq	%r12
 3255              		.cfi_def_cfa_offset 40
 3256              		.cfi_offset 12, -40
 3257 12f8 55       		pushq	%rbp
 3258              		.cfi_def_cfa_offset 48
 3259              		.cfi_offset 6, -48
 3260 12f9 53       		pushq	%rbx
 3261              		.cfi_def_cfa_offset 56
 3262              		.cfi_offset 3, -56
 3263 12fa 4883EC78 		subq	$120, %rsp
 3264              		.cfi_def_cfa_offset 176
 3265 12fe 64488B04 		movq	%fs:40, %rax
 3265      25280000 
 3265      00
 3266 1307 48894424 		movq	%rax, 104(%rsp)
 3266      68
 3267 130c 31C0     		xorl	%eax, %eax
 3268 130e 4C8D6424 		leaq	32(%rsp), %r12
 3268      20
 3269 1313 E8000000 		call	strlen@PLT
 3269      00
 3270 1318 31C9     		xorl	%ecx, %ecx
 3271 131a 31D2     		xorl	%edx, %edx
 3272 131c 4C89E7   		movq	%r12, %rdi
 3273 131f 8D5801   		leal	1(%rax), %ebx
 3274 1322 4889DE   		movq	%rbx, %rsi
 3275              	.LEHB72:
 3276 1325 E8000000 		call	bufInitialise@PLT
 3276      00
 3277              	.LEHE72:
 3278 132a 89442414 		movl	%eax, 20(%rsp)
 3279              	.LEHB73:
 3280 132e E8000000 		call	_ZN8UnitTest11CurrentTest7DetailsEv@PLT
 3280      00
 3281 1333 488D6C24 		leaq	64(%rsp), %rbp
 3281      40
 3282 1338 488B30   		movq	(%rax), %rsi
 3283 133b BA1F0200 		movl	$543, %edx
 3283      00
 3284 1340 4889EF   		movq	%rbp, %rdi
 3285 1343 E8000000 		call	_ZN8UnitTest11TestDetailsC1ERKS0_i@PLT
 3285      00
 3286 1348 C744241C 		movl	$0, 28(%rsp)
 3286      00000000 
 3287 1350 E8000000 		call	_ZN8UnitTest11CurrentTest7ResultsEv@PLT
 3287      00
 3288 1355 488B38   		movq	(%rax), %rdi
 3289 1358 488D5424 		leaq	20(%rsp), %rdx
 3289      14
 3290 135d 488D7424 		leaq	28(%rsp), %rsi
 3290      1C
 3291 1362 4889E9   		movq	%rbp, %rcx
 3292 1365 E8000000 		call	_ZN8UnitTest10CheckEqualI12BufferStatusS1_EEvRNS_11TestResultsERKT_RKT0_RKNS_11TestDetailsE
 3292      00
 3293              	.LEHE73:
 3294              	.L217:
 3295 136a 31C9     		xorl	%ecx, %ecx
 3296 136c 4889DA   		movq	%rbx, %rdx
 3297 136f 4C89EE   		movq	%r13, %rsi
 3298 1372 4C89E7   		movq	%r12, %rdi
 3299              	.LEHB74:
 3300 1375 E8000000 		call	bufAppendBlock@PLT
 3300      00
 3301              	.LEHE74:
 3302 137a 89442414 		movl	%eax, 20(%rsp)
 3303              	.LEHB75:
 3304 137e E8000000 		call	_ZN8UnitTest11CurrentTest7DetailsEv@PLT
 3304      00
 3305 1383 488B30   		movq	(%rax), %rsi
 3306 1386 BA210200 		movl	$545, %edx
 3306      00
 3307 138b 4889EF   		movq	%rbp, %rdi
 3308 138e E8000000 		call	_ZN8UnitTest11TestDetailsC1ERKS0_i@PLT
 3308      00
 3309 1393 C744241C 		movl	$0, 28(%rsp)
 3309      00000000 
 3310 139b E8000000 		call	_ZN8UnitTest11CurrentTest7ResultsEv@PLT
 3310      00
 3311 13a0 488B38   		movq	(%rax), %rdi
 3312 13a3 488D5424 		leaq	20(%rsp), %rdx
 3312      14
 3313 13a8 488D7424 		leaq	28(%rsp), %rsi
 3313      1C
 3314 13ad 4889E9   		movq	%rbp, %rcx
 3315 13b0 E8000000 		call	_ZN8UnitTest10CheckEqualI12BufferStatusS1_EEvRNS_11TestResultsERKT_RKT0_RKNS_11TestDetailsE
 3315      00
 3316              	.LEHE75:
 3317              	.L220:
 3318 13b5 4531C0   		xorl	%r8d, %r8d
 3319 13b8 31C9     		xorl	%ecx, %ecx
 3320 13ba 4C89FA   		movq	%r15, %rdx
 3321 13bd 4C89E6   		movq	%r12, %rsi
 3322 13c0 4C89F7   		movq	%r14, %rdi
 3323              	.LEHB76:
 3324 13c3 E8000000 		call	parseLine@PLT
 3324      00
 3325              	.LEHE76:
 3326 13c8 89442418 		movl	%eax, 24(%rsp)
 3327              	.LEHB77:
 3328 13cc E8000000 		call	_ZN8UnitTest11CurrentTest7DetailsEv@PLT
 3328      00
 3329 13d1 488B30   		movq	(%rax), %rsi
 3330 13d4 BA230200 		movl	$547, %edx
 3330      00
 3331 13d9 4889EF   		movq	%rbp, %rdi
 3332 13dc E8000000 		call	_ZN8UnitTest11TestDetailsC1ERKS0_i@PLT
 3332      00
 3333 13e1 C744241C 		movl	$0, 28(%rsp)
 3333      00000000 
 3334 13e9 E8000000 		call	_ZN8UnitTest11CurrentTest7ResultsEv@PLT
 3334      00
 3335 13ee 488B38   		movq	(%rax), %rdi
 3336 13f1 488D5424 		leaq	24(%rsp), %rdx
 3336      18
 3337 13f6 488D7424 		leaq	28(%rsp), %rsi
 3337      1C
 3338 13fb 4889E9   		movq	%rbp, %rcx
 3339 13fe E8000000 		call	_ZN8UnitTest10CheckEqualI8FLStatusS1_EEvRNS_11TestResultsERKT_RKT0_RKNS_11TestDetailsE
 3339      00
 3340              	.LEHE77:
 3341              	.L223:
 3342 1403 4C89E7   		movq	%r12, %rdi
 3343              	.LEHB78:
 3344 1406 E8000000 		call	bufDestroy@PLT
 3344      00
 3345              	.LEHE78:
 3346 140b 488B4424 		movq	104(%rsp), %rax
 3346      68
 3347 1410 64482B04 		subq	%fs:40, %rax
 3347      25280000 
 3347      00
 3348 1419 750F     		jne	.L234
 3349 141b 4883C478 		addq	$120, %rsp
 3350              		.cfi_remember_state
 3351              		.cfi_def_cfa_offset 56
 3352 141f 5B       		popq	%rbx
 3353              		.cfi_def_cfa_offset 48
 3354 1420 5D       		popq	%rbp
 3355              		.cfi_def_cfa_offset 40
 3356 1421 415C     		popq	%r12
 3357              		.cfi_def_cfa_offset 32
 3358 1423 415D     		popq	%r13
 3359              		.cfi_def_cfa_offset 24
 3360 1425 415E     		popq	%r14
 3361              		.cfi_def_cfa_offset 16
 3362 1427 415F     		popq	%r15
 3363              		.cfi_def_cfa_offset 8
 3364 1429 C3       		ret
 3365              	.L234:
 3366              		.cfi_restore_state
 3367 142a E8000000 		call	__stack_chk_fail@PLT
 3367      00
 3368              	.L230:
 3369 142f F30F1EFA 		endbr64
 3370 1433 4889C7   		movq	%rax, %rdi
 3371 1436 E9000000 		jmp	.L222
 3371      00
 3372              	.L228:
 3373 143b F30F1EFA 		endbr64
 3374 143f 4889C7   		movq	%rax, %rdi
 3375 1442 E9000000 		jmp	.L219
 3375      00
 3376              	.L226:
 3377 1447 F30F1EFA 		endbr64
 3378 144b 4889C7   		movq	%rax, %rdi
 3379 144e E9000000 		jmp	.L216
 3379      00
 3380              		.section	.gcc_except_table
 3381              		.align 4
 3382              	.LLSDA1253:
 3383 0194 FF       		.byte	0xff
 3384 0195 9B       		.byte	0x9b
 3385 0196 2D       		.uleb128 .LLSDATT1253-.LLSDATTD1253
 3386              	.LLSDATTD1253:
 3387 0197 01       		.byte	0x1
 3388 0198 24       		.uleb128 .LLSDACSE1253-.LLSDACSB1253
 3389              	.LLSDACSB1253:
 3390 0199 45       		.uleb128 .LEHB72-.LFB1253
 3391 019a 05       		.uleb128 .LEHE72-.LEHB72
 3392 019b 00       		.uleb128 0
 3393 019c 00       		.uleb128 0
 3394 019d 4E       		.uleb128 .LEHB73-.LFB1253
 3395 019e 3C       		.uleb128 .LEHE73-.LEHB73
 3396 019f E702     		.uleb128 .L226-.LFB1253
 3397 01a1 01       		.uleb128 0x1
 3398 01a2 9501     		.uleb128 .LEHB74-.LFB1253
 3399 01a4 05       		.uleb128 .LEHE74-.LEHB74
 3400 01a5 00       		.uleb128 0
 3401 01a6 00       		.uleb128 0
 3402 01a7 9E01     		.uleb128 .LEHB75-.LFB1253
 3403 01a9 37       		.uleb128 .LEHE75-.LEHB75
 3404 01aa DB02     		.uleb128 .L228-.LFB1253
 3405 01ac 01       		.uleb128 0x1
 3406 01ad E301     		.uleb128 .LEHB76-.LFB1253
 3407 01af 05       		.uleb128 .LEHE76-.LEHB76
 3408 01b0 00       		.uleb128 0
 3409 01b1 00       		.uleb128 0
 3410 01b2 EC01     		.uleb128 .LEHB77-.LFB1253
 3411 01b4 37       		.uleb128 .LEHE77-.LEHB77
 3412 01b5 CF02     		.uleb128 .L230-.LFB1253
 3413 01b7 01       		.uleb128 0x1
 3414 01b8 A602     		.uleb128 .LEHB78-.LFB1253
 3415 01ba 05       		.uleb128 .LEHE78-.LEHB78
 3416 01bb 00       		.uleb128 0
 3417 01bc 00       		.uleb128 0
 3418              	.LLSDACSE1253:
 3419 01bd 01       		.byte	0x1
 3420 01be 00       		.byte	0
 3421 01bf 00       		.align 4
 3422 01c0 00000000 		.long	0
 3423              	
 3424              	.LLSDATT1253:
 3425              		.text
 3426              		.cfi_endproc
 3427              		.section	.text.unlikely
 3428              		.cfi_startproc
 3429              		.cfi_personality 0x9b,DW.ref.__gxx_personality_v0
 3430              		.cfi_lsda 0x1b,.LLSDAC1253
 3432              	_Z11parseStringP12ParseContextPKcP6Buffer.cold:
 3433              	.LFSB1253:
 3434              	.L222:
 3435              		.cfi_def_cfa_offset 176
 3436              		.cfi_offset 3, -56
 3437              		.cfi_offset 6, -48
 3438              		.cfi_offset 12, -40
 3439              		.cfi_offset 13, -32
 3440              		.cfi_offset 14, -24
 3441              		.cfi_offset 15, -16
 3442 032b E8000000 		call	__cxa_begin_catch@PLT
 3442      00
 3443              	.LEHB79:
 3444 0330 E8000000 		call	_ZN8UnitTest11CurrentTest7ResultsEv@PLT
 3444      00
 3445 0335 4C8B28   		movq	(%rax), %r13
 3446 0338 E8000000 		call	_ZN8UnitTest11CurrentTest7DetailsEv@PLT
 3446      00
 3447 033d 488B30   		movq	(%rax), %rsi
 3448 0340 BA230200 		movl	$547, %edx
 3448      00
 3449 0345 4889EF   		movq	%rbp, %rdi
 3450 0348 E8000000 		call	_ZN8UnitTest11TestDetailsC1ERKS0_i@PLT
 3450      00
 3451 034d 488D1500 		leaq	.LC16(%rip), %rdx
 3451      000000
 3452 0354 4889EE   		movq	%rbp, %rsi
 3453 0357 4C89EF   		movq	%r13, %rdi
 3454 035a E8000000 		call	_ZN8UnitTest11TestResults13OnTestFailureERKNS_11TestDetailsEPKc@PLT
 3454      00
 3455              	.LEHE79:
 3456              	.LEHB80:
 3457 035f E8000000 		call	__cxa_end_catch@PLT
 3457      00
 3458              	.LEHE80:
 3459 0364 E9000000 		jmp	.L223
 3459      00
 3460              	.L219:
 3461 0369 E8000000 		call	__cxa_begin_catch@PLT
 3461      00
 3462              	.LEHB81:
 3463 036e E8000000 		call	_ZN8UnitTest11CurrentTest7ResultsEv@PLT
 3463      00
 3464 0373 4C8B28   		movq	(%rax), %r13
 3465 0376 E8000000 		call	_ZN8UnitTest11CurrentTest7DetailsEv@PLT
 3465      00
 3466 037b 488B30   		movq	(%rax), %rsi
 3467 037e BA210200 		movl	$545, %edx
 3467      00
 3468 0383 4889EF   		movq	%rbp, %rdi
 3469 0386 E8000000 		call	_ZN8UnitTest11TestDetailsC1ERKS0_i@PLT
 3469      00
 3470 038b 488D1500 		leaq	.LC26(%rip), %rdx
 3470      000000
 3471 0392 4889EE   		movq	%rbp, %rsi
 3472 0395 4C89EF   		movq	%r13, %rdi
 3473 0398 E8000000 		call	_ZN8UnitTest11TestResults13OnTestFailureERKNS_11TestDetailsEPKc@PLT
 3473      00
 3474              	.LEHE81:
 3475              	.LEHB82:
 3476 039d E8000000 		call	__cxa_end_catch@PLT
 3476      00
 3477              	.LEHE82:
 3478 03a2 E9000000 		jmp	.L220
 3478      00
 3479              	.L216:
 3480 03a7 E8000000 		call	__cxa_begin_catch@PLT
 3480      00
 3481              	.LEHB83:
 3482 03ac E8000000 		call	_ZN8UnitTest11CurrentTest7ResultsEv@PLT
 3482      00
 3483 03b1 488B00   		movq	(%rax), %rax
 3484 03b4 48894424 		movq	%rax, 8(%rsp)
 3484      08
 3485 03b9 E8000000 		call	_ZN8UnitTest11CurrentTest7DetailsEv@PLT
 3485      00
 3486 03be 488D6C24 		leaq	64(%rsp), %rbp
 3486      40
 3487 03c3 488B30   		movq	(%rax), %rsi
 3488 03c6 BA1F0200 		movl	$543, %edx
 3488      00
 3489 03cb 4889EF   		movq	%rbp, %rdi
 3490 03ce E8000000 		call	_ZN8UnitTest11TestDetailsC1ERKS0_i@PLT
 3490      00
 3491 03d3 488B7C24 		movq	8(%rsp), %rdi
 3491      08
 3492 03d8 488D1500 		leaq	.LC26(%rip), %rdx
 3492      000000
 3493 03df 4889EE   		movq	%rbp, %rsi
 3494 03e2 E8000000 		call	_ZN8UnitTest11TestResults13OnTestFailureERKNS_11TestDetailsEPKc@PLT
 3494      00
 3495              	.LEHE83:
 3496              	.LEHB84:
 3497 03e7 E8000000 		call	__cxa_end_catch@PLT
 3497      00
 3498              	.LEHE84:
 3499 03ec E9000000 		jmp	.L217
 3499      00
 3500              	.L231:
 3501 03f1 F30F1EFA 		endbr64
 3502 03f5 4889C5   		movq	%rax, %rbp
 3503 03f8 E8000000 		call	__cxa_end_catch@PLT
 3503      00
 3504 03fd 4889EF   		movq	%rbp, %rdi
 3505              	.LEHB85:
 3506 0400 E8000000 		call	_Unwind_Resume@PLT
 3506      00
 3507              	.LEHE85:
 3508              	.L229:
 3509 0405 F30F1EFA 		endbr64
 3510 0409 4889C5   		movq	%rax, %rbp
 3511 040c E8000000 		call	__cxa_end_catch@PLT
 3511      00
 3512 0411 4889EF   		movq	%rbp, %rdi
 3513              	.LEHB86:
 3514 0414 E8000000 		call	_Unwind_Resume@PLT
 3514      00
 3515              	.LEHE86:
 3516              	.L227:
 3517 0419 F30F1EFA 		endbr64
 3518 041d 4889C5   		movq	%rax, %rbp
 3519 0420 E8000000 		call	__cxa_end_catch@PLT
 3519      00
 3520 0425 4889EF   		movq	%rbp, %rdi
 3521              	.LEHB87:
 3522 0428 E8000000 		call	_Unwind_Resume@PLT
 3522      00
 3523              	.LEHE87:
 3524              		.cfi_endproc
 3525              	.LFE1253:
 3526              		.section	.gcc_except_table
 3527              		.align 4
 3528              	.LLSDAC1253:
 3529 01c4 FF       		.byte	0xff
 3530 01c5 9B       		.byte	0x9b
 3531 01c6 35       		.uleb128 .LLSDATTC1253-.LLSDATTDC1253
 3532              	.LLSDATTDC1253:
 3533 01c7 01       		.byte	0x1
 3534 01c8 2C       		.uleb128 .LLSDACSEC1253-.LLSDACSBC1253
 3535              	.LLSDACSBC1253:
 3536 01c9 05       		.uleb128 .LEHB79-.LCOLDB28
 3537 01ca 2F       		.uleb128 .LEHE79-.LEHB79
 3538 01cb C601     		.uleb128 .L231-.LCOLDB28
 3539 01cd 00       		.uleb128 0
 3540 01ce 34       		.uleb128 .LEHB80-.LCOLDB28
 3541 01cf 05       		.uleb128 .LEHE80-.LEHB80
 3542 01d0 00       		.uleb128 0
 3543 01d1 00       		.uleb128 0
 3544 01d2 43       		.uleb128 .LEHB81-.LCOLDB28
 3545 01d3 2F       		.uleb128 .LEHE81-.LEHB81
 3546 01d4 DA01     		.uleb128 .L229-.LCOLDB28
 3547 01d6 00       		.uleb128 0
 3548 01d7 72       		.uleb128 .LEHB82-.LCOLDB28
 3549 01d8 05       		.uleb128 .LEHE82-.LEHB82
 3550 01d9 00       		.uleb128 0
 3551 01da 00       		.uleb128 0
 3552 01db 8101     		.uleb128 .LEHB83-.LCOLDB28
 3553 01dd 3B       		.uleb128 .LEHE83-.LEHB83
 3554 01de EE01     		.uleb128 .L227-.LCOLDB28
 3555 01e0 00       		.uleb128 0
 3556 01e1 BC01     		.uleb128 .LEHB84-.LCOLDB28
 3557 01e3 05       		.uleb128 .LEHE84-.LEHB84
 3558 01e4 00       		.uleb128 0
 3559 01e5 00       		.uleb128 0
 3560 01e6 D501     		.uleb128 .LEHB85-.LCOLDB28
 3561 01e8 05       		.uleb128 .LEHE85-.LEHB85
 3562 01e9 00       		.uleb128 0
 3563 01ea 00       		.uleb128 0
 3564 01eb E901     		.uleb128 .LEHB86-.LCOLDB28
 3565 01ed 05       		.uleb128 .LEHE86-.LEHB86
 3566 01ee 00       		.uleb128 0
 3567 01ef 00       		.uleb128 0
 3568 01f0 FD01     		.uleb128 .LEHB87-.LCOLDB28
 3569 01f2 05       		.uleb128 .LEHE87-.LEHB87
 3570 01f3 00       		.uleb128 0
 3571 01f4 00       		.uleb128 0
 3572              	.LLSDACSEC1253:
 3573 01f5 01       		.byte	0x1
 3574 01f6 00       		.byte	0
 3575 01f7 00       		.align 4
 3576 01f8 00000000 		.long	0
 3577              	
 3578              	.LLSDATTC1253:
 3579              		.section	.text.unlikely
 3580              		.text
 3582              		.section	.text.unlikely
 3584              	.LCOLDE28:
 3585              		.text
 3586              	.LHOTE28:
 3587              		.section	.rodata.str1.1
 3588              	.LC29:
 3589 0098 48445220 		.string	"HDR 8 TDI (aa)"
 3589      38205444 
 3589      49202861 
 3589      612900
 3590              		.section	.rodata.str1.8
 3591 01c9 00000000 		.align 8
 3591      000000
 3592              	.LC30:
 3593 01d0 382C207B 		.string	"8, {AA}, {00}, {FF}, 0, {}, {}, {}, 0, {}, {}, {}, 0, {}, {}, {}, 0, {}, {}, {}, 0, {}, {
 3593      41417D2C 
 3593      207B3030 
 3593      7D2C207B 
 3593      46467D2C 
 3594              		.section	.rodata.str1.1
 3595              	.LC31:
 3596 00a7 48445220 		.string	"HDR 8 MASK (55)"
 3596      38204D41 
 3596      534B2028 
 3596      35352900 
 3597              		.section	.rodata.str1.8
 3598 022f 00       		.align 8
 3599              	.LC32:
 3600 0230 382C207B 		.string	"8, {AA}, {00}, {55}, 0, {}, {}, {}, 0, {}, {}, {}, 0, {}, {}, {}, 0, {}, {}, {}, 0, {}, {
 3600      41417D2C 
 3600      207B3030 
 3600      7D2C207B 
 3600      35357D2C 
 3601              		.section	.rodata.str1.1
 3602              	.LC33:
 3603 00b7 48445220 		.string	"HDR 6 TDI (3A)"
 3603      36205444 
 3603      49202833 
 3603      412900
 3604              		.section	.rodata.str1.8
 3605 028f 00       		.align 8
 3606              	.LC34:
 3607 0290 362C207B 		.string	"6, {3A}, {00}, {FF}, 0, {}, {}, {}, 0, {}, {}, {}, 0, {}, {}, {}, 0, {}, {}, {}, 0, {}, {
 3607      33417D2C 
 3607      207B3030 
 3607      7D2C207B 
 3607      46467D2C 
 3608 02ef 00       		.align 8
 3609              	.LC35:
 3610 02f0 556E6861 		.string	"Unhandled exception in CHECK_EQUAL(\"8, {AA}, {00}, {FF}, \" \"0, {}, {}, {}, \" \"0, {},
 3610      6E646C65 
 3610      64206578 
 3610      63657074 
 3610      696F6E20 
 3611 0395 000000   		.align 8
 3612              	.LC36:
 3613 0398 556E6861 		.string	"Unhandled exception in CHECK_EQUAL(\"8, {AA}, {00}, {55}, \" \"0, {}, {}, {}, \" \"0, {},
 3613      6E646C65 
 3613      64206578 
 3613      63657074 
 3613      696F6E20 
 3614 043d 000000   		.align 8
 3615              	.LC37:
 3616 0440 556E6861 		.string	"Unhandled exception in CHECK_EQUAL(\"6, {3A}, {00}, {FF}, \" \"0, {}, {}, {}, \" \"0, {},
 3616      6E646C65 
 3616      64206578 
 3616      63657074 
 3616      696F6E20 
 3617              		.section	.text.unlikely
 3618 042d 90       		.align 2
 3619              	.LCOLDB38:
 3620              		.text
 3621              	.LHOTB38:
 3622 1453 90       		.align 2
 3623 1454 66662E0F 		.p2align 4
 3623      1F840000 
 3623      00000090 
 3624              		.globl	_ZNK22TestFPGALink_testParse7RunImplEv
 3626              	_ZNK22TestFPGALink_testParse7RunImplEv:
 3627              	.LFB1260:
 3628              		.cfi_startproc
 3629              		.cfi_personality 0x9b,DW.ref.__gxx_personality_v0
 3630              		.cfi_lsda 0x1b,.LLSDA1260
 3631 1460 F30F1EFA 		endbr64
 3632 1464 4156     		pushq	%r14
 3633              		.cfi_def_cfa_offset 16
 3634              		.cfi_offset 14, -16
 3635 1466 31C9     		xorl	%ecx, %ecx
 3636 1468 31D2     		xorl	%edx, %edx
 3637 146a BE000400 		movl	$1024, %esi
 3637      00
 3638 146f 4155     		pushq	%r13
 3639              		.cfi_def_cfa_offset 24
 3640              		.cfi_offset 13, -24
 3641 1471 4154     		pushq	%r12
 3642              		.cfi_def_cfa_offset 32
 3643              		.cfi_offset 12, -32
 3644 1473 55       		pushq	%rbp
 3645              		.cfi_def_cfa_offset 40
 3646              		.cfi_offset 6, -40
 3647 1474 4881EC08 		subq	$776, %rsp
 3647      030000
 3648              		.cfi_def_cfa_offset 816
 3649 147b 64488B04 		movq	%fs:40, %rax
 3649      25280000 
 3649      00
 3650 1484 48898424 		movq	%rax, 760(%rsp)
 3650      F8020000 
 3651 148c 31C0     		xorl	%eax, %eax
 3652 148e 4C8D6C24 		leaq	16(%rsp), %r13
 3652      10
 3653 1493 4C89EF   		movq	%r13, %rdi
 3654              	.LEHB88:
 3655 1496 E8000000 		call	bufInitialise@PLT
 3655      00
 3656              	.LEHE88:
 3657 149b 89442408 		movl	%eax, 8(%rsp)
 3658              	.LEHB89:
 3659 149f E8000000 		call	_ZN8UnitTest11CurrentTest7DetailsEv@PLT
 3659      00
 3660 14a4 488D6C24 		leaq	80(%rsp), %rbp
 3660      50
 3661 14a9 488B30   		movq	(%rax), %rsi
 3662 14ac BA5A0200 		movl	$602, %edx
 3662      00
 3663 14b1 4889EF   		movq	%rbp, %rdi
 3664 14b4 E8000000 		call	_ZN8UnitTest11TestDetailsC1ERKS0_i@PLT
 3664      00
 3665 14b9 C7442430 		movl	$0, 48(%rsp)
 3665      00000000 
 3666 14c1 E8000000 		call	_ZN8UnitTest11CurrentTest7ResultsEv@PLT
 3666      00
 3667 14c6 488B38   		movq	(%rax), %rdi
 3668 14c9 488D5424 		leaq	8(%rsp), %rdx
 3668      08
 3669 14ce 488D7424 		leaq	48(%rsp), %rsi
 3669      30
 3670 14d3 4889E9   		movq	%rbp, %rcx
 3671 14d6 E8000000 		call	_ZN8UnitTest10CheckEqualI12BufferStatusS1_EEvRNS_11TestResultsERKT_RKT0_RKNS_11TestDetailsE
 3671      00
 3672              	.LEHE89:
 3673              	.L237:
 3674 14db 31F6     		xorl	%esi, %esi
 3675 14dd 4889EF   		movq	%rbp, %rdi
 3676              	.LEHB90:
 3677 14e0 E8000000 		call	cxtInitialise@PLT
 3677      00
 3678              	.LEHE90:
 3679 14e5 89442404 		movl	%eax, 4(%rsp)
 3680              	.LEHB91:
 3681 14e9 E8000000 		call	_ZN8UnitTest11CurrentTest7DetailsEv@PLT
 3681      00
 3682 14ee 4C8D6424 		leaq	48(%rsp), %r12
 3682      30
 3683 14f3 488B30   		movq	(%rax), %rsi
 3684 14f6 BA5C0200 		movl	$604, %edx
 3684      00
 3685 14fb 4C89E7   		movq	%r12, %rdi
 3686 14fe E8000000 		call	_ZN8UnitTest11TestDetailsC1ERKS0_i@PLT
 3686      00
 3687 1503 C744240C 		movl	$0, 12(%rsp)
 3687      00000000 
 3688 150b E8000000 		call	_ZN8UnitTest11CurrentTest7ResultsEv@PLT
 3688      00
 3689 1510 488B38   		movq	(%rax), %rdi
 3690 1513 488D5424 		leaq	4(%rsp), %rdx
 3690      04
 3691 1518 488D7424 		leaq	12(%rsp), %rsi
 3691      0C
 3692 151d 4C89E1   		movq	%r12, %rcx
 3693 1520 E8000000 		call	_ZN8UnitTest10CheckEqualI8FLStatusS1_EEvRNS_11TestResultsERKT_RKT0_RKNS_11TestDetailsE
 3693      00
 3694              	.LEHE91:
 3695              	.L240:
 3696 1525 4C89EA   		movq	%r13, %rdx
 3697 1528 488D3500 		leaq	.LC29(%rip), %rsi
 3697      000000
 3698 152f 4889EF   		movq	%rbp, %rdi
 3699              	.LEHB92:
 3700 1532 E8000000 		call	_Z11parseStringP12ParseContextPKcP6Buffer
 3700      00
 3701              	.LEHE92:
 3702              	.LEHB93:
 3703 1537 E8000000 		call	_ZN8UnitTest11CurrentTest7DetailsEv@PLT
 3703      00
 3704 153c 488B30   		movq	(%rax), %rsi
 3705 153f BA600200 		movl	$608, %edx
 3705      00
 3706 1544 4C89E7   		movq	%r12, %rdi
 3707 1547 E8000000 		call	_ZN8UnitTest11TestDetailsC1ERKS0_i@PLT
 3707      00
 3708 154c 4889EF   		movq	%rbp, %rdi
 3709 154f E8000000 		call	_Z9renderCxtPK12ParseContext
 3709      00
 3710 1554 4989C6   		movq	%rax, %r14
 3711 1557 E8000000 		call	_ZN8UnitTest11CurrentTest7ResultsEv@PLT
 3711      00
 3712 155c 488B38   		movq	(%rax), %rdi
 3713 155f 4C89E1   		movq	%r12, %rcx
 3714 1562 4C89F2   		movq	%r14, %rdx
 3715 1565 488D3500 		leaq	.LC30(%rip), %rsi
 3715      000000
 3716 156c E8000000 		call	_ZN8UnitTest10CheckEqualERNS_11TestResultsEPKcS3_RKNS_11TestDetailsE@PLT
 3716      00
 3717              	.LEHE93:
 3718              	.L243:
 3719 1571 4C89EA   		movq	%r13, %rdx
 3720 1574 488D3500 		leaq	.LC31(%rip), %rsi
 3720      000000
 3721 157b 4889EF   		movq	%rbp, %rdi
 3722              	.LEHB94:
 3723 157e E8000000 		call	_Z11parseStringP12ParseContextPKcP6Buffer
 3723      00
 3724              	.LEHE94:
 3725              	.LEHB95:
 3726 1583 E8000000 		call	_ZN8UnitTest11CurrentTest7DetailsEv@PLT
 3726      00
 3727 1588 488B30   		movq	(%rax), %rsi
 3728 158b BA6B0200 		movl	$619, %edx
 3728      00
 3729 1590 4C89E7   		movq	%r12, %rdi
 3730 1593 E8000000 		call	_ZN8UnitTest11TestDetailsC1ERKS0_i@PLT
 3730      00
 3731 1598 4889EF   		movq	%rbp, %rdi
 3732 159b E8000000 		call	_Z9renderCxtPK12ParseContext
 3732      00
 3733 15a0 4989C6   		movq	%rax, %r14
 3734 15a3 E8000000 		call	_ZN8UnitTest11CurrentTest7ResultsEv@PLT
 3734      00
 3735 15a8 488B38   		movq	(%rax), %rdi
 3736 15ab 4C89E1   		movq	%r12, %rcx
 3737 15ae 4C89F2   		movq	%r14, %rdx
 3738 15b1 488D3500 		leaq	.LC32(%rip), %rsi
 3738      000000
 3739 15b8 E8000000 		call	_ZN8UnitTest10CheckEqualERNS_11TestResultsEPKcS3_RKNS_11TestDetailsE@PLT
 3739      00
 3740              	.LEHE95:
 3741              	.L246:
 3742 15bd 4C89EA   		movq	%r13, %rdx
 3743 15c0 488D3500 		leaq	.LC33(%rip), %rsi
 3743      000000
 3744 15c7 4889EF   		movq	%rbp, %rdi
 3745              	.LEHB96:
 3746 15ca E8000000 		call	_Z11parseStringP12ParseContextPKcP6Buffer
 3746      00
 3747              	.LEHE96:
 3748              	.LEHB97:
 3749 15cf E8000000 		call	_ZN8UnitTest11CurrentTest7DetailsEv@PLT
 3749      00
 3750 15d4 488B30   		movq	(%rax), %rsi
 3751 15d7 BA760200 		movl	$630, %edx
 3751      00
 3752 15dc 4C89E7   		movq	%r12, %rdi
 3753 15df E8000000 		call	_ZN8UnitTest11TestDetailsC1ERKS0_i@PLT
 3753      00
 3754 15e4 4889EF   		movq	%rbp, %rdi
 3755 15e7 E8000000 		call	_Z9renderCxtPK12ParseContext
 3755      00
 3756 15ec 4989C6   		movq	%rax, %r14
 3757 15ef E8000000 		call	_ZN8UnitTest11CurrentTest7ResultsEv@PLT
 3757      00
 3758 15f4 488B38   		movq	(%rax), %rdi
 3759 15f7 4C89E1   		movq	%r12, %rcx
 3760 15fa 4C89F2   		movq	%r14, %rdx
 3761 15fd 488D3500 		leaq	.LC34(%rip), %rsi
 3761      000000
 3762 1604 E8000000 		call	_ZN8UnitTest10CheckEqualERNS_11TestResultsEPKcS3_RKNS_11TestDetailsE@PLT
 3762      00
 3763              	.LEHE97:
 3764              	.L249:
 3765 1609 4889EF   		movq	%rbp, %rdi
 3766              	.LEHB98:
 3767 160c E8000000 		call	cxtDestroy@PLT
 3767      00
 3768 1611 4C89EF   		movq	%r13, %rdi
 3769 1614 E8000000 		call	bufDestroy@PLT
 3769      00
 3770              	.LEHE98:
 3771 1619 488B8424 		movq	760(%rsp), %rax
 3771      F8020000 
 3772 1621 64482B04 		subq	%fs:40, %rax
 3772      25280000 
 3772      00
 3773 162a 750F     		jne	.L264
 3774 162c 4881C408 		addq	$776, %rsp
 3774      030000
 3775              		.cfi_remember_state
 3776              		.cfi_def_cfa_offset 40
 3777 1633 5D       		popq	%rbp
 3778              		.cfi_def_cfa_offset 32
 3779 1634 415C     		popq	%r12
 3780              		.cfi_def_cfa_offset 24
 3781 1636 415D     		popq	%r13
 3782              		.cfi_def_cfa_offset 16
 3783 1638 415E     		popq	%r14
 3784              		.cfi_def_cfa_offset 8
 3785 163a C3       		ret
 3786              	.L264:
 3787              		.cfi_restore_state
 3788 163b E8000000 		call	__stack_chk_fail@PLT
 3788      00
 3789              	.L260:
 3790 1640 F30F1EFA 		endbr64
 3791 1644 4889C7   		movq	%rax, %rdi
 3792 1647 E9000000 		jmp	.L248
 3792      00
 3793              	.L258:
 3794 164c F30F1EFA 		endbr64
 3795 1650 4889C7   		movq	%rax, %rdi
 3796 1653 E9000000 		jmp	.L245
 3796      00
 3797              	.L254:
 3798 1658 F30F1EFA 		endbr64
 3799 165c 4889C7   		movq	%rax, %rdi
 3800 165f E9000000 		jmp	.L239
 3800      00
 3801              	.L256:
 3802 1664 F30F1EFA 		endbr64
 3803 1668 4889C7   		movq	%rax, %rdi
 3804 166b E9000000 		jmp	.L242
 3804      00
 3805              	.L252:
 3806 1670 F30F1EFA 		endbr64
 3807 1674 4889C7   		movq	%rax, %rdi
 3808 1677 E9000000 		jmp	.L236
 3808      00
 3809              		.section	.gcc_except_table
 3810              		.align 4
 3811              	.LLSDA1260:
 3812 01fc FF       		.byte	0xff
 3813 01fd 9B       		.byte	0x9b
 3814 01fe 45       		.uleb128 .LLSDATT1260-.LLSDATTD1260
 3815              	.LLSDATTD1260:
 3816 01ff 01       		.byte	0x1
 3817 0200 3A       		.uleb128 .LLSDACSE1260-.LLSDACSB1260
 3818              	.LLSDACSB1260:
 3819 0201 36       		.uleb128 .LEHB88-.LFB1260
 3820 0202 05       		.uleb128 .LEHE88-.LEHB88
 3821 0203 00       		.uleb128 0
 3822 0204 00       		.uleb128 0
 3823 0205 3F       		.uleb128 .LEHB89-.LFB1260
 3824 0206 3C       		.uleb128 .LEHE89-.LEHB89
 3825 0207 9004     		.uleb128 .L252-.LFB1260
 3826 0209 01       		.uleb128 0x1
 3827 020a 8001     		.uleb128 .LEHB90-.LFB1260
 3828 020c 05       		.uleb128 .LEHE90-.LEHB90
 3829 020d 00       		.uleb128 0
 3830 020e 00       		.uleb128 0
 3831 020f 8901     		.uleb128 .LEHB91-.LFB1260
 3832 0211 3C       		.uleb128 .LEHE91-.LEHB91
 3833 0212 F803     		.uleb128 .L254-.LFB1260
 3834 0214 01       		.uleb128 0x1
 3835 0215 D201     		.uleb128 .LEHB92-.LFB1260
 3836 0217 05       		.uleb128 .LEHE92-.LEHB92
 3837 0218 00       		.uleb128 0
 3838 0219 00       		.uleb128 0
 3839 021a D701     		.uleb128 .LEHB93-.LFB1260
 3840 021c 3A       		.uleb128 .LEHE93-.LEHB93
 3841 021d 8404     		.uleb128 .L256-.LFB1260
 3842 021f 01       		.uleb128 0x1
 3843 0220 9E02     		.uleb128 .LEHB94-.LFB1260
 3844 0222 05       		.uleb128 .LEHE94-.LEHB94
 3845 0223 00       		.uleb128 0
 3846 0224 00       		.uleb128 0
 3847 0225 A302     		.uleb128 .LEHB95-.LFB1260
 3848 0227 3A       		.uleb128 .LEHE95-.LEHB95
 3849 0228 EC03     		.uleb128 .L258-.LFB1260
 3850 022a 01       		.uleb128 0x1
 3851 022b EA02     		.uleb128 .LEHB96-.LFB1260
 3852 022d 05       		.uleb128 .LEHE96-.LEHB96
 3853 022e 00       		.uleb128 0
 3854 022f 00       		.uleb128 0
 3855 0230 EF02     		.uleb128 .LEHB97-.LFB1260
 3856 0232 3A       		.uleb128 .LEHE97-.LEHB97
 3857 0233 E003     		.uleb128 .L260-.LFB1260
 3858 0235 01       		.uleb128 0x1
 3859 0236 AC03     		.uleb128 .LEHB98-.LFB1260
 3860 0238 0D       		.uleb128 .LEHE98-.LEHB98
 3861 0239 00       		.uleb128 0
 3862 023a 00       		.uleb128 0
 3863              	.LLSDACSE1260:
 3864 023b 01       		.byte	0x1
 3865 023c 00       		.byte	0
 3866 023d 000000   		.align 4
 3867 0240 00000000 		.long	0
 3868              	
 3869              	.LLSDATT1260:
 3870              		.text
 3871              		.cfi_endproc
 3872              		.section	.text.unlikely
 3873              		.cfi_startproc
 3874              		.cfi_personality 0x9b,DW.ref.__gxx_personality_v0
 3875              		.cfi_lsda 0x1b,.LLSDAC1260
 3877              	_ZNK22TestFPGALink_testParse7RunImplEv.cold:
 3878              	.LFSB1260:
 3879              	.L248:
 3880              		.cfi_def_cfa_offset 816
 3881              		.cfi_offset 6, -40
 3882              		.cfi_offset 12, -32
 3883              		.cfi_offset 13, -24
 3884              		.cfi_offset 14, -16
 3885 042e E8000000 		call	__cxa_begin_catch@PLT
 3885      00
 3886              	.LEHB99:
 3887 0433 E8000000 		call	_ZN8UnitTest11CurrentTest7ResultsEv@PLT
 3887      00
 3888 0438 4C8B30   		movq	(%rax), %r14
 3889 043b E8000000 		call	_ZN8UnitTest11CurrentTest7DetailsEv@PLT
 3889      00
 3890 0440 488B30   		movq	(%rax), %rsi
 3891 0443 BA760200 		movl	$630, %edx
 3891      00
 3892 0448 4C89E7   		movq	%r12, %rdi
 3893 044b E8000000 		call	_ZN8UnitTest11TestDetailsC1ERKS0_i@PLT
 3893      00
 3894 0450 488D1500 		leaq	.LC37(%rip), %rdx
 3894      000000
 3895 0457 4C89E6   		movq	%r12, %rsi
 3896 045a 4C89F7   		movq	%r14, %rdi
 3897 045d E8000000 		call	_ZN8UnitTest11TestResults13OnTestFailureERKNS_11TestDetailsEPKc@PLT
 3897      00
 3898              	.LEHE99:
 3899              	.LEHB100:
 3900 0462 E8000000 		call	__cxa_end_catch@PLT
 3900      00
 3901              	.LEHE100:
 3902 0467 E9000000 		jmp	.L249
 3902      00
 3903              	.L245:
 3904 046c E8000000 		call	__cxa_begin_catch@PLT
 3904      00
 3905              	.LEHB101:
 3906 0471 E8000000 		call	_ZN8UnitTest11CurrentTest7ResultsEv@PLT
 3906      00
 3907 0476 4C8B30   		movq	(%rax), %r14
 3908 0479 E8000000 		call	_ZN8UnitTest11CurrentTest7DetailsEv@PLT
 3908      00
 3909 047e 488B30   		movq	(%rax), %rsi
 3910 0481 BA6B0200 		movl	$619, %edx
 3910      00
 3911 0486 4C89E7   		movq	%r12, %rdi
 3912 0489 E8000000 		call	_ZN8UnitTest11TestDetailsC1ERKS0_i@PLT
 3912      00
 3913 048e 488D1500 		leaq	.LC36(%rip), %rdx
 3913      000000
 3914 0495 4C89E6   		movq	%r12, %rsi
 3915 0498 4C89F7   		movq	%r14, %rdi
 3916 049b E8000000 		call	_ZN8UnitTest11TestResults13OnTestFailureERKNS_11TestDetailsEPKc@PLT
 3916      00
 3917              	.LEHE101:
 3918              	.LEHB102:
 3919 04a0 E8000000 		call	__cxa_end_catch@PLT
 3919      00
 3920              	.LEHE102:
 3921 04a5 E9000000 		jmp	.L246
 3921      00
 3922              	.L239:
 3923 04aa E8000000 		call	__cxa_begin_catch@PLT
 3923      00
 3924              	.LEHB103:
 3925 04af E8000000 		call	_ZN8UnitTest11CurrentTest7ResultsEv@PLT
 3925      00
 3926 04b4 4C8B30   		movq	(%rax), %r14
 3927 04b7 E8000000 		call	_ZN8UnitTest11CurrentTest7DetailsEv@PLT
 3927      00
 3928 04bc 4C8D6424 		leaq	48(%rsp), %r12
 3928      30
 3929 04c1 488B30   		movq	(%rax), %rsi
 3930 04c4 BA5C0200 		movl	$604, %edx
 3930      00
 3931 04c9 4C89E7   		movq	%r12, %rdi
 3932 04cc E8000000 		call	_ZN8UnitTest11TestDetailsC1ERKS0_i@PLT
 3932      00
 3933 04d1 488D1500 		leaq	.LC16(%rip), %rdx
 3933      000000
 3934 04d8 4C89E6   		movq	%r12, %rsi
 3935 04db 4C89F7   		movq	%r14, %rdi
 3936 04de E8000000 		call	_ZN8UnitTest11TestResults13OnTestFailureERKNS_11TestDetailsEPKc@PLT
 3936      00
 3937              	.LEHE103:
 3938              	.LEHB104:
 3939 04e3 E8000000 		call	__cxa_end_catch@PLT
 3939      00
 3940              	.LEHE104:
 3941 04e8 E9000000 		jmp	.L240
 3941      00
 3942              	.L242:
 3943 04ed E8000000 		call	__cxa_begin_catch@PLT
 3943      00
 3944              	.LEHB105:
 3945 04f2 E8000000 		call	_ZN8UnitTest11CurrentTest7ResultsEv@PLT
 3945      00
 3946 04f7 4C8B30   		movq	(%rax), %r14
 3947 04fa E8000000 		call	_ZN8UnitTest11CurrentTest7DetailsEv@PLT
 3947      00
 3948 04ff 488B30   		movq	(%rax), %rsi
 3949 0502 BA600200 		movl	$608, %edx
 3949      00
 3950 0507 4C89E7   		movq	%r12, %rdi
 3951 050a E8000000 		call	_ZN8UnitTest11TestDetailsC1ERKS0_i@PLT
 3951      00
 3952 050f 488D1500 		leaq	.LC35(%rip), %rdx
 3952      000000
 3953 0516 4C89E6   		movq	%r12, %rsi
 3954 0519 4C89F7   		movq	%r14, %rdi
 3955 051c E8000000 		call	_ZN8UnitTest11TestResults13OnTestFailureERKNS_11TestDetailsEPKc@PLT
 3955      00
 3956              	.LEHE105:
 3957              	.LEHB106:
 3958 0521 E8000000 		call	__cxa_end_catch@PLT
 3958      00
 3959              	.LEHE106:
 3960 0526 E9000000 		jmp	.L243
 3960      00
 3961              	.L236:
 3962 052b E8000000 		call	__cxa_begin_catch@PLT
 3962      00
 3963              	.LEHB107:
 3964 0530 E8000000 		call	_ZN8UnitTest11CurrentTest7ResultsEv@PLT
 3964      00
 3965 0535 4C8B20   		movq	(%rax), %r12
 3966 0538 E8000000 		call	_ZN8UnitTest11CurrentTest7DetailsEv@PLT
 3966      00
 3967 053d 488D6C24 		leaq	80(%rsp), %rbp
 3967      50
 3968 0542 488B30   		movq	(%rax), %rsi
 3969 0545 BA5A0200 		movl	$602, %edx
 3969      00
 3970 054a 4889EF   		movq	%rbp, %rdi
 3971 054d E8000000 		call	_ZN8UnitTest11TestDetailsC1ERKS0_i@PLT
 3971      00
 3972 0552 488D1500 		leaq	.LC26(%rip), %rdx
 3972      000000
 3973 0559 4889EE   		movq	%rbp, %rsi
 3974 055c 4C89E7   		movq	%r12, %rdi
 3975 055f E8000000 		call	_ZN8UnitTest11TestResults13OnTestFailureERKNS_11TestDetailsEPKc@PLT
 3975      00
 3976              	.LEHE107:
 3977              	.LEHB108:
 3978 0564 E8000000 		call	__cxa_end_catch@PLT
 3978      00
 3979              	.LEHE108:
 3980 0569 E9000000 		jmp	.L237
 3980      00
 3981              	.L261:
 3982 056e F30F1EFA 		endbr64
 3983 0572 4889C5   		movq	%rax, %rbp
 3984 0575 E8000000 		call	__cxa_end_catch@PLT
 3984      00
 3985 057a 4889EF   		movq	%rbp, %rdi
 3986              	.LEHB109:
 3987 057d E8000000 		call	_Unwind_Resume@PLT
 3987      00
 3988              	.LEHE109:
 3989              	.L259:
 3990 0582 F30F1EFA 		endbr64
 3991 0586 4889C5   		movq	%rax, %rbp
 3992 0589 E8000000 		call	__cxa_end_catch@PLT
 3992      00
 3993 058e 4889EF   		movq	%rbp, %rdi
 3994              	.LEHB110:
 3995 0591 E8000000 		call	_Unwind_Resume@PLT
 3995      00
 3996              	.LEHE110:
 3997              	.L257:
 3998 0596 F30F1EFA 		endbr64
 3999 059a 4889C5   		movq	%rax, %rbp
 4000 059d E8000000 		call	__cxa_end_catch@PLT
 4000      00
 4001 05a2 4889EF   		movq	%rbp, %rdi
 4002              	.LEHB111:
 4003 05a5 E8000000 		call	_Unwind_Resume@PLT
 4003      00
 4004              	.LEHE111:
 4005              	.L255:
 4006 05aa F30F1EFA 		endbr64
 4007 05ae 4889C5   		movq	%rax, %rbp
 4008 05b1 E8000000 		call	__cxa_end_catch@PLT
 4008      00
 4009 05b6 4889EF   		movq	%rbp, %rdi
 4010              	.LEHB112:
 4011 05b9 E8000000 		call	_Unwind_Resume@PLT
 4011      00
 4012              	.LEHE112:
 4013              	.L253:
 4014 05be F30F1EFA 		endbr64
 4015 05c2 4889C5   		movq	%rax, %rbp
 4016 05c5 E8000000 		call	__cxa_end_catch@PLT
 4016      00
 4017 05ca 4889EF   		movq	%rbp, %rdi
 4018              	.LEHB113:
 4019 05cd E8000000 		call	_Unwind_Resume@PLT
 4019      00
 4020              	.LEHE113:
 4021              		.cfi_endproc
 4022              	.LFE1260:
 4023              		.section	.gcc_except_table
 4024              		.align 4
 4025              	.LLSDAC1260:
 4026 0244 FF       		.byte	0xff
 4027 0245 9B       		.byte	0x9b
 4028 0246 55       		.uleb128 .LLSDATTC1260-.LLSDATTDC1260
 4029              	.LLSDATTDC1260:
 4030 0247 01       		.byte	0x1
 4031 0248 4C       		.uleb128 .LLSDACSEC1260-.LLSDACSBC1260
 4032              	.LLSDACSBC1260:
 4033 0249 05       		.uleb128 .LEHB99-.LCOLDB38
 4034 024a 2F       		.uleb128 .LEHE99-.LEHB99
 4035 024b C002     		.uleb128 .L261-.LCOLDB38
 4036 024d 00       		.uleb128 0
 4037 024e 34       		.uleb128 .LEHB100-.LCOLDB38
 4038 024f 05       		.uleb128 .LEHE100-.LEHB100
 4039 0250 00       		.uleb128 0
 4040 0251 00       		.uleb128 0
 4041 0252 43       		.uleb128 .LEHB101-.LCOLDB38
 4042 0253 2F       		.uleb128 .LEHE101-.LEHB101
 4043 0254 D402     		.uleb128 .L259-.LCOLDB38
 4044 0256 00       		.uleb128 0
 4045 0257 72       		.uleb128 .LEHB102-.LCOLDB38
 4046 0258 05       		.uleb128 .LEHE102-.LEHB102
 4047 0259 00       		.uleb128 0
 4048 025a 00       		.uleb128 0
 4049 025b 8101     		.uleb128 .LEHB103-.LCOLDB38
 4050 025d 34       		.uleb128 .LEHE103-.LEHB103
 4051 025e FC02     		.uleb128 .L255-.LCOLDB38
 4052 0260 00       		.uleb128 0
 4053 0261 B501     		.uleb128 .LEHB104-.LCOLDB38
 4054 0263 05       		.uleb128 .LEHE104-.LEHB104
 4055 0264 00       		.uleb128 0
 4056 0265 00       		.uleb128 0
 4057 0266 C401     		.uleb128 .LEHB105-.LCOLDB38
 4058 0268 2F       		.uleb128 .LEHE105-.LEHB105
 4059 0269 E802     		.uleb128 .L257-.LCOLDB38
 4060 026b 00       		.uleb128 0
 4061 026c F301     		.uleb128 .LEHB106-.LCOLDB38
 4062 026e 05       		.uleb128 .LEHE106-.LEHB106
 4063 026f 00       		.uleb128 0
 4064 0270 00       		.uleb128 0
 4065 0271 8202     		.uleb128 .LEHB107-.LCOLDB38
 4066 0273 34       		.uleb128 .LEHE107-.LEHB107
 4067 0274 9003     		.uleb128 .L253-.LCOLDB38
 4068 0276 00       		.uleb128 0
 4069 0277 B602     		.uleb128 .LEHB108-.LCOLDB38
 4070 0279 05       		.uleb128 .LEHE108-.LEHB108
 4071 027a 00       		.uleb128 0
 4072 027b 00       		.uleb128 0
 4073 027c CF02     		.uleb128 .LEHB109-.LCOLDB38
 4074 027e 05       		.uleb128 .LEHE109-.LEHB109
 4075 027f 00       		.uleb128 0
 4076 0280 00       		.uleb128 0
 4077 0281 E302     		.uleb128 .LEHB110-.LCOLDB38
 4078 0283 05       		.uleb128 .LEHE110-.LEHB110
 4079 0284 00       		.uleb128 0
 4080 0285 00       		.uleb128 0
 4081 0286 F702     		.uleb128 .LEHB111-.LCOLDB38
 4082 0288 05       		.uleb128 .LEHE111-.LEHB111
 4083 0289 00       		.uleb128 0
 4084 028a 00       		.uleb128 0
 4085 028b 8B03     		.uleb128 .LEHB112-.LCOLDB38
 4086 028d 05       		.uleb128 .LEHE112-.LEHB112
 4087 028e 00       		.uleb128 0
 4088 028f 00       		.uleb128 0
 4089 0290 9F03     		.uleb128 .LEHB113-.LCOLDB38
 4090 0292 05       		.uleb128 .LEHE113-.LEHB113
 4091 0293 00       		.uleb128 0
 4092 0294 00       		.uleb128 0
 4093              	.LLSDACSEC1260:
 4094 0295 01       		.byte	0x1
 4095 0296 00       		.byte	0
 4096 0297 00       		.align 4
 4097 0298 00000000 		.long	0
 4098              	
 4099              	.LLSDATTC1260:
 4100              		.section	.text.unlikely
 4101              		.text
 4103              		.section	.text.unlikely
 4105              	.LCOLDE38:
 4106              		.text
 4107              	.LHOTE38:
 4108              		.section	.text.unlikely
 4109              		.align 2
 4110              	.LCOLDB41:
 4111              		.text
 4112              	.LHOTB41:
 4113              		.align 2
 4114 167c 0F1F4000 		.p2align 4
 4115              		.globl	_ZNK27TestFPGALink_testBuildIndex7RunImplEv
 4117              	_ZNK27TestFPGALink_testBuildIndex7RunImplEv:
 4118              	.LFB1269:
 4119              		.cfi_startproc
 4120              		.cfi_personality 0x9b,DW.ref.__gxx_personality_v0
 4121              		.cfi_lsda 0x1b,.LLSDA1269
 4122 1680 F30F1EFA 		endbr64
 4123 1684 4156     		pushq	%r14
 4124              		.cfi_def_cfa_offset 16
 4125              		.cfi_offset 14, -16
 4126 1686 31C9     		xorl	%ecx, %ecx
 4127 1688 31D2     		xorl	%edx, %edx
 4128 168a BE230000 		movl	$35, %esi
 4128      00
 4129 168f 4155     		pushq	%r13
 4130              		.cfi_def_cfa_offset 24
 4131              		.cfi_offset 13, -24
 4132 1691 4154     		pushq	%r12
 4133              		.cfi_def_cfa_offset 32
 4134              		.cfi_offset 12, -32
 4135 1693 55       		pushq	%rbp
 4136              		.cfi_def_cfa_offset 40
 4137              		.cfi_offset 6, -40
 4138 1694 4881EC38 		subq	$824, %rsp
 4138      030000
 4139              		.cfi_def_cfa_offset 864
 4140 169b 660F6F05 		movdqa	.LC39(%rip), %xmm0
 4140      00000000 
 4141 16a3 64488B04 		movq	%fs:40, %rax
 4141      25280000 
 4141      00
 4142 16ac 48898424 		movq	%rax, 808(%rsp)
 4142      28030000 
 4143 16b4 31C0     		xorl	%eax, %eax
 4144 16b6 4C8D6C24 		leaq	16(%rsp), %r13
 4144      10
 4145 16bb B8001000 		movl	$4096, %eax
 4145      00
 4146 16c0 C6842422 		movb	$0, 802(%rsp)
 4146      03000000 
 4147 16c8 0F298424 		movaps	%xmm0, 768(%rsp)
 4147      00030000 
 4148 16d0 660F6F05 		movdqa	.LC40(%rip), %xmm0
 4148      00000000 
 4149 16d8 4C89EF   		movq	%r13, %rdi
 4150 16db 66898424 		movw	%ax, 800(%rsp)
 4150      20030000 
 4151 16e3 0F298424 		movaps	%xmm0, 784(%rsp)
 4151      10030000 
 4152              	.LEHB114:
 4153 16eb E8000000 		call	bufInitialise@PLT
 4153      00
 4154              	.LEHE114:
 4155 16f0 89442408 		movl	%eax, 8(%rsp)
 4156              	.LEHB115:
 4157 16f4 E8000000 		call	_ZN8UnitTest11CurrentTest7DetailsEv@PLT
 4157      00
 4158 16f9 488D6C24 		leaq	80(%rsp), %rbp
 4158      50
 4159 16fe 488B30   		movq	(%rax), %rsi
 4160 1701 BA4F0300 		movl	$847, %edx
 4160      00
 4161 1706 4889EF   		movq	%rbp, %rdi
 4162 1709 E8000000 		call	_ZN8UnitTest11TestDetailsC1ERKS0_i@PLT
 4162      00
 4163 170e C7442430 		movl	$0, 48(%rsp)
 4163      00000000 
 4164 1716 E8000000 		call	_ZN8UnitTest11CurrentTest7ResultsEv@PLT
 4164      00
 4165 171b 488B38   		movq	(%rax), %rdi
 4166 171e 488D5424 		leaq	8(%rsp), %rdx
 4166      08
 4167 1723 488D7424 		leaq	48(%rsp), %rsi
 4167      30
 4168 1728 4889E9   		movq	%rbp, %rcx
 4169 172b E8000000 		call	_ZN8UnitTest10CheckEqualI12BufferStatusS1_EEvRNS_11TestResultsERKT_RKT0_RKNS_11TestDetailsE
 4169      00
 4170              	.LEHE115:
 4171              	.L267:
 4172 1730 31C0     		xorl	%eax, %eax
 4173 1732 B9550000 		movl	$85, %ecx
 4173      00
 4174 1737 4889EF   		movq	%rbp, %rdi
 4175 173a BA230000 		movl	$35, %edx
 4175      00
 4176 173f F348AB   		rep stosq
 4177 1742 488DB424 		leaq	768(%rsp), %rsi
 4177      00030000 
 4178 174a 4C89EF   		movq	%r13, %rdi
 4179 174d C78424EC 		movl	$8, 748(%rsp)
 4179      02000008 
 4179      000000
 4180              	.LEHB116:
 4181 1758 E8000000 		call	bufAppendBlock@PLT
 4181      00
 4182              	.LEHE116:
 4183 175d 89442408 		movl	%eax, 8(%rsp)
 4184              	.LEHB117:
 4185 1761 E8000000 		call	_ZN8UnitTest11CurrentTest7DetailsEv@PLT
 4185      00
 4186 1766 4C8D6424 		leaq	48(%rsp), %r12
 4186      30
 4187 176b 488B30   		movq	(%rax), %rsi
 4188 176e BA530300 		movl	$851, %edx
 4188      00
 4189 1773 4C89E7   		movq	%r12, %rdi
 4190 1776 E8000000 		call	_ZN8UnitTest11TestDetailsC1ERKS0_i@PLT
 4190      00
 4191 177b C744240C 		movl	$0, 12(%rsp)
 4191      00000000 
 4192 1783 E8000000 		call	_ZN8UnitTest11CurrentTest7ResultsEv@PLT
 4192      00
 4193 1788 488B38   		movq	(%rax), %rdi
 4194 178b 488D5424 		leaq	8(%rsp), %rdx
 4194      08
 4195 1790 488D7424 		leaq	12(%rsp), %rsi
 4195      0C
 4196 1795 4C89E1   		movq	%r12, %rcx
 4197 1798 E8000000 		call	_ZN8UnitTest10CheckEqualI12BufferStatusS1_EEvRNS_11TestResultsERKT_RKT0_RKNS_11TestDetailsE
 4197      00
 4198              	.LEHE117:
 4199              	.L270:
 4200 179d 31D2     		xorl	%edx, %edx
 4201 179f 4C89EE   		movq	%r13, %rsi
 4202 17a2 4889EF   		movq	%rbp, %rdi
 4203              	.LEHB118:
 4204 17a5 E8000000 		call	buildIndex@PLT
 4204      00
 4205              	.LEHE118:
 4206 17aa 89442404 		movl	%eax, 4(%rsp)
 4207              	.LEHB119:
 4208 17ae E8000000 		call	_ZN8UnitTest11CurrentTest7DetailsEv@PLT
 4208      00
 4209 17b3 488B30   		movq	(%rax), %rsi
 4210 17b6 BA550300 		movl	$853, %edx
 4210      00
 4211 17bb 4C89E7   		movq	%r12, %rdi
 4212 17be E8000000 		call	_ZN8UnitTest11TestDetailsC1ERKS0_i@PLT
 4212      00
 4213 17c3 C744240C 		movl	$0, 12(%rsp)
 4213      00000000 
 4214 17cb E8000000 		call	_ZN8UnitTest11CurrentTest7ResultsEv@PLT
 4214      00
 4215 17d0 488B38   		movq	(%rax), %rdi
 4216 17d3 488D5424 		leaq	4(%rsp), %rdx
 4216      04
 4217 17d8 488D7424 		leaq	12(%rsp), %rsi
 4217      0C
 4218 17dd 4C89E1   		movq	%r12, %rcx
 4219 17e0 E8000000 		call	_ZN8UnitTest10CheckEqualI8FLStatusS1_EEvRNS_11TestResultsERKT_RKT0_RKNS_11TestDetailsE
 4219      00
 4220              	.LEHE119:
 4221              	.L273:
 4222 17e5 4C89EF   		movq	%r13, %rdi
 4223              	.LEHB120:
 4224 17e8 E8000000 		call	bufDestroy@PLT
 4224      00
 4225              	.LEHE120:
 4226 17ed 488B8424 		movq	808(%rsp), %rax
 4226      28030000 
 4227 17f5 64482B04 		subq	%fs:40, %rax
 4227      25280000 
 4227      00
 4228 17fe 750F     		jne	.L284
 4229 1800 4881C438 		addq	$824, %rsp
 4229      030000
 4230              		.cfi_remember_state
 4231              		.cfi_def_cfa_offset 40
 4232 1807 5D       		popq	%rbp
 4233              		.cfi_def_cfa_offset 32
 4234 1808 415C     		popq	%r12
 4235              		.cfi_def_cfa_offset 24
 4236 180a 415D     		popq	%r13
 4237              		.cfi_def_cfa_offset 16
 4238 180c 415E     		popq	%r14
 4239              		.cfi_def_cfa_offset 8
 4240 180e C3       		ret
 4241              	.L284:
 4242              		.cfi_restore_state
 4243 180f E8000000 		call	__stack_chk_fail@PLT
 4243      00
 4244              	.L280:
 4245 1814 F30F1EFA 		endbr64
 4246 1818 4889C7   		movq	%rax, %rdi
 4247 181b E9000000 		jmp	.L272
 4247      00
 4248              	.L278:
 4249 1820 F30F1EFA 		endbr64
 4250 1824 4889C7   		movq	%rax, %rdi
 4251 1827 E9000000 		jmp	.L269
 4251      00
 4252              	.L276:
 4253 182c F30F1EFA 		endbr64
 4254 1830 4889C7   		movq	%rax, %rdi
 4255 1833 E9000000 		jmp	.L266
 4255      00
 4256              		.section	.gcc_except_table
 4257              		.align 4
 4258              	.LLSDA1269:
 4259 029c FF       		.byte	0xff
 4260 029d 9B       		.byte	0x9b
 4261 029e 2D       		.uleb128 .LLSDATT1269-.LLSDATTD1269
 4262              	.LLSDATTD1269:
 4263 029f 01       		.byte	0x1
 4264 02a0 24       		.uleb128 .LLSDACSE1269-.LLSDACSB1269
 4265              	.LLSDACSB1269:
 4266 02a1 6B       		.uleb128 .LEHB114-.LFB1269
 4267 02a2 05       		.uleb128 .LEHE114-.LEHB114
 4268 02a3 00       		.uleb128 0
 4269 02a4 00       		.uleb128 0
 4270 02a5 74       		.uleb128 .LEHB115-.LFB1269
 4271 02a6 3C       		.uleb128 .LEHE115-.LEHB115
 4272 02a7 AC03     		.uleb128 .L276-.LFB1269
 4273 02a9 01       		.uleb128 0x1
 4274 02aa D801     		.uleb128 .LEHB116-.LFB1269
 4275 02ac 05       		.uleb128 .LEHE116-.LEHB116
 4276 02ad 00       		.uleb128 0
 4277 02ae 00       		.uleb128 0
 4278 02af E101     		.uleb128 .LEHB117-.LFB1269
 4279 02b1 3C       		.uleb128 .LEHE117-.LEHB117
 4280 02b2 A003     		.uleb128 .L278-.LFB1269
 4281 02b4 01       		.uleb128 0x1
 4282 02b5 A502     		.uleb128 .LEHB118-.LFB1269
 4283 02b7 05       		.uleb128 .LEHE118-.LEHB118
 4284 02b8 00       		.uleb128 0
 4285 02b9 00       		.uleb128 0
 4286 02ba AE02     		.uleb128 .LEHB119-.LFB1269
 4287 02bc 37       		.uleb128 .LEHE119-.LEHB119
 4288 02bd 9403     		.uleb128 .L280-.LFB1269
 4289 02bf 01       		.uleb128 0x1
 4290 02c0 E802     		.uleb128 .LEHB120-.LFB1269
 4291 02c2 05       		.uleb128 .LEHE120-.LEHB120
 4292 02c3 00       		.uleb128 0
 4293 02c4 00       		.uleb128 0
 4294              	.LLSDACSE1269:
 4295 02c5 01       		.byte	0x1
 4296 02c6 00       		.byte	0
 4297 02c7 00       		.align 4
 4298 02c8 00000000 		.long	0
 4299              	
 4300              	.LLSDATT1269:
 4301              		.text
 4302              		.cfi_endproc
 4303              		.section	.text.unlikely
 4304              		.cfi_startproc
 4305              		.cfi_personality 0x9b,DW.ref.__gxx_personality_v0
 4306              		.cfi_lsda 0x1b,.LLSDAC1269
 4308              	_ZNK27TestFPGALink_testBuildIndex7RunImplEv.cold:
 4309              	.LFSB1269:
 4310              	.L272:
 4311              		.cfi_def_cfa_offset 864
 4312              		.cfi_offset 6, -40
 4313              		.cfi_offset 12, -32
 4314              		.cfi_offset 13, -24
 4315              		.cfi_offset 14, -16
 4316 05d2 E8000000 		call	__cxa_begin_catch@PLT
 4316      00
 4317              	.LEHB121:
 4318 05d7 E8000000 		call	_ZN8UnitTest11CurrentTest7ResultsEv@PLT
 4318      00
 4319 05dc 488B28   		movq	(%rax), %rbp
 4320 05df E8000000 		call	_ZN8UnitTest11CurrentTest7DetailsEv@PLT
 4320      00
 4321 05e4 488B30   		movq	(%rax), %rsi
 4322 05e7 BA550300 		movl	$853, %edx
 4322      00
 4323 05ec 4C89E7   		movq	%r12, %rdi
 4324 05ef E8000000 		call	_ZN8UnitTest11TestDetailsC1ERKS0_i@PLT
 4324      00
 4325 05f4 488D1500 		leaq	.LC16(%rip), %rdx
 4325      000000
 4326 05fb 4C89E6   		movq	%r12, %rsi
 4327 05fe 4889EF   		movq	%rbp, %rdi
 4328 0601 E8000000 		call	_ZN8UnitTest11TestResults13OnTestFailureERKNS_11TestDetailsEPKc@PLT
 4328      00
 4329              	.LEHE121:
 4330              	.LEHB122:
 4331 0606 E8000000 		call	__cxa_end_catch@PLT
 4331      00
 4332              	.LEHE122:
 4333 060b E9000000 		jmp	.L273
 4333      00
 4334              	.L269:
 4335 0610 E8000000 		call	__cxa_begin_catch@PLT
 4335      00
 4336              	.LEHB123:
 4337 0615 E8000000 		call	_ZN8UnitTest11CurrentTest7ResultsEv@PLT
 4337      00
 4338 061a 4C8B30   		movq	(%rax), %r14
 4339 061d E8000000 		call	_ZN8UnitTest11CurrentTest7DetailsEv@PLT
 4339      00
 4340 0622 4C8D6424 		leaq	48(%rsp), %r12
 4340      30
 4341 0627 488B30   		movq	(%rax), %rsi
 4342 062a BA530300 		movl	$851, %edx
 4342      00
 4343 062f 4C89E7   		movq	%r12, %rdi
 4344 0632 E8000000 		call	_ZN8UnitTest11TestDetailsC1ERKS0_i@PLT
 4344      00
 4345 0637 488D1500 		leaq	.LC26(%rip), %rdx
 4345      000000
 4346 063e 4C89E6   		movq	%r12, %rsi
 4347 0641 4C89F7   		movq	%r14, %rdi
 4348 0644 E8000000 		call	_ZN8UnitTest11TestResults13OnTestFailureERKNS_11TestDetailsEPKc@PLT
 4348      00
 4349              	.LEHE123:
 4350              	.LEHB124:
 4351 0649 E8000000 		call	__cxa_end_catch@PLT
 4351      00
 4352              	.LEHE124:
 4353 064e E9000000 		jmp	.L270
 4353      00
 4354              	.L266:
 4355 0653 E8000000 		call	__cxa_begin_catch@PLT
 4355      00
 4356              	.LEHB125:
 4357 0658 E8000000 		call	_ZN8UnitTest11CurrentTest7ResultsEv@PLT
 4357      00
 4358 065d 4C8B20   		movq	(%rax), %r12
 4359 0660 E8000000 		call	_ZN8UnitTest11CurrentTest7DetailsEv@PLT
 4359      00
 4360 0665 488D6C24 		leaq	80(%rsp), %rbp
 4360      50
 4361 066a 488B30   		movq	(%rax), %rsi
 4362 066d BA4F0300 		movl	$847, %edx
 4362      00
 4363 0672 4889EF   		movq	%rbp, %rdi
 4364 0675 E8000000 		call	_ZN8UnitTest11TestDetailsC1ERKS0_i@PLT
 4364      00
 4365 067a 488D1500 		leaq	.LC26(%rip), %rdx
 4365      000000
 4366 0681 4889EE   		movq	%rbp, %rsi
 4367 0684 4C89E7   		movq	%r12, %rdi
 4368 0687 E8000000 		call	_ZN8UnitTest11TestResults13OnTestFailureERKNS_11TestDetailsEPKc@PLT
 4368      00
 4369              	.LEHE125:
 4370              	.LEHB126:
 4371 068c E8000000 		call	__cxa_end_catch@PLT
 4371      00
 4372              	.LEHE126:
 4373 0691 E9000000 		jmp	.L267
 4373      00
 4374              	.L281:
 4375 0696 F30F1EFA 		endbr64
 4376 069a 4889C5   		movq	%rax, %rbp
 4377 069d E8000000 		call	__cxa_end_catch@PLT
 4377      00
 4378 06a2 4889EF   		movq	%rbp, %rdi
 4379              	.LEHB127:
 4380 06a5 E8000000 		call	_Unwind_Resume@PLT
 4380      00
 4381              	.LEHE127:
 4382              	.L279:
 4383 06aa F30F1EFA 		endbr64
 4384 06ae 4889C5   		movq	%rax, %rbp
 4385 06b1 E8000000 		call	__cxa_end_catch@PLT
 4385      00
 4386 06b6 4889EF   		movq	%rbp, %rdi
 4387              	.LEHB128:
 4388 06b9 E8000000 		call	_Unwind_Resume@PLT
 4388      00
 4389              	.LEHE128:
 4390              	.L277:
 4391 06be F30F1EFA 		endbr64
 4392 06c2 4889C5   		movq	%rax, %rbp
 4393 06c5 E8000000 		call	__cxa_end_catch@PLT
 4393      00
 4394 06ca 4889EF   		movq	%rbp, %rdi
 4395              	.LEHB129:
 4396 06cd E8000000 		call	_Unwind_Resume@PLT
 4396      00
 4397              	.LEHE129:
 4398              		.cfi_endproc
 4399              	.LFE1269:
 4400              		.section	.gcc_except_table
 4401              		.align 4
 4402              	.LLSDAC1269:
 4403 02cc FF       		.byte	0xff
 4404 02cd 9B       		.byte	0x9b
 4405 02ce 35       		.uleb128 .LLSDATTC1269-.LLSDATTDC1269
 4406              	.LLSDATTDC1269:
 4407 02cf 01       		.byte	0x1
 4408 02d0 2C       		.uleb128 .LLSDACSEC1269-.LLSDACSBC1269
 4409              	.LLSDACSBC1269:
 4410 02d1 05       		.uleb128 .LEHB121-.LCOLDB41
 4411 02d2 2F       		.uleb128 .LEHE121-.LEHB121
 4412 02d3 C401     		.uleb128 .L281-.LCOLDB41
 4413 02d5 00       		.uleb128 0
 4414 02d6 34       		.uleb128 .LEHB122-.LCOLDB41
 4415 02d7 05       		.uleb128 .LEHE122-.LEHB122
 4416 02d8 00       		.uleb128 0
 4417 02d9 00       		.uleb128 0
 4418 02da 43       		.uleb128 .LEHB123-.LCOLDB41
 4419 02db 34       		.uleb128 .LEHE123-.LEHB123
 4420 02dc D801     		.uleb128 .L279-.LCOLDB41
 4421 02de 00       		.uleb128 0
 4422 02df 77       		.uleb128 .LEHB124-.LCOLDB41
 4423 02e0 05       		.uleb128 .LEHE124-.LEHB124
 4424 02e1 00       		.uleb128 0
 4425 02e2 00       		.uleb128 0
 4426 02e3 8601     		.uleb128 .LEHB125-.LCOLDB41
 4427 02e5 34       		.uleb128 .LEHE125-.LEHB125
 4428 02e6 EC01     		.uleb128 .L277-.LCOLDB41
 4429 02e8 00       		.uleb128 0
 4430 02e9 BA01     		.uleb128 .LEHB126-.LCOLDB41
 4431 02eb 05       		.uleb128 .LEHE126-.LEHB126
 4432 02ec 00       		.uleb128 0
 4433 02ed 00       		.uleb128 0
 4434 02ee D301     		.uleb128 .LEHB127-.LCOLDB41
 4435 02f0 05       		.uleb128 .LEHE127-.LEHB127
 4436 02f1 00       		.uleb128 0
 4437 02f2 00       		.uleb128 0
 4438 02f3 E701     		.uleb128 .LEHB128-.LCOLDB41
 4439 02f5 05       		.uleb128 .LEHE128-.LEHB128
 4440 02f6 00       		.uleb128 0
 4441 02f7 00       		.uleb128 0
 4442 02f8 FB01     		.uleb128 .LEHB129-.LCOLDB41
 4443 02fa 05       		.uleb128 .LEHE129-.LEHB129
 4444 02fb 00       		.uleb128 0
 4445 02fc 00       		.uleb128 0
 4446              	.LLSDACSEC1269:
 4447 02fd 01       		.byte	0x1
 4448 02fe 00       		.byte	0
 4449 02ff 00       		.align 4
 4450 0300 00000000 		.long	0
 4451              	
 4452              	.LLSDATTC1269:
 4453              		.section	.text.unlikely
 4454              		.text
 4456              		.section	.text.unlikely
 4458              	.LCOLDE41:
 4459              		.text
 4460              	.LHOTE41:
 4461              		.section	.rodata.str1.8
 4462 04e5 000000   		.align 8
 4463              	.LC42:
 4464 04e8 556E6861 		.string	"Unhandled exception in CHECK_EQUAL(strlen(expectedHex)/2, lineBuf.length)"
 4464      6E646C65 
 4464      64206578 
 4464      63657074 
 4464      696F6E20 
 4465 0532 00000000 		.align 8
 4465      0000
 4466              	.LC43:
 4467 0538 556E6861 		.string	"Unhandled exception in CHECK_EQUAL(expectedHex, resultHex)"
 4467      6E646C65 
 4467      64206578 
 4467      63657074 
 4467      696F6E20 
 4468              		.section	.text.unlikely
 4469              	.LCOLDB44:
 4470              		.text
 4471              	.LHOTB44:
 4472 1838 0F1F8400 		.p2align 4
 4472      00000000 
 4473              		.globl	_Z9testShiftPKcjS0_jS0_jS0_
 4475              	_Z9testShiftPKcjS0_jS0_jS0_:
 4476              	.LFB1248:
 4477              		.cfi_startproc
 4478              		.cfi_personality 0x9b,DW.ref.__gxx_personality_v0
 4479              		.cfi_lsda 0x1b,.LLSDA1248
 4480 1840 F30F1EFA 		endbr64
 4481 1844 4157     		pushq	%r15
 4482              		.cfi_def_cfa_offset 16
 4483              		.cfi_offset 15, -16
 4484 1846 4156     		pushq	%r14
 4485              		.cfi_def_cfa_offset 24
 4486              		.cfi_offset 14, -24
 4487 1848 4155     		pushq	%r13
 4488              		.cfi_def_cfa_offset 32
 4489              		.cfi_offset 13, -32
 4490 184a 4154     		pushq	%r12
 4491              		.cfi_def_cfa_offset 40
 4492              		.cfi_offset 12, -40
 4493 184c 4189F4   		movl	%esi, %r12d
 4494 184f BE000400 		movl	$1024, %esi
 4494      00
 4495 1854 55       		pushq	%rbp
 4496              		.cfi_def_cfa_offset 48
 4497              		.cfi_offset 6, -48
 4498 1855 4489CD   		movl	%r9d, %ebp
 4499 1858 53       		pushq	%rbx
 4500              		.cfi_def_cfa_offset 56
 4501              		.cfi_offset 3, -56
 4502 1859 89CB     		movl	%ecx, %ebx
 4503 185b 31C9     		xorl	%ecx, %ecx
 4504 185d 4881EC88 		subq	$1672, %rsp
 4504      060000
 4505              		.cfi_def_cfa_offset 1728
 4506 1864 488B8424 		movq	1728(%rsp), %rax
 4506      C0060000 
 4507 186c 48897C24 		movq	%rdi, 16(%rsp)
 4507      10
 4508 1871 48895424 		movq	%rdx, 32(%rsp)
 4508      20
 4509 1876 31D2     		xorl	%edx, %edx
 4510 1878 4C894424 		movq	%r8, 48(%rsp)
 4510      30
 4511 187d 48894424 		movq	%rax, 8(%rsp)
 4511      08
 4512 1882 64488B04 		movq	%fs:40, %rax
 4512      25280000 
 4512      00
 4513 188b 48898424 		movq	%rax, 1656(%rsp)
 4513      78060000 
 4514 1893 31C0     		xorl	%eax, %eax
 4515 1895 488D4424 		leaq	80(%rsp), %rax
 4515      50
 4516 189a 4889C7   		movq	%rax, %rdi
 4517 189d 48890424 		movq	%rax, (%rsp)
 4518              	.LEHB130:
 4519 18a1 E8000000 		call	bufInitialise@PLT
 4519      00
 4520              	.LEHE130:
 4521 18a6 89442444 		movl	%eax, 68(%rsp)
 4522              	.LEHB131:
 4523 18aa E8000000 		call	_ZN8UnitTest11CurrentTest7DetailsEv@PLT
 4523      00
 4524 18af 4C8DAC24 		leaq	176(%rsp), %r13
 4524      B0000000 
 4525 18b7 488B30   		movq	(%rax), %rsi
 4526 18ba BA420000 		movl	$66, %edx
 4526      00
 4527 18bf 4C89EF   		movq	%r13, %rdi
 4528 18c2 E8000000 		call	_ZN8UnitTest11TestDetailsC1ERKS0_i@PLT
 4528      00
 4529 18c7 C7842490 		movl	$0, 144(%rsp)
 4529      00000000 
 4529      000000
 4530 18d2 E8000000 		call	_ZN8UnitTest11CurrentTest7ResultsEv@PLT
 4530      00
 4531 18d7 4C8DB424 		leaq	144(%rsp), %r14
 4531      90000000 
 4532 18df 488B38   		movq	(%rax), %rdi
 4533 18e2 488D5424 		leaq	68(%rsp), %rdx
 4533      44
 4534 18e7 4C89E9   		movq	%r13, %rcx
 4535 18ea 4C89F6   		movq	%r14, %rsi
 4536 18ed E8000000 		call	_ZN8UnitTest10CheckEqualI12BufferStatusS1_EEvRNS_11TestResultsERKT_RKT0_RKNS_11TestDetailsE
 4536      00
 4537              	.LEHE131:
 4538              	.L298:
 4539 18f2 4C8D7C24 		leaq	112(%rsp), %r15
 4539      70
 4540 18f7 31C9     		xorl	%ecx, %ecx
 4541 18f9 31D2     		xorl	%edx, %edx
 4542 18fb BE000400 		movl	$1024, %esi
 4542      00
 4543 1900 4C89FF   		movq	%r15, %rdi
 4544              	.LEHB132:
 4545 1903 E8000000 		call	bufInitialise@PLT
 4545      00
 4546              	.LEHE132:
 4547 1908 89442444 		movl	%eax, 68(%rsp)
 4548              	.LEHB133:
 4549 190c E8000000 		call	_ZN8UnitTest11CurrentTest7DetailsEv@PLT
 4549      00
 4550 1911 488B30   		movq	(%rax), %rsi
 4551 1914 BA440000 		movl	$68, %edx
 4551      00
 4552 1919 4C89EF   		movq	%r13, %rdi
 4553 191c E8000000 		call	_ZN8UnitTest11TestDetailsC1ERKS0_i@PLT
 4553      00
 4554 1921 C7842490 		movl	$0, 144(%rsp)
 4554      00000000 
 4554      000000
 4555 192c E8000000 		call	_ZN8UnitTest11CurrentTest7ResultsEv@PLT
 4555      00
 4556 1931 4C8DB424 		leaq	144(%rsp), %r14
 4556      90000000 
 4557 1939 488B38   		movq	(%rax), %rdi
 4558 193c 488D5424 		leaq	68(%rsp), %rdx
 4558      44
 4559 1941 4C89E9   		movq	%r13, %rcx
 4560 1944 4C89F6   		movq	%r14, %rsi
 4561 1947 E8000000 		call	_ZN8UnitTest10CheckEqualI12BufferStatusS1_EEvRNS_11TestResultsERKT_RKT0_RKNS_11TestDetailsE
 4561      00
 4562              	.LEHE133:
 4563              	.L301:
 4564 194c 31C9     		xorl	%ecx, %ecx
 4565 194e 31D2     		xorl	%edx, %edx
 4566 1950 BE000400 		movl	$1024, %esi
 4566      00
 4567 1955 4C89F7   		movq	%r14, %rdi
 4568              	.LEHB134:
 4569 1958 E8000000 		call	bufInitialise@PLT
 4569      00
 4570              	.LEHE134:
 4571 195d 89442444 		movl	%eax, 68(%rsp)
 4572              	.LEHB135:
 4573 1961 E8000000 		call	_ZN8UnitTest11CurrentTest7DetailsEv@PLT
 4573      00
 4574 1966 488B30   		movq	(%rax), %rsi
 4575 1969 BA460000 		movl	$70, %edx
 4575      00
 4576 196e 4C89EF   		movq	%r13, %rdi
 4577 1971 E8000000 		call	_ZN8UnitTest11TestDetailsC1ERKS0_i@PLT
 4577      00
 4578 1976 C744244C 		movl	$0, 76(%rsp)
 4578      00000000 
 4579 197e E8000000 		call	_ZN8UnitTest11CurrentTest7ResultsEv@PLT
 4579      00
 4580 1983 488B38   		movq	(%rax), %rdi
 4581 1986 488D5424 		leaq	68(%rsp), %rdx
 4581      44
 4582 198b 488D7424 		leaq	76(%rsp), %rsi
 4582      4C
 4583 1990 4C89E9   		movq	%r13, %rcx
 4584 1993 E8000000 		call	_ZN8UnitTest10CheckEqualI12BufferStatusS1_EEvRNS_11TestResultsERKT_RKT0_RKNS_11TestDetailsE
 4584      00
 4585              	.LEHE135:
 4586              	.L304:
 4587 1998 488B7424 		movq	16(%rsp), %rsi
 4587      10
 4588 199d 488B3C24 		movq	(%rsp), %rdi
 4589 19a1 31D2     		xorl	%edx, %edx
 4590              	.LEHB136:
 4591 19a3 E8000000 		call	readBytes@PLT
 4591      00
 4592              	.LEHE136:
 4593 19a8 89442448 		movl	%eax, 72(%rsp)
 4594              	.LEHB137:
 4595 19ac E8000000 		call	_ZN8UnitTest11CurrentTest7DetailsEv@PLT
 4595      00
 4596 19b1 488B30   		movq	(%rax), %rsi
 4597 19b4 BA480000 		movl	$72, %edx
 4597      00
 4598 19b9 4C89EF   		movq	%r13, %rdi
 4599 19bc E8000000 		call	_ZN8UnitTest11TestDetailsC1ERKS0_i@PLT
 4599      00
 4600 19c1 C744244C 		movl	$0, 76(%rsp)
 4600      00000000 
 4601 19c9 E8000000 		call	_ZN8UnitTest11CurrentTest7ResultsEv@PLT
 4601      00
 4602 19ce 488B38   		movq	(%rax), %rdi
 4603 19d1 488D5424 		leaq	72(%rsp), %rdx
 4603      48
 4604 19d6 488D7424 		leaq	76(%rsp), %rsi
 4604      4C
 4605 19db 4C89E9   		movq	%r13, %rcx
 4606 19de E8000000 		call	_ZN8UnitTest10CheckEqualI8FLStatusS1_EEvRNS_11TestResultsERKT_RKT0_RKNS_11TestDetailsE
 4606      00
 4607              	.LEHE137:
 4608              	.L307:
 4609 19e3 488B7424 		movq	32(%rsp), %rsi
 4609      20
 4610 19e8 31D2     		xorl	%edx, %edx
 4611 19ea 4C89FF   		movq	%r15, %rdi
 4612              	.LEHB138:
 4613 19ed E8000000 		call	readBytes@PLT
 4613      00
 4614              	.LEHE138:
 4615 19f2 89442448 		movl	%eax, 72(%rsp)
 4616              	.LEHB139:
 4617 19f6 E8000000 		call	_ZN8UnitTest11CurrentTest7DetailsEv@PLT
 4617      00
 4618 19fb 488B30   		movq	(%rax), %rsi
 4619 19fe BA4A0000 		movl	$74, %edx
 4619      00
 4620 1a03 4C89EF   		movq	%r13, %rdi
 4621 1a06 E8000000 		call	_ZN8UnitTest11TestDetailsC1ERKS0_i@PLT
 4621      00
 4622 1a0b C744244C 		movl	$0, 76(%rsp)
 4622      00000000 
 4623 1a13 E8000000 		call	_ZN8UnitTest11CurrentTest7ResultsEv@PLT
 4623      00
 4624 1a18 488B38   		movq	(%rax), %rdi
 4625 1a1b 488D5424 		leaq	72(%rsp), %rdx
 4625      48
 4626 1a20 488D7424 		leaq	76(%rsp), %rsi
 4626      4C
 4627 1a25 4C89E9   		movq	%r13, %rcx
 4628 1a28 E8000000 		call	_ZN8UnitTest10CheckEqualI8FLStatusS1_EEvRNS_11TestResultsERKT_RKT0_RKNS_11TestDetailsE
 4628      00
 4629              	.LEHE139:
 4630              	.L310:
 4631 1a2d 488B7424 		movq	48(%rsp), %rsi
 4631      30
 4632 1a32 31D2     		xorl	%edx, %edx
 4633 1a34 4C89F7   		movq	%r14, %rdi
 4634              	.LEHB140:
 4635 1a37 E8000000 		call	readBytes@PLT
 4635      00
 4636              	.LEHE140:
 4637 1a3c 89442448 		movl	%eax, 72(%rsp)
 4638              	.LEHB141:
 4639 1a40 E8000000 		call	_ZN8UnitTest11CurrentTest7DetailsEv@PLT
 4639      00
 4640 1a45 488B30   		movq	(%rax), %rsi
 4641 1a48 BA4C0000 		movl	$76, %edx
 4641      00
 4642 1a4d 4C89EF   		movq	%r13, %rdi
 4643 1a50 E8000000 		call	_ZN8UnitTest11TestDetailsC1ERKS0_i@PLT
 4643      00
 4644 1a55 C744244C 		movl	$0, 76(%rsp)
 4644      00000000 
 4645 1a5d E8000000 		call	_ZN8UnitTest11CurrentTest7ResultsEv@PLT
 4645      00
 4646 1a62 488B38   		movq	(%rax), %rdi
 4647 1a65 488D5424 		leaq	72(%rsp), %rdx
 4647      48
 4648 1a6a 488D7424 		leaq	76(%rsp), %rsi
 4648      4C
 4649 1a6f 4C89E9   		movq	%r13, %rcx
 4650 1a72 E8000000 		call	_ZN8UnitTest10CheckEqualI8FLStatusS1_EEvRNS_11TestResultsERKT_RKT0_RKNS_11TestDetailsE
 4650      00
 4651              	.LEHE141:
 4652              	.L313:
 4653 1a77 4883EC08 		subq	$8, %rsp
 4654              		.cfi_def_cfa_offset 1736
 4655 1a7b 4489E1   		movl	%r12d, %ecx
 4656 1a7e 4C89F2   		movq	%r14, %rdx
 4657 1a81 4189E9   		movl	%ebp, %r9d
 4658 1a84 6A00     		pushq	$0
 4659              		.cfi_def_cfa_offset 1744
 4660 1a86 488B7C24 		movq	16(%rsp), %rdi
 4660      10
 4661 1a8b 4189D8   		movl	%ebx, %r8d
 4662 1a8e 4C89FE   		movq	%r15, %rsi
 4663              	.LEHB142:
 4664 1a91 E8000000 		call	headTail@PLT
 4664      00
 4665              	.LEHE142:
 4666 1a96 89442458 		movl	%eax, 88(%rsp)
 4667 1a9a 5A       		popq	%rdx
 4668              		.cfi_def_cfa_offset 1736
 4669 1a9b 59       		popq	%rcx
 4670              		.cfi_def_cfa_offset 1728
 4671              	.LEHB143:
 4672 1a9c E8000000 		call	_ZN8UnitTest11CurrentTest7DetailsEv@PLT
 4672      00
 4673 1aa1 488B30   		movq	(%rax), %rsi
 4674 1aa4 BA4E0000 		movl	$78, %edx
 4674      00
 4675 1aa9 4C89EF   		movq	%r13, %rdi
 4676 1aac E8000000 		call	_ZN8UnitTest11TestDetailsC1ERKS0_i@PLT
 4676      00
 4677 1ab1 C744244C 		movl	$0, 76(%rsp)
 4677      00000000 
 4678 1ab9 E8000000 		call	_ZN8UnitTest11CurrentTest7ResultsEv@PLT
 4678      00
 4679 1abe 488B38   		movq	(%rax), %rdi
 4680 1ac1 488D5424 		leaq	72(%rsp), %rdx
 4680      48
 4681 1ac6 488D7424 		leaq	76(%rsp), %rsi
 4681      4C
 4682 1acb 4C89E9   		movq	%r13, %rcx
 4683 1ace E8000000 		call	_ZN8UnitTest10CheckEqualI8FLStatusS1_EEvRNS_11TestResultsERKT_RKT0_RKNS_11TestDetailsE
 4683      00
 4684              	.LEHE143:
 4685              	.L316:
 4686              	.LEHB144:
 4687 1ad3 E8000000 		call	_ZN8UnitTest11CurrentTest7DetailsEv@PLT
 4687      00
 4688 1ad8 488B30   		movq	(%rax), %rsi
 4689 1adb BA4F0000 		movl	$79, %edx
 4689      00
 4690 1ae0 4C89EF   		movq	%r13, %rdi
 4691 1ae3 E8000000 		call	_ZN8UnitTest11TestDetailsC1ERKS0_i@PLT
 4691      00
 4692 1ae8 488B7C24 		movq	8(%rsp), %rdi
 4692      08
 4693 1aed E8000000 		call	strlen@PLT
 4693      00
 4694 1af2 48D1E8   		shrq	%rax
 4695 1af5 4889C5   		movq	%rax, %rbp
 4696 1af8 E8000000 		call	_ZN8UnitTest11CurrentTest7ResultsEv@PLT
 4696      00
 4697              	.LEHE144:
 4698 1afd F30F7E0D 		movq	.LC12(%rip), %xmm1
 4698      00000000 
 4699 1b05 488B00   		movq	(%rax), %rax
 4700 1b08 48894424 		movq	%rax, 16(%rsp)
 4700      10
 4701 1b0d 488B4424 		movq	88(%rsp), %rax
 4701      58
 4702 1b12 0F160D00 		movhps	.LC13(%rip), %xmm1
 4702      000000
 4703 1b19 0F294C24 		movaps	%xmm1, 32(%rsp)
 4703      20
 4704 1b1e 4839C5   		cmpq	%rax, %rbp
 4705 1b21 0F85D900 		jne	.L351
 4705      0000
 4706              	.L318:
 4707 1b27 4801C0   		addq	%rax, %rax
 4708 1b2a 7450     		je	.L295
 4709 1b2c 4531E4   		xorl	%r12d, %r12d
 4710 1b2f 31D2     		xorl	%edx, %edx
 4711 1b31 488DAC24 		leaq	624(%rsp), %rbp
 4711      70020000 
 4712 1b39 488D1D00 		leaq	.LC0(%rip), %rbx
 4712      000000
 4713              		.p2align 4,,10
 4714              		.p2align 3
 4715              	.L294:
 4716 1b40 488B4424 		movq	80(%rsp), %rax
 4716      50
 4717 1b45 438D3C24 		leal	(%r12,%r12), %edi
 4718 1b49 4889D9   		movq	%rbx, %rcx
 4719 1b4c BE010000 		movl	$1, %esi
 4719      00
 4720 1b51 4801EF   		addq	%rbp, %rdi
 4721 1b54 440FB604 		movzbl	(%rax,%rdx), %r8d
 4721      10
 4722 1b59 48C7C2FF 		movq	$-1, %rdx
 4722      FFFFFF
 4723 1b60 31C0     		xorl	%eax, %eax
 4724 1b62 E8000000 		call	__sprintf_chk@PLT
 4724      00
 4725 1b67 488B4424 		movq	88(%rsp), %rax
 4725      58
 4726 1b6c 418D5424 		leal	1(%r12), %edx
 4726      01
 4727 1b71 4989D4   		movq	%rdx, %r12
 4728 1b74 4801C0   		addq	%rax, %rax
 4729 1b77 4839C2   		cmpq	%rax, %rdx
 4730 1b7a 72C4     		jb	.L294
 4731              	.L295:
 4732 1b7c C6840470 		movb	$0, 624(%rsp,%rax)
 4732      02000000 
 4733              	.LEHB145:
 4734 1b84 E8000000 		call	_ZN8UnitTest11CurrentTest7DetailsEv@PLT
 4734      00
 4735 1b89 488B30   		movq	(%rax), %rsi
 4736 1b8c BA540000 		movl	$84, %edx
 4736      00
 4737 1b91 4C89EF   		movq	%r13, %rdi
 4738 1b94 E8000000 		call	_ZN8UnitTest11TestDetailsC1ERKS0_i@PLT
 4738      00
 4739 1b99 E8000000 		call	_ZN8UnitTest11CurrentTest7ResultsEv@PLT
 4739      00
 4740 1b9e 488B7424 		movq	8(%rsp), %rsi
 4740      08
 4741 1ba3 488B38   		movq	(%rax), %rdi
 4742 1ba6 488D9424 		leaq	624(%rsp), %rdx
 4742      70020000 
 4743 1bae 4C89E9   		movq	%r13, %rcx
 4744 1bb1 E8000000 		call	_ZN8UnitTest10CheckEqualERNS_11TestResultsEPKcPcRKNS_11TestDetailsE@PLT
 4744      00
 4745              	.LEHE145:
 4746              	.L321:
 4747 1bb6 4C89F7   		movq	%r14, %rdi
 4748              	.LEHB146:
 4749 1bb9 E8000000 		call	bufDestroy@PLT
 4749      00
 4750 1bbe 4C89FF   		movq	%r15, %rdi
 4751 1bc1 E8000000 		call	bufDestroy@PLT
 4751      00
 4752 1bc6 488B3C24 		movq	(%rsp), %rdi
 4753 1bca E8000000 		call	bufDestroy@PLT
 4753      00
 4754              	.LEHE146:
 4755 1bcf 488B8424 		movq	1656(%rsp), %rax
 4755      78060000 
 4756 1bd7 64482B04 		subq	%fs:40, %rax
 4756      25280000 
 4756      00
 4757 1be0 0F858F02 		jne	.L352
 4757      0000
 4758 1be6 4881C488 		addq	$1672, %rsp
 4758      060000
 4759              		.cfi_remember_state
 4760              		.cfi_def_cfa_offset 56
 4761 1bed 5B       		popq	%rbx
 4762              		.cfi_def_cfa_offset 48
 4763 1bee 5D       		popq	%rbp
 4764              		.cfi_def_cfa_offset 40
 4765 1bef 415C     		popq	%r12
 4766              		.cfi_def_cfa_offset 32
 4767 1bf1 415D     		popq	%r13
 4768              		.cfi_def_cfa_offset 24
 4769 1bf3 415E     		popq	%r14
 4770              		.cfi_def_cfa_offset 16
 4771 1bf5 415F     		popq	%r15
 4772              		.cfi_def_cfa_offset 8
 4773 1bf7 C3       		ret
 4774 1bf8 0F1F8400 		.p2align 4,,10
 4774      00000000 
 4775              		.p2align 3
 4776              	.L351:
 4777              		.cfi_restore_state
 4778 1c00 4C8DA424 		leaq	352(%rsp), %r12
 4778      60010000 
 4779 1c08 4C89E7   		movq	%r12, %rdi
 4780 1c0b E8000000 		call	_ZNSt8ios_baseC2Ev@PLT
 4780      00
 4781 1c10 31C0     		xorl	%eax, %eax
 4782 1c12 660FEFC0 		pxor	%xmm0, %xmm0
 4783 1c16 31F6     		xorl	%esi, %esi
 4784 1c18 66898424 		movw	%ax, 576(%rsp)
 4784      40020000 
 4785 1c20 488D0500 		leaq	24+_ZTCN8UnitTest15MemoryOutStreamE0_So(%rip), %rax
 4785      000000
 4786 1c27 4C89E7   		movq	%r12, %rdi
 4787 1c2a 48898424 		movq	%rax, 208(%rsp)
 4787      D0000000 
 4788 1c32 4883C028 		addq	$40, %rax
 4789 1c36 48C78424 		movq	$0, 568(%rsp)
 4789      38020000 
 4789      00000000 
 4790 1c42 48898424 		movq	%rax, 352(%rsp)
 4790      60010000 
 4791 1c4a 0F118424 		movups	%xmm0, 584(%rsp)
 4791      48020000 
 4792 1c52 0F118424 		movups	%xmm0, 600(%rsp)
 4792      58020000 
 4793              	.LEHB147:
 4794 1c5a E8000000 		call	_ZNSt9basic_iosIcSt11char_traitsIcEE4initEPSt15basic_streambufIcS1_E@PLT
 4794      00
 4795              	.LEHE147:
 4796 1c5f 488D0500 		leaq	64+_ZTCN8UnitTest15MemoryOutStreamE0_NSt7__cxx1119basic_ostringstreamIcSt11char_traitsIcESaIc
 4796      000000
 4797 1c66 660F6F4C 		movdqa	32(%rsp), %xmm1
 4797      2420
 4798 1c6c 660FEFC0 		pxor	%xmm0, %xmm0
 4799 1c70 488D9C24 		leaq	208(%rsp), %rbx
 4799      D0000000 
 4800 1c78 48898424 		movq	%rax, 352(%rsp)
 4800      60010000 
 4801 1c80 488D8424 		leaq	272(%rsp), %rax
 4801      10010000 
 4802 1c88 4889C7   		movq	%rax, %rdi
 4803 1c8b 48894424 		movq	%rax, 32(%rsp)
 4803      20
 4804 1c90 0F298C24 		movaps	%xmm1, 208(%rsp)
 4804      D0000000 
 4805 1c98 0F298424 		movaps	%xmm0, 224(%rsp)
 4805      E0000000 
 4806 1ca0 0F298424 		movaps	%xmm0, 240(%rsp)
 4806      F0000000 
 4807 1ca8 0F298424 		movaps	%xmm0, 256(%rsp)
 4807      00010000 
 4808 1cb0 E8000000 		call	_ZNSt6localeC1Ev@PLT
 4808      00
 4809 1cb5 488D0500 		leaq	16+_ZTVNSt7__cxx1115basic_stringbufIcSt11char_traitsIcESaIcEEE(%rip), %rax
 4809      000000
 4810 1cbc 48C78424 		movq	$0, 296(%rsp)
 4810      28010000 
 4810      00000000 
 4811 1cc8 488DB424 		leaq	216(%rsp), %rsi
 4811      D8000000 
 4812 1cd0 48898424 		movq	%rax, 216(%rsp)
 4812      D8000000 
 4813 1cd8 488D8424 		leaq	304(%rsp), %rax
 4813      30010000 
 4814 1ce0 48894424 		movq	%rax, 48(%rsp)
 4814      30
 4815 1ce5 48898424 		movq	%rax, 288(%rsp)
 4815      20010000 
 4816 1ced 488B8424 		movq	208(%rsp), %rax
 4816      D0000000 
 4817 1cf5 C6842430 		movb	$0, 304(%rsp)
 4817      01000000 
 4818 1cfd 488B78E8 		movq	-24(%rax), %rdi
 4819 1d01 48897424 		movq	%rsi, 56(%rsp)
 4819      38
 4820 1d06 C7842418 		movl	$16, 280(%rsp)
 4820      01000010 
 4820      000000
 4821 1d11 4801DF   		addq	%rbx, %rdi
 4822              	.LEHB148:
 4823 1d14 E8000000 		call	_ZNSt9basic_iosIcSt11char_traitsIcEE4initEPSt15basic_streambufIcS1_E@PLT
 4823      00
 4824              	.LEHE148:
 4825 1d19 488D0500 		leaq	24+_ZTVN8UnitTest15MemoryOutStreamE(%rip), %rax
 4825      000000
 4826 1d20 BA090000 		movl	$9, %edx
 4826      00
 4827 1d25 4889DF   		movq	%rbx, %rdi
 4828 1d28 48C78424 		movq	$0, 328(%rsp)
 4828      48010000 
 4828      00000000 
 4829 1d34 48898424 		movq	%rax, 208(%rsp)
 4829      D0000000 
 4830 1d3c 4883C028 		addq	$40, %rax
 4831 1d40 488D3500 		leaq	.LC4(%rip), %rsi
 4831      000000
 4832 1d47 48898424 		movq	%rax, 352(%rsp)
 4832      60010000 
 4833 1d4f 488D8424 		leaq	336(%rsp), %rax
 4833      50010000 
 4834 1d57 48894424 		movq	%rax, 56(%rsp)
 4834      38
 4835 1d5c 48898424 		movq	%rax, 320(%rsp)
 4835      40010000 
 4836 1d64 C6842450 		movb	$0, 336(%rsp)
 4836      01000000 
 4837              	.LEHB149:
 4838 1d6c E8000000 		call	_ZSt16__ostream_insertIcSt11char_traitsIcEERSt13basic_ostreamIT_T0_ES6_PKS3_l@PLT
 4838      00
 4839 1d71 4889EE   		movq	%rbp, %rsi
 4840 1d74 4889DF   		movq	%rbx, %rdi
 4841 1d77 E8000000 		call	_ZNSo9_M_insertImEERSoT_@PLT
 4841      00
 4842 1d7c BA090000 		movl	$9, %edx
 4842      00
 4843 1d81 488D3500 		leaq	.LC5(%rip), %rsi
 4843      000000
 4844 1d88 4889C7   		movq	%rax, %rdi
 4845 1d8b 4889C5   		movq	%rax, %rbp
 4846 1d8e E8000000 		call	_ZSt16__ostream_insertIcSt11char_traitsIcEERSt13basic_ostreamIT_T0_ES6_PKS3_l@PLT
 4846      00
 4847 1d93 488B7424 		movq	88(%rsp), %rsi
 4847      58
 4848 1d98 4889EF   		movq	%rbp, %rdi
 4849 1d9b E8000000 		call	_ZNSo9_M_insertImEERSoT_@PLT
 4849      00
 4850 1da0 4889DF   		movq	%rbx, %rdi
 4851 1da3 E8000000 		call	_ZNK8UnitTest15MemoryOutStream7GetTextEv@PLT
 4851      00
 4852 1da8 488B7C24 		movq	16(%rsp), %rdi
 4852      10
 4853 1dad 4889C2   		movq	%rax, %rdx
 4854 1db0 4C89EE   		movq	%r13, %rsi
 4855 1db3 E8000000 		call	_ZN8UnitTest11TestResults13OnTestFailureERKNS_11TestDetailsEPKc@PLT
 4855      00
 4856              	.LEHE149:
 4857 1db8 488D0500 		leaq	24+_ZTVN8UnitTest15MemoryOutStreamE(%rip), %rax
 4857      000000
 4858 1dbf 488BBC24 		movq	320(%rsp), %rdi
 4858      40010000 
 4859 1dc7 F30F7E05 		movq	.LC12(%rip), %xmm0
 4859      00000000 
 4860 1dcf 48898424 		movq	%rax, 208(%rsp)
 4860      D0000000 
 4861 1dd7 4883C028 		addq	$40, %rax
 4862 1ddb 48898424 		movq	%rax, 352(%rsp)
 4862      60010000 
 4863 1de3 0F160500 		movhps	.LC14(%rip), %xmm0
 4863      000000
 4864 1dea 483B7C24 		cmpq	56(%rsp), %rdi
 4864      38
 4865 1def 7410     		je	.L292
 4866 1df1 0F294424 		movaps	%xmm0, 16(%rsp)
 4866      10
 4867 1df6 E8000000 		call	_ZdlPv@PLT
 4867      00
 4868 1dfb 660F6F44 		movdqa	16(%rsp), %xmm0
 4868      2410
 4869              	.L292:
 4870 1e01 488D0500 		leaq	64+_ZTCN8UnitTest15MemoryOutStreamE0_NSt7__cxx1119basic_ostringstreamIcSt11char_traitsIcESaIc
 4870      000000
 4871 1e08 488BBC24 		movq	288(%rsp), %rdi
 4871      20010000 
 4872 1e10 0F298424 		movaps	%xmm0, 208(%rsp)
 4872      D0000000 
 4873 1e18 48898424 		movq	%rax, 352(%rsp)
 4873      60010000 
 4874 1e20 483B7C24 		cmpq	48(%rsp), %rdi
 4874      30
 4875 1e25 7405     		je	.L293
 4876 1e27 E8000000 		call	_ZdlPv@PLT
 4876      00
 4877              	.L293:
 4878 1e2c 488B7C24 		movq	32(%rsp), %rdi
 4878      20
 4879 1e31 488D0500 		leaq	16+_ZTVSt15basic_streambufIcSt11char_traitsIcEE(%rip), %rax
 4879      000000
 4880 1e38 48898424 		movq	%rax, 216(%rsp)
 4880      D8000000 
 4881 1e40 E8000000 		call	_ZNSt6localeD1Ev@PLT
 4881      00
 4882 1e45 488D0500 		leaq	24+_ZTCN8UnitTest15MemoryOutStreamE0_So(%rip), %rax
 4882      000000
 4883 1e4c 4C89E7   		movq	%r12, %rdi
 4884 1e4f 48898424 		movq	%rax, 208(%rsp)
 4884      D0000000 
 4885 1e57 488D0500 		leaq	16+_ZTVSt9basic_iosIcSt11char_traitsIcEE(%rip), %rax
 4885      000000
 4886 1e5e 48898424 		movq	%rax, 352(%rsp)
 4886      60010000 
 4887              	.LEHB150:
 4888 1e66 E8000000 		call	_ZNSt8ios_baseD2Ev@PLT
 4888      00
 4889              	.LEHE150:
 4890 1e6b 488B4424 		movq	88(%rsp), %rax
 4890      58
 4891 1e70 E9B2FCFF 		jmp	.L318
 4891      FF
 4892              	.L352:
 4893 1e75 E8000000 		call	__stack_chk_fail@PLT
 4893      00
 4894              	.L341:
 4895 1e7a F30F1EFA 		endbr64
 4896 1e7e 4889C7   		movq	%rax, %rdi
 4897 1e81 E9000000 		jmp	.L320
 4897      00
 4898              	.L339:
 4899 1e86 F30F1EFA 		endbr64
 4900 1e8a 4889C7   		movq	%rax, %rdi
 4901 1e8d E9000000 		jmp	.L291
 4901      00
 4902              	.L337:
 4903 1e92 F30F1EFA 		endbr64
 4904 1e96 4889C7   		movq	%rax, %rdi
 4905 1e99 E9000000 		jmp	.L315
 4905      00
 4906              	.L327:
 4907 1e9e F30F1EFA 		endbr64
 4908 1ea2 4889C7   		movq	%rax, %rdi
 4909 1ea5 E9000000 		jmp	.L300
 4909      00
 4910              	.L325:
 4911 1eaa F30F1EFA 		endbr64
 4912 1eae 4889C7   		movq	%rax, %rdi
 4913 1eb1 E9000000 		jmp	.L297
 4913      00
 4914              	.L335:
 4915 1eb6 F30F1EFA 		endbr64
 4916 1eba 4889C7   		movq	%rax, %rdi
 4917 1ebd E9000000 		jmp	.L312
 4917      00
 4918              	.L333:
 4919 1ec2 F30F1EFA 		endbr64
 4920 1ec6 4889C7   		movq	%rax, %rdi
 4921 1ec9 E9000000 		jmp	.L309
 4921      00
 4922              	.L331:
 4923 1ece F30F1EFA 		endbr64
 4924 1ed2 4889C7   		movq	%rax, %rdi
 4925 1ed5 E9000000 		jmp	.L306
 4925      00
 4926              	.L329:
 4927 1eda F30F1EFA 		endbr64
 4928 1ede 4889C7   		movq	%rax, %rdi
 4929 1ee1 E9000000 		jmp	.L303
 4929      00
 4930              	.L344:
 4931 1ee6 F30F1EFA 		endbr64
 4932 1eea 4889C3   		movq	%rax, %rbx
 4933 1eed E9000000 		jmp	.L289
 4933      00
 4934              	.L345:
 4935 1ef2 F30F1EFA 		endbr64
 4936 1ef6 4889C3   		movq	%rax, %rbx
 4937 1ef9 E9000000 		jmp	.L288
 4937      00
 4938              	.L343:
 4939 1efe F30F1EFA 		endbr64
 4940 1f02 4889C5   		movq	%rax, %rbp
 4941 1f05 E9000000 		jmp	.L296
 4941      00
 4942              		.section	.gcc_except_table
 4943              		.align 4
 4944              	.LLSDA1248:
 4945 0304 FF       		.byte	0xff
 4946 0305 9B       		.byte	0x9b
 4947 0306 8001     		.uleb128 .LLSDATT1248-.LLSDATTD1248
 4948              	.LLSDATTD1248:
 4949 0308 01       		.byte	0x1
 4950 0309 74       		.uleb128 .LLSDACSE1248-.LLSDACSB1248
 4951              	.LLSDACSB1248:
 4952 030a 61       		.uleb128 .LEHB130-.LFB1248
 4953 030b 05       		.uleb128 .LEHE130-.LEHB130
 4954 030c 00       		.uleb128 0
 4955 030d 00       		.uleb128 0
 4956 030e 6A       		.uleb128 .LEHB131-.LFB1248
 4957 030f 48       		.uleb128 .LEHE131-.LEHB131
 4958 0310 EA0C     		.uleb128 .L325-.LFB1248
 4959 0312 01       		.uleb128 0x1
 4960 0313 C301     		.uleb128 .LEHB132-.LFB1248
 4961 0315 05       		.uleb128 .LEHE132-.LEHB132
 4962 0316 00       		.uleb128 0
 4963 0317 00       		.uleb128 0
 4964 0318 CC01     		.uleb128 .LEHB133-.LFB1248
 4965 031a 40       		.uleb128 .LEHE133-.LEHB133
 4966 031b DE0C     		.uleb128 .L327-.LFB1248
 4967 031d 01       		.uleb128 0x1
 4968 031e 9802     		.uleb128 .LEHB134-.LFB1248
 4969 0320 05       		.uleb128 .LEHE134-.LEHB134
 4970 0321 00       		.uleb128 0
 4971 0322 00       		.uleb128 0
 4972 0323 A102     		.uleb128 .LEHB135-.LFB1248
 4973 0325 37       		.uleb128 .LEHE135-.LEHB135
 4974 0326 9A0D     		.uleb128 .L329-.LFB1248
 4975 0328 01       		.uleb128 0x1
 4976 0329 E302     		.uleb128 .LEHB136-.LFB1248
 4977 032b 05       		.uleb128 .LEHE136-.LEHB136
 4978 032c 00       		.uleb128 0
 4979 032d 00       		.uleb128 0
 4980 032e EC02     		.uleb128 .LEHB137-.LFB1248
 4981 0330 37       		.uleb128 .LEHE137-.LEHB137
 4982 0331 8E0D     		.uleb128 .L331-.LFB1248
 4983 0333 01       		.uleb128 0x1
 4984 0334 AD03     		.uleb128 .LEHB138-.LFB1248
 4985 0336 05       		.uleb128 .LEHE138-.LEHB138
 4986 0337 00       		.uleb128 0
 4987 0338 00       		.uleb128 0
 4988 0339 B603     		.uleb128 .LEHB139-.LFB1248
 4989 033b 37       		.uleb128 .LEHE139-.LEHB139
 4990 033c 820D     		.uleb128 .L333-.LFB1248
 4991 033e 01       		.uleb128 0x1
 4992 033f F703     		.uleb128 .LEHB140-.LFB1248
 4993 0341 05       		.uleb128 .LEHE140-.LEHB140
 4994 0342 00       		.uleb128 0
 4995 0343 00       		.uleb128 0
 4996 0344 8004     		.uleb128 .LEHB141-.LFB1248
 4997 0346 37       		.uleb128 .LEHE141-.LEHB141
 4998 0347 F60C     		.uleb128 .L335-.LFB1248
 4999 0349 01       		.uleb128 0x1
 5000 034a D104     		.uleb128 .LEHB142-.LFB1248
 5001 034c 05       		.uleb128 .LEHE142-.LEHB142
 5002 034d 00       		.uleb128 0
 5003 034e 00       		.uleb128 0
 5004 034f DC04     		.uleb128 .LEHB143-.LFB1248
 5005 0351 37       		.uleb128 .LEHE143-.LEHB143
 5006 0352 D20C     		.uleb128 .L337-.LFB1248
 5007 0354 01       		.uleb128 0x1
 5008 0355 9305     		.uleb128 .LEHB144-.LFB1248
 5009 0357 2A       		.uleb128 .LEHE144-.LEHB144
 5010 0358 C60C     		.uleb128 .L339-.LFB1248
 5011 035a 01       		.uleb128 0x1
 5012 035b C406     		.uleb128 .LEHB145-.LFB1248
 5013 035d 32       		.uleb128 .LEHE145-.LEHB145
 5014 035e BA0C     		.uleb128 .L341-.LFB1248
 5015 0360 01       		.uleb128 0x1
 5016 0361 F906     		.uleb128 .LEHB146-.LFB1248
 5017 0363 16       		.uleb128 .LEHE146-.LEHB146
 5018 0364 00       		.uleb128 0
 5019 0365 00       		.uleb128 0
 5020 0366 9A08     		.uleb128 .LEHB147-.LFB1248
 5021 0368 05       		.uleb128 .LEHE147-.LEHB147
 5022 0369 A60D     		.uleb128 .L344-.LFB1248
 5023 036b 03       		.uleb128 0x3
 5024 036c D409     		.uleb128 .LEHB148-.LFB1248
 5025 036e 05       		.uleb128 .LEHE148-.LEHB148
 5026 036f B20D     		.uleb128 .L345-.LFB1248
 5027 0371 03       		.uleb128 0x3
 5028 0372 AC0A     		.uleb128 .LEHB149-.LFB1248
 5029 0374 4C       		.uleb128 .LEHE149-.LEHB149
 5030 0375 BE0D     		.uleb128 .L343-.LFB1248
 5031 0377 03       		.uleb128 0x3
 5032 0378 A60C     		.uleb128 .LEHB150-.LFB1248
 5033 037a 05       		.uleb128 .LEHE150-.LEHB150
 5034 037b C60C     		.uleb128 .L339-.LFB1248
 5035 037d 01       		.uleb128 0x1
 5036              	.LLSDACSE1248:
 5037 037e 01       		.byte	0x1
 5038 037f 00       		.byte	0
 5039 0380 00       		.byte	0
 5040 0381 7D       		.byte	0x7d
 5041 0382 0000     		.align 4
 5042 0384 00000000 		.long	0
 5043              	
 5044              	.LLSDATT1248:
 5045              		.text
 5046              		.cfi_endproc
 5047              		.section	.text.unlikely
 5048              		.cfi_startproc
 5049              		.cfi_personality 0x9b,DW.ref.__gxx_personality_v0
 5050              		.cfi_lsda 0x1b,.LLSDAC1248
 5052              	_Z9testShiftPKcjS0_jS0_jS0_.cold:
 5053              	.LFSB1248:
 5054              	.L320:
 5055              		.cfi_def_cfa_offset 1728
 5056              		.cfi_offset 3, -56
 5057              		.cfi_offset 6, -48
 5058              		.cfi_offset 12, -40
 5059              		.cfi_offset 13, -32
 5060              		.cfi_offset 14, -24
 5061              		.cfi_offset 15, -16
 5062 06d2 E8000000 		call	__cxa_begin_catch@PLT
 5062      00
 5063              	.LEHB151:
 5064 06d7 E8000000 		call	_ZN8UnitTest11CurrentTest7ResultsEv@PLT
 5064      00
 5065 06dc 488B28   		movq	(%rax), %rbp
 5066 06df E8000000 		call	_ZN8UnitTest11CurrentTest7DetailsEv@PLT
 5066      00
 5067 06e4 488B30   		movq	(%rax), %rsi
 5068 06e7 BA540000 		movl	$84, %edx
 5068      00
 5069 06ec 4C89EF   		movq	%r13, %rdi
 5070 06ef E8000000 		call	_ZN8UnitTest11TestDetailsC1ERKS0_i@PLT
 5070      00
 5071 06f4 488D1500 		leaq	.LC43(%rip), %rdx
 5071      000000
 5072 06fb 4C89EE   		movq	%r13, %rsi
 5073 06fe 4889EF   		movq	%rbp, %rdi
 5074 0701 E8000000 		call	_ZN8UnitTest11TestResults13OnTestFailureERKNS_11TestDetailsEPKc@PLT
 5074      00
 5075              	.LEHE151:
 5076              	.LEHB152:
 5077 0706 E8000000 		call	__cxa_end_catch@PLT
 5077      00
 5078              	.LEHE152:
 5079 070b E9000000 		jmp	.L321
 5079      00
 5080              	.L288:
 5081 0710 488B7C24 		movq	56(%rsp), %rdi
 5081      38
 5082 0715 E8000000 		call	_ZNSt7__cxx1115basic_stringbufIcSt11char_traitsIcESaIcEED1Ev
 5082      00
 5083 071a 488D0500 		leaq	24+_ZTCN8UnitTest15MemoryOutStreamE0_So(%rip), %rax
 5083      000000
 5084 0721 48898424 		movq	%rax, 208(%rsp)
 5084      D0000000 
 5085              	.L289:
 5086 0729 488D0500 		leaq	16+_ZTVSt9basic_iosIcSt11char_traitsIcEE(%rip), %rax
 5086      000000
 5087 0730 4C89E7   		movq	%r12, %rdi
 5088 0733 48898424 		movq	%rax, 352(%rsp)
 5088      60010000 
 5089 073b E8000000 		call	_ZNSt8ios_baseD2Ev@PLT
 5089      00
 5090 0740 4889DF   		movq	%rbx, %rdi
 5091              	.L291:
 5092 0743 E8000000 		call	__cxa_begin_catch@PLT
 5092      00
 5093              	.LEHB153:
 5094 0748 E8000000 		call	_ZN8UnitTest11CurrentTest7ResultsEv@PLT
 5094      00
 5095 074d 488B28   		movq	(%rax), %rbp
 5096 0750 E8000000 		call	_ZN8UnitTest11CurrentTest7DetailsEv@PLT
 5096      00
 5097 0755 488B30   		movq	(%rax), %rsi
 5098 0758 BA4F0000 		movl	$79, %edx
 5098      00
 5099 075d 4C89EF   		movq	%r13, %rdi
 5100 0760 E8000000 		call	_ZN8UnitTest11TestDetailsC1ERKS0_i@PLT
 5100      00
 5101 0765 488D1500 		leaq	.LC42(%rip), %rdx
 5101      000000
 5102 076c 4C89EE   		movq	%r13, %rsi
 5103 076f 4889EF   		movq	%rbp, %rdi
 5104 0772 E8000000 		call	_ZN8UnitTest11TestResults13OnTestFailureERKNS_11TestDetailsEPKc@PLT
 5104      00
 5105              	.LEHE153:
 5106              	.LEHB154:
 5107 0777 E8000000 		call	__cxa_end_catch@PLT
 5107      00
 5108              	.LEHE154:
 5109 077c 488B4424 		movq	88(%rsp), %rax
 5109      58
 5110 0781 E9000000 		jmp	.L318
 5110      00
 5111              	.L342:
 5112 0786 F30F1EFA 		endbr64
 5113 078a 4889C5   		movq	%rax, %rbp
 5114 078d E8000000 		call	__cxa_end_catch@PLT
 5114      00
 5115 0792 4889EF   		movq	%rbp, %rdi
 5116              	.LEHB155:
 5117 0795 E8000000 		call	_Unwind_Resume@PLT
 5117      00
 5118              	.LEHE155:
 5119              	.L340:
 5120 079a F30F1EFA 		endbr64
 5121 079e 4889C5   		movq	%rax, %rbp
 5122 07a1 E8000000 		call	__cxa_end_catch@PLT
 5122      00
 5123 07a6 4889EF   		movq	%rbp, %rdi
 5124              	.LEHB156:
 5125 07a9 E8000000 		call	_Unwind_Resume@PLT
 5125      00
 5126              	.LEHE156:
 5127              	.L315:
 5128 07ae E8000000 		call	__cxa_begin_catch@PLT
 5128      00
 5129              	.LEHB157:
 5130 07b3 E8000000 		call	_ZN8UnitTest11CurrentTest7ResultsEv@PLT
 5130      00
 5131 07b8 488B28   		movq	(%rax), %rbp
 5132 07bb E8000000 		call	_ZN8UnitTest11CurrentTest7DetailsEv@PLT
 5132      00
 5133 07c0 488B30   		movq	(%rax), %rsi
 5134 07c3 BA4E0000 		movl	$78, %edx
 5134      00
 5135 07c8 4C89EF   		movq	%r13, %rdi
 5136 07cb E8000000 		call	_ZN8UnitTest11TestDetailsC1ERKS0_i@PLT
 5136      00
 5137 07d0 488D1500 		leaq	.LC16(%rip), %rdx
 5137      000000
 5138 07d7 4C89EE   		movq	%r13, %rsi
 5139 07da 4889EF   		movq	%rbp, %rdi
 5140 07dd E8000000 		call	_ZN8UnitTest11TestResults13OnTestFailureERKNS_11TestDetailsEPKc@PLT
 5140      00
 5141              	.LEHE157:
 5142              	.LEHB158:
 5143 07e2 E8000000 		call	__cxa_end_catch@PLT
 5143      00
 5144              	.LEHE158:
 5145 07e7 E9000000 		jmp	.L316
 5145      00
 5146              	.L300:
 5147 07ec E8000000 		call	__cxa_begin_catch@PLT
 5147      00
 5148              	.LEHB159:
 5149 07f1 E8000000 		call	_ZN8UnitTest11CurrentTest7ResultsEv@PLT
 5149      00
 5150 07f6 4C8B30   		movq	(%rax), %r14
 5151 07f9 E8000000 		call	_ZN8UnitTest11CurrentTest7DetailsEv@PLT
 5151      00
 5152 07fe 488B30   		movq	(%rax), %rsi
 5153 0801 BA440000 		movl	$68, %edx
 5153      00
 5154 0806 4C89EF   		movq	%r13, %rdi
 5155 0809 E8000000 		call	_ZN8UnitTest11TestDetailsC1ERKS0_i@PLT
 5155      00
 5156 080e 488D1500 		leaq	.LC26(%rip), %rdx
 5156      000000
 5157 0815 4C89EE   		movq	%r13, %rsi
 5158 0818 4C89F7   		movq	%r14, %rdi
 5159 081b E8000000 		call	_ZN8UnitTest11TestResults13OnTestFailureERKNS_11TestDetailsEPKc@PLT
 5159      00
 5160              	.LEHE159:
 5161              	.LEHB160:
 5162 0820 E8000000 		call	__cxa_end_catch@PLT
 5162      00
 5163              	.LEHE160:
 5164 0825 4C8DB424 		leaq	144(%rsp), %r14
 5164      90000000 
 5165 082d E9000000 		jmp	.L301
 5165      00
 5166              	.L338:
 5167 0832 F30F1EFA 		endbr64
 5168 0836 4889C5   		movq	%rax, %rbp
 5169 0839 E8000000 		call	__cxa_end_catch@PLT
 5169      00
 5170 083e 4889EF   		movq	%rbp, %rdi
 5171              	.LEHB161:
 5172 0841 E8000000 		call	_Unwind_Resume@PLT
 5172      00
 5173              	.LEHE161:
 5174              	.L328:
 5175 0846 F30F1EFA 		endbr64
 5176 084a 4889C5   		movq	%rax, %rbp
 5177 084d E8000000 		call	__cxa_end_catch@PLT
 5177      00
 5178 0852 4889EF   		movq	%rbp, %rdi
 5179              	.LEHB162:
 5180 0855 E8000000 		call	_Unwind_Resume@PLT
 5180      00
 5181              	.LEHE162:
 5182              	.L297:
 5183 085a E8000000 		call	__cxa_begin_catch@PLT
 5183      00
 5184              	.LEHB163:
 5185 085f E8000000 		call	_ZN8UnitTest11CurrentTest7ResultsEv@PLT
 5185      00
 5186 0864 4C8B30   		movq	(%rax), %r14
 5187 0867 E8000000 		call	_ZN8UnitTest11CurrentTest7DetailsEv@PLT
 5187      00
 5188 086c 4C8DAC24 		leaq	176(%rsp), %r13
 5188      B0000000 
 5189 0874 488B30   		movq	(%rax), %rsi
 5190 0877 BA420000 		movl	$66, %edx
 5190      00
 5191 087c 4C89EF   		movq	%r13, %rdi
 5192 087f E8000000 		call	_ZN8UnitTest11TestDetailsC1ERKS0_i@PLT
 5192      00
 5193 0884 488D1500 		leaq	.LC26(%rip), %rdx
 5193      000000
 5194 088b 4C89EE   		movq	%r13, %rsi
 5195 088e 4C89F7   		movq	%r14, %rdi
 5196 0891 E8000000 		call	_ZN8UnitTest11TestResults13OnTestFailureERKNS_11TestDetailsEPKc@PLT
 5196      00
 5197              	.LEHE163:
 5198              	.LEHB164:
 5199 0896 E8000000 		call	__cxa_end_catch@PLT
 5199      00
 5200              	.LEHE164:
 5201 089b E9000000 		jmp	.L298
 5201      00
 5202              	.L312:
 5203 08a0 E8000000 		call	__cxa_begin_catch@PLT
 5203      00
 5204              	.LEHB165:
 5205 08a5 E8000000 		call	_ZN8UnitTest11CurrentTest7ResultsEv@PLT
 5205      00
 5206 08aa 488B00   		movq	(%rax), %rax
 5207 08ad 48894424 		movq	%rax, 16(%rsp)
 5207      10
 5208 08b2 E8000000 		call	_ZN8UnitTest11CurrentTest7DetailsEv@PLT
 5208      00
 5209 08b7 488B30   		movq	(%rax), %rsi
 5210 08ba BA4C0000 		movl	$76, %edx
 5210      00
 5211 08bf 4C89EF   		movq	%r13, %rdi
 5212 08c2 E8000000 		call	_ZN8UnitTest11TestDetailsC1ERKS0_i@PLT
 5212      00
 5213 08c7 488B7C24 		movq	16(%rsp), %rdi
 5213      10
 5214 08cc 488D1500 		leaq	.LC16(%rip), %rdx
 5214      000000
 5215 08d3 4C89EE   		movq	%r13, %rsi
 5216 08d6 E8000000 		call	_ZN8UnitTest11TestResults13OnTestFailureERKNS_11TestDetailsEPKc@PLT
 5216      00
 5217              	.LEHE165:
 5218              	.LEHB166:
 5219 08db E8000000 		call	__cxa_end_catch@PLT
 5219      00
 5220              	.LEHE166:
 5221 08e0 E9000000 		jmp	.L313
 5221      00
 5222              	.L326:
 5223 08e5 F30F1EFA 		endbr64
 5224 08e9 4889C5   		movq	%rax, %rbp
 5225 08ec E8000000 		call	__cxa_end_catch@PLT
 5225      00
 5226 08f1 4889EF   		movq	%rbp, %rdi
 5227              	.LEHB167:
 5228 08f4 E8000000 		call	_Unwind_Resume@PLT
 5228      00
 5229              	.LEHE167:
 5230              	.L336:
 5231 08f9 F30F1EFA 		endbr64
 5232 08fd 4889C5   		movq	%rax, %rbp
 5233 0900 E8000000 		call	__cxa_end_catch@PLT
 5233      00
 5234 0905 4889EF   		movq	%rbp, %rdi
 5235              	.LEHB168:
 5236 0908 E8000000 		call	_Unwind_Resume@PLT
 5236      00
 5237              	.LEHE168:
 5238              	.L309:
 5239 090d E8000000 		call	__cxa_begin_catch@PLT
 5239      00
 5240              	.LEHB169:
 5241 0912 E8000000 		call	_ZN8UnitTest11CurrentTest7ResultsEv@PLT
 5241      00
 5242 0917 488B00   		movq	(%rax), %rax
 5243 091a 48894424 		movq	%rax, 16(%rsp)
 5243      10
 5244 091f E8000000 		call	_ZN8UnitTest11CurrentTest7DetailsEv@PLT
 5244      00
 5245 0924 488B30   		movq	(%rax), %rsi
 5246 0927 BA4A0000 		movl	$74, %edx
 5246      00
 5247 092c 4C89EF   		movq	%r13, %rdi
 5248 092f E8000000 		call	_ZN8UnitTest11TestDetailsC1ERKS0_i@PLT
 5248      00
 5249 0934 488B7C24 		movq	16(%rsp), %rdi
 5249      10
 5250 0939 488D1500 		leaq	.LC16(%rip), %rdx
 5250      000000
 5251 0940 4C89EE   		movq	%r13, %rsi
 5252 0943 E8000000 		call	_ZN8UnitTest11TestResults13OnTestFailureERKNS_11TestDetailsEPKc@PLT
 5252      00
 5253              	.LEHE169:
 5254              	.LEHB170:
 5255 0948 E8000000 		call	__cxa_end_catch@PLT
 5255      00
 5256              	.LEHE170:
 5257 094d E9000000 		jmp	.L310
 5257      00
 5258              	.L306:
 5259 0952 E8000000 		call	__cxa_begin_catch@PLT
 5259      00
 5260              	.LEHB171:
 5261 0957 E8000000 		call	_ZN8UnitTest11CurrentTest7ResultsEv@PLT
 5261      00
 5262 095c 488B00   		movq	(%rax), %rax
 5263 095f 48894424 		movq	%rax, 16(%rsp)
 5263      10
 5264 0964 E8000000 		call	_ZN8UnitTest11CurrentTest7DetailsEv@PLT
 5264      00
 5265 0969 488B30   		movq	(%rax), %rsi
 5266 096c BA480000 		movl	$72, %edx
 5266      00
 5267 0971 4C89EF   		movq	%r13, %rdi
 5268 0974 E8000000 		call	_ZN8UnitTest11TestDetailsC1ERKS0_i@PLT
 5268      00
 5269 0979 488B7C24 		movq	16(%rsp), %rdi
 5269      10
 5270 097e 488D1500 		leaq	.LC16(%rip), %rdx
 5270      000000
 5271 0985 4C89EE   		movq	%r13, %rsi
 5272 0988 E8000000 		call	_ZN8UnitTest11TestResults13OnTestFailureERKNS_11TestDetailsEPKc@PLT
 5272      00
 5273              	.LEHE171:
 5274              	.LEHB172:
 5275 098d E8000000 		call	__cxa_end_catch@PLT
 5275      00
 5276              	.LEHE172:
 5277 0992 E9000000 		jmp	.L307
 5277      00
 5278              	.L334:
 5279 0997 F30F1EFA 		endbr64
 5280 099b 4889C5   		movq	%rax, %rbp
 5281 099e E8000000 		call	__cxa_end_catch@PLT
 5281      00
 5282 09a3 4889EF   		movq	%rbp, %rdi
 5283              	.LEHB173:
 5284 09a6 E8000000 		call	_Unwind_Resume@PLT
 5284      00
 5285              	.LEHE173:
 5286              	.L332:
 5287 09ab F30F1EFA 		endbr64
 5288 09af 4889C5   		movq	%rax, %rbp
 5289 09b2 E8000000 		call	__cxa_end_catch@PLT
 5289      00
 5290 09b7 4889EF   		movq	%rbp, %rdi
 5291              	.LEHB174:
 5292 09ba E8000000 		call	_Unwind_Resume@PLT
 5292      00
 5293              	.LEHE174:
 5294              	.L303:
 5295 09bf E8000000 		call	__cxa_begin_catch@PLT
 5295      00
 5296              	.LEHB175:
 5297 09c4 E8000000 		call	_ZN8UnitTest11CurrentTest7ResultsEv@PLT
 5297      00
 5298 09c9 488B00   		movq	(%rax), %rax
 5299 09cc 48894424 		movq	%rax, 56(%rsp)
 5299      38
 5300 09d1 E8000000 		call	_ZN8UnitTest11CurrentTest7DetailsEv@PLT
 5300      00
 5301 09d6 488B30   		movq	(%rax), %rsi
 5302 09d9 BA460000 		movl	$70, %edx
 5302      00
 5303 09de 4C89EF   		movq	%r13, %rdi
 5304 09e1 E8000000 		call	_ZN8UnitTest11TestDetailsC1ERKS0_i@PLT
 5304      00
 5305 09e6 488B7C24 		movq	56(%rsp), %rdi
 5305      38
 5306 09eb 488D1500 		leaq	.LC26(%rip), %rdx
 5306      000000
 5307 09f2 4C89EE   		movq	%r13, %rsi
 5308 09f5 E8000000 		call	_ZN8UnitTest11TestResults13OnTestFailureERKNS_11TestDetailsEPKc@PLT
 5308      00
 5309              	.LEHE175:
 5310              	.LEHB176:
 5311 09fa E8000000 		call	__cxa_end_catch@PLT
 5311      00
 5312              	.LEHE176:
 5313 09ff E9000000 		jmp	.L304
 5313      00
 5314              	.L330:
 5315 0a04 F30F1EFA 		endbr64
 5316 0a08 4889C5   		movq	%rax, %rbp
 5317 0a0b E8000000 		call	__cxa_end_catch@PLT
 5317      00
 5318 0a10 4889EF   		movq	%rbp, %rdi
 5319              	.LEHB177:
 5320 0a13 E8000000 		call	_Unwind_Resume@PLT
 5320      00
 5321              	.LEHE177:
 5322              	.L296:
 5323 0a18 4889DF   		movq	%rbx, %rdi
 5324 0a1b E8000000 		call	_ZN8UnitTest15MemoryOutStreamD1Ev
 5324      00
 5325 0a20 4889EF   		movq	%rbp, %rdi
 5326 0a23 E91BFDFF 		jmp	.L291
 5326      FF
 5327              		.cfi_endproc
 5328              	.LFE1248:
 5329              		.section	.gcc_except_table
 5330              		.align 4
 5331              	.LLSDAC1248:
 5332 0388 FF       		.byte	0xff
 5333 0389 9B       		.byte	0x9b
 5334 038a 9801     		.uleb128 .LLSDATTC1248-.LLSDATTDC1248
 5335              	.LLSDATTDC1248:
 5336 038c 01       		.byte	0x1
 5337 038d 8D01     		.uleb128 .LLSDACSEC1248-.LLSDACSBC1248
 5338              	.LLSDACSBC1248:
 5339 038f 05       		.uleb128 .LEHB151-.LCOLDB44
 5340 0390 2F       		.uleb128 .LEHE151-.LEHB151
 5341 0391 B401     		.uleb128 .L342-.LCOLDB44
 5342 0393 00       		.uleb128 0
 5343 0394 34       		.uleb128 .LEHB152-.LCOLDB44
 5344 0395 05       		.uleb128 .LEHE152-.LEHB152
 5345 0396 00       		.uleb128 0
 5346 0397 00       		.uleb128 0
 5347 0398 76       		.uleb128 .LEHB153-.LCOLDB44
 5348 0399 2F       		.uleb128 .LEHE153-.LEHB153
 5349 039a C801     		.uleb128 .L340-.LCOLDB44
 5350 039c 00       		.uleb128 0
 5351 039d A501     		.uleb128 .LEHB154-.LCOLDB44
 5352 039f 05       		.uleb128 .LEHE154-.LEHB154
 5353 03a0 00       		.uleb128 0
 5354 03a1 00       		.uleb128 0
 5355 03a2 C301     		.uleb128 .LEHB155-.LCOLDB44
 5356 03a4 05       		.uleb128 .LEHE155-.LEHB155
 5357 03a5 00       		.uleb128 0
 5358 03a6 00       		.uleb128 0
 5359 03a7 D701     		.uleb128 .LEHB156-.LCOLDB44
 5360 03a9 05       		.uleb128 .LEHE156-.LEHB156
 5361 03aa 00       		.uleb128 0
 5362 03ab 00       		.uleb128 0
 5363 03ac E101     		.uleb128 .LEHB157-.LCOLDB44
 5364 03ae 2F       		.uleb128 .LEHE157-.LEHB157
 5365 03af E002     		.uleb128 .L338-.LCOLDB44
 5366 03b1 00       		.uleb128 0
 5367 03b2 9002     		.uleb128 .LEHB158-.LCOLDB44
 5368 03b4 05       		.uleb128 .LEHE158-.LEHB158
 5369 03b5 00       		.uleb128 0
 5370 03b6 00       		.uleb128 0
 5371 03b7 9F02     		.uleb128 .LEHB159-.LCOLDB44
 5372 03b9 2F       		.uleb128 .LEHE159-.LEHB159
 5373 03ba F402     		.uleb128 .L328-.LCOLDB44
 5374 03bc 00       		.uleb128 0
 5375 03bd CE02     		.uleb128 .LEHB160-.LCOLDB44
 5376 03bf 05       		.uleb128 .LEHE160-.LEHB160
 5377 03c0 00       		.uleb128 0
 5378 03c1 00       		.uleb128 0
 5379 03c2 EF02     		.uleb128 .LEHB161-.LCOLDB44
 5380 03c4 05       		.uleb128 .LEHE161-.LEHB161
 5381 03c5 00       		.uleb128 0
 5382 03c6 00       		.uleb128 0
 5383 03c7 8303     		.uleb128 .LEHB162-.LCOLDB44
 5384 03c9 05       		.uleb128 .LEHE162-.LEHB162
 5385 03ca 00       		.uleb128 0
 5386 03cb 00       		.uleb128 0
 5387 03cc 8D03     		.uleb128 .LEHB163-.LCOLDB44
 5388 03ce 37       		.uleb128 .LEHE163-.LEHB163
 5389 03cf 9304     		.uleb128 .L326-.LCOLDB44
 5390 03d1 00       		.uleb128 0
 5391 03d2 C403     		.uleb128 .LEHB164-.LCOLDB44
 5392 03d4 05       		.uleb128 .LEHE164-.LEHB164
 5393 03d5 00       		.uleb128 0
 5394 03d6 00       		.uleb128 0
 5395 03d7 D303     		.uleb128 .LEHB165-.LCOLDB44
 5396 03d9 36       		.uleb128 .LEHE165-.LEHB165
 5397 03da A704     		.uleb128 .L336-.LCOLDB44
 5398 03dc 00       		.uleb128 0
 5399 03dd 8904     		.uleb128 .LEHB166-.LCOLDB44
 5400 03df 05       		.uleb128 .LEHE166-.LEHB166
 5401 03e0 00       		.uleb128 0
 5402 03e1 00       		.uleb128 0
 5403 03e2 A204     		.uleb128 .LEHB167-.LCOLDB44
 5404 03e4 05       		.uleb128 .LEHE167-.LEHB167
 5405 03e5 00       		.uleb128 0
 5406 03e6 00       		.uleb128 0
 5407 03e7 B604     		.uleb128 .LEHB168-.LCOLDB44
 5408 03e9 05       		.uleb128 .LEHE168-.LEHB168
 5409 03ea 00       		.uleb128 0
 5410 03eb 00       		.uleb128 0
 5411 03ec C004     		.uleb128 .LEHB169-.LCOLDB44
 5412 03ee 36       		.uleb128 .LEHE169-.LEHB169
 5413 03ef C505     		.uleb128 .L334-.LCOLDB44
 5414 03f1 00       		.uleb128 0
 5415 03f2 F604     		.uleb128 .LEHB170-.LCOLDB44
 5416 03f4 05       		.uleb128 .LEHE170-.LEHB170
 5417 03f5 00       		.uleb128 0
 5418 03f6 00       		.uleb128 0
 5419 03f7 8505     		.uleb128 .LEHB171-.LCOLDB44
 5420 03f9 36       		.uleb128 .LEHE171-.LEHB171
 5421 03fa D905     		.uleb128 .L332-.LCOLDB44
 5422 03fc 00       		.uleb128 0
 5423 03fd BB05     		.uleb128 .LEHB172-.LCOLDB44
 5424 03ff 05       		.uleb128 .LEHE172-.LEHB172
 5425 0400 00       		.uleb128 0
 5426 0401 00       		.uleb128 0
 5427 0402 D405     		.uleb128 .LEHB173-.LCOLDB44
 5428 0404 05       		.uleb128 .LEHE173-.LEHB173
 5429 0405 00       		.uleb128 0
 5430 0406 00       		.uleb128 0
 5431 0407 E805     		.uleb128 .LEHB174-.LCOLDB44
 5432 0409 05       		.uleb128 .LEHE174-.LEHB174
 5433 040a 00       		.uleb128 0
 5434 040b 00       		.uleb128 0
 5435 040c F205     		.uleb128 .LEHB175-.LCOLDB44
 5436 040e 36       		.uleb128 .LEHE175-.LEHB175
 5437 040f B206     		.uleb128 .L330-.LCOLDB44
 5438 0411 00       		.uleb128 0
 5439 0412 A806     		.uleb128 .LEHB176-.LCOLDB44
 5440 0414 05       		.uleb128 .LEHE176-.LEHB176
 5441 0415 00       		.uleb128 0
 5442 0416 00       		.uleb128 0
 5443 0417 C106     		.uleb128 .LEHB177-.LCOLDB44
 5444 0419 05       		.uleb128 .LEHE177-.LEHB177
 5445 041a 00       		.uleb128 0
 5446 041b 00       		.uleb128 0
 5447              	.LLSDACSEC1248:
 5448 041c 01       		.byte	0x1
 5449 041d 00       		.byte	0
 5450 041e 00       		.byte	0
 5451 041f 7D       		.byte	0x7d
 5452              		.align 4
 5453 0420 00000000 		.long	0
 5454              	
 5455              	.LLSDATTC1248:
 5456              		.section	.text.unlikely
 5457              		.text
 5459              		.section	.text.unlikely
 5461              	.LCOLDE44:
 5462              		.text
 5463              	.LHOTE44:
 5464              		.section	.rodata.str1.1
 5465              	.LC45:
 5466 00c6 303600   		.string	"06"
 5467              	.LC46:
 5468 00c9 303000   		.string	"00"
 5469              	.LC47:
 5470 00cc 46314332 		.string	"F1C2E093"
 5470      45303933 
 5470      00
 5471              	.LC48:
 5472 00d5 30364631 		.string	"06F1C2E093"
 5472      43324530 
 5472      393300
 5473              	.LC49:
 5474 00e0 303100   		.string	"01"
 5475              	.LC50:
 5476 00e3 30444533 		.string	"0DE385C127"
 5476      38354331 
 5476      323700
 5477              	.LC51:
 5478 00ee 303200   		.string	"02"
 5479              	.LC52:
 5480 00f1 31424337 		.string	"1BC70B824E"
 5480      30423832 
 5480      344500
 5481              	.LC53:
 5482 00fc 33373845 		.string	"378E17049E"
 5482      31373034 
 5482      394500
 5483              	.LC54:
 5484 0107 304100   		.string	"0A"
 5485              	.LC55:
 5486 010a 36463143 		.string	"6F1C2E093A"
 5486      32453039 
 5486      334100
 5487              	.LC56:
 5488 0115 313500   		.string	"15"
 5489              	.LC57:
 5490 0118 44453338 		.string	"DE385C1275"
 5490      35433132 
 5490      373500
 5491              	.LC58:
 5492 0123 323500   		.string	"25"
 5493              	.LC59:
 5494 0126 30314243 		.string	"01BC70B824E5"
 5494      37304238 
 5494      32344535 
 5494      00
 5495              	.LC60:
 5496 0133 373500   		.string	"75"
 5497              	.LC61:
 5498 0136 30333738 		.string	"0378E17049F5"
 5498      45313730 
 5498      34394635 
 5498      00
 5499              	.LC62:
 5500 0143 653500   		.string	"e5"
 5501              	.LC63:
 5502 0146 30364631 		.string	"06F1C2E093E5"
 5502      43324530 
 5502      39334535 
 5502      00
 5503              	.LC64:
 5504 0153 30313135 		.string	"0115"
 5504      00
 5505              	.LC65:
 5506 0158 30444533 		.string	"0DE385C12715"
 5506      38354331 
 5506      32373135 
 5506      00
 5507              	.LC66:
 5508 0165 30333135 		.string	"0315"
 5508      00
 5509              	.LC67:
 5510 016a 31424337 		.string	"1BC70B824F15"
 5510      30423832 
 5510      34463135 
 5510      00
 5511              	.LC68:
 5512 0177 30373135 		.string	"0715"
 5512      00
 5513              	.LC69:
 5514 017c 33373845 		.string	"378E17049F15"
 5514      31373034 
 5514      39463135 
 5514      00
 5515              	.LC70:
 5516 0189 30633135 		.string	"0c15"
 5516      00
 5517              	.LC71:
 5518 018e 36463143 		.string	"6F1C2E093C15"
 5518      32453039 
 5518      33433135 
 5518      00
 5519              	.LC72:
 5520 019b 31633135 		.string	"1c15"
 5520      00
 5521              	.LC73:
 5522 01a0 44453338 		.string	"DE385C127C15"
 5522      35433132 
 5522      37433135 
 5522      00
 5523              	.LC74:
 5524 01ad 32633135 		.string	"2c15"
 5524      00
 5525              	.LC75:
 5526 01b2 30314243 		.string	"01BC70B824EC15"
 5526      37304238 
 5526      32344543 
 5526      313500
 5527              	.LC76:
 5528 01c1 34303135 		.string	"4015"
 5528      00
 5529              	.LC77:
 5530 01c6 30333738 		.string	"0378E17049C015"
 5530      45313730 
 5530      34394330 
 5530      313500
 5531              	.LC78:
 5532 01d5 38303135 		.string	"8015"
 5532      00
 5533              	.LC79:
 5534 01da 30364631 		.string	"06F1C2E0938015"
 5534      43324530 
 5534      39333830 
 5534      313500
 5535              	.LC80:
 5536 01e9 30313830 		.string	"018015"
 5536      313500
 5537              	.LC81:
 5538 01f0 30444533 		.string	"0DE385C1278015"
 5538      38354331 
 5538      32373830 
 5538      313500
 5539              	.LC82:
 5540 01ff 30414631 		.string	"0AF1C2E093"
 5540      43324530 
 5540      393300
 5541              	.LC83:
 5542 020a 31354533 		.string	"15E385C127"
 5542      38354331 
 5542      323700
 5543              	.LC84:
 5544 0215 32424337 		.string	"2BC70B824E"
 5544      30423832 
 5544      344500
 5545              	.LC85:
 5546 0220 35373845 		.string	"578E17049E"
 5546      31373034 
 5546      394500
 5547              	.LC86:
 5548 022b 41463143 		.string	"AF1C2E093A"
 5548      32453039 
 5548      334100
 5549              	.LC87:
 5550 0236 30313545 		.string	"015E385C1275"
 5550      33383543 
 5550      31323735 
 5550      00
 5551              	.LC88:
 5552 0243 30324243 		.string	"02BC70B824E5"
 5552      37304238 
 5552      32344535 
 5552      00
 5553              	.LC89:
 5554 0250 30353738 		.string	"0578E17049F5"
 5554      45313730 
 5554      34394635 
 5554      00
 5555              	.LC90:
 5556 025d 30414631 		.string	"0AF1C2E093E5"
 5556      43324530 
 5556      39334535 
 5556      00
 5557              	.LC91:
 5558 026a 31354533 		.string	"15E385C12715"
 5558      38354331 
 5558      32373135 
 5558      00
 5559              	.LC92:
 5560 0277 32424337 		.string	"2BC70B824F15"
 5560      30423832 
 5560      34463135 
 5560      00
 5561              	.LC93:
 5562 0284 35373845 		.string	"578E17049F15"
 5562      31373034 
 5562      39463135 
 5562      00
 5563              	.LC94:
 5564 0291 41463143 		.string	"AF1C2E093C15"
 5564      32453039 
 5564      33433135 
 5564      00
 5565              	.LC95:
 5566 029e 30313545 		.string	"015E385C127C15"
 5566      33383543 
 5566      31323743 
 5566      313500
 5567              	.LC96:
 5568 02ad 30324243 		.string	"02BC70B824EC15"
 5568      37304238 
 5568      32344543 
 5568      313500
 5569              	.LC97:
 5570 02bc 30353738 		.string	"0578E17049C015"
 5570      45313730 
 5570      34394330 
 5570      313500
 5571              	.LC98:
 5572 02cb 30414631 		.string	"0AF1C2E0938015"
 5572      43324530 
 5572      39333830 
 5572      313500
 5573              	.LC99:
 5574 02da 31354533 		.string	"15E385C1278015"
 5574      38354331 
 5574      32373830 
 5574      313500
 5575              	.LC100:
 5576 02e9 30313335 		.string	"0135"
 5576      00
 5577              	.LC101:
 5578 02ee 30313335 		.string	"0135F1C2E093"
 5578      46314332 
 5578      45303933 
 5578      00
 5579              	.LC102:
 5580 02fb 30323642 		.string	"026BE385C127"
 5580      45333835 
 5580      43313237 
 5580      00
 5581              	.LC103:
 5582 0308 30344437 		.string	"04D7C70B824E"
 5582      43373042 
 5582      38323445 
 5582      00
 5583              	.LC104:
 5584 0315 30394146 		.string	"09AF8E17049E"
 5584      38453137 
 5584      30343945 
 5584      00
 5585              	.LC105:
 5586 0322 31333546 		.string	"135F1C2E093A"
 5586      31433245 
 5586      30393341 
 5586      00
 5587              	.LC106:
 5588 032f 32364245 		.string	"26BE385C1275"
 5588      33383543 
 5588      31323735 
 5588      00
 5589              	.LC107:
 5590 033c 34443743 		.string	"4D7C70B824E5"
 5590      37304238 
 5590      32344535 
 5590      00
 5591              	.LC108:
 5592 0349 39414638 		.string	"9AF8E17049F5"
 5592      45313730 
 5592      34394635 
 5592      00
 5593              	.LC109:
 5594 0356 30313335 		.string	"0135F1C2E093E5"
 5594      46314332 
 5594      45303933 
 5594      453500
 5595              	.LC110:
 5596 0365 30323642 		.string	"026BE385C12715"
 5596      45333835 
 5596      43313237 
 5596      313500
 5597              	.LC111:
 5598 0374 30344437 		.string	"04D7C70B824F15"
 5598      43373042 
 5598      38323446 
 5598      313500
 5599              	.LC112:
 5600 0383 30394146 		.string	"09AF8E17049F15"
 5600      38453137 
 5600      30343946 
 5600      313500
 5601              	.LC113:
 5602 0392 31333546 		.string	"135F1C2E093C15"
 5602      31433245 
 5602      30393343 
 5602      313500
 5603              	.LC114:
 5604 03a1 32364245 		.string	"26BE385C127C15"
 5604      33383543 
 5604      31323743 
 5604      313500
 5605              	.LC115:
 5606 03b0 34443743 		.string	"4D7C70B824EC15"
 5606      37304238 
 5606      32344543 
 5606      313500
 5607              	.LC116:
 5608 03bf 39414638 		.string	"9AF8E17049C015"
 5608      45313730 
 5608      34394330 
 5608      313500
 5609              	.LC117:
 5610 03ce 30313335 		.string	"0135F1C2E0938015"
 5610      46314332 
 5610      45303933 
 5610      38303135 
 5610      00
 5611              	.LC118:
 5612 03df 30323642 		.string	"026BE385C1278015"
 5612      45333835 
 5612      43313237 
 5612      38303135 
 5612      00
 5613              	.LC119:
 5614 03f0 37314332 		.string	"71C2E093"
 5614      45303933 
 5614      00
 5615              	.LC120:
 5616 03f9 39414631 		.string	"9AF1C2E093"
 5616      43324530 
 5616      393300
 5617              	.LC121:
 5618 0404 30313335 		.string	"0135E385C127"
 5618      45333835 
 5618      43313237 
 5618      00
 5619              	.LC122:
 5620 0411 30323642 		.string	"026BC70B824E"
 5620      43373042 
 5620      38323445 
 5620      00
 5621              	.LC123:
 5622 041e 30344437 		.string	"04D78E17049E"
 5622      38453137 
 5622      30343945 
 5622      00
 5623              	.LC124:
 5624 042b 30394146 		.string	"09AF1C2E093A"
 5624      31433245 
 5624      30393341 
 5624      00
 5625              	.LC125:
 5626 0438 31333545 		.string	"135E385C1275"
 5626      33383543 
 5626      31323735 
 5626      00
 5627              	.LC126:
 5628 0445 32364243 		.string	"26BC70B824E5"
 5628      37304238 
 5628      32344535 
 5628      00
 5629              	.LC127:
 5630 0452 34443738 		.string	"4D78E17049F5"
 5630      45313730 
 5630      34394635 
 5630      00
 5631              	.LC128:
 5632 045f 39414631 		.string	"9AF1C2E093E5"
 5632      43324530 
 5632      39334535 
 5632      00
 5633              	.LC129:
 5634 046c 30313335 		.string	"0135E385C12715"
 5634      45333835 
 5634      43313237 
 5634      313500
 5635              	.LC130:
 5636 047b 30323642 		.string	"026BC70B824F15"
 5636      43373042 
 5636      38323446 
 5636      313500
 5637              	.LC131:
 5638 048a 30344437 		.string	"04D78E17049F15"
 5638      38453137 
 5638      30343946 
 5638      313500
 5639              	.LC132:
 5640 0499 30394146 		.string	"09AF1C2E093C15"
 5640      31433245 
 5640      30393343 
 5640      313500
 5641              	.LC133:
 5642 04a8 31333545 		.string	"135E385C127C15"
 5642      33383543 
 5642      31323743 
 5642      313500
 5643              	.LC134:
 5644 04b7 32364243 		.string	"26BC70B824EC15"
 5644      37304238 
 5644      32344543 
 5644      313500
 5645              	.LC135:
 5646 04c6 34443738 		.string	"4D78E17049C015"
 5646      45313730 
 5646      34394330 
 5646      313500
 5647              	.LC136:
 5648 04d5 39414631 		.string	"9AF1C2E0938015"
 5648      43324530 
 5648      39333830 
 5648      313500
 5649              	.LC137:
 5650 04e4 30313335 		.string	"0135E385C1278015"
 5650      45333835 
 5650      43313237 
 5650      38303135 
 5650      00
 5651              	.LC138:
 5652 04f5 00       		.string	""
 5653              	.LC139:
 5654 04f6 35343233 		.string	"5423DF3A8F129B2C91B9425D"
 5654      44463341 
 5654      38463132 
 5654      39423243 
 5654      39314239 
 5655              	.LC140:
 5656 050f 44343233 		.string	"D423DF3A8F129B2C91B9425D"
 5656      44463341 
 5656      38463132 
 5656      39423243 
 5656      39314239 
 5657              	.LC141:
 5658 0528 41383437 		.string	"A847BE751E253659237284BB"
 5658      42453735 
 5658      31453235 
 5658      33363539 
 5658      32333732 
 5659              		.text
 5660              		.align 2
 5661 1f0a 660F1F44 		.p2align 4
 5661      0000
 5662              		.globl	_ZNK22TestFPGALink_testShift7RunImplEv
 5664              	_ZNK22TestFPGALink_testShift7RunImplEv:
 5665              	.LFB1252:
 5666              		.cfi_startproc
 5667 1f10 F30F1EFA 		endbr64
 5668 1f14 4157     		pushq	%r15
 5669              		.cfi_def_cfa_offset 16
 5670              		.cfi_offset 15, -16
 5671 1f16 488D0500 		leaq	.LC48(%rip), %rax
 5671      000000
 5672 1f1d 31C9     		xorl	%ecx, %ecx
 5673 1f1f BE200000 		movl	$32, %esi
 5673      00
 5674 1f24 4156     		pushq	%r14
 5675              		.cfi_def_cfa_offset 24
 5676              		.cfi_offset 14, -24
 5677 1f26 41B90300 		movl	$3, %r9d
 5677      0000
 5678 1f2c 4C8D3500 		leaq	.LC49(%rip), %r14
 5678      000000
 5679 1f33 4C8D0500 		leaq	.LC45(%rip), %r8
 5679      000000
 5680 1f3a 4155     		pushq	%r13
 5681              		.cfi_def_cfa_offset 32
 5682              		.cfi_offset 13, -32
 5683 1f3c 4C8D3D00 		leaq	.LC80(%rip), %r15
 5683      000000
 5684 1f43 4154     		pushq	%r12
 5685              		.cfi_def_cfa_offset 40
 5686              		.cfi_offset 12, -40
 5687 1f45 4C8D2500 		leaq	.LC54(%rip), %r12
 5687      000000
 5688 1f4c 55       		pushq	%rbp
 5689              		.cfi_def_cfa_offset 48
 5690              		.cfi_offset 6, -48
 5691 1f4d 488D2D00 		leaq	.LC47(%rip), %rbp
 5691      000000
 5692 1f54 53       		pushq	%rbx
 5693              		.cfi_def_cfa_offset 56
 5694              		.cfi_offset 3, -56
 5695 1f55 4889EF   		movq	%rbp, %rdi
 5696 1f58 488D1D00 		leaq	.LC78(%rip), %rbx
 5696      000000
 5697 1f5f 4883EC10 		subq	$16, %rsp
 5698              		.cfi_def_cfa_offset 72
 5699 1f63 50       		pushq	%rax
 5700              		.cfi_def_cfa_offset 80
 5701 1f64 488D0500 		leaq	.LC46(%rip), %rax
 5701      000000
 5702 1f6b 4889C2   		movq	%rax, %rdx
 5703 1f6e E8000000 		call	_Z9testShiftPKcjS0_jS0_jS0_
 5703      00
 5704 1f73 4C89F2   		movq	%r14, %rdx
 5705 1f76 4889EF   		movq	%rbp, %rdi
 5706 1f79 B9010000 		movl	$1, %ecx
 5706      00
 5707 1f7e 488D0500 		leaq	.LC50(%rip), %rax
 5707      000000
 5708 1f85 41B90300 		movl	$3, %r9d
 5708      0000
 5709 1f8b BE200000 		movl	$32, %esi
 5709      00
 5710 1f90 4C8D0500 		leaq	.LC45(%rip), %r8
 5710      000000
 5711 1f97 48890424 		movq	%rax, (%rsp)
 5712 1f9b E8000000 		call	_Z9testShiftPKcjS0_jS0_jS0_
 5712      00
 5713 1fa0 4C8D1D00 		leaq	.LC51(%rip), %r11
 5713      000000
 5714 1fa7 4889EF   		movq	%rbp, %rdi
 5715 1faa 488D0500 		leaq	.LC52(%rip), %rax
 5715      000000
 5716 1fb1 4C89DA   		movq	%r11, %rdx
 5717 1fb4 41B90300 		movl	$3, %r9d
 5717      0000
 5718 1fba B9020000 		movl	$2, %ecx
 5718      00
 5719 1fbf BE200000 		movl	$32, %esi
 5719      00
 5720 1fc4 4C8D0500 		leaq	.LC45(%rip), %r8
 5720      000000
 5721 1fcb 48890424 		movq	%rax, (%rsp)
 5722 1fcf E8000000 		call	_Z9testShiftPKcjS0_jS0_jS0_
 5722      00
 5723 1fd4 4C8D0500 		leaq	.LC45(%rip), %r8
 5723      000000
 5724 1fdb 4889EF   		movq	%rbp, %rdi
 5725 1fde 488D0500 		leaq	.LC53(%rip), %rax
 5725      000000
 5726 1fe5 4D89C5   		movq	%r8, %r13
 5727 1fe8 4C89C2   		movq	%r8, %rdx
 5728 1feb 41B90300 		movl	$3, %r9d
 5728      0000
 5729 1ff1 48890424 		movq	%rax, (%rsp)
 5730 1ff5 B9030000 		movl	$3, %ecx
 5730      00
 5731 1ffa BE200000 		movl	$32, %esi
 5731      00
 5732 1fff E8000000 		call	_Z9testShiftPKcjS0_jS0_jS0_
 5732      00
 5733 2004 4D89E8   		movq	%r13, %r8
 5734 2007 4C89E2   		movq	%r12, %rdx
 5735 200a 4889EF   		movq	%rbp, %rdi
 5736 200d 41B90300 		movl	$3, %r9d
 5736      0000
 5737 2013 B9040000 		movl	$4, %ecx
 5737      00
 5738 2018 BE200000 		movl	$32, %esi
 5738      00
 5739 201d 488D0500 		leaq	.LC55(%rip), %rax
 5739      000000
 5740 2024 48890424 		movq	%rax, (%rsp)
 5741 2028 E8000000 		call	_Z9testShiftPKcjS0_jS0_jS0_
 5741      00
 5742 202d 4D89E8   		movq	%r13, %r8
 5743 2030 4889EF   		movq	%rbp, %rdi
 5744 2033 B9050000 		movl	$5, %ecx
 5744      00
 5745 2038 488D0500 		leaq	.LC57(%rip), %rax
 5745      000000
 5746 203f 41B90300 		movl	$3, %r9d
 5746      0000
 5747 2045 BE200000 		movl	$32, %esi
 5747      00
 5748 204a 488D1500 		leaq	.LC56(%rip), %rdx
 5748      000000
 5749 2051 48890424 		movq	%rax, (%rsp)
 5750 2055 E8000000 		call	_Z9testShiftPKcjS0_jS0_jS0_
 5750      00
 5751 205a 4D89E8   		movq	%r13, %r8
 5752 205d 4889EF   		movq	%rbp, %rdi
 5753 2060 B9060000 		movl	$6, %ecx
 5753      00
 5754 2065 488D0500 		leaq	.LC59(%rip), %rax
 5754      000000
 5755 206c 41B90300 		movl	$3, %r9d
 5755      0000
 5756 2072 BE200000 		movl	$32, %esi
 5756      00
 5757 2077 488D1500 		leaq	.LC58(%rip), %rdx
 5757      000000
 5758 207e 48890424 		movq	%rax, (%rsp)
 5759 2082 E8000000 		call	_Z9testShiftPKcjS0_jS0_jS0_
 5759      00
 5760 2087 4D89E8   		movq	%r13, %r8
 5761 208a 4889EF   		movq	%rbp, %rdi
 5762 208d B9070000 		movl	$7, %ecx
 5762      00
 5763 2092 488D0500 		leaq	.LC61(%rip), %rax
 5763      000000
 5764 2099 41B90300 		movl	$3, %r9d
 5764      0000
 5765 209f BE200000 		movl	$32, %esi
 5765      00
 5766 20a4 488D1500 		leaq	.LC60(%rip), %rdx
 5766      000000
 5767 20ab 48890424 		movq	%rax, (%rsp)
 5768 20af E8000000 		call	_Z9testShiftPKcjS0_jS0_jS0_
 5768      00
 5769 20b4 4D89E8   		movq	%r13, %r8
 5770 20b7 4889EF   		movq	%rbp, %rdi
 5771 20ba B9080000 		movl	$8, %ecx
 5771      00
 5772 20bf 488D0500 		leaq	.LC63(%rip), %rax
 5772      000000
 5773 20c6 41B90300 		movl	$3, %r9d
 5773      0000
 5774 20cc BE200000 		movl	$32, %esi
 5774      00
 5775 20d1 488D1500 		leaq	.LC62(%rip), %rdx
 5775      000000
 5776 20d8 48890424 		movq	%rax, (%rsp)
 5777 20dc E8000000 		call	_Z9testShiftPKcjS0_jS0_jS0_
 5777      00
 5778 20e1 4D89E8   		movq	%r13, %r8
 5779 20e4 4889EF   		movq	%rbp, %rdi
 5780 20e7 B9090000 		movl	$9, %ecx
 5780      00
 5781 20ec 488D0500 		leaq	.LC65(%rip), %rax
 5781      000000
 5782 20f3 41B90300 		movl	$3, %r9d
 5782      0000
 5783 20f9 BE200000 		movl	$32, %esi
 5783      00
 5784 20fe 488D1500 		leaq	.LC64(%rip), %rdx
 5784      000000
 5785 2105 48890424 		movq	%rax, (%rsp)
 5786 2109 E8000000 		call	_Z9testShiftPKcjS0_jS0_jS0_
 5786      00
 5787 210e 4D89E8   		movq	%r13, %r8
 5788 2111 4889EF   		movq	%rbp, %rdi
 5789 2114 B90A0000 		movl	$10, %ecx
 5789      00
 5790 2119 488D0500 		leaq	.LC67(%rip), %rax
 5790      000000
 5791 2120 41B90300 		movl	$3, %r9d
 5791      0000
 5792 2126 BE200000 		movl	$32, %esi
 5792      00
 5793 212b 488D1500 		leaq	.LC66(%rip), %rdx
 5793      000000
 5794 2132 48890424 		movq	%rax, (%rsp)
 5795 2136 E8000000 		call	_Z9testShiftPKcjS0_jS0_jS0_
 5795      00
 5796 213b 4D89E8   		movq	%r13, %r8
 5797 213e 4889EF   		movq	%rbp, %rdi
 5798 2141 B90B0000 		movl	$11, %ecx
 5798      00
 5799 2146 488D0500 		leaq	.LC69(%rip), %rax
 5799      000000
 5800 214d 41B90300 		movl	$3, %r9d
 5800      0000
 5801 2153 BE200000 		movl	$32, %esi
 5801      00
 5802 2158 488D1500 		leaq	.LC68(%rip), %rdx
 5802      000000
 5803 215f 48890424 		movq	%rax, (%rsp)
 5804 2163 E8000000 		call	_Z9testShiftPKcjS0_jS0_jS0_
 5804      00
 5805 2168 4D89E8   		movq	%r13, %r8
 5806 216b 4889EF   		movq	%rbp, %rdi
 5807 216e B90C0000 		movl	$12, %ecx
 5807      00
 5808 2173 488D0500 		leaq	.LC71(%rip), %rax
 5808      000000
 5809 217a 41B90300 		movl	$3, %r9d
 5809      0000
 5810 2180 BE200000 		movl	$32, %esi
 5810      00
 5811 2185 488D1500 		leaq	.LC70(%rip), %rdx
 5811      000000
 5812 218c 48890424 		movq	%rax, (%rsp)
 5813 2190 E8000000 		call	_Z9testShiftPKcjS0_jS0_jS0_
 5813      00
 5814 2195 4D89E8   		movq	%r13, %r8
 5815 2198 4889EF   		movq	%rbp, %rdi
 5816 219b B90D0000 		movl	$13, %ecx
 5816      00
 5817 21a0 488D0500 		leaq	.LC73(%rip), %rax
 5817      000000
 5818 21a7 41B90300 		movl	$3, %r9d
 5818      0000
 5819 21ad BE200000 		movl	$32, %esi
 5819      00
 5820 21b2 488D1500 		leaq	.LC72(%rip), %rdx
 5820      000000
 5821 21b9 48890424 		movq	%rax, (%rsp)
 5822 21bd E8000000 		call	_Z9testShiftPKcjS0_jS0_jS0_
 5822      00
 5823 21c2 4D89E8   		movq	%r13, %r8
 5824 21c5 4889EF   		movq	%rbp, %rdi
 5825 21c8 B90E0000 		movl	$14, %ecx
 5825      00
 5826 21cd 488D0500 		leaq	.LC75(%rip), %rax
 5826      000000
 5827 21d4 41B90300 		movl	$3, %r9d
 5827      0000
 5828 21da BE200000 		movl	$32, %esi
 5828      00
 5829 21df 488D1500 		leaq	.LC74(%rip), %rdx
 5829      000000
 5830 21e6 48890424 		movq	%rax, (%rsp)
 5831 21ea E8000000 		call	_Z9testShiftPKcjS0_jS0_jS0_
 5831      00
 5832 21ef 4D89E8   		movq	%r13, %r8
 5833 21f2 4889EF   		movq	%rbp, %rdi
 5834 21f5 B90F0000 		movl	$15, %ecx
 5834      00
 5835 21fa 4C8D1500 		leaq	.LC76(%rip), %r10
 5835      000000
 5836 2201 41B90300 		movl	$3, %r9d
 5836      0000
 5837 2207 BE200000 		movl	$32, %esi
 5837      00
 5838 220c 4C89D2   		movq	%r10, %rdx
 5839 220f 488D0500 		leaq	.LC77(%rip), %rax
 5839      000000
 5840 2216 48890424 		movq	%rax, (%rsp)
 5841 221a E8000000 		call	_Z9testShiftPKcjS0_jS0_jS0_
 5841      00
 5842 221f 4D89E8   		movq	%r13, %r8
 5843 2222 4889DA   		movq	%rbx, %rdx
 5844 2225 4889EF   		movq	%rbp, %rdi
 5845 2228 41B90300 		movl	$3, %r9d
 5845      0000
 5846 222e B9100000 		movl	$16, %ecx
 5846      00
 5847 2233 BE200000 		movl	$32, %esi
 5847      00
 5848 2238 488D0500 		leaq	.LC79(%rip), %rax
 5848      000000
 5849 223f 48890424 		movq	%rax, (%rsp)
 5850 2243 E8000000 		call	_Z9testShiftPKcjS0_jS0_jS0_
 5850      00
 5851 2248 4D89E8   		movq	%r13, %r8
 5852 224b 4C89FA   		movq	%r15, %rdx
 5853 224e 4889EF   		movq	%rbp, %rdi
 5854 2251 41B90300 		movl	$3, %r9d
 5854      0000
 5855 2257 B9110000 		movl	$17, %ecx
 5855      00
 5856 225c BE200000 		movl	$32, %esi
 5856      00
 5857 2261 488D0500 		leaq	.LC81(%rip), %rax
 5857      000000
 5858 2268 48890424 		movq	%rax, (%rsp)
 5859 226c E8000000 		call	_Z9testShiftPKcjS0_jS0_jS0_
 5859      00
 5860 2271 4D89E0   		movq	%r12, %r8
 5861 2274 31C9     		xorl	%ecx, %ecx
 5862 2276 4889EF   		movq	%rbp, %rdi
 5863 2279 488D0500 		leaq	.LC82(%rip), %rax
 5863      000000
 5864 2280 41B90400 		movl	$4, %r9d
 5864      0000
 5865 2286 BE200000 		movl	$32, %esi
 5865      00
 5866 228b 48890424 		movq	%rax, (%rsp)
 5867 228f 488D0500 		leaq	.LC46(%rip), %rax
 5867      000000
 5868 2296 4889C2   		movq	%rax, %rdx
 5869 2299 E8000000 		call	_Z9testShiftPKcjS0_jS0_jS0_
 5869      00
 5870 229e 4D89E0   		movq	%r12, %r8
 5871 22a1 4C89F2   		movq	%r14, %rdx
 5872 22a4 4889EF   		movq	%rbp, %rdi
 5873 22a7 41B90400 		movl	$4, %r9d
 5873      0000
 5874 22ad B9010000 		movl	$1, %ecx
 5874      00
 5875 22b2 BE200000 		movl	$32, %esi
 5875      00
 5876 22b7 488D0500 		leaq	.LC83(%rip), %rax
 5876      000000
 5877 22be 48890424 		movq	%rax, (%rsp)
 5878 22c2 E8000000 		call	_Z9testShiftPKcjS0_jS0_jS0_
 5878      00
 5879 22c7 4D89E0   		movq	%r12, %r8
 5880 22ca 4889EF   		movq	%rbp, %rdi
 5881 22cd B9020000 		movl	$2, %ecx
 5881      00
 5882 22d2 4C8D1D00 		leaq	.LC51(%rip), %r11
 5882      000000
 5883 22d9 41B90400 		movl	$4, %r9d
 5883      0000
 5884 22df BE200000 		movl	$32, %esi
 5884      00
 5885 22e4 4C89DA   		movq	%r11, %rdx
 5886 22e7 488D0500 		leaq	.LC84(%rip), %rax
 5886      000000
 5887 22ee 48890424 		movq	%rax, (%rsp)
 5888 22f2 E8000000 		call	_Z9testShiftPKcjS0_jS0_jS0_
 5888      00
 5889 22f7 4D89E0   		movq	%r12, %r8
 5890 22fa 4C89EA   		movq	%r13, %rdx
 5891 22fd 4889EF   		movq	%rbp, %rdi
 5892 2300 41B90400 		movl	$4, %r9d
 5892      0000
 5893 2306 B9030000 		movl	$3, %ecx
 5893      00
 5894 230b BE200000 		movl	$32, %esi
 5894      00
 5895 2310 488D0500 		leaq	.LC85(%rip), %rax
 5895      000000
 5896 2317 48890424 		movq	%rax, (%rsp)
 5897 231b E8000000 		call	_Z9testShiftPKcjS0_jS0_jS0_
 5897      00
 5898 2320 4D89E0   		movq	%r12, %r8
 5899 2323 4C89E2   		movq	%r12, %rdx
 5900 2326 4889EF   		movq	%rbp, %rdi
 5901 2329 41B90400 		movl	$4, %r9d
 5901      0000
 5902 232f B9040000 		movl	$4, %ecx
 5902      00
 5903 2334 BE200000 		movl	$32, %esi
 5903      00
 5904 2339 488D0500 		leaq	.LC86(%rip), %rax
 5904      000000
 5905 2340 48890424 		movq	%rax, (%rsp)
 5906 2344 E8000000 		call	_Z9testShiftPKcjS0_jS0_jS0_
 5906      00
 5907 2349 4D89E0   		movq	%r12, %r8
 5908 234c 4889EF   		movq	%rbp, %rdi
 5909 234f B9050000 		movl	$5, %ecx
 5909      00
 5910 2354 488D0500 		leaq	.LC87(%rip), %rax
 5910      000000
 5911 235b 41B90400 		movl	$4, %r9d
 5911      0000
 5912 2361 BE200000 		movl	$32, %esi
 5912      00
 5913 2366 488D1500 		leaq	.LC56(%rip), %rdx
 5913      000000
 5914 236d 48890424 		movq	%rax, (%rsp)
 5915 2371 E8000000 		call	_Z9testShiftPKcjS0_jS0_jS0_
 5915      00
 5916 2376 4D89E0   		movq	%r12, %r8
 5917 2379 4889EF   		movq	%rbp, %rdi
 5918 237c B9060000 		movl	$6, %ecx
 5918      00
 5919 2381 488D0500 		leaq	.LC88(%rip), %rax
 5919      000000
 5920 2388 41B90400 		movl	$4, %r9d
 5920      0000
 5921 238e BE200000 		movl	$32, %esi
 5921      00
 5922 2393 488D1500 		leaq	.LC58(%rip), %rdx
 5922      000000
 5923 239a 48890424 		movq	%rax, (%rsp)
 5924 239e E8000000 		call	_Z9testShiftPKcjS0_jS0_jS0_
 5924      00
 5925 23a3 4D89E0   		movq	%r12, %r8
 5926 23a6 4889EF   		movq	%rbp, %rdi
 5927 23a9 B9070000 		movl	$7, %ecx
 5927      00
 5928 23ae 488D0500 		leaq	.LC89(%rip), %rax
 5928      000000
 5929 23b5 41B90400 		movl	$4, %r9d
 5929      0000
 5930 23bb BE200000 		movl	$32, %esi
 5930      00
 5931 23c0 488D1500 		leaq	.LC60(%rip), %rdx
 5931      000000
 5932 23c7 48890424 		movq	%rax, (%rsp)
 5933 23cb E8000000 		call	_Z9testShiftPKcjS0_jS0_jS0_
 5933      00
 5934 23d0 4D89E0   		movq	%r12, %r8
 5935 23d3 4889EF   		movq	%rbp, %rdi
 5936 23d6 B9080000 		movl	$8, %ecx
 5936      00
 5937 23db 488D0500 		leaq	.LC90(%rip), %rax
 5937      000000
 5938 23e2 41B90400 		movl	$4, %r9d
 5938      0000
 5939 23e8 BE200000 		movl	$32, %esi
 5939      00
 5940 23ed 488D1500 		leaq	.LC62(%rip), %rdx
 5940      000000
 5941 23f4 48890424 		movq	%rax, (%rsp)
 5942 23f8 E8000000 		call	_Z9testShiftPKcjS0_jS0_jS0_
 5942      00
 5943 23fd 4D89E0   		movq	%r12, %r8
 5944 2400 4889EF   		movq	%rbp, %rdi
 5945 2403 B9090000 		movl	$9, %ecx
 5945      00
 5946 2408 488D0500 		leaq	.LC91(%rip), %rax
 5946      000000
 5947 240f 41B90400 		movl	$4, %r9d
 5947      0000
 5948 2415 BE200000 		movl	$32, %esi
 5948      00
 5949 241a 488D1500 		leaq	.LC64(%rip), %rdx
 5949      000000
 5950 2421 48890424 		movq	%rax, (%rsp)
 5951 2425 E8000000 		call	_Z9testShiftPKcjS0_jS0_jS0_
 5951      00
 5952 242a 4D89E0   		movq	%r12, %r8
 5953 242d 4889EF   		movq	%rbp, %rdi
 5954 2430 B90A0000 		movl	$10, %ecx
 5954      00
 5955 2435 488D0500 		leaq	.LC92(%rip), %rax
 5955      000000
 5956 243c 41B90400 		movl	$4, %r9d
 5956      0000
 5957 2442 BE200000 		movl	$32, %esi
 5957      00
 5958 2447 488D1500 		leaq	.LC66(%rip), %rdx
 5958      000000
 5959 244e 48890424 		movq	%rax, (%rsp)
 5960 2452 E8000000 		call	_Z9testShiftPKcjS0_jS0_jS0_
 5960      00
 5961 2457 4D89E0   		movq	%r12, %r8
 5962 245a 4889EF   		movq	%rbp, %rdi
 5963 245d B90B0000 		movl	$11, %ecx
 5963      00
 5964 2462 488D0500 		leaq	.LC93(%rip), %rax
 5964      000000
 5965 2469 41B90400 		movl	$4, %r9d
 5965      0000
 5966 246f BE200000 		movl	$32, %esi
 5966      00
 5967 2474 488D1500 		leaq	.LC68(%rip), %rdx
 5967      000000
 5968 247b 48890424 		movq	%rax, (%rsp)
 5969 247f E8000000 		call	_Z9testShiftPKcjS0_jS0_jS0_
 5969      00
 5970 2484 4D89E0   		movq	%r12, %r8
 5971 2487 4889EF   		movq	%rbp, %rdi
 5972 248a B90C0000 		movl	$12, %ecx
 5972      00
 5973 248f 488D0500 		leaq	.LC94(%rip), %rax
 5973      000000
 5974 2496 41B90400 		movl	$4, %r9d
 5974      0000
 5975 249c BE200000 		movl	$32, %esi
 5975      00
 5976 24a1 488D1500 		leaq	.LC70(%rip), %rdx
 5976      000000
 5977 24a8 48890424 		movq	%rax, (%rsp)
 5978 24ac E8000000 		call	_Z9testShiftPKcjS0_jS0_jS0_
 5978      00
 5979 24b1 4D89E0   		movq	%r12, %r8
 5980 24b4 4889EF   		movq	%rbp, %rdi
 5981 24b7 B90D0000 		movl	$13, %ecx
 5981      00
 5982 24bc 488D0500 		leaq	.LC95(%rip), %rax
 5982      000000
 5983 24c3 41B90400 		movl	$4, %r9d
 5983      0000
 5984 24c9 BE200000 		movl	$32, %esi
 5984      00
 5985 24ce 488D1500 		leaq	.LC72(%rip), %rdx
 5985      000000
 5986 24d5 48890424 		movq	%rax, (%rsp)
 5987 24d9 E8000000 		call	_Z9testShiftPKcjS0_jS0_jS0_
 5987      00
 5988 24de 4D89E0   		movq	%r12, %r8
 5989 24e1 4889EF   		movq	%rbp, %rdi
 5990 24e4 B90E0000 		movl	$14, %ecx
 5990      00
 5991 24e9 488D0500 		leaq	.LC96(%rip), %rax
 5991      000000
 5992 24f0 41B90400 		movl	$4, %r9d
 5992      0000
 5993 24f6 BE200000 		movl	$32, %esi
 5993      00
 5994 24fb 488D1500 		leaq	.LC74(%rip), %rdx
 5994      000000
 5995 2502 48890424 		movq	%rax, (%rsp)
 5996 2506 E8000000 		call	_Z9testShiftPKcjS0_jS0_jS0_
 5996      00
 5997 250b 4D89E0   		movq	%r12, %r8
 5998 250e 4889EF   		movq	%rbp, %rdi
 5999 2511 B90F0000 		movl	$15, %ecx
 5999      00
 6000 2516 4C8D1500 		leaq	.LC76(%rip), %r10
 6000      000000
 6001 251d 41B90400 		movl	$4, %r9d
 6001      0000
 6002 2523 BE200000 		movl	$32, %esi
 6002      00
 6003 2528 4C89D2   		movq	%r10, %rdx
 6004 252b 488D0500 		leaq	.LC97(%rip), %rax
 6004      000000
 6005 2532 48890424 		movq	%rax, (%rsp)
 6006 2536 E8000000 		call	_Z9testShiftPKcjS0_jS0_jS0_
 6006      00
 6007 253b 4D89E0   		movq	%r12, %r8
 6008 253e 4889DA   		movq	%rbx, %rdx
 6009 2541 4889EF   		movq	%rbp, %rdi
 6010 2544 41B90400 		movl	$4, %r9d
 6010      0000
 6011 254a B9100000 		movl	$16, %ecx
 6011      00
 6012 254f BE200000 		movl	$32, %esi
 6012      00
 6013 2554 488D0500 		leaq	.LC98(%rip), %rax
 6013      000000
 6014 255b 48890424 		movq	%rax, (%rsp)
 6015 255f E8000000 		call	_Z9testShiftPKcjS0_jS0_jS0_
 6015      00
 6016 2564 4D89E0   		movq	%r12, %r8
 6017 2567 4C89FA   		movq	%r15, %rdx
 6018 256a 4889EF   		movq	%rbp, %rdi
 6019 256d 41B90400 		movl	$4, %r9d
 6019      0000
 6020 2573 B9110000 		movl	$17, %ecx
 6020      00
 6021 2578 BE200000 		movl	$32, %esi
 6021      00
 6022 257d 488D0500 		leaq	.LC99(%rip), %rax
 6022      000000
 6023 2584 48890424 		movq	%rax, (%rsp)
 6024 2588 E8000000 		call	_Z9testShiftPKcjS0_jS0_jS0_
 6024      00
 6025 258d 31C9     		xorl	%ecx, %ecx
 6026 258f 4889EF   		movq	%rbp, %rdi
 6027 2592 41B90900 		movl	$9, %r9d
 6027      0000
 6028 2598 488D0500 		leaq	.LC101(%rip), %rax
 6028      000000
 6029 259f 4C8D0500 		leaq	.LC100(%rip), %r8
 6029      000000
 6030 25a6 BE200000 		movl	$32, %esi
 6030      00
 6031 25ab 48890424 		movq	%rax, (%rsp)
 6032 25af 488D0500 		leaq	.LC46(%rip), %rax
 6032      000000
 6033 25b6 4889C2   		movq	%rax, %rdx
 6034 25b9 E8000000 		call	_Z9testShiftPKcjS0_jS0_jS0_
 6034      00
 6035 25be 4C89F2   		movq	%r14, %rdx
 6036 25c1 4889EF   		movq	%rbp, %rdi
 6037 25c4 B9010000 		movl	$1, %ecx
 6037      00
 6038 25c9 488D0500 		leaq	.LC102(%rip), %rax
 6038      000000
 6039 25d0 41B90900 		movl	$9, %r9d
 6039      0000
 6040 25d6 BE200000 		movl	$32, %esi
 6040      00
 6041 25db 4C8D0500 		leaq	.LC100(%rip), %r8
 6041      000000
 6042 25e2 48890424 		movq	%rax, (%rsp)
 6043 25e6 E8000000 		call	_Z9testShiftPKcjS0_jS0_jS0_
 6043      00
 6044 25eb 4C8D1D00 		leaq	.LC51(%rip), %r11
 6044      000000
 6045 25f2 4889EF   		movq	%rbp, %rdi
 6046 25f5 488D0500 		leaq	.LC103(%rip), %rax
 6046      000000
 6047 25fc 4C89DA   		movq	%r11, %rdx
 6048 25ff 41B90900 		movl	$9, %r9d
 6048      0000
 6049 2605 B9020000 		movl	$2, %ecx
 6049      00
 6050 260a BE200000 		movl	$32, %esi
 6050      00
 6051 260f 4C8D0500 		leaq	.LC100(%rip), %r8
 6051      000000
 6052 2616 48890424 		movq	%rax, (%rsp)
 6053 261a E8000000 		call	_Z9testShiftPKcjS0_jS0_jS0_
 6053      00
 6054 261f 4C89EA   		movq	%r13, %rdx
 6055 2622 4889EF   		movq	%rbp, %rdi
 6056 2625 B9030000 		movl	$3, %ecx
 6056      00
 6057 262a 488D0500 		leaq	.LC104(%rip), %rax
 6057      000000
 6058 2631 41B90900 		movl	$9, %r9d
 6058      0000
 6059 2637 BE200000 		movl	$32, %esi
 6059      00
 6060 263c 4C8D0500 		leaq	.LC100(%rip), %r8
 6060      000000
 6061 2643 48890424 		movq	%rax, (%rsp)
 6062 2647 E8000000 		call	_Z9testShiftPKcjS0_jS0_jS0_
 6062      00
 6063 264c 4C89E2   		movq	%r12, %rdx
 6064 264f 4889EF   		movq	%rbp, %rdi
 6065 2652 B9040000 		movl	$4, %ecx
 6065      00
 6066 2657 488D0500 		leaq	.LC105(%rip), %rax
 6066      000000
 6067 265e 41B90900 		movl	$9, %r9d
 6067      0000
 6068 2664 BE200000 		movl	$32, %esi
 6068      00
 6069 2669 4C8D0500 		leaq	.LC100(%rip), %r8
 6069      000000
 6070 2670 48890424 		movq	%rax, (%rsp)
 6071 2674 E8000000 		call	_Z9testShiftPKcjS0_jS0_jS0_
 6071      00
 6072 2679 488D0500 		leaq	.LC106(%rip), %rax
 6072      000000
 6073 2680 4889EF   		movq	%rbp, %rdi
 6074 2683 41B90900 		movl	$9, %r9d
 6074      0000
 6075 2689 4C8D0500 		leaq	.LC100(%rip), %r8
 6075      000000
 6076 2690 B9050000 		movl	$5, %ecx
 6076      00
 6077 2695 488D1500 		leaq	.LC56(%rip), %rdx
 6077      000000
 6078 269c BE200000 		movl	$32, %esi
 6078      00
 6079 26a1 48890424 		movq	%rax, (%rsp)
 6080 26a5 E8000000 		call	_Z9testShiftPKcjS0_jS0_jS0_
 6080      00
 6081 26aa 488D0500 		leaq	.LC107(%rip), %rax
 6081      000000
 6082 26b1 4889EF   		movq	%rbp, %rdi
 6083 26b4 41B90900 		movl	$9, %r9d
 6083      0000
 6084 26ba 4C8D0500 		leaq	.LC100(%rip), %r8
 6084      000000
 6085 26c1 B9060000 		movl	$6, %ecx
 6085      00
 6086 26c6 488D1500 		leaq	.LC58(%rip), %rdx
 6086      000000
 6087 26cd BE200000 		movl	$32, %esi
 6087      00
 6088 26d2 48890424 		movq	%rax, (%rsp)
 6089 26d6 E8000000 		call	_Z9testShiftPKcjS0_jS0_jS0_
 6089      00
 6090 26db 488D0500 		leaq	.LC108(%rip), %rax
 6090      000000
 6091 26e2 4889EF   		movq	%rbp, %rdi
 6092 26e5 41B90900 		movl	$9, %r9d
 6092      0000
 6093 26eb 4C8D0500 		leaq	.LC100(%rip), %r8
 6093      000000
 6094 26f2 B9070000 		movl	$7, %ecx
 6094      00
 6095 26f7 488D1500 		leaq	.LC60(%rip), %rdx
 6095      000000
 6096 26fe BE200000 		movl	$32, %esi
 6096      00
 6097 2703 48890424 		movq	%rax, (%rsp)
 6098 2707 E8000000 		call	_Z9testShiftPKcjS0_jS0_jS0_
 6098      00
 6099 270c 488D0500 		leaq	.LC109(%rip), %rax
 6099      000000
 6100 2713 4889EF   		movq	%rbp, %rdi
 6101 2716 41B90900 		movl	$9, %r9d
 6101      0000
 6102 271c 4C8D0500 		leaq	.LC100(%rip), %r8
 6102      000000
 6103 2723 B9080000 		movl	$8, %ecx
 6103      00
 6104 2728 488D1500 		leaq	.LC62(%rip), %rdx
 6104      000000
 6105 272f BE200000 		movl	$32, %esi
 6105      00
 6106 2734 48890424 		movq	%rax, (%rsp)
 6107 2738 E8000000 		call	_Z9testShiftPKcjS0_jS0_jS0_
 6107      00
 6108 273d 488D0500 		leaq	.LC110(%rip), %rax
 6108      000000
 6109 2744 4889EF   		movq	%rbp, %rdi
 6110 2747 41B90900 		movl	$9, %r9d
 6110      0000
 6111 274d 4C8D0500 		leaq	.LC100(%rip), %r8
 6111      000000
 6112 2754 B9090000 		movl	$9, %ecx
 6112      00
 6113 2759 488D1500 		leaq	.LC64(%rip), %rdx
 6113      000000
 6114 2760 BE200000 		movl	$32, %esi
 6114      00
 6115 2765 48890424 		movq	%rax, (%rsp)
 6116 2769 E8000000 		call	_Z9testShiftPKcjS0_jS0_jS0_
 6116      00
 6117 276e 488D0500 		leaq	.LC111(%rip), %rax
 6117      000000
 6118 2775 4889EF   		movq	%rbp, %rdi
 6119 2778 41B90900 		movl	$9, %r9d
 6119      0000
 6120 277e 4C8D0500 		leaq	.LC100(%rip), %r8
 6120      000000
 6121 2785 B90A0000 		movl	$10, %ecx
 6121      00
 6122 278a 488D1500 		leaq	.LC66(%rip), %rdx
 6122      000000
 6123 2791 BE200000 		movl	$32, %esi
 6123      00
 6124 2796 48890424 		movq	%rax, (%rsp)
 6125 279a E8000000 		call	_Z9testShiftPKcjS0_jS0_jS0_
 6125      00
 6126 279f 488D0500 		leaq	.LC112(%rip), %rax
 6126      000000
 6127 27a6 4889EF   		movq	%rbp, %rdi
 6128 27a9 41B90900 		movl	$9, %r9d
 6128      0000
 6129 27af 4C8D0500 		leaq	.LC100(%rip), %r8
 6129      000000
 6130 27b6 B90B0000 		movl	$11, %ecx
 6130      00
 6131 27bb 488D1500 		leaq	.LC68(%rip), %rdx
 6131      000000
 6132 27c2 BE200000 		movl	$32, %esi
 6132      00
 6133 27c7 48890424 		movq	%rax, (%rsp)
 6134 27cb E8000000 		call	_Z9testShiftPKcjS0_jS0_jS0_
 6134      00
 6135 27d0 488D0500 		leaq	.LC113(%rip), %rax
 6135      000000
 6136 27d7 4889EF   		movq	%rbp, %rdi
 6137 27da 41B90900 		movl	$9, %r9d
 6137      0000
 6138 27e0 4C8D0500 		leaq	.LC100(%rip), %r8
 6138      000000
 6139 27e7 B90C0000 		movl	$12, %ecx
 6139      00
 6140 27ec 488D1500 		leaq	.LC70(%rip), %rdx
 6140      000000
 6141 27f3 BE200000 		movl	$32, %esi
 6141      00
 6142 27f8 48890424 		movq	%rax, (%rsp)
 6143 27fc E8000000 		call	_Z9testShiftPKcjS0_jS0_jS0_
 6143      00
 6144 2801 488D0500 		leaq	.LC114(%rip), %rax
 6144      000000
 6145 2808 4889EF   		movq	%rbp, %rdi
 6146 280b 41B90900 		movl	$9, %r9d
 6146      0000
 6147 2811 4C8D0500 		leaq	.LC100(%rip), %r8
 6147      000000
 6148 2818 B90D0000 		movl	$13, %ecx
 6148      00
 6149 281d 488D1500 		leaq	.LC72(%rip), %rdx
 6149      000000
 6150 2824 BE200000 		movl	$32, %esi
 6150      00
 6151 2829 48890424 		movq	%rax, (%rsp)
 6152 282d E8000000 		call	_Z9testShiftPKcjS0_jS0_jS0_
 6152      00
 6153 2832 488D0500 		leaq	.LC115(%rip), %rax
 6153      000000
 6154 2839 4889EF   		movq	%rbp, %rdi
 6155 283c 41B90900 		movl	$9, %r9d
 6155      0000
 6156 2842 4C8D0500 		leaq	.LC100(%rip), %r8
 6156      000000
 6157 2849 B90E0000 		movl	$14, %ecx
 6157      00
 6158 284e 488D1500 		leaq	.LC74(%rip), %rdx
 6158      000000
 6159 2855 BE200000 		movl	$32, %esi
 6159      00
 6160 285a 48890424 		movq	%rax, (%rsp)
 6161 285e E8000000 		call	_Z9testShiftPKcjS0_jS0_jS0_
 6161      00
 6162 2863 4C8D1500 		leaq	.LC76(%rip), %r10
 6162      000000
 6163 286a 4889EF   		movq	%rbp, %rdi
 6164 286d 488D0500 		leaq	.LC116(%rip), %rax
 6164      000000
 6165 2874 4C89D2   		movq	%r10, %rdx
 6166 2877 41B90900 		movl	$9, %r9d
 6166      0000
 6167 287d B90F0000 		movl	$15, %ecx
 6167      00
 6168 2882 BE200000 		movl	$32, %esi
 6168      00
 6169 2887 4C8D0500 		leaq	.LC100(%rip), %r8
 6169      000000
 6170 288e 48890424 		movq	%rax, (%rsp)
 6171 2892 E8000000 		call	_Z9testShiftPKcjS0_jS0_jS0_
 6171      00
 6172 2897 4889DA   		movq	%rbx, %rdx
 6173 289a 4889EF   		movq	%rbp, %rdi
 6174 289d B9100000 		movl	$16, %ecx
 6174      00
 6175 28a2 488D0500 		leaq	.LC117(%rip), %rax
 6175      000000
 6176 28a9 41B90900 		movl	$9, %r9d
 6176      0000
 6177 28af BE200000 		movl	$32, %esi
 6177      00
 6178 28b4 4C8D0500 		leaq	.LC100(%rip), %r8
 6178      000000
 6179 28bb 48890424 		movq	%rax, (%rsp)
 6180 28bf E8000000 		call	_Z9testShiftPKcjS0_jS0_jS0_
 6180      00
 6181 28c4 4C89FA   		movq	%r15, %rdx
 6182 28c7 4889EF   		movq	%rbp, %rdi
 6183 28ca B9110000 		movl	$17, %ecx
 6183      00
 6184 28cf 488D0500 		leaq	.LC118(%rip), %rax
 6184      000000
 6185 28d6 41B90900 		movl	$9, %r9d
 6185      0000
 6186 28dc 4C8D0500 		leaq	.LC100(%rip), %r8
 6186      000000
 6187 28e3 BE200000 		movl	$32, %esi
 6187      00
 6188 28e8 48890424 		movq	%rax, (%rsp)
 6189 28ec 488D2D00 		leaq	.LC119(%rip), %rbp
 6189      000000
 6190 28f3 E8000000 		call	_Z9testShiftPKcjS0_jS0_jS0_
 6190      00
 6191 28f8 31C9     		xorl	%ecx, %ecx
 6192 28fa 4889EF   		movq	%rbp, %rdi
 6193 28fd 41B90900 		movl	$9, %r9d
 6193      0000
 6194 2903 488D0500 		leaq	.LC120(%rip), %rax
 6194      000000
 6195 290a 4C8D0500 		leaq	.LC100(%rip), %r8
 6195      000000
 6196 2911 BE1F0000 		movl	$31, %esi
 6196      00
 6197 2916 48890424 		movq	%rax, (%rsp)
 6198 291a 488D0500 		leaq	.LC46(%rip), %rax
 6198      000000
 6199 2921 4889C2   		movq	%rax, %rdx
 6200 2924 E8000000 		call	_Z9testShiftPKcjS0_jS0_jS0_
 6200      00
 6201 2929 4C89F2   		movq	%r14, %rdx
 6202 292c 4889EF   		movq	%rbp, %rdi
 6203 292f B9010000 		movl	$1, %ecx
 6203      00
 6204 2934 488D0500 		leaq	.LC121(%rip), %rax
 6204      000000
 6205 293b 41B90900 		movl	$9, %r9d
 6205      0000
 6206 2941 BE1F0000 		movl	$31, %esi
 6206      00
 6207 2946 4C8D0500 		leaq	.LC100(%rip), %r8
 6207      000000
 6208 294d 48890424 		movq	%rax, (%rsp)
 6209 2951 E8000000 		call	_Z9testShiftPKcjS0_jS0_jS0_
 6209      00
 6210 2956 4C8D1D00 		leaq	.LC51(%rip), %r11
 6210      000000
 6211 295d 4889EF   		movq	%rbp, %rdi
 6212 2960 488D0500 		leaq	.LC122(%rip), %rax
 6212      000000
 6213 2967 4C89DA   		movq	%r11, %rdx
 6214 296a 41B90900 		movl	$9, %r9d
 6214      0000
 6215 2970 B9020000 		movl	$2, %ecx
 6215      00
 6216 2975 BE1F0000 		movl	$31, %esi
 6216      00
 6217 297a 4C8D0500 		leaq	.LC100(%rip), %r8
 6217      000000
 6218 2981 48890424 		movq	%rax, (%rsp)
 6219 2985 E8000000 		call	_Z9testShiftPKcjS0_jS0_jS0_
 6219      00
 6220 298a 4C89EA   		movq	%r13, %rdx
 6221 298d 4889EF   		movq	%rbp, %rdi
 6222 2990 B9030000 		movl	$3, %ecx
 6222      00
 6223 2995 488D0500 		leaq	.LC123(%rip), %rax
 6223      000000
 6224 299c 41B90900 		movl	$9, %r9d
 6224      0000
 6225 29a2 BE1F0000 		movl	$31, %esi
 6225      00
 6226 29a7 4C8D0500 		leaq	.LC100(%rip), %r8
 6226      000000
 6227 29ae 48890424 		movq	%rax, (%rsp)
 6228 29b2 E8000000 		call	_Z9testShiftPKcjS0_jS0_jS0_
 6228      00
 6229 29b7 4C89E2   		movq	%r12, %rdx
 6230 29ba 4889EF   		movq	%rbp, %rdi
 6231 29bd B9040000 		movl	$4, %ecx
 6231      00
 6232 29c2 488D0500 		leaq	.LC124(%rip), %rax
 6232      000000
 6233 29c9 41B90900 		movl	$9, %r9d
 6233      0000
 6234 29cf BE1F0000 		movl	$31, %esi
 6234      00
 6235 29d4 4C8D0500 		leaq	.LC100(%rip), %r8
 6235      000000
 6236 29db 48890424 		movq	%rax, (%rsp)
 6237 29df E8000000 		call	_Z9testShiftPKcjS0_jS0_jS0_
 6237      00
 6238 29e4 488D0500 		leaq	.LC125(%rip), %rax
 6238      000000
 6239 29eb 4889EF   		movq	%rbp, %rdi
 6240 29ee 41B90900 		movl	$9, %r9d
 6240      0000
 6241 29f4 4C8D0500 		leaq	.LC100(%rip), %r8
 6241      000000
 6242 29fb B9050000 		movl	$5, %ecx
 6242      00
 6243 2a00 488D1500 		leaq	.LC56(%rip), %rdx
 6243      000000
 6244 2a07 BE1F0000 		movl	$31, %esi
 6244      00
 6245 2a0c 48890424 		movq	%rax, (%rsp)
 6246 2a10 E8000000 		call	_Z9testShiftPKcjS0_jS0_jS0_
 6246      00
 6247 2a15 488D0500 		leaq	.LC126(%rip), %rax
 6247      000000
 6248 2a1c 4889EF   		movq	%rbp, %rdi
 6249 2a1f 41B90900 		movl	$9, %r9d
 6249      0000
 6250 2a25 4C8D0500 		leaq	.LC100(%rip), %r8
 6250      000000
 6251 2a2c B9060000 		movl	$6, %ecx
 6251      00
 6252 2a31 488D1500 		leaq	.LC58(%rip), %rdx
 6252      000000
 6253 2a38 BE1F0000 		movl	$31, %esi
 6253      00
 6254 2a3d 48890424 		movq	%rax, (%rsp)
 6255 2a41 E8000000 		call	_Z9testShiftPKcjS0_jS0_jS0_
 6255      00
 6256 2a46 488D0500 		leaq	.LC127(%rip), %rax
 6256      000000
 6257 2a4d 4889EF   		movq	%rbp, %rdi
 6258 2a50 41B90900 		movl	$9, %r9d
 6258      0000
 6259 2a56 4C8D0500 		leaq	.LC100(%rip), %r8
 6259      000000
 6260 2a5d B9070000 		movl	$7, %ecx
 6260      00
 6261 2a62 488D1500 		leaq	.LC60(%rip), %rdx
 6261      000000
 6262 2a69 BE1F0000 		movl	$31, %esi
 6262      00
 6263 2a6e 48890424 		movq	%rax, (%rsp)
 6264 2a72 E8000000 		call	_Z9testShiftPKcjS0_jS0_jS0_
 6264      00
 6265 2a77 488D0500 		leaq	.LC128(%rip), %rax
 6265      000000
 6266 2a7e 4889EF   		movq	%rbp, %rdi
 6267 2a81 41B90900 		movl	$9, %r9d
 6267      0000
 6268 2a87 4C8D0500 		leaq	.LC100(%rip), %r8
 6268      000000
 6269 2a8e B9080000 		movl	$8, %ecx
 6269      00
 6270 2a93 488D1500 		leaq	.LC62(%rip), %rdx
 6270      000000
 6271 2a9a BE1F0000 		movl	$31, %esi
 6271      00
 6272 2a9f 48890424 		movq	%rax, (%rsp)
 6273 2aa3 E8000000 		call	_Z9testShiftPKcjS0_jS0_jS0_
 6273      00
 6274 2aa8 488D0500 		leaq	.LC129(%rip), %rax
 6274      000000
 6275 2aaf 4889EF   		movq	%rbp, %rdi
 6276 2ab2 41B90900 		movl	$9, %r9d
 6276      0000
 6277 2ab8 4C8D0500 		leaq	.LC100(%rip), %r8
 6277      000000
 6278 2abf B9090000 		movl	$9, %ecx
 6278      00
 6279 2ac4 488D1500 		leaq	.LC64(%rip), %rdx
 6279      000000
 6280 2acb BE1F0000 		movl	$31, %esi
 6280      00
 6281 2ad0 48890424 		movq	%rax, (%rsp)
 6282 2ad4 E8000000 		call	_Z9testShiftPKcjS0_jS0_jS0_
 6282      00
 6283 2ad9 488D0500 		leaq	.LC130(%rip), %rax
 6283      000000
 6284 2ae0 4889EF   		movq	%rbp, %rdi
 6285 2ae3 41B90900 		movl	$9, %r9d
 6285      0000
 6286 2ae9 4C8D0500 		leaq	.LC100(%rip), %r8
 6286      000000
 6287 2af0 B90A0000 		movl	$10, %ecx
 6287      00
 6288 2af5 488D1500 		leaq	.LC66(%rip), %rdx
 6288      000000
 6289 2afc BE1F0000 		movl	$31, %esi
 6289      00
 6290 2b01 48890424 		movq	%rax, (%rsp)
 6291 2b05 E8000000 		call	_Z9testShiftPKcjS0_jS0_jS0_
 6291      00
 6292 2b0a 488D0500 		leaq	.LC131(%rip), %rax
 6292      000000
 6293 2b11 4889EF   		movq	%rbp, %rdi
 6294 2b14 41B90900 		movl	$9, %r9d
 6294      0000
 6295 2b1a 4C8D0500 		leaq	.LC100(%rip), %r8
 6295      000000
 6296 2b21 B90B0000 		movl	$11, %ecx
 6296      00
 6297 2b26 488D1500 		leaq	.LC68(%rip), %rdx
 6297      000000
 6298 2b2d BE1F0000 		movl	$31, %esi
 6298      00
 6299 2b32 48890424 		movq	%rax, (%rsp)
 6300 2b36 E8000000 		call	_Z9testShiftPKcjS0_jS0_jS0_
 6300      00
 6301 2b3b 488D0500 		leaq	.LC132(%rip), %rax
 6301      000000
 6302 2b42 4889EF   		movq	%rbp, %rdi
 6303 2b45 41B90900 		movl	$9, %r9d
 6303      0000
 6304 2b4b 4C8D0500 		leaq	.LC100(%rip), %r8
 6304      000000
 6305 2b52 B90C0000 		movl	$12, %ecx
 6305      00
 6306 2b57 488D1500 		leaq	.LC70(%rip), %rdx
 6306      000000
 6307 2b5e BE1F0000 		movl	$31, %esi
 6307      00
 6308 2b63 48890424 		movq	%rax, (%rsp)
 6309 2b67 E8000000 		call	_Z9testShiftPKcjS0_jS0_jS0_
 6309      00
 6310 2b6c 488D0500 		leaq	.LC133(%rip), %rax
 6310      000000
 6311 2b73 4889EF   		movq	%rbp, %rdi
 6312 2b76 41B90900 		movl	$9, %r9d
 6312      0000
 6313 2b7c 4C8D0500 		leaq	.LC100(%rip), %r8
 6313      000000
 6314 2b83 B90D0000 		movl	$13, %ecx
 6314      00
 6315 2b88 488D1500 		leaq	.LC72(%rip), %rdx
 6315      000000
 6316 2b8f BE1F0000 		movl	$31, %esi
 6316      00
 6317 2b94 48890424 		movq	%rax, (%rsp)
 6318 2b98 E8000000 		call	_Z9testShiftPKcjS0_jS0_jS0_
 6318      00
 6319 2b9d 488D0500 		leaq	.LC134(%rip), %rax
 6319      000000
 6320 2ba4 4889EF   		movq	%rbp, %rdi
 6321 2ba7 41B90900 		movl	$9, %r9d
 6321      0000
 6322 2bad 4C8D0500 		leaq	.LC100(%rip), %r8
 6322      000000
 6323 2bb4 B90E0000 		movl	$14, %ecx
 6323      00
 6324 2bb9 488D1500 		leaq	.LC74(%rip), %rdx
 6324      000000
 6325 2bc0 BE1F0000 		movl	$31, %esi
 6325      00
 6326 2bc5 48890424 		movq	%rax, (%rsp)
 6327 2bc9 E8000000 		call	_Z9testShiftPKcjS0_jS0_jS0_
 6327      00
 6328 2bce 4C8D1500 		leaq	.LC76(%rip), %r10
 6328      000000
 6329 2bd5 4889EF   		movq	%rbp, %rdi
 6330 2bd8 488D0500 		leaq	.LC135(%rip), %rax
 6330      000000
 6331 2bdf 4C89D2   		movq	%r10, %rdx
 6332 2be2 41B90900 		movl	$9, %r9d
 6332      0000
 6333 2be8 B90F0000 		movl	$15, %ecx
 6333      00
 6334 2bed BE1F0000 		movl	$31, %esi
 6334      00
 6335 2bf2 4C8D0500 		leaq	.LC100(%rip), %r8
 6335      000000
 6336 2bf9 48890424 		movq	%rax, (%rsp)
 6337 2bfd E8000000 		call	_Z9testShiftPKcjS0_jS0_jS0_
 6337      00
 6338 2c02 4889DA   		movq	%rbx, %rdx
 6339 2c05 4889EF   		movq	%rbp, %rdi
 6340 2c08 B9100000 		movl	$16, %ecx
 6340      00
 6341 2c0d 488D0500 		leaq	.LC136(%rip), %rax
 6341      000000
 6342 2c14 41B90900 		movl	$9, %r9d
 6342      0000
 6343 2c1a 4C8D0500 		leaq	.LC100(%rip), %r8
 6343      000000
 6344 2c21 BE1F0000 		movl	$31, %esi
 6344      00
 6345 2c26 48890424 		movq	%rax, (%rsp)
 6346 2c2a 488D1D00 		leaq	.LC138(%rip), %rbx
 6346      000000
 6347 2c31 E8000000 		call	_Z9testShiftPKcjS0_jS0_jS0_
 6347      00
 6348 2c36 4C89FA   		movq	%r15, %rdx
 6349 2c39 4889EF   		movq	%rbp, %rdi
 6350 2c3c B9110000 		movl	$17, %ecx
 6350      00
 6351 2c41 488D0500 		leaq	.LC137(%rip), %rax
 6351      000000
 6352 2c48 488D2D00 		leaq	.LC139(%rip), %rbp
 6352      000000
 6353 2c4f 41B90900 		movl	$9, %r9d
 6353      0000
 6354 2c55 BE1F0000 		movl	$31, %esi
 6354      00
 6355 2c5a 4C8D0500 		leaq	.LC100(%rip), %r8
 6355      000000
 6356 2c61 48890424 		movq	%rax, (%rsp)
 6357 2c65 E8000000 		call	_Z9testShiftPKcjS0_jS0_jS0_
 6357      00
 6358 2c6a 4D89F0   		movq	%r14, %r8
 6359 2c6d 4889DA   		movq	%rbx, %rdx
 6360 2c70 4889EF   		movq	%rbp, %rdi
 6361 2c73 488D0500 		leaq	.LC140(%rip), %rax
 6361      000000
 6362 2c7a 41B90100 		movl	$1, %r9d
 6362      0000
 6363 2c80 31C9     		xorl	%ecx, %ecx
 6364 2c82 BE5F0000 		movl	$95, %esi
 6364      00
 6365 2c87 48890424 		movq	%rax, (%rsp)
 6366 2c8b E8000000 		call	_Z9testShiftPKcjS0_jS0_jS0_
 6366      00
 6367 2c90 4989D8   		movq	%rbx, %r8
 6368 2c93 4C89F2   		movq	%r14, %rdx
 6369 2c96 4889EF   		movq	%rbp, %rdi
 6370 2c99 488D0500 		leaq	.LC141(%rip), %rax
 6370      000000
 6371 2ca0 4531C9   		xorl	%r9d, %r9d
 6372 2ca3 B9010000 		movl	$1, %ecx
 6372      00
 6373 2ca8 BE5F0000 		movl	$95, %esi
 6373      00
 6374 2cad 48890424 		movq	%rax, (%rsp)
 6375 2cb1 E8000000 		call	_Z9testShiftPKcjS0_jS0_jS0_
 6375      00
 6376 2cb6 4883C418 		addq	$24, %rsp
 6377              		.cfi_def_cfa_offset 56
 6378 2cba 5B       		popq	%rbx
 6379              		.cfi_def_cfa_offset 48
 6380 2cbb 5D       		popq	%rbp
 6381              		.cfi_def_cfa_offset 40
 6382 2cbc 415C     		popq	%r12
 6383              		.cfi_def_cfa_offset 32
 6384 2cbe 415D     		popq	%r13
 6385              		.cfi_def_cfa_offset 24
 6386 2cc0 415E     		popq	%r14
 6387              		.cfi_def_cfa_offset 16
 6388 2cc2 415F     		popq	%r15
 6389              		.cfi_def_cfa_offset 8
 6390 2cc4 C3       		ret
 6391              		.cfi_endproc
 6392              	.LFE1252:
 6394              		.section	.rodata.str1.1
 6395              	.LC142:
 6396 0541 74657374 		.string	"testSvf2Csvf.cpp"
 6396      53766632 
 6396      43737666 
 6396      2E637070 
 6396      00
 6397              	.LC143:
 6398 0552 44656661 		.string	"DefaultSuite"
 6398      756C7453 
 6398      75697465 
 6398      00
 6399              	.LC144:
 6400 055f 46504741 		.string	"FPGALink_testReadBytes"
 6400      4C696E6B 
 6400      5F746573 
 6400      74526561 
 6400      64427974 
 6401              	.LC145:
 6402 0576 46504741 		.string	"FPGALink_testShift"
 6402      4C696E6B 
 6402      5F746573 
 6402      74536869 
 6402      667400
 6403              	.LC146:
 6404 0589 46504741 		.string	"FPGALink_testParse"
 6404      4C696E6B 
 6404      5F746573 
 6404      74506172 
 6404      736500
 6405              	.LC147:
 6406 059c 46504741 		.string	"FPGALink_testProcessIndex"
 6406      4C696E6B 
 6406      5F746573 
 6406      7450726F 
 6406      63657373 
 6407              	.LC148:
 6408 05b6 46504741 		.string	"FPGALink_testBuildIndex"
 6408      4C696E6B 
 6408      5F746573 
 6408      74427569 
 6408      6C64496E 
 6409              		.section	.text.startup,"ax",@progbits
 6410              		.p2align 4
 6412              	_GLOBAL__sub_I__Z13testReadBytesP6BufferPKc:
 6413              	.LFB1382:
 6414              		.cfi_startproc
 6415 0000 F30F1EFA 		endbr64
 6416 0004 4157     		pushq	%r15
 6417              		.cfi_def_cfa_offset 16
 6418              		.cfi_offset 15, -16
 6419 0006 4C8D3D00 		leaq	testFPGALink_testReadBytesInstance(%rip), %r15
 6419      000000
 6420 000d 41B82A00 		movl	$42, %r8d
 6420      0000
 6421 0013 488D3500 		leaq	.LC144(%rip), %rsi
 6421      000000
 6422 001a 4156     		pushq	%r14
 6423              		.cfi_def_cfa_offset 24
 6424              		.cfi_offset 14, -24
 6425 001c 4C8D3500 		leaq	.LC142(%rip), %r14
 6425      000000
 6426 0023 4C89FF   		movq	%r15, %rdi
 6427 0026 4155     		pushq	%r13
 6428              		.cfi_def_cfa_offset 32
 6429              		.cfi_offset 13, -32
 6430 0028 4C8D2D00 		leaq	.LC143(%rip), %r13
 6430      000000
 6431 002f 4C89F1   		movq	%r14, %rcx
 6432 0032 4154     		pushq	%r12
 6433              		.cfi_def_cfa_offset 40
 6434              		.cfi_offset 12, -40
 6435 0034 4C89EA   		movq	%r13, %rdx
 6436 0037 4C8D2500 		leaq	__dso_handle(%rip), %r12
 6436      000000
 6437 003e 4883EC08 		subq	$8, %rsp
 6438              		.cfi_def_cfa_offset 48
 6439 0042 E8000000 		call	_ZN8UnitTest4TestC2EPKcS2_S2_i@PLT
 6439      00
 6440 0047 4C89E2   		movq	%r12, %rdx
 6441 004a 4C89FE   		movq	%r15, %rsi
 6442 004d 488D3D00 		leaq	_ZN26TestFPGALink_testReadBytesD1Ev(%rip), %rdi
 6442      000000
 6443 0054 488D0500 		leaq	16+_ZTV26TestFPGALink_testReadBytes(%rip), %rax
 6443      000000
 6444 005b 48890500 		movq	%rax, testFPGALink_testReadBytesInstance(%rip)
 6444      000000
 6445 0062 E8000000 		call	__cxa_atexit@PLT
 6445      00
 6446 0067 E8000000 		call	_ZN8UnitTest4Test11GetTestListEv@PLT
 6446      00
 6447 006c 4C89FA   		movq	%r15, %rdx
 6448 006f 488D3D00 		leaq	adderFPGALink_testReadBytes(%rip), %rdi
 6448      000000
 6449 0076 4C8D3D00 		leaq	testFPGALink_testShiftInstance(%rip), %r15
 6449      000000
 6450 007d 4889C6   		movq	%rax, %rsi
 6451 0080 E8000000 		call	_ZN8UnitTest9ListAdderC1ERNS_8TestListEPNS_4TestE@PLT
 6451      00
 6452 0085 4C89F1   		movq	%r14, %rcx
 6453 0088 4C89EA   		movq	%r13, %rdx
 6454 008b 4C89FF   		movq	%r15, %rdi
 6455 008e 41B85A00 		movl	$90, %r8d
 6455      0000
 6456 0094 488D3500 		leaq	.LC145(%rip), %rsi
 6456      000000
 6457 009b E8000000 		call	_ZN8UnitTest4TestC2EPKcS2_S2_i@PLT
 6457      00
 6458 00a0 4C89E2   		movq	%r12, %rdx
 6459 00a3 4C89FE   		movq	%r15, %rsi
 6460 00a6 488D3D00 		leaq	_ZN22TestFPGALink_testShiftD1Ev(%rip), %rdi
 6460      000000
 6461 00ad 488D0500 		leaq	16+_ZTV22TestFPGALink_testShift(%rip), %rax
 6461      000000
 6462 00b4 48890500 		movq	%rax, testFPGALink_testShiftInstance(%rip)
 6462      000000
 6463 00bb E8000000 		call	__cxa_atexit@PLT
 6463      00
 6464 00c0 E8000000 		call	_ZN8UnitTest4Test11GetTestListEv@PLT
 6464      00
 6465 00c5 4C89FA   		movq	%r15, %rdx
 6466 00c8 488D3D00 		leaq	adderFPGALink_testShift(%rip), %rdi
 6466      000000
 6467 00cf 4C8D3D00 		leaq	testFPGALink_testParseInstance(%rip), %r15
 6467      000000
 6468 00d6 4889C6   		movq	%rax, %rsi
 6469 00d9 E8000000 		call	_ZN8UnitTest9ListAdderC1ERNS_8TestListEPNS_4TestE@PLT
 6469      00
 6470 00de 4C89F1   		movq	%r14, %rcx
 6471 00e1 4C89EA   		movq	%r13, %rdx
 6472 00e4 4C89FF   		movq	%r15, %rdi
 6473 00e7 41B85402 		movl	$596, %r8d
 6473      0000
 6474 00ed 488D3500 		leaq	.LC146(%rip), %rsi
 6474      000000
 6475 00f4 E8000000 		call	_ZN8UnitTest4TestC2EPKcS2_S2_i@PLT
 6475      00
 6476 00f9 4C89E2   		movq	%r12, %rdx
 6477 00fc 4C89FE   		movq	%r15, %rsi
 6478 00ff 488D3D00 		leaq	_ZN22TestFPGALink_testParseD1Ev(%rip), %rdi
 6478      000000
 6479 0106 488D0500 		leaq	16+_ZTV22TestFPGALink_testParse(%rip), %rax
 6479      000000
 6480 010d 48890500 		movq	%rax, testFPGALink_testParseInstance(%rip)
 6480      000000
 6481 0114 E8000000 		call	__cxa_atexit@PLT
 6481      00
 6482 0119 E8000000 		call	_ZN8UnitTest4Test11GetTestListEv@PLT
 6482      00
 6483 011e 4C89FA   		movq	%r15, %rdx
 6484 0121 488D3D00 		leaq	adderFPGALink_testParse(%rip), %rdi
 6484      000000
 6485 0128 4C8D3D00 		leaq	testFPGALink_testProcessIndexInstance(%rip), %r15
 6485      000000
 6486 012f 4889C6   		movq	%rax, %rsi
 6487 0132 E8000000 		call	_ZN8UnitTest9ListAdderC1ERNS_8TestListEPNS_4TestE@PLT
 6487      00
 6488 0137 4C89F1   		movq	%r14, %rcx
 6489 013a 4C89EA   		movq	%r13, %rdx
 6490 013d 4C89FF   		movq	%r15, %rdi
 6491 0140 41B89102 		movl	$657, %r8d
 6491      0000
 6492 0146 488D3500 		leaq	.LC147(%rip), %rsi
 6492      000000
 6493 014d E8000000 		call	_ZN8UnitTest4TestC2EPKcS2_S2_i@PLT
 6493      00
 6494 0152 4C89E2   		movq	%r12, %rdx
 6495 0155 4C89FE   		movq	%r15, %rsi
 6496 0158 488D3D00 		leaq	_ZN29TestFPGALink_testProcessIndexD1Ev(%rip), %rdi
 6496      000000
 6497 015f 488D0500 		leaq	16+_ZTV29TestFPGALink_testProcessIndex(%rip), %rax
 6497      000000
 6498 0166 48890500 		movq	%rax, testFPGALink_testProcessIndexInstance(%rip)
 6498      000000
 6499 016d E8000000 		call	__cxa_atexit@PLT
 6499      00
 6500 0172 E8000000 		call	_ZN8UnitTest4Test11GetTestListEv@PLT
 6500      00
 6501 0177 4C89FA   		movq	%r15, %rdx
 6502 017a 488D3D00 		leaq	adderFPGALink_testProcessIndex(%rip), %rdi
 6502      000000
 6503 0181 4889C6   		movq	%rax, %rsi
 6504 0184 E8000000 		call	_ZN8UnitTest9ListAdderC1ERNS_8TestListEPNS_4TestE@PLT
 6504      00
 6505 0189 4C89EA   		movq	%r13, %rdx
 6506 018c 4C89F1   		movq	%r14, %rcx
 6507 018f 4C8D2D00 		leaq	testFPGALink_testBuildIndexInstance(%rip), %r13
 6507      000000
 6508 0196 41B84203 		movl	$834, %r8d
 6508      0000
 6509 019c 4C89EF   		movq	%r13, %rdi
 6510 019f 488D3500 		leaq	.LC148(%rip), %rsi
 6510      000000
 6511 01a6 E8000000 		call	_ZN8UnitTest4TestC2EPKcS2_S2_i@PLT
 6511      00
 6512 01ab 4C89E2   		movq	%r12, %rdx
 6513 01ae 4C89EE   		movq	%r13, %rsi
 6514 01b1 488D3D00 		leaq	_ZN27TestFPGALink_testBuildIndexD1Ev(%rip), %rdi
 6514      000000
 6515 01b8 488D0500 		leaq	16+_ZTV27TestFPGALink_testBuildIndex(%rip), %rax
 6515      000000
 6516 01bf 48890500 		movq	%rax, testFPGALink_testBuildIndexInstance(%rip)
 6516      000000
 6517 01c6 E8000000 		call	__cxa_atexit@PLT
 6517      00
 6518 01cb E8000000 		call	_ZN8UnitTest4Test11GetTestListEv@PLT
 6518      00
 6519 01d0 4883C408 		addq	$8, %rsp
 6520              		.cfi_def_cfa_offset 40
 6521 01d4 4C89EA   		movq	%r13, %rdx
 6522 01d7 488D3D00 		leaq	adderFPGALink_testBuildIndex(%rip), %rdi
 6522      000000
 6523 01de 415C     		popq	%r12
 6524              		.cfi_def_cfa_offset 32
 6525 01e0 4889C6   		movq	%rax, %rsi
 6526 01e3 415D     		popq	%r13
 6527              		.cfi_def_cfa_offset 24
 6528 01e5 415E     		popq	%r14
 6529              		.cfi_def_cfa_offset 16
 6530 01e7 415F     		popq	%r15
 6531              		.cfi_def_cfa_offset 8
 6532 01e9 E9000000 		jmp	_ZN8UnitTest9ListAdderC1ERNS_8TestListEPNS_4TestE@PLT
 6532      00
 6533              		.cfi_endproc
 6534              	.LFE1382:
 6536              		.section	.init_array,"aw"
 6537              		.align 8
 6538 0000 00000000 		.quad	_GLOBAL__sub_I__Z13testReadBytesP6BufferPKc
 6538      00000000 
 6539              		.weak	_ZTSN8UnitTest15MemoryOutStreamE
 6540              		.section	.rodata._ZTSN8UnitTest15MemoryOutStreamE,"aG",@progbits,_ZTSN8UnitTest15MemoryOutStreamE,
 6541              		.align 16
 6544              	_ZTSN8UnitTest15MemoryOutStreamE:
 6545 0000 4E38556E 		.string	"N8UnitTest15MemoryOutStreamE"
 6545      69745465 
 6545      73743135 
 6545      4D656D6F 
 6545      72794F75 
 6546              		.weak	_ZTIN8UnitTest15MemoryOutStreamE
 6547              		.section	.data.rel.ro._ZTIN8UnitTest15MemoryOutStreamE,"awG",@progbits,_ZTIN8UnitTest15MemoryOutSt
 6548              		.align 8
 6551              	_ZTIN8UnitTest15MemoryOutStreamE:
 6552 0000 00000000 		.quad	_ZTVN10__cxxabiv120__si_class_type_infoE+16
 6552      00000000 
 6553 0008 00000000 		.quad	_ZTSN8UnitTest15MemoryOutStreamE
 6553      00000000 
 6554 0010 00000000 		.quad	_ZTINSt7__cxx1119basic_ostringstreamIcSt11char_traitsIcESaIcEEE
 6554      00000000 
 6555              		.weak	_ZTS26TestFPGALink_testReadBytes
 6556              		.section	.rodata._ZTS26TestFPGALink_testReadBytes,"aG",@progbits,_ZTS26TestFPGALink_testReadBytes,
 6557              		.align 16
 6560              	_ZTS26TestFPGALink_testReadBytes:
 6561 0000 32365465 		.string	"26TestFPGALink_testReadBytes"
 6561      73744650 
 6561      47414C69 
 6561      6E6B5F74 
 6561      65737452 
 6562              		.weak	_ZTI26TestFPGALink_testReadBytes
 6563              		.section	.data.rel.ro._ZTI26TestFPGALink_testReadBytes,"awG",@progbits,_ZTI26TestFPGALink_testRead
 6564              		.align 8
 6567              	_ZTI26TestFPGALink_testReadBytes:
 6568 0000 00000000 		.quad	_ZTVN10__cxxabiv120__si_class_type_infoE+16
 6568      00000000 
 6569 0008 00000000 		.quad	_ZTS26TestFPGALink_testReadBytes
 6569      00000000 
 6570 0010 00000000 		.quad	_ZTIN8UnitTest4TestE
 6570      00000000 
 6571              		.weak	_ZTS22TestFPGALink_testShift
 6572              		.section	.rodata._ZTS22TestFPGALink_testShift,"aG",@progbits,_ZTS22TestFPGALink_testShift,comdat
 6573              		.align 16
 6576              	_ZTS22TestFPGALink_testShift:
 6577 0000 32325465 		.string	"22TestFPGALink_testShift"
 6577      73744650 
 6577      47414C69 
 6577      6E6B5F74 
 6577      65737453 
 6578              		.weak	_ZTI22TestFPGALink_testShift
 6579              		.section	.data.rel.ro._ZTI22TestFPGALink_testShift,"awG",@progbits,_ZTI22TestFPGALink_testShift,co
 6580              		.align 8
 6583              	_ZTI22TestFPGALink_testShift:
 6584 0000 00000000 		.quad	_ZTVN10__cxxabiv120__si_class_type_infoE+16
 6584      00000000 
 6585 0008 00000000 		.quad	_ZTS22TestFPGALink_testShift
 6585      00000000 
 6586 0010 00000000 		.quad	_ZTIN8UnitTest4TestE
 6586      00000000 
 6587              		.weak	_ZTS22TestFPGALink_testParse
 6588              		.section	.rodata._ZTS22TestFPGALink_testParse,"aG",@progbits,_ZTS22TestFPGALink_testParse,comdat
 6589              		.align 16
 6592              	_ZTS22TestFPGALink_testParse:
 6593 0000 32325465 		.string	"22TestFPGALink_testParse"
 6593      73744650 
 6593      47414C69 
 6593      6E6B5F74 
 6593      65737450 
 6594              		.weak	_ZTI22TestFPGALink_testParse
 6595              		.section	.data.rel.ro._ZTI22TestFPGALink_testParse,"awG",@progbits,_ZTI22TestFPGALink_testParse,co
 6596              		.align 8
 6599              	_ZTI22TestFPGALink_testParse:
 6600 0000 00000000 		.quad	_ZTVN10__cxxabiv120__si_class_type_infoE+16
 6600      00000000 
 6601 0008 00000000 		.quad	_ZTS22TestFPGALink_testParse
 6601      00000000 
 6602 0010 00000000 		.quad	_ZTIN8UnitTest4TestE
 6602      00000000 
 6603              		.weak	_ZTS29TestFPGALink_testProcessIndex
 6604              		.section	.rodata._ZTS29TestFPGALink_testProcessIndex,"aG",@progbits,_ZTS29TestFPGALink_testProcess
 6605              		.align 32
 6608              	_ZTS29TestFPGALink_testProcessIndex:
 6609 0000 32395465 		.string	"29TestFPGALink_testProcessIndex"
 6609      73744650 
 6609      47414C69 
 6609      6E6B5F74 
 6609      65737450 
 6610              		.weak	_ZTI29TestFPGALink_testProcessIndex
 6611              		.section	.data.rel.ro._ZTI29TestFPGALink_testProcessIndex,"awG",@progbits,_ZTI29TestFPGALink_testP
 6612              		.align 8
 6615              	_ZTI29TestFPGALink_testProcessIndex:
 6616 0000 00000000 		.quad	_ZTVN10__cxxabiv120__si_class_type_infoE+16
 6616      00000000 
 6617 0008 00000000 		.quad	_ZTS29TestFPGALink_testProcessIndex
 6617      00000000 
 6618 0010 00000000 		.quad	_ZTIN8UnitTest4TestE
 6618      00000000 
 6619              		.weak	_ZTS27TestFPGALink_testBuildIndex
 6620              		.section	.rodata._ZTS27TestFPGALink_testBuildIndex,"aG",@progbits,_ZTS27TestFPGALink_testBuildInde
 6621              		.align 16
 6624              	_ZTS27TestFPGALink_testBuildIndex:
 6625 0000 32375465 		.string	"27TestFPGALink_testBuildIndex"
 6625      73744650 
 6625      47414C69 
 6625      6E6B5F74 
 6625      65737442 
 6626              		.weak	_ZTI27TestFPGALink_testBuildIndex
 6627              		.section	.data.rel.ro._ZTI27TestFPGALink_testBuildIndex,"awG",@progbits,_ZTI27TestFPGALink_testBui
 6628              		.align 8
 6631              	_ZTI27TestFPGALink_testBuildIndex:
 6632 0000 00000000 		.quad	_ZTVN10__cxxabiv120__si_class_type_infoE+16
 6632      00000000 
 6633 0008 00000000 		.quad	_ZTS27TestFPGALink_testBuildIndex
 6633      00000000 
 6634 0010 00000000 		.quad	_ZTIN8UnitTest4TestE
 6634      00000000 
 6635              		.hidden	_ZTCN8UnitTest15MemoryOutStreamE0_So
 6636              		.weak	_ZTCN8UnitTest15MemoryOutStreamE0_So
 6637              		.section	.data.rel.ro._ZTCN8UnitTest15MemoryOutStreamE0_So,"awG",@progbits,_ZTVN8UnitTest15MemoryO
 6638              		.align 8
 6641              	_ZTCN8UnitTest15MemoryOutStreamE0_So:
 6642 0000 90000000 		.quad	144
 6642      00000000 
 6643 0008 00000000 		.quad	0
 6643      00000000 
 6644 0010 00000000 		.quad	_ZTISo
 6644      00000000 
 6645 0018 00000000 		.quad	0
 6645      00000000 
 6646 0020 00000000 		.quad	0
 6646      00000000 
 6647 0028 70FFFFFF 		.quad	-144
 6647      FFFFFFFF 
 6648 0030 70FFFFFF 		.quad	-144
 6648      FFFFFFFF 
 6649 0038 00000000 		.quad	_ZTISo
 6649      00000000 
 6650 0040 00000000 		.quad	0
 6650      00000000 
 6651 0048 00000000 		.quad	0
 6651      00000000 
 6652              		.hidden	_ZTCN8UnitTest15MemoryOutStreamE0_NSt7__cxx1119basic_ostringstreamIcSt11char_traitsIcESaIc
 6653              		.weak	_ZTCN8UnitTest15MemoryOutStreamE0_NSt7__cxx1119basic_ostringstreamIcSt11char_traitsIcESaIcEE
 6654              		.section	.data.rel.ro._ZTCN8UnitTest15MemoryOutStreamE0_NSt7__cxx1119basic_ostringstreamIcSt11char
 6655              		.align 8
 6658              	_ZTCN8UnitTest15MemoryOutStreamE0_NSt7__cxx1119basic_ostringstreamIcSt11char_traitsIcESaIcEEE:
 6659 0000 90000000 		.quad	144
 6659      00000000 
 6660 0008 00000000 		.quad	0
 6660      00000000 
 6661 0010 00000000 		.quad	_ZTINSt7__cxx1119basic_ostringstreamIcSt11char_traitsIcESaIcEEE
 6661      00000000 
 6662 0018 00000000 		.quad	0
 6662      00000000 
 6663 0020 00000000 		.quad	0
 6663      00000000 
 6664 0028 70FFFFFF 		.quad	-144
 6664      FFFFFFFF 
 6665 0030 70FFFFFF 		.quad	-144
 6665      FFFFFFFF 
 6666 0038 00000000 		.quad	_ZTINSt7__cxx1119basic_ostringstreamIcSt11char_traitsIcESaIcEEE
 6666      00000000 
 6667 0040 00000000 		.quad	0
 6667      00000000 
 6668 0048 00000000 		.quad	0
 6668      00000000 
 6669              		.weak	_ZTTN8UnitTest15MemoryOutStreamE
 6670              		.section	.data.rel.ro.local._ZTTN8UnitTest15MemoryOutStreamE,"awG",@progbits,_ZTVN8UnitTest15Memor
 6671              		.align 8
 6674              	_ZTTN8UnitTest15MemoryOutStreamE:
 6675 0000 00000000 		.quad	_ZTVN8UnitTest15MemoryOutStreamE+24
 6675      00000000 
 6676 0008 00000000 		.quad	_ZTCN8UnitTest15MemoryOutStreamE0_NSt7__cxx1119basic_ostringstreamIcSt11char_traitsIcESaIcEE
 6676      00000000 
 6677 0010 00000000 		.quad	_ZTCN8UnitTest15MemoryOutStreamE0_So+24
 6677      00000000 
 6678 0018 00000000 		.quad	_ZTCN8UnitTest15MemoryOutStreamE0_So+64
 6678      00000000 
 6679 0020 00000000 		.quad	_ZTCN8UnitTest15MemoryOutStreamE0_NSt7__cxx1119basic_ostringstreamIcSt11char_traitsIcESaIcEE
 6679      00000000 
 6680 0028 00000000 		.quad	_ZTVN8UnitTest15MemoryOutStreamE+64
 6680      00000000 
 6681              		.weak	_ZTVN8UnitTest15MemoryOutStreamE
 6682              		.section	.data.rel.ro.local._ZTVN8UnitTest15MemoryOutStreamE,"awG",@progbits,_ZTVN8UnitTest15Memor
 6683              		.align 8
 6686              	_ZTVN8UnitTest15MemoryOutStreamE:
 6687 0000 90000000 		.quad	144
 6687      00000000 
 6688 0008 00000000 		.quad	0
 6688      00000000 
 6689 0010 00000000 		.quad	_ZTIN8UnitTest15MemoryOutStreamE
 6689      00000000 
 6690 0018 00000000 		.quad	_ZN8UnitTest15MemoryOutStreamD1Ev
 6690      00000000 
 6691 0020 00000000 		.quad	_ZN8UnitTest15MemoryOutStreamD0Ev
 6691      00000000 
 6692 0028 70FFFFFF 		.quad	-144
 6692      FFFFFFFF 
 6693 0030 70FFFFFF 		.quad	-144
 6693      FFFFFFFF 
 6694 0038 00000000 		.quad	_ZTIN8UnitTest15MemoryOutStreamE
 6694      00000000 
 6695 0040 00000000 		.quad	_ZTv0_n24_N8UnitTest15MemoryOutStreamD1Ev
 6695      00000000 
 6696 0048 00000000 		.quad	_ZTv0_n24_N8UnitTest15MemoryOutStreamD0Ev
 6696      00000000 
 6697              		.weak	_ZTV26TestFPGALink_testReadBytes
 6698              		.section	.data.rel.ro.local._ZTV26TestFPGALink_testReadBytes,"awG",@progbits,_ZTV26TestFPGALink_te
 6699              		.align 8
 6702              	_ZTV26TestFPGALink_testReadBytes:
 6703 0000 00000000 		.quad	0
 6703      00000000 
 6704 0008 00000000 		.quad	_ZTI26TestFPGALink_testReadBytes
 6704      00000000 
 6705 0010 00000000 		.quad	_ZN26TestFPGALink_testReadBytesD1Ev
 6705      00000000 
 6706 0018 00000000 		.quad	_ZN26TestFPGALink_testReadBytesD0Ev
 6706      00000000 
 6707 0020 00000000 		.quad	_ZNK26TestFPGALink_testReadBytes7RunImplEv
 6707      00000000 
 6708              		.weak	_ZTV22TestFPGALink_testShift
 6709              		.section	.data.rel.ro.local._ZTV22TestFPGALink_testShift,"awG",@progbits,_ZTV22TestFPGALink_testSh
 6710              		.align 8
 6713              	_ZTV22TestFPGALink_testShift:
 6714 0000 00000000 		.quad	0
 6714      00000000 
 6715 0008 00000000 		.quad	_ZTI22TestFPGALink_testShift
 6715      00000000 
 6716 0010 00000000 		.quad	_ZN22TestFPGALink_testShiftD1Ev
 6716      00000000 
 6717 0018 00000000 		.quad	_ZN22TestFPGALink_testShiftD0Ev
 6717      00000000 
 6718 0020 00000000 		.quad	_ZNK22TestFPGALink_testShift7RunImplEv
 6718      00000000 
 6719              		.weak	_ZTV22TestFPGALink_testParse
 6720              		.section	.data.rel.ro.local._ZTV22TestFPGALink_testParse,"awG",@progbits,_ZTV22TestFPGALink_testPa
 6721              		.align 8
 6724              	_ZTV22TestFPGALink_testParse:
 6725 0000 00000000 		.quad	0
 6725      00000000 
 6726 0008 00000000 		.quad	_ZTI22TestFPGALink_testParse
 6726      00000000 
 6727 0010 00000000 		.quad	_ZN22TestFPGALink_testParseD1Ev
 6727      00000000 
 6728 0018 00000000 		.quad	_ZN22TestFPGALink_testParseD0Ev
 6728      00000000 
 6729 0020 00000000 		.quad	_ZNK22TestFPGALink_testParse7RunImplEv
 6729      00000000 
 6730              		.weak	_ZTV29TestFPGALink_testProcessIndex
 6731              		.section	.data.rel.ro.local._ZTV29TestFPGALink_testProcessIndex,"awG",@progbits,_ZTV29TestFPGALink
 6732              		.align 8
 6735              	_ZTV29TestFPGALink_testProcessIndex:
 6736 0000 00000000 		.quad	0
 6736      00000000 
 6737 0008 00000000 		.quad	_ZTI29TestFPGALink_testProcessIndex
 6737      00000000 
 6738 0010 00000000 		.quad	_ZN29TestFPGALink_testProcessIndexD1Ev
 6738      00000000 
 6739 0018 00000000 		.quad	_ZN29TestFPGALink_testProcessIndexD0Ev
 6739      00000000 
 6740 0020 00000000 		.quad	_ZNK29TestFPGALink_testProcessIndex7RunImplEv
 6740      00000000 
 6741              		.weak	_ZTV27TestFPGALink_testBuildIndex
 6742              		.section	.data.rel.ro.local._ZTV27TestFPGALink_testBuildIndex,"awG",@progbits,_ZTV27TestFPGALink_t
 6743              		.align 8
 6746              	_ZTV27TestFPGALink_testBuildIndex:
 6747 0000 00000000 		.quad	0
 6747      00000000 
 6748 0008 00000000 		.quad	_ZTI27TestFPGALink_testBuildIndex
 6748      00000000 
 6749 0010 00000000 		.quad	_ZN27TestFPGALink_testBuildIndexD1Ev
 6749      00000000 
 6750 0018 00000000 		.quad	_ZN27TestFPGALink_testBuildIndexD0Ev
 6750      00000000 
 6751 0020 00000000 		.quad	_ZNK27TestFPGALink_testBuildIndex7RunImplEv
 6751      00000000 
 6752              		.globl	adderFPGALink_testBuildIndex
 6753              		.bss
 6756              	adderFPGALink_testBuildIndex:
 6757 0000 00       		.zero	1
 6758              		.globl	testFPGALink_testBuildIndexInstance
 6759 0001 00000000 		.align 32
 6759      00000000 
 6759      00000000 
 6759      00000000 
 6759      00000000 
 6762              	testFPGALink_testBuildIndexInstance:
 6763 0020 00000000 		.zero	56
 6763      00000000 
 6763      00000000 
 6763      00000000 
 6763      00000000 
 6764              		.globl	adderFPGALink_testProcessIndex
 6767              	adderFPGALink_testProcessIndex:
 6768 0058 00       		.zero	1
 6769              		.globl	testFPGALink_testProcessIndexInstance
 6770 0059 00000000 		.align 32
 6770      000000
 6773              	testFPGALink_testProcessIndexInstance:
 6774 0060 00000000 		.zero	56
 6774      00000000 
 6774      00000000 
 6774      00000000 
 6774      00000000 
 6775              		.globl	adderFPGALink_testParse
 6778              	adderFPGALink_testParse:
 6779 0098 00       		.zero	1
 6780              		.globl	testFPGALink_testParseInstance
 6781 0099 00000000 		.align 32
 6781      000000
 6784              	testFPGALink_testParseInstance:
 6785 00a0 00000000 		.zero	56
 6785      00000000 
 6785      00000000 
 6785      00000000 
 6785      00000000 
 6786              		.local	_ZZ9renderCxtPK12ParseContextE6result
 6787              		.comm	_ZZ9renderCxtPK12ParseContextE6result,1024,32
 6788              		.globl	adderFPGALink_testShift
 6791              	adderFPGALink_testShift:
 6792 00d8 00       		.zero	1
 6793              		.globl	testFPGALink_testShiftInstance
 6794 00d9 00000000 		.align 32
 6794      000000
 6797              	testFPGALink_testShiftInstance:
 6798 00e0 00000000 		.zero	56
 6798      00000000 
 6798      00000000 
 6798      00000000 
 6798      00000000 
 6799              		.globl	adderFPGALink_testReadBytes
 6802              	adderFPGALink_testReadBytes:
 6803 0118 00       		.zero	1
 6804              		.globl	testFPGALink_testReadBytesInstance
 6805 0119 00000000 		.align 32
 6805      000000
 6808              	testFPGALink_testReadBytesInstance:
 6809 0120 00000000 		.zero	56
 6809      00000000 
 6809      00000000 
 6809      00000000 
 6809      00000000 
 6810              		.section	.data.rel.ro.local,"aw"
 6811              		.align 8
 6812              	.LC12:
 6813 0000 00000000 		.quad	_ZTCN8UnitTest15MemoryOutStreamE0_NSt7__cxx1119basic_ostringstreamIcSt11char_traitsIcESaIcEE
 6813      00000000 
 6814              		.section	.data.rel.ro,"aw"
 6815              		.align 8
 6816              	.LC13:
 6817 0000 00000000 		.quad	_ZTVSt15basic_streambufIcSt11char_traitsIcEE+16
 6817      00000000 
 6818              		.align 8
 6819              	.LC14:
 6820 0008 00000000 		.quad	_ZTVNSt7__cxx1115basic_stringbufIcSt11char_traitsIcESaIcEEE+16
 6820      00000000 
 6821              		.section	.rodata.cst16,"aM",@progbits,16
 6822              		.align 16
 6823              	.LC39:
 6824 0000 02060908 		.quad	2305843009348503042
 6824      00000020 
 6825 0008 01FFFFFF 		.quad	-7854267785810018559
 6825      0F090093 
 6826              		.align 16
 6827              	.LC40:
 6828 0010 00800061 		.quad	2517883255029760
 6828      00F20800 
 6829 0018 00000503 		.quad	4398097170432
 6829      00040000 
 6830              		.hidden	DW.ref.__gxx_personality_v0
 6831              		.weak	DW.ref.__gxx_personality_v0
 6832              		.section	.data.rel.local.DW.ref.__gxx_personality_v0,"awG",@progbits,DW.ref.__gxx_personality_v0,c
 6833              		.align 8
 6836              	DW.ref.__gxx_personality_v0:
 6837 0000 00000000 		.quad	__gxx_personality_v0
 6837      00000000 
 6838              		.hidden	__dso_handle
 6839              		.ident	"GCC: (Ubuntu 11.3.0-1ubuntu1~22.04) 11.3.0"
 6840              		.section	.note.GNU-stack,"",@progbits
 6841              		.section	.note.gnu.property,"a"
 6842              		.align 8
 6843 0000 04000000 		.long	1f - 0f
 6844 0004 10000000 		.long	4f - 1f
 6845 0008 05000000 		.long	5
 6846              	0:
 6847 000c 474E5500 		.string	"GNU"
 6848              	1:
 6849              		.align 8
 6850 0010 020000C0 		.long	0xc0000002
 6851 0014 04000000 		.long	3f - 2f
 6852              	2:
 6853 0018 03000000 		.long	0x3
 6854              	3:
 6855 001c 00000000 		.align 8
 6856              	4:
DEFINED SYMBOLS
                            *ABS*:0000000000000000 testSvf2Csvf.cpp
     /tmp/ccVNNR5R.s:8      .text._ZN27TestFPGALink_testBuildIndexD2Ev:0000000000000000 _ZN27TestFPGALink_testBuildIndexD2Ev
     /tmp/ccVNNR5R.s:6746   .data.rel.ro.local._ZTV27TestFPGALink_testBuildIndex:0000000000000000 _ZTV27TestFPGALink_testBuildIndex
     /tmp/ccVNNR5R.s:8      .text._ZN27TestFPGALink_testBuildIndexD2Ev:0000000000000000 _ZN27TestFPGALink_testBuildIndexD1Ev
     /tmp/ccVNNR5R.s:25     .text._ZN27TestFPGALink_testBuildIndexD0Ev:0000000000000000 _ZN27TestFPGALink_testBuildIndexD0Ev
     /tmp/ccVNNR5R.s:6836   .data.rel.local.DW.ref.__gxx_personality_v0:0000000000000000 DW.ref.__gxx_personality_v0
     /tmp/ccVNNR5R.s:91     .text._ZN29TestFPGALink_testProcessIndexD2Ev:0000000000000000 _ZN29TestFPGALink_testProcessIndexD2Ev
     /tmp/ccVNNR5R.s:6735   .data.rel.ro.local._ZTV29TestFPGALink_testProcessIndex:0000000000000000 _ZTV29TestFPGALink_testProcessIndex
     /tmp/ccVNNR5R.s:91     .text._ZN29TestFPGALink_testProcessIndexD2Ev:0000000000000000 _ZN29TestFPGALink_testProcessIndexD1Ev
     /tmp/ccVNNR5R.s:108    .text._ZN29TestFPGALink_testProcessIndexD0Ev:0000000000000000 _ZN29TestFPGALink_testProcessIndexD0Ev
     /tmp/ccVNNR5R.s:173    .text._ZN22TestFPGALink_testParseD2Ev:0000000000000000 _ZN22TestFPGALink_testParseD2Ev
     /tmp/ccVNNR5R.s:6724   .data.rel.ro.local._ZTV22TestFPGALink_testParse:0000000000000000 _ZTV22TestFPGALink_testParse
     /tmp/ccVNNR5R.s:173    .text._ZN22TestFPGALink_testParseD2Ev:0000000000000000 _ZN22TestFPGALink_testParseD1Ev
     /tmp/ccVNNR5R.s:190    .text._ZN22TestFPGALink_testParseD0Ev:0000000000000000 _ZN22TestFPGALink_testParseD0Ev
     /tmp/ccVNNR5R.s:255    .text._ZN22TestFPGALink_testShiftD2Ev:0000000000000000 _ZN22TestFPGALink_testShiftD2Ev
     /tmp/ccVNNR5R.s:6713   .data.rel.ro.local._ZTV22TestFPGALink_testShift:0000000000000000 _ZTV22TestFPGALink_testShift
     /tmp/ccVNNR5R.s:255    .text._ZN22TestFPGALink_testShiftD2Ev:0000000000000000 _ZN22TestFPGALink_testShiftD1Ev
     /tmp/ccVNNR5R.s:272    .text._ZN22TestFPGALink_testShiftD0Ev:0000000000000000 _ZN22TestFPGALink_testShiftD0Ev
     /tmp/ccVNNR5R.s:337    .text._ZN26TestFPGALink_testReadBytesD2Ev:0000000000000000 _ZN26TestFPGALink_testReadBytesD2Ev
     /tmp/ccVNNR5R.s:6702   .data.rel.ro.local._ZTV26TestFPGALink_testReadBytes:0000000000000000 _ZTV26TestFPGALink_testReadBytes
     /tmp/ccVNNR5R.s:337    .text._ZN26TestFPGALink_testReadBytesD2Ev:0000000000000000 _ZN26TestFPGALink_testReadBytesD1Ev
     /tmp/ccVNNR5R.s:354    .text._ZN26TestFPGALink_testReadBytesD0Ev:0000000000000000 _ZN26TestFPGALink_testReadBytesD0Ev
     /tmp/ccVNNR5R.s:419    .text._ZN8UnitTest15MemoryOutStreamD1Ev:0000000000000000 _ZN8UnitTest15MemoryOutStreamD1Ev
     /tmp/ccVNNR5R.s:6686   .data.rel.ro.local._ZTVN8UnitTest15MemoryOutStreamE:0000000000000000 _ZTVN8UnitTest15MemoryOutStreamE
     /tmp/ccVNNR5R.s:6658   .data.rel.ro._ZTCN8UnitTest15MemoryOutStreamE0_NSt7__cxx1119basic_ostringstreamIcSt11char_traitsIcESaIcEEE:0000000000000000 _ZTCN8UnitTest15MemoryOutStreamE0_NSt7__cxx1119basic_ostringstreamIcSt11char_traitsIcESaIcEEE
     /tmp/ccVNNR5R.s:6641   .data.rel.ro._ZTCN8UnitTest15MemoryOutStreamE0_So:0000000000000000 _ZTCN8UnitTest15MemoryOutStreamE0_So
     /tmp/ccVNNR5R.s:479    .text._ZN8UnitTest15MemoryOutStreamD1Ev:00000000000000c0 _ZTv0_n24_N8UnitTest15MemoryOutStreamD1Ev
     /tmp/ccVNNR5R.s:543    .text._ZN8UnitTest15MemoryOutStreamD0Ev:0000000000000000 _ZN8UnitTest15MemoryOutStreamD0Ev
     /tmp/ccVNNR5R.s:638    .text._ZN8UnitTest15MemoryOutStreamD0Ev:00000000000000e0 _ZTv0_n24_N8UnitTest15MemoryOutStreamD0Ev
     /tmp/ccVNNR5R.s:739    .text:0000000000000000 _Z12renderBufferRPcPK6Buffer
     /tmp/ccVNNR5R.s:810    .text:0000000000000090 _Z14renderBitStoreRPcPK8BitStore
     /tmp/ccVNNR5R.s:967    .text:0000000000000250 _Z9renderCxtPK12ParseContext
     /tmp/ccVNNR5R.s:6787   .bss:0000000000000160 _ZZ9renderCxtPK12ParseContextE6result
     /tmp/ccVNNR5R.s:1059   .text._ZNSt7__cxx1115basic_stringbufIcSt11char_traitsIcESaIcEED2Ev:0000000000000000 _ZNSt7__cxx1115basic_stringbufIcSt11char_traitsIcESaIcEED2Ev
     /tmp/ccVNNR5R.s:1059   .text._ZNSt7__cxx1115basic_stringbufIcSt11char_traitsIcESaIcEED2Ev:0000000000000000 _ZNSt7__cxx1115basic_stringbufIcSt11char_traitsIcESaIcEED1Ev
     /tmp/ccVNNR5R.s:1123   .text:0000000000000360 _ZNK29TestFPGALink_testProcessIndex7RunImplEv
     /tmp/ccVNNR5R.s:1736   .text.unlikely:0000000000000000 _ZNK29TestFPGALink_testProcessIndex7RunImplEv.cold
     /tmp/ccVNNR5R.s:1954   .text._ZNSt7__cxx1115basic_stringbufIcSt11char_traitsIcESaIcEED0Ev:0000000000000000 _ZNSt7__cxx1115basic_stringbufIcSt11char_traitsIcESaIcEED0Ev
     /tmp/ccVNNR5R.s:1985   .text._ZN8UnitTest10CheckEqualI8FLStatusS1_EEvRNS_11TestResultsERKT_RKT0_RKNS_11TestDetailsE:0000000000000000 _ZN8UnitTest10CheckEqualI8FLStatusS1_EEvRNS_11TestResultsERKT_RKT0_RKNS_11TestDetailsE
     /tmp/ccVNNR5R.s:2247   .text:0000000000000db0 _Z13testReadBytesP6BufferPKc
     /tmp/ccVNNR5R.s:2585   .text.unlikely:0000000000000197 _Z13testReadBytesP6BufferPKc.cold
     /tmp/ccVNNR5R.s:2761   .text._ZN8UnitTest10CheckEqualI12BufferStatusS1_EEvRNS_11TestResultsERKT_RKT0_RKNS_11TestDetailsE:0000000000000000 _ZN8UnitTest10CheckEqualI12BufferStatusS1_EEvRNS_11TestResultsERKT_RKT0_RKNS_11TestDetailsE
     /tmp/ccVNNR5R.s:3032   .text:00000000000011e0 _ZNK26TestFPGALink_testReadBytes7RunImplEv
     /tmp/ccVNNR5R.s:3155   .text.unlikely:00000000000002d4 _ZNK26TestFPGALink_testReadBytes7RunImplEv.cold
     /tmp/ccVNNR5R.s:3235   .text:00000000000012e0 _Z11parseStringP12ParseContextPKcP6Buffer
     /tmp/ccVNNR5R.s:3432   .text.unlikely:000000000000032b _Z11parseStringP12ParseContextPKcP6Buffer.cold
     /tmp/ccVNNR5R.s:3626   .text:0000000000001460 _ZNK22TestFPGALink_testParse7RunImplEv
     /tmp/ccVNNR5R.s:3877   .text.unlikely:000000000000042e _ZNK22TestFPGALink_testParse7RunImplEv.cold
     /tmp/ccVNNR5R.s:4117   .text:0000000000001680 _ZNK27TestFPGALink_testBuildIndex7RunImplEv
     /tmp/ccVNNR5R.s:4308   .text.unlikely:00000000000005d2 _ZNK27TestFPGALink_testBuildIndex7RunImplEv.cold
     /tmp/ccVNNR5R.s:4475   .text:0000000000001840 _Z9testShiftPKcjS0_jS0_jS0_
     /tmp/ccVNNR5R.s:5052   .text.unlikely:00000000000006d2 _Z9testShiftPKcjS0_jS0_jS0_.cold
     /tmp/ccVNNR5R.s:5664   .text:0000000000001f10 _ZNK22TestFPGALink_testShift7RunImplEv
     /tmp/ccVNNR5R.s:6412   .text.startup:0000000000000000 _GLOBAL__sub_I__Z13testReadBytesP6BufferPKc
     /tmp/ccVNNR5R.s:6808   .bss:0000000000000120 testFPGALink_testReadBytesInstance
     /tmp/ccVNNR5R.s:6802   .bss:0000000000000118 adderFPGALink_testReadBytes
     /tmp/ccVNNR5R.s:6797   .bss:00000000000000e0 testFPGALink_testShiftInstance
     /tmp/ccVNNR5R.s:6791   .bss:00000000000000d8 adderFPGALink_testShift
     /tmp/ccVNNR5R.s:6784   .bss:00000000000000a0 testFPGALink_testParseInstance
     /tmp/ccVNNR5R.s:6778   .bss:0000000000000098 adderFPGALink_testParse
     /tmp/ccVNNR5R.s:6773   .bss:0000000000000060 testFPGALink_testProcessIndexInstance
     /tmp/ccVNNR5R.s:6767   .bss:0000000000000058 adderFPGALink_testProcessIndex
     /tmp/ccVNNR5R.s:6762   .bss:0000000000000020 testFPGALink_testBuildIndexInstance
     /tmp/ccVNNR5R.s:6756   .bss:0000000000000000 adderFPGALink_testBuildIndex
     /tmp/ccVNNR5R.s:6544   .rodata._ZTSN8UnitTest15MemoryOutStreamE:0000000000000000 _ZTSN8UnitTest15MemoryOutStreamE
     /tmp/ccVNNR5R.s:6551   .data.rel.ro._ZTIN8UnitTest15MemoryOutStreamE:0000000000000000 _ZTIN8UnitTest15MemoryOutStreamE
     /tmp/ccVNNR5R.s:6560   .rodata._ZTS26TestFPGALink_testReadBytes:0000000000000000 _ZTS26TestFPGALink_testReadBytes
     /tmp/ccVNNR5R.s:6567   .data.rel.ro._ZTI26TestFPGALink_testReadBytes:0000000000000000 _ZTI26TestFPGALink_testReadBytes
     /tmp/ccVNNR5R.s:6576   .rodata._ZTS22TestFPGALink_testShift:0000000000000000 _ZTS22TestFPGALink_testShift
     /tmp/ccVNNR5R.s:6583   .data.rel.ro._ZTI22TestFPGALink_testShift:0000000000000000 _ZTI22TestFPGALink_testShift
     /tmp/ccVNNR5R.s:6592   .rodata._ZTS22TestFPGALink_testParse:0000000000000000 _ZTS22TestFPGALink_testParse
     /tmp/ccVNNR5R.s:6599   .data.rel.ro._ZTI22TestFPGALink_testParse:0000000000000000 _ZTI22TestFPGALink_testParse
     /tmp/ccVNNR5R.s:6608   .rodata._ZTS29TestFPGALink_testProcessIndex:0000000000000000 _ZTS29TestFPGALink_testProcessIndex
     /tmp/ccVNNR5R.s:6615   .data.rel.ro._ZTI29TestFPGALink_testProcessIndex:0000000000000000 _ZTI29TestFPGALink_testProcessIndex
     /tmp/ccVNNR5R.s:6624   .rodata._ZTS27TestFPGALink_testBuildIndex:0000000000000000 _ZTS27TestFPGALink_testBuildIndex
     /tmp/ccVNNR5R.s:6631   .data.rel.ro._ZTI27TestFPGALink_testBuildIndex:0000000000000000 _ZTI27TestFPGALink_testBuildIndex
     /tmp/ccVNNR5R.s:6674   .data.rel.ro.local._ZTTN8UnitTest15MemoryOutStreamE:0000000000000000 _ZTTN8UnitTest15MemoryOutStreamE
     /tmp/ccVNNR5R.s:733    .rodata.str1.1:0000000000000000 .LC0
     /tmp/ccVNNR5R.s:804    .rodata.str1.1:0000000000000005 .LC1
     /tmp/ccVNNR5R.s:1087   .rodata.str1.1:000000000000000a .LC2
     /tmp/ccVNNR5R.s:1089   .rodata.str1.1:0000000000000016 .LC3
     /tmp/ccVNNR5R.s:1091   .rodata.str1.1:0000000000000024 .LC4
     /tmp/ccVNNR5R.s:1093   .rodata.str1.1:000000000000002e .LC5
     /tmp/ccVNNR5R.s:1105   .rodata.str1.1:0000000000000051 .LC9
     /tmp/ccVNNR5R.s:1103   .rodata.str1.1:0000000000000038 .LC8
     /tmp/ccVNNR5R.s:3007   .rodata.str1.1:0000000000000068 .LC20
     /tmp/ccVNNR5R.s:3009   .rodata.str1.1:000000000000006b .LC21
     /tmp/ccVNNR5R.s:3011   .rodata.str1.1:0000000000000070 .LC22
     /tmp/ccVNNR5R.s:3013   .rodata.str1.1:0000000000000077 .LC23
     /tmp/ccVNNR5R.s:3015   .rodata.str1.1:0000000000000080 .LC24
     /tmp/ccVNNR5R.s:3017   .rodata.str1.1:000000000000008b .LC25
     /tmp/ccVNNR5R.s:3588   .rodata.str1.1:0000000000000098 .LC29
     /tmp/ccVNNR5R.s:3592   .rodata.str1.8:00000000000001d0 .LC30
     /tmp/ccVNNR5R.s:3595   .rodata.str1.1:00000000000000a7 .LC31
     /tmp/ccVNNR5R.s:3599   .rodata.str1.8:0000000000000230 .LC32
     /tmp/ccVNNR5R.s:3602   .rodata.str1.1:00000000000000b7 .LC33
     /tmp/ccVNNR5R.s:3606   .rodata.str1.8:0000000000000290 .LC34
     /tmp/ccVNNR5R.s:6823   .rodata.cst16:0000000000000000 .LC39
     /tmp/ccVNNR5R.s:6827   .rodata.cst16:0000000000000010 .LC40
     /tmp/ccVNNR5R.s:5471   .rodata.str1.1:00000000000000d5 .LC48
     /tmp/ccVNNR5R.s:5473   .rodata.str1.1:00000000000000e0 .LC49
     /tmp/ccVNNR5R.s:5465   .rodata.str1.1:00000000000000c6 .LC45
     /tmp/ccVNNR5R.s:5535   .rodata.str1.1:00000000000001e9 .LC80
     /tmp/ccVNNR5R.s:5483   .rodata.str1.1:0000000000000107 .LC54
     /tmp/ccVNNR5R.s:5469   .rodata.str1.1:00000000000000cc .LC47
     /tmp/ccVNNR5R.s:5531   .rodata.str1.1:00000000000001d5 .LC78
     /tmp/ccVNNR5R.s:5467   .rodata.str1.1:00000000000000c9 .LC46
     /tmp/ccVNNR5R.s:5475   .rodata.str1.1:00000000000000e3 .LC50
     /tmp/ccVNNR5R.s:5477   .rodata.str1.1:00000000000000ee .LC51
     /tmp/ccVNNR5R.s:5479   .rodata.str1.1:00000000000000f1 .LC52
     /tmp/ccVNNR5R.s:5481   .rodata.str1.1:00000000000000fc .LC53
     /tmp/ccVNNR5R.s:5485   .rodata.str1.1:000000000000010a .LC55
     /tmp/ccVNNR5R.s:5489   .rodata.str1.1:0000000000000118 .LC57
     /tmp/ccVNNR5R.s:5487   .rodata.str1.1:0000000000000115 .LC56
     /tmp/ccVNNR5R.s:5493   .rodata.str1.1:0000000000000126 .LC59
     /tmp/ccVNNR5R.s:5491   .rodata.str1.1:0000000000000123 .LC58
     /tmp/ccVNNR5R.s:5497   .rodata.str1.1:0000000000000136 .LC61
     /tmp/ccVNNR5R.s:5495   .rodata.str1.1:0000000000000133 .LC60
     /tmp/ccVNNR5R.s:5501   .rodata.str1.1:0000000000000146 .LC63
     /tmp/ccVNNR5R.s:5499   .rodata.str1.1:0000000000000143 .LC62
     /tmp/ccVNNR5R.s:5505   .rodata.str1.1:0000000000000158 .LC65
     /tmp/ccVNNR5R.s:5503   .rodata.str1.1:0000000000000153 .LC64
     /tmp/ccVNNR5R.s:5509   .rodata.str1.1:000000000000016a .LC67
     /tmp/ccVNNR5R.s:5507   .rodata.str1.1:0000000000000165 .LC66
     /tmp/ccVNNR5R.s:5513   .rodata.str1.1:000000000000017c .LC69
     /tmp/ccVNNR5R.s:5511   .rodata.str1.1:0000000000000177 .LC68
     /tmp/ccVNNR5R.s:5517   .rodata.str1.1:000000000000018e .LC71
     /tmp/ccVNNR5R.s:5515   .rodata.str1.1:0000000000000189 .LC70
     /tmp/ccVNNR5R.s:5521   .rodata.str1.1:00000000000001a0 .LC73
     /tmp/ccVNNR5R.s:5519   .rodata.str1.1:000000000000019b .LC72
     /tmp/ccVNNR5R.s:5525   .rodata.str1.1:00000000000001b2 .LC75
     /tmp/ccVNNR5R.s:5523   .rodata.str1.1:00000000000001ad .LC74
     /tmp/ccVNNR5R.s:5527   .rodata.str1.1:00000000000001c1 .LC76
     /tmp/ccVNNR5R.s:5529   .rodata.str1.1:00000000000001c6 .LC77
     /tmp/ccVNNR5R.s:5533   .rodata.str1.1:00000000000001da .LC79
     /tmp/ccVNNR5R.s:5537   .rodata.str1.1:00000000000001f0 .LC81
     /tmp/ccVNNR5R.s:5539   .rodata.str1.1:00000000000001ff .LC82
     /tmp/ccVNNR5R.s:5541   .rodata.str1.1:000000000000020a .LC83
     /tmp/ccVNNR5R.s:5543   .rodata.str1.1:0000000000000215 .LC84
     /tmp/ccVNNR5R.s:5545   .rodata.str1.1:0000000000000220 .LC85
     /tmp/ccVNNR5R.s:5547   .rodata.str1.1:000000000000022b .LC86
     /tmp/ccVNNR5R.s:5549   .rodata.str1.1:0000000000000236 .LC87
     /tmp/ccVNNR5R.s:5551   .rodata.str1.1:0000000000000243 .LC88
     /tmp/ccVNNR5R.s:5553   .rodata.str1.1:0000000000000250 .LC89
     /tmp/ccVNNR5R.s:5555   .rodata.str1.1:000000000000025d .LC90
     /tmp/ccVNNR5R.s:5557   .rodata.str1.1:000000000000026a .LC91
     /tmp/ccVNNR5R.s:5559   .rodata.str1.1:0000000000000277 .LC92
     /tmp/ccVNNR5R.s:5561   .rodata.str1.1:0000000000000284 .LC93
     /tmp/ccVNNR5R.s:5563   .rodata.str1.1:0000000000000291 .LC94
     /tmp/ccVNNR5R.s:5565   .rodata.str1.1:000000000000029e .LC95
     /tmp/ccVNNR5R.s:5567   .rodata.str1.1:00000000000002ad .LC96
     /tmp/ccVNNR5R.s:5569   .rodata.str1.1:00000000000002bc .LC97
     /tmp/ccVNNR5R.s:5571   .rodata.str1.1:00000000000002cb .LC98
     /tmp/ccVNNR5R.s:5573   .rodata.str1.1:00000000000002da .LC99
     /tmp/ccVNNR5R.s:5577   .rodata.str1.1:00000000000002ee .LC101
     /tmp/ccVNNR5R.s:5575   .rodata.str1.1:00000000000002e9 .LC100
     /tmp/ccVNNR5R.s:5579   .rodata.str1.1:00000000000002fb .LC102
     /tmp/ccVNNR5R.s:5581   .rodata.str1.1:0000000000000308 .LC103
     /tmp/ccVNNR5R.s:5583   .rodata.str1.1:0000000000000315 .LC104
     /tmp/ccVNNR5R.s:5585   .rodata.str1.1:0000000000000322 .LC105
     /tmp/ccVNNR5R.s:5587   .rodata.str1.1:000000000000032f .LC106
     /tmp/ccVNNR5R.s:5589   .rodata.str1.1:000000000000033c .LC107
     /tmp/ccVNNR5R.s:5591   .rodata.str1.1:0000000000000349 .LC108
     /tmp/ccVNNR5R.s:5593   .rodata.str1.1:0000000000000356 .LC109
     /tmp/ccVNNR5R.s:5595   .rodata.str1.1:0000000000000365 .LC110
     /tmp/ccVNNR5R.s:5597   .rodata.str1.1:0000000000000374 .LC111
     /tmp/ccVNNR5R.s:5599   .rodata.str1.1:0000000000000383 .LC112
     /tmp/ccVNNR5R.s:5601   .rodata.str1.1:0000000000000392 .LC113
     /tmp/ccVNNR5R.s:5603   .rodata.str1.1:00000000000003a1 .LC114
     /tmp/ccVNNR5R.s:5605   .rodata.str1.1:00000000000003b0 .LC115
     /tmp/ccVNNR5R.s:5607   .rodata.str1.1:00000000000003bf .LC116
     /tmp/ccVNNR5R.s:5609   .rodata.str1.1:00000000000003ce .LC117
     /tmp/ccVNNR5R.s:5611   .rodata.str1.1:00000000000003df .LC118
     /tmp/ccVNNR5R.s:5613   .rodata.str1.1:00000000000003f0 .LC119
     /tmp/ccVNNR5R.s:5615   .rodata.str1.1:00000000000003f9 .LC120
     /tmp/ccVNNR5R.s:5617   .rodata.str1.1:0000000000000404 .LC121
     /tmp/ccVNNR5R.s:5619   .rodata.str1.1:0000000000000411 .LC122
     /tmp/ccVNNR5R.s:5621   .rodata.str1.1:000000000000041e .LC123
     /tmp/ccVNNR5R.s:5623   .rodata.str1.1:000000000000042b .LC124
     /tmp/ccVNNR5R.s:5625   .rodata.str1.1:0000000000000438 .LC125
     /tmp/ccVNNR5R.s:5627   .rodata.str1.1:0000000000000445 .LC126
     /tmp/ccVNNR5R.s:5629   .rodata.str1.1:0000000000000452 .LC127
     /tmp/ccVNNR5R.s:5631   .rodata.str1.1:000000000000045f .LC128
     /tmp/ccVNNR5R.s:5633   .rodata.str1.1:000000000000046c .LC129
     /tmp/ccVNNR5R.s:5635   .rodata.str1.1:000000000000047b .LC130
     /tmp/ccVNNR5R.s:5637   .rodata.str1.1:000000000000048a .LC131
     /tmp/ccVNNR5R.s:5639   .rodata.str1.1:0000000000000499 .LC132
     /tmp/ccVNNR5R.s:5641   .rodata.str1.1:00000000000004a8 .LC133
     /tmp/ccVNNR5R.s:5643   .rodata.str1.1:00000000000004b7 .LC134
     /tmp/ccVNNR5R.s:5645   .rodata.str1.1:00000000000004c6 .LC135
     /tmp/ccVNNR5R.s:5647   .rodata.str1.1:00000000000004d5 .LC136
     /tmp/ccVNNR5R.s:5651   .rodata.str1.1:00000000000004f5 .LC138
     /tmp/ccVNNR5R.s:5649   .rodata.str1.1:00000000000004e4 .LC137
     /tmp/ccVNNR5R.s:5653   .rodata.str1.1:00000000000004f6 .LC139
     /tmp/ccVNNR5R.s:5655   .rodata.str1.1:000000000000050f .LC140
     /tmp/ccVNNR5R.s:5657   .rodata.str1.1:0000000000000528 .LC141
     /tmp/ccVNNR5R.s:1100   .rodata.str1.8:0000000000000038 .LC7
     /tmp/ccVNNR5R.s:1109   .rodata.str1.8:0000000000000070 .LC10
     /tmp/ccVNNR5R.s:1112   .rodata.str1.8:00000000000000a8 .LC11
     /tmp/ccVNNR5R.s:1097   .rodata.str1.8:0000000000000000 .LC6
     /tmp/ccVNNR5R.s:2238   .rodata.str1.8:0000000000000158 .LC18
     /tmp/ccVNNR5R.s:2235   .rodata.str1.8:0000000000000118 .LC17
     /tmp/ccVNNR5R.s:2232   .rodata.str1.8:00000000000000e0 .LC16
     /tmp/ccVNNR5R.s:3021   .rodata.str1.8:0000000000000190 .LC26
     /tmp/ccVNNR5R.s:3615   .rodata.str1.8:0000000000000440 .LC37
     /tmp/ccVNNR5R.s:3612   .rodata.str1.8:0000000000000398 .LC36
     /tmp/ccVNNR5R.s:3609   .rodata.str1.8:00000000000002f0 .LC35
     /tmp/ccVNNR5R.s:4466   .rodata.str1.8:0000000000000538 .LC43
     /tmp/ccVNNR5R.s:4463   .rodata.str1.8:00000000000004e8 .LC42
     /tmp/ccVNNR5R.s:6399   .rodata.str1.1:000000000000055f .LC144
     /tmp/ccVNNR5R.s:6395   .rodata.str1.1:0000000000000541 .LC142
     /tmp/ccVNNR5R.s:6397   .rodata.str1.1:0000000000000552 .LC143
     /tmp/ccVNNR5R.s:6401   .rodata.str1.1:0000000000000576 .LC145
     /tmp/ccVNNR5R.s:6403   .rodata.str1.1:0000000000000589 .LC146
     /tmp/ccVNNR5R.s:6405   .rodata.str1.1:000000000000059c .LC147
     /tmp/ccVNNR5R.s:6407   .rodata.str1.1:00000000000005b6 .LC148
                           .group:0000000000000000 _ZN27TestFPGALink_testBuildIndexD5Ev
                           .group:0000000000000000 _ZN29TestFPGALink_testProcessIndexD5Ev
                           .group:0000000000000000 _ZN22TestFPGALink_testParseD5Ev
                           .group:0000000000000000 _ZN22TestFPGALink_testShiftD5Ev
                           .group:0000000000000000 _ZN26TestFPGALink_testReadBytesD5Ev
                           .group:0000000000000000 _ZNSt7__cxx1115basic_stringbufIcSt11char_traitsIcESaIcEED5Ev

UNDEFINED SYMBOLS
_ZN8UnitTest4TestD2Ev
_ZdlPv
_Unwind_Resume
__gxx_personality_v0
_ZTVNSt7__cxx1115basic_stringbufIcSt11char_traitsIcESaIcEEE
_ZTVSt15basic_streambufIcSt11char_traitsIcEE
_ZNSt6localeD1Ev
_ZTVSt9basic_iosIcSt11char_traitsIcEE
_ZNSt8ios_baseD2Ev
__sprintf_chk
strlen
__stack_chk_fail
__printf_chk
processIndex
getCmdName
_ZN8UnitTest11CurrentTest7DetailsEv
_ZN8UnitTest11TestDetailsC1ERKS0_i
_ZN8UnitTest11CurrentTest7ResultsEv
_ZN8UnitTest10CheckEqualERNS_11TestResultsEPKcS3_RKNS_11TestDetailsE
readLongBE
_ZNSt8ios_baseC2Ev
_ZNSt9basic_iosIcSt11char_traitsIcEE4initEPSt15basic_streambufIcS1_E
_ZNSt6localeC1Ev
_ZSt16__ostream_insertIcSt11char_traitsIcEERSt13basic_ostreamIT_T0_ES6_PKS3_l
_ZNSo9_M_insertImEERSoT_
_ZNK8UnitTest15MemoryOutStream7GetTextEv
_ZN8UnitTest11TestResults13OnTestFailureERKNS_11TestDetailsEPKc
__cxa_begin_catch
__cxa_end_catch
_ZNSolsEi
bufZeroLength
readBytes
_ZN8UnitTest10CheckEqualERNS_11TestResultsEPKcPcRKNS_11TestDetailsE
bufInitialise
bufDestroy
bufAppendBlock
parseLine
cxtInitialise
cxtDestroy
buildIndex
headTail
__dso_handle
_ZN8UnitTest4TestC2EPKcS2_S2_i
__cxa_atexit
_ZN8UnitTest4Test11GetTestListEv
_ZN8UnitTest9ListAdderC1ERNS_8TestListEPNS_4TestE
_ZTVN10__cxxabiv120__si_class_type_infoE
_ZTINSt7__cxx1119basic_ostringstreamIcSt11char_traitsIcESaIcEEE
_ZTIN8UnitTest4TestE
_ZTISo
