   1              		.file	"main.c"
   2              		.text
   3              		.section	.rodata.str1.1,"aMS",@progbits,1
   4              	.LC0:
   5 0000 31643530 		.string	"1d50:602b"
   5      3A363032 
   5      6200
   6              	.LC1:
   7 000a 25730A00 		.string	"%s\n"
   8              		.text
   9              		.p2align 4
  10              		.globl	bufferRead
  12              	bufferRead:
  13              	.LFB40:
  14              		.cfi_startproc
  15 0000 F30F1EFA 		endbr64
  16 0004 4155     		pushq	%r13
  17              		.cfi_def_cfa_offset 16
  18              		.cfi_offset 13, -16
  19 0006 31FF     		xorl	%edi, %edi
  20 0008 4154     		pushq	%r12
  21              		.cfi_def_cfa_offset 24
  22              		.cfi_offset 12, -24
  23 000a 41BC0100 		movl	$1, %r12d
  23      0000
  24 0010 55       		pushq	%rbp
  25              		.cfi_def_cfa_offset 32
  26              		.cfi_offset 6, -32
  27 0011 4883EC40 		subq	$64, %rsp
  28              		.cfi_def_cfa_offset 96
  29 0015 64488B04 		movq	%fs:40, %rax
  29      25280000 
  29      00
  30 001e 48894424 		movq	%rax, 56(%rsp)
  30      38
  31 0023 31C0     		xorl	%eax, %eax
  32 0025 4C8D6C24 		leaq	16(%rsp), %r13
  32      10
  33 002a 48C74424 		movq	$0, 8(%rsp)
  33      08000000 
  33      00
  34 0033 48C74424 		movq	$0, 16(%rsp)
  34      10000000 
  34      00
  35 003c 4C89EE   		movq	%r13, %rsi
  36 003f E8000000 		call	usbInitialise@PLT
  36      00
  37 0044 85C0     		testl	%eax, %eax
  38 0046 7460     		je	.L17
  39              	.L2:
  40 0048 488B7C24 		movq	8(%rsp), %rdi
  40      08
  41 004d 31F6     		xorl	%esi, %esi
  42 004f E8000000 		call	usbCloseDevice@PLT
  42      00
  43 0054 488B4C24 		movq	16(%rsp), %rcx
  43      10
  44 0059 4885C9   		testq	%rcx, %rcx
  45 005c 7424     		je	.L1
  46 005e 488B3D00 		movq	stderr(%rip), %rdi
  46      000000
  47 0065 488D1500 		leaq	.LC1(%rip), %rdx
  47      000000
  48 006c BE010000 		movl	$1, %esi
  48      00
  49 0071 31C0     		xorl	%eax, %eax
  50 0073 E8000000 		call	__fprintf_chk@PLT
  50      00
  51 0078 488B7C24 		movq	16(%rsp), %rdi
  51      10
  52 007d E8000000 		call	usbFreeError@PLT
  52      00
  53              	.L1:
  54 0082 488B4424 		movq	56(%rsp), %rax
  54      38
  55 0087 64482B04 		subq	%fs:40, %rax
  55      25280000 
  55      00
  56 0090 0F853A02 		jne	.L18
  56      0000
  57 0096 4883C440 		addq	$64, %rsp
  58              		.cfi_remember_state
  59              		.cfi_def_cfa_offset 32
  60 009a 4489E0   		movl	%r12d, %eax
  61 009d 5D       		popq	%rbp
  62              		.cfi_def_cfa_offset 24
  63 009e 415C     		popq	%r12
  64              		.cfi_def_cfa_offset 16
  65 00a0 415D     		popq	%r13
  66              		.cfi_def_cfa_offset 8
  67 00a2 C3       		ret
  68              		.p2align 4,,10
  69 00a3 0F1F4400 		.p2align 3
  69      00
  70              	.L17:
  71              		.cfi_restore_state
  72 00a8 4D89E9   		movq	%r13, %r9
  73 00ab 4C8D4424 		leaq	8(%rsp), %r8
  73      08
  74 00b0 31C9     		xorl	%ecx, %ecx
  75 00b2 31D2     		xorl	%edx, %edx
  76 00b4 BE010000 		movl	$1, %esi
  76      00
  77 00b9 488D3D00 		leaq	.LC0(%rip), %rdi
  77      000000
  78 00c0 41BC0200 		movl	$2, %r12d
  78      0000
  79 00c6 E8000000 		call	usbOpenDevice@PLT
  79      00
  80 00cb 85C0     		testl	%eax, %eax
  81 00cd 0F8575FF 		jne	.L2
  81      FFFF
  82 00d3 4155     		pushq	%r13
  83              		.cfi_def_cfa_offset 104
  84 00d5 B9010000 		movl	$1, %ecx
  84      00
  85 00da 31D2     		xorl	%edx, %edx
  86 00dc 4531C9   		xorl	%r9d, %r9d
  87 00df 68E80300 		pushq	$1000
  87      00
  88              		.cfi_def_cfa_offset 112
  89 00e4 488B7C24 		movq	24(%rsp), %rdi
  89      18
  90 00e9 4531C0   		xorl	%r8d, %r8d
  91 00ec BE800000 		movl	$128, %esi
  91      00
  92 00f1 41BC0300 		movl	$3, %r12d
  92      0000
  93 00f7 E8000000 		call	usbControlWrite@PLT
  93      00
  94 00fc 5A       		popq	%rdx
  95              		.cfi_def_cfa_offset 104
  96 00fd 59       		popq	%rcx
  97              		.cfi_def_cfa_offset 96
  98 00fe 85C0     		testl	%eax, %eax
  99 0100 0F8542FF 		jne	.L2
  99      FFFF
 100 0106 488B7C24 		movq	8(%rsp), %rdi
 100      08
 101 010b 488D7424 		leaq	24(%rsp), %rsi
 101      18
 102 0110 4C89EA   		movq	%r13, %rdx
 103 0113 41BC0400 		movl	$4, %r12d
 103      0000
 104 0119 E8000000 		call	usbBulkWriteAsyncPrepare@PLT
 104      00
 105 011e 85C0     		testl	%eax, %eax
 106 0120 0F8522FF 		jne	.L2
 106      FFFF
 107 0126 488B4424 		movq	24(%rsp), %rax
 107      18
 108 012b 488D3500 		leaq	randomData(%rip), %rsi
 108      000000
 109 0132 41BC0500 		movl	$5, %r12d
 109      0000
 110 0138 488D5001 		leaq	1(%rax), %rdx
 111 013c 48895424 		movq	%rdx, 24(%rsp)
 111      18
 112 0141 C60000   		movb	$0, (%rax)
 113 0144 488B5424 		movq	24(%rsp), %rdx
 113      18
 114 0149 488D4A01 		leaq	1(%rdx), %rcx
 115 014d 48894C24 		movq	%rcx, 24(%rsp)
 115      18
 116 0152 C60200   		movb	$0, (%rdx)
 117 0155 488B5424 		movq	24(%rsp), %rdx
 117      18
 118 015a 488D4A01 		leaq	1(%rdx), %rcx
 119 015e 48894C24 		movq	%rcx, 24(%rsp)
 119      18
 120 0163 C60200   		movb	$0, (%rdx)
 121 0166 488B5424 		movq	24(%rsp), %rdx
 121      18
 122 016b 488D4A01 		leaq	1(%rdx), %rcx
 123 016f 48894C24 		movq	%rcx, 24(%rsp)
 123      18
 124 0174 C60210   		movb	$16, (%rdx)
 125 0177 488B5424 		movq	24(%rsp), %rdx
 125      18
 126 017c 488D4A01 		leaq	1(%rdx), %rcx
 127 0180 48894C24 		movq	%rcx, 24(%rsp)
 127      18
 128 0185 C60200   		movb	$0, (%rdx)
 129 0188 488B1500 		movq	randomData(%rip), %rdx
 129      000000
 130 018f 488B4C24 		movq	24(%rsp), %rcx
 130      18
 131 0194 488911   		movq	%rdx, (%rcx)
 132 0197 488D7908 		leaq	8(%rcx), %rdi
 133 019b 488B1500 		movq	4088+randomData(%rip), %rdx
 133      000000
 134 01a2 4883E7F8 		andq	$-8, %rdi
 135 01a6 488991F8 		movq	%rdx, 4088(%rcx)
 135      0F0000
 136 01ad 4829F9   		subq	%rdi, %rcx
 137 01b0 488B1500 		movq	4096+randomData(%rip), %rdx
 137      000000
 138 01b7 4829CE   		subq	%rcx, %rsi
 139 01ba 81C10010 		addl	$4096, %ecx
 139      0000
 140 01c0 C1E903   		shrl	$3, %ecx
 141 01c3 F348A5   		rep movsq
 142 01c6 488D3500 		leaq	4096+randomData(%rip), %rsi
 142      000000
 143 01cd 4C8B4424 		movq	24(%rsp), %r8
 143      18
 144 01d2 498DB80D 		leaq	4109(%r8), %rdi
 144      100000
 145 01d9 49899005 		movq	%rdx, 4101(%r8)
 145      100000
 146 01e0 498D8805 		leaq	4101(%r8), %rcx
 146      100000
 147 01e7 488B1500 		movq	8184+randomData(%rip), %rdx
 147      000000
 148 01ee 4883E7F8 		andq	$-8, %rdi
 149 01f2 41C68004 		movb	$0, 4100(%r8)
 149      10000000 
 150 01fa 4829F9   		subq	%rdi, %rcx
 151 01fd 498990FD 		movq	%rdx, 8189(%r8)
 151      1F0000
 152 0204 498D900A 		leaq	8202(%r8), %rdx
 152      200000
 153 020b 41C78000 		movl	$268435456, 4096(%r8)
 153      10000000 
 153      000010
 154 0216 4829CE   		subq	%rcx, %rsi
 155 0219 81C10010 		addl	$4096, %ecx
 155      0000
 156 021f C1E903   		shrl	$3, %ecx
 157 0222 F348A5   		rep movsq
 158 0225 48895424 		movq	%rdx, 24(%rsp)
 158      18
 159 022a B9E80300 		movl	$1000, %ecx
 159      00
 160 022f 29C2     		subl	%eax, %edx
 161 0231 41C78005 		movl	$268435584, 8197(%r8)
 161      20000080 
 161      000010
 162 023c 488B7C24 		movq	8(%rsp), %rdi
 162      08
 163 0241 BE020000 		movl	$2, %esi
 163      00
 164 0246 41C68009 		movb	$0, 8201(%r8)
 164      20000000 
 165 024e 4D89E8   		movq	%r13, %r8
 166 0251 E8000000 		call	usbBulkWriteAsyncSubmit@PLT
 166      00
 167 0256 85C0     		testl	%eax, %eax
 168 0258 0F85EAFD 		jne	.L2
 168      FFFF
 169 025e 488B7C24 		movq	8(%rsp), %rdi
 169      08
 170 0263 4D89E9   		movq	%r13, %r9
 171 0266 41B82823 		movl	$9000, %r8d
 171      0000
 172 026c 31D2     		xorl	%edx, %edx
 173 026e B9001000 		movl	$4096, %ecx
 173      00
 174 0273 BE060000 		movl	$6, %esi
 174      00
 175 0278 41BC0600 		movl	$6, %r12d
 175      0000
 176 027e E8000000 		call	usbBulkReadAsync@PLT
 176      00
 177 0283 85C0     		testl	%eax, %eax
 178 0285 0F85BDFD 		jne	.L2
 178      FFFF
 179 028b 488B7C24 		movq	8(%rsp), %rdi
 179      08
 180 0290 488D6C24 		leaq	32(%rsp), %rbp
 180      20
 181 0295 4C89EA   		movq	%r13, %rdx
 182 0298 41BC0700 		movl	$7, %r12d
 182      0000
 183 029e 4889EE   		movq	%rbp, %rsi
 184 02a1 E8000000 		call	usbBulkAwaitCompletion@PLT
 184      00
 185 02a6 85C0     		testl	%eax, %eax
 186 02a8 0F859AFD 		jne	.L2
 186      FFFF
 187 02ae 488B7C24 		movq	8(%rsp), %rdi
 187      08
 188 02b3 4C89EA   		movq	%r13, %rdx
 189 02b6 4889EE   		movq	%rbp, %rsi
 190 02b9 4531E4   		xorl	%r12d, %r12d
 191 02bc E8000000 		call	usbBulkAwaitCompletion@PLT
 191      00
 192 02c1 85C0     		testl	%eax, %eax
 193 02c3 410F95C4 		setne	%r12b
 194 02c7 41C1E403 		sall	$3, %r12d
 195 02cb E978FDFF 		jmp	.L2
 195      FF
 196              	.L18:
 197 02d0 E8000000 		call	__stack_chk_fail@PLT
 197      00
 198              		.cfi_endproc
 199              	.LFE40:
 201 02d5 66662E0F 		.p2align 4
 201      1F840000 
 201      000000
 202              		.globl	multiRead
 204              	multiRead:
 205              	.LFB41:
 206              		.cfi_startproc
 207 02e0 F30F1EFA 		endbr64
 208 02e4 4157     		pushq	%r15
 209              		.cfi_def_cfa_offset 16
 210              		.cfi_offset 15, -16
 211 02e6 4156     		pushq	%r14
 212              		.cfi_def_cfa_offset 24
 213              		.cfi_offset 14, -24
 214 02e8 4155     		pushq	%r13
 215              		.cfi_def_cfa_offset 32
 216              		.cfi_offset 13, -32
 217 02ea 41BD0100 		movl	$1, %r13d
 217      0000
 218 02f0 4154     		pushq	%r12
 219              		.cfi_def_cfa_offset 40
 220              		.cfi_offset 12, -40
 221 02f2 55       		pushq	%rbp
 222              		.cfi_def_cfa_offset 48
 223              		.cfi_offset 6, -48
 224 02f3 89FD     		movl	%edi, %ebp
 225 02f5 31FF     		xorl	%edi, %edi
 226 02f7 53       		pushq	%rbx
 227              		.cfi_def_cfa_offset 56
 228              		.cfi_offset 3, -56
 229 02f8 89F3     		movl	%esi, %ebx
 230 02fa 4883EC78 		subq	$120, %rsp
 231              		.cfi_def_cfa_offset 176
 232 02fe 48895424 		movq	%rdx, 8(%rsp)
 232      08
 233 0303 4C8D6424 		leaq	24(%rsp), %r12
 233      18
 234 0308 64488B04 		movq	%fs:40, %rax
 234      25280000 
 234      00
 235 0311 48894424 		movq	%rax, 104(%rsp)
 235      68
 236 0316 31C0     		xorl	%eax, %eax
 237 0318 89F0     		movl	%esi, %eax
 238 031a 4C89E6   		movq	%r12, %rsi
 239 031d C6442463 		movb	$-128, 99(%rsp)
 239      80
 240 0322 48C74424 		movq	$0, 16(%rsp)
 240      10000000 
 240      00
 241 032b 0FC8     		bswap	%eax
 242 032d 48C74424 		movq	$0, 24(%rsp)
 242      18000000 
 242      00
 243 0336 89442464 		movl	%eax, 100(%rsp)
 244 033a E8000000 		call	usbInitialise@PLT
 244      00
 245 033f 85C0     		testl	%eax, %eax
 246 0341 7465     		je	.L46
 247              	.L20:
 248 0343 488B7C24 		movq	16(%rsp), %rdi
 248      10
 249 0348 31F6     		xorl	%esi, %esi
 250 034a E8000000 		call	usbCloseDevice@PLT
 250      00
 251 034f 488B4C24 		movq	24(%rsp), %rcx
 251      18
 252 0354 4885C9   		testq	%rcx, %rcx
 253 0357 7424     		je	.L19
 254 0359 488B3D00 		movq	stderr(%rip), %rdi
 254      000000
 255 0360 488D1500 		leaq	.LC1(%rip), %rdx
 255      000000
 256 0367 BE010000 		movl	$1, %esi
 256      00
 257 036c 31C0     		xorl	%eax, %eax
 258 036e E8000000 		call	__fprintf_chk@PLT
 258      00
 259 0373 488B7C24 		movq	24(%rsp), %rdi
 259      18
 260 0378 E8000000 		call	usbFreeError@PLT
 260      00
 261              	.L19:
 262 037d 488B4424 		movq	104(%rsp), %rax
 262      68
 263 0382 64482B04 		subq	%fs:40, %rax
 263      25280000 
 263      00
 264 038b 0F85D102 		jne	.L47
 264      0000
 265 0391 4883C478 		addq	$120, %rsp
 266              		.cfi_remember_state
 267              		.cfi_def_cfa_offset 56
 268 0395 4489E8   		movl	%r13d, %eax
 269 0398 5B       		popq	%rbx
 270              		.cfi_def_cfa_offset 48
 271 0399 5D       		popq	%rbp
 272              		.cfi_def_cfa_offset 40
 273 039a 415C     		popq	%r12
 274              		.cfi_def_cfa_offset 32
 275 039c 415D     		popq	%r13
 276              		.cfi_def_cfa_offset 24
 277 039e 415E     		popq	%r14
 278              		.cfi_def_cfa_offset 16
 279 03a0 415F     		popq	%r15
 280              		.cfi_def_cfa_offset 8
 281 03a2 C3       		ret
 282              		.p2align 4,,10
 283 03a3 0F1F4400 		.p2align 3
 283      00
 284              	.L46:
 285              		.cfi_restore_state
 286 03a8 4D89E1   		movq	%r12, %r9
 287 03ab 4C8D4424 		leaq	16(%rsp), %r8
 287      10
 288 03b0 31C9     		xorl	%ecx, %ecx
 289 03b2 31D2     		xorl	%edx, %edx
 290 03b4 BE010000 		movl	$1, %esi
 290      00
 291 03b9 488D3D00 		leaq	.LC0(%rip), %rdi
 291      000000
 292 03c0 41BD0200 		movl	$2, %r13d
 292      0000
 293 03c6 E8000000 		call	usbOpenDevice@PLT
 293      00
 294 03cb 85C0     		testl	%eax, %eax
 295 03cd 0F8570FF 		jne	.L20
 295      FFFF
 296 03d3 4154     		pushq	%r12
 297              		.cfi_def_cfa_offset 184
 298 03d5 B9010000 		movl	$1, %ecx
 298      00
 299 03da 31D2     		xorl	%edx, %edx
 300 03dc 4531C9   		xorl	%r9d, %r9d
 301 03df 68E80300 		pushq	$1000
 301      00
 302              		.cfi_def_cfa_offset 192
 303 03e4 488B7C24 		movq	32(%rsp), %rdi
 303      20
 304 03e9 4531C0   		xorl	%r8d, %r8d
 305 03ec BE800000 		movl	$128, %esi
 305      00
 306 03f1 41BD0300 		movl	$3, %r13d
 306      0000
 307 03f7 E8000000 		call	usbControlWrite@PLT
 307      00
 308 03fc 5A       		popq	%rdx
 309              		.cfi_def_cfa_offset 184
 310 03fd 59       		popq	%rcx
 311              		.cfi_def_cfa_offset 176
 312 03fe 85C0     		testl	%eax, %eax
 313 0400 0F853DFF 		jne	.L20
 313      FFFF
 314 0406 488D7C24 		leaq	32(%rsp), %rdi
 314      20
 315 040b 31F6     		xorl	%esi, %esi
 316 040d 4C8D7424 		leaq	99(%rsp), %r14
 316      63
 317 0412 41BD0400 		movl	$4, %r13d
 317      0000
 318 0418 E8000000 		call	gettimeofday@PLT
 318      00
 319 041d 488B7C24 		movq	16(%rsp), %rdi
 319      10
 320 0422 4D89E1   		movq	%r12, %r9
 321 0425 4C89F2   		movq	%r14, %rdx
 322 0428 41B82823 		movl	$9000, %r8d
 322      0000
 323 042e B9050000 		movl	$5, %ecx
 323      00
 324 0433 BE020000 		movl	$2, %esi
 324      00
 325 0438 E8000000 		call	usbBulkWriteAsync@PLT
 325      00
 326 043d 85C0     		testl	%eax, %eax
 327 043f 0F85FEFE 		jne	.L20
 327      FFFF
 328 0445 488B7C24 		movq	16(%rsp), %rdi
 328      10
 329 044a 4D89E1   		movq	%r12, %r9
 330 044d 41B82823 		movl	$9000, %r8d
 330      0000
 331 0453 89D9     		movl	%ebx, %ecx
 332 0455 31D2     		xorl	%edx, %edx
 333 0457 BE060000 		movl	$6, %esi
 333      00
 334 045c 41BD0500 		movl	$5, %r13d
 334      0000
 335 0462 E8000000 		call	usbBulkReadAsync@PLT
 335      00
 336 0467 85C0     		testl	%eax, %eax
 337 0469 0F85D4FE 		jne	.L20
 337      FFFF
 338 046f 488B7C24 		movq	16(%rsp), %rdi
 338      10
 339 0474 4D89E1   		movq	%r12, %r9
 340 0477 B9050000 		movl	$5, %ecx
 340      00
 341 047c 4C89F2   		movq	%r14, %rdx
 342 047f 41B82823 		movl	$9000, %r8d
 342      0000
 343 0485 BE020000 		movl	$2, %esi
 343      00
 344 048a 41BD0600 		movl	$6, %r13d
 344      0000
 345 0490 E8000000 		call	usbBulkWriteAsync@PLT
 345      00
 346 0495 85C0     		testl	%eax, %eax
 347 0497 0F85A6FE 		jne	.L20
 347      FFFF
 348 049d 488B7C24 		movq	16(%rsp), %rdi
 348      10
 349 04a2 4D89E1   		movq	%r12, %r9
 350 04a5 41B82823 		movl	$9000, %r8d
 350      0000
 351 04ab 89D9     		movl	%ebx, %ecx
 352 04ad 31D2     		xorl	%edx, %edx
 353 04af BE060000 		movl	$6, %esi
 353      00
 354 04b4 41BD0700 		movl	$7, %r13d
 354      0000
 355 04ba E8000000 		call	usbBulkReadAsync@PLT
 355      00
 356 04bf 85C0     		testl	%eax, %eax
 357 04c1 0F857CFE 		jne	.L20
 357      FFFF
 358 04c7 4189ED   		movl	%ebp, %r13d
 359 04ca 4C8D7C24 		leaq	64(%rsp), %r15
 359      40
 360 04cf EB7C     		jmp	.L21
 361              		.p2align 4,,10
 362 04d1 0F1F8000 		.p2align 3
 362      000000
 363              	.L22:
 364 04d8 E8000000 		call	usbBulkAwaitCompletion@PLT
 364      00
 365 04dd 85C0     		testl	%eax, %eax
 366 04df 0F855101 		jne	.L34
 366      0000
 367 04e5 488B7C24 		movq	16(%rsp), %rdi
 367      10
 368 04ea 4C89E2   		movq	%r12, %rdx
 369 04ed 4C89FE   		movq	%r15, %rsi
 370 04f0 E8000000 		call	usbBulkAwaitCompletion@PLT
 370      00
 371 04f5 85C0     		testl	%eax, %eax
 372 04f7 0F854401 		jne	.L35
 372      0000
 373 04fd 488B7C24 		movq	16(%rsp), %rdi
 373      10
 374 0502 4D89E1   		movq	%r12, %r9
 375 0505 B9050000 		movl	$5, %ecx
 375      00
 376 050a 4C89F2   		movq	%r14, %rdx
 377 050d 41B82823 		movl	$9000, %r8d
 377      0000
 378 0513 BE020000 		movl	$2, %esi
 378      00
 379 0518 E8000000 		call	usbBulkWriteAsync@PLT
 379      00
 380 051d 85C0     		testl	%eax, %eax
 381 051f 0F852701 		jne	.L36
 381      0000
 382 0525 488B7C24 		movq	16(%rsp), %rdi
 382      10
 383 052a 4D89E1   		movq	%r12, %r9
 384 052d 41B82823 		movl	$9000, %r8d
 384      0000
 385 0533 89D9     		movl	%ebx, %ecx
 386 0535 31D2     		xorl	%edx, %edx
 387 0537 BE060000 		movl	$6, %esi
 387      00
 388 053c 4183ED01 		subl	$1, %r13d
 389 0540 E8000000 		call	usbBulkReadAsync@PLT
 389      00
 390 0545 85C0     		testl	%eax, %eax
 391 0547 0F850A01 		jne	.L37
 391      0000
 392              	.L21:
 393 054d 488B7C24 		movq	16(%rsp), %rdi
 393      10
 394 0552 4C89E2   		movq	%r12, %rdx
 395 0555 4C89FE   		movq	%r15, %rsi
 396 0558 4585ED   		testl	%r13d, %r13d
 397 055b 0F8577FF 		jne	.L22
 397      FFFF
 398 0561 E8000000 		call	usbBulkAwaitCompletion@PLT
 398      00
 399 0566 41BD0C00 		movl	$12, %r13d
 399      0000
 400 056c 85C0     		testl	%eax, %eax
 401 056e 0F85CFFD 		jne	.L20
 401      FFFF
 402 0574 488B7C24 		movq	16(%rsp), %rdi
 402      10
 403 0579 4C89E2   		movq	%r12, %rdx
 404 057c 4C89FE   		movq	%r15, %rsi
 405 057f 41BD0D00 		movl	$13, %r13d
 405      0000
 406 0585 E8000000 		call	usbBulkAwaitCompletion@PLT
 406      00
 407 058a 85C0     		testl	%eax, %eax
 408 058c 0F85B1FD 		jne	.L20
 408      FFFF
 409 0592 488B7C24 		movq	16(%rsp), %rdi
 409      10
 410 0597 4C89E2   		movq	%r12, %rdx
 411 059a 4C89FE   		movq	%r15, %rsi
 412 059d 41BD0E00 		movl	$14, %r13d
 412      0000
 413 05a3 E8000000 		call	usbBulkAwaitCompletion@PLT
 413      00
 414 05a8 85C0     		testl	%eax, %eax
 415 05aa 0F8593FD 		jne	.L20
 415      FFFF
 416 05b0 488B7C24 		movq	16(%rsp), %rdi
 416      10
 417 05b5 4C89E2   		movq	%r12, %rdx
 418 05b8 4C89FE   		movq	%r15, %rsi
 419 05bb 41BD0F00 		movl	$15, %r13d
 419      0000
 420 05c1 E8000000 		call	usbBulkAwaitCompletion@PLT
 420      00
 421 05c6 85C0     		testl	%eax, %eax
 422 05c8 0F8575FD 		jne	.L20
 422      FFFF
 423 05ce 488D7C24 		leaq	48(%rsp), %rdi
 423      30
 424 05d3 31F6     		xorl	%esi, %esi
 425 05d5 4531ED   		xorl	%r13d, %r13d
 426 05d8 E8000000 		call	gettimeofday@PLT
 426      00
 427 05dd 660FEFC0 		pxor	%xmm0, %xmm0
 428 05e1 660FEFC9 		pxor	%xmm1, %xmm1
 429 05e5 48695424 		imulq	$1000000, 32(%rsp), %rdx
 429      2040420F 
 429      00
 430 05ee 48035424 		addq	40(%rsp), %rdx
 430      28
 431 05f3 48694424 		imulq	$1000000, 48(%rsp), %rax
 431      3040420F 
 431      00
 432 05fc 48034424 		addq	56(%rsp), %rax
 432      38
 433 0601 4829D0   		subq	%rdx, %rax
 434 0604 F2480F2A 		cvtsi2sdq	%rax, %xmm0
 434      C0
 435 0609 8D4502   		leal	2(%rbp), %eax
 436 060c F20F5E05 		divsd	.LC2(%rip), %xmm0
 436      00000000 
 437 0614 F20F5905 		mulsd	.LC3(%rip), %xmm0
 437      00000000 
 438 061c 0FAFC3   		imull	%ebx, %eax
 439 061f F2480F2A 		cvtsi2sdq	%rax, %xmm1
 439      C8
 440 0624 488B4424 		movq	8(%rsp), %rax
 440      08
 441 0629 F20F5EC8 		divsd	%xmm0, %xmm1
 442 062d F20F1108 		movsd	%xmm1, (%rax)
 443 0631 E90DFDFF 		jmp	.L20
 443      FF
 444              	.L34:
 445 0636 41BD0800 		movl	$8, %r13d
 445      0000
 446 063c E902FDFF 		jmp	.L20
 446      FF
 447              	.L35:
 448 0641 41BD0900 		movl	$9, %r13d
 448      0000
 449 0647 E9F7FCFF 		jmp	.L20
 449      FF
 450              	.L36:
 451 064c 41BD0A00 		movl	$10, %r13d
 451      0000
 452 0652 E9ECFCFF 		jmp	.L20
 452      FF
 453              	.L37:
 454 0657 41BD0B00 		movl	$11, %r13d
 454      0000
 455 065d E9E1FCFF 		jmp	.L20
 455      FF
 456              	.L47:
 457 0662 E8000000 		call	__stack_chk_fail@PLT
 457      00
 458              		.cfi_endproc
 459              	.LFE41:
 461              		.section	.rodata.str1.8,"aMS",@progbits,1
 462              		.align 8
 463              	.LC4:
 464 0000 53796E6F 		.string	"Synopsis: example <reqCount> <reqSize>\n"
 464      70736973 
 464      3A206578 
 464      616D706C 
 464      65203C72 
 465              		.align 8
 466              	.LC5:
 467 0028 6578616D 		.string	"example: Please ensure reqCount>=2\n"
 467      706C653A 
 467      20506C65 
 467      61736520 
 467      656E7375 
 468 004c 00000000 		.align 8
 469              	.LC6:
 470 0050 6578616D 		.string	"example: Please ensure 1024<=reqSize<=65536\n"
 470      706C653A 
 470      20506C65 
 470      61736520 
 470      656E7375 
 471              		.section	.rodata.str1.1
 472              	.LC7:
 473 000e 25642C25 		.string	"%d,%0.3f\n"
 473      302E3366 
 473      0A00
 474              		.section	.text.startup,"ax",@progbits
 475              		.p2align 4
 476              		.globl	main
 478              	main:
 479              	.LFB42:
 480              		.cfi_startproc
 481 0000 F30F1EFA 		endbr64
 482 0004 4155     		pushq	%r13
 483              		.cfi_def_cfa_offset 16
 484              		.cfi_offset 13, -16
 485 0006 4154     		pushq	%r12
 486              		.cfi_def_cfa_offset 24
 487              		.cfi_offset 12, -24
 488 0008 55       		pushq	%rbp
 489              		.cfi_def_cfa_offset 32
 490              		.cfi_offset 6, -32
 491 0009 53       		pushq	%rbx
 492              		.cfi_def_cfa_offset 40
 493              		.cfi_offset 3, -40
 494 000a 4883EC18 		subq	$24, %rsp
 495              		.cfi_def_cfa_offset 64
 496 000e 64488B04 		movq	%fs:40, %rax
 496      25280000 
 496      00
 497 0017 48894424 		movq	%rax, 8(%rsp)
 497      08
 498 001c 31C0     		xorl	%eax, %eax
 499 001e 83FF03   		cmpl	$3, %edi
 500 0021 7440     		je	.L49
 501 0023 488B3D00 		movq	stderr(%rip), %rdi
 501      000000
 502 002a 488D1500 		leaq	.LC4(%rip), %rdx
 502      000000
 503 0031 BE010000 		movl	$1, %esi
 503      00
 504 0036 41BC0100 		movl	$1, %r12d
 504      0000
 505 003c E8000000 		call	__fprintf_chk@PLT
 505      00
 506              	.L48:
 507 0041 488B4424 		movq	8(%rsp), %rax
 507      08
 508 0046 64482B04 		subq	%fs:40, %rax
 508      25280000 
 508      00
 509 004f 0F85CA00 		jne	.L55
 509      0000
 510 0055 4883C418 		addq	$24, %rsp
 511              		.cfi_remember_state
 512              		.cfi_def_cfa_offset 40
 513 0059 4489E0   		movl	%r12d, %eax
 514 005c 5B       		popq	%rbx
 515              		.cfi_def_cfa_offset 32
 516 005d 5D       		popq	%rbp
 517              		.cfi_def_cfa_offset 24
 518 005e 415C     		popq	%r12
 519              		.cfi_def_cfa_offset 16
 520 0060 415D     		popq	%r13
 521              		.cfi_def_cfa_offset 8
 522 0062 C3       		ret
 523              	.L49:
 524              		.cfi_restore_state
 525 0063 488B7E08 		movq	8(%rsi), %rdi
 526 0067 4889F3   		movq	%rsi, %rbx
 527 006a BA0A0000 		movl	$10, %edx
 527      00
 528 006f 31F6     		xorl	%esi, %esi
 529 0071 E8000000 		call	strtoul@PLT
 529      00
 530 0076 4889C5   		movq	%rax, %rbp
 531 0079 83F801   		cmpl	$1, %eax
 532 007c 7657     		jbe	.L56
 533 007e 488B7B10 		movq	16(%rbx), %rdi
 534 0082 BA0A0000 		movl	$10, %edx
 534      00
 535 0087 31F6     		xorl	%esi, %esi
 536 0089 E8000000 		call	strtoul@PLT
 536      00
 537 008e 4189C5   		movl	%eax, %r13d
 538 0091 2D000400 		subl	$1024, %eax
 538      00
 539 0096 3D00FC00 		cmpl	$64512, %eax
 539      00
 540 009b 775D     		ja	.L57
 541 009d 4889E2   		movq	%rsp, %rdx
 542 00a0 8D7DFE   		leal	-2(%rbp), %edi
 543 00a3 4489EE   		movl	%r13d, %esi
 544 00a6 E8000000 		call	multiRead
 544      00
 545 00ab 4189C4   		movl	%eax, %r12d
 546 00ae 85C0     		testl	%eax, %eax
 547 00b0 758F     		jne	.L48
 548              	.L50:
 549 00b2 F20F1004 		movsd	(%rsp), %xmm0
 549      24
 550 00b7 4489EA   		movl	%r13d, %edx
 551 00ba BF010000 		movl	$1, %edi
 551      00
 552 00bf 488D3500 		leaq	.LC7(%rip), %rsi
 552      000000
 553 00c6 B8010000 		movl	$1, %eax
 553      00
 554 00cb E8000000 		call	__printf_chk@PLT
 554      00
 555 00d0 E96CFFFF 		jmp	.L48
 555      FF
 556              	.L56:
 557 00d5 488B3D00 		movq	stderr(%rip), %rdi
 557      000000
 558 00dc 488D1500 		leaq	.LC5(%rip), %rdx
 558      000000
 559 00e3 BE010000 		movl	$1, %esi
 559      00
 560 00e8 31C0     		xorl	%eax, %eax
 561 00ea 41BC0200 		movl	$2, %r12d
 561      0000
 562 00f0 E8000000 		call	__fprintf_chk@PLT
 562      00
 563 00f5 E947FFFF 		jmp	.L48
 563      FF
 564              	.L57:
 565 00fa 488B3D00 		movq	stderr(%rip), %rdi
 565      000000
 566 0101 488D1500 		leaq	.LC6(%rip), %rdx
 566      000000
 567 0108 BE010000 		movl	$1, %esi
 567      00
 568 010d 31C0     		xorl	%eax, %eax
 569 010f 41BC0300 		movl	$3, %r12d
 569      0000
 570 0115 E8000000 		call	__fprintf_chk@PLT
 570      00
 571 011a E922FFFF 		jmp	.L48
 571      FF
 572              	.L55:
 573 011f E8000000 		call	__stack_chk_fail@PLT
 573      00
 574              		.cfi_endproc
 575              	.LFE42:
 577              		.globl	randomData
 578              		.section	.rodata
 579              		.align 32
 582              	randomData:
 583 0000 878A8922 		.string	"\207\212\211\"a \037>\210\274\037\023 \233\256\310 \006L\036~l;\232pf\006 \317 \006v\201>
 583      61201F3E 
 583      88BC1F13 
 583      209BAEC8 
 583      20064C1E 
 584 002f FDE620F0 		.string	"\375\346 \360\257\335.J\231"
 584      AFDD2E4A 
 584      9900
 585 0039 5E52C113 		.string	"^R\301\023\252\007\307\244\326s#\2562\306\363\226m\207\346 \022\210\303N\3558\261\272\351
 585      AA07C7A4 
 585      D67323AE 
 585      32C6F396 
 585      6D87E620 
 586 0135 97F73A18 		.ascii	"\227\367:\030\rX8\037\346o\265U}\341;"
 586      0D58381F 
 586      E66FB555 
 586      7DE13B
 587 0144 D3B12B4B 		.string	"\323\261+K\210\2756\2536O\247\313\343\221, \n\032\260j\2610\261\247\216\376\322kd\344\b\3
 587      88BD36AB 
 587      364FA7CB 
 587      E3912C20 
 587      0A1AB06A 
 588 0245 0985726A 		.string	"\t\205rj\372}[\341~"
 588      FA7D5BE1 
 588      7E00
 589 024f 7DE0BEDF 		.ascii	"}\340\276\337\270\037UR\352c\357\330\320o\275Wt\016\317\334_"
 589      B81F5552 
 589      EA63EFD8 
 589      D06FBD57 
 589      740ECFDC 
 590 0264 E8EF4092 		.ascii	"\350\357@\222\322h\366\005c[\313-\363d1Z\031\2261\320\344O\232"
 590      D268F605 
 590      635BCB2D 
 590      F364315A 
 590      199631D0 
 591 027b 8B343E58 		.ascii	"\2134>X\036\316\302\347\204`\374A\266\035\"d\275\2349j$\331d"
 591      1ECEC2E7 
 591      8460FC41 
 591      B61D2264 
 591      BD9C396A 
 592 0292 CD6BD5A2 		.ascii	"\315k\325\242A*\323\032\275q\025(\\\201\214H\212\354\257f \337"
 592      412AD31A 
 592      BD711528 
 592      5C818C48 
 592      8AECAF66 
 593 02a8 2A49142D 		.ascii	"*I\024-\322\306!\275\r9!\303\227\001\277\326\262\376i\213y>u"
 593      D2C621BD 
 593      0D3921C3 
 593      9701BFD6 
 593      B2FE698B 
 594 02bf 58436899 		.ascii	"XCh\231y\314e\017\210\2131\037\277\3108,\"\274\320\f\213\271"
 594      79CC650F 
 594      888B311F 
 594      BFC8382C 
 594      22BCD00C 
 595 02d5 54A87860 		.ascii	"T\250x`\220t_!b\2469p\345\265~+\306\313\033_)\303\270b#\331\377"
 595      90745F21 
 595      62A63970 
 595      E5B57E2B 
 595      C6CB1B5F 
 596 02f0 C98F50EB 		.ascii	"\311\217P\353\200|\275\365N\305\365f\001\305C'\316_J\334\363"
 596      807CBDF5 
 596      4EC5F566 
 596      01C54327 
 596      CE5F4ADC 
 597 0305 AF77FF16 		.ascii	"\257w\377\026\306\270\333\030V\202o\364\207\247R\211\370\224"
 597      C6B8DB18 
 597      56826FF4 
 597      87A75289 
 597      F894
 598 0317 CEF0F040 		.ascii	"\316\360\360@\370Gs{\322-\302K\257\270\363\025M _\2162IKZ\211"
 598      F847737B 
 598      D22DC24B 
 598      AFB8F315 
 598      4D205F8E 
 599 0330 7FC26DB7 		.ascii	"\177\302m\267\200\276\244\314PB\363\005\265e\226`\216\213/\217"
 599      80BEA4CC 
 599      5042F305 
 599      B5659660 
 599      8E8B2F8F 
 600 0344 72A2BBD9 		.ascii	"r\242\273\331#\247-1\323\271'\342\n&\305\211]v\220M`\277r\022"
 600      23A72D31 
 600      D3B927E2 
 600      0A26C589 
 600      5D76904D 
 601 035c 6B4187FE 		.ascii	"kA\207\376r$\237\r\013=\322!\262\013\024\003\355\r\017\347\021"
 601      72249F0D 
 601      0B3DD221 
 601      B20B1403 
 601      ED0D0FE7 
 602 0371 35F8363A 		.ascii	"5\3706:>\217\217\002\360-gw\212Q5\221q{~\360+\017\240J\253\007"
 602      3E8F8F02 
 602      F02D6777 
 602      8A513591 
 602      717B7EF0 
 603 038b 7AF6C53C 		.ascii	"z\366\305<\243\243G\203x%\007\233od\252\341\227\024o\227\350"
 603      A3A34783 
 603      7825079B 
 603      6F64AAE1 
 603      97146F97 
 604 03a0 7EDA56EA 		.ascii	"~\332V\352C9lx@\016\327\211\342\354\226\3557-\307A\3016\271|"
 604      43396C78 
 604      400ED789 
 604      E2EC96ED 
 604      372DC741 
 605 03b8 068AC86D 		.ascii	"\006\212\310m\252)U\245\266&\350\206\006\315\364\204\314\251"
 605      AA2955A5 
 605      B626E886 
 605      06CDF484 
 605      CCA9
 606 03ca 1826D430 		.ascii	"\030&\3240\223\321\003\320L\002a\327d/\204V\254\n-\257\247\214"
 606      93D103D0 
 606      4C0261D7 
 606      642F8456 
 606      AC0A2DAF 
 607 03e0 FEC62174 		.ascii	"\376\306!t\334\001}'L!x\372\236:\022z\230\017.pM\262\201\n\214"
 607      DC017D27 
 607      4C2178FA 
 607      9E3A127A 
 607      980F2E70 
 608 03f9 B5A528AC 		.ascii	"\265\245(\254\315Rs\214\020hN\331@\017k\001\021\225\002R'\266"
 608      CD52738C 
 608      10684ED9 
 608      400F6B01 
 608      11950252 
 609 040f 0E91F303 		.ascii	"\016\221\363\003\013h\305\251Z(O\340\276\365U'\200\037\322\265"
 609      0B68C5A9 
 609      5A284FE0 
 609      BEF55527 
 609      801FD2B5 
 610 0423 8895A77B 		.ascii	"\210\225\247{sk\257\317\356\260\320\362\2502"
 610      736BAFCF 
 610      EEB0D0F2 
 610      A832
 611 0431 495F3272 		.string	"I_2rM\034\227\317\200\376q\036\204\204Vw\212\3479\361\272.\020\026\ren\377g\343\346\200\2
 611      4D1C97CF 
 611      80FE711E 
 611      84845677 
 611      8AE739F1 
 612 0532 34B72547 		.ascii	"4\267%G\262\327b\013\240\226\363'\355\002\b]%,\207\254I\236G"
 612      B2D7620B 
 612      A096F327 
 612      ED02085D 
 612      252C87AC 
 613 0549 20CB7510 		.ascii	" \313u\020L\360\007\354\375\fD\221\212n\220\230\221\233\313\276"
 613      4CF007EC 
 613      FD0C4491 
 613      8A6E9098 
 613      919BCBBE 
 614 055d 3286A85B 		.ascii	"2\206\250[\214E\203\256\205\224\317M \334\305\275V4\352\2335"
 614      8C4583AE 
 614      8594CF4D 
 614      20DCC5BD 
 614      5634EA9B 
 615 0572 55071109 		.ascii	"U\007\021\t\346\250\243 \230\177'\274CW\021\374\210\355\351\374"
 615      E6A8A320 
 615      987F27BC 
 615      435711FC 
 615      88EDE9FC 
 616 0586 EBDC7AEC 		.ascii	"\353\334z\354v\224P\2323C\210\232\001\214\251\247U\343\242<X"
 616      7694509A 
 616      3343889A 
 616      018CA9A7 
 616      55E3A23C 
 617 059b C8D0DE53 		.ascii	"\310\320\336S&N(\373\331D\355P\350\227\203\263\254\343\363\337"
 617      264E28FB 
 617      D944ED50 
 617      E89783B3 
 617      ACE3F3DF 
 618 05af 817AD5C0 		.ascii	"\201z\325\300\213o\214\001\212v\225\236\203T\276;\374A\026J\344"
 618      8B6F8C01 
 618      8A76959E 
 618      8354BE3B 
 618      FC41164A 
 619 05c4 81502AEF 		.ascii	"\201P*\357\306[\345\337\017\031\375_\253"
 619      C65BE5DF 
 619      0F19FD5F 
 619      AB
 620 05d1 2E6756E3 		.string	".gV\343n\321\3252`ll7\212\255\212o\003L\315\277Dn\233l)\377\030\314\222\337\243\354p\232c
 620      6ED1D532 
 620      606C6C37 
 620      8AAD8A6F 
 620      034CCDBF 
 621 06d2 59742C60 		.string	"Yt,`\232 \341\310s\037\225}?\341\003\243\362\036\237&S/{sJ\f>y\332\021\021\324B\200\374\3
 621      9A20E1C8 
 621      731F957D 
 621      3FE103A3 
 621      F21E9F26 
 622 073d DF238263 		.string	"\337#\202c\322\1771\2742\016\031\253\305\007O\360=\336\323K\236\307\031\275\342\\\234\b\2
 622      D27F31BC 
 622      320E19AB 
 622      C5074FF0 
 622      3DDED34B 
 623 0770 B3E0FF74 		.ascii	"\263\340\377t\0347L|\201 ^\304\273ip_\331\230|\244E\330\255\236"
 623      1C374C7C 
 623      81205EC4 
 623      BB69705F 
 623      D9987CA4 
 624 0788 700F78CF 		.ascii	"p\017x\317V\250\265*\254\2729v\037\260)j^0*\343%ba\022lQ_\374"
 624      56A8B52A 
 624      ACBA3976 
 624      1FB0296A 
 624      5E302AE3 
 625 07a4 1F60D920 		.ascii	"\037`\331 \304\377\227\316#\375\343\rAN\024@\177X\215w\374\354"
 625      C4FF97CE 
 625      23FDE30D 
 625      414E1440 
 625      7F588D77 
 626 07ba EEC06F97 		.ascii	"\356\300o\227\274m\337\377f|Y\t\005L\266`b\035tcEI"
 626      BC6DDFFF 
 626      667C5909 
 626      054CB660 
 626      621D7463 
 627 07d0 38563ACA 		.ascii	"8V:\3124"
 627      34
 628 07d5 049157F8 		.string	"\004\221W\370e^\300e\"w\264#\327}\326O\306\367\330\304\233tVh\336r\231\214\244N0\363\360/
 628      655EC065 
 628      2277B423 
 628      D77DD64F 
 628      C6F7D8C4 
 629 08d6 A5BF8637 		.string	"\245\277\2067(\243\035\245r?\203\326OC\325\007\177s\343T\372+\202\333e\226\3378\234\230F\
 629      28A31DA5 
 629      723F83D6 
 629      4F43D507 
 629      7F73E354 
 630 0902 74F3A850 		.string	"t\363\250P\360,\347\334\017\022K\313\037\240S(9\266\024\314\374I\255\034\371\315U\257\363
 630      F02CE7DC 
 630      0F124BCB 
 630      1FA05328 
 630      39B614CC 
 631 0967 50AC0504 		.string	"P\254\005\004"
 631      00
 632 096c EB57A887 		.string	"\353W\250\207\016\304\2123\270\304\237\016\313\337}e\236\275v\270\345\337\001\177\216\352
 632      0EC48A33 
 632      B8C49F0E 
 632      CBDF7D65 
 632      9EBD76B8 
 633 098a 6A3084A9 		.ascii	"j0\204\251B\376h\362\354\035\267s\237\211=\306\374,\345\037)"
 633      42FE68F2 
 633      EC1DB773 
 633      9F893DC6 
 633      FC2CE51F 
 634 099f F1419813 		.ascii	"\361A\230\023\345\202\226\344\345\235S\345~z9)9\346\327\2313"
 634      E58296E4 
 634      E59D53E5 
 634      7E7A3929 
 634      39E6D799 
 635 09b4 9CDCA935 		.ascii	"\234\334\2515%\332\024Qf\332G\271\313|\344\255\337\n\202|\217"
 635      25DA1451 
 635      66DA47B9 
 635      CB7CE4AD 
 635      DF0A827C 
 636 09c9 BC948477 		.ascii	"\274\224\204ww\007{nGH\0347S\323\311\fg$u\217z\244\204V\257\266"
 636      77077B6E 
 636      47481C37 
 636      53D3C90C 
 636      6724758F 
 637 09e3 5B9E05D2 		.ascii	"[\236\005\322\206 \003\267\221\003/|\360\364\254a\307\343C\204"
 637      862003B7 
 637      91032F7C 
 637      F0F4AC61 
 637      C7E34384 
 638 09f7 1877EDDD 		.ascii	"\030w\355\335,b9\021\204l\233\343\356GP\221X\305\255\272\343"
 638      2C623911 
 638      846C9BE3 
 638      EE475091 
 638      58C5ADBA 
 639 0a0c DFBEB880 		.ascii	"\337\276\270\200'\236$\025T$V4\034\206\026\323\363\005\326\036"
 639      279E2415 
 639      54245634 
 639      1C8616D3 
 639      F305D61E 
 640 0a20 75EB9D51 		.ascii	"u\353\235Q\006\322\254\311\026\036\201F\372\ta\261Z\247\036\314"
 640      06D2ACC9 
 640      161E8146 
 640      FA0961B1 
 640      5AA71ECC 
 641 0a34 88044388 		.ascii	"\210\004C\210\365p(\362\315\252\325\227\035X\301\351?\337!\006"
 641      F57028F2 
 641      CDAAD597 
 641      1D58C1E9 
 641      3FDF2106 
 642 0a48 A643DEB9 		.ascii	"\246C\336\271\271\273\017F\304\006\324\002\345\027K\f\321\271"
 642      B9BB0F46 
 642      C406D402 
 642      E5174B0C 
 642      D1B9
 643 0a5a 68D0334B 		.ascii	"h\3203K\266\"\301\277#\273$\nEt\343W$\372\\\017\267\345\266c"
 643      B622C1BF 
 643      23BB240A 
 643      4574E357 
 643      24FA5C0F 
 644 0a72 74B9A6F5 		.ascii	"t\271\246\365\264\352\232F\b\277\0307IW\003r\177E\226\223+d\343"
 644      B4EA9A46 
 644      08BF1837 
 644      49570372 
 644      7F459693 
 645 0a89 769BA223 		.ascii	"v\233\242#-$\270\3101\260m\220\337\325\205\306A\023a\372\311"
 645      2D24B8C8 
 645      31B06D90 
 645      DFD585C6 
 645      411361FA 
 646 0a9e 3B65A2A5 		.ascii	";e\242\245q\222]/\3553\233\\\370W;\004\037\244\333r8/\031D\001"
 646      71925D2F 
 646      ED339B5C 
 646      F8573B04 
 646      1FA4DB72 
 647 0ab7 D1E51F3E 		.ascii	"\321\345\037>s\374& A\2535\346\314Q'\223\327\350p\273\276\332"
 647      73FC2620 
 647      41AB35E6 
 647      CC512793 
 647      D7E870BB 
 648 0acd 8E02DC8D 		.ascii	"\216\002\334\215d\212j\365\206\350\\VMhW\303\266\360j\234\245"
 648      648A6AF5 
 648      86E85C56 
 648      4D6857C3 
 648      B6F06A9C 
 649 0ae2 526691DF 		.ascii	"Rf\221\337.u?\036\234\202\322\324|-\217\240)\314\013\t\273\344"
 649      2E753F1E 
 649      9C82D2D4 
 649      7C2D8FA0 
 649      29CC0B09 
 650 0af8 6EB4C8FB 		.ascii	"n\264\310\373\323T\274Z\023\022\2179\376x"
 650      D354BC5A 
 650      13128F39 
 650      FE78
 651 0b06 6E2BB740 		.string	"n+\267@\205h\017\345J\215|z\t+\326s{b \342\344y\331v\242e\374u\232\bc%\331s7\226\223\004\
 651      85680FE5 
 651      4A8D7C7A 
 651      092BD673 
 651      7B6220E2 
 652 0c07 C6CD7966 		.ascii	"\306\315yf\243\001N9A\022\332\200\215\317\245\025#\330\306\347"
 652      A3014E39 
 652      4112DA80 
 652      8DCFA515 
 652      23D8C6E7 
 653 0c1b B1DED22B 		.ascii	"\261\336\322+\200\002\326\274b\007m\340G\313\257\331\367\251"
 653      8002D6BC 
 653      62076DE0 
 653      47CBAFD9 
 653      F7A9
 654 0c2d EEA368E4 		.ascii	"\356\243h\3449\\\375\224\232p\265\252\257\270\177"
 654      395CFD94 
 654      9A70B5AA 
 654      AFB87F
 655 0c3c 104F164B 		.string	"\020O\026K\336Iv\221\223\350Z<Q.\023\336\211\245\027\357\257\376\257gi\230\225\343\035^\3
 655      DE497691 
 655      93E85A3C 
 655      512E13DE 
 655      89A517EF 
 656 0d3d 64EEF039 		.string	"d\356\3609:\213\241\270l\303s\1777\250\311\006\352\0320[\307\335S\025\227\3269\330\372a?\
 656      3A8BA1B8 
 656      6CC3737F 
 656      37A8C906 
 656      EA1A305B 
 657 0d91 F29AF049 		.string	"\362\232\360I\377\2613\310E\251->\213\032\213\352wXA\236\206\315\317\347\244\232\374T\027
 657      FFB133C8 
 657      45A92D3E 
 657      8B1A8BEA 
 657      7758419E 
 658 0dde AB377670 		.string	"\2537vp\304\265:\335\222\3514\036\022\274\231\262\222\333s\240\2152`\367 0\204M\266\347\r
 658      C4B53ADD 
 658      92E9341E 
 658      12BC99B2 
 658      92DB73A0 
 659 0e1e 20A6F93C 		.ascii	" \246\371<}\267\210\256\233h\352;\006\265\254\370\315\020/{p"
 659      7DB788AE 
 659      9B68EA3B 
 659      06B5ACF8 
 659      CD102F7B 
 660 0e33 73111CB3 		.ascii	"s\021\034\263\241M\261\021\251\306\037\347"
 660      A14DB111 
 660      A9C61FE7 
 661 0e3f 3E2EDBAA 		.string	">.\333\252\2302_\254?D\321G\020|\217\201\330\261nq\365\025i\261 \253\321\027\332v\\\227\3
 661      98325FAC 
 661      3F44D147 
 661      107C8F81 
 661      D8B16E71 
 662 0f40 AF91ABAD 		.ascii	"\257\221\253\255\250\374ad\337\034\030^R\033\036\004\0022\331"
 662      A8FC6164 
 662      DF1C185E 
 662      521B1E04 
 662      0232D9
 663 0f53 68BBAC01 		.ascii	"h\273\254\001\212\204Q*)\"\nPW\234AN\004\245\333%\345\330&\216"
 663      8A84512A 
 663      29220A50 
 663      579C414E 
 663      04A5DB25 
 664 0f6b 99FCFC64 		.ascii	"\231\374\374dl\3750O\363_\326\302\306\320C4\355\254;O\341\037"
 664      6CFD304F 
 664      F35FD6C2 
 664      C6D04334 
 664      EDAC3B4F 
 665 0f81 1AC139D1 		.ascii	"\032\3019\321\375\"\3715\336\235j\300\372\307\340\322=\376\361"
 665      FD22F935 
 665      DE9D6AC0 
 665      FAC7E0D2 
 665      3DFEF1
 666 0f94 05B529D9 		.ascii	"\005\265)\331\240\027\314X>,\262\356"
 666      A017CC58 
 666      3E2CB2EE 
 667 0fa0 71913F3D 		.string	"q\221?=N\335\275\265\004\330\3751 \021\026\346\221'H\243\312\361M\025K\352\337\244\343\03
 667      4EDDBDB5 
 667      04D8FD31 
 667      201116E6 
 667      912748A3 
 668 0ffb 567C78AB 		.string	"V|x\253\036\031$\023D\312\320L\030\n]\306\202\252\001-\303\033\215C \350\001K\346g\027\26
 668      1E192413 
 668      44CAD04C 
 668      180A5DC6 
 668      82AA012D 
 669 1029 D6EE4593 		.string	"\326\356E\223\252\3522+\232P\016\316\232}\315\374[_\336\354\0051\232F\241\255\212~?\224N\
 669      AAEA322B 
 669      9A500ECE 
 669      9A7DCDFC 
 669      5B5FDEEC 
 670 110e C7909E72 		.ascii	"\307\220\236rj\3302\256\203\021\346rm\\\36254\2647-\265e\272"
 670      6AD832AE 
 670      8311E672 
 670      6D5CF235 
 670      34B4372D 
 671 1125 6B6A3B91 		.ascii	"kj;\221\177Q\320u\261\322j!\203W\354|2\315\212o\020\261\274d"
 671      7F51D075 
 671      B1D26A21 
 671      8357EC7C 
 671      32CD8A6F 
 672 113d 949CF34F 		.ascii	"\224\234\363OKT\037\312\017\264\377\272\n\371\265\023s\007GS"
 672      4B541FCA 
 672      0FB4FFBA 
 672      0AF9B513 
 672      73074753 
 673 1151 02C76521 		.ascii	"\002\307e!\013E}\211\321[\354a\221PZ\377\031w\226\226\005>3\305"
 673      0B457D89 
 673      D15BEC61 
 673      91505AFF 
 673      19779696 
 674 1169 1624461C 		.ascii	"\026$F\034\302E\324m\032\257`m\332(\363s\254R\235\334RK\367!"
 674      C245D46D 
 674      1AAF606D 
 674      DA28F373 
 674      AC529DDC 
 675 1181 9B7B12F1 		.ascii	"\233{\022\361\227\034t\341l\240\375\315\356\231\244\373\030K"
 675      971C74E1 
 675      6CA0FDCD 
 675      EE99A4FB 
 675      184B
 676 1193 E4A081F4 		.ascii	"\344\240\201\364\006=\246~m]\347U\237\3409P\216EO\236\301R\253"
 676      063DA67E 
 676      6D5DE755 
 676      9FE03950 
 676      8E454F9E 
 677 11aa C0C24F41 		.ascii	"\300\302OA\343\350\243m\311\307\374\274/.\260\321ZJ\370\317$"
 677      E3E8A36D 
 677      C9C7FCBC 
 677      2F2EB0D1 
 677      5A4AF8CF 
 678 11bf E0C9BC92 		.ascii	"\340\311\274\222x\337\324\f\206w\034p\317-\221U\r{G6\236\022"
 678      78DFD40C 
 678      86771C70 
 678      CF2D9155 
 678      0D7B4736 
 679 11d5 5EDC3F50 		.ascii	"^\334?P\304RnF\373\r\235\350\326\301RnT\223\327\345\377\0032"
 679      C4526E46 
 679      FB0D9DE8 
 679      D6C1526E 
 679      5493D7E5 
 680 11ec 293F9C4D 		.ascii	")?\234M\315j\201\226\263&'9>e\313n\233\3315Xr\271\341\233\213"
 680      CD6A8196 
 680      B3262739 
 680      3E65CB6E 
 680      9BD93558 
 681 1205 C15B9F34 		.ascii	"\301[\2374\350\224\227N\207\333=I\241\362\245\354\264\306o\n"
 681      E894974E 
 681      87DB3D49 
 681      A1F2A5EC 
 681      B4C66F0A 
 682 1219 8EECB278 		.ascii	"\216\354\262x\306.r\227\0325c*\206\203\315QE\326<\335\363\355"
 682      C62E7297 
 682      1A35632A 
 682      8683CD51 
 682      45D63CDD 
 683 122f 98EACD35 		.ascii	"\230\352\3155h\027k\202\037\242\2771l\004\013J\213a\030\240\360"
 683      68176B82 
 683      1FA2BF31 
 683      6C040B4A 
 683      8B6118A0 
 684 1244 D105423A 		.ascii	"\321\005B:T\273MC\277g\304l\233\207\003\220\031p\203?@CAJ\254"
 684      54BB4D43 
 684      BF67C46C 
 684      9B870390 
 684      1970833F 
 685 125d E72FFFB8 		.ascii	"\347/\377\270\374M\002\363\002{|\200\013\"c\306\326\255jZ\022"
 685      FC4D02F3 
 685      027B7C80 
 685      0B2263C6 
 685      D6AD6A5A 
 686 1272 1AFC96B8 		.ascii	"\032\374\226\270P\3136\034\211YI\374z\366\245\211\017\271\233"
 686      50CB361C 
 686      895949FC 
 686      7AF6A589 
 686      0FB99B
 687 1285 33FAE840 		.ascii	"3\372\350@\343\235\235\367\253\013\273m@\365-\340u\246\365M\320"
 687      E39D9DF7 
 687      AB0BBB6D 
 687      40F52DE0 
 687      75A6F54D 
 688 129a 4D01E26E 		.ascii	"M\001\342n\367\305P\034\255K1\265\3016\345^R4\323\356\217\337"
 688      F7C5501C 
 688      AD4B31B5 
 688      C136E55E 
 688      5234D3EE 
 689 12b0 409E8BA4 		.ascii	"@\236\213\244\231J\251\231\343;2\037\322\316\212\022(BA\224\030"
 689      994AA999 
 689      E33B321F 
 689      D2CE8A12 
 689      28424194 
 690 12c5 5465DE4D 		.ascii	"Te\336M\t\336E\225\250\353\017v{\213\364\0331\255\217\374\001"
 690      09DE4595 
 690      A8EB0F76 
 690      7B8BF41B 
 690      31AD8FFC 
 691 12da A608     		.ascii	"\246\b"
 692 12dc C2A84053 		.string	"\302\250@S/\030\215d:\253A\357O\376\025\321\366e\353;}\036\026\266\t\213q\346\212\242\355
 692      2F188D64 
 692      3AAB41EF 
 692      4FFE15D1 
 692      F665EB3B 
 693 13dd 5C522B0E 		.ascii	"\\R+\016\231\017.\237\324\245\271\205\265\312=\243\203~k\377"
 693      990F2E9F 
 693      D4A5B985 
 693      B5CA3DA3 
 693      837E6BFF 
 694 13f1 D09F3097 		.ascii	"\320\2370\227!2\346\314\322H\024A\027b\207\022\0052\002t\243"
 694      2132E6CC 
 694      D2481441 
 694      17628712 
 694      05320274 
 695 1406 1A0FD96A 		.ascii	"\032\017\331j|\375\266\343\306\241v\217\313w2\264\023T\013\177"
 695      7CFDB6E3 
 695      C6A1768F 
 695      CB7732B4 
 695      13540B7F 
 696 141a 265876FC 		.ascii	"&Xv\374\200i\230_\257\226\371I#\221\231y\212\205\343\264\336"
 696      8069985F 
 696      AF96F949 
 696      23919979 
 696      8A85E3B4 
 697 142f 85163084 		.ascii	"\205\0260\204\303\334\316\351\232\343f\373h\311M\377Hc%\276/"
 697      C3DCCEE9 
 697      9AE366FB 
 697      68C94DFF 
 697      486325BE 
 698 1444 89F8399D 		.ascii	"\211\3709\235\321& \241\240\363\017\303\3033\374~\"\343\223\366"
 698      D12620A1 
 698      A0F30FC3 
 698      C333FC7E 
 698      22E393F6 
 699 1458 F901FADC 		.ascii	"\371\001\372\334S\257\320\364Z$/\030\324U*\003\b\275Xd\263\002"
 699      53AFD0F4 
 699      5A242F18 
 699      D4552A03 
 699      08BD5864 
 700 146e 853A2B29 		.ascii	"\205:+)\235\266)\204\313]\252\217)g\230\323ATQ\007YR\303\272"
 700      9DB62984 
 700      CB5DAA8F 
 700      296798D3 
 700      41545107 
 701 1486 276F2D8F 		.ascii	"'o-\217A\353\376\223~(\351\360\264\327\273\016\323\017\024\244"
 701      41EBFE93 
 701      7E28E9F0 
 701      B4D7BB0E 
 701      D30F14A4 
 702 149a 9165FED4 		.ascii	"\221e\376\324\344.G\251}\366\357\003\273\2251\221\364\002\234"
 702      E42E47A9 
 702      7DF6EF03 
 702      BB953191 
 702      F4029C
 703 14ad FEC44544 		.ascii	"\376\304ED\320\231=#\320\302_\240\277\024AoV~\330\343b\221q\227"
 703      D0993D23 
 703      D0C25FA0 
 703      BF14416F 
 703      567ED8E3 
 704 14c5 08172966 		.ascii	"\b\027)f"
 705 14c9 A7AD39DF 		.string	"\247\2559\337\355\353Tth_\353\022\266/<NFt\313;\215\306e3\034\324\377t\257H\007\252j\271\
 705      EDEB5474 
 705      685FEB12 
 705      B62F3C4E 
 705      4674CB3B 
 706 15ca E8436A44 		.string	"\350CjD"
 706      00
 707 15cf B8B4BBA6 		.string	"\270\264\273\246M\223\256\301\306\231m\254\3244\241\376\033\3538(\034:q\241Y\332\310\254\
 707      4D93AEC1 
 707      C6996DAC 
 707      D434A1FE 
 707      1BEB3828 
 708 15fd EFF0D2F9 		.string	"\357\360\322\371\364sq=\231\310#\005l\312\016\256\212\323\367\321\204\005\335\210ELr|\302
 708      F473713D 
 708      99C82305 
 708      6CCA0EAE 
 708      8AD3F7D1 
 709 1650 1593D9E6 		.ascii	"\025\223\331\346\335\226R\021\333\277?\r\033\366\253\252\326"
 709      DD965211 
 709      DBBF3F0D 
 709      1BF6ABAA 
 709      D6
 710 1661 CF8237F6 		.ascii	"\317\2027\366?\313\020\374\270\3644\212Sn\247\032\353\031\373"
 710      3FCB10FC 
 710      B8F4348A 
 710      536EA71A 
 710      EB19FB
 711 1674 B41081B7 		.ascii	"\264\020\201\267\t)`'F\314\201.-\217\367% \301\251M\033\240\246"
 711      09296027 
 711      46CC812E 
 711      2D8FF725 
 711      20C1A94D 
 712 168b 92F7ECE4 		.ascii	"\222\367\354\344\331z42\215j\"\025p\272\361\372Y\022\355P\242"
 712      D97A3432 
 712      8D6A2215 
 712      70BAF1FA 
 712      5912ED50 
 713 16a0 5B70149B 		.ascii	"[p\024\233Vu\0346\272\365ohv\025@\350.u\265\315\246\013`0c\030"
 713      56751C36 
 713      BAF56F68 
 713      761540E8 
 713      2E75B5CD 
 714 16ba 01DD0366 		.ascii	"\001\335\003fEE\017\273U\265\202\357V\343Q,\023\331\334+v\210"
 714      45450FBB 
 714      55B582EF 
 714      56E3512C 
 714      13D9DC2B 
 715 16d0 F18A383C 		.ascii	"\361\2128<\365\213X\305\355\334\230\377>5\273\035\020K\324TI"
 715      F58B58C5 
 715      EDDC98FF 
 715      3E35BB1D 
 715      104BD454 
 716 16e5 FCB74135 		.ascii	"\374\267A5,\b\256\276\354\200\007\350\260mBZ\251\031\016\261"
 716      2C08AEBE 
 716      EC8007E8 
 716      B06D425A 
 716      A9190EB1 
 717 16f9 DFB2B0EA 		.ascii	"\337\262\260\352#\270\377ZZ6y\342\372Yw\202\005\321\242/;\211"
 717      23B8FF5A 
 717      5A3679E2 
 717      FA597782 
 717      05D1A22F 
 718 170f FA2180CA 		.ascii	"\372!\200\312ZnF\317\0262\333\212;\224\363)\254\031\262]\226"
 718      5A6E46CF 
 718      1632DB8A 
 718      3B94F329 
 718      AC19B25D 
 719 1724 0D3ADC58 		.ascii	"\r:\334XO&mX\r\005\301d\327\324\247\313x\317Gs\204\020\036\344"
 719      4F266D58 
 719      0D05C164 
 719      D7D4A7CB 
 719      78CF4773 
 720 173c AF2F298E 		.ascii	"\257/)\216\322\361\205Y\013.X\336\213\275N\234:\357\205\217\353"
 720      D2F18559 
 720      0B2E58DE 
 720      8BBD4E9C 
 720      3AEF858F 
 721 1751 73E42799 		.ascii	"s\344'\231\216z\252\226\n/\n\023\351\036+&D\177\004\367\231)"
 721      8E7AAA96 
 721      0A2F0A13 
 721      E91E2B26 
 721      447F04F7 
 722 1767 E43DD12C 		.ascii	"\344=\321,<\321T\366\260"
 722      3CD154F6 
 722      B0
 723 1770 E14DD519 		.ascii	"\341M\325\031\341\232\322\343@\254Mg'\231\370\330\253\207\030"
 723      E19AD2E3 
 723      40AC4D67 
 723      2799F8D8 
 723      AB8718
 724 1783 AC73891F 		.ascii	"\254s\211\037\325s'^\377\021MU\247_3JB\340\021\356~]\272\202"
 724      D573275E 
 724      FF114D55 
 724      A75F334A 
 724      42E011EE 
 725 179b 548EF001 		.ascii	"T\216\360\001t\006\236\3657f\016x\214\303\221;\207Od\245'\317"
 725      74069EF5 
 725      37660E78 
 725      8CC3913B 
 725      874F64A5 
 726 17b1 A0       		.ascii	"\240"
 727 17b2 C4DCFF10 		.string	"\304\334\377\020\023'\b\024\350G\315\017\320K3\305A+\352\325\035\037%\250\376A,\212,0\t\2
 727      13270814 
 727      E847CD0F 
 727      D04B33C5 
 727      412BEAD5 
 728 18b3 0962B336 		.string	"\tb\2636/\372S\037\006\353`\334\"\353\2577\021\366;\263\034d\376\013(\202\"'\245\376_\210
 728      2FFA531F 
 728      06EB60DC 
 728      22EBAF37 
 728      11F63BB3 
 729 18d5 B956F1B3 		.string	"\271V\361\263U\254;\214|'{'[\244.\337\271\341|Od\364T\305\324W\367N\033\325H 0\357\325\26
 729      55AC3B8C 
 729      7C277B27 
 729      5BA42EDF 
 729      B9E17C4F 
 730 196e AFA1DECC 		.string	"\257\241\336\314\352\262l\326\013GC\367t\"\324\206\023\232*-A\215\315"
 730      EAB26CD6 
 730      0B4743F7 
 730      7422D486 
 730      139A2A2D 
 731 1986 AA2086C3 		.ascii	"\252 \206\303\306\375d\374J\274\300+R\207\364~\205\352(\2264"
 731      C6FD64FC 
 731      4ABCC02B 
 731      5287F47E 
 731      85EA2896 
 732 199b 354E6BCB 		.ascii	"5Nk\313\254v\255\373\207\375>\257ilCN\003\355\r]\200\344\310"
 732      AC76ADFB 
 732      87FD3EAF 
 732      696C434E 
 732      03ED0D5D 
 733 19b2 1DA1208E 		.ascii	"\035\241 \216 tx\016\203\201\243&\333\023\271t\255\302\333\263"
 733      2074780E 
 733      8381A326 
 733      DB13B974 
 733      ADC2DBB3 
 734 19c6 C49C10C2 		.ascii	"\304\234\020\302\201)\327\221\343\322\375\261/s\3623\3238T'N"
 734      8129D791 
 734      E3D2FDB1 
 734      2F73F233 
 734      D3385427 
 735 19db 7D60E25B 		.ascii	"}`\342[\3160z\016\316\217\360 \006\273\177\254\217\356\234\031"
 735      CE307A0E 
 735      CE8FF020 
 735      06BB7FAC 
 735      8FEE9C19 
 736 19ef 2C88C399 		.ascii	",\210\303\231\223\227\211\303\277\307\274\005|\334\266Q%\224"
 736      939789C3 
 736      BFC7BC05 
 736      7CDCB651 
 736      2594
 737 1a01 79AAFB58 		.ascii	"y\252\373X\236\016\t\372\343\300G`/&\222\364eT\351\230\266\355"
 737      9E0E09FA 
 737      E3C04760 
 737      2F2692F4 
 737      6554E998 
 738 1a17 F3968FFF 		.ascii	"\363\226\217\3777\017\317\024\324J\372\262(\360`\252\023\225"
 738      370FCF14 
 738      D44AFAB2 
 738      28F060AA 
 738      1395
 739 1a29 73A23510 		.ascii	"s\2425\020\371\375\244L\325\216?\333q\310&gS\354\242\024\302"
 739      F9FDA44C 
 739      D58E3FDB 
 739      71C82667 
 739      53ECA214 
 740 1a3e 04C5EFAF 		.ascii	"\004\305\357\257\322\257\325~\004\354h\212!\013\350\025\032w"
 740      D2AFD57E 
 740      04EC688A 
 740      210BE815 
 740      1A77
 741 1a50 05FE1B66 		.ascii	"\005\376\033f\326\342jGU\022\025\rc\3364F\017\320\313Kk\030\252"
 741      D6E26A47 
 741      5512150D 
 741      63DE3446 
 741      0FD0CB4B 
 742 1a67 D763AF83 		.ascii	"\327c\257\203hA\214\214\247\251\275\367(\351\n?y\354%\242.\031"
 742      68418C8C 
 742      A7A9BDF7 
 742      28E90A3F 
 742      79EC25A2 
 743 1a7d 7C76CD45 		.ascii	"|v\315E\276yG \212=\357\330k\022\261\226\254\321\221m\230f\245"
 743      BE794720 
 743      8A3DEFD8 
 743      6B12B196 
 743      ACD1916D 
 744 1a94 3A066B68 		.ascii	":\006khdi\214a:m:X\261\235i\205f]\362\234\351^\227\361\370\205"
 744      64698C61 
 744      3A6D3A58 
 744      B19D6985 
 744      665DF29C 
 745 1aae 3226F440 		.ascii	"2&\364@\233w\261>?\201\346"
 745      9B77B13E 
 745      3F81E6
 746 1ab9 F6479880 		.string	"\366G\230\200\357\316~F\324 \271\217\375^\346W\327:\303$\303\241\313\217m\276)=\2702\361d
 746      EFCE7E46 
 746      D420B98F 
 746      FD5EE657 
 746      D73AC324 
 747 1bba EB7162F0 		.ascii	"\353qb\360\341\006\363L\350\257Y\233V"
 747      E106F34C 
 747      E8AF599B 
 747      56
 748 1bc7 6420309C 		.string	"d 0\234Ku\311p\346l\254\217\313\206\347\017\340\345e\231\201\215eUq\033MW\271\223\350\267
 748      4B75C970 
 748      E66CAC8F 
 748      CB86E70F 
 748      E0E56599 
 749 1cc8 8E597DE8 		.string	"\216Y}\350\023\322\344\300:\345\341\334\340_\357\f\313J\206e\200\0079\245i\347\256\251i6Y
 749      13D2E4C0 
 749      3AE5E1DC 
 749      E05FEF0C 
 749      CB4A8665 
 750 1d43 639FC960 		.string	"c\237\311`\350F} 'B\341W\274\365(\f\301\305\216\356\306\300v#0\361\347\245\001\277\340^\3
 750      E8467D20 
 750      2742E157 
 750      BCF5280C 
 750      C1C58EEE 
 751 1d80 AD4380FC 		.string	"\255C\200\374\005yf\332\316\305X\003\007\273T\362W\221\361M\367<KU\374\031\307G\025'\006\
 751      057966DA 
 751      CEC55803 
 751      07BB54F2 
 751      5791F14D 
 752 1da1 BE3679C4 		.ascii	"\2766y\304\006;\270 tHU\361\361\352|-\351\357\325zh\366\354\336"
 752      063BB820 
 752      744855F1 
 752      F1EA7C2D 
 752      E9EFD57A 
 753 1db9 5E5AB6CB 		.ascii	"^Z\266\313\347Dja\016\371\200^:\017<R^\213\362\031\352^\n\305"
 753      E7446A61 
 753      0EF9805E 
 753      3A0F3C52 
 753      5E8BF219 
 754 1dd1 08076531 		.ascii	"\b\007e1"
 755 1dd5 2C2C8ABA 		.string	",,\212\272%\\\216\307\255\240\343\007\2417k2\343\321\343\370\034\273U^\364\247*\250\276\2
 755      255C8EC7 
 755      ADA0E307 
 755      A1376B32 
 755      E3D1E3F8 
 756 1ed6 5D713070 		.ascii	"]q0pE]\230\270\232>g\215\321\006\264\227k\013\221b\326Y\262\233"
 756      455D98B8 
 756      9A3E678D 
 756      D106B497 
 756      6B0B9162 
 757 1eee A65BF26D 		.ascii	"\246[\362m\207\256\331\300\307\360wmx\027\201\271-\342\217R\250"
 757      87AED9C0 
 757      C7F0776D 
 757      781781B9 
 757      2DE28F52 
 758 1f03 3A8206F7 		.ascii	":\202\006\367\223&\221q\271\312\371\335.&\006\203\261\275\313"
 758      93269171 
 758      B9CAF9DD 
 758      2E260683 
 758      B1BDCB
 759 1f16 20B3F04A 		.ascii	" \263\360Jt\341\342\201o>\2247\255\r<\262\200\301\020x\232A\250"
 759      74E1E281 
 759      6F3E9437 
 759      AD0D3CB2 
 759      80C11078 
 760 1f2d 3C022A3D 		.ascii	"<\002*=\306E^\232\3431\261\025\240\367\n\236\226o\005"
 760      C6455E9A 
 760      E331B115 
 760      A0F70A9E 
 760      966F05
 761 1f40 A9BD8A3A 		.string	"\251\275\212:\347\275\361\267\037\351C\313\362\351\365\3724\3163q\211\264\257@$H"
 761      E7BDF1B7 
 761      1FE943CB 
 761      F2E9F5FA 
 761      34CE3371 
 762 1f5b 76235387 		.ascii	"v#S\207\327\317?O\3709Y\215dbm%[\276\030H\317\025M\322\306\225"
 762      D7CF3F4F 
 762      F839598D 
 762      64626D25 
 762      5BBE1848 
 763 1f75 BD8C0372 		.ascii	"\275\214\003rPA\226\344\035\300\221\365\021N\353\355\024:RA\013"
 763      504196E4 
 763      1DC091F5 
 763      114EEBED 
 763      143A5241 
 764 1f8a FD510E63 		.ascii	"\375Q\016c\374\3358\205\007E\024s\371qw#\227\035\177\350\006"
 764      FCDD3885 
 764      07451473 
 764      F9717723 
 764      971D7FE8 
 765 1f9f B44E0708 		.ascii	"\264N\007\b\250\215L\241\fl\333>\302\t\217\302d:\336\365\225"
 765      A88D4CA1 
 765      0C6CDB3E 
 765      C2098FC2 
 765      643ADEF5 
 766 1fb4 66758F28 		.ascii	"fu\217(%\335\316\025O\270\036D!EM\322,\"t\350j\b4\337\337\353"
 766      25DDCE15 
 766      4FB81E44 
 766      21454DD2 
 766      2C2274E8 
 767 1fce 59C12A9E 		.ascii	"Y\301*\236k\"&W&\346\373x\317\333MFD\20316\351.\222\276\240\200"
 767      6B222657 
 767      26E6FB78 
 767      CFDB4D46 
 767      44833136 
 768 1fe8 4ED7EBEC 		.ascii	"N\327\353\354\206b\311X\337G\025\232b\311;\371'5s\374\335\030"
 768      8662C958 
 768      DF47159A 
 768      62C93BF9 
 768      273573FC 
 769 1ffe 0B5B5387 		.ascii	"\013[S\207?\006\007\373\313eu\274\022\312\323\201\331\013V\347"
 769      3F0607FB 
 769      CB6575BC 
 769      12CAD381 
 769      D90B56E7 
 770 2012 AB5F2E87 		.ascii	"\253_.\207A\316|\222\253+\336#\366\r\340\017%\265\330\252\246"
 770      41CE7C92 
 770      AB2BDE23 
 770      F60DE00F 
 770      25B5D8AA 
 771 2027 AE69A924 		.ascii	"\256i\251$q$\231\3420\371\251\215\266mV\352+\273\330\263dC\337"
 771      712499E2 
 771      30F9A98D 
 771      B66D56EA 
 771      2BBBD8B3 
 772 203e 649F2838 		.ascii	"d\237(8\342\021\022\254\305\027\273(*\311\240x\f\304V\215\253"
 772      E21112AC 
 772      C517BB28 
 772      2AC9A078 
 772      0CC4568D 
 773 2053 0A169C4E 		.ascii	"\n\026\234N\024U\241\243\375]\212m\225\247~\365\256\3253\207"
 773      1455A1A3 
 773      FD5D8A6D 
 773      95A77EF5 
 773      AED53387 
 774 2067 CD284D78 		.ascii	"\315(Mx\300\316\r.\213\351%I\254\305N#\0138x\313\177\f\337\326"
 774      C0CE0D2E 
 774      8BE92549 
 774      ACC54E23 
 774      0B3878CB 
 775 207f 09DE302A 		.ascii	"\t\3360*\030\265R\344\234\265\027\236@n\205P\246\343\022\\\274"
 775      18B552E4 
 775      9CB5179E 
 775      406E8550 
 775      A6E3125C 
 776 2094 0344BAE7 		.ascii	"\003D\272\347\362\237!3#\232>\251\222F\355\205\bJ\237\207\214"
 776      F29F2133 
 776      239A3EA9 
 776      9246ED85 
 776      084A9F87 
 777 20a9 80F84ACC 		.ascii	"\200\370J\314\322\251\325\334\346\275\005\303\330\352qlaZ\354"
 777      D2A9D5DC 
 777      E6BD05C3 
 777      D8EA716C 
 777      615AEC
 778 20bc EAB10138 		.ascii	"\352\261\0018c((\235\251B>\325\204\371K\324D\305\260\221c\215"
 778      6328289D 
 778      A9423ED5 
 778      84F94BD4 
 778      44C5B091 
 779 20d2 A0F09098 		.ascii	"\240\360\220\230\377\nb\016\356u\243\216\245\013\322?\025#y\375"
 779      FF0A620E 
 779      EE75A38E 
 779      A50BD23F 
 779      152379FD 
 780 20e6 AFBE1D2B 		.ascii	"\257\276\035+k\304\260)jL\343\244\340\274=\374\356\n}0?3b\323"
 780      6BC4B029 
 780      6A4CE3A4 
 780      E0BC3DFC 
 780      EE0A7D30 
 781 20fe BEDAF193 		.ascii	"\276\332\361\223\375\003,\302\353\254\373\374\025\214\242\375"
 781      FD032CC2 
 781      EBACFBFC 
 781      158CA2FD 
 782 210e 7647CD5E 		.ascii	"vG\315^\301\241\251-\017\227+/g\265%\366v\222\322\245Ru\276\\"
 782      C1A1A92D 
 782      0F972B2F 
 782      67B525F6 
 782      7692D2A5 
 783 2126 AAD0AF6C 		.ascii	"\252\320\257l\203\272.\f\002\363\177\252\235E?\256`\273\2741"
 783      83BA2E0C 
 783      02F37FAA 
 783      9D453FAE 
 783      60BBBC31 
 784 213a C5AD4F47 		.ascii	"\305\255OG\3033\375\242U\016\234c\323&\264\326\323\366<\367\343"
 784      C333FDA2 
 784      550E9C63 
 784      D326B4D6 
 784      D3F63CF7 
 785 214f D5E149A3 		.ascii	"\325\341I\243\254\256&\360\363\f\351\337\2255\376>\003\025\314"
 785      ACAE26F0 
 785      F30CE9DF 
 785      9535FE3E 
 785      0315CC
 786 2162 23D11B33 		.ascii	"#\321\0333\245R \261\017`\300\2173\213o\002\211]\327\266\305"
 786      A55220B1 
 786      0F60C08F 
 786      338B6F02 
 786      895DD7B6 
 787 2177 9A78B7E1 		.ascii	"\232x\267\341G\r\217O\345m\220\017pU|M\345\177\316\233kL\032"
 787      470D8F4F 
 787      E56D900F 
 787      70557C4D 
 787      E57FCE9B 
 788 218e C3B3ECE4 		.ascii	"\303\263\354\344;\005\276\2327&\272\213\320M\357q\353?\237o*"
 788      3B05BE9A 
 788      3726BA8B 
 788      D04DEF71 
 788      EB3F9F6F 
 789 21a3 6C289782 		.ascii	"l(\227\202\257\212_\033\276\346\234\356a\351\3725>9\036\314\267"
 789      AF8A5F1B 
 789      BEE69CEE 
 789      61E9FA35 
 789      3E391ECC 
 790 21b8 C6D921E6 		.ascii	"\306\331!\346\320\234\311\370\022=%;\316\020b\204uPS\205\224"
 790      D09CC9F8 
 790      123D253B 
 790      CE106284 
 790      75505385 
 791 21cd EA47846A 		.ascii	"\352G\204j|.LQ|\351\317V\232!\020\250[Gj\260@*\244\313\232\020"
 791      7C2E4C51 
 791      7CE9CF56 
 791      9A2110A8 
 791      5B476AB0 
 792 21e7 8AA6A1AF 		.ascii	"\212\246\241\257\321\257B\001\215@\341KK\313(m\021\245\241\355"
 792      D1AF4201 
 792      8D40E14B 
 792      4BCB286D 
 792      11A5A1ED 
 793 21fb 463E3D23 		.ascii	"F>=#\242\327l\317Oo\331\243\003\266\307m\304c\336+ (P>J\\xV\026"
 793      A2D76CCF 
 793      4F6FD9A3 
 793      03B6C76D 
 793      C463DE2B 
 794 2218 0327D29D 		.ascii	"\003'\322\235\027\003i+\214\372\360\367\207F\207\036\275\203"
 794      1703692B 
 794      8CFAF0F7 
 794      8746871E 
 794      BD83
 795 222a E265A310 		.ascii	"\342e\243\020_\023\007\231\226*R\020c^\023\351u\210_\033\274"
 795      5F130799 
 795      962A5210 
 795      635E13E9 
 795      75885F1B 
 796 223f A3830788 		.ascii	"\243\203\007\210\265\252 \275\027\260\356iQx\351@0\215\re\370"
 796      B5AA20BD 
 796      17B0EE69 
 796      5178E940 
 796      308D0D65 
 797 2254 F8587552 		.ascii	"\370XuR\307\237\331*\267|\366\316`*j\332x?*|M\220R:\234w\347"
 797      C79FD92A 
 797      B77CF6CE 
 797      602A6ADA 
 797      783F2A7C 
 798 226f C62641A1 		.ascii	"\306&A\241\263K\371\305\334\331\322R\313#\036X\003\257KU\326"
 798      B34BF9C5 
 798      DCD9D252 
 798      CB231E58 
 798      03AF4B55 
 799 2284 37DFE9F5 		.ascii	"7\337\351\365\332|\345\206z\250nb\250\365|\334\326\247\312:\253"
 799      DA7CE586 
 799      7AA86E62 
 799      A8F57CDC 
 799      D6A7CA3A 
 800 2299 9015538E 		.ascii	"\220\025S\216\006\374\t\n\332<\177\324]\372a&\242l\312\364\274"
 800      06FC090A 
 800      DA3C7FD4 
 800      5DFA6126 
 800      A26CCAF4 
 801 22ae 20CED650 		.ascii	" \316\326P\272\312B\227E\217w)\240\236\206%\245\263k\217N\007"
 801      BACA4297 
 801      458F7729 
 801      A09E8625 
 801      A5B36B8F 
 802 22c4 26B1DCBB 		.ascii	"&\261\334\273\311\232\016\310\0045?e\023\026\206\220Hv\252\222"
 802      C99A0EC8 
 802      04353F65 
 802      13168690 
 802      4876AA92 
 803 22d8 F660D728 		.ascii	"\366`\327(\204\2339t\320^\351\236\217!{\334>\316\340\336\224"
 803      849B3974 
 803      D05EE99E 
 803      8F217BDC 
 803      3ECEE0DE 
 804 22ed 24ACD55E 		.ascii	"$\254\325^\007\243M\215S\355\242\343l\352\377\r\007\271\235\321"
 804      07A34D8D 
 804      53EDA2E3 
 804      6CEAFF0D 
 804      07B99DD1 
 805 2301 09E99C36 		.ascii	"\t\351\2346\221P\223[\226\0027\226\375D\351\300\345U,\316\250"
 805      9150935B 
 805      96023796 
 805      FD44E9C0 
 805      E5552CCE 
 806 2316 0C67EE7E 		.ascii	"\fg\356~+j\360)\316\336\0358\"h\236\323\3644\262"
 806      2B6AF029 
 806      CEDE1D38 
 806      22689ED3 
 806      F434B2
 807 2329 F1B13C6C 		.string	"\361\261<l\030^\352\313\202\265H\321\221\255\326\270\255%\345\221i\217\200\212\025\243\35
 807      185EEACB 
 807      82B548D1 
 807      91ADD6B8 
 807      AD25E591 
 808 242a C1507C26 		.string	"\301P|&.\b\273.0L\377VX\260\212\255\305\277\302\234&cp\3726\013\322\377\275U\317\271o\256
 808      2E08BB2E 
 808      304CFF56 
 808      58B08AAD 
 808      C5BFC29C 
 809 24a6 9083CA40 		.ascii	"\220\203\312@\342#\255-\216\031\213\r\244\316^;\250\322i~\307"
 809      E223AD2D 
 809      8E198B0D 
 809      A4CE5E3B 
 809      A8D2697E 
 810 24bb EDDECA86 		.ascii	"\355\336\312\206\313g\204\332\265\267\207y@1\237;\273\301\321"
 810      CB6784DA 
 810      B5B78779 
 810      40319F3B 
 810      BBC1D1
 811 24ce F7D9F6FF 		.ascii	"\367\331\366\377\230i\035\275\313]\3115\017E\013\304"
 811      98691DBD 
 811      CB5DC935 
 811      0F450BC4 
 812 24de 2EF49759 		.string	".\364\227YG\274\353\365(\273\374\177D\314@\364\244\343\2437i%\272\377\342\223\251{4p\247\
 812      47BCEBF5 
 812      28BBFC7F 
 812      44CC40F4 
 812      A4E3A337 
 813 25df E28C141C 		.string	"\342\214\024\034I5w\\\276\\r\375\201J\333\373\322FS\314\200\273\202KbcCs\232\377\225B\016
 813      4935775C 
 813      BE5C72FD 
 813      814ADBFB 
 813      D24653CC 
 814 26a7 15515963 		.string	"\025QYc\275\004\037\320\037\313\30322ZA\006\341\221\272m\022\246}\025\210>Sw\360\200\002\
 814      BD041FD0 
 814      1FCBC332 
 814      325A4106 
 814      E191BA6D 
 815 26f2 5F39BF2D 		.ascii	"_9\277-\b\036<@\347~\273\2503(\004\2203\327\202\037\343'\325"
 815      081E3C40 
 815      E77EBBA8 
 815      33280490 
 815      33D7821F 
 816 2709 661C60F7 		.ascii	"f\034`\367\247\374\320"
 816      A7FCD0
 817 2710 626E18AD 		.ascii	"bn\030\255E\003Z\263\200;\377%N\320\021\317\300\315,\375\024"
 817      45035AB3 
 817      803BFF25 
 817      4ED011CF 
 817      C0CD2CFD 
 818 2725 E714E527 		.ascii	"\347\024\345'<tr\276x\211RU\262\\\343\256\301\257*\223(\277\332"
 818      3C7472BE 
 818      78895255 
 818      B25CE3AE 
 818      C1AF2A93 
 819 273c 50A95820 		.ascii	"P\251X \270oy\303\220\343\276\177\313\230m`s\032\311j7\022<y"
 819      B86F79C3 
 819      90E3BE7F 
 819      CB986D60 
 819      731AC96A 
 820 2754 96C4D8B3 		.ascii	"\226\304\330\263e\300R\037#\357\352E!R\026z\270\321i\003a\272"
 820      65C0521F 
 820      23EFEA45 
 820      2152167A 
 820      B8D16903 
 821 276a B5074A5A 		.ascii	"\265\007JZ;\307)\337\332\236\031\271\256Ht\320\361v1\321\217"
 821      3BC729DF 
 821      DA9E19B9 
 821      AE4874D0 
 821      F17631D1 
 822 277f BAB2FCF4 		.ascii	"\272\262\374\364\315|47J\333\307\351*\221\370\37366\215\270\221"
 822      CD7C3437 
 822      4ADBC7E9 
 822      2A91F8FB 
 822      36368DB8 
 823 2794 8916E4A7 		.ascii	"\211\026\344\247\3651\240X\3042_MZ\367v\023\255Uq\216\r\005\353"
 823      F531A058 
 823      C4325F4D 
 823      5AF77613 
 823      AD55718E 
 824 27ab B5F458C8 		.ascii	"\265\364X\310J\032n\005\347\373K\277\027/\234\276g\234\336)\016"
 824      4A1A6E05 
 824      E7FB4BBF 
 824      172F9CBE 
 824      679CDE29 
 825 27c0 39CAE498 		.ascii	"9\312\344\230\307L{\236\346mbC\0065\233Td\023\206\233n\034\215"
 825      C74C7B9E 
 825      E66D6243 
 825      06359B54 
 825      6413869B 
 826 27d7 6C80EAE5 		.ascii	"l\200\352\345\307\357S\313\341\260\362\322\371\207$f1\207j\312"
 826      C7EF53CB 
 826      E1B0F2D2 
 826      F9872466 
 826      31876ACA 
 827 27eb E598E139 		.ascii	"\345\230\3419\t\b\250)\345\377\223\330\013\261\221D\033\211\337"
 827      0908A829 
 827      E5FF93D8 
 827      0BB19144 
 827      1B89DF
 828 27fe 72A5A183 		.ascii	"r\245\241\203/\265\202\314`\373\230@\301\360\003\267\"7\347\\"
 828      2FB582CC 
 828      60FB9840 
 828      C1F003B7 
 828      2237E75C 
 829 2812 822F23CD 		.ascii	"\202/#\315\032\r\353\207\f\354c\252\206\210r\250\244R\343e\025"
 829      1A0DEB87 
 829      0CEC63AA 
 829      868872A8 
 829      A452E365 
 830 2827 D47645A6 		.ascii	"\324vE\246\264\300\2511\336\007j:\b\242\002]\201\003\236>z\334"
 830      B4C0A931 
 830      DE076A3A 
 830      08A2025D 
 830      81039E3E 
 831 283d BFA3C293 		.ascii	"\277\243\302\223>\271\233\312x+!\210\263]\245\210\270\024fR\007"
 831      3EB99BCA 
 831      782B2188 
 831      B35DA588 
 831      B8146652 
 832 2852 826915A5 		.ascii	"\202i\025\245\250\33308D\b\270:+\204\235_\2209u\2327\326\207"
 832      A8DB3038 
 832      4408B83A 
 832      2B849D5F 
 832      9039759A 
 833 2869 847BBD52 		.ascii	"\204{\275Re\"I\251w5F\354\273zL%^\024\270\311\377\252\370\343"
 833      652249A9 
 833      773546EC 
 833      BB7A4C25 
 833      5E14B8C9 
 834 2881 5CB44883 		.ascii	"\\\264H\203M\027r\345'}\244\016Uk\f\027\006!\340\2053\023\327"
 834      4D1772E5 
 834      277DA40E 
 834      556B0C17 
 834      0621E085 
 835 2898 CF16B180 		.ascii	"\317\026\261\200\357r\2330\376\260\203,:\225\307\206\272\220"
 835      EF729B30 
 835      FEB0832C 
 835      3A95C786 
 835      BA90
 836 28aa D38ECE7C 		.ascii	"\323\216\316|\346\255\336\271\0014\331\343X4a-6\2213\323\263"
 836      E6ADDEB9 
 836      0134D9E3 
 836      5834612D 
 836      369133D3 
 837 28bf 14A5F14D 		.ascii	"\024\245\361M\334G\277\220\f\345\222\274<w\260\025\371\253\315"
 837      DC47BF90 
 837      0CE592BC 
 837      3C77B015 
 837      F9ABCD
 838 28d2 BE2836E4 		.ascii	"\276(6\344a\263\005\200\316t\354\r%\323\341\306@\340\031\235"
 838      61B30580 
 838      CE74EC0D 
 838      25D3E1C6 
 838      40E0199D 
 839 28e6 613A1F1E 		.ascii	"a:\037\036\364B\233y\221 |6t\320\244t\\ \013Z(\030\276\026\361"
 839      F4429B79 
 839      91207C36 
 839      74D0A474 
 839      5C200B5A 
 840 28ff C521267F 		.ascii	"\305!&\177\212D\242\220\266\206\360\240>\tKo\326/\217\251\"\361"
 840      8A44A290 
 840      B686F0A0 
 840      3E094B6F 
 840      D62F8FA9 
 841 2915 CF28F7AC 		.ascii	"\317(\367\254\316\033\276H\242\177\351E\351\330r\312\261\362"
 841      CE1BBE48 
 841      A27FE945 
 841      E9D872CA 
 841      B1F2
 842 2927 85348C2E 		.ascii	"\2054\214.\230\362\362qyr\341\263\343\325\244\276\245\034\307"
 842      98F2F271 
 842      7972E1B3 
 842      E3D5A4BE 
 842      A51CC7
 843 293a D8F854F9 		.ascii	"\330\370T\371\241\241P-\033\231\211\372\300L\340\314$^xg\372"
 843      A1A1502D 
 843      1B9989FA 
 843      C04CE0CC 
 843      245E7867 
 844 294f 76ACB80F 		.ascii	"v\254\270\017v\376\347H\324\2011\216\246\334\to\003n\361n\032"
 844      76FEE748 
 844      D481318E 
 844      A6DC096F 
 844      036EF16E 
 845 2964 5579E9D4 		.ascii	"Uy\351\324\336\305\343\260\310\024v:\217\365*\253\t\232\023\372"
 845      DEC5E3B0 
 845      C814763A 
 845      8FF52AAB 
 845      099A13FA 
 846 2978 AA688472 		.ascii	"\252h\204rJh@F\272\022\215\022W\265\341O\"\347\007\357\342M,"
 846      4A684046 
 846      BA128D12 
 846      57B5E14F 
 846      22E707EF 
 847 298f 090EA06D 		.ascii	"\t\016\240m2\214\2162\234\335\017GI1\243o\360@\254;\312D\365"
 847      328C8E32 
 847      9CDD0F47 
 847      4931A36F 
 847      F040AC3B 
 848 29a6 77C09BDF 		.ascii	"w\300\233\337\tSP\207\"\210\304\327\231;\260\335\037HH\372\217"
 848      09535087 
 848      2288C4D7 
 848      993BB0DD 
 848      1F4848FA 
 849 29bb BA2E67E9 		.ascii	"\272.g\351\023\341z\006\230\354\345#,\242~\f\327\364\247\200"
 849      13E17A06 
 849      98ECE523 
 849      2CA27E0C 
 849      D7F4A780 
 850 29cf DEE32767 		.ascii	"\336\343'gJ\242j@J_\257\226v\036,|\\\314\2537\367\207\233\314"
 850      4AA26A40 
 850      4A5FAF96 
 850      761E2C7C 
 850      5CCCAB37 
 851 29e7 E3D1E042 		.ascii	"\343\321\340Bt\374\"~\300z4\272\032}j\271}l\252\021\333\020\304"
 851      74FC227E 
 851      C07A34BA 
 851      1A7D6AB9 
 851      7D6CAA11 
 852 29fe CDEE3A69 		.ascii	"\315\356:i\340\256\004G\351\221a\226+1\330\317\237\251\376\226"
 852      E0AE0447 
 852      E9916196 
 852      2B31D8CF 
 852      9FA9FE96 
 853 2a12 604CC479 		.ascii	"`L\304y\017(\353\373B\346\332\235\362\340#\232\214*\007\331\017"
 853      0F28EBFB 
 853      42E6DA9D 
 853      F2E0239A 
 853      8C2A07D9 
 854 2a27 1645221F 		.ascii	"\026E\"\037\2515\205\356\216\252\250\021i\037\357\311\311]\276"
 854      A93585EE 
 854      8EAAA811 
 854      691FEFC9 
 854      C95DBE
 855 2a3a 161E81FC 		.ascii	"\026\036\201\374;{\241\341/\264J\360y\216#\355\264c\255\306$"
 855      3B7BA1E1 
 855      2FB44AF0 
 855      798E23ED 
 855      B463ADC6 
 856 2a4f C82145B5 		.ascii	"\310!E\265\352\032\025'\370\331\007\371\325Ydd/\343Yh\315<\303"
 856      EA1A1527 
 856      F8D907F9 
 856      D5596464 
 856      2FE35968 
 857 2a66 9CEDB5C3 		.ascii	"\234\355\265\303\354\313z\255\b\344a)\0204\257\215\374\223|-"
 857      ECCB7AAD 
 857      08E46129 
 857      1034AF8D 
 857      FC937C2D 
 858 2a7a 2996E6AC 		.ascii	")\226\346\254]kp\004\333\352ob,\367:k\233\211\205\007Wb\\8V\252"
 858      5D6B7004 
 858      DBEA6F62 
 858      2CF73A6B 
 858      9B898507 
 859 2a94 A0B593FA 		.ascii	"\240\265\223\3720l\252\241\270\346\346\263v\212\320\200\332\212"
 859      306CAAA1 
 859      B8E6E6B3 
 859      768AD080 
 859      DA8A
 860 2aa6 E419B32E 		.ascii	"\344\031\263.+Aag\031=\306\221l\361pK\241\316_7\371\354\tp\342"
 860      2B416167 
 860      193DC691 
 860      6CF1704B 
 860      A1CE5F37 
 861 2abf C1F1EEB9 		.ascii	"\301\361\356\271\340(\233.m\016+SIaH\022HUI\335\270\270\022\246"
 861      E0289B2E 
 861      6D0E2B53 
 861      49614812 
 861      485549DD 
 862 2ad7 93F77836 		.ascii	"\223\367x6\203c\251\213\"\006\312\225\213w\340@\374'9\267\242"
 862      8363A98B 
 862      2206CA95 
 862      8B77E040 
 862      FC2739B7 
 863 2aec 2263539F 		.ascii	"\"cS\237\375e6J\244\2667X\366DA\363]D\351\343t\371X\033u4##\313"
 863      FD65364A 
 863      A4B63758 
 863      F64441F3 
 863      5D44E9E3 
 864 2b09 60D2703F 		.ascii	"`\322p?\224Pa\211\033\242l\361n\345\201\177\252P\t\225\264e\017"
 864      94506189 
 864      1BA26CF1 
 864      6EE5817F 
 864      AA500995 
 865 2b20 079D4CF8 		.ascii	"\007\235L\370\025&\252;\313\240\270\3437.\341\035D\347\215\355"
 865      1526AA3B 
 865      CBA0B8E3 
 865      372EE11D 
 865      44E78DED 
 866 2b34 47D06CA4 		.ascii	"G\320l\244,`W\214\224\036\342\273\n\211\214'-\356\036 \241\266"
 866      2C60578C 
 866      941EE2BB 
 866      0A898C27 
 866      2DEE1E20 
 867 2b4a C4F24F54 		.ascii	"\304\362OT\036\310C\036=\2622\026\025w\357\263\306\005\247!\036"
 867      1EC8431E 
 867      3DB23216 
 867      1577EFB3 
 867      C605A721 
 868 2b5f 3F3DB6DE 		.ascii	"?=\266\336$\312\326\023\205:\237\033U\325iN#\224_`\036\267\240"
 868      24CAD613 
 868      853A9F1B 
 868      55D5694E 
 868      23945F60 
 869 2b76 79BC0883 		.ascii	"y\274\b\203\232\033|<\332\210\\\376\356v\376x\240\350n\025-\240"
 869      9A1B7C3C 
 869      DA885CFE 
 869      EE76FE78 
 869      A0E86E15 
 870 2b8c EFBDE802 		.ascii	"\357\275\350\002\341\320w\306D\307\302\326O/#=\257)Sdq\344p\341"
 870      E1D077C6 
 870      44C7C2D6 
 870      4F2F233D 
 870      AF295364 
 871 2ba4 F8E7DC6B 		.ascii	"\370\347\334k\b\266\300\320\312\331\3441S\324\350.|\305\316\002"
 871      08B6C0D0 
 871      CAD9E431 
 871      53D4E82E 
 871      7CC5CE02 
 872 2bb8 DD524B99 		.ascii	"\335RK\231(\363\312J3\344\261\342\356\321=\365\242\230\342K\351"
 872      28F3CA4A 
 872      33E4B1E2 
 872      EED13DF5 
 872      A298E24B 
 873 2bcd 27FFBA56 		.ascii	"'\377\272V\320\013X\371E-\342\251\024U\340\261"
 873      D00B58F9 
 873      452DE2A9 
 873      1455E0B1 
 874 2bdd 0840CEE0 		.string	"\b@\316\340\377\313\003h>\307\035\222J)\311\200t\260w\316\377,o\377\216\352\356j\303\336\
 874      FFCB0368 
 874      3EC71D92 
 874      4A29C980 
 874      74B077CE 
 875 2cde 8236C03B 		.ascii	"\2026\300;0\267\373{\353\310\032"
 875      30B7FB7B 
 875      EBC81A
 876 2ce9 D4D8CDD1 		.string	"\324\330\315\321\bh\346>\034\310dX\264A.\325\377\005\367\261\202\214\367\026_c\035$\243\3
 876      0868E63E 
 876      1CC86458 
 876      B4412ED5 
 876      FF05F7B1 
 877 2dea 3005F666 		.string	"0\005\366f\206\270\032=\325\3322\227\027\0047\307\2644k\241\2227\222ph\260k\337}^'\241\35
 877      86B81A3D 
 877      D5DA3297 
 877      170437C7 
 877      B4346BA1 
 878 2e4a D429E333 		.ascii	"\324)\3433\211\036\340]Zsx\355<\231\335J<\013N\226\257\034\224"
 878      891EE05D 
 878      5A7378ED 
 878      3C99DD4A 
 878      3C0B4E96 
 879 2e61 CAE081BE 		.ascii	"\312\340\201\276l\216=G\\\372CR=\020\376\301\327E\256\316\013"
 879      6C8E3D47 
 879      5CFA4352 
 879      3D10FEC1 
 879      D745AECE 
 880 2e76 D766568B 		.ascii	"\327fV\213\033\263\223\316\037\002\313j\216H\277\352\315\265"
 880      1BB393CE 
 880      1F02CB6A 
 880      8E48BFEA 
 880      CDB5
 881 2e88 58CED10F 		.ascii	"X\316\321\017YE\\\323\tq\001\030\273\230\022\261\324\fC\007["
 881      59455CD3 
 881      09710118 
 881      BB9812B1 
 881      D40C4307 
 882 2e9d B1B16EB8 		.ascii	"\261\261n\270|Q\236\335\257\250\300>g\314\200H\233WJ\340<\035"
 882      7C519EDD 
 882      AFA8C03E 
 882      67CC8048 
 882      9B574AE0 
 883 2eb3 0C6D4D96 		.ascii	"\fmM\2268\200\256r\215`'=\223$\322\203\353\230@\003\263\275\305"
 883      3880AE72 
 883      8D60273D 
 883      9324D283 
 883      EB984003 
 884 2eca 763B931E 		.ascii	"v;\223\036\003\240<#5n*\214\250\033r\361\330\021\234\300A\217"
 884      03A03C23 
 884      356E2A8C 
 884      A81B72F1 
 884      D8119CC0 
 885 2ee0 A1B4A743 		.string	"\241\264\247C\301+-\222\nES\321\312\340\3549\347f\377\362\223\2273\221\0254\323p)\274L\32
 885      C12B2D92 
 885      0A4553D1 
 885      CAE0EC39 
 885      E766FFF2 
 886 2f09 7062997E 		.ascii	"pb\231~6\357\217\342a\217/m\332\252a\367^\237\3249 xq|\373\b"
 886      36EF8FE2 
 886      618F2F6D 
 886      DAAA61F7 
 886      5E9FD439 
 887 2f23 B23F2D87 		.ascii	"\262?-\207}\212\370ze[\324\217\\\306={\245\016\215{\256\256\232"
 887      7D8AF87A 
 887      655BD48F 
 887      5CC63D7B 
 887      A50E8D7B 
 888 2f3a DD153A44 		.ascii	"\335\025:D$\217\356\337\206\3704\267\232\355`\212\\\246|\265"
 888      248FEEDF 
 888      86F834B7 
 888      9AED608A 
 888      5CA67CB5 
 889 2f4e 6D6DF6E6 		.ascii	"mm\366\3464]\276 [\036\023/Qo\230I-\330\215\235\365^\230\330"
 889      345DBE20 
 889      5B1E132F 
 889      516F9849 
 889      2DD88D9D 
 890 2f66 D3F0BA29 		.ascii	"\323\360\272)U}\310\330\316hh\364Jp\t&\036\rD\215\325\343\306"
 890      557DC8D8 
 890      CE6868F4 
 890      4A700926 
 890      1E0D448D 
 891 2f7d 12D00AE8 		.ascii	"\022\320\n\350\371\204i\253:"
 891      F98469AB 
 891      3A
 892 2f86 7B277CD2 		.string	"{'|\322\f\f\250\023\244\317u\251^h!\357\372\223d\235\303q\"\207\366u_\214\302\324\370c\26
 892      0C0CA813 
 892      A4CF75A9 
 892      5E6821EF 
 892      FA93649D 
 893 3087 C8BE230F 		.string	"\310\276#\017z0\t\207\271\320\364G\024\220)v\030\013\020\225\"'i\030\340\021\321\305\250\
 893      7A300987 
 893      B9D0F447 
 893      14902976 
 893      180B1095 
 894 3117 D3588A07 		.ascii	"\323X\212\007^\365\263\024\033\003\266y\nHg\362i9\327\bT\207"
 894      5EF5B314 
 894      1B03B679 
 894      0A4867F2 
 894      6939D708 
 895 312d 7AEE8EDA 		.ascii	"z\356\216\332\253\326\372\302_^S\271\247\200c\251\013\264\213"
 895      ABD6FAC2 
 895      5F5E53B9 
 895      A78063A9 
 895      0BB48B
 896 3140 94CF22B4 		.ascii	"\224\317\"\264\242\nz\366C;XD\342\235p\027\352\020\261b\250w"
 896      A20A7AF6 
 896      433B5844 
 896      E29D7017 
 896      EA10B162 
 897 3156 13538D0B 		.ascii	"\023S\215\013\2512/\340\023n\347\210\236\025\223x;\233\224\021"
 897      A9322FE0 
 897      136EE788 
 897      9E159378 
 897      3B9B9411 
 898 316a E61A951A 		.ascii	"\346\032\225\032\212\245\025\323qH\2610ZN\304\267_\313\221\261"
 898      8AA515D3 
 898      7148B130 
 898      5A4EC4B7 
 898      5FCB91B1 
 899 317e CF1989AD 		.ascii	"\317\031\211\255\265\373\271\342\224\213\221\247\243E\333\031"
 899      B5FBB9E2 
 899      948B91A7 
 899      A345DB19 
 900 318e 30DF9D85 		.ascii	"0\337\235\205\\\361\244\253\214G\370\236P2\337\350\262?p\313"
 900      5CF1A4AB 
 900      8C47F89E 
 900      5032DFE8 
 900      B23F70CB 
 901 31a2 9B0D9480 		.ascii	"\233\r\224\200\262-\345>\374\370`5=\236!\251&F\"yG\344\211\320"
 901      B22DE53E 
 901      FCF86035 
 901      3D9E21A9 
 901      26462279 
 902 31ba 145B46F6 		.ascii	"\024[F\366\247\377\342\036\355\005g\023\213\037\210\025\b3\272"
 902      A7FFE21E 
 902      ED056713 
 902      8B1F8815 
 902      0833BA
 903 31cd C0334574 		.ascii	"\3003Et\306\324\230E\001h\270\374k\274I'\214i\207\245_)\323\f"
 903      C6D49845 
 903      0168B8FC 
 903      6BBC4927 
 903      8C6987A5 
 904 31e5 F269ABBE 		.ascii	"\362i\253\276\223\244e\021\201\027\210E\017\2246\005\200Vm\260"
 904      93A46511 
 904      81178845 
 904      0F943605 
 904      80566DB0 
 905 31f9 3D5A445A 		.ascii	"=ZDZnvu\276\t\366\211y\036I2\245\363\2219$\203\020N\241\377L"
 905      6E7675BE 
 905      09F68979 
 905      1E4932A5 
 905      F3913924 
 906 3213 CA47A579 		.ascii	"\312G\245y\236\372\307\\&\030\t\n\036\177&\nY\016+\232\320\331"
 906      9EFAC75C 
 906      2618090A 
 906      1E7F260A 
 906      590E2B9A 
 907 3229 2591EE28 		.ascii	"%\221\356(\326l\346\t\340\216\323(\361RTD\2102\261\213OW\302"
 907      D66CE609 
 907      E08ED328 
 907      F1525444 
 907      8832B18B 
 908 3240 B667B72F 		.ascii	"\266g\267/I\235\036\233|\344ipnPZP\002\371\t\315\357h\377MJ\373"
 908      499D1E9B 
 908      7CE46970 
 908      6E505A50 
 908      02F909CD 
 909 325a BD7F7FDA 		.ascii	"\275\177\177\332h\352\023q\332@\247\355\3152zaj\177A\003@\017"
 909      68EA1371 
 909      DA40A7ED 
 909      CD327A61 
 909      6A7F4103 
 910 3270 288F6D56 		.ascii	"(\217mV\313\331\362^\276/\245\021\226\374\f\r?C\344\345\245\237"
 910      CBD9F25E 
 910      BE2FA511 
 910      96FC0C0D 
 910      3F43E4E5 
 911 3286 915DDBBB 		.ascii	"\221]\333\2731j\321\3054X^&w\013\355\350\376\ry\343k\223\323"
 911      316AD1C5 
 911      34585E26 
 911      770BEDE8 
 911      FE0D79E3 
 912 329d A6D14387 		.ascii	"\246\321C\207$\206A\366\036\205\202el\203\231\330b\373\200\032"
 912      248641F6 
 912      1E858265 
 912      6C8399D8 
 912      62FB801A 
 913 32b1 C54A05D1 		.ascii	"\305J\005\321\275\307\376\333\314\262\2724n{#>E\n\235\375\363"
 913      BDC7FEDB 
 913      CCB2BA34 
 913      6E7B233E 
 913      450A9DFD 
 914 32c6 E667CA71 		.ascii	"\346g\312q\310\367\212<_c\310lP\b\220\274:\254\314\377\211\277"
 914      C8F78A3C 
 914      5F63C86C 
 914      500890BC 
 914      3AACCCFF 
 915 32dc 1A040F56 		.ascii	"\032\004\017V\364p\261\3503x\320\2512_\315\207\334\231\320\347"
 915      F470B1E8 
 915      3378D0A9 
 915      325FCD87 
 915      DC99D0E7 
 916 32f0 765653A9 		.ascii	"vVS\251\322Y$\007\2039s\033)\237\2578\321\316aU&&\217\032\267"
 916      D2592407 
 916      8339731B 
 916      299FAF38 
 916      D1CE6155 
 917 3309 23748947 		.ascii	"#t\211G?\r\244a\263Q\b\273\244\326\222\312.\201~b<\302!\250:"
 917      3F0DA461 
 917      B35108BB 
 917      A4D692CA 
 917      2E817E62 
 918 3322 BB4A7D0F 		.ascii	"\273J}\017\366I\357Q\230\020\034\\\317+\255@l}.\352\352\330-"
 918      F649EF51 
 918      98101C5C 
 918      CF2BAD40 
 918      6C7D2EEA 
 919 3339 7A26386C 		.ascii	"z&8l\253\035\245"
 919      AB1DA5
 920 3340 D0A996C5 		.string	"\320\251\226\305\244i\204\177Y\234jQ:\034\301A\207\251F\017\246\252\034;n\316\370w\344\23
 920      A469847F 
 920      599C6A51 
 920      3A1CC141 
 920      87A9460F 
 921 3441 E17B1BBE 		.string	"\341{\033\276\225q\327\236\313\303\037\225\236\365\372Fb\311\372\366\224\377Q\372\263\035
 921      9571D79E 
 921      CBC31F95 
 921      9EF5FA46 
 921      62C9FAF6 
 922 3490 7596738A 		.string	"u\226s\212Z\226\"\346\032\340Z\001aF\232F\254\324\356S\243c\020\214\244\326t\306\271\252\
 922      5A9622E6 
 922      1AE05A01 
 922      61469A46 
 922      ACD4EE53 
 923 352a 46661623 		.string	"Ff\026#\f\262\314"
 923      0CB2CC00 
 924 3532 D2D04A94 		.string	"\322\320J\224\2356-1\250\377\223\277dO\313\376:b\257\035\260}\3461k;H\215\326\340Q\274\23
 924      9D362D31 
 924      A8FF93BF 
 924      644FCBFE 
 924      3A62AF1D 
 925 3579 958A5F4B 		.ascii	"\225\212_KB\201J+\254X\321?\024\342W\034\202#xaX\013\034X#\300"
 925      42814A2B 
 925      AC58D13F 
 925      14E2571C 
 925      82237861 
 926 3593 1C99FC75 		.ascii	"\034\231\374un\210\020\215\245\3603s\2555#\337\362\323#`9Q\324"
 926      6E88108D 
 926      A5F03373 
 926      AD3523DF 
 926      F2D32360 
 927 35aa 6746997B 		.ascii	"gF\231{\343\033T\334\037\263Z\"\024\355b\364\357\226\370\nS\301"
 927      E31B54DC 
 927      1FB35A22 
 927      14ED62F4 
 927      EF96F80A 
 928 35c0 92E246DF 		.ascii	"\222\342F\337`\203@\254\271H\212OBU\t\216\031\017\376\n\2620"
 928      608340AC 
 928      B9488A4F 
 928      4255098E 
 928      190FFE0A 
 929 35d6 6509E9F8 		.ascii	"e\t\351\370=O\210\030d\f\222\357db\366\206\325\253]e\356P\362"
 929      3D4F8818 
 929      640C92EF 
 929      6462F686 
 929      D5AB5D65 
 930 35ed 2E901D03 		.ascii	".\220\035\003\277\351\2475\313\323\006\327\006\210\224\026{\362"
 930      BFE9A735 
 930      CBD306D7 
 930      06889416 
 930      7BF2
 931 35ff 83F10A1F 		.ascii	"\203\361\n\037\352w\262.&}\270?\261\210[\253\271rs\324\340$\200"
 931      EA77B22E 
 931      267DB83F 
 931      B1885BAB 
 931      B97273D4 
 932 3616 DD367673 		.ascii	"\3356vs`\342j\024\355+>\262\037\274\024\221\307\254\022\234\310"
 932      60E26A14 
 932      ED2B3EB2 
 932      1FBC1491 
 932      C7AC129C 
 933 362b 4FB56C7C 		.ascii	"O\265l|yA\342~+\202\371@p\276+\033|\236\3770\311\033\202\271"
 933      7941E27E 
 933      2B82F940 
 933      70BE2B1B 
 933      7C9EFF30 
 934 3643 19B41394 		.ascii	"\031\264\023\224\210\233\270\373\310\036J\016\252\f\211\001'"
 934      889BB8FB 
 934      C81E4A0E 
 934      AA0C8901 
 934      27
 935 3654 58323A70 		.ascii	"X2:plsZ\321\323$\006\277\331f\302\352\326\025\030J\335\233\246"
 935      6C735AD1 
 935      D32406BF 
 935      D966C2EA 
 935      D615184A 
 936 366b 9FDB83B7 		.ascii	"\237\333\203\267O\003\002Z\265I\345\001\247/\374\355\013\021"
 936      4F03025A 
 936      B549E501 
 936      A72FFCED 
 936      0B11
 937 367d A3352EBA 		.ascii	"\2435.\272\264m\270d\201\257'a\353~t[O\261PqV\334&x\b\346.g\214"
 937      B46DB864 
 937      81AF2761 
 937      EB7E745B 
 937      4FB15071 
 938 369a 57BD8274 		.ascii	"W\275\202t\334\321\321\264\200\332\205\216\277\264\353\217\304"
 938      DCD1D1B4 
 938      80DA858E 
 938      BFB4EB8F 
 938      C4
 939 36ab 3DAA0FD2 		.ascii	"=\252\017\322#"
 939      23
 940 36b0 FBA19BB7 		.string	"\373\241\233\267th\222\217\313k\362w\0220%J\20593\037\337\357l.u\327\212\031\276\212"
 940      7468928F 
 940      CB6BF277 
 940      1230254A 
 940      8539331F 
 941 36cf B6352180 		.string	"\2665!\200\003\013\254\323jC\335A\024\362\242\2015w\273\315ai|\317! M\251n\321\177\327\36
 941      030BACD3 
 941      6A43DD41 
 941      14F2A281 
 941      3577BBCD 
 942 3796 D20C9722 		.string	"\322\f\227\"\225\225\247\366\230\363\204h\036\305U\360\300\016p\013\247o\r@>\223h\373\232
 942      9595A7F6 
 942      98F38468 
 942      1EC555F0 
 942      C00E700B 
 943 37d4 FE49B335 		.string	"\376I\2635"
 943      00
 944 37d9 B8937C6C 		.ascii	"\270\223|l\262S\017\026\b\254\204\270~\2534\263Q\303?\250tH\304"
 944      B2530F16 
 944      08AC84B8 
 944      7EAB34B3 
 944      51C33FA8 
 945 37f0 82F818E6 		.ascii	"\202\370\030\346\034\351\226N\2402\034|g\244\245\204C\266\017"
 945      1CE9964E 
 945      A0321C7C 
 945      67A4A584 
 945      43B60F
 946 3803 FF5CC130 		.ascii	"\377\\\3010\300\030\033\257&\260\373\203\330(\234&\230V\212i"
 946      C0181BAF 
 946      26B0FB83 
 946      D8289C26 
 946      98568A69 
 947 3817 7E5B3794 		.ascii	"~[7\224\374\254\201\231\244\254\251\300\265\225\022'\026\274"
 947      FCAC8199 
 947      A4ACA9C0 
 947      B5951227 
 947      16BC
 948 3829 FA4A3863 		.ascii	"\372J8c^\321M\221\332'\215\323\t\250\265\b\224\345\347\322\232"
 948      5ED14D91 
 948      DA278DD3 
 948      09A8B508 
 948      94E5E7D2 
 949 383e 2EE21CDF 		.ascii	".\342\034\337\262\255\263\254\213\370bC\314\032\331P\313\025"
 949      B2ADB3AC 
 949      8BF86243 
 949      CC1AD950 
 949      CB15
 950 3850 9B3C8340 		.ascii	"\233<\203@\246|\200\027,M\217\220\265\267\376o\354\244\307\253"
 950      A67C8017 
 950      2C4D8F90 
 950      B5B7FE6F 
 950      ECA4C7AB 
 951 3864 87753F91 		.ascii	"\207u?\221\276\370eC\340\255\316\344\354\245\320\366&X\271\030"
 951      BEF86543 
 951      E0ADCEE4 
 951      ECA5D0F6 
 951      2658B918 
 952 3878 70316035 		.ascii	"p1`5\022\350\033(\206\377\330A@\265\312\237\270%\351(\bP\316"
 952      12E81B28 
 952      86FFD841 
 952      40B5CA9F 
 952      B825E928 
 953 388f 281EE4BD 		.ascii	"(\036\344\275}|[,JO\274W\016\341\373\027\021\361\231e\030p\245"
 953      7D7C5B2C 
 953      4A4FBC57 
 953      0EE1FB17 
 953      11F19965 
 954 38a6 45FDD0E3 		.ascii	"E\375\320\343w\030%\324 h\247t\224\322T\3612\007\301\2106%\035"
 954      771825D4 
 954      2068A774 
 954      94D254F1 
 954      3207C188 
 955 38bd 7A056578 		.ascii	"z\005ex\373\004\317)\250\376av\367\273\322y\\w\350\013\277k\353"
 955      FB04CF29 
 955      A8FE6176 
 955      F7BBD279 
 955      5C77E80B 
 956 38d4 E79D1FAC 		.ascii	"\347\235\037\254]-z\304\rf\234M\211\312\206\273\013\275\026\225"
 956      5D2D7AC4 
 956      0D669C4D 
 956      89CA86BB 
 956      0BBD1695 
 957 38e8 1F74F75F 		.ascii	"\037t\367_u\230vj\025a\345\233\242\201{\333Y4f\270\202$\212\020"
 957      7598766A 
 957      1561E59B 
 957      A2817BDB 
 957      593466B8 
 958 3900 B06D9AC8 		.ascii	"\260m\232\310B\nx\267\221\024\247a\345\037\202\252l\315\370l"
 958      420A78B7 
 958      9114A761 
 958      E51F82AA 
 958      6CCDF86C 
 959 3914 20DA306E 		.ascii	" \3320n\033\321\246\2564\236\255\024\333!"
 959      1BD1A6AE 
 959      349EAD14 
 959      DB21
 960 3922 75BA8615 		.string	"u\272\206\025\312\025n\312\252\243\374\177\366\001\360\343<\300y\021\233S\021e\334K@\237\
 960      CA156ECA 
 960      AAA3FC7F 
 960      F601F0E3 
 960      3CC07911 
 961 3a23 C04423DA 		.string	"\300D#\332\261\200o;\345\343\234\265A|\303\255\f\2648\234U?\257\272,\213\032z\267\273\351
 961      B1806F3B 
 961      E5E39CB5 
 961      417CC3AD 
 961      0CB4389C 
 962 3ad6 797C3599 		.string	"y|5\231%\277\274z\ni\2758\370&\316h\372\202\tP\303b\340y\317v\033*\312@Scg#\343\220>\245\
 962      25BFBC7A 
 962      0A69BD38 
 962      F826CE68 
 962      FA820950 
 963 3b53 CE0DDEB8 		.string	"\316\r\336\270f\024!r\223\307U\013\263\364T\261!\026\315:\272\030q\345\272\263>%\240\345\
 963      66142172 
 963      93C7550B 
 963      B3F454B1 
 963      2116CD3A 
 964 3c49 3F558BAC 		.string	"?U\213\254\346w8\363\370\355\234$\242%+Q\354\217\234\345\270B\245\253v3e\340G\344\214\221
 964      E67738F3 
 964      F8ED9C24 
 964      A2252B51 
 964      EC8F9CE5 
 965 3c7b 04F8DA88 		.ascii	"\004\370\332\210M\334\212\241\036=\312<\030\2433i\266\016j\221"
 965      4DDC8AA1 
 965      1E3DCA3C 
 965      18A33369 
 965      B60E6A91 
 966 3c8f AFD46CD5 		.ascii	"\257\324l\325"
 967 3c93 88675021 		.string	"\210gP!\314\036\021_\277\211Mi\252\347\231\350\3240\335\357h\236\202kx\335E_j\326.\3366?\
 967      CC1E115F 
 967      BF894D69 
 967      AAE799E8 
 967      D430DDEF 
 968 3d94 E8777FA5 		.ascii	"\350w\177\245a\244\030(q\226y\327\2172\254\306\30775#N?\002\330"
 968      61A41828 
 968      719679D7 
 968      8F32ACC6 
 968      C7373523 
 969 3dac 01379352 		.ascii	"\0017\223R\327\364\304\022G\347\365\276\230\254\374*)\276\304"
 969      D7F4C412 
 969      47E7F5BE 
 969      98ACFC2A 
 969      29BEC4
 970 3dbf 7FA6C14F 		.ascii	"\177\246\301O\215\226\302\235\331\214'\231\033e\216\210\316\335"
 970      8D96C29D 
 970      D98C2799 
 970      1B658E88 
 970      CEDD
 971 3dd1 0BE942C8 		.ascii	"\013\351B\310\305\036\261\357\206E\215\232\234\223\r\255\237"
 971      C51EB1EF 
 971      86458D9A 
 971      9C930DAD 
 971      9F
 972 3de2 6A45D995 		.ascii	"jE\331\225\236\307H\036\306\224\253\267-|\243\215^\336\202\300"
 972      9EC7481E 
 972      C694ABB7 
 972      2D7CA38D 
 972      5EDE82C0 
 973 3df6 826672DA 		.ascii	"\202fr\332\024\274\\\300!\331\250\307~&\030r\004\250\261?\177"
 973      14BC5CC0 
 973      21D9A8C7 
 973      7E261872 
 973      04A8B13F 
 974 3e0b DF46CF08 		.ascii	"\337F\317\bN\025{\353$\200ed6\027\001\270H \275\226\371g\211"
 974      4E157BEB 
 974      24806564 
 974      361701B8 
 974      4820BD96 
 975 3e22 D48E35DC 		.ascii	"\324\2165\334\253\007\234\217l7Q\322\022\321\355\274.\271\034"
 975      AB079C8F 
 975      6C3751D2 
 975      12D1EDBC 
 975      2EB91C
 976 3e35 0EACF5AA 		.ascii	"\016\254\365\252\206@\320]:K\253\t\235\337eU\253\033qT\236\240"
 976      8640D05D 
 976      3A4BAB09 
 976      9DDF6555 
 976      AB1B7154 
 977 3e4b 4125100B 		.ascii	"A%\020\0133\013\255hp\r\222J\236\225\234\210\242i\321,\223\246"
 977      330BAD68 
 977      700D924A 
 977      9E959C88 
 977      A269D12C 
 978 3e61 4B058204 		.ascii	"K\005\202\004\021\362%\n'\001\311\333SJ\377t$dfI\320\276\034"
 978      11F2250A 
 978      2701C9DB 
 978      534AFF74 
 978      24646649 
 979 3e78 A747ACEB 		.ascii	"\247G\254\353\245\330\024\306"
 979      A5D814C6 
 980 3e80 6E37E3D5 		.string	"n7\343\325\305\273\256\345\0207\313spu\303\253A\214\356\347x'WV\252nL\306\372\334\376\324
 980      C5BBAEE5 
 980      1037CB73 
 980      7075C3AB 
 980      418CEEE7 
 981 3f07 EE11CA8B 		.ascii	"\356\021\312\213M\304\327Po#\n7a@<\213\013\326K\236M l*%\354"
 981      4DC4D750 
 981      6F230A37 
 981      61403C8B 
 981      0BD64B9E 
 982 3f21 F3F099BD 		.ascii	"\363\360\231\275\315\222\214\nCE\270-\200\021\346f"
 982      CD928C0A 
 982      4345B82D 
 982      8011E666 
 983 3f31 92C4C7C8 		.string	"\222\304\307\310(\230[\353 \026\232\265\364q\2338c\235\225\355\215F\237\020\260\004\027\3
 983      28985BEB 
 983      20169AB5 
 983      F4719B38 
 983      639D95ED 
 984 4032 DA790C9F 		.ascii	"\332y\f\237j:\302\350\252\207\031\004\370YJ\222r\334K\333\224"
 984      6A3AC2E8 
 984      AA871904 
 984      F8594A92 
 984      72DC4BDB 
 985 4047 E89121EA 		.ascii	"\350\221!\352\230\261Fp0\254\3159\030\025p2\b\313\253\303\246"
 985      98B14670 
 985      30ACCD39 
 985      18157032 
 985      08CBABC3 
 986 405c D34F5DED 		.ascii	"\323O]\355s}\350\2455t\337\262i\315\216\222x\276 i\264\272\024"
 986      737DE8A5 
 986      3574DFB2 
 986      69CD8E92 
 986      78BE2069 
 987 4073 316FAB08 		.ascii	"1o\253\b:\332\267\351\271\366\026\034.\347\237v\365\221\037\337"
 987      3ADAB7E9 
 987      B9F6161C 
 987      2EE79F76 
 987      F5911FDF 
 988 4087 80C40862 		.ascii	"\200\304\bb\207R\260\n}\214SR\236\233\030\336\332\310\217ir\313"
 988      8752B00A 
 988      7D8C5352 
 988      9E9B18DE 
 988      DAC88F69 
 989 409d E220CE54 		.ascii	"\342 \316T\304G\365K"
 989      C447F54B 
 990 40a5 4927CA88 		.string	"I'\312\210\315J\002\236F}2\203\330q\2650\271\205XO\375\022\201\255\245\324\323\233T\232\2
 990      CD4A029E 
 990      467D3283 
 990      D871B530 
 990      B985584F 
 991 41a6 E8A11CB7 		.string	"\350\241\034\267g,\2676\030\031,\207\3614o\300nvU\270\352#\3426\357\331U\b\213\322\202.\2
 991      672CB736 
 991      18192C87 
 991      F1346FC0 
 991      6E7655B8 
 992 424e 9CEE221D 		.string	"\234\356\"\035}e~\354\221\237\306\323\313\215\031\305\270\200n\031\234Yv9@h\273\005\241\3
 992      7D657EEC 
 992      919FC6D3 
 992      CB8D19C5 
 992      B8806E19 
 993 42dc FD1DD57B 		.string	"\375\035\325{\"m\306v\241b\346\003:(\026\350\205\006q\267\"\372\345p\2753\370j\001w\303!\
 993      226DC676 
 993      A162E603 
 993      3A2816E8 
 993      850671B7 
 994 4321 ED93B6D8 		.string	"\355\223\266\330D\\\2552b\276\030\225I\307\340e\004\331\353u\366\207\032g\342\265\252\265
 994      445CAD32 
 994      62BE1895 
 994      49C7E065 
 994      04D9EB75 
 995 4348 7A0BE716 		.ascii	"z\013\347\026\216\224\366\t\366\322\216\371\375\334\005\354F"
 995      8E94F609 
 995      F6D28EF9 
 995      FDDC05EC 
 995      46
 996 4359 9B6FD0BF 		.ascii	"\233o\320\277\352\001\036Q\177\3631K\303\205:\244(|}K@Q\007\210"
 996      EA011E51 
 996      7FF3314B 
 996      C3853AA4 
 996      287C7D4B 
 997 4371 AC132D53 		.ascii	"\254\023-S\360\353\314\223\271\373\206=E\224\335\210V\337\036"
 997      F0EBCC93 
 997      B9FB863D 
 997      4594DD88 
 997      56DF1E
 998 4384 9B8EE71D 		.ascii	"\233\216\347\035D\2730w}\241nBV*\031ssZ\333\361\306\277\013\350"
 998      44BB3077 
 998      7DA16E42 
 998      562A1973 
 998      735ADBF1 
 999 439c BE3E4872 		.ascii	"\276>Hr \275B{\317\177\007K\216?v\020F\205\374\304\266+<\215"
 999      20BD427B 
 999      CF7F074B 
 999      8E3F7610 
 999      4685FCC4 
 1000 43b4 9659895A 		.ascii	"\226Y\211Z\222\265M\243b\205\303\3409eQ\340\037\017PE\005\004"
 1000      92B54DA3 
 1000      6285C3E0 
 1000      396551E0 
 1000      1F0F5045 
 1001 43ca FACC1993 		.ascii	"\372\314\031\223\275\327s\202\267\243^&Ul\026\217u\226\023\254"
 1001      BDD77382 
 1001      B7A35E26 
 1001      556C168F 
 1001      759613AC 
 1002 43de 12B4A1D9 		.ascii	"\022\264\241\331\224\302\343\247\243\330\337\245\217\037\007"
 1002      94C2E3A7 
 1002      A3D8DFA5 
 1002      8F1F07
 1003 43ed 52F851CD 		.ascii	"R\370Q\315^\241K0\263g5\226g}\020s\240\316\177\260\220\203\333"
 1003      5EA14B30 
 1003      B3673596 
 1003      677D1073 
 1003      A0CE7FB0 
 1004 4404 F64DBF2D 		.ascii	"\366M\277-\227 \266\002]\324\250lS@,\004f\307\237,p\374\351\353"
 1004      9720B602 
 1004      5DD4A86C 
 1004      53402C04 
 1004      66C79F2C 
 1005 441c 79A9031D 		.ascii	"y\251\003\035\273\004\334*\222U<\025\245\215\031\034&\351A=-"
 1005      BB04DC2A 
 1005      92553C15 
 1005      A58D191C 
 1005      26E9413D 
 1006 4431 8C47B168 		.ascii	"\214G\261hl1\r>Eh\325`\232\230TAaN\036\177\r7\247\250\322\236"
 1006      6C310D3E 
 1006      4568D560 
 1006      9A985441 
 1006      614E1E7F 
 1007 444b D00A68C1 		.ascii	"\320\nh\301\343t\221\374\257\372\377P\3536\t\321\377\213\341"
 1007      E37491FC 
 1007      AFFAFF50 
 1007      EB3609D1 
 1007      FF8BE1
 1008 445e E6968CAF 		.ascii	"\346\226\214\257D\314\354p\371\025\330\237\232\307\350\227XF"
 1008      44CCEC70 
 1008      F915D89F 
 1008      9AC7E897 
 1008      5846
 1009 4470 AFE8E978 		.ascii	"\257\350\351x\240\207,\272wg\263[d\346\013gf\267\261dma\325L"
 1009      A0872CBA 
 1009      7767B35B 
 1009      64E60B67 
 1009      66B7B164 
 1010 4488 9831D263 		.ascii	"\2301\322c\266\2600U\301b\026\324\333\236\333\2307CP\320\366"
 1010      B6B03055 
 1010      C16216D4 
 1010      DB9EDB98 
 1010      374350D0 
 1011 449d BECD51F2 		.ascii	"\276\315Q\362\030\016\327\345B\023\235%z\006\034\021\316\024"
 1011      180ED7E5 
 1011      42139D25 
 1011      7A061C11 
 1011      CE14
 1012 44af 2D02D477 		.ascii	"-\002\324w\242\210\312\017\026Md\306\253P\335\36050\0321JD\272"
 1012      A288CA0F 
 1012      164D64C6 
 1012      AB50DDF0 
 1012      35301A31 
 1013 44c6 491CB0C3 		.ascii	"I\034\260\303\003\236\342\376R\201\256\316\262\237K\017\363\313"
 1013      039EE2FE 
 1013      5281AECE 
 1013      B29F4B0F 
 1013      F3CB
 1014 44d8 C408616B 		.ascii	"\304\bak\357u\226\237\016\257.\332\215k'\271\350\304\324F4\202"
 1014      EF75969F 
 1014      0EAF2EDA 
 1014      8D6B27B9 
 1014      E8C4D446 
 1015 44ee 8CE790B7 		.ascii	"\214\347\220\267\023l\21747\030\321:\327\266w\301\341\370@\271"
 1015      136C8F34 
 1015      3718D13A 
 1015      D7B677C1 
 1015      E1F840B9 
 1016 4502 F8A61EC6 		.ascii	"\370\246\036\306=\375\017\314\024\212\244|\330\351!p\320Cb\327"
 1016      3DFD0FCC 
 1016      148AA47C 
 1016      D8E92170 
 1016      D04362D7 
 1017 4516 63ADF3D8 		.ascii	"c\255\363\330#Q\035}\253b\321\264\034m>!nI\276\312e\334\312x"
 1017      23511D7D 
 1017      AB62D1B4 
 1017      1C6D3E21 
 1017      6E49BECA 
 1018 452e 9A092040 		.ascii	"\232\t @\271\024\375\265\030 l\356\305\341/N\005|f\202\241\304"
 1018      B914FDB5 
 1018      18206CEE 
 1018      C5E12F4E 
 1018      057C6682 
 1019 4544 E1180BB3 		.ascii	"\341\030\013\263\213\327z\354^)z\212XJ\0263\312\312\234b\034"
 1019      8BD77AEC 
 1019      5E297A8A 
 1019      584A1633 
 1019      CACA9C62 
 1020 4559 73A7CD62 		.ascii	"s\247\315b\377TEB\321\367\034\213\202\n \002q\303\271\272\\\272"
 1020      FF544542 
 1020      D1F71C8B 
 1020      820A2002 
 1020      71C3B9BA 
 1021 456f 214DE18A 		.ascii	"!M\341\2126$\372\205\342&\321\304eT\260\033-\337\340\353\346"
 1021      3624FA85 
 1021      E226D1C4 
 1021      6554B01B 
 1021      2DDFE0EB 
 1022 4584 B2AA3F9A 		.ascii	"\262\252?\232\003\240\364\346\343\021l\276\340\327x\030\325\366"
 1022      03A0F4E6 
 1022      E3116CBE 
 1022      E0D77818 
 1022      D5F6
 1023 4596 E61BC35A 		.ascii	"\346\033\303ZR.\004\335\001>n\370h)\254\205C\025w\335\t\265\001"
 1023      522E04DD 
 1023      013E6EF8 
 1023      6829AC85 
 1023      431577DD 
 1024 45ad 86B6DAFE 		.ascii	"\206\266\332\376P\324\035\216\321a\366\260\306\241\341\260\006"
 1024      50D41D8E 
 1024      D161F6B0 
 1024      C6A1E1B0 
 1024      06
 1025 45be D2C3D59A 		.ascii	"\322\303\325\232\277I\376\253'\343\231e\243\263\001\335\221\300"
 1025      BF49FEAB 
 1025      27E39965 
 1025      A3B301DD 
 1025      91C0
 1026 45d0 F6EBC14D 		.ascii	"\366\353\301M-\3319\273\333\342\243\236)[\006%\376at=\035b4\026"
 1026      2DD939BB 
 1026      DBE2A39E 
 1026      295B0625 
 1026      FE61743D 
 1027 45e8 ABA49DD0 		.ascii	"\253\244\235\320P\215\365.\252\373(\0372\310*/f!c00\247\331\025"
 1027      508DF52E 
 1027      AAFB281F 
 1027      32C82A2F 
 1027      66216330 
 1028 4600 79808BE5 		.ascii	"y\200\213\345a\200\321\026\317\320\326\001Cu\322\343bB\356\263"
 1028      6180D116 
 1028      CFD0D601 
 1028      4375D2E3 
 1028      6242EEB3 
 1029 4614 296407C8 		.ascii	")d\007\310\257\031SC\005\310o\253\252\305\271\345@\017\360w\267"
 1029      AF195343 
 1029      05C86FAB 
 1029      AAC5B9E5 
 1029      400FF077 
 1030 4629 EEA1C9F0 		.ascii	"\356\241\311\360\035R\345\361`?\356'\004\323\253w\351`C\311y"
 1030      1D52E5F1 
 1030      603FEE27 
 1030      04D3AB77 
 1030      E96043C9 
 1031 463e A9365B23 		.ascii	"\2516[#3%=\233(\200p4\002\252\013\204\334\277"
 1031      33253D9B 
 1031      28807034 
 1031      02AA0B84 
 1031      DCBF
 1032 4650 ACA05D69 		.string	"\254\240]iz\271\201\370\204\274\223q\362\307rh\272?`\271\256j\302\264\026:P\264\217#f\350
 1032      7AB981F8 
 1032      84BC9371 
 1032      F2C77268 
 1032      BA3F60B9 
 1033 4700 D9F9030A 		.string	"\331\371\003\n\236\177\350|-\024\220"
 1033      9E7FE87C 
 1033      2D149000 
 1034 470c 7D221BC1 		.ascii	"}\"\033\301\241\2633\367\215u\246Y\203\347w\342\224\305\321!"
 1034      A1B333F7 
 1034      8D75A659 
 1034      83E777E2 
 1034      94C5D121 
 1035 4720 3EDFC151 		.ascii	">\337\301QX\362\037J\030:,\267\274\030&\006\210\207\232\322\227"
 1035      58F21F4A 
 1035      183A2CB7 
 1035      BC182606 
 1035      88879AD2 
 1036 4735 63E2BD30 		.ascii	"c\342\2750\245\031\357\375\242\303\222\253G\2140\245\264\273"
 1036      A519EFFD 
 1036      A2C392AB 
 1036      478C30A5 
 1036      B4BB
 1037 4747 AE9B4CC1 		.ascii	"\256\233L\301I\206\344;o\025#;v\230\231\226\2750\322\354\300"
 1037      4986E43B 
 1037      6F15233B 
 1037      76989996 
 1037      BD30D2EC 
 1038 475c 4FA0D979 		.ascii	"O\240\331y\017j\325o\324\2041\024\020\363x\022\r\025glp\277\345"
 1038      0F6AD56F 
 1038      D4843114 
 1038      10F37812 
 1038      0D15676C 
 1039 4773 EEAB9309 		.ascii	"\356\253\223\t~\354=\356\220\2644\226L\340Ax&\303`\266b$!Gr;"
 1039      7EEC3DEE 
 1039      90B43496 
 1039      4CE04178 
 1039      26C360B6 
 1040 478d 34A9C5B8 		.ascii	"4\251\305\270\265Kir\030$xu\327l@W \200k\354\262\302"
 1040      B54B6972 
 1040      18247875 
 1040      D76C4057 
 1040      20806BEC 
 1041 47a3 89BB58F1 		.string	"\211\273X\361\374Y\201\"{okY\212\277\261>6\300\023~^\352\272\030\312\324\320@\f\300\201c\
 1041      FC598122 
 1041      7B6F6B59 
 1041      8ABFB13E 
 1041      36C0137E 
 1042 48a4 E200     		.string	"\342"
 1043 48a6 4A3F0184 		.string	"J?\001\204\263y*\306\025"
 1043      B3792AC6 
 1043      1500
 1044 48b0 A1A3CE6B 		.string	"\241\243\316k\350\246\377\246#\254\356\322\333\354Wqw\365\333V\350Ts\360\364\002\310"
 1044      E8A6FFA6 
 1044      23ACEED2 
 1044      DBEC5771 
 1044      77F5DB56 
 1045 48cc A08273F7 		.string	"\240\202s\367\201y\325\302!&g\303\323\337WM\220.\261\375"
 1045      8179D5C2 
 1045      212667C3 
 1045      D3DF574D 
 1045      902EB1FD 
 1046 48e1 C5C68094 		.ascii	"\305\306\200\224\326J\3154"
 1046      D64ACD34 
 1047 48e9 D439DAD1 		.string	"\3249\332\321vQ\226\230;m\316\022=\314\312e\376-Lr7\002\214\243\346U%`\2159M\323\233\226*
 1047      76519698 
 1047      3B6DCE12 
 1047      3DCCCA65 
 1047      FE2D4C72 
 1048 49ea 894FE53D 		.string	"\211O\345=\304\344\265\351\237\337K\311>\271\357\202\nQhc\344\271Y*\331\265\245\277\234\0
 1048      C4E4B5E9 
 1048      9FDF4BC9 
 1048      3EB9EF82 
 1048      0A516863 
 1049 4ad1 EB8B1E85 		.string	"\353\213\036\205\311\371\340\276\003+\rj%\220F}')\006\027\275\263l\247b\257Cf\236h\310J\3
 1049      C9F9E0BE 
 1049      032B0D6A 
 1049      2590467D 
 1049      27290617 
 1050 4b1b 804DE603 		.ascii	"\200M\346\003\357\2241\335\277\300B\252a0\024\335\n\200\234\340"
 1050      EF9431DD 
 1050      BFC042AA 
 1050      613014DD 
 1050      0A809CE0 
 1051 4b2f 4759D789 		.ascii	"GY\327\211\301j\006\266u\303I5"
 1051      C16A06B6 
 1051      75C34935 
 1052 4b3b 068253BC 		.string	"\006\202S\274\302N\253\304\371\223ud`]\024&\345\257\007\343\334\373U\3733\206a\242\213o\3
 1052      C24EABC4 
 1052      F9937564 
 1052      605D1426 
 1052      E5AF07E3 
 1053 4c3c 131B2925 		.ascii	"\023\033)%D\241\264p`\373X\262]\355\225\203\372\332\315\341W"
 1053      44A1B470 
 1053      60FB58B2 
 1053      5DED9583 
 1053      FADACDE1 
 1054 4c51 BB94C691 		.ascii	"\273\224\306\221\013 \215\276\225\256z\016\213\253\342\252\f"
 1054      0B208DBE 
 1054      95AE7A0E 
 1054      8BABE2AA 
 1054      0C
 1055 4c62 681927A0 		.ascii	"h\031'\240\244~\251g!C\220\317\b6Mq@-\005\212\220}\035\3360\330"
 1055      A47EA967 
 1055      214390CF 
 1055      08364D71 
 1055      402D058A 
 1056 4c7c 2FF4BFB5 		.ascii	"/\364\277\265\007\340\204\214[$m\233\250\212\033\261\\C\343l"
 1056      07E0848C 
 1056      5B246D9B 
 1056      A88A1BB1 
 1056      5C43E36C 
 1057 4c90 85EDD758 		.ascii	"\205\355\327X'Ipr\330P\252v\270\024\225\244\337\343&\357>\026"
 1057      27497072 
 1057      D850AA76 
 1057      B81495A4 
 1057      DFE326EF 
 1058 4ca6 5F53ED8E 		.ascii	"_S\355\216t\307}\2633"
 1058      74C77DB3 
 1058      33
 1059 4caf E3CB7BC6 		.string	"\343\313{\306\265R\204\260\245\357\357\263\311\002\0341\031\324\004'\nu\314\001\257Y\3536
 1059      B55284B0 
 1059      A5EFEFB3 
 1059      C9021C31 
 1059      19D40427 
 1060 4db0 204B6AFF 		.ascii	" Kj\377\270\246\027\007R\243\333P\033\317\025n\246%\037\255\274"
 1060      B8A61707 
 1060      52A3DB50 
 1060      1BCF156E 
 1060      A6251FAD 
 1061 4dc5 BBB1AF85 		.ascii	"\273\261\257\205E\325\237\267\312\376\321\237\353@nwgl\"\230"
 1061      45D59FB7 
 1061      CAFED19F 
 1061      EB406E77 
 1061      676C2298 
 1062 4dd9 4C0A32AA 		.ascii	"L\n2\252|\026\352\245\346>\326\b\231\252w\277\275\372\357\370"
 1062      7C16EAA5 
 1062      E63ED608 
 1062      99AA77BF 
 1062      BDFAEFF8 
 1063 4ded 6EE83732 		.ascii	"n\35072./\357?#k\223\024\264{\346_K0\346\236nH\353\2162\273a"
 1063      2E2FEF3F 
 1063      236B9314 
 1063      B47BE65F 
 1063      4B30E69E 
 1064 4e08 98714DCA 		.ascii	"\230qM\312\342\236\t\333\262RB\362L&~K-\200&M\026Z\210V"
 1064      E29E09DB 
 1064      B25242F2 
 1064      4C267E4B 
 1064      2D80264D 
 1065 4e20 4F58327E 		.string	"OX2~\311\3762o?\277\226-A\211\355KuO\230\232\307h\331\363M\222tw\005\f\335\326\262x\224\3
 1065      C9FE326F 
 1065      3FBF962D 
 1065      4189ED4B 
 1065      754F989A 
 1066 4e92 E44DAFE6 		.string	"\344M\257\346\277\334z\251\272i!\230o,q\256\267\302\321\233Pz\313BY1\325\214|>E\323\342\0
 1066      BFDC7AA9 
 1066      BA692198 
 1066      6F2C71AE 
 1066      B7C2D19B 
 1067 4f22 671E7B9D 		.string	"g\036{\235@\362\237\324\220\354\332\312\304R\2316l\266\270"
 1067      40F29FD4 
 1067      90ECDACA 
 1067      C4529936 
 1067      6CB6B800 
 1068 4f36 7B1FA4A5 		.ascii	"{\037\244\245\243j\240\301\021\017\3337uI\207\013/\\`\273/\327"
 1068      A36AA0C1 
 1068      110FDB37 
 1068      7549870B 
 1068      2F5C60BB 
 1069 4f4c 96957F6A 		.ascii	"\226\225\177j\017\325\031\377cQ\250\375K\365q\363\261\203\370"
 1069      0FD519FF 
 1069      6351A8FD 
 1069      4BF571F3 
 1069      B183F8
 1070 4f5f 50F603B7 		.ascii	"P\366\003\267\233\345\311\035\320gB\272\323\273\203\177\"\236"
 1070      9BE5C91D 
 1070      D06742BA 
 1070      D3BB837F 
 1070      229E
 1071 4f71 7FE4C09F 		.ascii	"\177\344\300\237\341f\303`\323\371\371\257\352h\023d?\257\232"
 1071      E166C360 
 1071      D3F9F9AF 
 1071      EA681364 
 1071      3FAF9A
 1072 4f84 65149AE7 		.ascii	"e\024\232\347\321\003q\023K\277\022\002\327^\216\035\247\373"
 1072      D1037113 
 1072      4BBF1202 
 1072      D75E8E1D 
 1072      A7FB
 1073 4f96 41FA5181 		.ascii	"A\372Q\201\006\251|x\030z8\302\t\224\243(\365]26\003<\360%\231"
 1073      06A97C78 
 1073      187A38C2 
 1073      0994A328 
 1073      F55D3236 
 1074 4faf 80388846 		.ascii	"\2008\210F\024\025\221\325\352*\232N\023`t\320\200\177\340e\376"
 1074      141591D5 
 1074      EA2A9A4E 
 1074      136074D0 
 1074      807FE065 
 1075 4fc4 F7CB1D7E 		.ascii	"\367\313\035~I\245\037)\363.\350MA\201\352<~\005\265\003\303"
 1075      49A51F29 
 1075      F32EE84D 
 1075      4181EA3C 
 1075      7E05B503 
 1076 4fd9 D00454E5 		.ascii	"\320\004T\345\026\270y\330*/\202\362\231\251\t\237j\320\326."
 1076      16B879D8 
 1076      2A2F82F2 
 1076      99A9099F 
 1076      6AD0D62E 
 1077 4fed 9E2537A9 		.ascii	"\236%7\251\310\207-\026\001)\304.y6Q\241\276\275 \344\021\206"
 1077      C8872D16 
 1077      0129C42E 
 1077      793651A1 
 1077      BEBD20E4 
 1078 5003 81F0931F 		.ascii	"\201\360\223\0376T\356\003U\220\343|pK\306b<]\004v\207\324\025"
 1078      3654EE03 
 1078      5590E37C 
 1078      704BC662 
 1078      3C5D0476 
 1079 501a C9CECFE7 		.ascii	"\311\316\317\347K\377oL\367\323\320\252\005\341\204\207\224!"
 1079      4BFF6F4C 
 1079      F7D3D0AA 
 1079      05E18487 
 1079      9421
 1080 502c C887ED7C 		.ascii	"\310\207\355|{\342^\304\301\322d\337\314\316yp\207\266\265\\"
 1080      7BE25EC4 
 1080      C1D264DF 
 1080      CCCE7970 
 1080      87B6B55C 
 1081 5040 162A8FE8 		.ascii	"\026*\217\3508\001\223E\266\370\247\311J.r\265{\336\316\313\311"
 1081      38019345 
 1081      B6F8A7C9 
 1081      4A2E72B5 
 1081      7BDECECB 
 1082 5055 BC619AD3 		.ascii	"\274a\232\323BnpA?\323o\320\235\016c;,9\373bzZ\261\261li\220"
 1082      426E7041 
 1082      3FD36FD0 
 1082      9D0E633B 
 1082      2C39FB62 
 1083 5070 D583CBD5 		.ascii	"\325\203\313\325\003\213\034\361\";\fC\032\275\374py\322\f\306"
 1083      038B1CF1 
 1083      223B0C43 
 1083      1ABDFC70 
 1083      79D20CC6 
 1084 5084 92129A67 		.ascii	"\222\022\232g\365\322\311\303\n\227\315k\0263\3553[8\340\350"
 1084      F5D2C9C3 
 1084      0A97CD6B 
 1084      1633ED33 
 1084      5B38E0E8 
 1085 5098 611C9C2E 		.ascii	"a\034\234.\346\216\247H\323\240\244\033#\036&\r\306R\331\351"
 1085      E68EA748 
 1085      D3A0A41B 
 1085      231E260D 
 1085      C652D9E9 
 1086 50ac 85ABACFA 		.ascii	"\205\253\254\372\001\310\323\227\347\276\322\276p\037|\262B\305"
 1086      01C8D397 
 1086      E7BED2BE 
 1086      701F7CB2 
 1086      42C5
 1087 50be 8BD99F95 		.string	"\213\331\237\225\306\006\225y\366\214\254j\234Wu\b\335\322\324\221\202]\307\344BR\227\346
 1087      C6069579 
 1087      F68CAC6A 
 1087      9C577508 
 1087      DDD2D491 
 1088 51bf 18A18E66 		.ascii	"\030\241\216f\262\036\"!\341O\336b\367^\220\037NS\350A\036\362"
 1088      B21E2221 
 1088      E14FDE62 
 1088      F75E901F 
 1088      4E53E841 
 1089 51d5 951A0E15 		.ascii	"\225\032\016\025)V\377aP\001o\345\003\205\322\241\004\274\337"
 1089      2956FF61 
 1089      50016FE5 
 1089      0385D2A1 
 1089      04BCDF
 1090 51e8 80B90F5D 		.ascii	"\200\271\017]j\377\242\001>\216w\331\344\b)tv\271h\222{\335\021"
 1090      6AFFA201 
 1090      3E8E77D9 
 1090      E4082974 
 1090      76B96892 
 1091 51ff 6809B104 		.ascii	"h\t\261\004qM6\365\001\364'\332\235=\317\316X\334\200:\357\376"
 1091      714D36F5 
 1091      01F427DA 
 1091      9D3DCFCE 
 1091      58DC803A 
 1092 5215 8FB0C7F5 		.ascii	"\217\260\307\365y\342\365\327\355 \177\260|*A\336\207Z\220!L"
 1092      79E2F5D7 
 1092      ED207FB0 
 1092      7C2A41DE 
 1092      875A9021 
 1093 522a 9B1C25CE 		.ascii	"\233\034%\316\320Q9\252f\2470\244\nO\311\246Ht\026v\350\365h"
 1093      D05139AA 
 1093      66A730A4 
 1093      0A4FC9A6 
 1093      48741676 
 1094 5241 D28E42EB 		.ascii	"\322\216B\353T\206\245\233\273n,\253\360Q\204`\024D\340\221\234"
 1094      5486A59B 
 1094      BB6E2CAB 
 1094      F0518460 
 1094      1444E091 
 1095 5256 D669C927 		.ascii	"\326i\311'\251\334\233m\223\n\224\334\023\274\243K'\257sm\365"
 1095      A9DC9B6D 
 1095      930A94DC 
 1095      13BCA34B 
 1095      27AF736D 
 1096 526b 9D4C33FC 		.ascii	"\235L3\374c]$\205{Zkm=9\0058u*\206\343\316\032\002\317\232\240"
 1096      635D2485 
 1096      7B5A6B6D 
 1096      3D390538 
 1096      752A86E3 
 1097 5285 D0F48CCA 		.ascii	"\320\364\214\312\202\260\021!D\f\275\3734\373~\005d\270\257\362"
 1097      82B01121 
 1097      440CBDFB 
 1097      34FB7E05 
 1097      64B8AFF2 
 1098 5299 F43223FB 		.ascii	"\3642#\373\324h\035\030\250B+\350\373D\025\274\236,\"A.\370\263"
 1098      D4681D18 
 1098      A8422BE8 
 1098      FB4415BC 
 1098      9E2C2241 
 1099 52b0 795C3494 		.ascii	"y\\4\224\267|#\371-}\260\020C\231\357}\247`\373\356\371:\240"
 1099      B77C23F9 
 1099      2D7DB010 
 1099      4399EF7D 
 1099      A760FBEE 
 1100 52c7 DA7F4798 		.ascii	"\332\177G\230U7tN(v\026\234@:F\231\2619k\350\034\032dK\271\301"
 1100      5537744E 
 1100      2876169C 
 1100      403A4699 
 1100      B1396BE8 
 1101 52e1 5DB2CAA5 		.ascii	"]\262\312\245\342E\332C8\025\023\276\265\331j}/V\315Z\251\257"
 1101      E245DA43 
 1101      381513BE 
 1101      B5D96A7D 
 1101      2F56CD5A 
 1102 52f7 4D9B4E83 		.ascii	"M\233N\203x\212\004\345\253{\332Dw\207Ebp\366\303D\317_x\223"
 1102      788A04E5 
 1102      AB7BDA44 
 1102      77874562 
 1102      70F6C344 
 1103 530f 6825598E 		.ascii	"h%Y\216\353\373\271HGM`\037\030\361\235\323\310\032\022\"\315"
 1103      EBFBB948 
 1103      474D601F 
 1103      18F19DD3 
 1103      C81A1222 
 1104 5324 C6F86F83 		.ascii	"\306\370o\203nb:\354%^\255\364\220a\336_\231\236\316\356\361"
 1104      6E623AEC 
 1104      255EADF4 
 1104      9061DE5F 
 1104      999ECEEE 
 1105 5339 50110469 		.ascii	"P\021\004iRL\t\016\033\264NE\276\333\256\251[\212m\276\341\373"
 1105      524C090E 
 1105      1BB44E45 
 1105      BEDBAEA9 
 1105      5B8A6DBE 
 1106 534f 541A76D2 		.ascii	"T\032v\322]\303\024\003\t<\275\261C\201Z\006\2529\333$\366\230"
 1106      5DC31403 
 1106      093CBDB1 
 1106      43815A06 
 1106      AA39DB24 
 1107 5365 57A5DFE4 		.ascii	"W\245\337\344Ql\376`\022\240\364\216\305\354\240\023\300\370"
 1107      516CFE60 
 1107      12A0F48E 
 1107      C5ECA013 
 1107      C0F8
 1108 5377 3DC37B9A 		.ascii	"=\303{\232\373I\241$kV\b?5\365\334\316!=^\362\222[>h\267\345"
 1108      FB49A124 
 1108      6B56083F 
 1108      35F5DCCE 
 1108      213D5EF2 
 1109 5391 4110CAB6 		.ascii	"A\020\312\266\311`\274\020r\303\275\361\024Y\372\313$T\342\315"
 1109      C960BC10 
 1109      72C3BDF1 
 1109      1459FACB 
 1109      2454E2CD 
 1110 53a5 D93AFEC3 		.ascii	"\331:\376\303\257J\315h\352\0061\202\325\344J\2109|\271\n\274"
 1110      AF4ACD68 
 1110      EA063182 
 1110      D5E44A88 
 1110      397CB90A 
 1111 53ba AFDBC7EE 		.ascii	"\257\333\307\356\217\253\037\030\233\334M<!\006\364\323\030\260"
 1111      8FAB1F18 
 1111      9BDC4D3C 
 1111      2106F4D3 
 1111      18B0
 1112 53cc 5EE1C009 		.ascii	"^\341\300\t|\220GR\246\353\245~kg\333d\364%\364\341QH!\350f\252"
 1112      7C904752 
 1112      A6EBA57E 
 1112      6B67DB64 
 1112      F425F4E1 
 1113 53e6 E229F12B 		.ascii	"\342)\361+\343P\307\t\246\205L9D\316\201\2201EGi\206\365\236"
 1113      E350C709 
 1113      A6854C39 
 1113      44CE8190 
 1113      31454769 
 1114 53fd F5A20166 		.ascii	"\365\242\001f\b\b\3077Q&\035\307Z"
 1114      0808C737 
 1114      51261DC7 
 1114      5A
 1115 540a 4295740F 		.string	"B\225t\017fM\231\324\244\316\240\376#\230V\224t\220\235\331\021\001\315.bs\324\013yua=Jo\
 1115      664D99D4 
 1115      A4CEA0FE 
 1115      23985694 
 1115      74909DD9 
 1116 550b 5074228F 		.ascii	"Pt\"\217\0039Z\242n\330\3668\372Wp\357\216\3123\336\326n\"\226"
 1116      03395AA2 
 1116      6ED8F638 
 1116      FA5770EF 
 1116      8ECA33DE 
 1117 5523 C91FAAC0 		.ascii	"\311\037\252\300\022\027\346\024\303\266C\252`\247r\2118[\254"
 1117      1217E614 
 1117      C3B643AA 
 1117      60A77289 
 1117      385BAC
 1118 5536 154F2C3A 		.ascii	"\025O,:|9\304\340\216X\242#\216\013o@\242}5\2771.\274W\221\037"
 1118      7C39C4E0 
 1118      8E58A223 
 1118      8E0B6F40 
 1118      A27D35BF 
 1119 5550 63819936 		.ascii	"c\201\2316\217$\344\270\fr\003\315>\227\337\304K\314\267xDuU"
 1119      8F24E4B8 
 1119      0C7203CD 
 1119      3E97DFC4 
 1119      4BCCB778 
 1120 5567 F6BB469B 		.ascii	"\366\273F\233\207\233\031\310\r\3271wER\271\264\323\362\271d"
 1120      879B19C8 
 1120      0DD73177 
 1120      4552B9B4 
 1120      D3F2B964 
 1121 557b 8E1FCDCD 		.ascii	"\216\037\315\315,\337\225prU\347=\274\366FQK\363;\017\272#\202"
 1121      2CDF9570 
 1121      7255E73D 
 1121      BCF64651 
 1121      4BF33B0F 
 1122 5592 ED156470 		.ascii	"\355\025dpQ9V\266\362Y|\355\247\301\f\260\241\006\007bi~ro\311"
 1122      513956B6 
 1122      F2597CED 
 1122      A7C10CB0 
 1122      A1060762 
 1123 55ab 1E809A2D 		.ascii	"\036\200\232- A\304X\310R\306\301\241\204\035\267IA\2258\004"
 1123      2041C458 
 1123      C852C6C1 
 1123      A1841DB7 
 1123      49419538 
 1124 55c0 E661C3B3 		.ascii	"\346a\303\263\013^\227\221\241\304+_[\242\254Bv\036\022\245*"
 1124      0B5E9791 
 1124      A1C42B5F 
 1124      5BA2AC42 
 1124      761E12A5 
 1125 55d5 FB01A932 		.ascii	"\373\001\2512:\003\201\003>\352\b\b\202q\306\002\325\202\321"
 1125      3A038103 
 1125      3EEA0808 
 1125      8271C602 
 1125      D582D1
 1126 55e8 753CDB28 		.ascii	"u<\333(\031\274\352s"
 1126      19BCEA73 
 1127 55f0 62F1E254 		.ascii	"b\361\342T\204\261g\330z\370\262\336\205\222tw\260&F\354\022"
 1127      84B167D8 
 1127      7AF8B2DE 
 1127      85927477 
 1127      B02646EC 
 1128 5605 0723478F 		.ascii	"\007#G\217\30041\352\031a\211\320\330\013A\372\007\376\334\032"
 1128      C03431EA 
 1128      196189D0 
 1128      D80B41FA 
 1128      07FEDC1A 
 1129 5619 DEC9509B 		.ascii	"\336\311P\233\377\207\306Xt\035\367\222\f}\252\006\316\020\366"
 1129      FF87C658 
 1129      741DF792 
 1129      0C7DAA06 
 1129      CE10F6
 1130 562c A5DFB531 		.ascii	"\245\337\2651LP\265C\024\271X\373\223},#\265\rAP\237\021\206"
 1130      4C50B543 
 1130      14B958FB 
 1130      937D2C23 
 1130      B50D4150 
 1131 5643 9F96C192 		.ascii	"\237\226\301\222\202}\260\3754v\006\005\276\332\341\037\373c"
 1131      827DB0FD 
 1131      34760605 
 1131      BEDAE11F 
 1131      FB63
 1132 5655 B15DCCA8 		.ascii	"\261]\314\250\254$p\365\225\277KD[\001!\037\023%\223\034\224"
 1132      AC2470F5 
 1132      95BF4B44 
 1132      5B01211F 
 1132      1325931C 
 1133 566a 9956FD3F 		.ascii	"\231V\375?\271Q\205\030\016\221\345\321Qj\373\341\t\357n\356"
 1133      B9518518 
 1133      0E91E5D1 
 1133      516AFBE1 
 1133      09EF6EEE 
 1134 567e 5DEB158B 		.ascii	"]\353\025\213Nufo\265\375B\222\253\201D\342\327\364\341c'\273"
 1134      4E75666F 
 1134      B5FD4292 
 1134      AB8144E2 
 1134      D7F4E163 
 1135 5694 B62F2BDB 		.ascii	"\266/+\333\330\202%\214c\004l\n\303Z?n\314\260C\\\323\205\r\335"
 1135      D882258C 
 1135      63046C0A 
 1135      C35A3F6E 
 1135      CCB0435C 
 1136 56ac D1B825F7 		.ascii	"\321\270%\367\350\200\344\324\2604\206\221\266\033=j\235\310"
 1136      E880E4D4 
 1136      B0348691 
 1136      B61B3D6A 
 1136      9DC8
 1137 56be 8A49EA77 		.ascii	"\212I\352wT> \341\336\307\215U\326V\252w\262g\370B\345\324\260"
 1137      543E20E1 
 1137      DEC78D55 
 1137      D656AA77 
 1137      B267F842 
 1138 56d5 BF938B11 		.ascii	"\277\223\213\021\376\215\360\377M=*Z\202\216!\377r\\\027\003"
 1138      FE8DF0FF 
 1138      4D3D2A5A 
 1138      828E21FF 
 1138      725C1703 
 1139 56e9 D4DCC873 		.ascii	"\324\334\310sU \001\246\262\373\016&W\003\336\211<@\r\013\022"
 1139      552001A6 
 1139      B2FB0E26 
 1139      5703DE89 
 1139      3C400D0B 
 1140 56fe D492C0CB 		.ascii	"\324\222\300\313~5\252\003\363\275\346\006\375uV;\257\372\242"
 1140      7E35AA03 
 1140      F3BDE606 
 1140      FD75563B 
 1140      AFFAA2
 1141 5711 2B69067D 		.ascii	"+i\006}\323'\005\213\351\200\263\002\346\366(x\365\212F/B\b\313"
 1141      D327058B 
 1141      E980B302 
 1141      E6F62878 
 1141      F58A462F 
 1142 5728 2CED4107 		.ascii	",\355A\007\nd\320M\366\243=a$\240\024\214\323y \276\201\002F"
 1142      0A64D04D 
 1142      F6A33D61 
 1142      24A0148C 
 1142      D37920BE 
 1143 573f FAA206DD 		.ascii	"\372\242\006\335\t\204\305\200\246\253\317\023\305\211"
 1143      0984C580 
 1143      A6ABCF13 
 1143      C589
 1144 574d BB06AE5C 		.string	"\273\006\256\\\313\351Q\305G\031R\265\303aU7\375R\037m)0@@\013vL\376\221Wr\201\217\200,:x
 1144      CBE951C5 
 1144      471952B5 
 1144      C3615537 
 1144      FD521F6D 
 1145 584e 61EB0465 		.string	"a\353\004e\241\016\272>lDu\231H\356\321>m\256\035\234\273\312\361\212Y\0334\270\357r\347D
 1145      A10EBA3E 
 1145      6C447599 
 1145      48EED13E 
 1145      6DAE1D9C 
 1146 58ab B5E0DA24 		.string	"\265\340\332$`\317zxo\"8O\374\200q\355+q\2768\3368\001q\336N\247\254\257\240M\221V\355\20
 1146      60CF7A78 
 1146      6F22384F 
 1146      FC8071ED 
 1146      2B71BE38 
 1147 5928 E9F9AD5A 		.string	"\351\371\255Z\207ty\254\360_\274\315\334\3665\320\261[=\273H!2\326\247m\370\372\217\327\3
 1147      877479AC 
 1147      F05FBCCD 
 1147      DCF635D0 
 1147      B15B3DBB 
 1148 59cc C7A91369 		.string	"\307\251\023i/\327+\t\213o\302>\223\350\021\302J\206\267\3612$\b\3011\333nt-\027u\0069\00
 1148      2FD72B09 
 1148      8B6FC23E 
 1148      93E811C2 
 1148      4A86B7F1 
 1149 5acb 80AAD48D 		.ascii	"\200\252\324\215\272\363\374Di\256\224M\275\315\3348\260/\260"
 1149      BAF3FC44 
 1149      69AE944D 
 1149      BDCDDC38 
 1149      B02FB0
 1150 5ade 82646054 		.ascii	"\202d`T\317\347F4y\006\033\003\036Y,\210|w\353O;\203\251n\252"
 1150      CFE74634 
 1150      79061B03 
 1150      1E592C88 
 1150      7C77EB4F 
 1151 5af7 523DA6DC 		.ascii	"R=\246\334x\331\026Xd\275\243\357\"\305_p\351\267\325\243_~z"
 1151      78D91658 
 1151      64BDA3EF 
 1151      22C55F70 
 1151      E9B7D5A3 
 1152 5b0e 04D7B557 		.ascii	"\004\327\265W\376\353\006\235 \260#\351\341\272\027,\237\212"
 1152      FEEB069D 
 1152      20B023E9 
 1152      E1BA172C 
 1152      9F8A
 1153 5b20 32BD09E3 		.ascii	"2\275\t\343\026c>\343\301R\202\204'\377\304\020\240\213\255\233"
 1153      16633EE3 
 1153      C1528284 
 1153      27FFC410 
 1153      A08BAD9B 
 1154 5b34 2628F265 		.ascii	"&(\362e\311\037\230K\263\251H\251\337\024\266>\362\347i\277\005"
 1154      C91F984B 
 1154      B3A948A9 
 1154      DF14B63E 
 1154      F2E769BF 
 1155 5b49 B7EB7708 		.ascii	"\267\353w\b\036eQ\006\310\006w\275\222?)\327\341\213\201\001"
 1155      1E655106 
 1155      C80677BD 
 1155      923F29D7 
 1155      E18B8101 
 1156 5b5d 4021F5F5 		.ascii	"@!\365\365\3427v\021\265\347\255f\341\261\246`0\004\\0]\255\254"
 1156      E2377611 
 1156      B5E7AD66 
 1156      E1B1A660 
 1156      30045C30 
 1157 5b74 C8361048 		.ascii	"\3106\020H\334\306\021:\246\200&u\247\355\245\270i}K\313\377"
 1157      DCC6113A 
 1157      A6802675 
 1157      A7EDA5B8 
 1157      697D4BCB 
 1158 5b89 15316E14 		.ascii	"\0251n\024\307\030\224\177\313\271Y\370\001\267\236\177\013\325"
 1158      C718947F 
 1158      CBB959F8 
 1158      01B79E7F 
 1158      0BD5
 1159 5b9b 3347B68D 		.ascii	"3G\266\215\227\246\005\030\00765\266\320\255\372*a\207Y\337\267"
 1159      97A60518 
 1159      073635B6 
 1159      D0ADFA2A 
 1159      618759DF 
 1160 5bb0 AFA7EC65 		.ascii	"\257\247\354e1n\344\320 \302\316\275\340D\024gZ\220\343\357O"
 1160      316EE4D0 
 1160      20C2CEBD 
 1160      E0441467 
 1160      5A90E3EF 
 1161 5bc5 720B6545 		.ascii	"r\013eE\245yC\206+\312\241\036\r\235\333\230y\007\002CX\373\020"
 1161      A5794386 
 1161      2BCAA11E 
 1161      0D9DDB98 
 1161      79070243 
 1162 5bdc 40368CE1 		.ascii	"@6\214\341K\323\377\370R\212\013\213\311t\226\315x}c\033W\\6"
 1162      4BD3FFF8 
 1162      528A0B8B 
 1162      C97496CD 
 1162      787D631B 
 1163 5bf3 6D3138C5 		.ascii	"m18\305 \330\022\262\037\276\224V\220\270Y\316\006\025\337b!"
 1163      20D812B2 
 1163      1FBE9456 
 1163      90B859CE 
 1163      0615DF62 
 1164 5c08 5C80A66E 		.ascii	"\\\200\246n\331N[\202\250;tY\361\230D\356y{(\026g\254\204\323"
 1164      D94E5B82 
 1164      A83B7459 
 1164      F19844EE 
 1164      797B2816 
 1165 5c20 F9E5941D 		.ascii	"\371\345\224\035\333M\354\016\332\317\327\277UH\300\376\251\365"
 1165      DB4DEC0E 
 1165      DACFD7BF 
 1165      5548C0FE 
 1165      A9F5
 1166 5c32 1E56C391 		.ascii	"\036V\303\221=\216\320\240\340\220\016 `J\333\370\315-<X6\343"
 1166      3D8ED0A0 
 1166      E0900E20 
 1166      604ADBF8 
 1166      CD2D3C58 
 1167 5c48 895ED381 		.ascii	"\211^\323\201\237\317\300\364\201#\273|3w]\264\236\220\345w\305"
 1167      9FCFC0F4 
 1167      8123BB7C 
 1167      33775DB4 
 1167      9E90E577 
 1168 5c5d D0BBE2EA 		.ascii	"\320\273\342\352\301\342>\333\236\013E\261\303J\222\2260!\327"
 1168      C1E23EDB 
 1168      9E0B45B1 
 1168      C34A9296 
 1168      3021D7
 1169 5c70 646F369E 		.ascii	"do6\236\231\021\245%,\324\241\261\220\266\262\003V\254\351\356"
 1169      9911A525 
 1169      2CD4A1B1 
 1169      90B6B203 
 1169      56ACE9EE 
 1170 5c84 D6B1E029 		.ascii	"\326\261\340)\214\037\314\360\021\322A\322([\212\321\353\276"
 1170      8C1FCCF0 
 1170      11D241D2 
 1170      285B8AD1 
 1170      EBBE
 1171 5c96 9CAA4F8D 		.ascii	"\234\252O\215\354\326\254r;hZ\372\322\003\233\2164\335\255\304"
 1171      ECD6AC72 
 1171      3B685AFA 
 1171      D2039B8E 
 1171      34DDADC4 
 1172 5caa 0E399C61 		.ascii	"\0169\234ar\232`\232>\315\3243\r#\210\317\204\024\366(C\354\322"
 1172      729A609A 
 1172      3ECDD433 
 1172      0D2388CF 
 1172      8414F628 
 1173 5cc1 C834FDAF 		.ascii	"\3104\375\2575\302\260\024\277|H\242V<\023\037\342\272w~\204"
 1173      35C2B014 
 1173      BF7C48A2 
 1173      563C131F 
 1173      E2BA777E 
 1174 5cd6 4D27117B 		.ascii	"M'\021{\"\243d\340TJ\353E[\367\005\202\367%y\2027\320\241}~\024"
 1174      22A364E0 
 1174      544AEB45 
 1174      5BF70582 
 1174      F7257982 
 1175 5cf0 F4A1F7C1 		.ascii	"\364\241\367\301\204M\334B\2052\013\213=\210\210\3648'Q5\245"
 1175      844DDC42 
 1175      85320B8B 
 1175      3D8888F4 
 1175      38275135 
 1176 5d05 4B4A040A 		.ascii	"KJ\004\n\320e\320h\331\t\212\207I\230F?/\241\355\"nO!\331\227"
 1176      D065D068 
 1176      D9098A87 
 1176      4998463F 
 1176      2FA1ED22 
 1177 5d1e F8195541 		.ascii	"\370\031UAC\tUD\013\234v\311\\\222\007=\335\374{U\302\345\214"
 1177      43095544 
 1177      0B9C76C9 
 1177      5C92073D 
 1177      DDFC7B55 
 1178 5d35 8852FE8B 		.ascii	"\210R\376\213\326\253\371\352\215Hn\364\333\274\303x\352\330"
 1178      D6ABF9EA 
 1178      8D486EF4 
 1178      DBBCC378 
 1178      EAD8
 1179 5d47 8359A7D3 		.ascii	"\203Y\247\323\345\306a\245\370\265\270\220\270E\361$e>\213Y\236"
 1179      E5C661A5 
 1179      F8B5B890 
 1179      B845F124 
 1179      653E8B59 
 1180 5d5c 3A3A620B 		.ascii	"::b\013\361\007\032\007}\261|\206>\217;\363n\244`\225\363e\333"
 1180      F1071A07 
 1180      7DB17C86 
 1180      3E8F3BF3 
 1180      6EA46095 
 1181 5d73 B938A430 		.ascii	"\2718\2440GV\311\366z\f\f\001a\240{X~E\255u=2JD\001\001\344\236"
 1181      4756C9F6 
 1181      7A0C0C01 
 1181      61A07B58 
 1181      7E45AD75 
 1182 5d8f CCABD540 		.ascii	"\314\253\325@i\013\330\373d\025\202|\007\205\364\204\031H\254"
 1182      690BD8FB 
 1182      6415827C 
 1182      0785F484 
 1182      1948AC
 1183 5da2 F126DE7E 		.ascii	"\361&\336~\236\301fFY5}8\314\270\322\256@\365sg\247\333\305L"
 1183      9EC16646 
 1183      59357D38 
 1183      CCB8D2AE 
 1183      40F57367 
 1184 5dba 4AEDE40D 		.ascii	"J\355\344\r\032)"
 1184      1A29
 1185 5dc0 630BF2AF 		.string	"c\013\362\257H\377B\024\300\022\241\027R\002\330\250\t\006\253%\r\2643\211\013\233I\036&\
 1185      48FF4214 
 1185      C012A117 
 1185      5202D8A8 
 1185      0906AB25 
 1186 5e20 FD6D630E 		.string	"\375mc\016Q\334\373\335\n\333\246\2014\212t\200d\356M_Vs\207:\230d\335\266I\316Qv\275\320
 1186      51DCFBDD 
 1186      0ADBA681 
 1186      348A7480 
 1186      64EE4D5F 
 1187 5e9c B1A86DC4 		.string	"\261\250m\304\312\214\212\031*]\004{zrl\367\341$\2667\001\360\346\336\270\3749\325.\364\3
 1187      CA8C8A19 
 1187      2A5D047B 
 1187      7A726CF7 
 1187      E124B637 
 1188 5ed4 26F3689C 		.string	"&\363h\234\033e|\254V\223\307/\226\263\210\264\334A\245\234\362\365G\303\266vy\203\002\24
 1188      1B657CAC 
 1188      5693C72F 
 1188      96B388B4 
 1188      DC41A59C 
 1189 5f56 D1D1C649 		.ascii	"\321\321\306IR\3670\364\256\226,b\367\001**^^'m\024\372g?\317"
 1189      52F730F4 
 1189      AE962C62 
 1189      F7012A2A 
 1189      5E5E276D 
 1190 5f6f EFD78E88 		.ascii	"\357\327\216\210\351\337Qwh\214\275\374B^\247,\251\222\016\024"
 1190      E9DF5177 
 1190      688CBDFC 
 1190      425EA72C 
 1190      A9920E14 
 1191 5f83 C1677DD9 		.ascii	"\301g}\331\235\261\243a*\316&\263\354nr\\s\275\370T\275\357\230"
 1191      9DB1A361 
 1191      2ACE26B3 
 1191      EC6E725C 
 1191      73BDF854 
 1192 5f9a 9E4A9379 		.ascii	"\236J\223y\352\216\340`\316 \240\256c\033\f\270\223\31080r\222"
 1192      EA8EE060 
 1192      CE20A0AE 
 1192      631B0CB8 
 1192      93C83830 
 1193 5fb0 30F94F42 		.ascii	"0\371OB\026\271\3743\350\225]>\206\336\264\343+8\016\244\247"
 1193      16B9FC33 
 1193      E8955D3E 
 1193      86DEB4E3 
 1193      2B380EA4 
 1194 5fc5 9C82C14E 		.ascii	"\234\202\301N*\224\341\224Y\312\364\206/\372=%\003\263\273\252"
 1194      2A94E194 
 1194      59CAF486 
 1194      2FFA3D25 
 1194      03B3BBAA 
 1195 5fd9 9B66C049 		.ascii	"\233f\300I\254\331`\025\221.\322J\326x\233|\020\361\370\337T"
 1195      ACD96015 
 1195      912ED24A 
 1195      D6789B7C 
 1195      10F1F8DF 
 1196 5fee 67438541 		.ascii	"gC\205A\274e\271\215\204\305\b\324\244\272\2415\n\351\0249\027"
 1196      BC65B98D 
 1196      84C508D4 
 1196      A4BAA135 
 1196      0AE91439 
 1197 6003 791A94D0 		.ascii	"y\032\224\320\214\340_\256>\026\026\231\234\211\360\344.\222"
 1197      8CE05FAE 
 1197      3E161699 
 1197      9C89F0E4 
 1197      2E92
 1198 6015 EA804AF4 		.ascii	"\352\200J\364\003\360Y\376\006\230,\371f2y^\320$G%{\244\327y"
 1198      03F059FE 
 1198      06982CF9 
 1198      6632795E 
 1198      D0244725 
 1199 602d 5F0EC737 		.ascii	"_\016\3077\025\360G\nr\336\343\337e(q\377\330\220m\367i\"7K\244"
 1199      15F0470A 
 1199      72DEE3DF 
 1199      652871FF 
 1199      D8906DF7 
 1200 6046 95B35987 		.ascii	"\225\263Y\207\304\271(\261\243\363\225\311\242\262\237\355\227"
 1200      C4B928B1 
 1200      A3F395C9 
 1200      A2B29FED 
 1200      97
 1201 6057 3439B552 		.ascii	"49\265R\253)\207\237\026\372\314Gp\264\037baa\022k\233D\362d"
 1201      AB29879F 
 1201      16FACC47 
 1201      70B41F62 
 1201      6161126B 
 1202 606f F25E100B 		.ascii	"\362^\020\013B<\355[\225t\232\232-\371\372}\340\221\036~w\262"
 1202      423CED5B 
 1202      95749A9A 
 1202      2DF9FA7D 
 1202      E0911E7E 
 1203 6085 32448046 		.ascii	"2D\200F\016\337dK7m\363\tdF\220\031\210\344\320\276\242\344\216"
 1203      0EDF644B 
 1203      376DF309 
 1203      64469019 
 1203      88E4D0BE 
 1204 609c 2B205388 		.ascii	"+ S\210\023\253\260\220\241\317\205\255\205\350\320Kn\214\215"
 1204      13ABB090 
 1204      A1CF85AD 
 1204      85E8D04B 
 1204      6E8C8D
 1205 60af 0961A183 		.ascii	"\ta\241\203\260\301\220\321c"
 1205      B0C190D1 
 1205      63
 1206 60b8 873657EF 		.string	"\2076W\357\303\226\226\375\215C\310[\263\261\315\335\034\377\006\327\324)\316\215\237\326
 1206      C39696FD 
 1206      8D43C85B 
 1206      B3B1CDDD 
 1206      1CFF06D7 
 1207 61b9 4E4965B6 		.ascii	"NIe\266\036u\r\t\250\232\251\304\376J\337\315\261\261\242\205"
 1207      1E750D09 
 1207      A89AA9C4 
 1207      FE4ADFCD 
 1207      B1B1A285 
 1208 61cd 865E4BB2 		.ascii	"\206^K\262Y\203\314!\310\365\323\224\241D\016\"\362\257\373."
 1208      5983CC21 
 1208      C8F5D394 
 1208      A1440E22 
 1208      F2AFFB2E 
 1209 61e1 F461FDA6 		.ascii	"\364a\375\246\313+g\310\261v\234\262g\3735\217\274\2521\250\240"
 1209      CB2B67C8 
 1209      B1769CB2 
 1209      67FB358F 
 1209      BCAA31A8 
 1210 61f6 E7DDF1AE 		.ascii	"\347\335\361\256WMd;T\353\311QY\022\036\376\0063Jk\223\342\001"
 1210      574D643B 
 1210      54EBC951 
 1210      59121EFE 
 1210      06334A6B 
 1211 620d E41AE647 		.ascii	"\344\032\346G\325\376vG\201&\nMaP\013\005\030\375]y\254\311\245"
 1211      D5FE7647 
 1211      81260A4D 
 1211      61500B05 
 1211      18FD5D79 
 1212 6224 0F13103E 		.ascii	"\017\023\020>\203\307\033\223\230U\372\226\003\201p\347\272T"
 1212      83C71B93 
 1212      9855FA96 
 1212      038170E7 
 1212      BA54
 1213 6236 E3CC8C01 		.ascii	"\343\314\214\001=\332xg\005\017\234\375\351\342\314a\355\\\035"
 1213      3DDA7867 
 1213      050F9CFD 
 1213      E9E2CC61 
 1213      ED5C1D
 1214 6249 14E9E1AD 		.ascii	"\024\351\341\255\007\016\357\245\361\377\301\206\361\242Sr\226"
 1214      070EEFA5 
 1214      F1FFC186 
 1214      F1A25372 
 1214      96
 1215 625a 93E0C4D9 		.ascii	"\223\340\304\331\320\32518v\336W\002yAbAZM\003\350\265\352{\315"
 1215      D0D53138 
 1215      76DE5702 
 1215      79416241 
 1215      5A4D03E8 
 1216 6272 87943077 		.ascii	"\207\2240w\366L_\355\33706\026ej\222f\354}s\305\226\004\323\224"
 1216      F64C5FED 
 1216      DF303616 
 1216      656A9266 
 1216      EC7D73C5 
 1217 628a 17EEBF29 		.ascii	"\027\356\277)\252\236\303\027A\251\004\271\234?\256BP\273\006"
 1217      AA9EC317 
 1217      41A904B9 
 1217      9C3FAE42 
 1217      50BB06
 1218 629d 40BB2F01 		.ascii	"@\273/\0012\216\375up\331w`OdLn\361\332z\033\3665\265\251\335"
 1218      328EFD75 
 1218      70D97760 
 1218      4F644C6E 
 1218      F1DA7A1B 
 1219 62b6 D5021B1A 		.ascii	"\325\002\033\032\255\243f\262\221t\266d\200\344\021-\030c\fc"
 1219      ADA366B2 
 1219      9174B664 
 1219      80E4112D 
 1219      18630C63 
 1220 62ca 92E5E6F6 		.ascii	"\222\345\346\366GN\205\323\342\247U\0322\306u\340\033\305\346"
 1220      474E85D3 
 1220      E2A7551A 
 1220      32C675E0 
 1220      1BC5E6
 1221 62dd 520C467C 		.ascii	"R\fF|l\030\205\340\333!=\276\033D\272\3329\b\272>\241\3250WT"
 1221      6C1885E0 
 1221      DB213DBE 
 1221      1B44BADA 
 1221      3908BA3E 
 1222 62f6 16E3DF30 		.ascii	"\026\343\3370Z\263\372\216\017\"\214s\347\177\023\020N\027\213"
 1222      5AB3FA8E 
 1222      0F228C73 
 1222      E77F1310 
 1222      4E178B
 1223 6309 9BAA409B 		.ascii	"\233\252@\233[}\311\214ch\221rO\234\0015\200O\330?"
 1223      5B7DC98C 
 1223      63689172 
 1223      4F9C0135 
 1223      804FD83F 
 1224 631d 2F0BD798 		.string	"/\013\327\230\245Q-\311\303;e\366t\272<:\211,0\315(\237&\233@\246\332\024\360\247F\304\22
 1224      A5512DC9 
 1224      C33B65F6 
 1224      74BA3C3A 
 1224      892C30CD 
 1225 641e FCBA6F0D 		.string	"\374\272o\r\235L\252\264r>\216c+!\345\347Ean{\224\023\2164\333\221\214\021qD\370\324\\\32
 1225      9D4CAAB4 
 1225      723E8E63 
 1225      2B21E5E7 
 1225      45616E7B 
 1226 6479 D4D73002 		.string	"\324\3270\002p\214\352J\013_\372\272\325A\341\364\321\203\004V73n\024\306N\243\300\216\22
 1226      708CEA4A 
 1226      0B5FFABA 
 1226      D541E1F4 
 1226      D1830456 
 1227 6514 260DF60B 		.string	"&\r\366\013\301K\272\305\001\302:\013Ul\314\351\2132#\366\232?\345"
 1227      C14BBAC5 
 1227      01C23A0B 
 1227      556CCCE9 
 1227      8B3223F6 
 1228 652c A55634A0 		.string	"\245V4\240+\212\326\351W\226\327\305\367\240\201\347E\254\030\311=\300\340\273,b\317G\300
 1228      2B8AD6E9 
 1228      5796D7C5 
 1228      F7A081E7 
 1228      45AC18C9 
 1229 654f F7947EE3 		.ascii	"\367\224~\343\376\337vR\216\217NG\036u\365\233D\322 \312\275"
 1229      FEDF7652 
 1229      8E8F4E47 
 1229      1E75F59B 
 1229      44D220CA 
 1230 6564 985B669F 		.ascii	"\230[f\237\021}\301\321\1773}\016\311\320C\275\321F\203O\223"
 1230      117DC1D1 
 1230      7F337D0E 
 1230      C9D043BD 
 1230      D146834F 
 1231 6579 5C0E74B1 		.ascii	"\\\016t\261\316\355e\347G\020c\364\036\n\320\372\200u\374-\212"
 1231      CEED65E7 
 1231      471063F4 
 1231      1E0AD0FA 
 1231      8075FC2D 
 1232 658e 0BBD     		.ascii	"\013\275"
 1233 6590 57EBB3A5 		.ascii	"W\353\263\245^\003\367\3115'6\353\220\t\304\344xW\021E\310\352"
 1233      5E03F7C9 
 1233      352736EB 
 1233      9009C4E4 
 1233      78571145 
 1234 65a6 BD5C2702 		.ascii	"\275\\'\002!R%e\321\266"
 1234      21522565 
 1234      D1B6
 1235 65b0 565C8347 		.string	"V\\\203G{\354\272\316\355\210\35695\035q=U\263\337\207;\251W\357\262\301\276Vb\265\002nY\
 1235      7BECBACE 
 1235      ED88EE39 
 1235      351D713D 
 1235      55B3DF87 
 1236 66b1 D6D156D1 		.string	"\326\321V\321r\323\016\215\355\301\233\363\265\355]\004\001\233LZ]\372\005\273\361X\247\2
 1236      72D30E8D 
 1236      EDC19BF3 
 1236      B5ED5D04 
 1236      019B4C5A 
 1237 6755 BAE7F7F9 		.ascii	"\272\347\367\371{>\267\342\332}G\237 4\356\020\355\240\257\314"
 1237      7B3EB7E2 
 1237      DA7D479F 
 1237      2034EE10 
 1237      EDA0AFCC 
 1238 6769 03A6729C 		.ascii	"\003\246r\234w\255gK\351\350\245\246b}\236t\327\224R\032\316"
 1238      77AD674B 
 1238      E9E8A5A6 
 1238      627D9E74 
 1238      D794521A 
 1239 677e 576B4075 		.ascii	"Wk@uorTr \031[O\222\333\307\200\241`\200\250r\"\017\235\177\244"
 1239      6F725472 
 1239      20195B4F 
 1239      92DBC780 
 1239      A16080A8 
 1240 6798 E6090ABE 		.ascii	"\346\t\n\276.k\273n\023\321\346\356\"\230by\327\025\241\327\036"
 1240      2E6BBB6E 
 1240      13D1E6EE 
 1240      22986279 
 1240      D715A1D7 
 1241 67ad CA5F775F 		.ascii	"\312_w_9\213_\274\324_\305\251\207\356\242\370,;\\X\314S\033"
 1241      398B5FBC 
 1241      D45FC5A9 
 1241      87EEA2F8 
 1241      2C3B5C58 
 1242 67c4 DAF5B3D6 		.ascii	"\332\365\263\326\345\320\212\260)\224o0L\336\275\320C-\373\002"
 1242      E5D08AB0 
 1242      29946F30 
 1242      4CDEBDD0 
 1242      432DFB02 
 1243 67d8 21E2D582 		.ascii	"!\342\325\202\207\020\344\240\\!\035\026\177\251]\364kcA\233"
 1243      8710E4A0 
 1243      5C211D16 
 1243      7FA95DF4 
 1243      6B63419B 
 1244 67ec 3DA35B4E 		.ascii	"=\243[N|\207\211\263\227\321?\275\tC\320\304\320\031\320\312"
 1244      7C8789B3 
 1244      97D13FBD 
 1244      0943D0C4 
 1244      D019D0CA 
 1245 6800 70620F80 		.ascii	"pb\017\200\032\2463.Q\221j\372\350\n\323%\366\332\202dX\034\233"
 1245      1AA6332E 
 1245      51916AFA 
 1245      E80AD325 
 1245      F6DA8264 
 1246 6817 57       		.ascii	"W"
 1247 6818 BADC961A 		.string	"\272\334\226\032B}\036@\366\326+C\215\031\222\f\375\n\246\221T\033\261\243\243\220r\326\\
 1247      427D1E40 
 1247      F6D62B43 
 1247      8D19920C 
 1247      FD0AA691 
 1248 6919 A6FB2E0D 		.ascii	"\246\373.\r\355\357\203'v\306\316}\312E\254`1\364\221\032\317"
 1248      EDEF8327 
 1248      76C6CE7D 
 1248      CA45AC60 
 1248      31F4911A 
 1249 692e E8D82D71 		.ascii	"\350\330-qd\241\026Z\032\214\3478z?\256{\n\216\230\313PL3t(\263"
 1249      64A1165A 
 1249      1A8CE738 
 1249      7A3FAE7B 
 1249      0A8E98CB 
 1250 6948 820B1978 		.ascii	"\202\013\031x\227\331\270I\006@\331\367\370q]Z\024\b\355\243"
 1250      97D9B849 
 1250      0640D9F7 
 1250      F8715D5A 
 1250      1408EDA3 
 1251 695c A418DEF9 		.ascii	"\244\030\336\371qx\026AC\373\252Mb\006\233\220\240\025_=)\306"
 1251      71781641 
 1251      43FBAA4D 
 1251      62069B90 
 1251      A0155F3D 
 1252 6972 660821FD 		.ascii	"f\b!\375[`\026\330\037\333q\200\0061u\326\377\004w\334R&-:#\375"
 1252      5B6016D8 
 1252      1FDB7180 
 1252      063175D6 
 1252      FF0477DC 
 1253 698c 52291D71 		.ascii	"R)\035qUH\307\033\231\226\241\304\t\027v\244\376=\275\336\375"
 1253      5548C71B 
 1253      9996A1C4 
 1253      091776A4 
 1253      FE3DBDDE 
 1254 69a1 D0BF1FD4 		.ascii	"\320\277\037\324\004v\0052\251$OtW\320B\352P{<\264'\020;\372"
 1254      04760532 
 1254      A9244F74 
 1254      57D042EA 
 1254      507B3CB4 
 1255 69b9 22AC99A9 		.ascii	"\"\254\231\251\260\202\357\220 \0336$\2453\267\331;\"\353\212"
 1255      B082EF90 
 1255      201B3624 
 1255      A533B7D9 
 1255      3B22EB8A 
 1256 69cd 36353C02 		.ascii	"65<\002\333\235g(\346Ii\205\312\020\255\336\355\303\300\032T"
 1256      DB9D6728 
 1256      E6496985 
 1256      CA10ADDE 
 1256      EDC3C01A 
 1257 69e2 4EE9655D 		.ascii	"N\351e]\301\336\241\234i\267q\017\3135#I/\025\303\031\2439\302"
 1257      C1DEA19C 
 1257      69B7710F 
 1257      CB352349 
 1257      2F15C319 
 1258 69f9 F61B0C36 		.ascii	"\366\033\f6\343\322\312\370\006"
 1258      E3D2CAF8 
 1258      06
 1259 6a02 C6838F78 		.string	"\306\203\217x_!\351\363\227\001\326\211\375\b\332\302\212\201\013\364\305`,\375\251bo\202
 1259      5F21E9F3 
 1259      9701D689 
 1259      FD08DAC2 
 1259      8A810BF4 
 1260 6b03 64DFB63F 		.string	"d\337\266?\201\003\304\363\022\302\300\277\376\221\255"
 1260      8103C4F3 
 1260      12C2C0BF 
 1260      FE91AD00 
 1261 6b13 952F044E 		.string	"\225/\004N\251@k\224G\314\224RT\243\364\277\320\243\223\230\331\036\303\310\331\345\374\2
 1261      A9406B94 
 1261      47CC9452 
 1261      54A3F4BF 
 1261      D0A39398 
 1262 6ba5 24B5CB39 		.ascii	"$\265\3139\035\350\323&\244z\204\020\270\030\313\214\342=4\362"
 1262      1DE8D326 
 1262      A47A8410 
 1262      B818CB8C 
 1262      E23D34F2 
 1263 6bb9 FA50A88B 		.ascii	"\372P\250\213\3351ex\300\377y1\247.\264\200z\322\235\373u\216"
 1263      DD316578 
 1263      C0FF7931 
 1263      A72EB480 
 1263      7AD29DFB 
 1264 6bcf 54193DE1 		.ascii	"T\031=\341\371\274\310\356\254\325\2777N\336\251\277\325\216"
 1264      F9BCC8EE 
 1264      ACD5BF37 
 1264      4EDEA9BF 
 1264      D58E
 1265 6be1 317E1409 		.ascii	"1~\024\t\266\222\317\361\333\340\217\272\347\267\262\330\305"
 1265      B692CFF1 
 1265      DBE08FBA 
 1265      E7B7B2D8 
 1265      C5
 1266 6bf2 B9CB564E 		.ascii	"\271\313VN\254\027\277:Zf\336\351\312\004\232+N\337\356)\221"
 1266      AC17BF3A 
 1266      5A66DEE9 
 1266      CA049A2B 
 1266      4EDFEE29 
 1267 6c07 3549C276 		.ascii	"5I\302v@\035`\0210\206*\376\314\302\331\265\366\023\356_\336"
 1267      401D6011 
 1267      30862AFE 
 1267      CCC2D9B5 
 1267      F613EE5F 
 1268 6c1c 692BF015 		.ascii	"i+\360\025iE\212F\240\214\020$\003N[{0\337H\252\377A\331\207"
 1268      69458A46 
 1268      A08C1024 
 1268      034E5B7B 
 1268      30DF48AA 
 1269 6c34 D84311DD 		.ascii	"\330C\021\335\3242\241M\013S\320\327q\\\016.0\226u&\206\210\223"
 1269      D432A14D 
 1269      0B53D0D7 
 1269      715C0E2E 
 1269      30967526 
 1270 6c4b 5E106A5B 		.ascii	"^\020j[\261}#\330\2672\235<\370\003\350\261\024\304o\314\336"
 1270      B17D23D8 
 1270      B7329D3C 
 1270      F803E8B1 
 1270      14C46FCC 
 1271 6c60 0865C158 		.ascii	"\be\301X}\225H`\265\333\223C\254\256,\224\327\004\207\323\237"
 1271      7D954860 
 1271      B5DB9343 
 1271      ACAE2C94 
 1271      D70487D3 
 1272 6c75 ACEC1891 		.ascii	"\254\354\030\221\313\257\251\244$\030\342,+\034\342,\006L\253"
 1272      CBAFA9A4 
 1272      2418E22C 
 1272      2B1CE22C 
 1272      064CAB
 1273 6c88 CCD1CB23 		.ascii	"\314\321\313#^\214\216c\345\177\0275)\030t\b\347.\004\312,Y\257"
 1273      5E8C8E63 
 1273      E57F1735 
 1273      29187408 
 1273      E72E04CA 
 1274 6c9f 020233E0 		.ascii	"\002\0023\340>\306g \343|\302\023\263-\343\200\b\242\243H/1\004"
 1274      3EC66720 
 1274      E37CC213 
 1274      B32DE380 
 1274      08A2A348 
 1275 6cb6 C2BB0A99 		.ascii	"\302\273\n\231\212\217\026 \261\234$\327*\254\006\r-\351\344"
 1275      8A8F1620 
 1275      B19C24D7 
 1275      2AAC060D 
 1275      2DE9E4
 1276 6cc9 F9B612B7 		.ascii	"\371\266\022\267\004\272\311\366\313)\236{\224\373\024\305\355"
 1276      04BAC9F6 
 1276      CB299E7B 
 1276      94FB14C5 
 1276      ED
 1277 6cda 7DD48D7B 		.ascii	"}\324\215{\301\333\311\307\343\343X\313\277\375V-\003\204\206"
 1277      C1DBC9C7 
 1277      E3E358CB 
 1277      BFFD562D 
 1277      038486
 1278 6ced 4BE8E963 		.ascii	"K\350\351c\270-Jk\177\2373^N\234\016\221\035\254\332LZ\003\003"
 1278      B82D4A6B 
 1278      7F9F335E 
 1278      4E9C0E91 
 1278      1DACDA4C 
 1279 6d04 BECF239D 		.ascii	"\276\317#\235R2\360B\232.\313\361\266k5\270j\201\177\325\206"
 1279      5232F042 
 1279      9A2ECBF1 
 1279      B66B35B8 
 1279      6A817FD5 
 1280 6d19 CDD67739 		.ascii	"\315\326w9s\324\257\2047\375e\243\234\222\242L\375\2505w3\275"
 1280      73D4AF84 
 1280      37FD65A3 
 1280      9C92A24C 
 1280      FDA83577 
 1281 6d2f 6771DC29 		.ascii	"gq\334)\341l\351\263\357\2264\253s]\253\031\262\267/\250h\232"
 1281      E16CE9B3 
 1281      EF9634AB 
 1281      735DAB19 
 1281      B2B72FA8 
 1282 6d45 7C9CAD67 		.ascii	"|\234\255g\253)\362\351\215D\022\240\351Nt\375\330m\262\200\\"
 1282      AB29F2E9 
 1282      8D4412A0 
 1282      E94E74FD 
 1282      D86DB280 
 1283 6d5a F89E2BCD 		.ascii	"\370\236+\315\272\035"
 1283      BA1D
 1284 6d60 5A9BCF3B 		.string	"Z\233\317;\020\373D\213\326\326\227\032\273\227\177\026A\350\353'\235\016._72\007\264\346
 1284      10FB448B 
 1284      D6D6971A 
 1284      BB977F16 
 1284      41E8EB27 
 1285 6df0 47AD3A98 		.string	"G\255:\230\2732\250\237@\246b!\177A9\345;~\031 ;\312\233\336"
 1285      BB32A89F 
 1285      40A66221 
 1285      7F4139E5 
 1285      3B7E1920 
 1286 6e09 CE3B2F19 		.ascii	"\316;/\0317Y\301W\0206\235\377vXF\353\246Z\235\021gI\312J\365"
 1286      3759C157 
 1286      10369DFF 
 1286      765846EB 
 1286      A65A9D11 
 1287 6e22 784D4F67 		.ascii	"xMOg\331\211\204\032\f\372V_\007\373P\242\310\311\310\240\305"
 1287      D989841A 
 1287      0CFA565F 
 1287      07FB50A2 
 1287      C8C9C8A0 
 1288 6e37 3B485501 		.ascii	";HU\001\350\223\342\301\341`#\346vh\361\316\333\322\326\300m"
 1288      E893E2C1 
 1288      E16023E6 
 1288      7668F1CE 
 1288      DBD2D6C0 
 1289 6e4c 89BA9BA3 		.ascii	"\211\272\233\243\310\266\324HY\272\337?u\221\023\370x\333\263"
 1289      C8B6D448 
 1289      59BADF3F 
 1289      759113F8 
 1289      78DBB3
 1290 6e5f E6AF2A46 		.ascii	"\346\257*FIU.6\356\304)\263\257\177]K\242\356NQ\224\342\232\354"
 1290      49552E36 
 1290      EEC429B3 
 1290      AF7F5D4B 
 1290      A2EE4E51 
 1291 6e77 BF95FB3A 		.ascii	"\277\225\373:\345c,~\324l\215_\005\r\232\022Tg\332\204\257j<"
 1291      E5632C7E 
 1291      D46C8D5F 
 1291      050D9A12 
 1291      5467DA84 
 1292 6e8e 1E22AA33 		.ascii	"\036\"\2523\326\353\325w\021\032\016F\370!\264\222\344\244\333"
 1292      D6EBD577 
 1292      111A0E46 
 1292      F821B492 
 1292      E4A4DB
 1293 6ea1 0C2382B8 		.ascii	"\f#\202\270Q7\212\210\252\246J\351\025\bJa\\$\216\210i\373VE"
 1293      51378A88 
 1293      AAA64AE9 
 1293      15084A61 
 1293      5C248E88 
 1294 6eb9 6CB93C05 		.ascii	"l\271<\005E\026\275M\210\243\203]/\020\017\3357\247Q\241\207"
 1294      4516BD4D 
 1294      88A3835D 
 1294      2F100FDD 
 1294      37A751A1 
 1295 6ece 59DD7D0F 		.ascii	"Y\335}\017\311\243S*\203guc\030\025\017\022#\207O\370\"\304\266"
 1295      C9A3532A 
 1295      83677563 
 1295      18150F12 
 1295      23874FF8 
 1296 6ee5 AC303A   		.ascii	"\2540:"
 1297 6ee8 FCFDAA87 		.string	"\374\375\252\207\236#\013\235\355\304\013\344F\273\336=\264\316\322+\374t)\005\302\355v\0
 1297      9E230B9D 
 1297      EDC40BE4 
 1297      46BBDE3D 
 1297      B4CED22B 
 1298 6fe9 12386FE1 		.string	"\0228o\341\223oE\306\314\243\343\021\304b\223\206\276\035\3449%\320\225l\370\033\0076\350
 1298      936F45C6 
 1298      CCA3E311 
 1298      C4629386 
 1298      BE1DE439 
 1299 7011 2EA1DA7C 		.string	".\241\332|\305g*\221\316\321"
 1299      C5672A91 
 1299      CED100
 1300 701c 55203498 		.string	"U 4\230\344\232z\rc\265\033F\2709\253_\267\374\264\346\213\333n8\360\243\007\3368\361\355
 1300      E49A7A0D 
 1300      63B51B46 
 1300      B839AB5F 
 1300      B7FCB4E6 
 1301 70bc 710B853E 		.ascii	"q\013\205>w\345\322q\217k\013\007\344\rs\333$\325\306\375\030"
 1301      77E5D271 
 1301      8F6B0B07 
 1301      E40D73DB 
 1301      24D5C6FD 
 1302 70d1 9F0DCC14 		.ascii	"\237\r\314\024\f\3468\346@\003\177dP$}\357pX\267\277.\2770\276"
 1302      0CE638E6 
 1302      40037F64 
 1302      50247DEF 
 1302      7058B7BF 
 1303 70e9 C672724F 		.ascii	"\306rrO\177dQ\253\342K6\276\257@\016m\274\325_$l\236\211\243"
 1303      7F6451AB 
 1303      E24B36BE 
 1303      AF400E6D 
 1303      BCD55F24 
 1304 7101 523D7442 		.ascii	"R=tB8\177\265\346\313V@c\244\316m\347Q`\032\366~\023\327`5sI"
 1304      387FB5E6 
 1304      CB564063 
 1304      A4CE6DE7 
 1304      51601AF6 
 1305 711c F2B13F88 		.ascii	"\362\261?\210\227\254\360\n`\3128\r\357\001\334\\XR\202\"p\024"
 1305      97ACF00A 
 1305      60CA380D 
 1305      EF01DC5C 
 1305      58528222 
 1306 7132 0C83B262 		.ascii	"\f\203\262b\033\352\022`SH\355:\356\341z\254\b\360\367.\035."
 1306      1BEA1260 
 1306      5348ED3A 
 1306      EEE17AAC 
 1306      08F0F72E 
 1307 7148 308BC9D9 		.ascii	"0\213\311\331\355\212\032\322\ra\354\002\324\220\td\373b\032"
 1307      ED8A1AD2 
 1307      0D61EC02 
 1307      D4900964 
 1307      FB621A
 1308 715b 514DE30B 		.ascii	"QM\343\013y\330q\371\267\027\224q\373\313\327\202\317\0304\235"
 1308      79D871F9 
 1308      B7179471 
 1308      FBCBD782 
 1308      CF18349D 
 1309 716f 5CC2B08A 		.ascii	"\\\302\260\212\007\361\312\232\331\355\311\232\270\267\275\257"
 1309      07F1CA9A 
 1309      D9EDC99A 
 1309      B8B7BDAF 
 1310 717f 0A4D244C 		.ascii	"\nM$L\271\377\213H;\334[\340\346s\0248\202N_3\342\245;\017mA"
 1310      B9FF8B48 
 1310      3BDC5BE0 
 1310      E6731438 
 1310      824E5F33 
 1311 7199 BE2EC5DC 		.ascii	"\276.\305\334\343\317\n\027\204\262\276\354c\356D\203\252\234"
 1311      E3CF0A17 
 1311      84B2BEEC 
 1311      63EE4483 
 1311      AA9C
 1312 71ab 77F8645B 		.ascii	"w\370d[\201\177\272\313\242fUI\212\346{\237$f\370\346\352\313"
 1312      817FBACB 
 1312      A2665549 
 1312      8AE67B9F 
 1312      2466F8E6 
 1313 71c1 0EB44219 		.ascii	"\016\264B\031\030@{\300\027\361-x3o>\350}\025\314Zh\253\247\\"
 1313      18407BC0 
 1313      17F12D78 
 1313      336F3EE8 
 1313      7D15CC5A 
 1314 71d9 C29973F5 		.ascii	"\302\231s\36510H\331{\236\235\0220YE\tE-\307\226\223\033[Zs="
 1314      313048D9 
 1314      7B9E9D12 
 1314      30594509 
 1314      452DC796 
 1315 71f3 852BE298 		.ascii	"\205+\342\230l\355\310a\250\233\227\250l\367\030\016\221\373"
 1315      6CEDC861 
 1315      A89B97A8 
 1315      6CF7180E 
 1315      91FB
 1316 7205 8B75D076 		.ascii	"\213u\320v\221!H}\253\336\\\201\325E\216M\372\325\210\337\307"
 1316      9121487D 
 1316      ABDE5C81 
 1316      D5458E4D 
 1316      FAD588DF 
 1317 721a A6760633 		.ascii	"\246v\0063;~L\243\236Q_\366\3527\336\345\233\230a\240Z\305\365"
 1317      3B7E4CA3 
 1317      9E515FF6 
 1317      EA37DEE5 
 1317      9B9861A0 
 1318 7231 30CA74B3 		.ascii	"0\312t\2633W\267\227\0201\364\212\025\344\234\314O=_\226\331"
 1318      3357B797 
 1318      1031F48A 
 1318      15E49CCC 
 1318      4F3D5F96 
 1319 7246 E37D47DC 		.ascii	"\343}G\334"
 1320 724a 2CBC08A6 		.string	",\274\b\246\212UR\250e< O\201\203G\336\0014\226j\256\203\036\226\270V\246\313/\346\334\02
 1320      8A5552A8 
 1320      653C204F 
 1320      818347DE 
 1320      0134966A 
 1321 734b 39E9C90D 		.ascii	"9\351\311\r$Ia\366\0046\003\r\344\003J\231Dt\263{E\025#\237t"
 1321      244961F6 
 1321      0436030D 
 1321      E4034A99 
 1321      4474B37B 
 1322 7364 76FEE65A 		.ascii	"v\376\346Zs\334\f\226\256\231\350o-\016\337\202\274\2316r[\026"
 1322      73DC0C96 
 1322      AE99E86F 
 1322      2D0EDF82 
 1322      BC993672 
 1323 737a CE26CEE5 		.ascii	"\316&\316\345MR\002\310\b{\361x\363\227\273\234qqR\354\226\333"
 1323      4D5202C8 
 1323      087BF178 
 1323      F397BB9C 
 1323      717152EC 
 1324 7390 28EF1FE7 		.ascii	"(\357\037\347\343Zq\350\006\207\314\351\375ejUd\024\271\206-"
 1324      E35A71E8 
 1324      0687CCE9 
 1324      FD656A55 
 1324      6414B986 
 1325 73a5 F8478DC8 		.ascii	"\370G\215\310%\0176\361\021\322Hyc\215\034\272\327\371\013\333"
 1325      250F36F1 
 1325      11D24879 
 1325      638D1CBA 
 1325      D7F90BDB 
 1326 73b9 75738045 		.ascii	"us\200E\242@\212\276'\232\347\201\277S=oQ\033\337L\3245\221m"
 1326      A2408ABE 
 1326      279AE781 
 1326      BF533D6F 
 1326      511BDF4C 
 1327 73d1 FC852A65 		.ascii	"\374\205*e\236\007K`\001k\204\032\242\3403\230\337\032\223d\343"
 1327      9E074B60 
 1327      016B841A 
 1327      A2E03398 
 1327      DF1A9364 
 1328 73e6 35FFCE76 		.ascii	"5\377\316vB\262\241\247\353\206\2672\365\325\311\005\336t\356"
 1328      42B2A1A7 
 1328      EB86B732 
 1328      F5D5C905 
 1328      DE74EE
 1329 73f9 09917269 		.ascii	"\t\221ri\201;\205\226k\247v\371\315\374\253\272\347L\314\366"
 1329      813B8596 
 1329      6BA776F9 
 1329      CDFCABBA 
 1329      E74CCCF6 
 1330 740d 195DB66D 		.ascii	"\031]\266m\n\202\r\250\354\252\267\365\301z\n\035\261\2524-\r"
 1330      0A820DA8 
 1330      ECAAB7F5 
 1330      C17A0A1D 
 1330      B1AA342D 
 1331 7422 16CA4867 		.ascii	"\026\312Hg7\366\366i\364s\262*\343\237&\355W\260\226\n\244h="
 1331      37F6F669 
 1331      F473B22A 
 1331      E39F26ED 
 1331      57B0960A 
 1332 7439 56F54CC0 		.ascii	"V\365L\300\261\344\021X\332\245\016\376h\377K\274\262\362\366"
 1332      B1E41158 
 1332      DAA50EFE 
 1332      68FF4BBC 
 1332      B2F2F6
 1333 744c 6AD680A6 		.ascii	"j\326\200\246\037V\212\262n\0241oO=N[\202Fh\233\213\263\257\371"
 1333      1F568AB2 
 1333      6E14316F 
 1333      4F3D4E5B 
 1333      8246689B 
 1334 7464 FFE6C9F5 		.ascii	"\377\346\311\365\302\006\036\304]\032.\336Td\230\345\243DvlS"
 1334      C2061EC4 
 1334      5D1A2EDE 
 1334      546498E5 
 1334      A344766C 
 1335 7479 29CFAC22 		.ascii	")\317\254\"j\304\275\325\373\200\251\210\365\003\250\2527A\217"
 1335      6AC4BDD5 
 1335      FB80A988 
 1335      F503A8AA 
 1335      37418F
 1336 748c AB9D1B59 		.ascii	"\253\235\033Y\253\025X\322\246\207%\247\312\212w\303;\307A\023"
 1336      AB1558D2 
 1336      A68725A7 
 1336      CA8A77C3 
 1336      3BC74113 
 1337 74a0 A9B9A29C 		.ascii	"\251\271\242\234H2}\344\331-\236*0\367\372\026x\206\240J\037"
 1337      48327DE4 
 1337      D92D9E2A 
 1337      30F7FA16 
 1337      7886A04A 
 1338 74b5 3A87FE9D 		.ascii	":\207\376\235\243\217\352.Ps\240'\006\346~\273\353\350\236QQ"
 1338      A38FEA2E 
 1338      5073A027 
 1338      06E67EBB 
 1338      EBE89E51 
 1339 74ca 3D2EB15A 		.ascii	"=.\261Z\374|\252\344+\207\376\236i\3167\262\364\364 \331\034"
 1339      FC7CAAE4 
 1339      2B87FE9E 
 1339      69CE37B2 
 1339      F4F420D9 
 1340 74df 2D6373F1 		.ascii	"-cs\361e\361\204\204s\340\302\234\003B\353\223\342\037'\353i"
 1340      65F18484 
 1340      73E0C29C 
 1340      0342EB93 
 1340      E21F27EB 
 1341 74f4 FDD59C95 		.ascii	"\375\325\234\2256|\f\177c\3719B\361\314+\202p\212\017\210-A\006"
 1341      367C0C7F 
 1341      63F93942 
 1341      F1CC2B82 
 1341      708A0F88 
 1342 750b 104BE843 		.ascii	"\020K\350C]\363\250\036\301*j\311\261\225\264x\356\311=\324\230"
 1342      5DF3A81E 
 1342      C12A6AC9 
 1342      B195B478 
 1342      EEC93DD4 
 1343 7520 1FE192BF 		.ascii	"\037\341\222\277x\337\266LZ\222\034q\314T\241\217"
 1343      78DFB64C 
 1343      5A921C71 
 1343      CC54A18F 
 1344 7530 A0CE3BC1 		.string	"\240\316;\301JL\004A\326\351\234U\321^@\247\341B\356,\342\007\020\356\024\177\272\253\031
 1344      4A4C0441 
 1344      D6E99C55 
 1344      D15E40A7 
 1344      E142EE2C 
 1345 75b0 FCEACA32 		.string	"\374\352\3122\312N\324d\341\3606\262\022kmng\211~\361`\331\315\264\217Td%bB\371\274\332\f
 1345      CA4ED464 
 1345      E1F036B2 
 1345      126B6D6E 
 1345      67897EF1 
 1346 7617 741B6D1F 		.string	"t\033m\037p;\371\036KD\377\341\f\374\211\327r\177\305,$\302\233\017~\315\234;!\217\347\24
 1346      703BF91E 
 1346      4B44FFE1 
 1346      0CFC89D7 
 1346      727FC52C 
 1347 76eb 09A287FB 		.ascii	"\t\242\207\373\372\313\231\342z}\211\374\327\177\274\267\225"
 1347      FACB99E2 
 1347      7A7D89FC 
 1347      D77FBCB7 
 1347      95
 1348 76fc 9CC42A24 		.ascii	"\234\304*$\373P\356\026\264\013\017\342\217+\372Q\f\372\352\247"
 1348      FB50EE16 
 1348      B40B0FE2 
 1348      8F2BFA51 
 1348      0CFAEAA7 
 1349 7710 7F4FFDAA 		.ascii	"\177O\375\252\221Q\214\230]Qdpk\3314\320\r\325\327W}\252\227"
 1349      91518C98 
 1349      5D516470 
 1349      6BD934D0 
 1349      0DD5D757 
 1350 7727 1C3E6F7E 		.ascii	"\034>o~\036@\260\357\020\371\"\351\022__\\;\367Hqh\026r\316\206"
 1350      1E40B0EF 
 1350      10F922E9 
 1350      125F5F5C 
 1350      3BF74871 
 1351 7740 E888277F 		.ascii	"\350\210'\177\022\023\020\332\026\223\002\300N\241:\034\f.\332"
 1351      121310DA 
 1351      169302C0 
 1351      4EA13A1C 
 1351      0C2EDA
 1352 7753 CC14918C 		.ascii	"\314\024\221\214QLE\260\220j\343\272#\004.d\013\207\341\306\304"
 1352      514C45B0 
 1352      906AE3BA 
 1352      23042E64 
 1352      0B87E1C6 
 1353 7768 E2A53444 		.ascii	"\342\2454D\263\202\223\244d\312\253\256P\245\311_\006\326\376"
 1353      B38293A4 
 1353      64CAABAE 
 1353      50A5C95F 
 1353      06D6FE
 1354 777b FC8FEB79 		.ascii	"\374\217\353yv#\261 \371-M\025\361d\312L\265\2438\307bh1\rM\267"
 1354      7623B120 
 1354      F92D4D15 
 1354      F164CA4C 
 1354      B5A338C7 
 1355 7795 4554B1FF 		.ascii	"ET\261\377\353aC\347\023J\031\302\267Yb\357\240\343\350\363\377"
 1355      EB6143E7 
 1355      134A19C2 
 1355      B75962EF 
 1355      A0E3E8F3 
 1356 77aa 82147886 		.ascii	"\202\024x\206X!\255\032b\f\006\210\315\363T\201$}\311\033\213"
 1356      5821AD1A 
 1356      620C0688 
 1356      CDF35481 
 1356      247DC91B 
 1357 77bf FB8C5637 		.ascii	"\373\214V7\302\314\263\203&uB\273\276\252~\0172\031\3527\276"
 1357      C2CCB383 
 1357      267542BB 
 1357      BEAA7E0F 
 1357      3219EA37 
 1358 77d4 19085291 		.ascii	"\031\bR\221\246\032\352e\222\240\236j\nr\327-U\233\004\252I\002"
 1358      A61AEA65 
 1358      92A09E6A 
 1358      0A72D72D 
 1358      559B04AA 
 1359 77ea 5127D40E 		.ascii	"Q'\324\016S\035\303w\030\223\255\245\264I\225+\201\003\"n`\254"
 1359      531DC377 
 1359      1893ADA5 
 1359      B449952B 
 1359      8103226E 
 1360 7800 B9A5C359 		.ascii	"\271\245\303Y\256\360\230\323\036\260V^\026\353k\223M\346\320"
 1360      AEF098D3 
 1360      1EB0565E 
 1360      16EB6B93 
 1360      4DE6D0
 1361 7813 C03ECD7C 		.ascii	"\300>\315||0\032Q\363\3204#\347;|3s\263\316\225\223V\367G\365"
 1361      7C301A51 
 1361      F3D03423 
 1361      E73B7C33 
 1361      73B3CE95 
 1362 782c F35E2823 		.ascii	"\363^(# ?\210\352$G\306o\3718\241+:\257\317X^\210\360\007\231"
 1362      203F88EA 
 1362      2447C66F 
 1362      F938A12B 
 1362      3AAFCF58 
 1363 7845 6BD48AB2 		.ascii	"k\324\212\262:\320r-\3443\035\f\003\264G~\323\321\002\234&/E"
 1363      3AD0722D 
 1363      E4331D0C 
 1363      03B4477E 
 1363      D3D1029C 
 1364 785c 13796724 		.ascii	"\023yg$\004\345\253{\246\332Q\304e\n@\326\016F\323\032\035dS"
 1364      04E5AB7B 
 1364      A6DA51C4 
 1364      650A40D6 
 1364      0E46D31A 
 1365 7873 0C5E828E 		.ascii	"\f^\202\216LX\377V\250 #>4x#\221\253 \233\353X#\234\220Z\356"
 1365      4C58FF56 
 1365      A820233E 
 1365      34782391 
 1365      AB209BEB 
 1366 788d 40DD76B9 		.ascii	"@\335v\271K\220\215\364u\333=\036a\367iU\262J[\016\323\344\212"
 1366      4B908DF4 
 1366      75DB3D1E 
 1366      61F76955 
 1366      B24A5B0E 
 1367 78a4 24021A1C 		.ascii	"$\002\032\034\260\305\220\005}\244\211U\241q\215/\352\020\341"
 1367      B0C59005 
 1367      7DA48955 
 1367      A1718D2F 
 1367      EA10E1
 1368 78b7 90D98110 		.ascii	"\220\331\201\020\016\201l\003d\360!G\214N\252E\242S\222$\231"
 1368      0E816C03 
 1368      64F02147 
 1368      8C4EAA45 
 1368      A2539224 
 1369 78cc 5B856B9D 		.ascii	"[\205k\235\005G\231lc\227B\222\2753\345_E\372\n%Z\351\206(0\276"
 1369      0547996C 
 1369      63974292 
 1369      BD33E55F 
 1369      45FA0A25 
 1370 78e6 2EF85FC7 		.ascii	".\370_\307\\n\320\017\243\371V\372\321\363.\031@r\032\332\366"
 1370      5C6ED00F 
 1370      A3F956FA 
 1370      D1F32E19 
 1370      40721ADA 
 1371 78fb AF4070C8 		.ascii	"\257@p\310\201\2624\377\375Z\245D\326z\017\177>\252\f\356\376"
 1371      81B234FF 
 1371      FD5AA544 
 1371      D67A0F7F 
 1371      3EAA0CEE 
 1372 7910 783D65A4 		.ascii	"x=e\244l\223\237\330\257\305\271\222\022\332\362\377\273\345"
 1372      6C939FD8 
 1372      AFC5B992 
 1372      12DAF2FF 
 1372      BBE5
 1373 7922 74118777 		.ascii	"t\021\207w\252\fP6\260\3778\356\367>\314\270\022\027\220\340"
 1373      AA0C5036 
 1373      B0FF38EE 
 1373      F73ECCB8 
 1373      121790E0 
 1374 7936 6F0B494F 		.ascii	"o\013IO|z\344\001;^P\204\237O^\205\235;Ny\211\r\030\211\316\224"
 1374      7C7AE401 
 1374      3B5E5084 
 1374      9F4F5E85 
 1374      9D3B4E79 
 1375 7950 524C7346 		.ascii	"RLsF\266{Ab\216\002j-~\fe\343w\037\334\027\200}\225\205\306\241"
 1375      B67B4162 
 1375      8E026A2D 
 1375      7E0C65E3 
 1375      771FDC17 
 1376 796a AA880443 		.ascii	"\252\210\004C\222Q\335l\267l\247\317\277\227\351\252\360o\352"
 1376      9251DD6C 
 1376      B76CA7CF 
 1376      BF97E9AA 
 1376      F06FEA
 1377 797d B1D6A79C 		.ascii	"\261\326\247\234\354G\031f3UN\224\230\370U\345\005:\243^\307"
 1377      EC471966 
 1377      33554E94 
 1377      98F855E5 
 1377      053AA35E 
 1378 7992 1DAC6B42 		.ascii	"\035\254kBX\035\356\311\377\004<S\314\017\306\240\330 R\274\246"
 1378      581DEEC9 
 1378      FF043C53 
 1378      CC0FC6A0 
 1378      D82052BC 
 1379 79a7 EA5D520C 		.ascii	"\352]R\f\275u\265\2648\334*\222\250\006\373\033\203\300\353\025"
 1379      BD75B5B4 
 1379      38DC2A92 
 1379      A806FB1B 
 1379      83C0EB15 
 1380 79bb 20D57267 		.ascii	" \325rg\267\273T\025\375\221)P\323\364\276\022\212'\343<\263"
 1380      B7BB5415 
 1380      FD912950 
 1380      D3F4BE12 
 1380      8A27E33C 
 1381 79d0 654E0F2D 		.ascii	"eN\017-\036\033\331k "
 1381      1E1BD96B 
 1381      20
 1382 79d9 F3B572FA 		.string	"\363\265r\372\214\0200\322\264[\036\354\241\t\331C\177\377>\207\016\025\005=\265\260\334T
 1382      8C1030D2 
 1382      B45B1EEC 
 1382      A109D943 
 1382      7FFF3E87 
 1383 7ada CBB03F73 		.string	"\313\260?sq{\237\346L\361\303\355$\313\264\\\347\364>\257\331\337\300-\332\226\004'\347\3
 1383      717B9FE6 
 1383      4CF1C3ED 
 1383      24CBB45C 
 1383      E7F43EAF 
 1384 7b6d AEEC02F0 		.ascii	"\256\354\002\360s\2445\344\020\337Ux\n\3651?\324\\^\t\001a\246"
 1384      73A435E4 
 1384      10DF5578 
 1384      0AF5313F 
 1384      D45C5E09 
 1385 7b84 086FB579 		.ascii	"\bo\265y\261U\224\323go\302\206\024F\235\277\037\272\305Q\rV"
 1385      B15594D3 
 1385      676FC286 
 1385      14469DBF 
 1385      1FBAC551 
 1386 7b9a A8C25334 		.ascii	"\250\302S4\270\247_\375<[\330\363\201\252\260p\271\272\3739\330"
 1386      B8A75FFD 
 1386      3C5BD8F3 
 1386      81AAB070 
 1386      B9BAFB39 
 1387 7baf 3E2882D1 		.ascii	">(\202\321\330r\036faa[=\005\022q\264eb8l\033Ub>G\005\203!\203"
 1387      D8721E66 
 1387      61615B3D 
 1387      051271B4 
 1387      6562386C 
 1388 7bcc 81595F0D 		.ascii	"\201Y_\r\275\334[\367\333\2562,r\347(\372#\376\217\r\260@-\317"
 1388      BDDC5BF7 
 1388      DBAE322C 
 1388      72E728FA 
 1388      23FE8F0D 
 1389 7be4 3B9FB211 		.ascii	";\237\262\021\221)\243\321\224\037\331\275\251\260\034T0\303"
 1389      9129A3D1 
 1389      941FD9BD 
 1389      A9B01C54 
 1389      30C3
 1390 7bf6 EAE930E4 		.ascii	"\352\3510\3445Y\"A\346\201e\007\242\365\333!\220\227\266\361"
 1390      35592241 
 1390      E6816507 
 1390      A2F5DB21 
 1390      9097B6F1 
 1391 7c0a 925E39DC 		.ascii	"\222^9\334+\342\222\247k\216EU\276\212#2W\216\177\337\301\n\247"
 1391      2BE292A7 
 1391      6B8E4555 
 1391      BE8A2332 
 1391      578E7FDF 
 1392 7c21 4E76136A 		.ascii	"Nv\023j\305m_\004j<\212\313\241I`4\373\200\225J\262\017#\021"
 1392      C56D5F04 
 1392      6A3C8ACB 
 1392      A1496034 
 1392      FB80954A 
 1393 7c39 C94DCB6D 		.ascii	"\311M\313m{\217\nK8g\030\207\343\301?\347Rh>\244\300X\342\343"
 1393      7B8F0A4B 
 1393      38671887 
 1393      E3C13FE7 
 1393      52683EA4 
 1394 7c51 8D0B8928 		.ascii	"\215\013\211(cJB\312r\336\017pW\265\346\350\303+\"\031R\275K"
 1394      634A42CA 
 1394      72DE0F70 
 1394      57B5E6E8 
 1394      C32B2219 
 1395 7c68 DD830855 		.ascii	"\335\203\bU8w\353\030\266&m\021b\276\364\r\253\205\013\234\341"
 1395      3877EB18 
 1395      B6266D11 
 1395      62BEF40D 
 1395      AB850B9C 
 1396 7c7d AEB549F2 		.ascii	"\256\265I\362\004\227\030\217\315S\255\372\002\274\f\022c\027"
 1396      0497188F 
 1396      CD53ADFA 
 1396      02BC0C12 
 1396      6317
 1397 7c8f EDC82CAE 		.ascii	"\355\310,\256\304(w\026\3541\266\310\030\021!\202\347T62\246"
 1397      C4287716 
 1397      EC31B6C8 
 1397      18112182 
 1397      E7543632 
 1398 7ca4 13BB945E 		.ascii	"\023\273\224^Ny\254\314\206i\344\0067%\346\252P\343UG\036\204"
 1398      4E79ACCC 
 1398      8669E406 
 1398      3725E6AA 
 1398      50E35547 
 1399 7cba 441B9C55 		.ascii	"D\033\234U\260\205\214\334\245\007,\007\314Ax\203\340\205>\255"
 1399      B0858CDC 
 1399      A5072C07 
 1399      CC417883 
 1399      E0853EAD 
 1400 7cce 7B154A8B 		.ascii	"{\025J\213\217\n\256r@\262\254\221\310\340\322Oec\262\233\247"
 1400      8F0AAE72 
 1400      40B2AC91 
 1400      C8E0D24F 
 1400      6563B29B 
 1401 7ce3 4E8CA434 		.ascii	"N\214\2444\364\034b\256cz\207\275\224\302B\\\221^\351\\G\211"
 1401      F41C62AE 
 1401      637A87BD 
 1401      94C2425C 
 1401      915EE95C 
 1402 7cf9 239E5285 		.ascii	"#\236R\205\236b["
 1402      9E625B
 1403 7d00 356F021B 		.string	"5o\002\033c\206\327\0275\n\341\340\315\006\037E\261AKv\031\204\377\313\251ehnD\366Y\3136\
 1403      6386D717 
 1403      350AE1E0 
 1403      CD061F45 
 1403      B1414B76 
 1404 7dea 2A9B67F9 		.ascii	"*\233g\3712\334^\204Q\305\315\342\276\324wv\333wgS4\327\f\021"
 1404      32DC5E84 
 1404      51C5CDE2 
 1404      BED47776 
 1404      DB776753 
 1405 7e02 DF       		.ascii	"\337"
 1406 7e03 1F142A6A 		.string	"\037\024*jR\353{\304\352E8\232o\3465\004\245\307\344\353\202|\016H\350\315\363RG\242\336\
 1406      52EB7BC4 
 1406      EA45389A 
 1406      6FE63504 
 1406      A5C7E4EB 
 1407 7f04 5D00     		.string	"]"
 1408 7f06 571340CC 		.ascii	"W\023@\314g\032\272\307\201t`\032i\203\347\216\366\2164\216,"
 1408      671ABAC7 
 1408      8174601A 
 1408      6983E78E 
 1408      F68E348E 
 1409 7f1b D9C9AA22 		.ascii	"\331\311\252\"\247\233$\021u\223G\334\227\263\244\314\003\230"
 1409      A79B2411 
 1409      759347DC 
 1409      97B3A4CC 
 1409      0398
 1410 7f2d BC395BE8 		.ascii	"\2749[\350\204\217\271F\361\274C\227Rum~W\022E\034\253/\237\327"
 1410      848FB946 
 1410      F1BC4397 
 1410      52756D7E 
 1410      5712451C 
 1411 7f45 422C18BB 		.ascii	"B,\030\273\330\3237B6\324\363\306M\207n\270\313P\315\273\202"
 1411      D8D33742 
 1411      36D4F3C6 
 1411      4D876EB8 
 1411      CB50CDBB 
 1412 7f5a 22923E72 		.ascii	"\"\222>r\270\256=\007}\316}\020\310\335\324\300\255<\324L\217"
 1412      B8AE3D07 
 1412      7DCE7D10 
 1412      C8DDD4C0 
 1412      AD3CD44C 
 1413 7f6f 7B8999AA 		.ascii	"{\211\231\252\262k\177\207\345p9\345\200\231\331\272\203\250"
 1413      B26B7F87 
 1413      E57039E5 
 1413      8099D9BA 
 1413      83A8
 1414 7f81 B5B7EAFD 		.ascii	"\265\267\352\375\226~\207J\352\263H7I~M\321l\031\016\363\253"
 1414      967E874A 
 1414      EAB34837 
 1414      497E4DD1 
 1414      6C190EF3 
 1415 7f96 710A94FE 		.ascii	"q\n\224\376\364\200\016\205kA\225<\225\337\035\3277T\226b\301"
 1415      F4800E85 
 1415      6B41953C 
 1415      95DF1DD7 
 1415      37549662 
 1416 7fab 782AA4D8 		.ascii	"x*\244\330z\243\307\223\266\351Uz\273FQ\313m\332u\rR`\354'C\231"
 1416      7AA3C793 
 1416      B6E9557A 
 1416      BB4651CB 
 1416      6DDA750D 
 1417 7fc5 63377F6C 		.ascii	"c7\177l\224{("
 1417      947B28
 1418 7fcc EE579E16 		.string	"\356W\236\026\205\320:m\214\205\261x\t\207s\224\265X/\266\247\327E\371\277\260\334\023\32
 1418      85D03A6D 
 1418      8C85B178 
 1418      09877394 
 1418      B5582FB6 
 1419 80cd 1214B1C0 		.string	"\022\024\261\300~\200\351\334\202]\256\016\240\345\253\330\232\310\"@G\340\237\0040\031\3
 1419      7E80E9DC 
 1419      825DAE0E 
 1419      A0E5ABD8 
 1419      9AC82240 
 1420 80f7 9E4F0518 		.string	"\236O\005\030\215\211A7\265\221p4\202\237\240\201\017\351\242\347\305\035\373\335\265\310
 1420      8D894137 
 1420      B5917034 
 1420      829FA081 
 1420      0FE9A2E7 
 1421 811f A2E03C1E 		.ascii	"\242\340<\036h\006\262a\370\235\350i\264=\211\266\020\346\262"
 1421      6806B261 
 1421      F89DE869 
 1421      B43D89B6 
 1421      10E6B2
 1422 8132 387942FF 		.ascii	"8yB\377w!X\243Ar\313'\327\237\312\272\330(\253\353't\356\371"
 1422      772158A3 
 1422      4172CB27 
 1422      D79FCABA 
 1422      D828ABEB 
 1423 814a 5753A95D 		.ascii	"WS\251]\355\016[2$\357\317\375\2628\252\373}\333z3\250\033\024"
 1423      ED0E5B32 
 1423      24EFCFFD 
 1423      B238AAFB 
 1423      7DDB7A33 
 1424 8161 ACD3A04D 		.ascii	"\254\323\240M6\277\210\177l\2263\314\356\256%b\r\234\273\222"
 1424      36BF887F 
 1424      6C9633CC 
 1424      EEAE2562 
 1424      0D9CBB92 
 1425 8175 B4E77640 		.ascii	"\264\347v@.\235\210B\021JG\254"
 1425      2E9D8842 
 1425      114A47AC 
 1426 8181 27F3EAEF 		.string	"'\363\352\357t\206c\327\002\230\21068\274\206\333\n\261\234\\\371\364\267\372\325\336\246
 1426      748663D7 
 1426      02988836 
 1426      38BC86DB 
 1426      0AB19C5C 
 1427 8282 0DBBD0AF 		.string	"\r\273\320\257\363\200I9\247\245\351\345\031\246\226\227\355\371>\367w@\256\027R\355#6A\2
 1427      F3804939 
 1427      A7A5E9E5 
 1427      19A69697 
 1427      EDF93EF7 
 1428 8345 B34B91EA 		.string	"\263K\221\352e\217\364\344R\021wD\262\363#B\205n`\253\343\217\211\345\247\034\267'Z;\320\
 1428      658FF4E4 
 1428      52117744 
 1428      B2F32342 
 1428      856E60AB 
 1429 841c AE5FA111 		.ascii	"\256_\241\021\231\262\203\352\n\017\352\\-\311fJ1\221?\255{\343"
 1429      99B283EA 
 1429      0A0FEA5C 
 1429      2DC9664A 
 1429      31913FAD 
 1430 8432 8B21A14B 		.ascii	"\213!\241K\034y\342_$\213\030\227$\035\035Ua\374\350G&\265\005"
 1430      1C79E25F 
 1430      248B1897 
 1430      241D1D55 
 1430      61FCE847 
 1431 8449 652F5145 		.ascii	"e/QEo\232_\333\001\376\263\017@k\240\246K\2117\324 \3264\355"
 1431      6F9A5FDB 
 1431      01FEB30F 
 1431      406BA0A6 
 1431      4B8937D4 
 1432 8461 EB5C9DAD 		.ascii	"\353\\\235\255kU'\034\274\325\007\377R{\371\317\034\256\271\204"
 1432      6B55271C 
 1432      BCD507FF 
 1432      527BF9CF 
 1432      1CAEB984 
 1433 8475 906B0263 		.ascii	"\220k\002c\301\t\371T\373\352\3639)\003\323.\362Qo\b\351\321"
 1433      C109F954 
 1433      FBEAF339 
 1433      2903D32E 
 1433      F2516F08 
 1434 848b C66DE887 		.ascii	"\306m\350\207\033\252\272w\221\301\365\332\363\212&\371\377\261"
 1434      1BAABA77 
 1434      91C1F5DA 
 1434      F38A26F9 
 1434      FFB1
 1435 849d AA8BC3A9 		.ascii	"\252\213\303\251,\021\222\203\016\217\267>\266\271y\352h\n\353"
 1435      2C119283 
 1435      0E8FB73E 
 1435      B6B979EA 
 1435      680AEB
 1436 84b0 E1E75C05 		.ascii	"\341\347\\\005\036+yod\203\022\035\344\351\365\007\377\036\242"
 1436      1E2B796F 
 1436      6483121D 
 1436      E4E9F507 
 1436      FF1EA2
 1437 84c3 7F7DF8B1 		.ascii	"\177}\370\261\271\237JqS+\276@\022"
 1437      B99F4A71 
 1437      532BBE40 
 1437      12
 1438 84d0 4CD900   		.string	"L\331"
 1439 84d3 0C867B8E 		.string	"\f\206{\216\022 \335\240\004\"\211dK0\204\347\262\031\241K\235\f\271WB\3371b\235\333\364\
 1439      1220DDA0 
 1439      04228964 
 1439      4B3084E7 
 1439      B219A14B 
 1440 8583 26BF2822 		.ascii	"&\277(\"\022{\370\276R\312\337\234sZ\333\223\276_\360r\313yC"
 1440      127BF8BE 
 1440      52CADF9C 
 1440      735ADB93 
 1440      BE5FF072 
 1441 859a 8D3DCE16 		.ascii	"\215=\316\026l<\324a\327|SS\020\300^\312\210Z\337+\275C\017\342"
 1441      6C3CD461 
 1441      D77C5353 
 1441      10C05ECA 
 1441      885ADF2B 
 1442 85b2 6A44B8C5 		.ascii	"jD\270\305\344\375\032\025x\2360\375\317\341\025\035\241\234"
 1442      E4FD1A15 
 1442      789E30FD 
 1442      CFE1151D 
 1442      A19C
 1443 85c4 91BB733E 		.ascii	"\221\273s>\326\030\363Il\263\202\035\326NG8\336\021p^)%\347\023"
 1443      D618F349 
 1443      6CB3821D 
 1443      D64E4738 
 1443      DE11705E 
 1444 85dc BC4C7C95 		.ascii	"\274L|\2254\261\251<\032@}2=V&W\317\270{!\r\263\354\364\224\003"
 1444      34B1A93C 
 1444      1A407D32 
 1444      3D562657 
 1444      CFB87B21 
 1445 85f6 C82144B1 		.ascii	"\310!D\261\254x\261! 9T\332R3~?\323\\\b\322d;95\3333^(\354\203"
 1445      AC78B121 
 1445      203954DA 
 1445      52337E3F 
 1445      D35C08D2 
 1446 8614 9EAAE80E 		.ascii	"\236\252\350\016J\375\237Qs\231"
 1446      4AFD9F51 
 1446      7399
 1447 861e 6CAC6390 		.string	"l\254c\220\321\003\200(^\024\177\374\003\\\307~<\036s\204\246\202\330^M{o\223\317\321\t\3
 1447      D1038028 
 1447      5E147FFC 
 1447      035CC77E 
 1447      3C1E7384 
 1448 871f 726F03E1 		.ascii	"ro\003\341\202\240\f\265\225\210\3161P\265\230\253\345\236X\266"
 1448      82A00CB5 
 1448      9588CE31 
 1448      50B598AB 
 1448      E59E58B6 
 1449 8733 9FCC51B2 		.ascii	"\237\314Q\262J,\n\256\334\320\370\371\237\212\202\035\335\230"
 1449      4A2C0AAE 
 1449      DCD0F8F9 
 1449      9F8A821D 
 1449      DD98
 1450 8745 323C3962 		.ascii	"2<9b\367\331V\3055\307-\351e\217c\346r\\\316\357\0338\317\372"
 1450      F7D956C5 
 1450      35C72DE9 
 1450      658F63E6 
 1450      725CCEEF 
 1451 875d E678B79C 		.ascii	"\346x\267\234\347V\226/b>\0339\352\016\371S\264\307L\201E\001"
 1451      E756962F 
 1451      623E1B39 
 1451      EA0EF953 
 1451      B4C74C81 
 1452 8773 182D4ABE 		.ascii	"\030-J\276=\341\353c;\t\235\234\243\237h\013\026\247\240\277"
 1452      3DE1EB63 
 1452      3B099D9C 
 1452      A39F680B 
 1452      16A7A0BF 
 1453 8787 83329739 		.ascii	"\2032\2279\207\206s\347\334\214\346\231b\227\230\311\n\363\363"
 1453      878673E7 
 1453      DC8CE699 
 1453      629798C9 
 1453      0AF3F3
 1454 879a C8C4746F 		.ascii	"\310\304to6\351\353\333\221\n\235\311\372\375,\255\355<\274\037"
 1454      36E9EBDB 
 1454      910A9DC9 
 1454      FAFD2CAD 
 1454      ED3CBC1F 
 1455 87ae 94391A1D 		.ascii	"\2249\032\035\367\024\226:\365`?\203\0038\255\231\304\315i\257"
 1455      F714963A 
 1455      F5603F83 
 1455      0338AD99 
 1455      C4CD69AF 
 1456 87c2 4514633A 		.ascii	"E\024c:0\272V\335{y\302D\341A\213\372\r\232\250\237&\020\243"
 1456      30BA56DD 
 1456      7B79C244 
 1456      E1418BFA 
 1456      0D9AA89F 
 1457 87d9 335A07C3 		.ascii	"3Z\007\303\337\005\021Gt\312\274<\361C[\254\n6\031;\245>[3\001"
 1457      DF051147 
 1457      74CABC3C 
 1457      F1435BAC 
 1457      0A36193B 
 1458 87f2 8BB473DC 		.ascii	"\213\264s\334\366\343\363\025\220\273\313\331\302\245\242{\346"
 1458      F6E3F315 
 1458      90BBCBD9 
 1458      C2A5A27B 
 1458      E6
 1459 8803 6AAA     		.ascii	"j\252"
 1460 8805 92F49889 		.string	"\222\364\230\211\347\352\231PYmI\307\243\304e\337\2332\225\f\235\b\203.\024K-\2269\273E\3
 1460      E7EA9950 
 1460      596D49C7 
 1460      A3C465DF 
 1460      9B32950C 
 1461 8906 FF678CA5 		.ascii	"\377g\214\245\002:\245K_\255\222\222\241\341_JOr\252i\b\312E"
 1461      023AA54B 
 1461      5FAD9292 
 1461      A1E15F4A 
 1461      4F72AA69 
 1462 891d 16B88A83 		.ascii	"\026\270\212\203\330\324\270\324v\213i\003\277\3671\033X\315"
 1462      D8D4B8D4 
 1462      768B6903 
 1462      BFF7311B 
 1462      58CD
 1463 892f 71C3E0FF 		.ascii	"q\303\340\377zu\211\213\211\204\365I\204B7=\003\252\227\246\337"
 1463      7A75898B 
 1463      8984F549 
 1463      8442373D 
 1463      03AA97A6 
 1464 8944 841FF975 		.ascii	"\204\037\371ucdq\0025\207f)\366\301\2738\300\003\344#\006m\376"
 1464      63647102 
 1464      35876629 
 1464      F6C1BB38 
 1464      C003E423 
 1465 895b 6804C97B 		.ascii	"h\004\311{\313E\204\326\272\3212\367$;\267xX\266\221\037\343"
 1465      CB4584D6 
 1465      BAD132F7 
 1465      243BB778 
 1465      58B6911F 
 1466 8970 FB487EA5 		.ascii	"\373H~\245Q\017\323\366\235\374\361\376\332\246T\302{\336r\330"
 1466      510FD3F6 
 1466      9DFCF1FE 
 1466      DAA654C2 
 1466      7BDE72D8 
 1467 8984 9C7A6F05 		.ascii	"\234zo\005&9~\264\247\355\364\246k\337[\333*S[p\317\210e\362"
 1467      26397EB4 
 1467      A7EDF4A6 
 1467      6BDF5BDB 
 1467      2A535B70 
 1468 899c 276C5295 		.ascii	"'lR\225\026o+\330\241G\260\233\230#\fFV_`\276\264m\221\035\272"
 1468      166F2BD8 
 1468      A147B09B 
 1468      98230C46 
 1468      565F60BE 
 1469 89b5 3E9E3503 		.ascii	">\2365\003Q\365C\303\226R\267eM\17784\335\342\006\261\343\017"
 1469      51F543C3 
 1469      9652B765 
 1469      4D7F3834 
 1469      DDE206B1 
 1470 89cb E6EA594E 		.ascii	"\346\352YNT\332h`\235\306O0y\265\371\327\f._\346\260})\372S\327"
 1470      54DA6860 
 1470      9DC64F30 
 1470      79B5F9D7 
 1470      0C2E5FE6 
 1471 89e5 37932D97 		.ascii	"7\223-\227\221\237\376\242d\023\256\233c0\347r9\327+\027A\022"
 1471      919FFEA2 
 1471      6413AE9B 
 1471      6330E772 
 1471      39D72B17 
 1472 89fb 87DE60FE 		.ascii	"\207\336`\376\253\006{w\252g\335A\231\345\363\353"
 1472      AB067B77 
 1472      AA67DD41 
 1472      99E5F3EB 
 1473 8a0b E6330D64 		.string	"\3463\rdGc\222aZ\360\226\031\374\216\204\206\303?\334\245\374\007\221\242\204\313\251\007
 1473      47639261 
 1473      5AF09619 
 1473      FC8E8486 
 1473      C33FDCA5 
 1474 8b0c 07D27FDF 		.ascii	"\007\322\177\337\233\315y\367\212\361\"\370W?:\246\3408\212\247"
 1474      9BCD79F7 
 1474      8AF122F8 
 1474      573F3AA6 
 1474      E0388AA7 
 1475 8b20 56EC1CB6 		.ascii	"V\354\034\266\006\324\204\275\025\"P\303\220\235\220\200\005"
 1475      06D484BD 
 1475      152250C3 
 1475      909D9080 
 1475      05
 1476 8b31 20E63616 		.ascii	" \3466\026\013)\355\030\361b<u\260\244\263\355%\314\f`\252\275"
 1476      0B29ED18 
 1476      F1623C75 
 1476      B0A4B3ED 
 1476      25CC0C60 
 1477 8b47 317CF637 		.ascii	"1|\3667:\256\370.BDw\372\242\251\225\371Z\204\307\025PZL?\036"
 1477      3AAEF82E 
 1477      424477FA 
 1477      A2A995F9 
 1477      5A84C715 
 1478 8b60 218DCEE3 		.ascii	"!\215\316\343\204\211\3763p\017\367#i\\T\372X\033\362\037Lu\272"
 1478      8489FE33 
 1478      700FF723 
 1478      695C54FA 
 1478      581BF21F 
 1479 8b77 C305C093 		.ascii	"\303\005\300\223\213C\233\265\242\032\200\345\271Ko\0347\370"
 1479      8B439BB5 
 1479      A21A80E5 
 1479      B94B6F1C 
 1479      37F8
 1480 8b89 BBD9A346 		.ascii	"\273\331\243F\232\206\220{7\004\031V\024\330>dq\227\301\351\204"
 1480      9A86907B 
 1480      37041956 
 1480      14D83E64 
 1480      7197C1E9 
 1481 8b9e 3F0817FD 		.ascii	"?\b\027\375^0%\no\230\324?\324'\364\321\227\270a>1\343\3739\027"
 1481      5E30250A 
 1481      6F98D43F 
 1481      D427F4D1 
 1481      97B8613E 
 1482 8bb7 F58668FA 		.ascii	"\365\206h\372e\235Sa\007\312$\003\206\372\343\214n\376\224\204"
 1482      659D5361 
 1482      07CA2403 
 1482      86FAE38C 
 1482      6EFE9484 
 1483 8bcb 50FDC3AB 		.ascii	"P\375\303\253/\022\017\007\005x\354\324R\213\212\322ha\213kk"
 1483      2F120F07 
 1483      0578ECD4 
 1483      528B8AD2 
 1483      68618B6B 
 1484 8be0 CC04DEA9 		.ascii	"\314\004\336\251\371\263=\322\327][!\276\244\016\321\276\376"
 1484      F9B33DD2 
 1484      D75D5B21 
 1484      BEA40ED1 
 1484      BEFE
 1485 8bf2 C996DC2D 		.ascii	"\311\226\334-!\267\227$\217A\353\241\376y\250\322\223zbQ\347"
 1485      21B79724 
 1485      8F41EBA1 
 1485      FE79A8D2 
 1485      937A6251 
 1486 8c07 D89E73CE 		.ascii	"\330\236s\316Z\350R;\372\037\335\346\272PF\302\266H\255\003\257"
 1486      5AE8523B 
 1486      FA1FDDE6 
 1486      BA5046C2 
 1486      B648AD03 
 1487 8c1c 76A7AC4E 		.ascii	"v\247\254N\223rv\374\312\250d\002\355\344\257\375\363\261\235"
 1487      937276FC 
 1487      CAA86402 
 1487      EDE4AFFD 
 1487      F3B19D
 1488 8c2f B3D07B4A 		.ascii	"\263\320{J\267\"\360(\222xV\343D\376\332fb$ZC\211\351\231Y)\275"
 1488      B722F028 
 1488      927856E3 
 1488      44FEDA66 
 1488      62245A43 
 1489 8c49 5F51AB08 		.ascii	"_Q\253\b$\236>\223R\323j\tx\272Y\003\016\016\317_o\3335W\203"
 1489      249E3E93 
 1489      52D36A09 
 1489      78BA5903 
 1489      0E0ECF5F 
 1490 8c62 67F73770 		.ascii	"g\3677p\007\004\017\233R\016\222l5~ l7\302\200u\337-\240\213"
 1490      07040F9B 
 1490      520E926C 
 1490      357E206C 
 1490      37C28075 
 1491 8c7a E1561C98 		.ascii	"\341V\034\230\236\266'P\212I*\340 \267Xo\212\220q\335\342\354"
 1491      9EB62750 
 1491      8A492AE0 
 1491      20B7586F 
 1491      8A9071DD 
 1492 8c90 1085C9B5 		.ascii	"\020\205\311\265\353] s\317\326\230\327\354\237z\265"
 1492      EB5D2073 
 1492      CFD698D7 
 1492      EC9F7AB5 
 1493 8ca0 0FB83FAF 		.string	"\017\270?\257,\302cD6\2576O\260\324\276W\215`\233\255e\3349\233_\331\223e\002\317\255i\32
 1493      2CC26344 
 1493      36AF364F 
 1493      B0D4BE57 
 1493      8D609BAD 
 1494 8ce3 1CA32609 		.string	"\034\243&\t\336>\334\032 $P \202\322\371\331\017\212\366\001i\212\3073\016\0019X\321\364p
 1494      DE3EDC1A 
 1494      20245020 
 1494      82D2F9D9 
 1494      0F8AF601 
 1495 8dab 7EBEE8C4 		.string	"~\276\350\304\210[Xw\325 \037\317\306 \375L\327J~wg\336>\326B\036E\177\352\317\337\007i^\
 1495      885B5877 
 1495      D5201FCF 
 1495      C620FD4C 
 1495      D74A7E77 
 1496 8e8a D135495A 		.string	"\3215IZ%Z\263\316\345\334\263\322/W\261j\344\247x\346\007v\017f\370\tY\320\037uxo\273\024
 1496      255AB3CE 
 1496      E5DCB3D2 
 1496      2F57B16A 
 1496      E4A778E6 
 1497 8f5c D18A20EC 		.string	"\321\212 \354q\002\207\3511V\317\374\330\210\201\206\221q\023\323\364\247P\317\202\027\26
 1497      710287E9 
 1497      3156CFFC 
 1497      D8888186 
 1497      917113D3 
 1498 9010 458FBD14 		.string	"E\217\275\024\221?\315~\301t\336\216\261\3755M\027r\255\201Yx\311\264\271\002\237\365g\00
 1498      913FCD7E 
 1498      C174DE8E 
 1498      B1FD354D 
 1498      1772AD81 
 1499 90b3 8B63F555 		.ascii	"\213c\365Uw\t0S\261\331\334\017~\232\316\354\204\274\263\273"
 1499      77093053 
 1499      B1D9DC0F 
 1499      7E9ACEEC 
 1499      84BCB3BB 
 1500 90c7 79832AB0 		.ascii	"y\203*\260\344UH\307\"?\223W)/\337\351q\261\330\260\2244\271"
 1500      E45548C7 
 1500      223F9357 
 1500      292FDFE9 
 1500      71B1D8B0 
 1501 90de A980E00D 		.ascii	"\251\200\340\r]'\342R\3455\b!\277"
 1501      5D27E252 
 1501      E5350821 
 1501      BF
 1502 90eb E1F713E7 		.string	"\341\367\023\347\207Qr\235\307)B\304E\007\366W`\344\376\2650\241\3055\260\246-I\254\256\2
 1502      8751729D 
 1502      C72942C4 
 1502      4507F657 
 1502      60E4FEB5 
 1503 91ec D11EB426 		.string	"\321\036\264&\310\330\315f>s\207\240<\023\211\277\254\240<a\356\210\033\224\3646\3720\221
 1503      C8D8CD66 
 1503      3E7387A0 
 1503      3C1389BF 
 1503      ACA03C61 
 1504 9249 38A6D33A 		.string	"8\246\323:\325\230\237\006,\300\212\352i%ix\"\213\257\223\3745\332E3\3320\245\357\3546\34
 1504      D5989F06 
 1504      2CC08AEA 
 1504      69256978 
 1504      228BAF93 
 1505 92a7 BEE7B66A 		.string	"\276\347\266jc\017\212n\332Pz\311\216Y\312\033\030YO\223\302\255\303\221{f}+\267C\"4\201\
 1505      630F8A6E 
 1505      DA507AC9 
 1505      8E59CA1B 
 1505      18594F93 
 1506 9344 D79C075D 		.ascii	"\327\234\007]\022\210\317\026?\337&\323ba\033\177B\002\263\371"
 1506      1288CF16 
 1506      3FDF26D3 
 1506      62611B7F 
 1506      4202B3F9 
 1507 9358 638A9C20 		.ascii	"c\212\234 K\275\330_\354\375\261F\036"
 1507      4BBDD85F 
 1507      ECFDB146 
 1507      1E
 1508 9365 47E8AA7E 		.string	"G\350\252~\005\313\241m\207\031\177\333n\2632#\f\364\222\3658\352\246*q\032(\270\243e\302
 1508      05CBA16D 
 1508      87197FDB 
 1508      6EB33223 
 1508      0CF492F5 
 1509 9466 54905CC1 		.ascii	"T\220\\\301\205)\3263\257W"
 1509      8529D633 
 1509      AF57
 1510 9470 09D11BA6 		.string	"\t\321\033\246\235\351\r7V\326\373\016\227\3435\004(\334\334\347\007\230[40\305\351\367\3
 1510      9DE90D37 
 1510      56D6FB0E 
 1510      97E33504 
 1510      28DCDCE7 
 1511 94ec DB7576A8 		.string	"\333uv\250rY\324\016W\301\2430\245L\351t\355F\366\247\214We\240A\231c\267\2400@\335B!\017
 1511      7259D40E 
 1511      57C1A330 
 1511      A54CE974 
 1511      ED46F6A7 
 1512 9561 F6C0D7F4 		.string	"\366\300\327\364\263h&c@\263{\275\265\260\215.A\353\334\221\230\022\006@\025\022+\347E\30
 1512      B3682663 
 1512      40B37BBD 
 1512      B5B08D2E 
 1512      41EBDC91 
 1513 95a8 7A4EDD4B 		.ascii	"zN\335Kx3\213\343R\002\231\332\352\215b\301\027\203#Q%\304.("
 1513      78338BE3 
 1513      520299DA 
 1513      EA8D62C1 
 1513      17832351 
 1514 95c0 B9AEBC76 		.ascii	"\271\256\274v\263\fb\324C\001\202\035>\375b\302O"
 1514      B30C62D4 
 1514      4301821D 
 1514      3EFD62C2 
 1514      4F
 1515 95d1 70EE2B33 		.string	"p\356+3\017-F\002\217/\266\007)\251\356k\"\257\025u\020\225\243\314\004\244\237ur\225\207
 1515      0F2D4602 
 1515      8F2FB607 
 1515      29A9EE6B 
 1515      22AF1575 
 1516 96d2 2E2F32C8 		.string	"./2\310\013&.\035\357RT \271,m\304\346\376\0062BZ\036\231\333\227W\031\336\005\276}L\252\
 1516      0B262E1D 
 1516      EF525420 
 1516      B92C6DC4 
 1516      E6FE0632 
 1517 9775 B2551117 		.ascii	"\262U\021\027\343\031\004\373H\365\262\326\004\243\204\345\344"
 1517      E31904FB 
 1517      48F5B2D6 
 1517      04A384E5 
 1517      E4
 1518 9786 6E38D1AA 		.ascii	"n8\321\252\275\177\367\275\230\357u\023\2121?\266(\032?\354b"
 1518      BD7FF7BD 
 1518      98EF7513 
 1518      8A313FB6 
 1518      281A3FEC 
 1519 979b BCE76387 		.ascii	"\274\347c\2079\032\331Fq\021Vw\266(\2336\325)I@\223\033h\247"
 1519      391AD946 
 1519      71115677 
 1519      B6289B36 
 1519      D5294940 
 1520 97b3 B3AE24F6 		.ascii	"\263\256$\366W\025\357\"\n\365\252\217\313qK\350\250TUF(\345"
 1520      5715EF22 
 1520      0AF5AA8F 
 1520      CB714BE8 
 1520      A8545546 
 1521 97c9 46456B19 		.ascii	"FEk\031N>\017\350\033\276\303(\233lyH\252\2322\303y\005\023I"
 1521      4E3E0FE8 
 1521      1BBEC328 
 1521      9B6C7948 
 1521      AA9A32C3 
 1522 97e1 E8C27810 		.ascii	"\350\302x\0208\301\034St\322\270\366\200\353\322\316&\327\300"
 1522      38C11C53 
 1522      74D2B8F6 
 1522      80EBD2CE 
 1522      26D7C0
 1523 97f4 0353E43C 		.ascii	"\003S\344<\017\376\202\240\321\f"
 1523      0FFE82A0 
 1523      D10C
 1524 97fe 9BBC4E0F 		.string	"\233\274N\017v]\272\377\232$\016\374z\222;\"\376\232V\315\t\302\250\316\007\2772\2275\345
 1524      765DBAFF 
 1524      9A240EFC 
 1524      7A923B22 
 1524      FE9A56CD 
 1525 98ff 67FC351F 		.string	"g\3745\037u\351I\366p\233\215=9\274-\347\262\347[\254G\337\241v\033\271\030\2305\365#R\20
 1525      75E949F6 
 1525      709B8D3D 
 1525      39BC2DE7 
 1525      B2E75BAC 
 1526 99bb 99ECBF50 		.string	"\231\354\277P\305\315\217.\b\255\3223\2430q\";\026\2320\316\b\256h\006\272\204l\3402\241\
 1526      C5CD8F2E 
 1526      08ADD233 
 1526      A3307122 
 1526      3B169A30 
 1527 99e5 9ABCA122 		.string	"\232\274\241\"\240\362\213q\251\222\320U\327\257|\037\032!\025u\357\ty\025\365~\023  \"\2
 1527      A0F28B71 
 1527      A992D055 
 1527      D7AF7C1F 
 1527      1A211575 
 1528 9a50 DA72E8BC 		.ascii	"\332r\350\274\373x/\260\317\362`%\364\3041\201\202\303\255\321"
 1528      FB782FB0 
 1528      CFF26025 
 1528      F4C43181 
 1528      82C3ADD1 
 1529 9a64 56204611 		.ascii	"V F\0216%\363z\032\356\026\340\340\350w\254\037\235j\017\301"
 1529      3625F37A 
 1529      1AEE16E0 
 1529      E0E877AC 
 1529      1F9D6A0F 
 1530 9a79 1943C5FB 		.ascii	"\031C\305\373{\203{u W\217=\2450\251\025\362\262\231l\032e\342"
 1530      7B837B75 
 1530      20578F3D 
 1530      A530A915 
 1530      F2B2996C 
 1531 9a90 F4EF9C76 		.ascii	"\364\357\234vk\t\006d\362\272s\255J\376\241\315wt~\267el\031"
 1531      6B090664 
 1531      F2BA73AD 
 1531      4AFEA1CD 
 1531      77747EB7 
 1532 9aa7 D1F2C574 		.ascii	"\321\362\305t\246d\214el\314\367\366wg\013\036-\203& \312\013"
 1532      A6648C65 
 1532      6CCCF7F6 
 1532      77670B1E 
 1532      2D832620 
 1533 9abd B63CE717 		.ascii	"\266<\347\027\222\366\231\340\340[\r\371D\002\241\226\266\264"
 1533      92F699E0 
 1533      E05B0DF9 
 1533      4402A196 
 1533      B6B4
 1534 9acf 52AF7D9E 		.ascii	"R\257}\236\327~q\364\207\013\220\310\346\341\274\202+ \350\033"
 1534      D77E71F4 
 1534      870B90C8 
 1534      E6E1BC82 
 1534      2B20E81B 
 1535 9ae3 BDA3384C 		.ascii	"\275\2438L\323\271\202#\272\330\251\360n\017F\225\025\f\230\223"
 1535      D3B98223 
 1535      BAD8A9F0 
 1535      6E0F4695 
 1535      150C9893 
 1536 9af7 73959E85 		.ascii	"s\225\236\205\002\267\375<-\366/\321\361\0235\370?l7\255^d9\327"
 1536      02B7FD3C 
 1536      2DF62FD1 
 1536      F11335F8 
 1536      3F6C37AD 
 1537 9b0f 1307519E 		.ascii	"\023\007Q\236IzG\"\203\bz\210\355\021m\021\375\251\326\244\227"
 1537      497A4722 
 1537      83087A88 
 1537      ED116D11 
 1537      FDA9D6A4 
 1538 9b24 E70202B2 		.ascii	"\347\002\002\262Z\302\206\017`\b\236\212\374\006\371\366;\325"
 1538      5AC2860F 
 1538      60089E8A 
 1538      FC06F9F6 
 1538      3BD5
 1539 9b36 F9A7496E 		.ascii	"\371\247In\230Z-m\377\243\310\233Lb\037\200o\310\220\273'\013"
 1539      985A2D6D 
 1539      FFA3C89B 
 1539      4C621F80 
 1539      6FC890BB 
 1540 9b4c E8C675C4 		.ascii	"\350\306u\304\301a\376(\372\373\215\335\265\371\002\303\265\320"
 1540      C161FE28 
 1540      FAFB8DDD 
 1540      B5F902C3 
 1540      B5D0
 1541 9b5e 2D8439F1 		.ascii	"-\2049\361\277\263IG=\221\260V\264CUz\035\222$\203\356\227\n"
 1541      BFB34947 
 1541      3D91B056 
 1541      B443557A 
 1541      1D922483 
 1542 9b75 05B87350 		.ascii	"\005\270sP\307n.mJ\204\314\036OY-\210_\305\023\361\351\033k\225"
 1542      C76E2E6D 
 1542      4A84CC1E 
 1542      4F592D88 
 1542      5FC513F1 
 1543 9b8d D1E928AB 		.ascii	"\321\351(\253!,3\254\361G\244\251\211\032\241d\334\354\362#\177"
 1543      212C33AC 
 1543      F147A4A9 
 1543      891AA164 
 1543      DCECF223 
 1544 9ba2 F3F9E9C2 		.ascii	"\363\371\351\302\270\374\253&+\263j\204\332\323F\2136&\232\362"
 1544      B8FCAB26 
 1544      2BB36A84 
 1544      DAD3468B 
 1544      36269AF2 
 1545 9bb6 60E9B381 		.ascii	"`\351\263\2011\327\337\340<VF_\377\217\300!\200\255\310{\376"
 1545      31D7DFE0 
 1545      3C56465F 
 1545      FF8FC021 
 1545      80ADC87B 
 1546 9bcb BB98C00D 		.ascii	"\273\230\300\r\233\272\241\3726\256\256\266\3660\031\177v\364"
 1546      9BBAA1FA 
 1546      36AEAEB6 
 1546      F630197F 
 1546      76F4
 1547 9bdd 68815DED 		.ascii	"h\201]\355\342\033}\\]\237\237\273\212O\257T\253\th\355RE\rC"
 1547      E21B7D5C 
 1547      5D9F9FBB 
 1547      8A4FAF54 
 1547      AB0968ED 
 1548 9bf5 0D933A17 		.ascii	"\r\223:\027\310g \250\324w\2746`T\235h\346WVT\020H\2564\003\030"
 1548      C86720A8 
 1548      D477BC36 
 1548      60549D68 
 1548      E6575654 
 1549 9c0f F0FDF06E 		.ascii	"\360\375\360n11\271\030:\260s\026H\232\2408]_I\250\3066\264\022"
 1549      3131B918 
 1549      3AB07316 
 1549      489AA038 
 1549      5D5F49A8 
 1550 9c27 5CB6D079 		.ascii	"\\\266\320y \222\030HeD\bGE\316\213\2273\023\3424E\013\032\263"
 1550      20921848 
 1550      65440847 
 1550      45CE8B97 
 1550      3313E234 
 1551 9c3f A1       		.ascii	"\241"
 1552 9c40 3CE3CD39 		.ascii	"<\343\3159\354>[\024\204*\3567\325\265\bt-\034\342.m\372_k\277"
 1552      EC3E5B14 
 1552      842AEE37 
 1552      D5B50874 
 1552      2D1CE22E 
 1553 9c59 4EEA3A77 		.ascii	"N\352:w\203\244\n\302\364\245\307aK@\226\304\363\036>\030\373"
 1553      83A40AC2 
 1553      F4A5C761 
 1553      4B4096C4 
 1553      F31E3E18 
 1554 9c6e 47068EC5 		.ascii	"G\006\216\305h\030\024*\265\273:5A\2510fBz\247Qr0\311nd6\372"
 1554      6818142A 
 1554      B5BB3A35 
 1554      41A93066 
 1554      427AA751 
 1555 9c89 49B882C3 		.ascii	"I\270\202\303\237\004G\274oE\353\302\bO\033\3335\214O\031\367"
 1555      9F0447BC 
 1555      6F45EBC2 
 1555      084F1BDB 
 1555      358C4F19 
 1556 9c9e 8C5B9167 		.ascii	"\214[\221g\336z\375\242\310\302a\347L\325\335\246\326\343n\224"
 1556      DE7AFDA2 
 1556      C8C261E7 
 1556      4CD5DDA6 
 1556      D6E36E94 
 1557 9cb2 3CC63095 		.ascii	"<\3060\225o\353C\034\013\341\377\2651\327\363_\323\210U2\234"
 1557      6FEB431C 
 1557      0BE1FFB5 
 1557      31D7F35F 
 1557      D3885532 
 1558 9cc7 517120B2 		.ascii	"Qq \262\233\031\277D:\006}\303\344"
 1558      9B19BF44 
 1558      3A067DC3 
 1558      E4
 1559 9cd4 AD19D480 		.string	"\255\031\324\200`5J\013\333\330\260\2406\214-\230\346\337\301\217\004\353v\005\312\272\23
 1559      60354A0B 
 1559      DBD8B0A0 
 1559      368C2D98 
 1559      E6DFC18F 
 1560 9dd5 F54CB667 		.ascii	"\365L\266g\b\234y\330\252\347P\316\261\367gn\377oy`\234\350\201"
 1560      089C79D8 
 1560      AAE750CE 
 1560      B1F7676E 
 1560      FF6F7960 
 1561 9dec 3C0ABE99 		.ascii	"<\n\276\231-A\213\206?\017\\\236\036\271\317\007\200\333\013"
 1561      2D418B86 
 1561      3F0F5C9E 
 1561      1EB9CF07 
 1561      80DB0B
 1562 9dff 93C382AD 		.ascii	"\223\303\202\255\347\360\356\306\023\262I\355\360T\234\r\"\231"
 1562      E7F0EEC6 
 1562      13B249ED 
 1562      F0549C0D 
 1562      2299
 1563 9e11 BDC2768F 		.ascii	"\275\302v\217\277\364:&\236\203\265'\316\360\007I+\034\210\251"
 1563      BFF43A26 
 1563      9E83B527 
 1563      CEF00749 
 1563      2B1C88A9 
 1564 9e25 4C292D5B 		.ascii	"L)-[g4\377\341s\242\201\007\274\363nfW8\032\253\207\245\227\226"
 1564      6734FFE1 
 1564      73A28107 
 1564      BCF36E66 
 1564      57381AAB 
 1565 9e3d 8DA3A1F4 		.ascii	"\215\243\241\364t\205\030\366\bqU.k!\022\260\303\033\313c\232"
 1565      748518F6 
 1565      0871552E 
 1565      6B2112B0 
 1565      C31BCB63 
 1566 9e52 CB8F6C23 		.ascii	"\313\217l#\274N:\366\373/\341\262\301c\314\275^\243\317\223c"
 1566      BC4E3AF6 
 1566      FB2FE1B2 
 1566      C163CCBD 
 1566      5EA3CF93 
 1567 9e67 076F7DB6 		.ascii	"\007o}\266\207\270~8\354\251z\335\273\317\250e\222\247\212\001"
 1567      87B87E38 
 1567      ECA97ADD 
 1567      BBCFA865 
 1567      92A78A01 
 1568 9e7b 25ED1AF6 		.ascii	"%\355\032\366\005\376\022W\201\306\353\363L\n\027]\215\354\343"
 1568      05FE1257 
 1568      81C6EBF3 
 1568      4C0A175D 
 1568      8DECE3
 1569 9e8e E22B9A86 		.ascii	"\342+\232\206\200@"
 1569      8040
 1570 9e94 42ED3748 		.string	"B\3557H\2253\223\007\251FJ\233W3:l\230\302 \224\375\345\024-\276\346\213$\373w\f(x\221\35
 1570      95339307 
 1570      A9464A9B 
 1570      57333A6C 
 1570      98C22094 
 1571 9f95 5364CB3F 		.string	"Sd\313?\307\036%gs\261\236\362A\335\216&\3104\315Q\342\210el|\307\351]\351\347"
 1571      C71E2567 
 1571      73B19EF2 
 1571      41DD8E26 
 1571      C834CD51 
 1572 9fb4 4E92EE2C 		.string	"N\222\356,\326\362\214\306\177s\210\362\272G\221\331\177\364S\334tn\371\351\243Q{\364\b\3
 1572      D6F28CC6 
 1572      7F7388F2 
 1572      BA4791D9 
 1572      7FF453DC 
 1573 a028 3F168694 		.string	"?\026\206\224\314\311\211\315\205\023\036\263\337\256]\001\325s[\363\251k\256\"\250\233\0
 1573      CCC989CD 
 1573      85131EB3 
 1573      DFAE5D01 
 1573      D5735BF3 
 1574 a119 2B057129 		.ascii	"+\005q)\236\260\374\301\355+\347\337`\263G\330\013\177\362\313"
 1574      9EB0FCC1 
 1574      ED2BE7DF 
 1574      60B347D8 
 1574      0B7FF2CB 
 1575 a12d 7CE44E5C 		.ascii	"|\344N\\\253\274;\366A\336E\212\204,\374\016\372\307\377o\324"
 1575      ABBC3BF6 
 1575      41DE458A 
 1575      842CFC0E 
 1575      FAC7FF6F 
 1576 a142 EED33914 		.ascii	"\356\3239\024\2002\347v!\356!#@N@\371\301x0\221\272\026&<\226"
 1576      8032E776 
 1576      21EE2123 
 1576      404E40F9 
 1576      C1783091 
 1577 a15b AC83590B 		.ascii	"\254\203Y\013\351=e\204\242\"\303F\337\305\274T\330~st\n\200"
 1577      E93D6584 
 1577      A222C346 
 1577      DFC5BC54 
 1577      D87E7374 
 1578 a171 DE2557D0 		.ascii	"\336%W\3201\310\017\301H\373R\345\024:\226\206\242\207f\b2%\f"
 1578      31C80FC1 
 1578      48FB52E5 
 1578      143A9686 
 1578      A2876608 
 1579 a188 6A7DE3C0 		.ascii	"j}\343\3008\263\322;\0274\227\225%\371/\216\312wT\004\025(\334"
 1579      38B3D23B 
 1579      17349795 
 1579      25F92F8E 
 1579      CA775404 
 1580 a19f 10F2B34E 		.ascii	"\020\362\263NO\270f\241\242\276\246"
 1580      4FB866A1 
 1580      A2BEA6
 1581 a1aa B8E7A9B2 		.string	"\270\347\251\262\317\\P\312w\251\b\324\200\353W\203Y\202JK\003\231<\320gw3t\004\363\336I\
 1581      CF5C50CA 
 1581      77A908D4 
 1581      80EB5783 
 1581      59824A4B 
 1582 a2ab E2587CD6 		.string	"\342X|\326\356\370\007{\342a\351e\270\372\345\254h\323\362\356r\201Q\035\212\333\341\255-
 1582      EEF8077B 
 1582      E261E965 
 1582      B8FAE5AC 
 1582      68D3F2EE 
 1583 a384 545865F4 		.string	"TXe\364\351Rm\025\260\2425\230v\310L\346\230i\006\246x\262e({,B\006|\"\330\200\0207"
 1583      E9526D15 
 1583      B0A23598 
 1583      76C84CE6 
 1583      986906A6 
 1584 a3a7 13EE63F4 		.ascii	"\023\356c\364\207c\245r\025\352\016?\305\366&T\220\003\370\017"
 1584      8763A572 
 1584      15EA0E3F 
 1584      C5F62654 
 1584      9003F80F 
 1585 a3bb 48D2ED2A 		.ascii	"H\322\355*\316\016\007i\214\232S\032\313\023\311G\265s\351D\266"
 1585      CE0E0769 
 1585      8C9A531A 
 1585      CB13C947 
 1585      B573E944 
 1586 a3d0 558552E5 		.ascii	"U\205R\345\237#\024\253\342J/\3125\203\275\220\341\346zHN\343"
 1586      9F2314AB 
 1586      E24A2FCA 
 1586      3583BD90 
 1586      E1E67A48 
 1587 a3e6 86DBD3E1 		.ascii	"\206\333\323\341\\\360\375\205\333-\200\336\271\003\202\274\201"
 1587      5CF0FD85 
 1587      DB2D80DE 
 1587      B90382BC 
 1587      81
 1588 a3f7 8CD09295 		.ascii	"\214\320\222\225\356\032\002\232\237x\303$\300\277w\375\211\250"
 1588      EE1A029A 
 1588      9F78C324 
 1588      C0BF77FD 
 1588      89A8
 1589 a409 15CF478F 		.ascii	"\025\317G\217V\373\257"
 1589      56FBAF
 1590 a410 DBF4B52F 		.ascii	"\333\364\265/q+I\357^\016\213=\227\026L\373\013\274\255\b\247"
 1590      712B49EF 
 1590      5E0E8B3D 
 1590      97164CFB 
 1590      0BBCAD08 
 1591 a425 39F9C0B9 		.ascii	"9\371\300\271Q\306f\260b`e\232\020\227\324\352h\200+{/r\026]"
 1591      51C666B0 
 1591      6260659A 
 1591      1097D4EA 
 1591      68802B7B 
 1592 a43d 9295368A 		.ascii	"\222\2256\212\224\215p\226\033e\302\037\006\306\277\266\231R"
 1592      948D7096 
 1592      1B65C21F 
 1592      06C6BFB6 
 1592      9952
 1593 a44f 6242A091 		.ascii	"bB\240\221\r\315\212/v\361\017J\354\376\034T\343\016\375\247"
 1593      0DCD8A2F 
 1593      76F10F4A 
 1593      ECFE1C54 
 1593      E30EFDA7 
 1594 a463 622BCB57 		.ascii	"b+\313W\207\277\225\335\352"
 1594      87BF95DD 
 1594      EA
 1595 a46c 704E25C5 		.string	"pN%\305q\004\372\025!Z\005\243\001\323\2274\273_]\030.\324\034\266GF)(3f_\321\004wC\0078o
 1595      7104FA15 
 1595      215A05A3 
 1595      01D39734 
 1595      BB5F5D18 
 1596 a56d AD9B534A 		.string	"\255\233SJ\001\335\236\013\003\377\330\036?\\t\272`\355\357*\243 K\016\253"
 1596      01DD9E0B 
 1596      03FFD81E 
 1596      3F5C74BA 
 1596      60EDEF2A 
 1597 a587 845FA7C8 		.string	"\204_\247\310\250X\256\205\342\345\352\232\221\362\234\255\003"
 1597      A858AE85 
 1597      E2E5EA9A 
 1597      91F29CAD 
 1597      0300
 1598 a599 CF398864 		.string	"\3179\210d\005\256\355\204\275\257\374peP\002{\3033\326\316\222\346\270\331=\203\264\311\
 1598      05AEED84 
 1598      BDAFFC70 
 1598      6550027B 
 1598      C333D6CE 
 1599 a64b 915BA07B 		.string	"\221[\240{\332\335K\355W\215\272\215\223G\026Y_;\241G\325\005\322\002\252\315N\007\030\24
 1599      DADD4BED 
 1599      578DBA8D 
 1599      93471659 
 1599      5F3BA147 
 1600 a68d 0C8EAB71 		.ascii	"\f\216\253q_'A1\222*Xo\277\271n\007\024\211r\034\313\314\216"
 1600      5F274131 
 1600      922A586F 
 1600      BFB96E07 
 1600      1489721C 
 1601 a6a4 06A6A9B3 		.ascii	"\006\246\251\263\314\007\315\361+\220\304\340\200C\201\343xV"
 1601      CC07CDF1 
 1601      2B90C4E0 
 1601      804381E3 
 1601      7856
 1602 a6b6 73ADE510 		.ascii	"s\255\345\020\345\216\371\313M\214\346\261o\215\303\023-\217"
 1602      E58EF9CB 
 1602      4D8CE6B1 
 1602      6F8DC313 
 1602      2D8F
 1603 a6c8 A3DD66DC 		.ascii	"\243\335f\334Y\362\006\256\257'\"+.\262\322\372\213\352\026\223"
 1603      59F206AE 
 1603      AF27222B 
 1603      2EB2D2FA 
 1603      8BEA1693 
 1604 a6dc 947B971C 		.ascii	"\224{\227\034\331\352\272\276\267\236\323\365W\302-\0170\250"
 1604      D9EABABE 
 1604      B79ED3F5 
 1604      57C22D0F 
 1604      30A8
 1605 a6ee 45A322F5 		.ascii	"E\243\"\365\332D\370-\020\203\362B\347\256\344\034}j\267q\300"
 1605      DA44F82D 
 1605      1083F242 
 1605      E7AEE41C 
 1605      7D6AB771 
 1606 a703 26B7C50D 		.ascii	"&\267\305\r \364\002{\b\360\024 \277\240\027\3503?\204q\021\035"
 1606      20F4027B 
 1606      08F01420 
 1606      BFA017E8 
 1606      333F8471 
 1607 a719 36247868 		.ascii	"6$xhU5\223E\361\234\254*+\020*Xq2$-\215\371\342;\370\201\"\255"
 1607      55359345 
 1607      F19CAC2A 
 1607      2B102A58 
 1607      7132242D 
 1608 a735 12C23FE4 		.ascii	"\022\302?\344B\377\355\005\312\257\262\223\315\272\273\200f\212"
 1608      42FFED05 
 1608      CAAFB293 
 1608      CDBABB80 
 1608      668A
 1609 a747 10F1C0A1 		.ascii	"\020\361\300\241\235\331&$\017.\303\331\213\276\306\206\301\244"
 1609      9DD92624 
 1609      0F2EC3D9 
 1609      8BBEC686 
 1609      C1A4
 1610 a759 D020221C 		.ascii	"\320 \"\034\364\350\301\3170\225IR7\341kA\361P\273\306%\361\303"
 1610      F4E8C1CF 
 1610      30954952 
 1610      37E16B41 
 1610      F150BBC6 
 1611 a770 8EC59815 		.ascii	"\216\305\230\025\002 p\222\020j\336w\001\316\347\f\377\200\310"
 1611      02207092 
 1611      106ADE77 
 1611      01CEE70C 
 1611      FF80C8
 1612 a783 C62601CC 		.ascii	"\306&\001\314j3\025\235M\212\332).\024I\004\254\3029\227\tC\364"
 1612      6A33159D 
 1612      4D8ADA29 
 1612      2E144904 
 1612      ACC23997 
 1613 a79a 403726F8 		.ascii	"@7&\370\3554}\207\036\037\257\256\0035\020*\233\316+{\030\251"
 1613      ED347D87 
 1613      1E1FAFAE 
 1613      0335102A 
 1613      9BCE2B7B 
 1614 a7b0 8E18FA02 		.ascii	"\216\030\372\002\251\362AX\337_5J\350^\362\315\025\372t?\232"
 1614      A9F24158 
 1614      DF5F354A 
 1614      E85EF2CD 
 1614      15FA743F 
 1615 a7c5 49680BF5 		.ascii	"Ih\013\365\316\037\331\322\255!3\333\267\365\257\270\005\313"
 1615      CE1FD9D2 
 1615      AD2133DB 
 1615      B7F5AFB8 
 1615      05CB
 1616 a7d7 0A2FE59A 		.ascii	"\n/\345\232\016\200"
 1616      0E80
 1617 a7dd 03241B78 		.string	"\003$\033x\345;\370\020\326\246\247\374c\352\027gK\371.\324\336A\177\311\363xq\320^\361\2
 1617      E53BF810 
 1617      D6A6A7FC 
 1617      63EA1767 
 1617      4BF92ED4 
 1618 a8de 6D8CB569 		.ascii	"m\214\265isn,\305+\261b\370n\201\tEm\272\001\217\017\"\261\022"
 1618      736E2CC5 
 1618      2BB162F8 
 1618      6E810945 
 1618      6DBA018F 
 1619 a8f6 15425B1C 		.ascii	"\025B[\034\247I\031\233\0077\250N\352\241\236O\205\230\206\270"
 1619      A749199B 
 1619      0737A84E 
 1619      EAA19E4F 
 1619      859886B8 
 1620 a90a A0C45944 		.ascii	"\240\304YD\207ao\035\313\022@c\361\320\232\007\210tb\0173\362"
 1620      87616F1D 
 1620      CB124063 
 1620      F1D09A07 
 1620      8874620F 
 1621 a920 20B7C2D7 		.ascii	" \267\302\327\361\303\nMA\274pd\371lJQid\026\342Z\346q\310\020"
 1621      F1C30A4D 
 1621      41BC7064 
 1621      F96C4A51 
 1621      696416E2 
 1622 a939 FBC573E5 		.ascii	"\373\305s\345B_\374\334\344\221Rz^\244\363:\270\004N\242\006"
 1622      425FFCDC 
 1622      E491527A 
 1622      5EA4F33A 
 1622      B8044EA2 
 1623 a94e C30FA796 		.ascii	"\303\017\247\226=E\251X\006n\240\0266\332j=\376\377U\341b\275"
 1623      3D45A958 
 1623      066EA016 
 1623      36DA6A3D 
 1623      FEFF55E1 
 1624 a964 6AC0EF09 		.ascii	"j\300\357\t\361\360C3O\272\321\264}\330\322\330\352\376\304\361"
 1624      F1F04333 
 1624      4FBAD1B4 
 1624      7DD8D2D8 
 1624      EAFEC4F1 
 1625 a978 1A67C283 		.ascii	"\032g\302\203\020\255\b\003\217S\375\025\314\373IK\374\206>\017"
 1625      10AD0803 
 1625      8F53FD15 
 1625      CCFB494B 
 1625      FC863E0F 
 1626 a98c 81D3D8FC 		.ascii	"\201\323\330\374\326\006\2659\324\034\370\346:\0176\351\360\006"
 1626      D606B539 
 1626      D41CF8E6 
 1626      3A0F36E9 
 1626      F006
 1627 a99e 6C33B2BB 		.ascii	"l3\262\273\267f\030\347\311\275\210\035@v\3568\006eA;\320O9\337"
 1627      B76618E7 
 1627      C9BD881D 
 1627      4076EE38 
 1627      0665413B 
 1628 a9b6 3180D9BF 		.ascii	"1\200\331\277be\024\241-\275\362\363\304\271\352\3265\2125,\366"
 1628      626514A1 
 1628      2DBDF2F3 
 1628      C4B9EAD6 
 1628      358A352C 
 1629 a9cb D5F65E4C 		.ascii	"\325\366^LP\2310j\244\356\257\215\007r\220\273\351)w;\202\264"
 1629      5099306A 
 1629      A4EEAF8D 
 1629      077290BB 
 1629      E929773B 
 1630 a9e1 437A9FB2 		.ascii	"Cz\237\262\204:XQct\302\r\025_\336\221:\002$\243\310{`\n\255"
 1630      843A5851 
 1630      6374C20D 
 1630      155FDE91 
 1630      3A0224A3 
 1631 a9fa 4231CC90 		.ascii	"B1\314\220\364Z\201\351{N\373@\327\210\366O|\265\007\217c\342"
 1631      F45A81E9 
 1631      7B4EFB40 
 1631      D788F64F 
 1631      7CB5078F 
 1632 aa10 E5326047 		.ascii	"\3452`G\370\332!\251GcR8\243\267~;TH\237\201\001\036J\311\211"
 1632      F8DA21A9 
 1632      47635238 
 1632      A3B77E3B 
 1632      54489F81 
 1633 aa29 5F2C29E4 		.ascii	"_,)\344\264V\034o\007\303\220O\b\023u\n\r\202\326Z%\025\221\302"
 1633      B4561C6F 
 1633      07C3904F 
 1633      0813750A 
 1633      0D82D65A 
 1634 aa41 BD72AB5A 		.ascii	"\275r\253Z{7\277\2441k\006\r\022\023\003\321"
 1634      7B37BFA4 
 1634      316B060D 
 1634      121303D1 
 1635 aa51 3A259330 		.string	":%\2230\204\2342\364\366\355\213\305\304\034\317]\200;\275\rAs\306\243lp\rQ\024\325~\370Q
 1635      849C32F4 
 1635      F6ED8BC5 
 1635      C41CCF5D 
 1635      803BBD0D 
 1636 ab52 22E68AC6 		.string	"\"\346\212\306\336&\016?\235\004\377\345\002\342\345\375u\203\004Y\023W\360i\342\f\311QaR
 1636      DE260E3F 
 1636      9D04FFE5 
 1636      02E2E5FD 
 1636      75830459 
 1637 aba6 3E51B3A0 		.ascii	">Q\263\240>_\266\374@\257e\2059*\332\216\233@\375\264\306\267"
 1637      3E5FB6FC 
 1637      40AF6585 
 1637      392ADA8E 
 1637      9B40FDB4 
 1638 abbc 6B9FA2F2 		.ascii	"k\237\242\362\247\235%3U\201J\202v:\032\033\375\353[\034\002"
 1638      A79D2533 
 1638      55814A82 
 1638      763A1A1B 
 1638      FDEB5B1C 
 1639 abd1 0630DCAC 		.ascii	"\0060\334\254\023\336\256\310\340\375>-\317W}"
 1639      13DEAEC8 
 1639      E0FD3E2D 
 1639      CF577D
 1640 abe0 8328E144 		.string	"\203(\341D\337\0138kI\f\005\204\265\230\230\200{)b\222v\353\213\367\371^\205\325\335"
 1640      DF0B386B 
 1640      490C0584 
 1640      B5989880 
 1640      7B296292 
 1641 abfe 7A23A9EA 		.string	"z#\251\352\270\352\2623\277p\025\370\215Q\357\026'w\022\205\037|S\372\020V`g\211\234\262e
 1641      B8EAB233 
 1641      BF7015F8 
 1641      8D51EF16 
 1641      27771285 
 1642 ac3e 3633CC91 		.ascii	"63\314\221\b\264\327\361\275\024c\214l\304g2\363\310G\377h\324"
 1642      08B4D7F1 
 1642      BD14638C 
 1642      6CC46732 
 1642      F3C847FF 
 1643 ac54 27D26CC1 		.ascii	"'\322l\301\227\030\227nq\244\342\352\316\352\310&v\237tr\237"
 1643      9718976E 
 1643      71A4E2EA 
 1643      CEEAC826 
 1643      769F7472 
 1644 ac69 C3357937 		.ascii	"\3035y7\233Wb\317]\211\253\364\024\017\033\212\220\033 \177\311"
 1644      9B5762CF 
 1644      5D89ABF4 
 1644      140F1B8A 
 1644      901B207F 
 1645 ac7e 2AFF0A86 		.ascii	"*\377\n\206\360C\236\302:\227\272(a`S\3308\232K\236\321\371\013"
 1645      F0439EC2 
 1645      3A97BA28 
 1645      616053D8 
 1645      389A4B9E 
 1646 ac95 806D93CA 		.ascii	"\200m\223\312\313\220k\223\267\306\213\023\371\2709\345\220\210"
 1646      CB906B93 
 1646      B7C68B13 
 1646      F9B839E5 
 1646      9088
 1647 aca7 B5868A53 		.ascii	"\265\206\212S;T\276\277"
 1647      3B54BEBF 
 1648 acaf 0CACBA10 		.string	"\f\254\272\020\275\025v\256|\341\373z\311W4L\313\253o\202\356\341=/\236#\364\307Du\025\34
 1648      BD1576AE 
 1648      7CE1FB7A 
 1648      C957344C 
 1648      CBAB6F82 
 1649 adb0 5E5C6D9B 		.string	"^\\m\233\023\226)]\035\t\203\366\274\340\354\254=G\232d|\333B\032\020\327\035w\335\373\33
 1649      1396295D 
 1649      1D0983F6 
 1649      BCE0ECAC 
 1649      3D479A64 
 1650 adfe D00EA366 		.ascii	"\320\016\243f,q\274s\033\321\361\033&\352\243\376\337\313zx\220"
 1650      2C71BC73 
 1650      1BD1F11B 
 1650      26EAA3FE 
 1650      DFCB7A78 
 1651 ae13 3C48146E 		.ascii	"<H\024n\306Us[S\326\377u\351\356\034n%\266\017~y\263\036[-\244"
 1651      C655735B 
 1651      53D6FF75 
 1651      E9EE1C6E 
 1651      25B60F7E 
 1652 ae2d 9D37B2F1 		.ascii	"\2357\262\361\375n\006\rW\b\030\003\333\234\326\327\304^\250"
 1652      FD6E060D 
 1652      57081803 
 1652      DB9CD6D7 
 1652      C45EA8
 1653 ae40 4FA34B8C 		.ascii	"O\243K\214\217\030t\025\321\304\317y\256\364\327\036\322$\220"
 1653      8F187415 
 1653      D1C4CF79 
 1653      AEF4D71E 
 1653      D22490
 1654 ae53 B340BA03 		.ascii	"\263@\272\003\310\201x\244\030{\216\337d\006\372\254\224\004"
 1654      C88178A4 
 1654      187B8EDF 
 1654      6406FAAC 
 1654      9404
 1655 ae65 233C1A0B 		.ascii	"#<\032\013`O\234a\332~KW\210\004\251\306\370\313L0\211-7tF\255"
 1655      604F9C61 
 1655      DA7E4B57 
 1655      8804A9C6 
 1655      F8CB4C30 
 1656 ae7f FE740752 		.ascii	"\376t\007RD\261A\231\273\372\241\226E\261$\262\\\372\032\317"
 1656      44B14199 
 1656      BBFAA196 
 1656      45B124B2 
 1656      5CFA1ACF 
 1657 ae93 CAFFDFF4 		.ascii	"\312\377\337\364\"`@\026\201\312QG4zC\377\262_\304G\217\2063"
 1657      22604016 
 1657      81CA5147 
 1657      347A43FF 
 1657      B25FC447 
 1658 aeaa 30E23C38 		.ascii	"0\342<8A\245\234\n\223\224lmr[\205\364$)U\354\020%\001\275bz"
 1658      41A59C0A 
 1658      93946C6D 
 1658      725B85F4 
 1658      242955EC 
 1659 aec4 A11117AF 		.ascii	"\241\021\027\257\200\031\020dpA\200\2468\277g\003/8\3671Z\316"
 1659      80191064 
 1659      704180A6 
 1659      38BF6703 
 1659      2F38F731 
 1660 aeda F95BF202 		.ascii	"\371[\362\002(\325'\317\034i\230R\360>\276`o\207\262Vt\320\353"
 1660      28D527CF 
 1660      1C699852 
 1660      F03EBE60 
 1660      6F87B256 
 1661 aef1 B4320CCE 		.ascii	"\2642\f\316&\240\r\256{\201]\355\313jS\254\210\373e\207p\274"
 1661      26A00DAE 
 1661      7B815DED 
 1661      CB6A53AC 
 1661      88FB6587 
 1662 af07 B8906426 		.ascii	"\270\220d&h\332nx\210\254\271\345\0210t\013\266\364\030Ni\202"
 1662      68DA6E78 
 1662      88ACB9E5 
 1662      1130740B 
 1662      B6F4184E 
 1663 af1d 0F5918B3 		.ascii	"\017Y\030\263Z\2177\227\036\340n\334"
 1663      5A8F3797 
 1663      1EE06EDC 
 1664 af29 D63EC453 		.string	"\326>\304S\305\323\272x\311\353\032\272\243\213\004\f.YyU\003\244&\355z\345\211\026\236\b
 1664      C5D3BA78 
 1664      C9EB1ABA 
 1664      A38B040C 
 1664      2E597955 
 1665 b02a 5F3C6FC3 		.string	"_<o\303\260#d\255x\311l\037z\324\344\354\017>\024\372\177\332\371\017\235\242\203\365|O\2
 1665      B02364AD 
 1665      78C96C1F 
 1665      7AD4E4EC 
 1665      0F3E14FA 
 1666 b061 D9A20C28 		.string	"\331\242\f(\007\004\227J\231\353uI\307\\O\f\310x\027\214\031IU\324\023ft\033?)\005\367\31
 1666      0704974A 
 1666      99EB7549 
 1666      C75C4F0C 
 1666      C878178C 
 1667 b0a4 253EB1D8 		.ascii	"%>\261\330\355\t\317\345\362\253C\251B\324j\223#\222\024\246"
 1667      ED09CFE5 
 1667      F2AB43A9 
 1667      42D46A93 
 1667      239214A6 
 1668 b0b8 0FE44520 		.ascii	"\017\344E \202`glp\210\331\220\254\346\t~4\247\201\032k\265\033"
 1668      8260676C 
 1668      7088D990 
 1668      ACE6097E 
 1668      34A7811A 
 1669 b0cf 5A2644BF 		.ascii	"Z&D\277.\022jy\022^\223%\001N\2340*\245\227\257\312\307$\323"
 1669      2E126A79 
 1669      125E9325 
 1669      014E9C30 
 1669      2AA597AF 
 1670 b0e7 B21382FA 		.ascii	"\262\023\202\372\246l\362\266\256y\037Bbb\327\361\320\b~\307"
 1670      A66CF2B6 
 1670      AE791F42 
 1670      6262D7F1 
 1670      D0087EC7 
 1671 b0fb C27F2163 		.ascii	"\302\177!cF1g\345\277\301\312\310\035\356b\033\266\271\307V\316"
 1671      463167E5 
 1671      BFC1CAC8 
 1671      1DEE621B 
 1671      B6B9C756 
 1672 b110 67115418 		.ascii	"g\021T\030#zIz}\021](\363\301S\244?0K\335\325\252]\337t\244t"
 1672      237A497A 
 1672      7D115D28 
 1672      F3C153A4 
 1672      3F304BDD 
 1673 b12b 9BC99A9B 		.ascii	"\233\311\232\233\006\331\372\006Qd\377o\003W@\255V\266\361MJ"
 1673      06D9FA06 
 1673      5164FF6F 
 1673      035740AD 
 1673      56B6F14D 
 1674 b140 E5213BB3 		.ascii	"\345!;\263n\356ab\220\nAgR\024q\005\233[\350v\023\256\021I<\324"
 1674      6EEE6162 
 1674      900A4167 
 1674      52147105 
 1674      9B5BE876 
 1675 b15a 0EE710E2 		.ascii	"\016\347\020\342\240?\263\321q&N\204\352\215\355\275\226\004"
 1675      A03FB3D1 
 1675      71264E84 
 1675      EA8DEDBD 
 1675      9604
 1676 b16c 1B9DE065 		.ascii	"\033\235\340e$\233\021\336`\260\350\343\304"
 1676      249B11DE 
 1676      60B0E8E3 
 1676      C4
 1677 b179 FB0BD8BD 		.string	"\373\013\330\275\tT\005\235=\311\025\032V\235O\227\352\221=\223#\206Z \023\023\204?\222\0
 1677      0954059D 
 1677      3DC9151A 
 1677      569D4F97 
 1677      EA913D93 
 1678 b27a 6BDAF16A 		.string	"k\332\361j,j}\317\276B\376U"
 1678      2C6A7DCF 
 1678      BE42FE55 
 1678      00
 1679 b287 67A787E6 		.string	"g\247\207\346KU$+\275\336\377V\376Y\235\001\266\305\345=\337\037\216\337\002Z\275\223\374
 1679      4B55242B 
 1679      BDDEFF56 
 1679      FE599D01 
 1679      B6C5E53D 
 1680 b2e6 4036BE3E 		.string	"@6\276>\377\334\365\362\366z-\264\345\302\214\201\274\2619\022\354]\364j&\210{\317\217\34
 1680      FFDCF5F2 
 1680      F67A2DB4 
 1680      E5C28C81 
 1680      BCB13912 
 1681 b338 E6D4275A 		.ascii	"\346\324'Z$\330\026\355\261\364\352\232\241`\342\355\354\354"
 1681      24D816ED 
 1681      B1F4EA9A 
 1681      A160E2ED 
 1681      ECEC
 1682 b34a 56281127 		.ascii	"V(\021'\355\304q\016\366\213\261\256o\376\247l$\374~\206g\275"
 1682      EDC4710E 
 1682      F68BB1AE 
 1682      6FFEA76C 
 1682      24FC7E86 
 1683 b360 6F8DB45B 		.ascii	"o\215\264[rT\017G\022\205B\221\322G\332{\375/\243\266#\223\272"
 1683      72540F47 
 1683      12854291 
 1683      D247DA7B 
 1683      FD2FA3B6 
 1684 b377 CAD8CC73 		.ascii	"\312\330\314s\230V\371\336\346\255I\274\b\002+\300\305^\013V"
 1684      9856F9DE 
 1684      E6AD49BC 
 1684      08022BC0 
 1684      C55E0B56 
 1685 b38b 2B402B7E 		.ascii	"+@+~\263\001\003\372\3023\202%d?Y\257\322Z\240\2559\313\201\210"
 1685      B30103FA 
 1685      C2338225 
 1685      643F59AF 
 1685      D25AA0AD 
 1686 b3a3 D0560339 		.ascii	"\320V\0039w2\214\201\220q7\316\032"
 1686      77328C81 
 1686      907137CE 
 1686      1A
 1687 b3b0 33B58A73 		.string	"3\265\212s\026\233\236`\356Gh\0209\037\252s\337\203\206\036&R!\247O\345\207~\251\356\0048
 1687      169B9E60 
 1687      EE476810 
 1687      391FAA73 
 1687      DF83861E 
 1688 b4a6 33EED0E9 		.string	"3\356\320\351\\\331\313a\322\312\032p\256\"\365m\003rzE\004.\321&\243\233\367#\255\005\23
 1688      5CD9CB61 
 1688      D2CA1A70 
 1688      AE22F56D 
 1688      03727A45 
 1689 b52e 03058DBC 		.string	"\003\005\215\274Dpm\200:\226\027\347Z\216\315>\202\025\303\006\312\266{`!\254a\260X\254\3
 1689      44706D80 
 1689      3A9617E7 
 1689      5A8ECD3E 
 1689      8215C306 
 1690 b5a9 E08A4F7B 		.ascii	"\340\212O{\022i\313\237\364Bd\216\035O\035\340\347\232\221\334"
 1690      1269CB9F 
 1690      F442648E 
 1690      1D4F1DE0 
 1690      E79A91DC 
 1691 b5bd DF1D1CED 		.ascii	"\337\035\034\355f\242\035\001\342\016D0G\236(\004\354\250\257"
 1691      66A21D01 
 1691      E20E4430 
 1691      479E2804 
 1691      ECA8AF
 1692 b5d0 F0B67511 		.ascii	"\360\266u\021\351\311F\35236nR\272\205\030\245\214\240\264\\"
 1692      E9C946EA 
 1692      33366E52 
 1692      BA8518A5 
 1692      8CA0B45C 
 1693 b5e4 19922E90 		.ascii	"\031\222.\220\312\245\214\204s\036\245\026\005.\317K=8~\255@"
 1693      CAA58C84 
 1693      731EA516 
 1693      052ECF4B 
 1693      3D387EAD 
 1694 b5f9 E3D2789F 		.ascii	"\343\322x\237\030\024\356\337\253i\303\331\225kdn\373S.c\233"
 1694      1814EEDF 
 1694      AB69C3D9 
 1694      956B646E 
 1694      FB532E63 
 1695 b60e E4A316B9 		.ascii	"\344\243\026\271\027\006N\224\274`yl\234\001\312\377vl\362\013"
 1695      17064E94 
 1695      BC60796C 
 1695      9C01CAFF 
 1695      766CF20B 
 1696 b622 E998BEF5 		.ascii	"\351\230\276\365\370\346h\f\020\237\274\271\377\374H\207\205"
 1696      F8E6680C 
 1696      109FBCB9 
 1696      FFFC4887 
 1696      85
 1697 b633 1EE31FF9 		.ascii	"\036\343\037\371\200&\372j\346\277E\336\231\026\202y\320`i\321"
 1697      8026FA6A 
 1697      E6BF45DE 
 1697      99168279 
 1697      D06069D1 
 1698 b647 027EF644 		.ascii	"\002~\366Dg}0_]\"\230^\351'%\307\213\363\336\323*$\327\356\004"
 1698      677D305F 
 1698      5D22985E 
 1698      E92725C7 
 1698      8BF3DED3 
 1699 b660 97CEBB28 		.ascii	"\227\316\273(\017\355\2730\020?\033\003\215\n\005m\277\226\\"
 1699      0FEDBB30 
 1699      103F1B03 
 1699      8D0A056D 
 1699      BF965C
 1700 b673 BBF924A3 		.ascii	"\273\371$\243\335zDqk\230M\373\236\313\265\303\270m\300\2041"
 1700      DD7A4471 
 1700      6B984DFB 
 1700      9ECBB5C3 
 1700      B86DC084 
 1701 b688 196CC9DD 		.ascii	"\031l\311\335\361$\341\223h\203.m\236\021\216\323\230L\312bf"
 1701      F124E193 
 1701      68832E6D 
 1701      9E118ED3 
 1701      984CCA62 
 1702 b69d 7EE5F557 		.ascii	"~\345\365WIR\341\317\314\375\177L\237\216\262\344\031|c&\247"
 1702      4952E1CF 
 1702      CCFD7F4C 
 1702      9F8EB2E4 
 1702      197C6326 
 1703 b6b2 1099EEC7 		.ascii	"\020\231\356\307\334\302\375_\b6\005\016N\377\013}"
 1703      DCC2FD5F 
 1703      0836050E 
 1703      4EFF0B7D 
 1704 b6c2 6C77D2CE 		.string	"lw\322\316\215\354N/^:+\204\377\242\320sGcq\024\267MPz@.\234\322\2609'\006[\234\027\244\3
 1704      8DEC4E2F 
 1704      5E3A2B84 
 1704      FFA2D073 
 1704      47637114 
 1705 b7c3 8D082518 		.ascii	"\215\b%\030\245\271k\2650i\265\250\271s\302\353\240\337)3\322"
 1705      A5B96BB5 
 1705      3069B5A8 
 1705      B973C2EB 
 1705      A0DF2933 
 1706 b7d8 8EB48573 		.ascii	"\216\264\205s\204+{\\=\316\nJ$\311(\211%\340\217I\312<\\ \342"
 1706      842B7B5C 
 1706      3DCE0A4A 
 1706      24C92889 
 1706      25E08F49 
 1707 b7f1 26432B91 		.ascii	"&C+\221{\003_\232gW\267\225\022Q\263K\021\230hv\273\307\311\226"
 1707      7B035F9A 
 1707      6757B795 
 1707      1251B34B 
 1707      11986876 
 1708 b809 8B191E69 		.ascii	"\213\031\036i\265\372\013\224\212\2660#\213\353\337\263\263K"
 1708      B5FA0B94 
 1708      8AB63023 
 1708      8BEBDFB3 
 1708      B34B
 1709 b81b C8DAF11F 		.ascii	"\310\332\361\037\013\004\001`\036J\321S\327\300E\366\033\370"
 1709      0B040160 
 1709      1E4AD153 
 1709      D7C045F6 
 1709      1BF8
 1710 b82d 71E65DDF 		.ascii	"q\346]\337\331\374\232 \315\250\210\r\024\205\b\327\255\bp\203"
 1710      D9FC9A20 
 1710      CDA8880D 
 1710      148508D7 
 1710      AD087083 
 1711 b841 4E5D5623 		.ascii	"N]V#\177@fz5\372\315\225\214\342\326kX,\306\254u|\001:\277\026"
 1711      7F40667A 
 1711      35FACD95 
 1711      8CE2D66B 
 1711      582CC6AC 
 1712 b85b B4D59514 		.ascii	"\264\325\225\024\367,\204@\004\207\277\343:\206\235\nm\r\362"
 1712      F72C8440 
 1712      0487BFE3 
 1712      3A869D0A 
 1712      6D0DF2
 1713 b86e 3B11E584 		.ascii	";\021\345\204\325q\376\037)p0'A\352\204Y\327\246\005#bB>\301"
 1713      D571FE1F 
 1713      29703027 
 1713      41EA8459 
 1713      D7A60523 
 1714 b886 CA6754BA 		.ascii	"\312gT\272\003qAN\330l\013V]\257\275L\321Y\377\005\004\364+\332"
 1714      0371414E 
 1714      D86C0B56 
 1714      5DAFBD4C 
 1714      D159FF05 
 1715 b89e EA66F0B4 		.ascii	"\352f\360\264\037\026\341\273\277\234Yj\315\314q\323\331"
 1715      1F16E1BB 
 1715      BF9C596A 
 1715      CDCC71D3 
 1715      D9
 1716 b8af C86D1B64 		.string	"\310m\033dC?\021\301j\266e\371d\322\020\273w\307\242\220\2004]\024k\001\3004\232\\\027o\3
 1716      433F11C1 
 1716      6AB665F9 
 1716      64D210BB 
 1716      77C7A290 
 1717 b9b0 7D730939 		.ascii	"}s\t9 \263\266\003\255\004\177\203S\200[\274\265\020DD\347^M"
 1717      20B3B603 
 1717      AD047F83 
 1717      53805BBC 
 1717      B5104444 
 1718 b9c7 43DEA6A5 		.ascii	"C\336\246\245)\242\360\366#\365K/YlN%\251\3079P\375?\252fV\314"
 1718      29A2F0F6 
 1718      23F54B2F 
 1718      596C4E25 
 1718      A9C73950 
 1719 b9e1 9F5172EC 		.ascii	"\237Qr\354\235\177\373\326u\217\275\013f\025\2250\317\237)\256"
 1719      9D7FFBD6 
 1719      758FBD0B 
 1719      66159530 
 1719      CF9F29AE 
 1720 b9f5 BF02EFB0 		.ascii	"\277\002\357\260!\313N\356\307\243\273~o\353\\\336$\311&\364"
 1720      21CB4EEE 
 1720      C7A3BB7E 
 1720      6FEB5CDE 
 1720      24C926F4 
 1721 ba09 8184866C 		.ascii	"\201\204\206l\371\206\006y\023E\22661\366\226b\213\241\rwpz\240"
 1721      F9860679 
 1721      13459636 
 1721      31F69662 
 1721      8BA10D77 
 1722 ba20 1AAD3467 		.ascii	"\032\2554g&!z\234\030\227\234n\304\201\212\263\203\306\212\303"
 1722      26217A9C 
 1722      18979C6E 
 1722      C4818AB3 
 1722      83C68AC3 
 1723 ba34 E91974D8 		.ascii	"\351\031t\330\300\f\355<\004,;\256\314:\356\027~\310\313\334"
 1723      C00CED3C 
 1723      042C3BAE 
 1723      CC3AEE17 
 1723      7EC8CBDC 
 1724 ba48 4E8892F8 		.ascii	"N\210\222\370\354=&\267>\227O@yj\362\341X)\222\317L\005\372\310"
 1724      EC3D26B7 
 1724      3E974F40 
 1724      796AF2E1 
 1724      582992CF 
 1725 ba60 C053E0B5 		.ascii	"\300S\340\265`\240\275*\f0\\f\337\003d\367C\305\3544\227\274"
 1725      60A0BD2A 
 1725      0C305C66 
 1725      DF0364F7 
 1725      43C5EC34 
 1726 ba76 6334D0AE 		.ascii	"c4\320\256\220\017\304\203I%\033\2368\304\221\024\217\324\032"
 1726      900FC483 
 1726      49251B9E 
 1726      38C49114 
 1726      8FD41A
 1727 ba89 A5528A9D 		.ascii	"\245R\212\2351\266V\n:\356d\275\020\240\242(\235\346g\354\300"
 1727      31B6560A 
 1727      3AEE64BD 
 1727      10A0A228 
 1727      9DE667EC 
 1728 ba9e 195E6354 		.ascii	"\031^cT\365\025\302:\335\260\356\255\024\233 _\374j\254\022\314"
 1728      F515C23A 
 1728      DDB0EEAD 
 1728      149B205F 
 1728      FC6AAC12 
 1729 bab3 2DB61889 		.ascii	"-\266\030\211\007CM\223\234H'pQ\324\024\237PH\375\f\354\265\350"
 1729      07434D93 
 1729      9C482770 
 1729      51D4149F 
 1729      5048FD0C 
 1730 baca 017178BD 		.ascii	"\001qx\275\344\211\215\177\350m'\217[\375\n\315\315\206\034\036"
 1730      E4898D7F 
 1730      E86D278F 
 1730      5BFD0ACD 
 1730      CD861C1E 
 1731 bade 12C2A0AB 		.ascii	"\022\302\240\2539\274(-\020\004Zg\005\020\274\207\253\270)\020"
 1731      39BC282D 
 1731      10045A67 
 1731      0510BC87 
 1731      ABB82910 
 1732 baf2 6C67573D 		.ascii	"lgW=\237\313\237\027\264]\302+d\366\203\226\337\271X\024\020"
 1732      9FCB9F17 
 1732      B45DC22B 
 1732      64F68396 
 1732      DFB95814 
 1733 bb07 E551ADE8 		.ascii	"\345Q\255\350\2105\375\322\377?\202\350\013SF9\203iW\211h^V\031"
 1733      8835FDD2 
 1733      FF3F82E8 
 1733      0B534639 
 1733      83695789 
 1734 bb1f C9CFADCC 		.ascii	"\311\317\255\314\330\347p\362-y;\373\336\233\364N \265\242\370"
 1734      D8E770F2 
 1734      2D793BFB 
 1734      DE9BF44E 
 1734      20B5A2F8 
 1735 bb33 C55ECF75 		.ascii	"\305^\317u~-\364\002\021v\033\321\314\030\220b\305C\206\250\005"
 1735      7E2DF402 
 1735      11761BD1 
 1735      CC189062 
 1735      C54386A8 
 1736 bb48 3D3795AA 		.ascii	"=7\225\252\362\260rT\036\037\212\332\243\215Y\3169/@\204\217"
 1736      F2B07254 
 1736      1E1F8ADA 
 1736      A38D59CE 
 1736      392F4084 
 1737 bb5d 25FD4324 		.ascii	"%\375C$=\347|0\345\260\341\037\323su\375\005\017/\226Om;\370"
 1737      3DE77C30 
 1737      E5B0E11F 
 1737      D37375FD 
 1737      050F2F96 
 1738 bb75 B7E9CE9E 		.ascii	"\267\351\316\236m\335fP#\210%"
 1738      6DDD6650 
 1738      238825
 1739 bb80 9B6A19BE 		.ascii	"\233j\031\276a\357:V\204\231\002\352\344\307\267(\230\240j\300"
 1739      61EF3A56 
 1739      849902EA 
 1739      E4C7B728 
 1739      98A06AC0 
 1740 bb94 9B99AB69 		.ascii	"\233\231\253i\235\216.g|=f\222g \253U\035D\272\205\373\230\252"
 1740      9D8E2E67 
 1740      7C3D6692 
 1740      6720AB55 
 1740      1D44BA85 
 1741 bbab C1F65126 		.ascii	"\301\366Q&\336k\321\373\020<\b\203\300Tp._\350\227&;\213&k\211"
 1741      DE6BD1FB 
 1741      103C0883 
 1741      C054702E 
 1741      5FE89726 
 1742 bbc4 F3E33173 		.ascii	"\363\3431s\342\302\376\366\225\367\305\262\366,\024\336_\301"
 1742      E2C2FEF6 
 1742      95F7C5B2 
 1742      F62C14DE 
 1742      5FC1
 1743 bbd6 D8832791 		.ascii	"\330\203'\221\322\347\362\354\232\334PX(\333H\313\214M\353\226"
 1743      D2E7F2EC 
 1743      9ADC5058 
 1743      28DB48CB 
 1743      8C4DEB96 
 1744 bbea 27D041E3 		.ascii	"'\320A\343\346\027\007\350\361\317\215qqZ\253,Xra8\314\251z\203"
 1744      E61707E8 
 1744      F1CF8D71 
 1744      715AAB2C 
 1744      58726138 
 1745 bc02 54A9839B 		.ascii	"T\251\203\233\256\372\2379\f]E\022\271\260\346\366\346q\244o"
 1745      AEFA9F39 
 1745      0C5D4512 
 1745      B9B0E6F6 
 1745      E671A46F 
 1746 bc16 9AA4EED9 		.ascii	"\232\244\356\331\021;\234\032e>\323MA\201\006C\215\345\3507\244"
 1746      113B9C1A 
 1746      653ED34D 
 1746      41810643 
 1746      8DE5E837 
 1747 bc2b 899BF854 		.ascii	"\211\233\370T\324_\315\317\002CQ\264L\270\016\2359\375\0175\325"
 1747      D45FCDCF 
 1747      024351B4 
 1747      4CB80E9D 
 1747      39FD0F35 
 1748 bc40 6E7DBFDF 		.ascii	"n}\277\3378\267\372\251)-1\265\215\204v\227e|\217\027\340\226"
 1748      38B7FAA9 
 1748      292D31B5 
 1748      8D847697 
 1748      657C8F17 
 1749 bc56 EE83D099 		.ascii	"\356\203\320\231\355j\246\264\336X\314\350O\\'C4\323>0\353\322"
 1749      ED6AA6B4 
 1749      DE58CCE8 
 1749      4F5C2743 
 1749      34D33E30 
 1750 bc6c E0B477E7 		.ascii	"\340\264w\347\311\342\201\027(\327*@\257\353\214\327\026\220"
 1750      C9E28117 
 1750      28D72A40 
 1750      AFEB8CD7 
 1750      1690
 1751 bc7e ADA7927F 		.ascii	"\255\247\222\177OP\t\251\0204\004B\336(\375\313\240\0065\242"
 1751      4F5009A9 
 1751      10340442 
 1751      DE28FDCB 
 1751      A00635A2 
 1752 bc92 20D5CBA3 		.ascii	" \325\313\243&\315\361\227%\236\001\003\264w\357\026)Ld\264\335"
 1752      26CDF197 
 1752      259E0103 
 1752      B477EF16 
 1752      294C64B4 
 1753 bca7 8B57EF35 		.ascii	"\213W\3575Y\021\235or\237\226\021\357\225=\243\350\002\003}\305"
 1753      59119D6F 
 1753      729F9611 
 1753      EF953DA3 
 1753      E802037D 
 1754 bcbc 1B03E814 		.ascii	"\033\003\350\024pg(]\263*$I\272\315\016<\231uE=rk^b\034\253\325"
 1754      7067285D 
 1754      B32A2449 
 1754      BACD0E3C 
 1754      9975453D 
 1755 bcd7 43D52E5B 		.ascii	"C\325.[\032\323o\236\001\231\251\260\350\037\r\366u\341\177\372"
 1755      1AD36F9E 
 1755      0199A9B0 
 1755      E81F0DF6 
 1755      75E17FFA 
 1756 bceb DD4817B1 		.ascii	"\335H\027\261\027\306\343\244.\315E\025\036\313\035\270\206\376"
 1756      17C6E3A4 
 1756      2ECD4515 
 1756      1ECB1DB8 
 1756      86FE
 1757 bcfd A7311BBE 		.ascii	"\2471\033\276\221m{\255\227\362\335Rawh\022|\336\204\363\036"
 1757      916D7BAD 
 1757      97F2DD52 
 1757      61776812 
 1757      7CDE84F3 
 1758 bd12 216667FE 		.ascii	"!fg\376`\227\3664\377\372n0\206\310N\324h\336RP\225n\032\013"
 1758      6097F634 
 1758      FFFA6E30 
 1758      86C84ED4 
 1758      68DE5250 
 1759 bd2a E5375F8F 		.ascii	"\3457_\217#w\230\336]\237\270\243\237\r\363@\322\354\356D^\242"
 1759      237798DE 
 1759      5D9FB8A3 
 1759      9F0DF340 
 1759      D2ECEE44 
 1760 bd40 3B5E33D3 		.ascii	";^3\323\215\t\341\252\373\003\251\315\251C\364\240E1\025\323"
 1760      8D09E1AA 
 1760      FB03A9CD 
 1760      A943F4A0 
 1760      453115D3 
 1761 bd54 F4EC38BA 		.ascii	"\364\3548\272K\257\"\306@\355%\t\341\216\303\024[>SJ\0328\330"
 1761      4BAF22C6 
 1761      40ED2509 
 1761      E18EC314 
 1761      5B3E534A 
 1762 bd6b 497F7680 		.ascii	"I\177v\200\032\357\005b\346\267\026\214@\026\034\356cZT\022\221"
 1762      1AEF0562 
 1762      E6B7168C 
 1762      40161CEE 
 1762      635A5412 
 1763 bd80 491AC3BF 		.ascii	"I\032\303\277\254\245\"6;\222S\311\221,\220?\326&\355\317\002"
 1763      ACA52236 
 1763      3B9253C9 
 1763      912C903F 
 1763      D626EDCF 
 1764 bd95 D76FE032 		.ascii	"\327o\3402h\212h\310\262\270\373L\313p|\243\275\321\333\271\030"
 1764      688A68C8 
 1764      B2B8FB4C 
 1764      CB707CA3 
 1764      BDD1DBB9 
 1765 bdaa 8A1E0A9C 		.ascii	"\212\036\n\234\303\201k\252\362;NP\374 %\024\204i\236\237\035"
 1765      C3816BAA 
 1765      F23B4E50 
 1765      FC202514 
 1765      84699E9F 
 1766 bdbf B4E28F91 		.ascii	"\264\342\217\221j\263\341\247\376Qm/\356\324X\251\325e\337\007"
 1766      6AB3E1A7 
 1766      FE516D2F 
 1766      EED458A9 
 1766      D565DF07 
 1767 bdd3 D8E2CAE2 		.ascii	"\330\342\312\342\311\210\347C\265\314q\341\220h\361+=\350\355"
 1767      C988E743 
 1767      B5CC71E1 
 1767      9068F12B 
 1767      3DE8ED
 1768 bde6 C76E74B0 		.ascii	"\307nt\26069\ra\016\262\234_\"j\t!\237\347\"\227\310/\305\267"
 1768      36390D61 
 1768      0EB29C5F 
 1768      226A0921 
 1768      9FE72297 
 1769 bdfe E4B9E953 		.ascii	"\344\271\351Sx\032#\263\307\352O\256$\362\324\224+zIn\022\027"
 1769      781A23B3 
 1769      C7EA4FAE 
 1769      24F2D494 
 1769      2B7A496E 
 1770 be14 22C18449 		.ascii	"\"\301\204I\334\307\226\325\373\360\333+\rh@Z\272\365\261J\b"
 1770      DCC796D5 
 1770      FBF0DB2B 
 1770      0D68405A 
 1770      BAF5B14A 
 1771 be29 D59A2694 		.ascii	"\325\232&\224m\335^-0\023n\331O\312\204\274\256\037\355\207\004"
 1771      6DDD5E2D 
 1771      30136ED9 
 1771      4FCA84BC 
 1771      AE1FED87 
 1772 be3e 448A7820 		.ascii	"D\212x n\335@\264\344g\205\0358\344ue1\213u\302\362\214D2D)\220"
 1772      6EDD40B4 
 1772      E467851D 
 1772      38E47565 
 1772      318B75C2 
 1773 be59 9AB7787B 		.ascii	"\232\267x{\224r\206\243\031\327J\360\323\035\321K\371\026\340"
 1773      947286A3 
 1773      19D74AF0 
 1773      D31DD14B 
 1773      F916E0
 1774 be6c 0EBB9F26 		.ascii	"\016\273\237&\207\nh\036\216I~&\035v\353\006L\033\335\372\234"
 1774      870A681E 
 1774      8E497E26 
 1774      1D76EB06 
 1774      4C1BDDFA 
 1775 be81 5FF5F9F2 		.ascii	"_\365\371\362\202r\305\263\370\0342\026\263\271\344cV\bx\243"
 1775      8272C5B3 
 1775      F81C3216 
 1775      B3B9E463 
 1775      560878A3 
 1776 be95 39048649 		.ascii	"9\004\206I`\310\r\332\021\367\305b\007r\"\030SE\021R\221>\257"
 1776      60C80DDA 
 1776      11F7C562 
 1776      07722218 
 1776      53451152 
 1777 beac CC077A07 		.ascii	"\314\007z\007)\263\277_\203\20676\326\217\234\345\214\305\343"
 1777      29B3BF5F 
 1777      83863736 
 1777      D68F9CE5 
 1777      8CC5E3
 1778 bebf 941C5AA0 		.ascii	"\224\034Z\240n\331\207\224'\250l}\217\237\224\2603\225\332\233"
 1778      6ED98794 
 1778      27A86C7D 
 1778      8F9F94B0 
 1778      3395DA9B 
 1779 bed3 463992CB 		.ascii	"F9\222\313\313\210\035\221\035\025D\320\225\263\216\347\266\211"
 1779      CB881D91 
 1779      1D1544D0 
 1779      95B38EE7 
 1779      B689
 1780 bee5 AE439560 		.ascii	"\256C\225`j\036\200\235z,\241\022\225V\363\201\373\254*\354R"
 1780      6A1E809D 
 1780      7A2CA112 
 1780      9556F381 
 1780      FBAC2AEC 
 1781 befa 6224793F 		.ascii	"b$y?_\fzC\246+-\367\307\263\304*\036\306\330H\314\0233\r:\266"
 1781      5F0C7A43 
 1781      A62B2DF7 
 1781      C7B3C42A 
 1781      1EC6D848 
 1782 bf14 4B5D1563 		.ascii	"K]\025c(\303\277G$8%\345\205'\265X\264P\001\326\030\337\343\311"
 1782      28C3BF47 
 1782      243825E5 
 1782      8527B558 
 1782      B45001D6 
 1783 bf2c 4D9E8383 		.ascii	"M\236\203\203]\231\346A\322\231\310\021=@\354\256e\261\220\001"
 1783      5D99E641 
 1783      D299C811 
 1783      3D40ECAE 
 1783      65B19001 
 1784 bf40 9B11751B 		.ascii	"\233\021u\033>\\\rY\020\237\354\273\2657\302\347"
 1784      3E5C0D59 
 1784      109FECBB 
 1784      B537C2E7 
 1785 bf50 9C214629 		.string	"\234!F)M\354\f\222\276\230jP1\202\311\272\277\3540\322\226\363\212^O\231\325N\352x\340\03
 1785      4DEC0C92 
 1785      BE986A50 
 1785      3182C9BA 
 1785      BFEC30D2 
 1786 c051 C5DA7077 		.string	"\305\332pw\233\213\205f\266L\257\310\307\313\033\264%\007\227\032\321\021\341\352\363\n\0
 1786      9B8B8566 
 1786      B64CAFC8 
 1786      C7CB1BB4 
 1786      2507971A 
 1787 c0ad 99230DF5 		.ascii	"\231#\r\365\314\357\236R\032\250\036)N\364\212\003T8\367\214"
 1787      CCEF9E52 
 1787      1AA81E29 
 1787      4EF48A03 
 1787      5438F78C 
 1788 c0c1 183C83BC 		.ascii	"\030<\203\274\204\006\3411\247\315\032\021\261\037H\330\357\026"
 1788      8406E131 
 1788      A7CD1A11 
 1788      B11F48D8 
 1788      EF16
 1789 c0d3 458944B4 		.ascii	"E\211D\264\254N\366&.G&yq\312\022\247\300\001\357d9Ei\342"
 1789      AC4EF626 
 1789      2E472679 
 1789      71CA12A7 
 1789      C001EF64 
 1790 c0eb 20F0C261 		.string	" \360\302a\034\203\030\327L\3657\273\030\266~\200\210$Z\271n\243\311\221\353\316\354e\"\3
 1790      1C8318D7 
 1790      4CF537BB 
 1790      18B67E80 
 1790      88245AB9 
 1791 c1ec C90EDC4F 		.ascii	"\311\016\334O~\223\177B\374\r\337\303\256\373]\231\030-\343\275"
 1791      7E937F42 
 1791      FC0DDFC3 
 1791      AEFB5D99 
 1791      182DE3BD 
 1792 c200 9EDF6301 		.ascii	"\236\337c\001\241\017\020`\b8`V\016\314L\213\202\006q\202\327"
 1792      A10F1060 
 1792      08386056 
 1792      0ECC4C8B 
 1792      82067182 
 1793 c215 516D9F68 		.ascii	"Qm\237h\302U&E\242Y.x\206&"
 1793      C2552645 
 1793      A2592E78 
 1793      8626
 1794 c223 594E0649 		.string	"YN\006I\037\006](\206_\021.\f^\306\2663\261\3624=F\323\327\3611\031\254=\263\2334\326\270
 1794      1F065D28 
 1794      865F112E 
 1794      0C5EC6B6 
 1794      33B1F234 
 1795 c324 25012330 		.ascii	"%\001#0\013\305\367V\312\265\025\3051.\216kM\352jH\256h\247\r"
 1795      0BC5F756 
 1795      CAB515C5 
 1795      312E8E6B 
 1795      4DEA6A48 
 1796 c33c 7408DD7E 		.ascii	"t\b\335~\223\251\337\020r\f\216-\3601\214\345\203\026\224~"
 1796      93A9DF10 
 1796      720C8E2D 
 1796      F0318CE5 
 1796      8316947E 
 1797 c350 A81509DB 		.string	"\250\025\t\333\323OQU\373S\3508x\301$\325\222i*\203\031\245u5\221\274\224\346M\313\301q\3
 1797      D34F5155 
 1797      FB53E838 
 1797      78C124D5 
 1797      92692A83 
 1798 c414 63F8284B 		.ascii	"c\370(K\3220D\210\337y\256p,\017\226\024Jv\007\005F$\t\274-\300"
 1798      D2304488 
 1798      DF79AE70 
 1798      2C0F9614 
 1798      4A760705 
 1799 c42e 8C63F679 		.ascii	"\214c\366y\351f\211\371\200\221\205\3122M\214\255\330!\305\204"
 1799      E96689F9 
 1799      809185CA 
 1799      324D8CAD 
 1799      D821C584 
 1800 c442 24A0437C 		.ascii	"$\240C|\241|E\r(T\t\245\222\252\345Z\030\202\205\033\220\005"
 1800      A17C450D 
 1800      285409A5 
 1800      92AAE55A 
 1800      1882851B 
 1801 c458 04545045 		.ascii	"\004TPE\330\301Dmx\264\347\r<\253\327{\033\307_B\026\225x\377"
 1801      D8C1446D 
 1801      78B4E70D 
 1801      3CABD77B 
 1801      1BC75F42 
 1802 c470 2549C41D 		.ascii	"%I\304\035\217\231\355\270\2570\244\252\354\315\236\300\206\327"
 1802      8F99EDB8 
 1802      AF30A4AA 
 1802      ECCD9EC0 
 1802      86D7
 1803 c482 12DF23F9 		.ascii	"\022\337#\371\266;\364L\224G\202\345\365\344\220S\244#\2117\r"
 1803      B63BF44C 
 1803      944782E5 
 1803      F5E49053 
 1803      A4238937 
 1804 c497 8E49ED0E 		.ascii	"\216I\355\016\313\332'\350\363\325QG\252\003\2636\223\351\351"
 1804      CBDA27E8 
 1804      F3D55147 
 1804      AA03B336 
 1804      93E9E9
 1805 c4aa AC8C8D30 		.ascii	"\254\214\2150\004.@\177p\020\030u\213\001\375\341b\214\232Wn"
 1805      042E407F 
 1805      70101875 
 1805      8B01FDE1 
 1805      628C9A57 
 1806 c4bf 8726BE02 		.ascii	"\207&\276\002\236\221.e\216\333\356\377\005\t\026Z=\242\200\361"
 1806      9E912E65 
 1806      8EDBEEFF 
 1806      0509165A 
 1806      3DA280F1 
 1807 c4d3 7E241C21 		.ascii	"~$\034!\b\210Q\330jD\210SY\2565\204\274\020\354\317\007\007\263"
 1807      088851D8 
 1807      6A448853 
 1807      59AE3584 
 1807      BC10ECCF 
 1808 c4ea EC5354F7 		.ascii	"\354ST\367o \225\036z\330\333&-\226Vg\231\215\220\214\341)\033"
 1808      6F20951E 
 1808      7AD8DB26 
 1808      2D965667 
 1808      998D908C 
 1809 c501 26925538 		.ascii	"&\222U8\300@\337\362\026H\355\305H\232\367R\177\004\366\303\245"
 1809      C040DFF2 
 1809      1648EDC5 
 1809      489AF752 
 1809      7F04F6C3 
 1810 c516 A7534765 		.ascii	"\247SGe\225!\264\254QA;\322r\205\225J\320E\035\266\340\264\301"
 1810      9521B4AC 
 1810      51413BD2 
 1810      7285954A 
 1810      D0451DB6 
 1811 c52d 48E229AF 		.ascii	"H\342)\257\347\375[\025\311\363\270P\311\276\243>\001\325\351"
 1811      E7FD5B15 
 1811      C9F3B850 
 1811      C9BEA33E 
 1811      01D5E9
 1812 c540 9CDAC627 		.ascii	"\234\332\306'\207\335$rn\345\007\264C\364\237\356\372\022\261"
 1812      87DD2472 
 1812      6EE507B4 
 1812      43F49FEE 
 1812      FA12B1
 1813 c553 38167FDF 		.ascii	"8\026\177\337d\026\317:\214\301\373\306\237fzt\327$6\262\003"
 1813      6416CF3A 
 1813      8CC1FBC6 
 1813      9F667A74 
 1813      D72436B2 
 1814 c568 8541B4CF 		.ascii	"\205A\264\317\365\240\025\332M\016\275\326\330\"+\fO\307;\235"
 1814      F5A015DA 
 1814      4D0EBDD6 
 1814      D8222B0C 
 1814      4FC73B9D 
 1815 c57c D92AD4A7 		.ascii	"\331*\324\247\223v\307\262\210q\330\225\376\343:v\242\036`\217"
 1815      9376C7B2 
 1815      8871D895 
 1815      FEE33A76 
 1815      A21E608F 
 1816 c590 AE36B0F6 		.ascii	"\2566\260\366\242C\317\362\267_2\300\252\267\332\007\266\316"
 1816      A243CFF2 
 1816      B75F32C0 
 1816      AAB7DA07 
 1816      B6CE
 1817 c5a2 66D3F5B5 		.ascii	"f\323\365\265\"\332\0233\235\005\212\013\260\322\225]&x,\333"
 1817      22DA1333 
 1817      9D058A0B 
 1817      B0D2955D 
 1817      26782CDB 
 1818 c5b6 C82FC457 		.ascii	"\310/\304W\3361Uy\307\351:\343eryC\031\261|\303\225\230vTH\326"
 1818      DE315579 
 1818      C7E93AE3 
 1818      65727943 
 1818      19B17CC3 
 1819 c5d0 397FC73B 		.ascii	"9\177\307;,\300\310\220\326'w\034\321\233oF\205%%\242-\n"
 1819      2CC0C890 
 1819      D627771C 
 1819      D19B6F46 
 1819      852525A2 
 1820 c5e6 182BDEBB 		.string	"\030+\336\273{s#{\263\001\340Y\324\243a\311C\025\031\255q\322\365M\026Z!:#\355\310C\325\2
 1820      7B73237B 
 1820      B301E059 
 1820      D4A361C9 
 1820      431519AD 
 1821 c6e7 6F00     		.string	"o"
 1822 c6e9 C13FAAB1 		.string	"\301?\252\261\360TC\020\343\220\266\311\251e\351\365\335\374\204P\276:\372\031\236\360\24
 1822      F0544310 
 1822      E390B6C9 
 1822      A965E9F5 
 1822      DDFC8450 
 1823 c77c 9E520714 		.string	"\236R\007\024\b\235U\005\\c\005\351\246\226t\b$\206\261\205;\352\016$q\272\001\311U\303)\
 1823      089D5505 
 1823      5C6305E9 
 1823      A6967408 
 1823      2486B185 
 1824 c7a4 CF81A20C 		.ascii	"\317\201\242\f\034dP#\360\303\233K\237j\036\030\276`\204\315"
 1824      1C645023 
 1824      F0C39B4B 
 1824      9F6A1E18 
 1824      BE6084CD 
 1825 c7b8 5CA220F5 		.ascii	"\\\242 \365\177\375\031\335\213\336S\306\213H\315c\351\013"
 1825      7FFD19DD 
 1825      8BDE53C6 
 1825      8B48CD63 
 1825      E90B
 1826 c7ca 73BEB585 		.string	"s\276\265\205;%}\211\243\373\3112\225!\243\327\n\301\223\377X\310\023m\254\374^\250\nO\27
 1826      3B257D89 
 1826      A3FBC932 
 1826      9521A3D7 
 1826      0AC193FF 
 1827 c8cb 75B68045 		.string	"u\266\200E\265\205+2\005\244Gar\366\022P\347$_\224?mC\007\202\276c\305\344\216\231\231\22
 1827      B5852B32 
 1827      05A44761 
 1827      72F61250 
 1827      E7245F94 
 1828 c933 0E6B3A64 		.string	"\016k:dcg\366\310\223\337\342\210\276\277"
 1828      6367F6C8 
 1828      93DFE288 
 1828      BEBF00
 1829 c942 AA315FB7 		.ascii	"\2521_\267n\3669Y#C\271\316\330\256\224\247ntFN|\220ws~z\023"
 1829      6EF63959 
 1829      2343B9CE 
 1829      D8AE94A7 
 1829      6E74464E 
 1830 c95d 9AF7C049 		.ascii	"\232\367\300I\234!\337\203\360\036B\203jz\356\257\037\337)\214"
 1830      9C21DF83 
 1830      F01E4283 
 1830      6A7AEEAF 
 1830      1FDF298C 
 1831 c971 B89C2F21 		.ascii	"\270\234/!y\264\3052\244!\352\rq\304R`L\230~\263\320jZ\327z\364"
 1831      79B4C532 
 1831      A421EA0D 
 1831      71C45260 
 1831      4C987EB3 
 1832 c98b 4386F2A0 		.ascii	"C\206\362\240F\372\275\265\262\2508\031\235~b\243\001\266\211"
 1832      46FABDB5 
 1832      B2A83819 
 1832      9D7E62A3 
 1832      01B689
 1833 c99e 98CC50CD 		.ascii	"\230\314P\315L\265c[6}\332j\264\246&\307wzm\307\255\b\370\337"
 1833      4CB5635B 
 1833      367DDA6A 
 1833      B4A626C7 
 1833      777A6DC7 
 1834 c9b6 FC7289FC 		.ascii	"\374r\211\374L\276\374{9\340x\211\b\343\244\022\374\251&B\226"
 1834      4CBEFC7B 
 1834      39E07889 
 1834      08E3A412 
 1834      FCA92642 
 1835 c9cb 3BDF512D 		.ascii	";\337Q-\216`P\354'*\267\004o\"\312x\305\334\364|\272\266DM)y"
 1835      8E6050EC 
 1835      272AB704 
 1835      6F22CA78 
 1835      C5DCF47C 
 1836 c9e5 02984A2E 		.ascii	"\002\230J.\227\016Y\233Zd\037\326\237\326\2250\326C\372\356\311"
 1836      970E599B 
 1836      5A641FD6 
 1836      9FD69530 
 1836      D643FAEE 
 1837 c9fa 4D11CE47 		.ascii	"M\021\316G9Y\241\002\370\316\303{\373u\r\344\255j\312C2\342."
 1837      3959A102 
 1837      F8CEC37B 
 1837      FB750DE4 
 1837      AD6ACA43 
 1838 ca11 A16642CE 		.ascii	"\241fB\316\317\347>I\0234\2479c%\213\357\351E\226(\361\332\327"
 1838      CFE73E49 
 1838      1334A739 
 1838      63258BEF 
 1838      E9459628 
 1839 ca28 837A5B88 		.ascii	"\203z[\2103\336$\016\341c\302\370E\335\223\322Ih\262\250}\017"
 1839      33DE240E 
 1839      E163C2F8 
 1839      45DD93D2 
 1839      4968B2A8 
 1840 ca3e 4B506CE7 		.ascii	"KPl\347\234\265\205\216\036\307\374\306N\224\251w\277\b\256\001"
 1840      9CB5858E 
 1840      1EC7FCC6 
 1840      4E94A977 
 1840      BF08AE01 
 1841 ca52 30487345 		.ascii	"0HsE\213U\352\320\205!g\254\001\016\222mg\217}\336_>\305\306"
 1841      8B55EAD0 
 1841      852167AC 
 1841      010E926D 
 1841      678F7DDE 
 1842 ca6a 3F878419 		.ascii	"?\207\204\031\233\232\323\241\275\245m8\217\273i\023@\255Q\315"
 1842      9B9AD3A1 
 1842      BDA56D38 
 1842      8FBB6913 
 1842      40AD51CD 
 1843 ca7e F8FAD8F0 		.ascii	"\370\372\330\3601\232\231\301\317\021cP\366K\215\301\274#+\257"
 1843      319A99C1 
 1843      CF116350 
 1843      F64B8DC1 
 1843      BC232BAF 
 1844 ca92 C551A34D 		.ascii	"\305Q\243M\302\241K\365\035\f\366\363\223X\007\303\316\027\235"
 1844      C2A14BF5 
 1844      1D0CF6F3 
 1844      935807C3 
 1844      CE179D
 1845 caa5 DAD9082C 		.ascii	"\332\331\b,u\224\207P\003\367\203\216\313\355j\332 \001I\364"
 1845      75948750 
 1845      03F7838E 
 1845      CBED6ADA 
 1845      200149F4 
 1846 cab9 717A2791 		.ascii	"qz'\221\020\3259*[\213\221R\236\252e\241\305A\364U=\231\334\235"
 1846      10D5392A 
 1846      5B8B9152 
 1846      9EAA65A1 
 1846      C541F455 
 1847 cad1 76DBA5B1 		.ascii	"v\333\245\261\022\017\351\217\341f\240Y(\310\351\303S\230?9\204"
 1847      120FE98F 
 1847      E166A059 
 1847      28C8E9C3 
 1847      53983F39 
 1848 cae6 CADE6E9F 		.ascii	"\312\336n\237\352cA`\333g\320K\264\247B\336\320\210\241?\357"
 1848      EA634160 
 1848      DB67D04B 
 1848      B4A742DE 
 1848      D088A13F 
 1849 cafb 3D08063F 		.ascii	"=\b\006?8\353V\237\243\375\304\274\327tu\313\352\003N\005\272"
 1849      38EB569F 
 1849      A3FDC4BC 
 1849      D77475CB 
 1849      EA034E05 
 1850 cb10 1340F380 		.ascii	"\023@\363\200\300\013((O9\274\307\2546\f["
 1850      C00B2828 
 1850      4F39BCC7 
 1850      AC360C5B 
 1851 cb20 BF7F7A7F 		.string	"\277\177z\177\227\372C\266O$u]S\0167\016sv\273p\320\253JT6v \b\215l0\362X]a\335\345\374Q\
 1851      97FA43B6 
 1851      4F24755D 
 1851      530E370E 
 1851      7376BB70 
 1852 cb7a 985A8FEE 		.string	"\230Z\217\356\211&YS\357\315p%\276\034)b\347X\227\214\223\304\221\232Ms\340JX}\033\264\33
 1852      89265953 
 1852      EFCD7025 
 1852      BE1C2962 
 1852      E758978C 
 1853 cc14 DA127491 		.string	"\332\022t\221\273\262}\366\243\273.\326\027\340L\314\274`u\222\251&\033)7\247\215\257g\37
 1853      BBB27DF6 
 1853      A3BB2ED6 
 1853      17E04CCC 
 1853      BC607592 
 1854 ccdf B13F798B 		.string	"\261?y\213b\216\332\022\231\0356\f#\363Y\177\225\215\2749$\225I\256s\300\277\"\032g#qWT4(
 1854      628EDA12 
 1854      991D360C 
 1854      23F3597F 
 1854      958DBC39 
 1855 cd2a B6330933 		.string	"\2663\t3\034\006\242\367\016\352\001\031\022-2{\237C\237\31132\205B\275M\272\016\261\217\
 1855      1C06A2F7 
 1855      0EEA0119 
 1855      122D327B 
 1855      9F439FC9 
 1856 cd7f 79DFDFD7 		.string	"y\337\337\327\322\266r\304\227+\302h\004\361Z:8\214vy\351\342e\006\241\370\301\306\210\r\
 1856      D2B672C4 
 1856      972BC268 
 1856      04F15A3A 
 1856      388C7679 
 1857 cdcf C3530360 		.string	"\303S\003`\314e\2330\320O/v,\2454\215|\013\025pq\016U\214h\274\330\213\202\345<\"\377\371
 1857      CC659B30 
 1857      D04F2F76 
 1857      2CA5348D 
 1857      7C0B1570 
 1858 ce81 1642A9E0 		.string	"\026B\251\340\035\013 \021\004\365"
 1858      1D0B2011 
 1858      04F500
 1859 ce8c B5E32BFB 		.string	"\265\343+\373t\247\370\303f\321\227\375T\234\0173\270\207\024,\234?\200\221\336~\240seg\0
 1859      74A7F8C3 
 1859      66D197FD 
 1859      549C0F33 
 1859      B887142C 
 1860 cf56 946EA472 		.string	"\224n\244rxBfU\235\365\351/%Ad\216Ik\372V\353h\362\352\2663\343\346\276\246\244c\022\360Q
 1860      78426655 
 1860      9DF5E92F 
 1860      2541648E 
 1860      496BFA56 
 1861 cf96 8E4E41E6 		.string	"\216NA\3468\206i\254\375\\~\365\376,\212\322\240\355\265vlPYS\323R\255j\3366\353\235\365\
 1861      388669AC 
 1861      FD5C7EF5 
 1861      FE2C8AD2 
 1861      A0EDB576 
 1862 cfe2 8D68EB27 		.string	"\215h\353'\360\350\320\020,4\021\242\264\225\372\027\207\234\305\321f\276\035r\303q\005Zx
 1862      F0E8D010 
 1862      2C3411A2 
 1862      B495FA17 
 1862      879CC5D1 
 1863 d0aa 0E3400   		.string	"\0164"
 1864 d0ad F8F28970 		.string	"\370\362\211p\032\326t\3343\331\331\300\374\250\323\235\356\363\327T\365\225|?a\177\241\2
 1864      1AD674DC 
 1864      33D9D9C0 
 1864      FCA8D39D 
 1864      EEF3D754 
 1865 d17e 01C402E0 		.string	"\001\304\002\340A\020>\020\233\344\324\013\304\313\212V\035\324\326\"S_g\\7*\235\020\304|
 1865      41103E10 
 1865      9BE4D40B 
 1865      C4CB8A56 
 1865      1DD4D622 
 1866 d22b B7430A76 		.ascii	"\267C\nv\rz\033o\375\234\314\321\375\226L:u\352$\003b\327\225"
 1866      0D7A1B6F 
 1866      FD9CCCD1 
 1866      FD964C3A 
 1866      75EA2403 
 1867 d242 F66A754A 		.ascii	"\366juJ\252\260\023\377\226\032\027\032|`\256\r\311'\276\357"
 1867      AAB013FF 
 1867      961A171A 
 1867      7C60AE0D 
 1867      C927BEEF 
 1868 d256 5A89CCA0 		.ascii	"Z\211\314\240\264fn\227>\230\261\024/N\f\350{\223#v\321\367E"
 1868      B4666E97 
 1868      3E98B114 
 1868      2F4E0CE8 
 1868      7B932376 
 1869 d26d 7B8E8FA3 		.ascii	"{\216\217\243-\261\212\251\303\026\256d\002\237~\3579W\354\234"
 1869      2DB18AA9 
 1869      C316AE64 
 1869      029F7EEF 
 1869      3957EC9C 
 1870 d281 1267E647 		.ascii	"\022g\346G^\036\034\303\032R{d#^\217\026\007\224\272qA*\266\002"
 1870      5E1E1CC3 
 1870      1A527B64 
 1870      235E8F16 
 1870      0794BA71 
 1871 d299 29074F3A 		.ascii	")\007O:\237W\241HW\333\273``\237\266\023\360bC\375`\336\224\256"
 1871      9F57A148 
 1871      57DBBB60 
 1871      609FB613 
 1871      F06243FD 
 1872 d2b1 0209A720 		.ascii	"\002\t\247 U_\265tV\250\360\240}|&\303\274m\210:\316\263\031"
 1872      555FB574 
 1872      56A8F0A0 
 1872      7D7C26C3 
 1872      BC6D883A 
 1873 d2c8 563BFFCE 		.ascii	"V;\377\316:\364\234\317SM\251\246xR\ft|\326\016\320\307\213E"
 1873      3AF49CCF 
 1873      534DA9A6 
 1873      78520C74 
 1873      7CD60ED0 
 1874 d2df E11D9CDE 		.ascii	"\341\035\234\336@\020\226\027UMCp?k\247\035\200"
 1874      40109617 
 1874      554D4370 
 1874      3F6BA71D 
 1874      80
 1875 d2f0 7C1F456E 		.string	"|\037En\351\236 X\017\024\327\320\222\021\021#\027\300\202\323i\252G\3451\r\346%>\223]W\2
 1875      E99E2058 
 1875      0F14D7D0 
 1875      92111123 
 1875      17C082D3 
 1876 d34e DDCE9B50 		.ascii	"\335\316\233P\277\323\253\272\245\216\025\353+X\206Z\241m\023"
 1876      BFD3ABBA 
 1876      A58E15EB 
 1876      2B58865A 
 1876      A16D13
 1877 d361 320A95FA 		.ascii	"2\n\225\372\026\372%q4e\237U\006\250\\\333Z\231\335\222\206\326"
 1877      16FA2571 
 1877      34659F55 
 1877      06A85CDB 
 1877      5A99DD92 
 1878 d377 40C47687 		.ascii	"@\304v\207\222(g\035\375y\360\254/\234\270\177q|\350y\377\t\023"
 1878      9228671D 
 1878      FD79F0AC 
 1878      2F9CB87F 
 1878      717CE879 
 1879 d38e E22D7AD9 		.ascii	"\342-z\331\330v\210\320a\"k\370n\006\241\327\327\375\022\334"
 1879      D87688D0 
 1879      61226BF8 
